ARM GAS  /tmp/ccXqF3yr.s 			page 1


   1              		.syntax unified
   2              		.cpu cortex-m4
   3              		.fpu softvfp
   4              		.eabi_attribute 20, 1
   5              		.eabi_attribute 21, 1
   6              		.eabi_attribute 23, 3
   7              		.eabi_attribute 24, 1
   8              		.eabi_attribute 25, 1
   9              		.eabi_attribute 26, 1
  10              		.eabi_attribute 30, 6
  11              		.eabi_attribute 34, 1
  12              		.eabi_attribute 18, 4
  13              		.thumb
  14              		.file	"adc.c"
  15              		.text
  16              	.Ltext0:
  17              		.cfi_sections	.debug_frame
  18              		.section	.text.port_lock,"ax",%progbits
  19              		.align	2
  20              		.p2align 4,,15
  21              		.thumb
  22              		.thumb_func
  23              		.type	port_lock, %function
  24              	port_lock:
  25              	.LFB127:
  26              		.file 1 "/home/efe/ChibiOS/os/rt/ports/ARMCMx/chcore_v7m.h"
  27              		.loc 1 456 0
  28              		.cfi_startproc
  29              		@ args = 0, pretend = 0, frame = 8
  30              		@ frame_needed = 0, uses_anonymous_args = 0
  31              		@ link register save eliminated.
  32 0000 82B0     		sub	sp, sp, #8
  33              		.cfi_def_cfa_offset 8
  34 0002 2023     		movs	r3, #32
  35 0004 0193     		str	r3, [sp, #4]
  36              	.LBB6:
  37              	.LBB7:
  38              		.file 2 "/home/efe/ChibiOS/os/ext/CMSIS/include/core_cmFunc.h"
  39              		.loc 2 548 0
  40 0006 019B     		ldr	r3, [sp, #4]
  41              	@ 548 "/home/efe/ChibiOS/os/ext/CMSIS/include/core_cmFunc.h" 1
  42 0008 83F31188 		MSR basepri, r3
  43              	@ 0 "" 2
  44              		.thumb
  45              	.LBE7:
  46              	.LBE6:
  47              		.loc 1 463 0
  48 000c 02B0     		add	sp, sp, #8
  49              		@ sp needed
  50 000e 7047     		bx	lr
  51              		.cfi_endproc
  52              	.LFE127:
  53              		.size	port_lock, .-port_lock
  54              		.section	.text.port_unlock,"ax",%progbits
  55              		.align	2
  56              		.p2align 4,,15
  57              		.thumb
ARM GAS  /tmp/ccXqF3yr.s 			page 2


  58              		.thumb_func
  59              		.type	port_unlock, %function
  60              	port_unlock:
  61              	.LFB128:
  62              		.loc 1 470 0
  63              		.cfi_startproc
  64              		@ args = 0, pretend = 0, frame = 8
  65              		@ frame_needed = 0, uses_anonymous_args = 0
  66              		@ link register save eliminated.
  67 0000 82B0     		sub	sp, sp, #8
  68              		.cfi_def_cfa_offset 8
  69 0002 0023     		movs	r3, #0
  70 0004 0193     		str	r3, [sp, #4]
  71              	.LBB8:
  72              	.LBB9:
  73              		.loc 2 548 0
  74 0006 019B     		ldr	r3, [sp, #4]
  75              	@ 548 "/home/efe/ChibiOS/os/ext/CMSIS/include/core_cmFunc.h" 1
  76 0008 83F31188 		MSR basepri, r3
  77              	@ 0 "" 2
  78              		.thumb
  79              	.LBE9:
  80              	.LBE8:
  81              		.loc 1 477 0
  82 000c 02B0     		add	sp, sp, #8
  83              		@ sp needed
  84 000e 7047     		bx	lr
  85              		.cfi_endproc
  86              	.LFE128:
  87              		.size	port_unlock, .-port_unlock
  88              		.section	.text.chSysLock,"ax",%progbits
  89              		.align	2
  90              		.p2align 4,,15
  91              		.thumb
  92              		.thumb_func
  93              		.type	chSysLock, %function
  94              	chSysLock:
  95              	.LFB167:
  96              		.file 3 "/home/efe/ChibiOS/os/rt/include/chsys.h"
  97              		.loc 3 346 0
  98              		.cfi_startproc
  99              		@ args = 0, pretend = 0, frame = 0
 100              		@ frame_needed = 0, uses_anonymous_args = 0
 101 0000 08B5     		push	{r3, lr}
 102              		.cfi_def_cfa_offset 8
 103              		.cfi_offset 3, -8
 104              		.cfi_offset 14, -4
 105              		.loc 3 348 0
 106 0002 FFF7FEFF 		bl	port_lock
 107              		.loc 3 349 0
 108 0006 FFF7FEFF 		bl	_stats_start_measure_crit_thd
 109              		.loc 3 350 0
 110 000a FFF7FEFF 		bl	_dbg_check_lock
 111              		.loc 3 351 0
 112 000e 08BD     		pop	{r3, pc}
 113              		.cfi_endproc
 114              	.LFE167:
ARM GAS  /tmp/ccXqF3yr.s 			page 3


 115              		.size	chSysLock, .-chSysLock
 116              		.section	.text.chSysUnlock,"ax",%progbits
 117              		.align	2
 118              		.p2align 4,,15
 119              		.thumb
 120              		.thumb_func
 121              		.type	chSysUnlock, %function
 122              	chSysUnlock:
 123              	.LFB168:
 124              		.loc 3 358 0
 125              		.cfi_startproc
 126              		@ args = 0, pretend = 0, frame = 0
 127              		@ frame_needed = 0, uses_anonymous_args = 0
 128 0000 08B5     		push	{r3, lr}
 129              		.cfi_def_cfa_offset 8
 130              		.cfi_offset 3, -8
 131              		.cfi_offset 14, -4
 132              		.loc 3 360 0
 133 0002 FFF7FEFF 		bl	_dbg_check_unlock
 134              		.loc 3 361 0
 135 0006 FFF7FEFF 		bl	_stats_stop_measure_crit_thd
 136              		.loc 3 367 0
 137 000a 094B     		ldr	r3, .L6
 138 000c 1A68     		ldr	r2, [r3]
 139 000e 084B     		ldr	r3, .L6
 140 0010 9A42     		cmp	r2, r3
 141 0012 0AD0     		beq	.L5
 142              		.loc 3 367 0 is_stmt 0 discriminator 1
 143 0014 064B     		ldr	r3, .L6
 144 0016 9B69     		ldr	r3, [r3, #24]
 145 0018 9A68     		ldr	r2, [r3, #8]
 146 001a 054B     		ldr	r3, .L6
 147 001c 1B68     		ldr	r3, [r3]
 148 001e 9B68     		ldr	r3, [r3, #8]
 149 0020 9A42     		cmp	r2, r3
 150 0022 02D2     		bcs	.L5
 151 0024 0348     		ldr	r0, .L6+4
 152 0026 FFF7FEFF 		bl	chSysHalt
 153              	.L5:
 154              		.loc 3 371 0 is_stmt 1
 155 002a FFF7FEFF 		bl	port_unlock
 156              		.loc 3 372 0
 157 002e 08BD     		pop	{r3, pc}
 158              	.L7:
 159              		.align	2
 160              	.L6:
 161 0030 00000000 		.word	ch
 162 0034 00000000 		.word	__func__.5925
 163              		.cfi_endproc
 164              	.LFE168:
 165              		.size	chSysUnlock, .-chSysUnlock
 166 0038 AFF30080 		.section	.text.osalSysLock,"ax",%progbits
 166      AFF30080 
 167              		.align	2
 168              		.p2align 4,,15
 169              		.thumb
 170              		.thumb_func
ARM GAS  /tmp/ccXqF3yr.s 			page 4


 171              		.type	osalSysLock, %function
 172              	osalSysLock:
 173              	.LFB244:
 174              		.file 4 "/home/efe/ChibiOS/os/hal/osal/rt/osal.h"
 175              		.loc 4 491 0
 176              		.cfi_startproc
 177              		@ args = 0, pretend = 0, frame = 0
 178              		@ frame_needed = 0, uses_anonymous_args = 0
 179 0000 08B5     		push	{r3, lr}
 180              		.cfi_def_cfa_offset 8
 181              		.cfi_offset 3, -8
 182              		.cfi_offset 14, -4
 183              		.loc 4 493 0
 184 0002 FFF7FEFF 		bl	chSysLock
 185              		.loc 4 494 0
 186 0006 08BD     		pop	{r3, pc}
 187              		.cfi_endproc
 188              	.LFE244:
 189              		.size	osalSysLock, .-osalSysLock
 190 0008 AFF30080 		.section	.text.osalSysUnlock,"ax",%progbits
 190      AFF30080 
 191              		.align	2
 192              		.p2align 4,,15
 193              		.thumb
 194              		.thumb_func
 195              		.type	osalSysUnlock, %function
 196              	osalSysUnlock:
 197              	.LFB245:
 198              		.loc 4 502 0
 199              		.cfi_startproc
 200              		@ args = 0, pretend = 0, frame = 0
 201              		@ frame_needed = 0, uses_anonymous_args = 0
 202 0000 08B5     		push	{r3, lr}
 203              		.cfi_def_cfa_offset 8
 204              		.cfi_offset 3, -8
 205              		.cfi_offset 14, -4
 206              		.loc 4 504 0
 207 0002 FFF7FEFF 		bl	chSysUnlock
 208              		.loc 4 505 0
 209 0006 08BD     		pop	{r3, pc}
 210              		.cfi_endproc
 211              	.LFE245:
 212              		.size	osalSysUnlock, .-osalSysUnlock
 213 0008 AFF30080 		.section	.text.osalThreadSuspendS,"ax",%progbits
 213      AFF30080 
 214              		.align	2
 215              		.p2align 4,,15
 216              		.thumb
 217              		.thumb_func
 218              		.type	osalThreadSuspendS, %function
 219              	osalThreadSuspendS:
 220              	.LFB257:
 221              		.loc 4 686 0
 222              		.cfi_startproc
 223              		@ args = 0, pretend = 0, frame = 8
 224              		@ frame_needed = 0, uses_anonymous_args = 0
 225 0000 00B5     		push	{lr}
ARM GAS  /tmp/ccXqF3yr.s 			page 5


 226              		.cfi_def_cfa_offset 4
 227              		.cfi_offset 14, -4
 228 0002 83B0     		sub	sp, sp, #12
 229              		.cfi_def_cfa_offset 16
 230 0004 0190     		str	r0, [sp, #4]
 231              		.loc 4 688 0
 232 0006 0198     		ldr	r0, [sp, #4]
 233 0008 FFF7FEFF 		bl	chThdSuspendS
 234 000c 0346     		mov	r3, r0
 235              		.loc 4 689 0
 236 000e 1846     		mov	r0, r3
 237 0010 03B0     		add	sp, sp, #12
 238              		@ sp needed
 239 0012 5DF804FB 		ldr	pc, [sp], #4
 240              		.cfi_endproc
 241              	.LFE257:
 242              		.size	osalThreadSuspendS, .-osalThreadSuspendS
 243 0016 00BFAFF3 		.section	.text.osalThreadResumeI,"ax",%progbits
 243      0080AFF3 
 243      0080
 244              		.align	2
 245              		.p2align 4,,15
 246              		.thumb
 247              		.thumb_func
 248              		.type	osalThreadResumeI, %function
 249              	osalThreadResumeI:
 250              	.LFB259:
 251              		.loc 4 726 0
 252              		.cfi_startproc
 253              		@ args = 0, pretend = 0, frame = 8
 254              		@ frame_needed = 0, uses_anonymous_args = 0
 255 0000 00B5     		push	{lr}
 256              		.cfi_def_cfa_offset 4
 257              		.cfi_offset 14, -4
 258 0002 83B0     		sub	sp, sp, #12
 259              		.cfi_def_cfa_offset 16
 260 0004 0190     		str	r0, [sp, #4]
 261 0006 0091     		str	r1, [sp]
 262              		.loc 4 728 0
 263 0008 0198     		ldr	r0, [sp, #4]
 264 000a 0099     		ldr	r1, [sp]
 265 000c FFF7FEFF 		bl	chThdResumeI
 266              		.loc 4 729 0
 267 0010 03B0     		add	sp, sp, #12
 268              		@ sp needed
 269 0012 5DF804FB 		ldr	pc, [sp], #4
 270              		.cfi_endproc
 271              	.LFE259:
 272              		.size	osalThreadResumeI, .-osalThreadResumeI
 273 0016 00BFAFF3 		.section	.text.osalThreadResumeS,"ax",%progbits
 273      0080AFF3 
 273      0080
 274              		.align	2
 275              		.p2align 4,,15
 276              		.thumb
 277              		.thumb_func
 278              		.type	osalThreadResumeS, %function
ARM GAS  /tmp/ccXqF3yr.s 			page 6


 279              	osalThreadResumeS:
 280              	.LFB260:
 281              		.loc 4 741 0
 282              		.cfi_startproc
 283              		@ args = 0, pretend = 0, frame = 8
 284              		@ frame_needed = 0, uses_anonymous_args = 0
 285 0000 00B5     		push	{lr}
 286              		.cfi_def_cfa_offset 4
 287              		.cfi_offset 14, -4
 288 0002 83B0     		sub	sp, sp, #12
 289              		.cfi_def_cfa_offset 16
 290 0004 0190     		str	r0, [sp, #4]
 291 0006 0091     		str	r1, [sp]
 292              		.loc 4 743 0
 293 0008 0198     		ldr	r0, [sp, #4]
 294 000a 0099     		ldr	r1, [sp]
 295 000c FFF7FEFF 		bl	chThdResumeS
 296              		.loc 4 744 0
 297 0010 03B0     		add	sp, sp, #12
 298              		@ sp needed
 299 0012 5DF804FB 		ldr	pc, [sp], #4
 300              		.cfi_endproc
 301              	.LFE260:
 302              		.size	osalThreadResumeS, .-osalThreadResumeS
 303 0016 00BFAFF3 		.section	.text.osalMutexObjectInit,"ax",%progbits
 303      0080AFF3 
 303      0080
 304              		.align	2
 305              		.p2align 4,,15
 306              		.thumb
 307              		.thumb_func
 308              		.type	osalMutexObjectInit, %function
 309              	osalMutexObjectInit:
 310              	.LFB268:
 311              		.loc 4 884 0
 312              		.cfi_startproc
 313              		@ args = 0, pretend = 0, frame = 8
 314              		@ frame_needed = 0, uses_anonymous_args = 0
 315 0000 00B5     		push	{lr}
 316              		.cfi_def_cfa_offset 4
 317              		.cfi_offset 14, -4
 318 0002 83B0     		sub	sp, sp, #12
 319              		.cfi_def_cfa_offset 16
 320 0004 0190     		str	r0, [sp, #4]
 321              		.loc 4 887 0
 322 0006 0198     		ldr	r0, [sp, #4]
 323 0008 FFF7FEFF 		bl	chMtxObjectInit
 324              		.loc 4 893 0
 325 000c 03B0     		add	sp, sp, #12
 326              		@ sp needed
 327 000e 5DF804FB 		ldr	pc, [sp], #4
 328              		.cfi_endproc
 329              	.LFE268:
 330              		.size	osalMutexObjectInit, .-osalMutexObjectInit
 331 0012 00BFAFF3 		.section	.text.osalMutexLock,"ax",%progbits
 331      0080AFF3 
 331      0080AFF3 
ARM GAS  /tmp/ccXqF3yr.s 			page 7


 331      0080
 332              		.align	2
 333              		.p2align 4,,15
 334              		.thumb
 335              		.thumb_func
 336              		.type	osalMutexLock, %function
 337              	osalMutexLock:
 338              	.LFB269:
 339              		.loc 4 904 0
 340              		.cfi_startproc
 341              		@ args = 0, pretend = 0, frame = 8
 342              		@ frame_needed = 0, uses_anonymous_args = 0
 343 0000 00B5     		push	{lr}
 344              		.cfi_def_cfa_offset 4
 345              		.cfi_offset 14, -4
 346 0002 83B0     		sub	sp, sp, #12
 347              		.cfi_def_cfa_offset 16
 348 0004 0190     		str	r0, [sp, #4]
 349              		.loc 4 907 0
 350 0006 0198     		ldr	r0, [sp, #4]
 351 0008 FFF7FEFF 		bl	chMtxLock
 352              		.loc 4 913 0
 353 000c 03B0     		add	sp, sp, #12
 354              		@ sp needed
 355 000e 5DF804FB 		ldr	pc, [sp], #4
 356              		.cfi_endproc
 357              	.LFE269:
 358              		.size	osalMutexLock, .-osalMutexLock
 359 0012 00BFAFF3 		.section	.text.osalMutexUnlock,"ax",%progbits
 359      0080AFF3 
 359      0080AFF3 
 359      0080
 360              		.align	2
 361              		.p2align 4,,15
 362              		.thumb
 363              		.thumb_func
 364              		.type	osalMutexUnlock, %function
 365              	osalMutexUnlock:
 366              	.LFB270:
 367              		.loc 4 928 0
 368              		.cfi_startproc
 369              		@ args = 0, pretend = 0, frame = 8
 370              		@ frame_needed = 0, uses_anonymous_args = 0
 371 0000 00B5     		push	{lr}
 372              		.cfi_def_cfa_offset 4
 373              		.cfi_offset 14, -4
 374 0002 83B0     		sub	sp, sp, #12
 375              		.cfi_def_cfa_offset 16
 376 0004 0190     		str	r0, [sp, #4]
 377              		.loc 4 931 0
 378 0006 0198     		ldr	r0, [sp, #4]
 379 0008 FFF7FEFF 		bl	chMtxUnlock
 380              		.loc 4 937 0
 381 000c 03B0     		add	sp, sp, #12
 382              		@ sp needed
 383 000e 5DF804FB 		ldr	pc, [sp], #4
 384              		.cfi_endproc
ARM GAS  /tmp/ccXqF3yr.s 			page 8


 385              	.LFE270:
 386              		.size	osalMutexUnlock, .-osalMutexUnlock
 387 0012 00BFAFF3 		.section	.text.adcInit,"ax",%progbits
 387      0080AFF3 
 387      0080AFF3 
 387      0080
 388              		.align	2
 389              		.p2align 4,,15
 390              		.global	adcInit
 391              		.thumb
 392              		.thumb_func
 393              		.type	adcInit, %function
 394              	adcInit:
 395              	.LFB271:
 396              		.file 5 "/home/efe/ChibiOS/os/hal/src/adc.c"
 397              		.loc 5 56 0
 398              		.cfi_startproc
 399              		@ args = 0, pretend = 0, frame = 0
 400              		@ frame_needed = 0, uses_anonymous_args = 0
 401 0000 08B5     		push	{r3, lr}
 402              		.cfi_def_cfa_offset 8
 403              		.cfi_offset 3, -8
 404              		.cfi_offset 14, -4
 405              		.loc 5 58 0
 406 0002 FFF7FEFF 		bl	adc_lld_init
 407              		.loc 5 59 0
 408 0006 08BD     		pop	{r3, pc}
 409              		.cfi_endproc
 410              	.LFE271:
 411              		.size	adcInit, .-adcInit
 412 0008 AFF30080 		.section	.text.adcObjectInit,"ax",%progbits
 412      AFF30080 
 413              		.align	2
 414              		.p2align 4,,15
 415              		.global	adcObjectInit
 416              		.thumb
 417              		.thumb_func
 418              		.type	adcObjectInit, %function
 419              	adcObjectInit:
 420              	.LFB272:
 421              		.loc 5 68 0
 422              		.cfi_startproc
 423              		@ args = 0, pretend = 0, frame = 8
 424              		@ frame_needed = 0, uses_anonymous_args = 0
 425 0000 00B5     		push	{lr}
 426              		.cfi_def_cfa_offset 4
 427              		.cfi_offset 14, -4
 428 0002 83B0     		sub	sp, sp, #12
 429              		.cfi_def_cfa_offset 16
 430 0004 0190     		str	r0, [sp, #4]
 431              		.loc 5 70 0
 432 0006 019B     		ldr	r3, [sp, #4]
 433 0008 0122     		movs	r2, #1
 434 000a 1A70     		strb	r2, [r3]
 435              		.loc 5 71 0
 436 000c 019B     		ldr	r3, [sp, #4]
 437 000e 0022     		movs	r2, #0
ARM GAS  /tmp/ccXqF3yr.s 			page 9


 438 0010 5A60     		str	r2, [r3, #4]
 439              		.loc 5 72 0
 440 0012 019B     		ldr	r3, [sp, #4]
 441 0014 0022     		movs	r2, #0
 442 0016 9A60     		str	r2, [r3, #8]
 443              		.loc 5 73 0
 444 0018 019B     		ldr	r3, [sp, #4]
 445 001a 0022     		movs	r2, #0
 446 001c DA60     		str	r2, [r3, #12]
 447              		.loc 5 74 0
 448 001e 019B     		ldr	r3, [sp, #4]
 449 0020 0022     		movs	r2, #0
 450 0022 1A61     		str	r2, [r3, #16]
 451              		.loc 5 76 0
 452 0024 019B     		ldr	r3, [sp, #4]
 453 0026 0022     		movs	r2, #0
 454 0028 5A61     		str	r2, [r3, #20]
 455              		.loc 5 79 0
 456 002a 019B     		ldr	r3, [sp, #4]
 457 002c 1833     		adds	r3, r3, #24
 458 002e 1846     		mov	r0, r3
 459 0030 FFF7FEFF 		bl	osalMutexObjectInit
 460              		.loc 5 84 0
 461 0034 03B0     		add	sp, sp, #12
 462              		@ sp needed
 463 0036 5DF804FB 		ldr	pc, [sp], #4
 464              		.cfi_endproc
 465              	.LFE272:
 466              		.size	adcObjectInit, .-adcObjectInit
 467              		.section	.text.adcStart,"ax",%progbits
 468              		.align	2
 469              		.p2align 4,,15
 470              		.global	adcStart
 471              		.thumb
 472              		.thumb_func
 473              		.type	adcStart, %function
 474              	adcStart:
 475              	.LFB273:
 476              		.loc 5 95 0
 477              		.cfi_startproc
 478              		@ args = 0, pretend = 0, frame = 8
 479              		@ frame_needed = 0, uses_anonymous_args = 0
 480 0000 00B5     		push	{lr}
 481              		.cfi_def_cfa_offset 4
 482              		.cfi_offset 14, -4
 483 0002 83B0     		sub	sp, sp, #12
 484              		.cfi_def_cfa_offset 16
 485 0004 0190     		str	r0, [sp, #4]
 486 0006 0091     		str	r1, [sp]
 487              		.loc 5 97 0
 488 0008 019B     		ldr	r3, [sp, #4]
 489 000a 002B     		cmp	r3, #0
 490 000c 02D1     		bne	.L20
 491              		.loc 5 97 0 is_stmt 0 discriminator 1
 492 000e 0F48     		ldr	r0, .L22
 493 0010 FFF7FEFF 		bl	chSysHalt
 494              	.L20:
ARM GAS  /tmp/ccXqF3yr.s 			page 10


 495              		.loc 5 99 0 is_stmt 1
 496 0014 FFF7FEFF 		bl	osalSysLock
 497              		.loc 5 100 0
 498 0018 019B     		ldr	r3, [sp, #4]
 499 001a 1B78     		ldrb	r3, [r3]	@ zero_extendqisi2
 500 001c 012B     		cmp	r3, #1
 501 001e 06D0     		beq	.L21
 502              		.loc 5 100 0 is_stmt 0 discriminator 1
 503 0020 019B     		ldr	r3, [sp, #4]
 504 0022 1B78     		ldrb	r3, [r3]	@ zero_extendqisi2
 505 0024 022B     		cmp	r3, #2
 506 0026 02D0     		beq	.L21
 507 0028 0848     		ldr	r0, .L22
 508 002a FFF7FEFF 		bl	chSysHalt
 509              	.L21:
 510              		.loc 5 102 0 is_stmt 1
 511 002e 019B     		ldr	r3, [sp, #4]
 512 0030 009A     		ldr	r2, [sp]
 513 0032 5A60     		str	r2, [r3, #4]
 514              		.loc 5 103 0
 515 0034 0198     		ldr	r0, [sp, #4]
 516 0036 FFF7FEFF 		bl	adc_lld_start
 517              		.loc 5 104 0
 518 003a 019B     		ldr	r3, [sp, #4]
 519 003c 0222     		movs	r2, #2
 520 003e 1A70     		strb	r2, [r3]
 521              		.loc 5 105 0
 522 0040 FFF7FEFF 		bl	osalSysUnlock
 523              		.loc 5 106 0
 524 0044 03B0     		add	sp, sp, #12
 525              		@ sp needed
 526 0046 5DF804FB 		ldr	pc, [sp], #4
 527              	.L23:
 528 004a 00BF     		.align	2
 529              	.L22:
 530 004c 00000000 		.word	__func__.7147
 531              		.cfi_endproc
 532              	.LFE273:
 533              		.size	adcStart, .-adcStart
 534              		.section	.text.adcStop,"ax",%progbits
 535              		.align	2
 536              		.p2align 4,,15
 537              		.global	adcStop
 538              		.thumb
 539              		.thumb_func
 540              		.type	adcStop, %function
 541              	adcStop:
 542              	.LFB274:
 543              		.loc 5 115 0
 544              		.cfi_startproc
 545              		@ args = 0, pretend = 0, frame = 8
 546              		@ frame_needed = 0, uses_anonymous_args = 0
 547 0000 00B5     		push	{lr}
 548              		.cfi_def_cfa_offset 4
 549              		.cfi_offset 14, -4
 550 0002 83B0     		sub	sp, sp, #12
 551              		.cfi_def_cfa_offset 16
ARM GAS  /tmp/ccXqF3yr.s 			page 11


 552 0004 0190     		str	r0, [sp, #4]
 553              		.loc 5 117 0
 554 0006 019B     		ldr	r3, [sp, #4]
 555 0008 002B     		cmp	r3, #0
 556 000a 02D1     		bne	.L25
 557              		.loc 5 117 0 is_stmt 0 discriminator 1
 558 000c 0D48     		ldr	r0, .L27
 559 000e FFF7FEFF 		bl	chSysHalt
 560              	.L25:
 561              		.loc 5 119 0 is_stmt 1
 562 0012 FFF7FEFF 		bl	osalSysLock
 563              		.loc 5 120 0
 564 0016 019B     		ldr	r3, [sp, #4]
 565 0018 1B78     		ldrb	r3, [r3]	@ zero_extendqisi2
 566 001a 012B     		cmp	r3, #1
 567 001c 06D0     		beq	.L26
 568              		.loc 5 120 0 is_stmt 0 discriminator 1
 569 001e 019B     		ldr	r3, [sp, #4]
 570 0020 1B78     		ldrb	r3, [r3]	@ zero_extendqisi2
 571 0022 022B     		cmp	r3, #2
 572 0024 02D0     		beq	.L26
 573 0026 0748     		ldr	r0, .L27
 574 0028 FFF7FEFF 		bl	chSysHalt
 575              	.L26:
 576              		.loc 5 122 0 is_stmt 1
 577 002c 0198     		ldr	r0, [sp, #4]
 578 002e FFF7FEFF 		bl	adc_lld_stop
 579              		.loc 5 123 0
 580 0032 019B     		ldr	r3, [sp, #4]
 581 0034 0122     		movs	r2, #1
 582 0036 1A70     		strb	r2, [r3]
 583              		.loc 5 124 0
 584 0038 FFF7FEFF 		bl	osalSysUnlock
 585              		.loc 5 125 0
 586 003c 03B0     		add	sp, sp, #12
 587              		@ sp needed
 588 003e 5DF804FB 		ldr	pc, [sp], #4
 589              	.L28:
 590 0042 00BF     		.align	2
 591              	.L27:
 592 0044 00000000 		.word	__func__.7151
 593              		.cfi_endproc
 594              	.LFE274:
 595              		.size	adcStop, .-adcStop
 596 0048 AFF30080 		.section	.text.adcStartConversion,"ax",%progbits
 596      AFF30080 
 597              		.align	2
 598              		.p2align 4,,15
 599              		.global	adcStartConversion
 600              		.thumb
 601              		.thumb_func
 602              		.type	adcStartConversion, %function
 603              	adcStartConversion:
 604              	.LFB275:
 605              		.loc 5 146 0
 606              		.cfi_startproc
 607              		@ args = 0, pretend = 0, frame = 16
ARM GAS  /tmp/ccXqF3yr.s 			page 12


 608              		@ frame_needed = 0, uses_anonymous_args = 0
 609 0000 00B5     		push	{lr}
 610              		.cfi_def_cfa_offset 4
 611              		.cfi_offset 14, -4
 612 0002 85B0     		sub	sp, sp, #20
 613              		.cfi_def_cfa_offset 24
 614 0004 0390     		str	r0, [sp, #12]
 615 0006 0291     		str	r1, [sp, #8]
 616 0008 0192     		str	r2, [sp, #4]
 617 000a 0093     		str	r3, [sp]
 618              		.loc 5 148 0
 619 000c FFF7FEFF 		bl	osalSysLock
 620              		.loc 5 149 0
 621 0010 0398     		ldr	r0, [sp, #12]
 622 0012 0299     		ldr	r1, [sp, #8]
 623 0014 019A     		ldr	r2, [sp, #4]
 624 0016 009B     		ldr	r3, [sp]
 625 0018 FFF7FEFF 		bl	adcStartConversionI
 626              		.loc 5 150 0
 627 001c FFF7FEFF 		bl	osalSysUnlock
 628              		.loc 5 151 0
 629 0020 05B0     		add	sp, sp, #20
 630              		@ sp needed
 631 0022 5DF804FB 		ldr	pc, [sp], #4
 632              		.cfi_endproc
 633              	.LFE275:
 634              		.size	adcStartConversion, .-adcStartConversion
 635 0026 00BFAFF3 		.section	.text.adcStartConversionI,"ax",%progbits
 635      0080AFF3 
 635      0080
 636              		.align	2
 637              		.p2align 4,,15
 638              		.global	adcStartConversionI
 639              		.thumb
 640              		.thumb_func
 641              		.type	adcStartConversionI, %function
 642              	adcStartConversionI:
 643              	.LFB276:
 644              		.loc 5 174 0
 645              		.cfi_startproc
 646              		@ args = 0, pretend = 0, frame = 16
 647              		@ frame_needed = 0, uses_anonymous_args = 0
 648 0000 00B5     		push	{lr}
 649              		.cfi_def_cfa_offset 4
 650              		.cfi_offset 14, -4
 651 0002 85B0     		sub	sp, sp, #20
 652              		.cfi_def_cfa_offset 24
 653 0004 0390     		str	r0, [sp, #12]
 654 0006 0291     		str	r1, [sp, #8]
 655 0008 0192     		str	r2, [sp, #4]
 656 000a 0093     		str	r3, [sp]
 657              		.loc 5 176 0
 658 000c FFF7FEFF 		bl	chDbgCheckClassI
 659              		.loc 5 177 0
 660 0010 039B     		ldr	r3, [sp, #12]
 661 0012 002B     		cmp	r3, #0
 662 0014 0DD0     		beq	.L31
ARM GAS  /tmp/ccXqF3yr.s 			page 13


 663              		.loc 5 177 0 is_stmt 0 discriminator 2
 664 0016 029B     		ldr	r3, [sp, #8]
 665 0018 002B     		cmp	r3, #0
 666 001a 0AD0     		beq	.L31
 667              		.loc 5 177 0 discriminator 1
 668 001c 019B     		ldr	r3, [sp, #4]
 669 001e 002B     		cmp	r3, #0
 670 0020 07D0     		beq	.L31
 671 0022 009B     		ldr	r3, [sp]
 672 0024 012B     		cmp	r3, #1
 673 0026 07D0     		beq	.L34
 674 0028 009B     		ldr	r3, [sp]
 675 002a 03F00103 		and	r3, r3, #1
 676 002e 002B     		cmp	r3, #0
 677 0030 02D0     		beq	.L34
 678              	.L31:
 679 0032 1248     		ldr	r0, .L35
 680 0034 FFF7FEFF 		bl	chSysHalt
 681              	.L34:
 682              		.loc 5 179 0 is_stmt 1 discriminator 1
 683 0038 039B     		ldr	r3, [sp, #12]
 684 003a 1B78     		ldrb	r3, [r3]	@ zero_extendqisi2
 685 003c 022B     		cmp	r3, #2
 686 003e 0AD0     		beq	.L33
 687 0040 039B     		ldr	r3, [sp, #12]
 688 0042 1B78     		ldrb	r3, [r3]	@ zero_extendqisi2
 689 0044 042B     		cmp	r3, #4
 690 0046 06D0     		beq	.L33
 691 0048 039B     		ldr	r3, [sp, #12]
 692 004a 1B78     		ldrb	r3, [r3]	@ zero_extendqisi2
 693 004c 052B     		cmp	r3, #5
 694 004e 02D0     		beq	.L33
 695 0050 0A48     		ldr	r0, .L35
 696 0052 FFF7FEFF 		bl	chSysHalt
 697              	.L33:
 698              		.loc 5 184 0
 699 0056 039B     		ldr	r3, [sp, #12]
 700 0058 019A     		ldr	r2, [sp, #4]
 701 005a 9A60     		str	r2, [r3, #8]
 702              		.loc 5 185 0
 703 005c 039B     		ldr	r3, [sp, #12]
 704 005e 009A     		ldr	r2, [sp]
 705 0060 DA60     		str	r2, [r3, #12]
 706              		.loc 5 186 0
 707 0062 039B     		ldr	r3, [sp, #12]
 708 0064 029A     		ldr	r2, [sp, #8]
 709 0066 1A61     		str	r2, [r3, #16]
 710              		.loc 5 187 0
 711 0068 039B     		ldr	r3, [sp, #12]
 712 006a 0322     		movs	r2, #3
 713 006c 1A70     		strb	r2, [r3]
 714              		.loc 5 188 0
 715 006e 0398     		ldr	r0, [sp, #12]
 716 0070 FFF7FEFF 		bl	adc_lld_start_conversion
 717              		.loc 5 189 0
 718 0074 05B0     		add	sp, sp, #20
 719              		@ sp needed
ARM GAS  /tmp/ccXqF3yr.s 			page 14


 720 0076 5DF804FB 		ldr	pc, [sp], #4
 721              	.L36:
 722 007a 00BF     		.align	2
 723              	.L35:
 724 007c 00000000 		.word	__func__.7164
 725              		.cfi_endproc
 726              	.LFE276:
 727              		.size	adcStartConversionI, .-adcStartConversionI
 728              		.section	.text.adcStopConversion,"ax",%progbits
 729              		.align	2
 730              		.p2align 4,,15
 731              		.global	adcStopConversion
 732              		.thumb
 733              		.thumb_func
 734              		.type	adcStopConversion, %function
 735              	adcStopConversion:
 736              	.LFB277:
 737              		.loc 5 201 0
 738              		.cfi_startproc
 739              		@ args = 0, pretend = 0, frame = 8
 740              		@ frame_needed = 0, uses_anonymous_args = 0
 741 0000 00B5     		push	{lr}
 742              		.cfi_def_cfa_offset 4
 743              		.cfi_offset 14, -4
 744 0002 83B0     		sub	sp, sp, #12
 745              		.cfi_def_cfa_offset 16
 746 0004 0190     		str	r0, [sp, #4]
 747              		.loc 5 203 0
 748 0006 019B     		ldr	r3, [sp, #4]
 749 0008 002B     		cmp	r3, #0
 750 000a 02D1     		bne	.L38
 751              		.loc 5 203 0 is_stmt 0 discriminator 1
 752 000c 1448     		ldr	r0, .L41
 753 000e FFF7FEFF 		bl	chSysHalt
 754              	.L38:
 755              		.loc 5 205 0 is_stmt 1
 756 0012 FFF7FEFF 		bl	osalSysLock
 757              		.loc 5 206 0
 758 0016 019B     		ldr	r3, [sp, #4]
 759 0018 1B78     		ldrb	r3, [r3]	@ zero_extendqisi2
 760 001a 022B     		cmp	r3, #2
 761 001c 06D0     		beq	.L39
 762              		.loc 5 206 0 is_stmt 0 discriminator 1
 763 001e 019B     		ldr	r3, [sp, #4]
 764 0020 1B78     		ldrb	r3, [r3]	@ zero_extendqisi2
 765 0022 032B     		cmp	r3, #3
 766 0024 02D0     		beq	.L39
 767 0026 0E48     		ldr	r0, .L41
 768 0028 FFF7FEFF 		bl	chSysHalt
 769              	.L39:
 770              		.loc 5 208 0 is_stmt 1
 771 002c 019B     		ldr	r3, [sp, #4]
 772 002e 1B78     		ldrb	r3, [r3]	@ zero_extendqisi2
 773 0030 022B     		cmp	r3, #2
 774 0032 0FD0     		beq	.L40
 775              		.loc 5 209 0
 776 0034 0198     		ldr	r0, [sp, #4]
ARM GAS  /tmp/ccXqF3yr.s 			page 15


 777 0036 FFF7FEFF 		bl	adc_lld_stop_conversion
 778              		.loc 5 210 0
 779 003a 019B     		ldr	r3, [sp, #4]
 780 003c 0022     		movs	r2, #0
 781 003e 1A61     		str	r2, [r3, #16]
 782              		.loc 5 211 0
 783 0040 019B     		ldr	r3, [sp, #4]
 784 0042 0222     		movs	r2, #2
 785 0044 1A70     		strb	r2, [r3]
 786              		.loc 5 212 0
 787 0046 019B     		ldr	r3, [sp, #4]
 788 0048 1433     		adds	r3, r3, #20
 789 004a 1846     		mov	r0, r3
 790 004c 6FF00101 		mvn	r1, #1
 791 0050 FFF7FEFF 		bl	osalThreadResumeS
 792              	.L40:
 793              		.loc 5 214 0
 794 0054 FFF7FEFF 		bl	osalSysUnlock
 795              		.loc 5 215 0
 796 0058 03B0     		add	sp, sp, #12
 797              		@ sp needed
 798 005a 5DF804FB 		ldr	pc, [sp], #4
 799              	.L42:
 800 005e 00BF     		.align	2
 801              	.L41:
 802 0060 00000000 		.word	__func__.7168
 803              		.cfi_endproc
 804              	.LFE277:
 805              		.size	adcStopConversion, .-adcStopConversion
 806 0064 AFF30080 		.section	.text.adcStopConversionI,"ax",%progbits
 806      AFF30080 
 806      AFF30080 
 807              		.align	2
 808              		.p2align 4,,15
 809              		.global	adcStopConversionI
 810              		.thumb
 811              		.thumb_func
 812              		.type	adcStopConversionI, %function
 813              	adcStopConversionI:
 814              	.LFB278:
 815              		.loc 5 227 0
 816              		.cfi_startproc
 817              		@ args = 0, pretend = 0, frame = 8
 818              		@ frame_needed = 0, uses_anonymous_args = 0
 819 0000 00B5     		push	{lr}
 820              		.cfi_def_cfa_offset 4
 821              		.cfi_offset 14, -4
 822 0002 83B0     		sub	sp, sp, #12
 823              		.cfi_def_cfa_offset 16
 824 0004 0190     		str	r0, [sp, #4]
 825              		.loc 5 229 0
 826 0006 FFF7FEFF 		bl	chDbgCheckClassI
 827              		.loc 5 230 0
 828 000a 019B     		ldr	r3, [sp, #4]
 829 000c 002B     		cmp	r3, #0
 830 000e 02D1     		bne	.L47
 831              		.loc 5 230 0 is_stmt 0 discriminator 1
ARM GAS  /tmp/ccXqF3yr.s 			page 16


 832 0010 1448     		ldr	r0, .L48
 833 0012 FFF7FEFF 		bl	chSysHalt
 834              	.L47:
 835              		.loc 5 231 0 is_stmt 1 discriminator 1
 836 0016 019B     		ldr	r3, [sp, #4]
 837 0018 1B78     		ldrb	r3, [r3]	@ zero_extendqisi2
 838 001a 022B     		cmp	r3, #2
 839 001c 0AD0     		beq	.L45
 840 001e 019B     		ldr	r3, [sp, #4]
 841 0020 1B78     		ldrb	r3, [r3]	@ zero_extendqisi2
 842 0022 032B     		cmp	r3, #3
 843 0024 06D0     		beq	.L45
 844 0026 019B     		ldr	r3, [sp, #4]
 845 0028 1B78     		ldrb	r3, [r3]	@ zero_extendqisi2
 846 002a 042B     		cmp	r3, #4
 847 002c 02D0     		beq	.L45
 848 002e 0D48     		ldr	r0, .L48
 849 0030 FFF7FEFF 		bl	chSysHalt
 850              	.L45:
 851              		.loc 5 236 0
 852 0034 019B     		ldr	r3, [sp, #4]
 853 0036 1B78     		ldrb	r3, [r3]	@ zero_extendqisi2
 854 0038 022B     		cmp	r3, #2
 855 003a 0FD0     		beq	.L43
 856              		.loc 5 237 0
 857 003c 0198     		ldr	r0, [sp, #4]
 858 003e FFF7FEFF 		bl	adc_lld_stop_conversion
 859              		.loc 5 238 0
 860 0042 019B     		ldr	r3, [sp, #4]
 861 0044 0022     		movs	r2, #0
 862 0046 1A61     		str	r2, [r3, #16]
 863              		.loc 5 239 0
 864 0048 019B     		ldr	r3, [sp, #4]
 865 004a 0222     		movs	r2, #2
 866 004c 1A70     		strb	r2, [r3]
 867              		.loc 5 240 0
 868 004e 019B     		ldr	r3, [sp, #4]
 869 0050 1433     		adds	r3, r3, #20
 870 0052 1846     		mov	r0, r3
 871 0054 6FF00101 		mvn	r1, #1
 872 0058 FFF7FEFF 		bl	osalThreadResumeI
 873              	.L43:
 874              		.loc 5 242 0
 875 005c 03B0     		add	sp, sp, #12
 876              		@ sp needed
 877 005e 5DF804FB 		ldr	pc, [sp], #4
 878              	.L49:
 879 0062 00BF     		.align	2
 880              	.L48:
 881 0064 00000000 		.word	__func__.7172
 882              		.cfi_endproc
 883              	.LFE278:
 884              		.size	adcStopConversionI, .-adcStopConversionI
 885 0068 AFF30080 		.section	.text.adcConvert,"ax",%progbits
 885      AFF30080 
 886              		.align	2
 887              		.p2align 4,,15
ARM GAS  /tmp/ccXqF3yr.s 			page 17


 888              		.global	adcConvert
 889              		.thumb
 890              		.thumb_func
 891              		.type	adcConvert, %function
 892              	adcConvert:
 893              	.LFB279:
 894              		.loc 5 271 0
 895              		.cfi_startproc
 896              		@ args = 0, pretend = 0, frame = 24
 897              		@ frame_needed = 0, uses_anonymous_args = 0
 898 0000 00B5     		push	{lr}
 899              		.cfi_def_cfa_offset 4
 900              		.cfi_offset 14, -4
 901 0002 87B0     		sub	sp, sp, #28
 902              		.cfi_def_cfa_offset 32
 903 0004 0390     		str	r0, [sp, #12]
 904 0006 0291     		str	r1, [sp, #8]
 905 0008 0192     		str	r2, [sp, #4]
 906 000a 0093     		str	r3, [sp]
 907              		.loc 5 274 0
 908 000c FFF7FEFF 		bl	osalSysLock
 909              		.loc 5 275 0
 910 0010 039B     		ldr	r3, [sp, #12]
 911 0012 5B69     		ldr	r3, [r3, #20]
 912 0014 002B     		cmp	r3, #0
 913 0016 02D0     		beq	.L51
 914              		.loc 5 275 0 is_stmt 0 discriminator 1
 915 0018 0A48     		ldr	r0, .L53
 916 001a FFF7FEFF 		bl	chSysHalt
 917              	.L51:
 918              		.loc 5 276 0 is_stmt 1
 919 001e 0398     		ldr	r0, [sp, #12]
 920 0020 0299     		ldr	r1, [sp, #8]
 921 0022 019A     		ldr	r2, [sp, #4]
 922 0024 009B     		ldr	r3, [sp]
 923 0026 FFF7FEFF 		bl	adcStartConversionI
 924              		.loc 5 277 0
 925 002a 039B     		ldr	r3, [sp, #12]
 926 002c 1433     		adds	r3, r3, #20
 927 002e 1846     		mov	r0, r3
 928 0030 FFF7FEFF 		bl	osalThreadSuspendS
 929 0034 0590     		str	r0, [sp, #20]
 930              		.loc 5 278 0
 931 0036 FFF7FEFF 		bl	osalSysUnlock
 932              		.loc 5 279 0
 933 003a 059B     		ldr	r3, [sp, #20]
 934              		.loc 5 280 0
 935 003c 1846     		mov	r0, r3
 936 003e 07B0     		add	sp, sp, #28
 937              		@ sp needed
 938 0040 5DF804FB 		ldr	pc, [sp], #4
 939              	.L54:
 940              		.align	2
 941              	.L53:
 942 0044 00000000 		.word	__func__.7180
 943              		.cfi_endproc
 944              	.LFE279:
ARM GAS  /tmp/ccXqF3yr.s 			page 18


 945              		.size	adcConvert, .-adcConvert
 946 0048 AFF30080 		.section	.text.adcAcquireBus,"ax",%progbits
 946      AFF30080 
 947              		.align	2
 948              		.p2align 4,,15
 949              		.global	adcAcquireBus
 950              		.thumb
 951              		.thumb_func
 952              		.type	adcAcquireBus, %function
 953              	adcAcquireBus:
 954              	.LFB280:
 955              		.loc 5 295 0
 956              		.cfi_startproc
 957              		@ args = 0, pretend = 0, frame = 8
 958              		@ frame_needed = 0, uses_anonymous_args = 0
 959 0000 00B5     		push	{lr}
 960              		.cfi_def_cfa_offset 4
 961              		.cfi_offset 14, -4
 962 0002 83B0     		sub	sp, sp, #12
 963              		.cfi_def_cfa_offset 16
 964 0004 0190     		str	r0, [sp, #4]
 965              		.loc 5 297 0
 966 0006 019B     		ldr	r3, [sp, #4]
 967 0008 002B     		cmp	r3, #0
 968 000a 02D1     		bne	.L56
 969              		.loc 5 297 0 is_stmt 0 discriminator 1
 970 000c 0548     		ldr	r0, .L57
 971 000e FFF7FEFF 		bl	chSysHalt
 972              	.L56:
 973              		.loc 5 299 0 is_stmt 1
 974 0012 019B     		ldr	r3, [sp, #4]
 975 0014 1833     		adds	r3, r3, #24
 976 0016 1846     		mov	r0, r3
 977 0018 FFF7FEFF 		bl	osalMutexLock
 978              		.loc 5 300 0
 979 001c 03B0     		add	sp, sp, #12
 980              		@ sp needed
 981 001e 5DF804FB 		ldr	pc, [sp], #4
 982              	.L58:
 983 0022 00BF     		.align	2
 984              	.L57:
 985 0024 00000000 		.word	__func__.7184
 986              		.cfi_endproc
 987              	.LFE280:
 988              		.size	adcAcquireBus, .-adcAcquireBus
 989 0028 AFF30080 		.section	.text.adcReleaseBus,"ax",%progbits
 989      AFF30080 
 990              		.align	2
 991              		.p2align 4,,15
 992              		.global	adcReleaseBus
 993              		.thumb
 994              		.thumb_func
 995              		.type	adcReleaseBus, %function
 996              	adcReleaseBus:
 997              	.LFB281:
 998              		.loc 5 311 0
 999              		.cfi_startproc
ARM GAS  /tmp/ccXqF3yr.s 			page 19


 1000              		@ args = 0, pretend = 0, frame = 8
 1001              		@ frame_needed = 0, uses_anonymous_args = 0
 1002 0000 00B5     		push	{lr}
 1003              		.cfi_def_cfa_offset 4
 1004              		.cfi_offset 14, -4
 1005 0002 83B0     		sub	sp, sp, #12
 1006              		.cfi_def_cfa_offset 16
 1007 0004 0190     		str	r0, [sp, #4]
 1008              		.loc 5 313 0
 1009 0006 019B     		ldr	r3, [sp, #4]
 1010 0008 002B     		cmp	r3, #0
 1011 000a 02D1     		bne	.L60
 1012              		.loc 5 313 0 is_stmt 0 discriminator 1
 1013 000c 0548     		ldr	r0, .L61
 1014 000e FFF7FEFF 		bl	chSysHalt
 1015              	.L60:
 1016              		.loc 5 315 0 is_stmt 1
 1017 0012 019B     		ldr	r3, [sp, #4]
 1018 0014 1833     		adds	r3, r3, #24
 1019 0016 1846     		mov	r0, r3
 1020 0018 FFF7FEFF 		bl	osalMutexUnlock
 1021              		.loc 5 316 0
 1022 001c 03B0     		add	sp, sp, #12
 1023              		@ sp needed
 1024 001e 5DF804FB 		ldr	pc, [sp], #4
 1025              	.L62:
 1026 0022 00BF     		.align	2
 1027              	.L61:
 1028 0024 00000000 		.word	__func__.7188
 1029              		.cfi_endproc
 1030              	.LFE281:
 1031              		.size	adcReleaseBus, .-adcReleaseBus
 1032 0028 AFF30080 		.section	.rodata.__func__.7147,"a",%progbits
 1032      AFF30080 
 1033              		.align	2
 1034              		.type	__func__.7147, %object
 1035              		.size	__func__.7147, 9
 1036              	__func__.7147:
 1037 0000 61646353 		.ascii	"adcStart\000"
 1037      74617274 
 1037      00
 1038 0009 000000   		.section	.rodata.__func__.5925,"a",%progbits
 1039              		.align	2
 1040              		.type	__func__.5925, %object
 1041              		.size	__func__.5925, 12
 1042              	__func__.5925:
 1043 0000 63685379 		.ascii	"chSysUnlock\000"
 1043      73556E6C 
 1043      6F636B00 
 1044              		.section	.rodata.__func__.7151,"a",%progbits
 1045              		.align	2
 1046              		.type	__func__.7151, %object
 1047              		.size	__func__.7151, 8
 1048              	__func__.7151:
 1049 0000 61646353 		.ascii	"adcStop\000"
 1049      746F7000 
 1050              		.section	.rodata.__func__.7164,"a",%progbits
ARM GAS  /tmp/ccXqF3yr.s 			page 20


 1051              		.align	2
 1052              		.type	__func__.7164, %object
 1053              		.size	__func__.7164, 20
 1054              	__func__.7164:
 1055 0000 61646353 		.ascii	"adcStartConversionI\000"
 1055      74617274 
 1055      436F6E76 
 1055      65727369 
 1055      6F6E4900 
 1056              		.section	.rodata.__func__.7168,"a",%progbits
 1057              		.align	2
 1058              		.type	__func__.7168, %object
 1059              		.size	__func__.7168, 18
 1060              	__func__.7168:
 1061 0000 61646353 		.ascii	"adcStopConversion\000"
 1061      746F7043 
 1061      6F6E7665 
 1061      7273696F 
 1061      6E00
 1062 0012 0000     		.section	.rodata.__func__.7172,"a",%progbits
 1063              		.align	2
 1064              		.type	__func__.7172, %object
 1065              		.size	__func__.7172, 19
 1066              	__func__.7172:
 1067 0000 61646353 		.ascii	"adcStopConversionI\000"
 1067      746F7043 
 1067      6F6E7665 
 1067      7273696F 
 1067      6E4900
 1068 0013 00       		.section	.rodata.__func__.7180,"a",%progbits
 1069              		.align	2
 1070              		.type	__func__.7180, %object
 1071              		.size	__func__.7180, 11
 1072              	__func__.7180:
 1073 0000 61646343 		.ascii	"adcConvert\000"
 1073      6F6E7665 
 1073      727400
 1074 000b 00       		.section	.rodata.__func__.7184,"a",%progbits
 1075              		.align	2
 1076              		.type	__func__.7184, %object
 1077              		.size	__func__.7184, 14
 1078              	__func__.7184:
 1079 0000 61646341 		.ascii	"adcAcquireBus\000"
 1079      63717569 
 1079      72654275 
 1079      7300
 1080 000e 0000     		.section	.rodata.__func__.7188,"a",%progbits
 1081              		.align	2
 1082              		.type	__func__.7188, %object
 1083              		.size	__func__.7188, 14
 1084              	__func__.7188:
 1085 0000 61646352 		.ascii	"adcReleaseBus\000"
 1085      656C6561 
 1085      73654275 
 1085      7300
 1086 000e 0000     		.text
 1087              	.Letext0:
ARM GAS  /tmp/ccXqF3yr.s 			page 21


 1088              		.file 6 "/usr/lib/gcc/arm-none-eabi/4.8/include/stddef.h"
 1089              		.file 7 "/usr/include/newlib/machine/_default_types.h"
 1090              		.file 8 "/usr/include/newlib/stdint.h"
 1091              		.file 9 "/home/efe/ChibiOS/os/rt/ports/ARMCMx/compilers/GCC/chtypes.h"
 1092              		.file 10 "/home/efe/ChibiOS/os/rt/include/chsystypes.h"
 1093              		.file 11 "/home/efe/ChibiOS/os/rt/include/chschd.h"
 1094              		.file 12 "/home/efe/ChibiOS/os/ext/CMSIS/ST/stm32f407xx.h"
 1095              		.file 13 "/home/efe/ChibiOS/os/rt/ports/ARMCMx/chcore.h"
 1096              		.file 14 "/home/efe/ChibiOS/os/rt/include/chdebug.h"
 1097              		.file 15 "/home/efe/ChibiOS/os/rt/include/chtm.h"
 1098              		.file 16 "/home/efe/ChibiOS/os/rt/include/chstats.h"
 1099              		.file 17 "/home/efe/ChibiOS/os/rt/include/chsem.h"
 1100              		.file 18 "/home/efe/ChibiOS/os/rt/include/chmtx.h"
 1101              		.file 19 "/home/efe/ChibiOS/os/hal/ports/STM32/LLD/DMAv2/stm32_dma.h"
 1102              		.file 20 "/home/efe/ChibiOS/os/hal/include/adc.h"
 1103              		.file 21 "/home/efe/ChibiOS/os/hal/ports/STM32/LLD/ADCv2/adc_lld.h"
 1104              		.file 22 "/home/efe/ChibiOS/os/ext/CMSIS/include/core_cm4.h"
 1105              		.section	.debug_info,"",%progbits
 1106              	.Ldebug_info0:
 1107 0000 24110000 		.4byte	0x1124
 1108 0004 0400     		.2byte	0x4
 1109 0006 00000000 		.4byte	.Ldebug_abbrev0
 1110 000a 04       		.byte	0x4
 1111 000b 01       		.uleb128 0x1
 1112 000c 57020000 		.4byte	.LASF216
 1113 0010 01       		.byte	0x1
 1114 0011 79080000 		.4byte	.LASF217
 1115 0015 00000000 		.4byte	.Ldebug_ranges0+0
 1116 0019 00000000 		.4byte	0
 1117 001d 00000000 		.4byte	.Ldebug_line0
 1118 0021 02       		.uleb128 0x2
 1119 0022 04       		.byte	0x4
 1120 0023 05       		.byte	0x5
 1121 0024 696E7400 		.ascii	"int\000"
 1122 0028 03       		.uleb128 0x3
 1123 0029 39000000 		.4byte	.LASF2
 1124 002d 06       		.byte	0x6
 1125 002e D4       		.byte	0xd4
 1126 002f 33000000 		.4byte	0x33
 1127 0033 04       		.uleb128 0x4
 1128 0034 04       		.byte	0x4
 1129 0035 07       		.byte	0x7
 1130 0036 AC030000 		.4byte	.LASF0
 1131 003a 04       		.uleb128 0x4
 1132 003b 01       		.byte	0x1
 1133 003c 06       		.byte	0x6
 1134 003d 99010000 		.4byte	.LASF1
 1135 0041 03       		.uleb128 0x3
 1136 0042 64000000 		.4byte	.LASF3
 1137 0046 07       		.byte	0x7
 1138 0047 1D       		.byte	0x1d
 1139 0048 4C000000 		.4byte	0x4c
 1140 004c 04       		.uleb128 0x4
 1141 004d 01       		.byte	0x1
 1142 004e 08       		.byte	0x8
 1143 004f 69060000 		.4byte	.LASF4
 1144 0053 04       		.uleb128 0x4
ARM GAS  /tmp/ccXqF3yr.s 			page 22


 1145 0054 02       		.byte	0x2
 1146 0055 05       		.byte	0x5
 1147 0056 81060000 		.4byte	.LASF5
 1148 005a 03       		.uleb128 0x3
 1149 005b 70070000 		.4byte	.LASF6
 1150 005f 07       		.byte	0x7
 1151 0060 2B       		.byte	0x2b
 1152 0061 65000000 		.4byte	0x65
 1153 0065 04       		.uleb128 0x4
 1154 0066 02       		.byte	0x2
 1155 0067 07       		.byte	0x7
 1156 0068 FD030000 		.4byte	.LASF7
 1157 006c 03       		.uleb128 0x3
 1158 006d AE040000 		.4byte	.LASF8
 1159 0071 07       		.byte	0x7
 1160 0072 3F       		.byte	0x3f
 1161 0073 77000000 		.4byte	0x77
 1162 0077 04       		.uleb128 0x4
 1163 0078 04       		.byte	0x4
 1164 0079 05       		.byte	0x5
 1165 007a F3010000 		.4byte	.LASF9
 1166 007e 03       		.uleb128 0x3
 1167 007f 90030000 		.4byte	.LASF10
 1168 0083 07       		.byte	0x7
 1169 0084 41       		.byte	0x41
 1170 0085 89000000 		.4byte	0x89
 1171 0089 04       		.uleb128 0x4
 1172 008a 04       		.byte	0x4
 1173 008b 07       		.byte	0x7
 1174 008c 3C070000 		.4byte	.LASF11
 1175 0090 04       		.uleb128 0x4
 1176 0091 08       		.byte	0x8
 1177 0092 05       		.byte	0x5
 1178 0093 8B010000 		.4byte	.LASF12
 1179 0097 03       		.uleb128 0x3
 1180 0098 DE050000 		.4byte	.LASF13
 1181 009c 07       		.byte	0x7
 1182 009d 5B       		.byte	0x5b
 1183 009e A2000000 		.4byte	0xa2
 1184 00a2 04       		.uleb128 0x4
 1185 00a3 08       		.byte	0x8
 1186 00a4 07       		.byte	0x7
 1187 00a5 E2000000 		.4byte	.LASF14
 1188 00a9 03       		.uleb128 0x3
 1189 00aa 9C080000 		.4byte	.LASF15
 1190 00ae 08       		.byte	0x8
 1191 00af 2A       		.byte	0x2a
 1192 00b0 41000000 		.4byte	0x41
 1193 00b4 03       		.uleb128 0x3
 1194 00b5 42020000 		.4byte	.LASF16
 1195 00b9 08       		.byte	0x8
 1196 00ba 36       		.byte	0x36
 1197 00bb 5A000000 		.4byte	0x5a
 1198 00bf 03       		.uleb128 0x3
 1199 00c0 61060000 		.4byte	.LASF17
 1200 00c4 08       		.byte	0x8
 1201 00c5 41       		.byte	0x41
ARM GAS  /tmp/ccXqF3yr.s 			page 23


 1202 00c6 6C000000 		.4byte	0x6c
 1203 00ca 03       		.uleb128 0x3
 1204 00cb 0B070000 		.4byte	.LASF18
 1205 00cf 08       		.byte	0x8
 1206 00d0 42       		.byte	0x42
 1207 00d1 7E000000 		.4byte	0x7e
 1208 00d5 03       		.uleb128 0x3
 1209 00d6 8E050000 		.4byte	.LASF19
 1210 00da 08       		.byte	0x8
 1211 00db 4E       		.byte	0x4e
 1212 00dc 97000000 		.4byte	0x97
 1213 00e0 05       		.uleb128 0x5
 1214 00e1 BF000000 		.4byte	0xbf
 1215 00e5 05       		.uleb128 0x5
 1216 00e6 CA000000 		.4byte	0xca
 1217 00ea 03       		.uleb128 0x3
 1218 00eb 28080000 		.4byte	.LASF20
 1219 00ef 09       		.byte	0x9
 1220 00f0 45       		.byte	0x45
 1221 00f1 CA000000 		.4byte	0xca
 1222 00f5 03       		.uleb128 0x3
 1223 00f6 5A010000 		.4byte	.LASF21
 1224 00fa 09       		.byte	0x9
 1225 00fb 46       		.byte	0x46
 1226 00fc D5000000 		.4byte	0xd5
 1227 0100 03       		.uleb128 0x3
 1228 0101 6E040000 		.4byte	.LASF22
 1229 0105 09       		.byte	0x9
 1230 0106 48       		.byte	0x48
 1231 0107 A9000000 		.4byte	0xa9
 1232 010b 03       		.uleb128 0x3
 1233 010c 22020000 		.4byte	.LASF23
 1234 0110 09       		.byte	0x9
 1235 0111 49       		.byte	0x49
 1236 0112 A9000000 		.4byte	0xa9
 1237 0116 03       		.uleb128 0x3
 1238 0117 08060000 		.4byte	.LASF24
 1239 011b 09       		.byte	0x9
 1240 011c 4A       		.byte	0x4a
 1241 011d A9000000 		.4byte	0xa9
 1242 0121 03       		.uleb128 0x3
 1243 0122 44060000 		.4byte	.LASF25
 1244 0126 09       		.byte	0x9
 1245 0127 4C       		.byte	0x4c
 1246 0128 CA000000 		.4byte	0xca
 1247 012c 03       		.uleb128 0x3
 1248 012d 46040000 		.4byte	.LASF26
 1249 0131 09       		.byte	0x9
 1250 0132 4D       		.byte	0x4d
 1251 0133 BF000000 		.4byte	0xbf
 1252 0137 03       		.uleb128 0x3
 1253 0138 A2040000 		.4byte	.LASF27
 1254 013c 09       		.byte	0x9
 1255 013d 4F       		.byte	0x4f
 1256 013e CA000000 		.4byte	0xca
 1257 0142 03       		.uleb128 0x3
 1258 0143 9B030000 		.4byte	.LASF28
ARM GAS  /tmp/ccXqF3yr.s 			page 24


 1259 0147 09       		.byte	0x9
 1260 0148 51       		.byte	0x51
 1261 0149 BF000000 		.4byte	0xbf
 1262 014d 03       		.uleb128 0x3
 1263 014e 51040000 		.4byte	.LASF29
 1264 0152 09       		.byte	0x9
 1265 0153 52       		.byte	0x52
 1266 0154 CA000000 		.4byte	0xca
 1267 0158 03       		.uleb128 0x3
 1268 0159 93070000 		.4byte	.LASF30
 1269 015d 0A       		.byte	0xa
 1270 015e 33       		.byte	0x33
 1271 015f CA000000 		.4byte	0xca
 1272 0163 03       		.uleb128 0x3
 1273 0164 7B070000 		.4byte	.LASF31
 1274 0168 0A       		.byte	0xa
 1275 0169 3F       		.byte	0x3f
 1276 016a 6E010000 		.4byte	0x16e
 1277 016e 06       		.uleb128 0x6
 1278 016f 1F040000 		.4byte	.LASF53
 1279 0173 60       		.byte	0x60
 1280 0174 0B       		.byte	0xb
 1281 0175 C2       		.byte	0xc2
 1282 0176 74020000 		.4byte	0x274
 1283 017a 07       		.uleb128 0x7
 1284 017b AA060000 		.4byte	.LASF32
 1285 017f 0B       		.byte	0xb
 1286 0180 C3       		.byte	0xc3
 1287 0181 7F020000 		.4byte	0x27f
 1288 0185 00       		.byte	0
 1289 0186 07       		.uleb128 0x7
 1290 0187 2A060000 		.4byte	.LASF33
 1291 018b 0B       		.byte	0xb
 1292 018c C5       		.byte	0xc5
 1293 018d 7F020000 		.4byte	0x27f
 1294 0191 04       		.byte	0x4
 1295 0192 07       		.uleb128 0x7
 1296 0193 63010000 		.4byte	.LASF34
 1297 0197 0B       		.byte	0xb
 1298 0198 C7       		.byte	0xc7
 1299 0199 21010000 		.4byte	0x121
 1300 019d 08       		.byte	0x8
 1301 019e 07       		.uleb128 0x7
 1302 019f 89090000 		.4byte	.LASF35
 1303 01a3 0B       		.byte	0xb
 1304 01a4 C8       		.byte	0xc8
 1305 01a5 4D060000 		.4byte	0x64d
 1306 01a9 0C       		.byte	0xc
 1307 01aa 07       		.uleb128 0x7
 1308 01ab 07030000 		.4byte	.LASF36
 1309 01af 0B       		.byte	0xb
 1310 01b0 CA       		.byte	0xca
 1311 01b1 7F020000 		.4byte	0x27f
 1312 01b5 10       		.byte	0x10
 1313 01b6 07       		.uleb128 0x7
 1314 01b7 97050000 		.4byte	.LASF37
 1315 01bb 0B       		.byte	0xb
ARM GAS  /tmp/ccXqF3yr.s 			page 25


 1316 01bc CB       		.byte	0xcb
 1317 01bd 7F020000 		.4byte	0x27f
 1318 01c1 14       		.byte	0x14
 1319 01c2 07       		.uleb128 0x7
 1320 01c3 F5080000 		.4byte	.LASF38
 1321 01c7 0B       		.byte	0xb
 1322 01c8 D2       		.byte	0xd2
 1323 01c9 F1080000 		.4byte	0x8f1
 1324 01cd 18       		.byte	0x18
 1325 01ce 07       		.uleb128 0x7
 1326 01cf A1030000 		.4byte	.LASF39
 1327 01d3 0B       		.byte	0xb
 1328 01d4 D8       		.byte	0xd8
 1329 01d5 03090000 		.4byte	0x903
 1330 01d9 1C       		.byte	0x1c
 1331 01da 07       		.uleb128 0x7
 1332 01db 8B060000 		.4byte	.LASF40
 1333 01df 0B       		.byte	0xb
 1334 01e0 DD       		.byte	0xdd
 1335 01e1 0B010000 		.4byte	0x10b
 1336 01e5 20       		.byte	0x20
 1337 01e6 07       		.uleb128 0x7
 1338 01e7 B1060000 		.4byte	.LASF41
 1339 01eb 0B       		.byte	0xb
 1340 01ec E1       		.byte	0xe1
 1341 01ed 00010000 		.4byte	0x100
 1342 01f1 21       		.byte	0x21
 1343 01f2 07       		.uleb128 0x7
 1344 01f3 5E080000 		.4byte	.LASF42
 1345 01f7 0B       		.byte	0xb
 1346 01f8 E6       		.byte	0xe6
 1347 01f9 16010000 		.4byte	0x116
 1348 01fd 22       		.byte	0x22
 1349 01fe 08       		.uleb128 0x8
 1350 01ff 705F7500 		.ascii	"p_u\000"
 1351 0203 0B       		.byte	0xb
 1352 0204 3101     		.2byte	0x131
 1353 0206 2C080000 		.4byte	0x82c
 1354 020a 24       		.byte	0x24
 1355 020b 09       		.uleb128 0x9
 1356 020c 20050000 		.4byte	.LASF43
 1357 0210 0B       		.byte	0xb
 1358 0211 3601     		.2byte	0x136
 1359 0213 85020000 		.4byte	0x285
 1360 0217 28       		.byte	0x28
 1361 0218 09       		.uleb128 0x9
 1362 0219 D6030000 		.4byte	.LASF44
 1363 021d 0B       		.byte	0xb
 1364 021e 3C01     		.2byte	0x13c
 1365 0220 A9020000 		.4byte	0x2a9
 1366 0224 2C       		.byte	0x2c
 1367 0225 09       		.uleb128 0x9
 1368 0226 E8060000 		.4byte	.LASF45
 1369 022a 0B       		.byte	0xb
 1370 022b 4001     		.2byte	0x140
 1371 022d 2C010000 		.4byte	0x12c
 1372 0231 34       		.byte	0x34
ARM GAS  /tmp/ccXqF3yr.s 			page 26


 1373 0232 09       		.uleb128 0x9
 1374 0233 FB060000 		.4byte	.LASF46
 1375 0237 0B       		.byte	0xb
 1376 0238 4601     		.2byte	0x146
 1377 023a 37010000 		.4byte	0x137
 1378 023e 38       		.byte	0x38
 1379 023f 09       		.uleb128 0x9
 1380 0240 77060000 		.4byte	.LASF47
 1381 0244 0B       		.byte	0xb
 1382 0245 4D01     		.2byte	0x14d
 1383 0247 EB080000 		.4byte	0x8eb
 1384 024b 3C       		.byte	0x3c
 1385 024c 09       		.uleb128 0x9
 1386 024d 9D070000 		.4byte	.LASF48
 1387 0251 0B       		.byte	0xb
 1388 0252 5101     		.2byte	0x151
 1389 0254 21010000 		.4byte	0x121
 1390 0258 40       		.byte	0x40
 1391 0259 09       		.uleb128 0x9
 1392 025a A5010000 		.4byte	.LASF49
 1393 025e 0B       		.byte	0xb
 1394 025f 5801     		.2byte	0x158
 1395 0261 5C030000 		.4byte	0x35c
 1396 0265 44       		.byte	0x44
 1397 0266 09       		.uleb128 0x9
 1398 0267 C2060000 		.4byte	.LASF50
 1399 026b 0B       		.byte	0xb
 1400 026c 5E01     		.2byte	0x15e
 1401 026e DD070000 		.4byte	0x7dd
 1402 0272 48       		.byte	0x48
 1403 0273 00       		.byte	0
 1404 0274 03       		.uleb128 0x3
 1405 0275 33050000 		.4byte	.LASF51
 1406 0279 0A       		.byte	0xa
 1407 027a 44       		.byte	0x44
 1408 027b 7F020000 		.4byte	0x27f
 1409 027f 0A       		.uleb128 0xa
 1410 0280 04       		.byte	0x4
 1411 0281 63010000 		.4byte	0x163
 1412 0285 03       		.uleb128 0x3
 1413 0286 0F090000 		.4byte	.LASF52
 1414 028a 0A       		.byte	0xa
 1415 028b 49       		.byte	0x49
 1416 028c 90020000 		.4byte	0x290
 1417 0290 06       		.uleb128 0x6
 1418 0291 2C070000 		.4byte	.LASF54
 1419 0295 04       		.byte	0x4
 1420 0296 0B       		.byte	0xb
 1421 0297 B0       		.byte	0xb0
 1422 0298 A9020000 		.4byte	0x2a9
 1423 029c 07       		.uleb128 0x7
 1424 029d AA060000 		.4byte	.LASF32
 1425 02a1 0B       		.byte	0xb
 1426 02a2 B1       		.byte	0xb1
 1427 02a3 7F020000 		.4byte	0x27f
 1428 02a7 00       		.byte	0
 1429 02a8 00       		.byte	0
ARM GAS  /tmp/ccXqF3yr.s 			page 27


 1430 02a9 03       		.uleb128 0x3
 1431 02aa 45080000 		.4byte	.LASF55
 1432 02ae 0A       		.byte	0xa
 1433 02af 50       		.byte	0x50
 1434 02b0 B4020000 		.4byte	0x2b4
 1435 02b4 06       		.uleb128 0x6
 1436 02b5 82000000 		.4byte	.LASF56
 1437 02b9 08       		.byte	0x8
 1438 02ba 0B       		.byte	0xb
 1439 02bb B7       		.byte	0xb7
 1440 02bc D9020000 		.4byte	0x2d9
 1441 02c0 07       		.uleb128 0x7
 1442 02c1 AA060000 		.4byte	.LASF32
 1443 02c5 0B       		.byte	0xb
 1444 02c6 B8       		.byte	0xb8
 1445 02c7 7F020000 		.4byte	0x27f
 1446 02cb 00       		.byte	0
 1447 02cc 07       		.uleb128 0x7
 1448 02cd 2A060000 		.4byte	.LASF33
 1449 02d1 0B       		.byte	0xb
 1450 02d2 B9       		.byte	0xb9
 1451 02d3 7F020000 		.4byte	0x27f
 1452 02d7 04       		.byte	0x4
 1453 02d8 00       		.byte	0
 1454 02d9 03       		.uleb128 0x3
 1455 02da 12000000 		.4byte	.LASF57
 1456 02de 0A       		.byte	0xa
 1457 02df 57       		.byte	0x57
 1458 02e0 E4020000 		.4byte	0x2e4
 1459 02e4 0B       		.uleb128 0xb
 1460 02e5 94040000 		.4byte	.LASF58
 1461 02e9 1C       		.byte	0x1c
 1462 02ea 0B       		.byte	0xb
 1463 02eb 9001     		.2byte	0x190
 1464 02ed 40030000 		.4byte	0x340
 1465 02f1 09       		.uleb128 0x9
 1466 02f2 1B070000 		.4byte	.LASF59
 1467 02f6 0B       		.byte	0xb
 1468 02f7 9101     		.2byte	0x191
 1469 02f9 A9020000 		.4byte	0x2a9
 1470 02fd 00       		.byte	0
 1471 02fe 09       		.uleb128 0x9
 1472 02ff 9C060000 		.4byte	.LASF60
 1473 0303 0B       		.byte	0xb
 1474 0304 9201     		.2byte	0x192
 1475 0306 21010000 		.4byte	0x121
 1476 030a 08       		.byte	0x8
 1477 030b 09       		.uleb128 0x9
 1478 030c A4050000 		.4byte	.LASF61
 1479 0310 0B       		.byte	0xb
 1480 0311 9401     		.2byte	0x194
 1481 0313 4D060000 		.4byte	0x64d
 1482 0317 0C       		.byte	0xc
 1483 0318 09       		.uleb128 0x9
 1484 0319 3B030000 		.4byte	.LASF62
 1485 031d 0B       		.byte	0xb
 1486 031e 9701     		.2byte	0x197
ARM GAS  /tmp/ccXqF3yr.s 			page 28


 1487 0320 7F020000 		.4byte	0x27f
 1488 0324 10       		.byte	0x10
 1489 0325 09       		.uleb128 0x9
 1490 0326 C7050000 		.4byte	.LASF63
 1491 032a 0B       		.byte	0xb
 1492 032b 9801     		.2byte	0x198
 1493 032d 7F020000 		.4byte	0x27f
 1494 0331 14       		.byte	0x14
 1495 0332 09       		.uleb128 0x9
 1496 0333 BD050000 		.4byte	.LASF64
 1497 0337 0B       		.byte	0xb
 1498 0338 9B01     		.2byte	0x19b
 1499 033a 7F020000 		.4byte	0x27f
 1500 033e 18       		.byte	0x18
 1501 033f 00       		.byte	0
 1502 0340 03       		.uleb128 0x3
 1503 0341 A8070000 		.4byte	.LASF65
 1504 0345 0A       		.byte	0xa
 1505 0346 5C       		.byte	0x5c
 1506 0347 4B030000 		.4byte	0x34b
 1507 034b 0A       		.uleb128 0xa
 1508 034c 04       		.byte	0x4
 1509 034d 51030000 		.4byte	0x351
 1510 0351 0C       		.uleb128 0xc
 1511 0352 5C030000 		.4byte	0x35c
 1512 0356 0D       		.uleb128 0xd
 1513 0357 5C030000 		.4byte	0x35c
 1514 035b 00       		.byte	0
 1515 035c 0E       		.uleb128 0xe
 1516 035d 04       		.byte	0x4
 1517 035e 03       		.uleb128 0x3
 1518 035f 1A060000 		.4byte	.LASF66
 1519 0363 0A       		.byte	0xa
 1520 0364 61       		.byte	0x61
 1521 0365 69030000 		.4byte	0x369
 1522 0369 0B       		.uleb128 0xb
 1523 036a 04080000 		.4byte	.LASF67
 1524 036e 14       		.byte	0x14
 1525 036f 0B       		.byte	0xb
 1526 0370 6B01     		.2byte	0x16b
 1527 0372 B8030000 		.4byte	0x3b8
 1528 0376 09       		.uleb128 0x9
 1529 0377 B9030000 		.4byte	.LASF68
 1530 037b 0B       		.byte	0xb
 1531 037c 6C01     		.2byte	0x16c
 1532 037e 09090000 		.4byte	0x909
 1533 0382 00       		.byte	0
 1534 0383 09       		.uleb128 0x9
 1535 0384 56030000 		.4byte	.LASF69
 1536 0388 0B       		.byte	0xb
 1537 0389 6D01     		.2byte	0x16d
 1538 038b 09090000 		.4byte	0x909
 1539 038f 04       		.byte	0x4
 1540 0390 09       		.uleb128 0x9
 1541 0391 23070000 		.4byte	.LASF70
 1542 0395 0B       		.byte	0xb
 1543 0396 6E01     		.2byte	0x16e
ARM GAS  /tmp/ccXqF3yr.s 			page 29


 1544 0398 58010000 		.4byte	0x158
 1545 039c 08       		.byte	0x8
 1546 039d 09       		.uleb128 0x9
 1547 039e 8F090000 		.4byte	.LASF71
 1548 03a2 0B       		.byte	0xb
 1549 03a3 6F01     		.2byte	0x16f
 1550 03a5 40030000 		.4byte	0x340
 1551 03a9 0C       		.byte	0xc
 1552 03aa 09       		.uleb128 0x9
 1553 03ab 35080000 		.4byte	.LASF72
 1554 03af 0B       		.byte	0xb
 1555 03b0 7101     		.2byte	0x171
 1556 03b2 5C030000 		.4byte	0x35c
 1557 03b6 10       		.byte	0x10
 1558 03b7 00       		.byte	0
 1559 03b8 03       		.uleb128 0x3
 1560 03b9 37010000 		.4byte	.LASF73
 1561 03bd 0A       		.byte	0xa
 1562 03be 66       		.byte	0x66
 1563 03bf C3030000 		.4byte	0x3c3
 1564 03c3 0B       		.uleb128 0xb
 1565 03c4 46050000 		.4byte	.LASF74
 1566 03c8 10       		.byte	0x10
 1567 03c9 0B       		.byte	0xb
 1568 03ca 7B01     		.2byte	0x17b
 1569 03cc 05040000 		.4byte	0x405
 1570 03d0 09       		.uleb128 0x9
 1571 03d1 B9030000 		.4byte	.LASF68
 1572 03d5 0B       		.byte	0xb
 1573 03d6 7C01     		.2byte	0x17c
 1574 03d8 09090000 		.4byte	0x909
 1575 03dc 00       		.byte	0
 1576 03dd 09       		.uleb128 0x9
 1577 03de 56030000 		.4byte	.LASF69
 1578 03e2 0B       		.byte	0xb
 1579 03e3 7E01     		.2byte	0x17e
 1580 03e5 09090000 		.4byte	0x909
 1581 03e9 04       		.byte	0x4
 1582 03ea 09       		.uleb128 0x9
 1583 03eb 23070000 		.4byte	.LASF70
 1584 03ef 0B       		.byte	0xb
 1585 03f0 8001     		.2byte	0x180
 1586 03f2 58010000 		.4byte	0x158
 1587 03f6 08       		.byte	0x8
 1588 03f7 09       		.uleb128 0x9
 1589 03f8 82050000 		.4byte	.LASF75
 1590 03fc 0B       		.byte	0xb
 1591 03fd 8801     		.2byte	0x188
 1592 03ff 58010000 		.4byte	0x158
 1593 0403 0C       		.byte	0xc
 1594 0404 00       		.byte	0
 1595 0405 03       		.uleb128 0x3
 1596 0406 93000000 		.4byte	.LASF76
 1597 040a 0A       		.byte	0xa
 1598 040b 6B       		.byte	0x6b
 1599 040c 10040000 		.4byte	0x410
 1600 0410 0F       		.uleb128 0xf
ARM GAS  /tmp/ccXqF3yr.s 			page 30


 1601 0411 37090000 		.4byte	.LASF77
 1602 0415 1404     		.2byte	0x414
 1603 0417 0B       		.byte	0xb
 1604 0418 A201     		.2byte	0x1a2
 1605 041a 53040000 		.4byte	0x453
 1606 041e 09       		.uleb128 0x9
 1607 041f D8070000 		.4byte	.LASF78
 1608 0423 0B       		.byte	0xb
 1609 0424 AA01     		.2byte	0x1aa
 1610 0426 0F090000 		.4byte	0x90f
 1611 042a 00       		.byte	0
 1612 042b 09       		.uleb128 0x9
 1613 042c 65080000 		.4byte	.LASF79
 1614 0430 0B       		.byte	0xb
 1615 0431 AF01     		.2byte	0x1af
 1616 0433 42010000 		.4byte	0x142
 1617 0437 04       		.byte	0x4
 1618 0438 09       		.uleb128 0x9
 1619 0439 87030000 		.4byte	.LASF80
 1620 043d 0B       		.byte	0xb
 1621 043e B301     		.2byte	0x1b3
 1622 0440 42010000 		.4byte	0x142
 1623 0444 08       		.byte	0x8
 1624 0445 09       		.uleb128 0x9
 1625 0446 1E090000 		.4byte	.LASF81
 1626 044a 0B       		.byte	0xb
 1627 044b B901     		.2byte	0x1b9
 1628 044d 6F070000 		.4byte	0x76f
 1629 0451 0C       		.byte	0xc
 1630 0452 00       		.byte	0
 1631 0453 03       		.uleb128 0x3
 1632 0454 62040000 		.4byte	.LASF82
 1633 0458 0A       		.byte	0xa
 1634 0459 70       		.byte	0x70
 1635 045a 5E040000 		.4byte	0x45e
 1636 045e 0F       		.uleb128 0xf
 1637 045f 32020000 		.4byte	.LASF83
 1638 0463 D805     		.2byte	0x5d8
 1639 0465 0B       		.byte	0xb
 1640 0466 C201     		.2byte	0x1c2
 1641 0468 CB040000 		.4byte	0x4cb
 1642 046c 09       		.uleb128 0x9
 1643 046d 83040000 		.4byte	.LASF84
 1644 0471 0B       		.byte	0xb
 1645 0472 C601     		.2byte	0x1c6
 1646 0474 D9020000 		.4byte	0x2d9
 1647 0478 00       		.byte	0
 1648 0479 09       		.uleb128 0x9
 1649 047a C0010000 		.4byte	.LASF85
 1650 047e 0B       		.byte	0xb
 1651 047f CA01     		.2byte	0x1ca
 1652 0481 B8030000 		.4byte	0x3b8
 1653 0485 1C       		.byte	0x1c
 1654 0486 08       		.uleb128 0x8
 1655 0487 64626700 		.ascii	"dbg\000"
 1656 048b 0B       		.byte	0xb
 1657 048c CE01     		.2byte	0x1ce
ARM GAS  /tmp/ccXqF3yr.s 			page 31


 1658 048e 05040000 		.4byte	0x405
 1659 0492 2C       		.byte	0x2c
 1660 0493 10       		.uleb128 0x10
 1661 0494 2C010000 		.4byte	.LASF86
 1662 0498 0B       		.byte	0xb
 1663 0499 D201     		.2byte	0x1d2
 1664 049b 63010000 		.4byte	0x163
 1665 049f 4004     		.2byte	0x440
 1666 04a1 11       		.uleb128 0x11
 1667 04a2 746D00   		.ascii	"tm\000"
 1668 04a5 0B       		.byte	0xb
 1669 04a6 D701     		.2byte	0x1d7
 1670 04a8 8F070000 		.4byte	0x78f
 1671 04ac A004     		.2byte	0x4a0
 1672 04ae 10       		.uleb128 0x10
 1673 04af 52000000 		.4byte	.LASF87
 1674 04b3 0B       		.byte	0xb
 1675 04b4 DD01     		.2byte	0x1dd
 1676 04b6 21080000 		.4byte	0x821
 1677 04ba A804     		.2byte	0x4a8
 1678 04bc 10       		.uleb128 0x10
 1679 04bd B8040000 		.4byte	.LASF88
 1680 04c1 0B       		.byte	0xb
 1681 04c2 E301     		.2byte	0x1e3
 1682 04c4 14090000 		.4byte	0x914
 1683 04c8 E004     		.2byte	0x4e0
 1684 04ca 00       		.byte	0
 1685 04cb 04       		.uleb128 0x4
 1686 04cc 04       		.byte	0x4
 1687 04cd 07       		.byte	0x7
 1688 04ce 2A050000 		.4byte	.LASF89
 1689 04d2 12       		.uleb128 0x12
 1690 04d3 50       		.byte	0x50
 1691 04d4 0C       		.byte	0xc
 1692 04d5 C4       		.byte	0xc4
 1693 04d6 C9050000 		.4byte	0x5c9
 1694 04da 13       		.uleb128 0x13
 1695 04db 535200   		.ascii	"SR\000"
 1696 04de 0C       		.byte	0xc
 1697 04df C6       		.byte	0xc6
 1698 04e0 E5000000 		.4byte	0xe5
 1699 04e4 00       		.byte	0
 1700 04e5 13       		.uleb128 0x13
 1701 04e6 43523100 		.ascii	"CR1\000"
 1702 04ea 0C       		.byte	0xc
 1703 04eb C7       		.byte	0xc7
 1704 04ec E5000000 		.4byte	0xe5
 1705 04f0 04       		.byte	0x4
 1706 04f1 13       		.uleb128 0x13
 1707 04f2 43523200 		.ascii	"CR2\000"
 1708 04f6 0C       		.byte	0xc
 1709 04f7 C8       		.byte	0xc8
 1710 04f8 E5000000 		.4byte	0xe5
 1711 04fc 08       		.byte	0x8
 1712 04fd 07       		.uleb128 0x7
 1713 04fe AA050000 		.4byte	.LASF90
 1714 0502 0C       		.byte	0xc
ARM GAS  /tmp/ccXqF3yr.s 			page 32


 1715 0503 C9       		.byte	0xc9
 1716 0504 E5000000 		.4byte	0xe5
 1717 0508 0C       		.byte	0xc
 1718 0509 07       		.uleb128 0x7
 1719 050a B0050000 		.4byte	.LASF91
 1720 050e 0C       		.byte	0xc
 1721 050f CA       		.byte	0xca
 1722 0510 E5000000 		.4byte	0xe5
 1723 0514 10       		.byte	0x10
 1724 0515 07       		.uleb128 0x7
 1725 0516 06050000 		.4byte	.LASF92
 1726 051a 0C       		.byte	0xc
 1727 051b CB       		.byte	0xcb
 1728 051c E5000000 		.4byte	0xe5
 1729 0520 14       		.byte	0x14
 1730 0521 07       		.uleb128 0x7
 1731 0522 0C050000 		.4byte	.LASF93
 1732 0526 0C       		.byte	0xc
 1733 0527 CC       		.byte	0xcc
 1734 0528 E5000000 		.4byte	0xe5
 1735 052c 18       		.byte	0x18
 1736 052d 07       		.uleb128 0x7
 1737 052e 12050000 		.4byte	.LASF94
 1738 0532 0C       		.byte	0xc
 1739 0533 CD       		.byte	0xcd
 1740 0534 E5000000 		.4byte	0xe5
 1741 0538 1C       		.byte	0x1c
 1742 0539 07       		.uleb128 0x7
 1743 053a D4060000 		.4byte	.LASF95
 1744 053e 0C       		.byte	0xc
 1745 053f CE       		.byte	0xce
 1746 0540 E5000000 		.4byte	0xe5
 1747 0544 20       		.byte	0x20
 1748 0545 13       		.uleb128 0x13
 1749 0546 48545200 		.ascii	"HTR\000"
 1750 054a 0C       		.byte	0xc
 1751 054b CF       		.byte	0xcf
 1752 054c E5000000 		.4byte	0xe5
 1753 0550 24       		.byte	0x24
 1754 0551 13       		.uleb128 0x13
 1755 0552 4C545200 		.ascii	"LTR\000"
 1756 0556 0C       		.byte	0xc
 1757 0557 D0       		.byte	0xd0
 1758 0558 E5000000 		.4byte	0xe5
 1759 055c 28       		.byte	0x28
 1760 055d 07       		.uleb128 0x7
 1761 055e CF050000 		.4byte	.LASF96
 1762 0562 0C       		.byte	0xc
 1763 0563 D1       		.byte	0xd1
 1764 0564 E5000000 		.4byte	0xe5
 1765 0568 2C       		.byte	0x2c
 1766 0569 07       		.uleb128 0x7
 1767 056a D4050000 		.4byte	.LASF97
 1768 056e 0C       		.byte	0xc
 1769 056f D2       		.byte	0xd2
 1770 0570 E5000000 		.4byte	0xe5
 1771 0574 30       		.byte	0x30
ARM GAS  /tmp/ccXqF3yr.s 			page 33


 1772 0575 07       		.uleb128 0x7
 1773 0576 D9050000 		.4byte	.LASF98
 1774 057a 0C       		.byte	0xc
 1775 057b D3       		.byte	0xd3
 1776 057c E5000000 		.4byte	0xe5
 1777 0580 34       		.byte	0x34
 1778 0581 07       		.uleb128 0x7
 1779 0582 6A010000 		.4byte	.LASF99
 1780 0586 0C       		.byte	0xc
 1781 0587 D4       		.byte	0xd4
 1782 0588 E5000000 		.4byte	0xe5
 1783 058c 38       		.byte	0x38
 1784 058d 07       		.uleb128 0x7
 1785 058e CA080000 		.4byte	.LASF100
 1786 0592 0C       		.byte	0xc
 1787 0593 D5       		.byte	0xd5
 1788 0594 E5000000 		.4byte	0xe5
 1789 0598 3C       		.byte	0x3c
 1790 0599 07       		.uleb128 0x7
 1791 059a CF080000 		.4byte	.LASF101
 1792 059e 0C       		.byte	0xc
 1793 059f D6       		.byte	0xd6
 1794 05a0 E5000000 		.4byte	0xe5
 1795 05a4 40       		.byte	0x40
 1796 05a5 07       		.uleb128 0x7
 1797 05a6 D4080000 		.4byte	.LASF102
 1798 05aa 0C       		.byte	0xc
 1799 05ab D7       		.byte	0xd7
 1800 05ac E5000000 		.4byte	0xe5
 1801 05b0 44       		.byte	0x44
 1802 05b1 07       		.uleb128 0x7
 1803 05b2 9F050000 		.4byte	.LASF103
 1804 05b6 0C       		.byte	0xc
 1805 05b7 D8       		.byte	0xd8
 1806 05b8 E5000000 		.4byte	0xe5
 1807 05bc 48       		.byte	0x48
 1808 05bd 13       		.uleb128 0x13
 1809 05be 445200   		.ascii	"DR\000"
 1810 05c1 0C       		.byte	0xc
 1811 05c2 D9       		.byte	0xd9
 1812 05c3 E5000000 		.4byte	0xe5
 1813 05c7 4C       		.byte	0x4c
 1814 05c8 00       		.byte	0
 1815 05c9 03       		.uleb128 0x3
 1816 05ca 4B020000 		.4byte	.LASF104
 1817 05ce 0C       		.byte	0xc
 1818 05cf DA       		.byte	0xda
 1819 05d0 D2040000 		.4byte	0x4d2
 1820 05d4 14       		.uleb128 0x14
 1821 05d5 18       		.byte	0x18
 1822 05d6 0C       		.byte	0xc
 1823 05d7 6B01     		.2byte	0x16b
 1824 05d9 2B060000 		.4byte	0x62b
 1825 05dd 08       		.uleb128 0x8
 1826 05de 435200   		.ascii	"CR\000"
 1827 05e1 0C       		.byte	0xc
 1828 05e2 6D01     		.2byte	0x16d
ARM GAS  /tmp/ccXqF3yr.s 			page 34


 1829 05e4 E5000000 		.4byte	0xe5
 1830 05e8 00       		.byte	0
 1831 05e9 09       		.uleb128 0x9
 1832 05ea D3070000 		.4byte	.LASF105
 1833 05ee 0C       		.byte	0xc
 1834 05ef 6E01     		.2byte	0x16e
 1835 05f1 E5000000 		.4byte	0xe5
 1836 05f5 04       		.byte	0x4
 1837 05f6 08       		.uleb128 0x8
 1838 05f7 50415200 		.ascii	"PAR\000"
 1839 05fb 0C       		.byte	0xc
 1840 05fc 6F01     		.2byte	0x16f
 1841 05fe E5000000 		.4byte	0xe5
 1842 0602 08       		.byte	0x8
 1843 0603 09       		.uleb128 0x9
 1844 0604 5F000000 		.4byte	.LASF106
 1845 0608 0C       		.byte	0xc
 1846 0609 7001     		.2byte	0x170
 1847 060b E5000000 		.4byte	0xe5
 1848 060f 0C       		.byte	0xc
 1849 0610 09       		.uleb128 0x9
 1850 0611 30080000 		.4byte	.LASF107
 1851 0615 0C       		.byte	0xc
 1852 0616 7101     		.2byte	0x171
 1853 0618 E5000000 		.4byte	0xe5
 1854 061c 10       		.byte	0x10
 1855 061d 08       		.uleb128 0x8
 1856 061e 46435200 		.ascii	"FCR\000"
 1857 0622 0C       		.byte	0xc
 1858 0623 7201     		.2byte	0x172
 1859 0625 E5000000 		.4byte	0xe5
 1860 0629 14       		.byte	0x14
 1861 062a 00       		.byte	0
 1862 062b 15       		.uleb128 0x15
 1863 062c E9070000 		.4byte	.LASF108
 1864 0630 0C       		.byte	0xc
 1865 0631 7301     		.2byte	0x173
 1866 0633 D4050000 		.4byte	0x5d4
 1867 0637 03       		.uleb128 0x3
 1868 0638 4D030000 		.4byte	.LASF109
 1869 063c 0D       		.byte	0xd
 1870 063d 65       		.byte	0x65
 1871 063e 5C030000 		.4byte	0x35c
 1872 0642 03       		.uleb128 0x3
 1873 0643 DD040000 		.4byte	.LASF110
 1874 0647 0D       		.byte	0xd
 1875 0648 6D       		.byte	0x6d
 1876 0649 D5000000 		.4byte	0xd5
 1877 064d 06       		.uleb128 0x6
 1878 064e FC070000 		.4byte	.LASF111
 1879 0652 04       		.byte	0x4
 1880 0653 0D       		.byte	0xd
 1881 0654 89       		.byte	0x89
 1882 0655 66060000 		.4byte	0x666
 1883 0659 13       		.uleb128 0x13
 1884 065a 72313300 		.ascii	"r13\000"
 1885 065e 0D       		.byte	0xd
ARM GAS  /tmp/ccXqF3yr.s 			page 35


 1886 065f 8A       		.byte	0x8a
 1887 0660 E1060000 		.4byte	0x6e1
 1888 0664 00       		.byte	0
 1889 0665 00       		.byte	0
 1890 0666 06       		.uleb128 0x6
 1891 0667 76000000 		.4byte	.LASF112
 1892 066b 24       		.byte	0x24
 1893 066c 01       		.byte	0x1
 1894 066d FD       		.byte	0xfd
 1895 066e E1060000 		.4byte	0x6e1
 1896 0672 08       		.uleb128 0x8
 1897 0673 723400   		.ascii	"r4\000"
 1898 0676 01       		.byte	0x1
 1899 0677 1001     		.2byte	0x110
 1900 0679 37060000 		.4byte	0x637
 1901 067d 00       		.byte	0
 1902 067e 08       		.uleb128 0x8
 1903 067f 723500   		.ascii	"r5\000"
 1904 0682 01       		.byte	0x1
 1905 0683 1101     		.2byte	0x111
 1906 0685 37060000 		.4byte	0x637
 1907 0689 04       		.byte	0x4
 1908 068a 08       		.uleb128 0x8
 1909 068b 723600   		.ascii	"r6\000"
 1910 068e 01       		.byte	0x1
 1911 068f 1201     		.2byte	0x112
 1912 0691 37060000 		.4byte	0x637
 1913 0695 08       		.byte	0x8
 1914 0696 08       		.uleb128 0x8
 1915 0697 723700   		.ascii	"r7\000"
 1916 069a 01       		.byte	0x1
 1917 069b 1301     		.2byte	0x113
 1918 069d 37060000 		.4byte	0x637
 1919 06a1 0C       		.byte	0xc
 1920 06a2 08       		.uleb128 0x8
 1921 06a3 723800   		.ascii	"r8\000"
 1922 06a6 01       		.byte	0x1
 1923 06a7 1401     		.2byte	0x114
 1924 06a9 37060000 		.4byte	0x637
 1925 06ad 10       		.byte	0x10
 1926 06ae 08       		.uleb128 0x8
 1927 06af 723900   		.ascii	"r9\000"
 1928 06b2 01       		.byte	0x1
 1929 06b3 1501     		.2byte	0x115
 1930 06b5 37060000 		.4byte	0x637
 1931 06b9 14       		.byte	0x14
 1932 06ba 08       		.uleb128 0x8
 1933 06bb 72313000 		.ascii	"r10\000"
 1934 06bf 01       		.byte	0x1
 1935 06c0 1601     		.2byte	0x116
 1936 06c2 37060000 		.4byte	0x637
 1937 06c6 18       		.byte	0x18
 1938 06c7 08       		.uleb128 0x8
 1939 06c8 72313100 		.ascii	"r11\000"
 1940 06cc 01       		.byte	0x1
 1941 06cd 1701     		.2byte	0x117
 1942 06cf 37060000 		.4byte	0x637
ARM GAS  /tmp/ccXqF3yr.s 			page 36


 1943 06d3 1C       		.byte	0x1c
 1944 06d4 08       		.uleb128 0x8
 1945 06d5 6C7200   		.ascii	"lr\000"
 1946 06d8 01       		.byte	0x1
 1947 06d9 1801     		.2byte	0x118
 1948 06db 37060000 		.4byte	0x637
 1949 06df 20       		.byte	0x20
 1950 06e0 00       		.byte	0
 1951 06e1 0A       		.uleb128 0xa
 1952 06e2 04       		.byte	0x4
 1953 06e3 66060000 		.4byte	0x666
 1954 06e7 12       		.uleb128 0x12
 1955 06e8 10       		.byte	0x10
 1956 06e9 0E       		.byte	0xe
 1957 06ea 51       		.byte	0x51
 1958 06eb 20070000 		.4byte	0x720
 1959 06ef 07       		.uleb128 0x7
 1960 06f0 1F000000 		.4byte	.LASF113
 1961 06f4 0E       		.byte	0xe
 1962 06f5 55       		.byte	0x55
 1963 06f6 58010000 		.4byte	0x158
 1964 06fa 00       		.byte	0
 1965 06fb 07       		.uleb128 0x7
 1966 06fc 3C020000 		.4byte	.LASF114
 1967 0700 0E       		.byte	0xe
 1968 0701 59       		.byte	0x59
 1969 0702 7F020000 		.4byte	0x27f
 1970 0706 04       		.byte	0x4
 1971 0707 07       		.uleb128 0x7
 1972 0708 7F090000 		.4byte	.LASF115
 1973 070c 0E       		.byte	0xe
 1974 070d 5D       		.byte	0x5d
 1975 070e 5C030000 		.4byte	0x35c
 1976 0712 08       		.byte	0x8
 1977 0713 07       		.uleb128 0x7
 1978 0714 0B010000 		.4byte	.LASF116
 1979 0718 0E       		.byte	0xe
 1980 0719 61       		.byte	0x61
 1981 071a A9000000 		.4byte	0xa9
 1982 071e 0C       		.byte	0xc
 1983 071f 00       		.byte	0
 1984 0720 03       		.uleb128 0x3
 1985 0721 6A050000 		.4byte	.LASF117
 1986 0725 0E       		.byte	0xe
 1987 0726 62       		.byte	0x62
 1988 0727 E7060000 		.4byte	0x6e7
 1989 072b 16       		.uleb128 0x16
 1990 072c 0804     		.2byte	0x408
 1991 072e 0E       		.byte	0xe
 1992 072f 67       		.byte	0x67
 1993 0730 59070000 		.4byte	0x759
 1994 0734 07       		.uleb128 0x7
 1995 0735 E8040000 		.4byte	.LASF118
 1996 0739 0E       		.byte	0xe
 1997 073a 6B       		.byte	0x6b
 1998 073b 33000000 		.4byte	0x33
 1999 073f 00       		.byte	0
ARM GAS  /tmp/ccXqF3yr.s 			page 37


 2000 0740 07       		.uleb128 0x7
 2001 0741 63050000 		.4byte	.LASF119
 2002 0745 0E       		.byte	0xe
 2003 0746 6F       		.byte	0x6f
 2004 0747 59070000 		.4byte	0x759
 2005 074b 04       		.byte	0x4
 2006 074c 07       		.uleb128 0x7
 2007 074d 10060000 		.4byte	.LASF120
 2008 0751 0E       		.byte	0xe
 2009 0752 73       		.byte	0x73
 2010 0753 5F070000 		.4byte	0x75f
 2011 0757 08       		.byte	0x8
 2012 0758 00       		.byte	0
 2013 0759 0A       		.uleb128 0xa
 2014 075a 04       		.byte	0x4
 2015 075b 20070000 		.4byte	0x720
 2016 075f 17       		.uleb128 0x17
 2017 0760 20070000 		.4byte	0x720
 2018 0764 6F070000 		.4byte	0x76f
 2019 0768 18       		.uleb128 0x18
 2020 0769 CB040000 		.4byte	0x4cb
 2021 076d 3F       		.byte	0x3f
 2022 076e 00       		.byte	0
 2023 076f 03       		.uleb128 0x3
 2024 0770 F9000000 		.4byte	.LASF121
 2025 0774 0E       		.byte	0xe
 2026 0775 74       		.byte	0x74
 2027 0776 2B070000 		.4byte	0x72b
 2028 077a 12       		.uleb128 0x12
 2029 077b 04       		.byte	0x4
 2030 077c 0F       		.byte	0xf
 2031 077d 38       		.byte	0x38
 2032 077e 8F070000 		.4byte	0x78f
 2033 0782 07       		.uleb128 0x7
 2034 0783 E2070000 		.4byte	.LASF122
 2035 0787 0F       		.byte	0xf
 2036 0788 3C       		.byte	0x3c
 2037 0789 EA000000 		.4byte	0xea
 2038 078d 00       		.byte	0
 2039 078e 00       		.byte	0
 2040 078f 03       		.uleb128 0x3
 2041 0790 F0040000 		.4byte	.LASF123
 2042 0794 0F       		.byte	0xf
 2043 0795 3D       		.byte	0x3d
 2044 0796 7A070000 		.4byte	0x77a
 2045 079a 12       		.uleb128 0x12
 2046 079b 18       		.byte	0x18
 2047 079c 0F       		.byte	0xf
 2048 079d 48       		.byte	0x48
 2049 079e DD070000 		.4byte	0x7dd
 2050 07a2 07       		.uleb128 0x7
 2051 07a3 F8030000 		.4byte	.LASF124
 2052 07a7 0F       		.byte	0xf
 2053 07a8 49       		.byte	0x49
 2054 07a9 EA000000 		.4byte	0xea
 2055 07ad 00       		.byte	0
 2056 07ae 07       		.uleb128 0x7
ARM GAS  /tmp/ccXqF3yr.s 			page 38


 2057 07af B3000000 		.4byte	.LASF125
 2058 07b3 0F       		.byte	0xf
 2059 07b4 4A       		.byte	0x4a
 2060 07b5 EA000000 		.4byte	0xea
 2061 07b9 04       		.byte	0x4
 2062 07ba 07       		.uleb128 0x7
 2063 07bb 4C040000 		.4byte	.LASF126
 2064 07bf 0F       		.byte	0xf
 2065 07c0 4B       		.byte	0x4b
 2066 07c1 EA000000 		.4byte	0xea
 2067 07c5 08       		.byte	0x8
 2068 07c6 13       		.uleb128 0x13
 2069 07c7 6E00     		.ascii	"n\000"
 2070 07c9 0F       		.byte	0xf
 2071 07ca 4C       		.byte	0x4c
 2072 07cb 4D010000 		.4byte	0x14d
 2073 07cf 0C       		.byte	0xc
 2074 07d0 07       		.uleb128 0x7
 2075 07d1 E9050000 		.4byte	.LASF127
 2076 07d5 0F       		.byte	0xf
 2077 07d6 4D       		.byte	0x4d
 2078 07d7 F5000000 		.4byte	0xf5
 2079 07db 10       		.byte	0x10
 2080 07dc 00       		.byte	0
 2081 07dd 03       		.uleb128 0x3
 2082 07de C4000000 		.4byte	.LASF128
 2083 07e2 0F       		.byte	0xf
 2084 07e3 4E       		.byte	0x4e
 2085 07e4 9A070000 		.4byte	0x79a
 2086 07e8 12       		.uleb128 0x12
 2087 07e9 38       		.byte	0x38
 2088 07ea 10       		.byte	0x10
 2089 07eb 38       		.byte	0x38
 2090 07ec 21080000 		.4byte	0x821
 2091 07f0 07       		.uleb128 0x7
 2092 07f1 B1070000 		.4byte	.LASF129
 2093 07f5 10       		.byte	0x10
 2094 07f6 39       		.byte	0x39
 2095 07f7 4D010000 		.4byte	0x14d
 2096 07fb 00       		.byte	0
 2097 07fc 07       		.uleb128 0x7
 2098 07fd 52060000 		.4byte	.LASF130
 2099 0801 10       		.byte	0x10
 2100 0802 3A       		.byte	0x3a
 2101 0803 4D010000 		.4byte	0x14d
 2102 0807 04       		.byte	0x4
 2103 0808 07       		.uleb128 0x7
 2104 0809 5E090000 		.4byte	.LASF131
 2105 080d 10       		.byte	0x10
 2106 080e 3B       		.byte	0x3b
 2107 080f DD070000 		.4byte	0x7dd
 2108 0813 08       		.byte	0x8
 2109 0814 07       		.uleb128 0x7
 2110 0815 89040000 		.4byte	.LASF132
 2111 0819 10       		.byte	0x10
 2112 081a 3D       		.byte	0x3d
 2113 081b DD070000 		.4byte	0x7dd
ARM GAS  /tmp/ccXqF3yr.s 			page 39


 2114 081f 20       		.byte	0x20
 2115 0820 00       		.byte	0
 2116 0821 03       		.uleb128 0x3
 2117 0822 10040000 		.4byte	.LASF133
 2118 0826 10       		.byte	0x10
 2119 0827 3F       		.byte	0x3f
 2120 0828 E8070000 		.4byte	0x7e8
 2121 082c 19       		.uleb128 0x19
 2122 082d 04       		.byte	0x4
 2123 082e 0B       		.byte	0xb
 2124 082f FA       		.byte	0xfa
 2125 0830 89080000 		.4byte	0x889
 2126 0834 1A       		.uleb128 0x1a
 2127 0835 40000000 		.4byte	.LASF134
 2128 0839 0B       		.byte	0xb
 2129 083a 0101     		.2byte	0x101
 2130 083c 2C010000 		.4byte	0x12c
 2131 0840 1A       		.uleb128 0x1a
 2132 0841 1C010000 		.4byte	.LASF135
 2133 0845 0B       		.byte	0xb
 2134 0846 0801     		.2byte	0x108
 2135 0848 2C010000 		.4byte	0x12c
 2136 084c 1A       		.uleb128 0x1a
 2137 084d E1080000 		.4byte	.LASF136
 2138 0851 0B       		.byte	0xb
 2139 0852 0F01     		.2byte	0x10f
 2140 0854 5C030000 		.4byte	0x35c
 2141 0858 1A       		.uleb128 0x1a
 2142 0859 5D050000 		.4byte	.LASF137
 2143 085d 0B       		.byte	0xb
 2144 085e 1601     		.2byte	0x116
 2145 0860 89080000 		.4byte	0x889
 2146 0864 1A       		.uleb128 0x1a
 2147 0865 CF030000 		.4byte	.LASF138
 2148 0869 0B       		.byte	0xb
 2149 086a 1E01     		.2byte	0x11e
 2150 086c B4080000 		.4byte	0x8b4
 2151 0870 1A       		.uleb128 0x1a
 2152 0871 14070000 		.4byte	.LASF139
 2153 0875 0B       		.byte	0xb
 2154 0876 2701     		.2byte	0x127
 2155 0878 EB080000 		.4byte	0x8eb
 2156 087c 1A       		.uleb128 0x1a
 2157 087d A3060000 		.4byte	.LASF140
 2158 0881 0B       		.byte	0xb
 2159 0882 2F01     		.2byte	0x12f
 2160 0884 37010000 		.4byte	0x137
 2161 0888 00       		.byte	0
 2162 0889 0A       		.uleb128 0xa
 2163 088a 04       		.byte	0x4
 2164 088b 74020000 		.4byte	0x274
 2165 088f 06       		.uleb128 0x6
 2166 0890 EE060000 		.4byte	.LASF141
 2167 0894 0C       		.byte	0xc
 2168 0895 11       		.byte	0x11
 2169 0896 34       		.byte	0x34
 2170 0897 B4080000 		.4byte	0x8b4
ARM GAS  /tmp/ccXqF3yr.s 			page 40


 2171 089b 07       		.uleb128 0x7
 2172 089c 14010000 		.4byte	.LASF142
 2173 08a0 11       		.byte	0x11
 2174 08a1 35       		.byte	0x35
 2175 08a2 A9020000 		.4byte	0x2a9
 2176 08a6 00       		.byte	0
 2177 08a7 07       		.uleb128 0x7
 2178 08a8 F2030000 		.4byte	.LASF143
 2179 08ac 11       		.byte	0x11
 2180 08ad 37       		.byte	0x37
 2181 08ae 42010000 		.4byte	0x142
 2182 08b2 08       		.byte	0x8
 2183 08b3 00       		.byte	0
 2184 08b4 0A       		.uleb128 0xa
 2185 08b5 04       		.byte	0x4
 2186 08b6 8F080000 		.4byte	0x88f
 2187 08ba 06       		.uleb128 0x6
 2188 08bb 55080000 		.4byte	.LASF144
 2189 08bf 10       		.byte	0x10
 2190 08c0 12       		.byte	0x12
 2191 08c1 39       		.byte	0x39
 2192 08c2 EB080000 		.4byte	0x8eb
 2193 08c6 07       		.uleb128 0x7
 2194 08c7 AD010000 		.4byte	.LASF145
 2195 08cb 12       		.byte	0x12
 2196 08cc 3A       		.byte	0x3a
 2197 08cd A9020000 		.4byte	0x2a9
 2198 08d1 00       		.byte	0
 2199 08d2 07       		.uleb128 0x7
 2200 08d3 69090000 		.4byte	.LASF146
 2201 08d7 12       		.byte	0x12
 2202 08d8 3C       		.byte	0x3c
 2203 08d9 7F020000 		.4byte	0x27f
 2204 08dd 08       		.byte	0x8
 2205 08de 07       		.uleb128 0x7
 2206 08df B6050000 		.4byte	.LASF147
 2207 08e3 12       		.byte	0x12
 2208 08e4 3E       		.byte	0x3e
 2209 08e5 2F090000 		.4byte	0x92f
 2210 08e9 0C       		.byte	0xc
 2211 08ea 00       		.byte	0
 2212 08eb 0A       		.uleb128 0xa
 2213 08ec 04       		.byte	0x4
 2214 08ed BA080000 		.4byte	0x8ba
 2215 08f1 0A       		.uleb128 0xa
 2216 08f2 04       		.byte	0x4
 2217 08f3 F7080000 		.4byte	0x8f7
 2218 08f7 1B       		.uleb128 0x1b
 2219 08f8 FC080000 		.4byte	0x8fc
 2220 08fc 04       		.uleb128 0x4
 2221 08fd 01       		.byte	0x1
 2222 08fe 08       		.byte	0x8
 2223 08ff 54070000 		.4byte	.LASF148
 2224 0903 0A       		.uleb128 0xa
 2225 0904 04       		.byte	0x4
 2226 0905 42060000 		.4byte	0x642
 2227 0909 0A       		.uleb128 0xa
ARM GAS  /tmp/ccXqF3yr.s 			page 41


 2228 090a 04       		.byte	0x4
 2229 090b 5E030000 		.4byte	0x35e
 2230 090f 05       		.uleb128 0x5
 2231 0910 F1080000 		.4byte	0x8f1
 2232 0914 17       		.uleb128 0x17
 2233 0915 42060000 		.4byte	0x642
 2234 0919 24090000 		.4byte	0x924
 2235 091d 18       		.uleb128 0x18
 2236 091e CB040000 		.4byte	0x4cb
 2237 0922 1E       		.byte	0x1e
 2238 0923 00       		.byte	0
 2239 0924 03       		.uleb128 0x3
 2240 0925 83010000 		.4byte	.LASF149
 2241 0929 12       		.byte	0x12
 2242 092a 34       		.byte	0x34
 2243 092b BA080000 		.4byte	0x8ba
 2244 092f 0A       		.uleb128 0xa
 2245 0930 04       		.byte	0x4
 2246 0931 24090000 		.4byte	0x924
 2247 0935 14       		.uleb128 0x14
 2248 0936 0C       		.byte	0xc
 2249 0937 13       		.byte	0x13
 2250 0938 6601     		.2byte	0x166
 2251 093a 80090000 		.4byte	0x980
 2252 093e 09       		.uleb128 0x9
 2253 093f A2000000 		.4byte	.LASF150
 2254 0943 13       		.byte	0x13
 2255 0944 6701     		.2byte	0x167
 2256 0946 80090000 		.4byte	0x980
 2257 094a 00       		.byte	0
 2258 094b 09       		.uleb128 0x9
 2259 094c 06070000 		.4byte	.LASF151
 2260 0950 13       		.byte	0x13
 2261 0951 6801     		.2byte	0x168
 2262 0953 86090000 		.4byte	0x986
 2263 0957 04       		.byte	0x4
 2264 0958 09       		.uleb128 0x9
 2265 0959 EB030000 		.4byte	.LASF152
 2266 095d 13       		.byte	0x13
 2267 095e 6901     		.2byte	0x169
 2268 0960 A9000000 		.4byte	0xa9
 2269 0964 08       		.byte	0x8
 2270 0965 09       		.uleb128 0x9
 2271 0966 58040000 		.4byte	.LASF153
 2272 096a 13       		.byte	0x13
 2273 096b 6B01     		.2byte	0x16b
 2274 096d A9000000 		.4byte	0xa9
 2275 0971 09       		.byte	0x9
 2276 0972 09       		.uleb128 0x9
 2277 0973 25010000 		.4byte	.LASF154
 2278 0977 13       		.byte	0x13
 2279 0978 6C01     		.2byte	0x16c
 2280 097a A9000000 		.4byte	0xa9
 2281 097e 0A       		.byte	0xa
 2282 097f 00       		.byte	0
 2283 0980 0A       		.uleb128 0xa
 2284 0981 04       		.byte	0x4
ARM GAS  /tmp/ccXqF3yr.s 			page 42


 2285 0982 2B060000 		.4byte	0x62b
 2286 0986 0A       		.uleb128 0xa
 2287 0987 04       		.byte	0x4
 2288 0988 E5000000 		.4byte	0xe5
 2289 098c 15       		.uleb128 0x15
 2290 098d 31060000 		.4byte	.LASF155
 2291 0991 13       		.byte	0x13
 2292 0992 6D01     		.2byte	0x16d
 2293 0994 35090000 		.4byte	0x935
 2294 0998 04       		.uleb128 0x4
 2295 0999 01       		.byte	0x1
 2296 099a 02       		.byte	0x2
 2297 099b 5B060000 		.4byte	.LASF156
 2298 099f 1C       		.uleb128 0x1c
 2299 09a0 01       		.byte	0x1
 2300 09a1 14       		.byte	0x14
 2301 09a2 46       		.byte	0x46
 2302 09a3 CC090000 		.4byte	0x9cc
 2303 09a7 1D       		.uleb128 0x1d
 2304 09a8 B5010000 		.4byte	.LASF157
 2305 09ac 00       		.sleb128 0
 2306 09ad 1D       		.uleb128 0x1d
 2307 09ae 79050000 		.4byte	.LASF158
 2308 09b2 01       		.sleb128 1
 2309 09b3 1D       		.uleb128 0x1d
 2310 09b4 29040000 		.4byte	.LASF159
 2311 09b8 02       		.sleb128 2
 2312 09b9 1D       		.uleb128 0x1d
 2313 09ba B9000000 		.4byte	.LASF160
 2314 09be 03       		.sleb128 3
 2315 09bf 1D       		.uleb128 0x1d
 2316 09c0 E8080000 		.4byte	.LASF161
 2317 09c4 04       		.sleb128 4
 2318 09c5 1D       		.uleb128 0x1d
 2319 09c6 DA010000 		.4byte	.LASF162
 2320 09ca 05       		.sleb128 5
 2321 09cb 00       		.byte	0
 2322 09cc 03       		.uleb128 0x3
 2323 09cd 47000000 		.4byte	.LASF163
 2324 09d1 14       		.byte	0x14
 2325 09d2 4D       		.byte	0x4d
 2326 09d3 9F090000 		.4byte	0x99f
 2327 09d7 15       		.uleb128 0x15
 2328 09d8 2F030000 		.4byte	.LASF164
 2329 09dc 15       		.byte	0x15
 2330 09dd 2E01     		.2byte	0x12e
 2331 09df B4000000 		.4byte	0xb4
 2332 09e3 15       		.uleb128 0x15
 2333 09e4 FC080000 		.4byte	.LASF165
 2334 09e8 15       		.byte	0x15
 2335 09e9 3301     		.2byte	0x133
 2336 09eb B4000000 		.4byte	0xb4
 2337 09ef 1E       		.uleb128 0x1e
 2338 09f0 01       		.byte	0x1
 2339 09f1 15       		.byte	0x15
 2340 09f2 3A01     		.2byte	0x13a
 2341 09f4 050A0000 		.4byte	0xa05
ARM GAS  /tmp/ccXqF3yr.s 			page 43


 2342 09f8 1D       		.uleb128 0x1d
 2343 09f9 FC010000 		.4byte	.LASF166
 2344 09fd 00       		.sleb128 0
 2345 09fe 1D       		.uleb128 0x1d
 2346 09ff 70030000 		.4byte	.LASF167
 2347 0a03 01       		.sleb128 1
 2348 0a04 00       		.byte	0
 2349 0a05 15       		.uleb128 0x15
 2350 0a06 D7000000 		.4byte	.LASF168
 2351 0a0a 15       		.byte	0x15
 2352 0a0b 3D01     		.2byte	0x13d
 2353 0a0d EF090000 		.4byte	0x9ef
 2354 0a11 15       		.uleb128 0x15
 2355 0a12 E1030000 		.4byte	.LASF169
 2356 0a16 15       		.byte	0x15
 2357 0a17 4201     		.2byte	0x142
 2358 0a19 1D0A0000 		.4byte	0xa1d
 2359 0a1d 0B       		.uleb128 0xb
 2360 0a1e E1030000 		.4byte	.LASF169
 2361 0a22 34       		.byte	0x34
 2362 0a23 15       		.byte	0x15
 2363 0a24 A601     		.2byte	0x1a6
 2364 0a26 AD0A0000 		.4byte	0xaad
 2365 0a2a 09       		.uleb128 0x9
 2366 0a2b E4010000 		.4byte	.LASF170
 2367 0a2f 15       		.byte	0x15
 2368 0a30 AA01     		.2byte	0x1aa
 2369 0a32 CC090000 		.4byte	0x9cc
 2370 0a36 00       		.byte	0
 2371 0a37 09       		.uleb128 0x9
 2372 0a38 59070000 		.4byte	.LASF171
 2373 0a3c 15       		.byte	0x15
 2374 0a3d AE01     		.2byte	0x1ae
 2375 0a3f CA0B0000 		.4byte	0xbca
 2376 0a43 04       		.byte	0x4
 2377 0a44 09       		.uleb128 0x9
 2378 0a45 18050000 		.4byte	.LASF172
 2379 0a49 15       		.byte	0x15
 2380 0a4a B201     		.2byte	0x1b2
 2381 0a4c DA0A0000 		.4byte	0xada
 2382 0a50 08       		.byte	0x8
 2383 0a51 09       		.uleb128 0x9
 2384 0a52 4E070000 		.4byte	.LASF173
 2385 0a56 15       		.byte	0x15
 2386 0a57 B601     		.2byte	0x1b6
 2387 0a59 28000000 		.4byte	0x28
 2388 0a5d 0C       		.byte	0xc
 2389 0a5e 09       		.uleb128 0x9
 2390 0a5f 01050000 		.4byte	.LASF174
 2391 0a63 15       		.byte	0x15
 2392 0a64 BA01     		.2byte	0x1ba
 2393 0a66 D50B0000 		.4byte	0xbd5
 2394 0a6a 10       		.byte	0x10
 2395 0a6b 09       		.uleb128 0x9
 2396 0a6c 2B020000 		.4byte	.LASF175
 2397 0a70 15       		.byte	0x15
 2398 0a71 BF01     		.2byte	0x1bf
ARM GAS  /tmp/ccXqF3yr.s 			page 44


 2399 0a73 74020000 		.4byte	0x274
 2400 0a77 14       		.byte	0x14
 2401 0a78 09       		.uleb128 0x9
 2402 0a79 4C060000 		.4byte	.LASF176
 2403 0a7d 15       		.byte	0x15
 2404 0a7e C501     		.2byte	0x1c5
 2405 0a80 24090000 		.4byte	0x924
 2406 0a84 18       		.byte	0x18
 2407 0a85 08       		.uleb128 0x8
 2408 0a86 61646300 		.ascii	"adc\000"
 2409 0a8a 15       		.byte	0x15
 2410 0a8b CE01     		.2byte	0x1ce
 2411 0a8d E00B0000 		.4byte	0xbe0
 2412 0a91 28       		.byte	0x28
 2413 0a92 09       		.uleb128 0x9
 2414 0a93 D3010000 		.4byte	.LASF177
 2415 0a97 15       		.byte	0x15
 2416 0a98 D201     		.2byte	0x1d2
 2417 0a9a E60B0000 		.4byte	0xbe6
 2418 0a9e 2C       		.byte	0x2c
 2419 0a9f 09       		.uleb128 0x9
 2420 0aa0 D9080000 		.4byte	.LASF178
 2421 0aa4 15       		.byte	0x15
 2422 0aa5 D601     		.2byte	0x1d6
 2423 0aa7 CA000000 		.4byte	0xca
 2424 0aab 30       		.byte	0x30
 2425 0aac 00       		.byte	0
 2426 0aad 15       		.uleb128 0x15
 2427 0aae 16030000 		.4byte	.LASF179
 2428 0ab2 15       		.byte	0x15
 2429 0ab3 4C01     		.2byte	0x14c
 2430 0ab5 B90A0000 		.4byte	0xab9
 2431 0ab9 0A       		.uleb128 0xa
 2432 0aba 04       		.byte	0x4
 2433 0abb BF0A0000 		.4byte	0xabf
 2434 0abf 0C       		.uleb128 0xc
 2435 0ac0 D40A0000 		.4byte	0xad4
 2436 0ac4 0D       		.uleb128 0xd
 2437 0ac5 D40A0000 		.4byte	0xad4
 2438 0ac9 0D       		.uleb128 0xd
 2439 0aca DA0A0000 		.4byte	0xada
 2440 0ace 0D       		.uleb128 0xd
 2441 0acf 28000000 		.4byte	0x28
 2442 0ad3 00       		.byte	0
 2443 0ad4 0A       		.uleb128 0xa
 2444 0ad5 04       		.byte	0x4
 2445 0ad6 110A0000 		.4byte	0xa11
 2446 0ada 0A       		.uleb128 0xa
 2447 0adb 04       		.byte	0x4
 2448 0adc D7090000 		.4byte	0x9d7
 2449 0ae0 15       		.uleb128 0x15
 2450 0ae1 0F020000 		.4byte	.LASF180
 2451 0ae5 15       		.byte	0x15
 2452 0ae6 5501     		.2byte	0x155
 2453 0ae8 EC0A0000 		.4byte	0xaec
 2454 0aec 0A       		.uleb128 0xa
 2455 0aed 04       		.byte	0x4
ARM GAS  /tmp/ccXqF3yr.s 			page 45


 2456 0aee F20A0000 		.4byte	0xaf2
 2457 0af2 0C       		.uleb128 0xc
 2458 0af3 020B0000 		.4byte	0xb02
 2459 0af7 0D       		.uleb128 0xd
 2460 0af8 D40A0000 		.4byte	0xad4
 2461 0afc 0D       		.uleb128 0xd
 2462 0afd 050A0000 		.4byte	0xa05
 2463 0b01 00       		.byte	0
 2464 0b02 14       		.uleb128 0x14
 2465 0b03 28       		.byte	0x28
 2466 0b04 15       		.byte	0x15
 2467 0b05 5F01     		.2byte	0x15f
 2468 0b07 9B0B0000 		.4byte	0xb9b
 2469 0b0b 09       		.uleb128 0x9
 2470 0b0c EA010000 		.4byte	.LASF181
 2471 0b10 15       		.byte	0x15
 2472 0b11 6301     		.2byte	0x163
 2473 0b13 98090000 		.4byte	0x998
 2474 0b17 00       		.byte	0
 2475 0b18 09       		.uleb128 0x9
 2476 0b19 76040000 		.4byte	.LASF182
 2477 0b1d 15       		.byte	0x15
 2478 0b1e 6701     		.2byte	0x167
 2479 0b20 E3090000 		.4byte	0x9e3
 2480 0b24 02       		.byte	0x2
 2481 0b25 09       		.uleb128 0x9
 2482 0b26 0F030000 		.4byte	.LASF183
 2483 0b2a 15       		.byte	0x15
 2484 0b2b 6B01     		.2byte	0x16b
 2485 0b2d AD0A0000 		.4byte	0xaad
 2486 0b31 04       		.byte	0x4
 2487 0b32 09       		.uleb128 0x9
 2488 0b33 93060000 		.4byte	.LASF184
 2489 0b37 15       		.byte	0x15
 2490 0b38 6F01     		.2byte	0x16f
 2491 0b3a E00A0000 		.4byte	0xae0
 2492 0b3e 08       		.byte	0x8
 2493 0b3f 08       		.uleb128 0x8
 2494 0b40 63723100 		.ascii	"cr1\000"
 2495 0b44 15       		.byte	0x15
 2496 0b45 7601     		.2byte	0x176
 2497 0b47 CA000000 		.4byte	0xca
 2498 0b4b 0C       		.byte	0xc
 2499 0b4c 08       		.uleb128 0x8
 2500 0b4d 63723200 		.ascii	"cr2\000"
 2501 0b51 15       		.byte	0x15
 2502 0b52 7D01     		.2byte	0x17d
 2503 0b54 CA000000 		.4byte	0xca
 2504 0b58 10       		.byte	0x10
 2505 0b59 09       		.uleb128 0x9
 2506 0b5a 6D080000 		.4byte	.LASF185
 2507 0b5e 15       		.byte	0x15
 2508 0b5f 8301     		.2byte	0x183
 2509 0b61 CA000000 		.4byte	0xca
 2510 0b65 14       		.byte	0x14
 2511 0b66 09       		.uleb128 0x9
 2512 0b67 73080000 		.4byte	.LASF186
ARM GAS  /tmp/ccXqF3yr.s 			page 46


 2513 0b6b 15       		.byte	0x15
 2514 0b6c 8901     		.2byte	0x189
 2515 0b6e CA000000 		.4byte	0xca
 2516 0b72 18       		.byte	0x18
 2517 0b73 09       		.uleb128 0x9
 2518 0b74 84070000 		.4byte	.LASF187
 2519 0b78 15       		.byte	0x15
 2520 0b79 8E01     		.2byte	0x18e
 2521 0b7b CA000000 		.4byte	0xca
 2522 0b7f 1C       		.byte	0x1c
 2523 0b80 09       		.uleb128 0x9
 2524 0b81 89070000 		.4byte	.LASF188
 2525 0b85 15       		.byte	0x15
 2526 0b86 9301     		.2byte	0x193
 2527 0b88 CA000000 		.4byte	0xca
 2528 0b8c 20       		.byte	0x20
 2529 0b8d 09       		.uleb128 0x9
 2530 0b8e 8E070000 		.4byte	.LASF189
 2531 0b92 15       		.byte	0x15
 2532 0b93 9801     		.2byte	0x198
 2533 0b95 CA000000 		.4byte	0xca
 2534 0b99 24       		.byte	0x24
 2535 0b9a 00       		.byte	0
 2536 0b9b 15       		.uleb128 0x15
 2537 0b9c B7080000 		.4byte	.LASF190
 2538 0ba0 15       		.byte	0x15
 2539 0ba1 9901     		.2byte	0x199
 2540 0ba3 020B0000 		.4byte	0xb02
 2541 0ba7 14       		.uleb128 0x14
 2542 0ba8 04       		.byte	0x4
 2543 0ba9 15       		.byte	0x15
 2544 0baa 9F01     		.2byte	0x19f
 2545 0bac BE0B0000 		.4byte	0xbbe
 2546 0bb0 09       		.uleb128 0x9
 2547 0bb1 5E030000 		.4byte	.LASF191
 2548 0bb5 15       		.byte	0x15
 2549 0bb6 A001     		.2byte	0x1a0
 2550 0bb8 CA000000 		.4byte	0xca
 2551 0bbc 00       		.byte	0
 2552 0bbd 00       		.byte	0
 2553 0bbe 15       		.uleb128 0x15
 2554 0bbf 43030000 		.4byte	.LASF192
 2555 0bc3 15       		.byte	0x15
 2556 0bc4 A101     		.2byte	0x1a1
 2557 0bc6 A70B0000 		.4byte	0xba7
 2558 0bca 0A       		.uleb128 0xa
 2559 0bcb 04       		.byte	0x4
 2560 0bcc D00B0000 		.4byte	0xbd0
 2561 0bd0 1B       		.uleb128 0x1b
 2562 0bd1 BE0B0000 		.4byte	0xbbe
 2563 0bd5 0A       		.uleb128 0xa
 2564 0bd6 04       		.byte	0x4
 2565 0bd7 DB0B0000 		.4byte	0xbdb
 2566 0bdb 1B       		.uleb128 0x1b
 2567 0bdc 9B0B0000 		.4byte	0xb9b
 2568 0be0 0A       		.uleb128 0xa
 2569 0be1 04       		.byte	0x4
ARM GAS  /tmp/ccXqF3yr.s 			page 47


 2570 0be2 C9050000 		.4byte	0x5c9
 2571 0be6 0A       		.uleb128 0xa
 2572 0be7 04       		.byte	0x4
 2573 0be8 EC0B0000 		.4byte	0xbec
 2574 0bec 1B       		.uleb128 0x1b
 2575 0bed 8C090000 		.4byte	0x98c
 2576 0bf1 1F       		.uleb128 0x1f
 2577 0bf2 B7070000 		.4byte	.LASF218
 2578 0bf6 02       		.byte	0x2
 2579 0bf7 2202     		.2byte	0x222
 2580 0bf9 03       		.byte	0x3
 2581 0bfa 0B0C0000 		.4byte	0xc0b
 2582 0bfe 20       		.uleb128 0x20
 2583 0bff 81030000 		.4byte	.LASF219
 2584 0c03 02       		.byte	0x2
 2585 0c04 2202     		.2byte	0x222
 2586 0c06 CA000000 		.4byte	0xca
 2587 0c0a 00       		.byte	0
 2588 0c0b 21       		.uleb128 0x21
 2589 0c0c A9000000 		.4byte	.LASF193
 2590 0c10 01       		.byte	0x1
 2591 0c11 C801     		.2byte	0x1c8
 2592 0c13 00000000 		.4byte	.LFB127
 2593 0c17 10000000 		.4byte	.LFE127-.LFB127
 2594 0c1b 01       		.uleb128 0x1
 2595 0c1c 9C       		.byte	0x9c
 2596 0c1d 3B0C0000 		.4byte	0xc3b
 2597 0c21 22       		.uleb128 0x22
 2598 0c22 F10B0000 		.4byte	0xbf1
 2599 0c26 06000000 		.4byte	.LBB6
 2600 0c2a 06000000 		.4byte	.LBE6-.LBB6
 2601 0c2e 01       		.byte	0x1
 2602 0c2f CB01     		.2byte	0x1cb
 2603 0c31 23       		.uleb128 0x23
 2604 0c32 FE0B0000 		.4byte	0xbfe
 2605 0c36 02       		.uleb128 0x2
 2606 0c37 91       		.byte	0x91
 2607 0c38 7C       		.sleb128 -4
 2608 0c39 00       		.byte	0
 2609 0c3a 00       		.byte	0
 2610 0c3b 21       		.uleb128 0x21
 2611 0c3c C7010000 		.4byte	.LASF194
 2612 0c40 01       		.byte	0x1
 2613 0c41 D601     		.2byte	0x1d6
 2614 0c43 00000000 		.4byte	.LFB128
 2615 0c47 10000000 		.4byte	.LFE128-.LFB128
 2616 0c4b 01       		.uleb128 0x1
 2617 0c4c 9C       		.byte	0x9c
 2618 0c4d 6B0C0000 		.4byte	0xc6b
 2619 0c51 22       		.uleb128 0x22
 2620 0c52 F10B0000 		.4byte	0xbf1
 2621 0c56 06000000 		.4byte	.LBB8
 2622 0c5a 06000000 		.4byte	.LBE8-.LBB8
 2623 0c5e 01       		.byte	0x1
 2624 0c5f D901     		.2byte	0x1d9
 2625 0c61 23       		.uleb128 0x23
 2626 0c62 FE0B0000 		.4byte	0xbfe
ARM GAS  /tmp/ccXqF3yr.s 			page 48


 2627 0c66 02       		.uleb128 0x2
 2628 0c67 91       		.byte	0x91
 2629 0c68 7C       		.sleb128 -4
 2630 0c69 00       		.byte	0
 2631 0c6a 00       		.byte	0
 2632 0c6b 24       		.uleb128 0x24
 2633 0c6c CA060000 		.4byte	.LASF196
 2634 0c70 03       		.byte	0x3
 2635 0c71 5A01     		.2byte	0x15a
 2636 0c73 00000000 		.4byte	.LFB167
 2637 0c77 10000000 		.4byte	.LFE167-.LFB167
 2638 0c7b 01       		.uleb128 0x1
 2639 0c7c 9C       		.byte	0x9c
 2640 0c7d 25       		.uleb128 0x25
 2641 0c7e 2B090000 		.4byte	.LASF195
 2642 0c82 03       		.byte	0x3
 2643 0c83 6601     		.2byte	0x166
 2644 0c85 00000000 		.4byte	.LFB168
 2645 0c89 38000000 		.4byte	.LFE168-.LFB168
 2646 0c8d 01       		.uleb128 0x1
 2647 0c8e 9C       		.byte	0x9c
 2648 0c8f A30C0000 		.4byte	0xca3
 2649 0c93 26       		.uleb128 0x26
 2650 0c94 B9060000 		.4byte	.LASF207
 2651 0c98 B30C0000 		.4byte	0xcb3
 2652 0c9c 05       		.uleb128 0x5
 2653 0c9d 03       		.byte	0x3
 2654 0c9e 00000000 		.4byte	__func__.5925
 2655 0ca2 00       		.byte	0
 2656 0ca3 17       		.uleb128 0x17
 2657 0ca4 FC080000 		.4byte	0x8fc
 2658 0ca8 B30C0000 		.4byte	0xcb3
 2659 0cac 18       		.uleb128 0x18
 2660 0cad CB040000 		.4byte	0x4cb
 2661 0cb1 0B       		.byte	0xb
 2662 0cb2 00       		.byte	0
 2663 0cb3 1B       		.uleb128 0x1b
 2664 0cb4 A30C0000 		.4byte	0xca3
 2665 0cb8 24       		.uleb128 0x24
 2666 0cb9 64030000 		.4byte	.LASF197
 2667 0cbd 04       		.byte	0x4
 2668 0cbe EB01     		.2byte	0x1eb
 2669 0cc0 00000000 		.4byte	.LFB244
 2670 0cc4 08000000 		.4byte	.LFE244-.LFB244
 2671 0cc8 01       		.uleb128 0x1
 2672 0cc9 9C       		.byte	0x9c
 2673 0cca 24       		.uleb128 0x24
 2674 0ccb DA060000 		.4byte	.LASF198
 2675 0ccf 04       		.byte	0x4
 2676 0cd0 F601     		.2byte	0x1f6
 2677 0cd2 00000000 		.4byte	.LFB245
 2678 0cd6 08000000 		.4byte	.LFE245-.LFB245
 2679 0cda 01       		.uleb128 0x1
 2680 0cdb 9C       		.byte	0x9c
 2681 0cdc 27       		.uleb128 0x27
 2682 0cdd 33040000 		.4byte	.LASF220
 2683 0ce1 04       		.byte	0x4
ARM GAS  /tmp/ccXqF3yr.s 			page 49


 2684 0ce2 AE02     		.2byte	0x2ae
 2685 0ce4 2C010000 		.4byte	0x12c
 2686 0ce8 00000000 		.4byte	.LFB257
 2687 0cec 16000000 		.4byte	.LFE257-.LFB257
 2688 0cf0 01       		.uleb128 0x1
 2689 0cf1 9C       		.byte	0x9c
 2690 0cf2 060D0000 		.4byte	0xd06
 2691 0cf6 28       		.uleb128 0x28
 2692 0cf7 74727000 		.ascii	"trp\000"
 2693 0cfb 04       		.byte	0x4
 2694 0cfc AE02     		.2byte	0x2ae
 2695 0cfe 89080000 		.4byte	0x889
 2696 0d02 02       		.uleb128 0x2
 2697 0d03 91       		.byte	0x91
 2698 0d04 74       		.sleb128 -12
 2699 0d05 00       		.byte	0
 2700 0d06 25       		.uleb128 0x25
 2701 0d07 00000000 		.4byte	.LASF199
 2702 0d0b 04       		.byte	0x4
 2703 0d0c D602     		.2byte	0x2d6
 2704 0d0e 00000000 		.4byte	.LFB259
 2705 0d12 16000000 		.4byte	.LFE259-.LFB259
 2706 0d16 01       		.uleb128 0x1
 2707 0d17 9C       		.byte	0x9c
 2708 0d18 3B0D0000 		.4byte	0xd3b
 2709 0d1c 28       		.uleb128 0x28
 2710 0d1d 74727000 		.ascii	"trp\000"
 2711 0d21 04       		.byte	0x4
 2712 0d22 D602     		.2byte	0x2d6
 2713 0d24 89080000 		.4byte	0x889
 2714 0d28 02       		.uleb128 0x2
 2715 0d29 91       		.byte	0x91
 2716 0d2a 74       		.sleb128 -12
 2717 0d2b 28       		.uleb128 0x28
 2718 0d2c 6D736700 		.ascii	"msg\000"
 2719 0d30 04       		.byte	0x4
 2720 0d31 D602     		.2byte	0x2d6
 2721 0d33 2C010000 		.4byte	0x12c
 2722 0d37 02       		.uleb128 0x2
 2723 0d38 91       		.byte	0x91
 2724 0d39 70       		.sleb128 -16
 2725 0d3a 00       		.byte	0
 2726 0d3b 25       		.uleb128 0x25
 2727 0d3c 27000000 		.4byte	.LASF200
 2728 0d40 04       		.byte	0x4
 2729 0d41 E502     		.2byte	0x2e5
 2730 0d43 00000000 		.4byte	.LFB260
 2731 0d47 16000000 		.4byte	.LFE260-.LFB260
 2732 0d4b 01       		.uleb128 0x1
 2733 0d4c 9C       		.byte	0x9c
 2734 0d4d 700D0000 		.4byte	0xd70
 2735 0d51 28       		.uleb128 0x28
 2736 0d52 74727000 		.ascii	"trp\000"
 2737 0d56 04       		.byte	0x4
 2738 0d57 E502     		.2byte	0x2e5
 2739 0d59 89080000 		.4byte	0x889
 2740 0d5d 02       		.uleb128 0x2
ARM GAS  /tmp/ccXqF3yr.s 			page 50


 2741 0d5e 91       		.byte	0x91
 2742 0d5f 74       		.sleb128 -12
 2743 0d60 28       		.uleb128 0x28
 2744 0d61 6D736700 		.ascii	"msg\000"
 2745 0d65 04       		.byte	0x4
 2746 0d66 E502     		.2byte	0x2e5
 2747 0d68 2C010000 		.4byte	0x12c
 2748 0d6c 02       		.uleb128 0x2
 2749 0d6d 91       		.byte	0x91
 2750 0d6e 70       		.sleb128 -16
 2751 0d6f 00       		.byte	0
 2752 0d70 25       		.uleb128 0x25
 2753 0d71 6F010000 		.4byte	.LASF201
 2754 0d75 04       		.byte	0x4
 2755 0d76 7403     		.2byte	0x374
 2756 0d78 00000000 		.4byte	.LFB268
 2757 0d7c 12000000 		.4byte	.LFE268-.LFB268
 2758 0d80 01       		.uleb128 0x1
 2759 0d81 9C       		.byte	0x9c
 2760 0d82 950D0000 		.4byte	0xd95
 2761 0d86 28       		.uleb128 0x28
 2762 0d87 6D7000   		.ascii	"mp\000"
 2763 0d8a 04       		.byte	0x4
 2764 0d8b 7403     		.2byte	0x374
 2765 0d8d 2F090000 		.4byte	0x92f
 2766 0d91 02       		.uleb128 0x2
 2767 0d92 91       		.byte	0x91
 2768 0d93 74       		.sleb128 -12
 2769 0d94 00       		.byte	0
 2770 0d95 25       		.uleb128 0x25
 2771 0d96 C5070000 		.4byte	.LASF202
 2772 0d9a 04       		.byte	0x4
 2773 0d9b 8803     		.2byte	0x388
 2774 0d9d 00000000 		.4byte	.LFB269
 2775 0da1 12000000 		.4byte	.LFE269-.LFB269
 2776 0da5 01       		.uleb128 0x1
 2777 0da6 9C       		.byte	0x9c
 2778 0da7 BA0D0000 		.4byte	0xdba
 2779 0dab 28       		.uleb128 0x28
 2780 0dac 6D7000   		.ascii	"mp\000"
 2781 0daf 04       		.byte	0x4
 2782 0db0 8803     		.2byte	0x388
 2783 0db2 2F090000 		.4byte	0x92f
 2784 0db6 02       		.uleb128 0x2
 2785 0db7 91       		.byte	0x91
 2786 0db8 74       		.sleb128 -12
 2787 0db9 00       		.byte	0
 2788 0dba 25       		.uleb128 0x25
 2789 0dbb 60070000 		.4byte	.LASF203
 2790 0dbf 04       		.byte	0x4
 2791 0dc0 A003     		.2byte	0x3a0
 2792 0dc2 00000000 		.4byte	.LFB270
 2793 0dc6 12000000 		.4byte	.LFE270-.LFB270
 2794 0dca 01       		.uleb128 0x1
 2795 0dcb 9C       		.byte	0x9c
 2796 0dcc DF0D0000 		.4byte	0xddf
 2797 0dd0 28       		.uleb128 0x28
ARM GAS  /tmp/ccXqF3yr.s 			page 51


 2798 0dd1 6D7000   		.ascii	"mp\000"
 2799 0dd4 04       		.byte	0x4
 2800 0dd5 A003     		.2byte	0x3a0
 2801 0dd7 2F090000 		.4byte	0x92f
 2802 0ddb 02       		.uleb128 0x2
 2803 0ddc 91       		.byte	0x91
 2804 0ddd 74       		.sleb128 -12
 2805 0dde 00       		.byte	0
 2806 0ddf 29       		.uleb128 0x29
 2807 0de0 C7040000 		.4byte	.LASF221
 2808 0de4 05       		.byte	0x5
 2809 0de5 38       		.byte	0x38
 2810 0de6 00000000 		.4byte	.LFB271
 2811 0dea 08000000 		.4byte	.LFE271-.LFB271
 2812 0dee 01       		.uleb128 0x1
 2813 0def 9C       		.byte	0x9c
 2814 0df0 2A       		.uleb128 0x2a
 2815 0df1 C1030000 		.4byte	.LASF205
 2816 0df5 05       		.byte	0x5
 2817 0df6 44       		.byte	0x44
 2818 0df7 00000000 		.4byte	.LFB272
 2819 0dfb 3A000000 		.4byte	.LFE272-.LFB272
 2820 0dff 01       		.uleb128 0x1
 2821 0e00 9C       		.byte	0x9c
 2822 0e01 140E0000 		.4byte	0xe14
 2823 0e05 2B       		.uleb128 0x2b
 2824 0e06 47090000 		.4byte	.LASF204
 2825 0e0a 05       		.byte	0x5
 2826 0e0b 44       		.byte	0x44
 2827 0e0c D40A0000 		.4byte	0xad4
 2828 0e10 02       		.uleb128 0x2
 2829 0e11 91       		.byte	0x91
 2830 0e12 74       		.sleb128 -12
 2831 0e13 00       		.byte	0
 2832 0e14 2A       		.uleb128 0x2a
 2833 0e15 3C080000 		.4byte	.LASF206
 2834 0e19 05       		.byte	0x5
 2835 0e1a 5F       		.byte	0x5f
 2836 0e1b 00000000 		.4byte	.LFB273
 2837 0e1f 50000000 		.4byte	.LFE273-.LFB273
 2838 0e23 01       		.uleb128 0x1
 2839 0e24 9C       		.byte	0x9c
 2840 0e25 550E0000 		.4byte	0xe55
 2841 0e29 2B       		.uleb128 0x2b
 2842 0e2a 47090000 		.4byte	.LASF204
 2843 0e2e 05       		.byte	0x5
 2844 0e2f 5F       		.byte	0x5f
 2845 0e30 D40A0000 		.4byte	0xad4
 2846 0e34 02       		.uleb128 0x2
 2847 0e35 91       		.byte	0x91
 2848 0e36 74       		.sleb128 -12
 2849 0e37 2B       		.uleb128 0x2b
 2850 0e38 59070000 		.4byte	.LASF171
 2851 0e3c 05       		.byte	0x5
 2852 0e3d 5F       		.byte	0x5f
 2853 0e3e CA0B0000 		.4byte	0xbca
 2854 0e42 02       		.uleb128 0x2
ARM GAS  /tmp/ccXqF3yr.s 			page 52


 2855 0e43 91       		.byte	0x91
 2856 0e44 70       		.sleb128 -16
 2857 0e45 26       		.uleb128 0x26
 2858 0e46 B9060000 		.4byte	.LASF207
 2859 0e4a 650E0000 		.4byte	0xe65
 2860 0e4e 05       		.uleb128 0x5
 2861 0e4f 03       		.byte	0x3
 2862 0e50 00000000 		.4byte	__func__.7147
 2863 0e54 00       		.byte	0
 2864 0e55 17       		.uleb128 0x17
 2865 0e56 FC080000 		.4byte	0x8fc
 2866 0e5a 650E0000 		.4byte	0xe65
 2867 0e5e 18       		.uleb128 0x18
 2868 0e5f CB040000 		.4byte	0x4cb
 2869 0e63 08       		.byte	0x8
 2870 0e64 00       		.byte	0
 2871 0e65 1B       		.uleb128 0x1b
 2872 0e66 550E0000 		.4byte	0xe55
 2873 0e6a 2A       		.uleb128 0x2a
 2874 0e6b 6E000000 		.4byte	.LASF208
 2875 0e6f 05       		.byte	0x5
 2876 0e70 73       		.byte	0x73
 2877 0e71 00000000 		.4byte	.LFB274
 2878 0e75 48000000 		.4byte	.LFE274-.LFB274
 2879 0e79 01       		.uleb128 0x1
 2880 0e7a 9C       		.byte	0x9c
 2881 0e7b 9D0E0000 		.4byte	0xe9d
 2882 0e7f 2B       		.uleb128 0x2b
 2883 0e80 47090000 		.4byte	.LASF204
 2884 0e84 05       		.byte	0x5
 2885 0e85 73       		.byte	0x73
 2886 0e86 D40A0000 		.4byte	0xad4
 2887 0e8a 02       		.uleb128 0x2
 2888 0e8b 91       		.byte	0x91
 2889 0e8c 74       		.sleb128 -12
 2890 0e8d 26       		.uleb128 0x26
 2891 0e8e B9060000 		.4byte	.LASF207
 2892 0e92 AD0E0000 		.4byte	0xead
 2893 0e96 05       		.uleb128 0x5
 2894 0e97 03       		.byte	0x3
 2895 0e98 00000000 		.4byte	__func__.7151
 2896 0e9c 00       		.byte	0
 2897 0e9d 17       		.uleb128 0x17
 2898 0e9e FC080000 		.4byte	0x8fc
 2899 0ea2 AD0E0000 		.4byte	0xead
 2900 0ea6 18       		.uleb128 0x18
 2901 0ea7 CB040000 		.4byte	0x4cb
 2902 0eab 07       		.byte	0x7
 2903 0eac 00       		.byte	0
 2904 0ead 1B       		.uleb128 0x1b
 2905 0eae 9D0E0000 		.4byte	0xe9d
 2906 0eb2 2A       		.uleb128 0x2a
 2907 0eb3 15080000 		.4byte	.LASF209
 2908 0eb7 05       		.byte	0x5
 2909 0eb8 8F       		.byte	0x8f
 2910 0eb9 00000000 		.4byte	.LFB275
 2911 0ebd 26000000 		.4byte	.LFE275-.LFB275
ARM GAS  /tmp/ccXqF3yr.s 			page 53


 2912 0ec1 01       		.uleb128 0x1
 2913 0ec2 9C       		.byte	0x9c
 2914 0ec3 000F0000 		.4byte	0xf00
 2915 0ec7 2B       		.uleb128 0x2b
 2916 0ec8 47090000 		.4byte	.LASF204
 2917 0ecc 05       		.byte	0x5
 2918 0ecd 8F       		.byte	0x8f
 2919 0ece D40A0000 		.4byte	0xad4
 2920 0ed2 02       		.uleb128 0x2
 2921 0ed3 91       		.byte	0x91
 2922 0ed4 74       		.sleb128 -12
 2923 0ed5 2B       		.uleb128 0x2b
 2924 0ed6 01050000 		.4byte	.LASF174
 2925 0eda 05       		.byte	0x5
 2926 0edb 90       		.byte	0x90
 2927 0edc D50B0000 		.4byte	0xbd5
 2928 0ee0 02       		.uleb128 0x2
 2929 0ee1 91       		.byte	0x91
 2930 0ee2 70       		.sleb128 -16
 2931 0ee3 2B       		.uleb128 0x2b
 2932 0ee4 18050000 		.4byte	.LASF172
 2933 0ee8 05       		.byte	0x5
 2934 0ee9 91       		.byte	0x91
 2935 0eea DA0A0000 		.4byte	0xada
 2936 0eee 02       		.uleb128 0x2
 2937 0eef 91       		.byte	0x91
 2938 0ef0 6C       		.sleb128 -20
 2939 0ef1 2B       		.uleb128 0x2b
 2940 0ef2 4E070000 		.4byte	.LASF173
 2941 0ef6 05       		.byte	0x5
 2942 0ef7 92       		.byte	0x92
 2943 0ef8 28000000 		.4byte	0x28
 2944 0efc 02       		.uleb128 0x2
 2945 0efd 91       		.byte	0x91
 2946 0efe 68       		.sleb128 -24
 2947 0eff 00       		.byte	0
 2948 0f00 2A       		.uleb128 0x2a
 2949 0f01 F4050000 		.4byte	.LASF210
 2950 0f05 05       		.byte	0x5
 2951 0f06 AB       		.byte	0xab
 2952 0f07 00000000 		.4byte	.LFB276
 2953 0f0b 80000000 		.4byte	.LFE276-.LFB276
 2954 0f0f 01       		.uleb128 0x1
 2955 0f10 9C       		.byte	0x9c
 2956 0f11 5D0F0000 		.4byte	0xf5d
 2957 0f15 2B       		.uleb128 0x2b
 2958 0f16 47090000 		.4byte	.LASF204
 2959 0f1a 05       		.byte	0x5
 2960 0f1b AB       		.byte	0xab
 2961 0f1c D40A0000 		.4byte	0xad4
 2962 0f20 02       		.uleb128 0x2
 2963 0f21 91       		.byte	0x91
 2964 0f22 74       		.sleb128 -12
 2965 0f23 2B       		.uleb128 0x2b
 2966 0f24 01050000 		.4byte	.LASF174
 2967 0f28 05       		.byte	0x5
 2968 0f29 AC       		.byte	0xac
ARM GAS  /tmp/ccXqF3yr.s 			page 54


 2969 0f2a D50B0000 		.4byte	0xbd5
 2970 0f2e 02       		.uleb128 0x2
 2971 0f2f 91       		.byte	0x91
 2972 0f30 70       		.sleb128 -16
 2973 0f31 2B       		.uleb128 0x2b
 2974 0f32 18050000 		.4byte	.LASF172
 2975 0f36 05       		.byte	0x5
 2976 0f37 AD       		.byte	0xad
 2977 0f38 DA0A0000 		.4byte	0xada
 2978 0f3c 02       		.uleb128 0x2
 2979 0f3d 91       		.byte	0x91
 2980 0f3e 6C       		.sleb128 -20
 2981 0f3f 2B       		.uleb128 0x2b
 2982 0f40 4E070000 		.4byte	.LASF173
 2983 0f44 05       		.byte	0x5
 2984 0f45 AE       		.byte	0xae
 2985 0f46 28000000 		.4byte	0x28
 2986 0f4a 02       		.uleb128 0x2
 2987 0f4b 91       		.byte	0x91
 2988 0f4c 68       		.sleb128 -24
 2989 0f4d 26       		.uleb128 0x26
 2990 0f4e B9060000 		.4byte	.LASF207
 2991 0f52 6D0F0000 		.4byte	0xf6d
 2992 0f56 05       		.uleb128 0x5
 2993 0f57 03       		.byte	0x3
 2994 0f58 00000000 		.4byte	__func__.7164
 2995 0f5c 00       		.byte	0
 2996 0f5d 17       		.uleb128 0x17
 2997 0f5e FC080000 		.4byte	0x8fc
 2998 0f62 6D0F0000 		.4byte	0xf6d
 2999 0f66 18       		.uleb128 0x18
 3000 0f67 CB040000 		.4byte	0x4cb
 3001 0f6b 13       		.byte	0x13
 3002 0f6c 00       		.byte	0
 3003 0f6d 1B       		.uleb128 0x1b
 3004 0f6e 5D0F0000 		.4byte	0xf5d
 3005 0f72 2A       		.uleb128 0x2a
 3006 0f73 4C090000 		.4byte	.LASF211
 3007 0f77 05       		.byte	0x5
 3008 0f78 C9       		.byte	0xc9
 3009 0f79 00000000 		.4byte	.LFB277
 3010 0f7d 64000000 		.4byte	.LFE277-.LFB277
 3011 0f81 01       		.uleb128 0x1
 3012 0f82 9C       		.byte	0x9c
 3013 0f83 A50F0000 		.4byte	0xfa5
 3014 0f87 2B       		.uleb128 0x2b
 3015 0f88 47090000 		.4byte	.LASF204
 3016 0f8c 05       		.byte	0x5
 3017 0f8d C9       		.byte	0xc9
 3018 0f8e D40A0000 		.4byte	0xad4
 3019 0f92 02       		.uleb128 0x2
 3020 0f93 91       		.byte	0x91
 3021 0f94 74       		.sleb128 -12
 3022 0f95 26       		.uleb128 0x26
 3023 0f96 B9060000 		.4byte	.LASF207
 3024 0f9a B50F0000 		.4byte	0xfb5
 3025 0f9e 05       		.uleb128 0x5
ARM GAS  /tmp/ccXqF3yr.s 			page 55


 3026 0f9f 03       		.byte	0x3
 3027 0fa0 00000000 		.4byte	__func__.7168
 3028 0fa4 00       		.byte	0
 3029 0fa5 17       		.uleb128 0x17
 3030 0fa6 FC080000 		.4byte	0x8fc
 3031 0faa B50F0000 		.4byte	0xfb5
 3032 0fae 18       		.uleb128 0x18
 3033 0faf CB040000 		.4byte	0x4cb
 3034 0fb3 11       		.byte	0x11
 3035 0fb4 00       		.byte	0
 3036 0fb5 1B       		.uleb128 0x1b
 3037 0fb6 A50F0000 		.4byte	0xfa5
 3038 0fba 2A       		.uleb128 0x2a
 3039 0fbb A4080000 		.4byte	.LASF212
 3040 0fbf 05       		.byte	0x5
 3041 0fc0 E3       		.byte	0xe3
 3042 0fc1 00000000 		.4byte	.LFB278
 3043 0fc5 68000000 		.4byte	.LFE278-.LFB278
 3044 0fc9 01       		.uleb128 0x1
 3045 0fca 9C       		.byte	0x9c
 3046 0fcb ED0F0000 		.4byte	0xfed
 3047 0fcf 2B       		.uleb128 0x2b
 3048 0fd0 47090000 		.4byte	.LASF204
 3049 0fd4 05       		.byte	0x5
 3050 0fd5 E3       		.byte	0xe3
 3051 0fd6 D40A0000 		.4byte	0xad4
 3052 0fda 02       		.uleb128 0x2
 3053 0fdb 91       		.byte	0x91
 3054 0fdc 74       		.sleb128 -12
 3055 0fdd 26       		.uleb128 0x26
 3056 0fde B9060000 		.4byte	.LASF207
 3057 0fe2 FD0F0000 		.4byte	0xffd
 3058 0fe6 05       		.uleb128 0x5
 3059 0fe7 03       		.byte	0x3
 3060 0fe8 00000000 		.4byte	__func__.7172
 3061 0fec 00       		.byte	0
 3062 0fed 17       		.uleb128 0x17
 3063 0fee FC080000 		.4byte	0x8fc
 3064 0ff2 FD0F0000 		.4byte	0xffd
 3065 0ff6 18       		.uleb128 0x18
 3066 0ff7 CB040000 		.4byte	0x4cb
 3067 0ffb 12       		.byte	0x12
 3068 0ffc 00       		.byte	0
 3069 0ffd 1B       		.uleb128 0x1b
 3070 0ffe ED0F0000 		.4byte	0xfed
 3071 1002 2C       		.uleb128 0x2c
 3072 1003 24030000 		.4byte	.LASF222
 3073 1007 05       		.byte	0x5
 3074 1008 0C01     		.2byte	0x10c
 3075 100a 2C010000 		.4byte	0x12c
 3076 100e 00000000 		.4byte	.LFB279
 3077 1012 48000000 		.4byte	.LFE279-.LFB279
 3078 1016 01       		.uleb128 0x1
 3079 1017 9C       		.byte	0x9c
 3080 1018 77100000 		.4byte	0x1077
 3081 101c 2D       		.uleb128 0x2d
 3082 101d 47090000 		.4byte	.LASF204
ARM GAS  /tmp/ccXqF3yr.s 			page 56


 3083 1021 05       		.byte	0x5
 3084 1022 0C01     		.2byte	0x10c
 3085 1024 D40A0000 		.4byte	0xad4
 3086 1028 02       		.uleb128 0x2
 3087 1029 91       		.byte	0x91
 3088 102a 6C       		.sleb128 -20
 3089 102b 2D       		.uleb128 0x2d
 3090 102c 01050000 		.4byte	.LASF174
 3091 1030 05       		.byte	0x5
 3092 1031 0D01     		.2byte	0x10d
 3093 1033 D50B0000 		.4byte	0xbd5
 3094 1037 02       		.uleb128 0x2
 3095 1038 91       		.byte	0x91
 3096 1039 68       		.sleb128 -24
 3097 103a 2D       		.uleb128 0x2d
 3098 103b 18050000 		.4byte	.LASF172
 3099 103f 05       		.byte	0x5
 3100 1040 0E01     		.2byte	0x10e
 3101 1042 DA0A0000 		.4byte	0xada
 3102 1046 02       		.uleb128 0x2
 3103 1047 91       		.byte	0x91
 3104 1048 64       		.sleb128 -28
 3105 1049 2D       		.uleb128 0x2d
 3106 104a 4E070000 		.4byte	.LASF173
 3107 104e 05       		.byte	0x5
 3108 104f 0F01     		.2byte	0x10f
 3109 1051 28000000 		.4byte	0x28
 3110 1055 02       		.uleb128 0x2
 3111 1056 91       		.byte	0x91
 3112 1057 60       		.sleb128 -32
 3113 1058 2E       		.uleb128 0x2e
 3114 1059 6D736700 		.ascii	"msg\000"
 3115 105d 05       		.byte	0x5
 3116 105e 1001     		.2byte	0x110
 3117 1060 2C010000 		.4byte	0x12c
 3118 1064 02       		.uleb128 0x2
 3119 1065 91       		.byte	0x91
 3120 1066 74       		.sleb128 -12
 3121 1067 26       		.uleb128 0x26
 3122 1068 B9060000 		.4byte	.LASF207
 3123 106c 87100000 		.4byte	0x1087
 3124 1070 05       		.uleb128 0x5
 3125 1071 03       		.byte	0x3
 3126 1072 00000000 		.4byte	__func__.7180
 3127 1076 00       		.byte	0
 3128 1077 17       		.uleb128 0x17
 3129 1078 FC080000 		.4byte	0x8fc
 3130 107c 87100000 		.4byte	0x1087
 3131 1080 18       		.uleb128 0x18
 3132 1081 CB040000 		.4byte	0x4cb
 3133 1085 0A       		.byte	0xa
 3134 1086 00       		.byte	0
 3135 1087 1B       		.uleb128 0x1b
 3136 1088 77100000 		.4byte	0x1077
 3137 108c 2F       		.uleb128 0x2f
 3138 108d 71090000 		.4byte	.LASF213
 3139 1091 05       		.byte	0x5
ARM GAS  /tmp/ccXqF3yr.s 			page 57


 3140 1092 2701     		.2byte	0x127
 3141 1094 00000000 		.4byte	.LFB280
 3142 1098 28000000 		.4byte	.LFE280-.LFB280
 3143 109c 01       		.uleb128 0x1
 3144 109d 9C       		.byte	0x9c
 3145 109e C1100000 		.4byte	0x10c1
 3146 10a2 2D       		.uleb128 0x2d
 3147 10a3 47090000 		.4byte	.LASF204
 3148 10a7 05       		.byte	0x5
 3149 10a8 2701     		.2byte	0x127
 3150 10aa D40A0000 		.4byte	0xad4
 3151 10ae 02       		.uleb128 0x2
 3152 10af 91       		.byte	0x91
 3153 10b0 74       		.sleb128 -12
 3154 10b1 26       		.uleb128 0x26
 3155 10b2 B9060000 		.4byte	.LASF207
 3156 10b6 D1100000 		.4byte	0x10d1
 3157 10ba 05       		.uleb128 0x5
 3158 10bb 03       		.byte	0x3
 3159 10bc 00000000 		.4byte	__func__.7184
 3160 10c0 00       		.byte	0
 3161 10c1 17       		.uleb128 0x17
 3162 10c2 FC080000 		.4byte	0x8fc
 3163 10c6 D1100000 		.4byte	0x10d1
 3164 10ca 18       		.uleb128 0x18
 3165 10cb CB040000 		.4byte	0x4cb
 3166 10cf 0D       		.byte	0xd
 3167 10d0 00       		.byte	0
 3168 10d1 1B       		.uleb128 0x1b
 3169 10d2 C1100000 		.4byte	0x10c1
 3170 10d6 2F       		.uleb128 0x2f
 3171 10d7 CF040000 		.4byte	.LASF214
 3172 10db 05       		.byte	0x5
 3173 10dc 3701     		.2byte	0x137
 3174 10de 00000000 		.4byte	.LFB281
 3175 10e2 28000000 		.4byte	.LFE281-.LFB281
 3176 10e6 01       		.uleb128 0x1
 3177 10e7 9C       		.byte	0x9c
 3178 10e8 0B110000 		.4byte	0x110b
 3179 10ec 2D       		.uleb128 0x2d
 3180 10ed 47090000 		.4byte	.LASF204
 3181 10f1 05       		.byte	0x5
 3182 10f2 3701     		.2byte	0x137
 3183 10f4 D40A0000 		.4byte	0xad4
 3184 10f8 02       		.uleb128 0x2
 3185 10f9 91       		.byte	0x91
 3186 10fa 74       		.sleb128 -12
 3187 10fb 26       		.uleb128 0x26
 3188 10fc B9060000 		.4byte	.LASF207
 3189 1100 0B110000 		.4byte	0x110b
 3190 1104 05       		.uleb128 0x5
 3191 1105 03       		.byte	0x3
 3192 1106 00000000 		.4byte	__func__.7188
 3193 110a 00       		.byte	0
 3194 110b 1B       		.uleb128 0x1b
 3195 110c C1100000 		.4byte	0x10c1
 3196 1110 30       		.uleb128 0x30
ARM GAS  /tmp/ccXqF3yr.s 			page 58


 3197 1111 4D010000 		.4byte	.LASF215
 3198 1115 16       		.byte	0x16
 3199 1116 FA06     		.2byte	0x6fa
 3200 1118 E0000000 		.4byte	0xe0
 3201 111c 31       		.uleb128 0x31
 3202 111d 636800   		.ascii	"ch\000"
 3203 1120 0B       		.byte	0xb
 3204 1121 0902     		.2byte	0x209
 3205 1123 53040000 		.4byte	0x453
 3206 1127 00       		.byte	0
 3207              		.section	.debug_abbrev,"",%progbits
 3208              	.Ldebug_abbrev0:
 3209 0000 01       		.uleb128 0x1
 3210 0001 11       		.uleb128 0x11
 3211 0002 01       		.byte	0x1
 3212 0003 25       		.uleb128 0x25
 3213 0004 0E       		.uleb128 0xe
 3214 0005 13       		.uleb128 0x13
 3215 0006 0B       		.uleb128 0xb
 3216 0007 03       		.uleb128 0x3
 3217 0008 0E       		.uleb128 0xe
 3218 0009 55       		.uleb128 0x55
 3219 000a 17       		.uleb128 0x17
 3220 000b 11       		.uleb128 0x11
 3221 000c 01       		.uleb128 0x1
 3222 000d 10       		.uleb128 0x10
 3223 000e 17       		.uleb128 0x17
 3224 000f 00       		.byte	0
 3225 0010 00       		.byte	0
 3226 0011 02       		.uleb128 0x2
 3227 0012 24       		.uleb128 0x24
 3228 0013 00       		.byte	0
 3229 0014 0B       		.uleb128 0xb
 3230 0015 0B       		.uleb128 0xb
 3231 0016 3E       		.uleb128 0x3e
 3232 0017 0B       		.uleb128 0xb
 3233 0018 03       		.uleb128 0x3
 3234 0019 08       		.uleb128 0x8
 3235 001a 00       		.byte	0
 3236 001b 00       		.byte	0
 3237 001c 03       		.uleb128 0x3
 3238 001d 16       		.uleb128 0x16
 3239 001e 00       		.byte	0
 3240 001f 03       		.uleb128 0x3
 3241 0020 0E       		.uleb128 0xe
 3242 0021 3A       		.uleb128 0x3a
 3243 0022 0B       		.uleb128 0xb
 3244 0023 3B       		.uleb128 0x3b
 3245 0024 0B       		.uleb128 0xb
 3246 0025 49       		.uleb128 0x49
 3247 0026 13       		.uleb128 0x13
 3248 0027 00       		.byte	0
 3249 0028 00       		.byte	0
 3250 0029 04       		.uleb128 0x4
 3251 002a 24       		.uleb128 0x24
 3252 002b 00       		.byte	0
 3253 002c 0B       		.uleb128 0xb
ARM GAS  /tmp/ccXqF3yr.s 			page 59


 3254 002d 0B       		.uleb128 0xb
 3255 002e 3E       		.uleb128 0x3e
 3256 002f 0B       		.uleb128 0xb
 3257 0030 03       		.uleb128 0x3
 3258 0031 0E       		.uleb128 0xe
 3259 0032 00       		.byte	0
 3260 0033 00       		.byte	0
 3261 0034 05       		.uleb128 0x5
 3262 0035 35       		.uleb128 0x35
 3263 0036 00       		.byte	0
 3264 0037 49       		.uleb128 0x49
 3265 0038 13       		.uleb128 0x13
 3266 0039 00       		.byte	0
 3267 003a 00       		.byte	0
 3268 003b 06       		.uleb128 0x6
 3269 003c 13       		.uleb128 0x13
 3270 003d 01       		.byte	0x1
 3271 003e 03       		.uleb128 0x3
 3272 003f 0E       		.uleb128 0xe
 3273 0040 0B       		.uleb128 0xb
 3274 0041 0B       		.uleb128 0xb
 3275 0042 3A       		.uleb128 0x3a
 3276 0043 0B       		.uleb128 0xb
 3277 0044 3B       		.uleb128 0x3b
 3278 0045 0B       		.uleb128 0xb
 3279 0046 01       		.uleb128 0x1
 3280 0047 13       		.uleb128 0x13
 3281 0048 00       		.byte	0
 3282 0049 00       		.byte	0
 3283 004a 07       		.uleb128 0x7
 3284 004b 0D       		.uleb128 0xd
 3285 004c 00       		.byte	0
 3286 004d 03       		.uleb128 0x3
 3287 004e 0E       		.uleb128 0xe
 3288 004f 3A       		.uleb128 0x3a
 3289 0050 0B       		.uleb128 0xb
 3290 0051 3B       		.uleb128 0x3b
 3291 0052 0B       		.uleb128 0xb
 3292 0053 49       		.uleb128 0x49
 3293 0054 13       		.uleb128 0x13
 3294 0055 38       		.uleb128 0x38
 3295 0056 0B       		.uleb128 0xb
 3296 0057 00       		.byte	0
 3297 0058 00       		.byte	0
 3298 0059 08       		.uleb128 0x8
 3299 005a 0D       		.uleb128 0xd
 3300 005b 00       		.byte	0
 3301 005c 03       		.uleb128 0x3
 3302 005d 08       		.uleb128 0x8
 3303 005e 3A       		.uleb128 0x3a
 3304 005f 0B       		.uleb128 0xb
 3305 0060 3B       		.uleb128 0x3b
 3306 0061 05       		.uleb128 0x5
 3307 0062 49       		.uleb128 0x49
 3308 0063 13       		.uleb128 0x13
 3309 0064 38       		.uleb128 0x38
 3310 0065 0B       		.uleb128 0xb
ARM GAS  /tmp/ccXqF3yr.s 			page 60


 3311 0066 00       		.byte	0
 3312 0067 00       		.byte	0
 3313 0068 09       		.uleb128 0x9
 3314 0069 0D       		.uleb128 0xd
 3315 006a 00       		.byte	0
 3316 006b 03       		.uleb128 0x3
 3317 006c 0E       		.uleb128 0xe
 3318 006d 3A       		.uleb128 0x3a
 3319 006e 0B       		.uleb128 0xb
 3320 006f 3B       		.uleb128 0x3b
 3321 0070 05       		.uleb128 0x5
 3322 0071 49       		.uleb128 0x49
 3323 0072 13       		.uleb128 0x13
 3324 0073 38       		.uleb128 0x38
 3325 0074 0B       		.uleb128 0xb
 3326 0075 00       		.byte	0
 3327 0076 00       		.byte	0
 3328 0077 0A       		.uleb128 0xa
 3329 0078 0F       		.uleb128 0xf
 3330 0079 00       		.byte	0
 3331 007a 0B       		.uleb128 0xb
 3332 007b 0B       		.uleb128 0xb
 3333 007c 49       		.uleb128 0x49
 3334 007d 13       		.uleb128 0x13
 3335 007e 00       		.byte	0
 3336 007f 00       		.byte	0
 3337 0080 0B       		.uleb128 0xb
 3338 0081 13       		.uleb128 0x13
 3339 0082 01       		.byte	0x1
 3340 0083 03       		.uleb128 0x3
 3341 0084 0E       		.uleb128 0xe
 3342 0085 0B       		.uleb128 0xb
 3343 0086 0B       		.uleb128 0xb
 3344 0087 3A       		.uleb128 0x3a
 3345 0088 0B       		.uleb128 0xb
 3346 0089 3B       		.uleb128 0x3b
 3347 008a 05       		.uleb128 0x5
 3348 008b 01       		.uleb128 0x1
 3349 008c 13       		.uleb128 0x13
 3350 008d 00       		.byte	0
 3351 008e 00       		.byte	0
 3352 008f 0C       		.uleb128 0xc
 3353 0090 15       		.uleb128 0x15
 3354 0091 01       		.byte	0x1
 3355 0092 27       		.uleb128 0x27
 3356 0093 19       		.uleb128 0x19
 3357 0094 01       		.uleb128 0x1
 3358 0095 13       		.uleb128 0x13
 3359 0096 00       		.byte	0
 3360 0097 00       		.byte	0
 3361 0098 0D       		.uleb128 0xd
 3362 0099 05       		.uleb128 0x5
 3363 009a 00       		.byte	0
 3364 009b 49       		.uleb128 0x49
 3365 009c 13       		.uleb128 0x13
 3366 009d 00       		.byte	0
 3367 009e 00       		.byte	0
ARM GAS  /tmp/ccXqF3yr.s 			page 61


 3368 009f 0E       		.uleb128 0xe
 3369 00a0 0F       		.uleb128 0xf
 3370 00a1 00       		.byte	0
 3371 00a2 0B       		.uleb128 0xb
 3372 00a3 0B       		.uleb128 0xb
 3373 00a4 00       		.byte	0
 3374 00a5 00       		.byte	0
 3375 00a6 0F       		.uleb128 0xf
 3376 00a7 13       		.uleb128 0x13
 3377 00a8 01       		.byte	0x1
 3378 00a9 03       		.uleb128 0x3
 3379 00aa 0E       		.uleb128 0xe
 3380 00ab 0B       		.uleb128 0xb
 3381 00ac 05       		.uleb128 0x5
 3382 00ad 3A       		.uleb128 0x3a
 3383 00ae 0B       		.uleb128 0xb
 3384 00af 3B       		.uleb128 0x3b
 3385 00b0 05       		.uleb128 0x5
 3386 00b1 01       		.uleb128 0x1
 3387 00b2 13       		.uleb128 0x13
 3388 00b3 00       		.byte	0
 3389 00b4 00       		.byte	0
 3390 00b5 10       		.uleb128 0x10
 3391 00b6 0D       		.uleb128 0xd
 3392 00b7 00       		.byte	0
 3393 00b8 03       		.uleb128 0x3
 3394 00b9 0E       		.uleb128 0xe
 3395 00ba 3A       		.uleb128 0x3a
 3396 00bb 0B       		.uleb128 0xb
 3397 00bc 3B       		.uleb128 0x3b
 3398 00bd 05       		.uleb128 0x5
 3399 00be 49       		.uleb128 0x49
 3400 00bf 13       		.uleb128 0x13
 3401 00c0 38       		.uleb128 0x38
 3402 00c1 05       		.uleb128 0x5
 3403 00c2 00       		.byte	0
 3404 00c3 00       		.byte	0
 3405 00c4 11       		.uleb128 0x11
 3406 00c5 0D       		.uleb128 0xd
 3407 00c6 00       		.byte	0
 3408 00c7 03       		.uleb128 0x3
 3409 00c8 08       		.uleb128 0x8
 3410 00c9 3A       		.uleb128 0x3a
 3411 00ca 0B       		.uleb128 0xb
 3412 00cb 3B       		.uleb128 0x3b
 3413 00cc 05       		.uleb128 0x5
 3414 00cd 49       		.uleb128 0x49
 3415 00ce 13       		.uleb128 0x13
 3416 00cf 38       		.uleb128 0x38
 3417 00d0 05       		.uleb128 0x5
 3418 00d1 00       		.byte	0
 3419 00d2 00       		.byte	0
 3420 00d3 12       		.uleb128 0x12
 3421 00d4 13       		.uleb128 0x13
 3422 00d5 01       		.byte	0x1
 3423 00d6 0B       		.uleb128 0xb
 3424 00d7 0B       		.uleb128 0xb
ARM GAS  /tmp/ccXqF3yr.s 			page 62


 3425 00d8 3A       		.uleb128 0x3a
 3426 00d9 0B       		.uleb128 0xb
 3427 00da 3B       		.uleb128 0x3b
 3428 00db 0B       		.uleb128 0xb
 3429 00dc 01       		.uleb128 0x1
 3430 00dd 13       		.uleb128 0x13
 3431 00de 00       		.byte	0
 3432 00df 00       		.byte	0
 3433 00e0 13       		.uleb128 0x13
 3434 00e1 0D       		.uleb128 0xd
 3435 00e2 00       		.byte	0
 3436 00e3 03       		.uleb128 0x3
 3437 00e4 08       		.uleb128 0x8
 3438 00e5 3A       		.uleb128 0x3a
 3439 00e6 0B       		.uleb128 0xb
 3440 00e7 3B       		.uleb128 0x3b
 3441 00e8 0B       		.uleb128 0xb
 3442 00e9 49       		.uleb128 0x49
 3443 00ea 13       		.uleb128 0x13
 3444 00eb 38       		.uleb128 0x38
 3445 00ec 0B       		.uleb128 0xb
 3446 00ed 00       		.byte	0
 3447 00ee 00       		.byte	0
 3448 00ef 14       		.uleb128 0x14
 3449 00f0 13       		.uleb128 0x13
 3450 00f1 01       		.byte	0x1
 3451 00f2 0B       		.uleb128 0xb
 3452 00f3 0B       		.uleb128 0xb
 3453 00f4 3A       		.uleb128 0x3a
 3454 00f5 0B       		.uleb128 0xb
 3455 00f6 3B       		.uleb128 0x3b
 3456 00f7 05       		.uleb128 0x5
 3457 00f8 01       		.uleb128 0x1
 3458 00f9 13       		.uleb128 0x13
 3459 00fa 00       		.byte	0
 3460 00fb 00       		.byte	0
 3461 00fc 15       		.uleb128 0x15
 3462 00fd 16       		.uleb128 0x16
 3463 00fe 00       		.byte	0
 3464 00ff 03       		.uleb128 0x3
 3465 0100 0E       		.uleb128 0xe
 3466 0101 3A       		.uleb128 0x3a
 3467 0102 0B       		.uleb128 0xb
 3468 0103 3B       		.uleb128 0x3b
 3469 0104 05       		.uleb128 0x5
 3470 0105 49       		.uleb128 0x49
 3471 0106 13       		.uleb128 0x13
 3472 0107 00       		.byte	0
 3473 0108 00       		.byte	0
 3474 0109 16       		.uleb128 0x16
 3475 010a 13       		.uleb128 0x13
 3476 010b 01       		.byte	0x1
 3477 010c 0B       		.uleb128 0xb
 3478 010d 05       		.uleb128 0x5
 3479 010e 3A       		.uleb128 0x3a
 3480 010f 0B       		.uleb128 0xb
 3481 0110 3B       		.uleb128 0x3b
ARM GAS  /tmp/ccXqF3yr.s 			page 63


 3482 0111 0B       		.uleb128 0xb
 3483 0112 01       		.uleb128 0x1
 3484 0113 13       		.uleb128 0x13
 3485 0114 00       		.byte	0
 3486 0115 00       		.byte	0
 3487 0116 17       		.uleb128 0x17
 3488 0117 01       		.uleb128 0x1
 3489 0118 01       		.byte	0x1
 3490 0119 49       		.uleb128 0x49
 3491 011a 13       		.uleb128 0x13
 3492 011b 01       		.uleb128 0x1
 3493 011c 13       		.uleb128 0x13
 3494 011d 00       		.byte	0
 3495 011e 00       		.byte	0
 3496 011f 18       		.uleb128 0x18
 3497 0120 21       		.uleb128 0x21
 3498 0121 00       		.byte	0
 3499 0122 49       		.uleb128 0x49
 3500 0123 13       		.uleb128 0x13
 3501 0124 2F       		.uleb128 0x2f
 3502 0125 0B       		.uleb128 0xb
 3503 0126 00       		.byte	0
 3504 0127 00       		.byte	0
 3505 0128 19       		.uleb128 0x19
 3506 0129 17       		.uleb128 0x17
 3507 012a 01       		.byte	0x1
 3508 012b 0B       		.uleb128 0xb
 3509 012c 0B       		.uleb128 0xb
 3510 012d 3A       		.uleb128 0x3a
 3511 012e 0B       		.uleb128 0xb
 3512 012f 3B       		.uleb128 0x3b
 3513 0130 0B       		.uleb128 0xb
 3514 0131 01       		.uleb128 0x1
 3515 0132 13       		.uleb128 0x13
 3516 0133 00       		.byte	0
 3517 0134 00       		.byte	0
 3518 0135 1A       		.uleb128 0x1a
 3519 0136 0D       		.uleb128 0xd
 3520 0137 00       		.byte	0
 3521 0138 03       		.uleb128 0x3
 3522 0139 0E       		.uleb128 0xe
 3523 013a 3A       		.uleb128 0x3a
 3524 013b 0B       		.uleb128 0xb
 3525 013c 3B       		.uleb128 0x3b
 3526 013d 05       		.uleb128 0x5
 3527 013e 49       		.uleb128 0x49
 3528 013f 13       		.uleb128 0x13
 3529 0140 00       		.byte	0
 3530 0141 00       		.byte	0
 3531 0142 1B       		.uleb128 0x1b
 3532 0143 26       		.uleb128 0x26
 3533 0144 00       		.byte	0
 3534 0145 49       		.uleb128 0x49
 3535 0146 13       		.uleb128 0x13
 3536 0147 00       		.byte	0
 3537 0148 00       		.byte	0
 3538 0149 1C       		.uleb128 0x1c
ARM GAS  /tmp/ccXqF3yr.s 			page 64


 3539 014a 04       		.uleb128 0x4
 3540 014b 01       		.byte	0x1
 3541 014c 0B       		.uleb128 0xb
 3542 014d 0B       		.uleb128 0xb
 3543 014e 3A       		.uleb128 0x3a
 3544 014f 0B       		.uleb128 0xb
 3545 0150 3B       		.uleb128 0x3b
 3546 0151 0B       		.uleb128 0xb
 3547 0152 01       		.uleb128 0x1
 3548 0153 13       		.uleb128 0x13
 3549 0154 00       		.byte	0
 3550 0155 00       		.byte	0
 3551 0156 1D       		.uleb128 0x1d
 3552 0157 28       		.uleb128 0x28
 3553 0158 00       		.byte	0
 3554 0159 03       		.uleb128 0x3
 3555 015a 0E       		.uleb128 0xe
 3556 015b 1C       		.uleb128 0x1c
 3557 015c 0D       		.uleb128 0xd
 3558 015d 00       		.byte	0
 3559 015e 00       		.byte	0
 3560 015f 1E       		.uleb128 0x1e
 3561 0160 04       		.uleb128 0x4
 3562 0161 01       		.byte	0x1
 3563 0162 0B       		.uleb128 0xb
 3564 0163 0B       		.uleb128 0xb
 3565 0164 3A       		.uleb128 0x3a
 3566 0165 0B       		.uleb128 0xb
 3567 0166 3B       		.uleb128 0x3b
 3568 0167 05       		.uleb128 0x5
 3569 0168 01       		.uleb128 0x1
 3570 0169 13       		.uleb128 0x13
 3571 016a 00       		.byte	0
 3572 016b 00       		.byte	0
 3573 016c 1F       		.uleb128 0x1f
 3574 016d 2E       		.uleb128 0x2e
 3575 016e 01       		.byte	0x1
 3576 016f 03       		.uleb128 0x3
 3577 0170 0E       		.uleb128 0xe
 3578 0171 3A       		.uleb128 0x3a
 3579 0172 0B       		.uleb128 0xb
 3580 0173 3B       		.uleb128 0x3b
 3581 0174 05       		.uleb128 0x5
 3582 0175 27       		.uleb128 0x27
 3583 0176 19       		.uleb128 0x19
 3584 0177 20       		.uleb128 0x20
 3585 0178 0B       		.uleb128 0xb
 3586 0179 01       		.uleb128 0x1
 3587 017a 13       		.uleb128 0x13
 3588 017b 00       		.byte	0
 3589 017c 00       		.byte	0
 3590 017d 20       		.uleb128 0x20
 3591 017e 05       		.uleb128 0x5
 3592 017f 00       		.byte	0
 3593 0180 03       		.uleb128 0x3
 3594 0181 0E       		.uleb128 0xe
 3595 0182 3A       		.uleb128 0x3a
ARM GAS  /tmp/ccXqF3yr.s 			page 65


 3596 0183 0B       		.uleb128 0xb
 3597 0184 3B       		.uleb128 0x3b
 3598 0185 05       		.uleb128 0x5
 3599 0186 49       		.uleb128 0x49
 3600 0187 13       		.uleb128 0x13
 3601 0188 00       		.byte	0
 3602 0189 00       		.byte	0
 3603 018a 21       		.uleb128 0x21
 3604 018b 2E       		.uleb128 0x2e
 3605 018c 01       		.byte	0x1
 3606 018d 03       		.uleb128 0x3
 3607 018e 0E       		.uleb128 0xe
 3608 018f 3A       		.uleb128 0x3a
 3609 0190 0B       		.uleb128 0xb
 3610 0191 3B       		.uleb128 0x3b
 3611 0192 05       		.uleb128 0x5
 3612 0193 27       		.uleb128 0x27
 3613 0194 19       		.uleb128 0x19
 3614 0195 11       		.uleb128 0x11
 3615 0196 01       		.uleb128 0x1
 3616 0197 12       		.uleb128 0x12
 3617 0198 06       		.uleb128 0x6
 3618 0199 40       		.uleb128 0x40
 3619 019a 18       		.uleb128 0x18
 3620 019b 9742     		.uleb128 0x2117
 3621 019d 19       		.uleb128 0x19
 3622 019e 01       		.uleb128 0x1
 3623 019f 13       		.uleb128 0x13
 3624 01a0 00       		.byte	0
 3625 01a1 00       		.byte	0
 3626 01a2 22       		.uleb128 0x22
 3627 01a3 1D       		.uleb128 0x1d
 3628 01a4 01       		.byte	0x1
 3629 01a5 31       		.uleb128 0x31
 3630 01a6 13       		.uleb128 0x13
 3631 01a7 11       		.uleb128 0x11
 3632 01a8 01       		.uleb128 0x1
 3633 01a9 12       		.uleb128 0x12
 3634 01aa 06       		.uleb128 0x6
 3635 01ab 58       		.uleb128 0x58
 3636 01ac 0B       		.uleb128 0xb
 3637 01ad 59       		.uleb128 0x59
 3638 01ae 05       		.uleb128 0x5
 3639 01af 00       		.byte	0
 3640 01b0 00       		.byte	0
 3641 01b1 23       		.uleb128 0x23
 3642 01b2 05       		.uleb128 0x5
 3643 01b3 00       		.byte	0
 3644 01b4 31       		.uleb128 0x31
 3645 01b5 13       		.uleb128 0x13
 3646 01b6 02       		.uleb128 0x2
 3647 01b7 18       		.uleb128 0x18
 3648 01b8 00       		.byte	0
 3649 01b9 00       		.byte	0
 3650 01ba 24       		.uleb128 0x24
 3651 01bb 2E       		.uleb128 0x2e
 3652 01bc 00       		.byte	0
ARM GAS  /tmp/ccXqF3yr.s 			page 66


 3653 01bd 03       		.uleb128 0x3
 3654 01be 0E       		.uleb128 0xe
 3655 01bf 3A       		.uleb128 0x3a
 3656 01c0 0B       		.uleb128 0xb
 3657 01c1 3B       		.uleb128 0x3b
 3658 01c2 05       		.uleb128 0x5
 3659 01c3 27       		.uleb128 0x27
 3660 01c4 19       		.uleb128 0x19
 3661 01c5 11       		.uleb128 0x11
 3662 01c6 01       		.uleb128 0x1
 3663 01c7 12       		.uleb128 0x12
 3664 01c8 06       		.uleb128 0x6
 3665 01c9 40       		.uleb128 0x40
 3666 01ca 18       		.uleb128 0x18
 3667 01cb 9642     		.uleb128 0x2116
 3668 01cd 19       		.uleb128 0x19
 3669 01ce 00       		.byte	0
 3670 01cf 00       		.byte	0
 3671 01d0 25       		.uleb128 0x25
 3672 01d1 2E       		.uleb128 0x2e
 3673 01d2 01       		.byte	0x1
 3674 01d3 03       		.uleb128 0x3
 3675 01d4 0E       		.uleb128 0xe
 3676 01d5 3A       		.uleb128 0x3a
 3677 01d6 0B       		.uleb128 0xb
 3678 01d7 3B       		.uleb128 0x3b
 3679 01d8 05       		.uleb128 0x5
 3680 01d9 27       		.uleb128 0x27
 3681 01da 19       		.uleb128 0x19
 3682 01db 11       		.uleb128 0x11
 3683 01dc 01       		.uleb128 0x1
 3684 01dd 12       		.uleb128 0x12
 3685 01de 06       		.uleb128 0x6
 3686 01df 40       		.uleb128 0x40
 3687 01e0 18       		.uleb128 0x18
 3688 01e1 9642     		.uleb128 0x2116
 3689 01e3 19       		.uleb128 0x19
 3690 01e4 01       		.uleb128 0x1
 3691 01e5 13       		.uleb128 0x13
 3692 01e6 00       		.byte	0
 3693 01e7 00       		.byte	0
 3694 01e8 26       		.uleb128 0x26
 3695 01e9 34       		.uleb128 0x34
 3696 01ea 00       		.byte	0
 3697 01eb 03       		.uleb128 0x3
 3698 01ec 0E       		.uleb128 0xe
 3699 01ed 49       		.uleb128 0x49
 3700 01ee 13       		.uleb128 0x13
 3701 01ef 34       		.uleb128 0x34
 3702 01f0 19       		.uleb128 0x19
 3703 01f1 02       		.uleb128 0x2
 3704 01f2 18       		.uleb128 0x18
 3705 01f3 00       		.byte	0
 3706 01f4 00       		.byte	0
 3707 01f5 27       		.uleb128 0x27
 3708 01f6 2E       		.uleb128 0x2e
 3709 01f7 01       		.byte	0x1
ARM GAS  /tmp/ccXqF3yr.s 			page 67


 3710 01f8 03       		.uleb128 0x3
 3711 01f9 0E       		.uleb128 0xe
 3712 01fa 3A       		.uleb128 0x3a
 3713 01fb 0B       		.uleb128 0xb
 3714 01fc 3B       		.uleb128 0x3b
 3715 01fd 05       		.uleb128 0x5
 3716 01fe 27       		.uleb128 0x27
 3717 01ff 19       		.uleb128 0x19
 3718 0200 49       		.uleb128 0x49
 3719 0201 13       		.uleb128 0x13
 3720 0202 11       		.uleb128 0x11
 3721 0203 01       		.uleb128 0x1
 3722 0204 12       		.uleb128 0x12
 3723 0205 06       		.uleb128 0x6
 3724 0206 40       		.uleb128 0x40
 3725 0207 18       		.uleb128 0x18
 3726 0208 9642     		.uleb128 0x2116
 3727 020a 19       		.uleb128 0x19
 3728 020b 01       		.uleb128 0x1
 3729 020c 13       		.uleb128 0x13
 3730 020d 00       		.byte	0
 3731 020e 00       		.byte	0
 3732 020f 28       		.uleb128 0x28
 3733 0210 05       		.uleb128 0x5
 3734 0211 00       		.byte	0
 3735 0212 03       		.uleb128 0x3
 3736 0213 08       		.uleb128 0x8
 3737 0214 3A       		.uleb128 0x3a
 3738 0215 0B       		.uleb128 0xb
 3739 0216 3B       		.uleb128 0x3b
 3740 0217 05       		.uleb128 0x5
 3741 0218 49       		.uleb128 0x49
 3742 0219 13       		.uleb128 0x13
 3743 021a 02       		.uleb128 0x2
 3744 021b 18       		.uleb128 0x18
 3745 021c 00       		.byte	0
 3746 021d 00       		.byte	0
 3747 021e 29       		.uleb128 0x29
 3748 021f 2E       		.uleb128 0x2e
 3749 0220 00       		.byte	0
 3750 0221 3F       		.uleb128 0x3f
 3751 0222 19       		.uleb128 0x19
 3752 0223 03       		.uleb128 0x3
 3753 0224 0E       		.uleb128 0xe
 3754 0225 3A       		.uleb128 0x3a
 3755 0226 0B       		.uleb128 0xb
 3756 0227 3B       		.uleb128 0x3b
 3757 0228 0B       		.uleb128 0xb
 3758 0229 27       		.uleb128 0x27
 3759 022a 19       		.uleb128 0x19
 3760 022b 11       		.uleb128 0x11
 3761 022c 01       		.uleb128 0x1
 3762 022d 12       		.uleb128 0x12
 3763 022e 06       		.uleb128 0x6
 3764 022f 40       		.uleb128 0x40
 3765 0230 18       		.uleb128 0x18
 3766 0231 9642     		.uleb128 0x2116
ARM GAS  /tmp/ccXqF3yr.s 			page 68


 3767 0233 19       		.uleb128 0x19
 3768 0234 00       		.byte	0
 3769 0235 00       		.byte	0
 3770 0236 2A       		.uleb128 0x2a
 3771 0237 2E       		.uleb128 0x2e
 3772 0238 01       		.byte	0x1
 3773 0239 3F       		.uleb128 0x3f
 3774 023a 19       		.uleb128 0x19
 3775 023b 03       		.uleb128 0x3
 3776 023c 0E       		.uleb128 0xe
 3777 023d 3A       		.uleb128 0x3a
 3778 023e 0B       		.uleb128 0xb
 3779 023f 3B       		.uleb128 0x3b
 3780 0240 0B       		.uleb128 0xb
 3781 0241 27       		.uleb128 0x27
 3782 0242 19       		.uleb128 0x19
 3783 0243 11       		.uleb128 0x11
 3784 0244 01       		.uleb128 0x1
 3785 0245 12       		.uleb128 0x12
 3786 0246 06       		.uleb128 0x6
 3787 0247 40       		.uleb128 0x40
 3788 0248 18       		.uleb128 0x18
 3789 0249 9642     		.uleb128 0x2116
 3790 024b 19       		.uleb128 0x19
 3791 024c 01       		.uleb128 0x1
 3792 024d 13       		.uleb128 0x13
 3793 024e 00       		.byte	0
 3794 024f 00       		.byte	0
 3795 0250 2B       		.uleb128 0x2b
 3796 0251 05       		.uleb128 0x5
 3797 0252 00       		.byte	0
 3798 0253 03       		.uleb128 0x3
 3799 0254 0E       		.uleb128 0xe
 3800 0255 3A       		.uleb128 0x3a
 3801 0256 0B       		.uleb128 0xb
 3802 0257 3B       		.uleb128 0x3b
 3803 0258 0B       		.uleb128 0xb
 3804 0259 49       		.uleb128 0x49
 3805 025a 13       		.uleb128 0x13
 3806 025b 02       		.uleb128 0x2
 3807 025c 18       		.uleb128 0x18
 3808 025d 00       		.byte	0
 3809 025e 00       		.byte	0
 3810 025f 2C       		.uleb128 0x2c
 3811 0260 2E       		.uleb128 0x2e
 3812 0261 01       		.byte	0x1
 3813 0262 3F       		.uleb128 0x3f
 3814 0263 19       		.uleb128 0x19
 3815 0264 03       		.uleb128 0x3
 3816 0265 0E       		.uleb128 0xe
 3817 0266 3A       		.uleb128 0x3a
 3818 0267 0B       		.uleb128 0xb
 3819 0268 3B       		.uleb128 0x3b
 3820 0269 05       		.uleb128 0x5
 3821 026a 27       		.uleb128 0x27
 3822 026b 19       		.uleb128 0x19
 3823 026c 49       		.uleb128 0x49
ARM GAS  /tmp/ccXqF3yr.s 			page 69


 3824 026d 13       		.uleb128 0x13
 3825 026e 11       		.uleb128 0x11
 3826 026f 01       		.uleb128 0x1
 3827 0270 12       		.uleb128 0x12
 3828 0271 06       		.uleb128 0x6
 3829 0272 40       		.uleb128 0x40
 3830 0273 18       		.uleb128 0x18
 3831 0274 9642     		.uleb128 0x2116
 3832 0276 19       		.uleb128 0x19
 3833 0277 01       		.uleb128 0x1
 3834 0278 13       		.uleb128 0x13
 3835 0279 00       		.byte	0
 3836 027a 00       		.byte	0
 3837 027b 2D       		.uleb128 0x2d
 3838 027c 05       		.uleb128 0x5
 3839 027d 00       		.byte	0
 3840 027e 03       		.uleb128 0x3
 3841 027f 0E       		.uleb128 0xe
 3842 0280 3A       		.uleb128 0x3a
 3843 0281 0B       		.uleb128 0xb
 3844 0282 3B       		.uleb128 0x3b
 3845 0283 05       		.uleb128 0x5
 3846 0284 49       		.uleb128 0x49
 3847 0285 13       		.uleb128 0x13
 3848 0286 02       		.uleb128 0x2
 3849 0287 18       		.uleb128 0x18
 3850 0288 00       		.byte	0
 3851 0289 00       		.byte	0
 3852 028a 2E       		.uleb128 0x2e
 3853 028b 34       		.uleb128 0x34
 3854 028c 00       		.byte	0
 3855 028d 03       		.uleb128 0x3
 3856 028e 08       		.uleb128 0x8
 3857 028f 3A       		.uleb128 0x3a
 3858 0290 0B       		.uleb128 0xb
 3859 0291 3B       		.uleb128 0x3b
 3860 0292 05       		.uleb128 0x5
 3861 0293 49       		.uleb128 0x49
 3862 0294 13       		.uleb128 0x13
 3863 0295 02       		.uleb128 0x2
 3864 0296 18       		.uleb128 0x18
 3865 0297 00       		.byte	0
 3866 0298 00       		.byte	0
 3867 0299 2F       		.uleb128 0x2f
 3868 029a 2E       		.uleb128 0x2e
 3869 029b 01       		.byte	0x1
 3870 029c 3F       		.uleb128 0x3f
 3871 029d 19       		.uleb128 0x19
 3872 029e 03       		.uleb128 0x3
 3873 029f 0E       		.uleb128 0xe
 3874 02a0 3A       		.uleb128 0x3a
 3875 02a1 0B       		.uleb128 0xb
 3876 02a2 3B       		.uleb128 0x3b
 3877 02a3 05       		.uleb128 0x5
 3878 02a4 27       		.uleb128 0x27
 3879 02a5 19       		.uleb128 0x19
 3880 02a6 11       		.uleb128 0x11
ARM GAS  /tmp/ccXqF3yr.s 			page 70


 3881 02a7 01       		.uleb128 0x1
 3882 02a8 12       		.uleb128 0x12
 3883 02a9 06       		.uleb128 0x6
 3884 02aa 40       		.uleb128 0x40
 3885 02ab 18       		.uleb128 0x18
 3886 02ac 9642     		.uleb128 0x2116
 3887 02ae 19       		.uleb128 0x19
 3888 02af 01       		.uleb128 0x1
 3889 02b0 13       		.uleb128 0x13
 3890 02b1 00       		.byte	0
 3891 02b2 00       		.byte	0
 3892 02b3 30       		.uleb128 0x30
 3893 02b4 34       		.uleb128 0x34
 3894 02b5 00       		.byte	0
 3895 02b6 03       		.uleb128 0x3
 3896 02b7 0E       		.uleb128 0xe
 3897 02b8 3A       		.uleb128 0x3a
 3898 02b9 0B       		.uleb128 0xb
 3899 02ba 3B       		.uleb128 0x3b
 3900 02bb 05       		.uleb128 0x5
 3901 02bc 49       		.uleb128 0x49
 3902 02bd 13       		.uleb128 0x13
 3903 02be 3F       		.uleb128 0x3f
 3904 02bf 19       		.uleb128 0x19
 3905 02c0 3C       		.uleb128 0x3c
 3906 02c1 19       		.uleb128 0x19
 3907 02c2 00       		.byte	0
 3908 02c3 00       		.byte	0
 3909 02c4 31       		.uleb128 0x31
 3910 02c5 34       		.uleb128 0x34
 3911 02c6 00       		.byte	0
 3912 02c7 03       		.uleb128 0x3
 3913 02c8 08       		.uleb128 0x8
 3914 02c9 3A       		.uleb128 0x3a
 3915 02ca 0B       		.uleb128 0xb
 3916 02cb 3B       		.uleb128 0x3b
 3917 02cc 05       		.uleb128 0x5
 3918 02cd 49       		.uleb128 0x49
 3919 02ce 13       		.uleb128 0x13
 3920 02cf 3F       		.uleb128 0x3f
 3921 02d0 19       		.uleb128 0x19
 3922 02d1 3C       		.uleb128 0x3c
 3923 02d2 19       		.uleb128 0x19
 3924 02d3 00       		.byte	0
 3925 02d4 00       		.byte	0
 3926 02d5 00       		.byte	0
 3927              		.section	.debug_aranges,"",%progbits
 3928 0000 CC000000 		.4byte	0xcc
 3929 0004 0200     		.2byte	0x2
 3930 0006 00000000 		.4byte	.Ldebug_info0
 3931 000a 04       		.byte	0x4
 3932 000b 00       		.byte	0
 3933 000c 0000     		.2byte	0
 3934 000e 0000     		.2byte	0
 3935 0010 00000000 		.4byte	.LFB127
 3936 0014 10000000 		.4byte	.LFE127-.LFB127
 3937 0018 00000000 		.4byte	.LFB128
ARM GAS  /tmp/ccXqF3yr.s 			page 71


 3938 001c 10000000 		.4byte	.LFE128-.LFB128
 3939 0020 00000000 		.4byte	.LFB167
 3940 0024 10000000 		.4byte	.LFE167-.LFB167
 3941 0028 00000000 		.4byte	.LFB168
 3942 002c 38000000 		.4byte	.LFE168-.LFB168
 3943 0030 00000000 		.4byte	.LFB244
 3944 0034 08000000 		.4byte	.LFE244-.LFB244
 3945 0038 00000000 		.4byte	.LFB245
 3946 003c 08000000 		.4byte	.LFE245-.LFB245
 3947 0040 00000000 		.4byte	.LFB257
 3948 0044 16000000 		.4byte	.LFE257-.LFB257
 3949 0048 00000000 		.4byte	.LFB259
 3950 004c 16000000 		.4byte	.LFE259-.LFB259
 3951 0050 00000000 		.4byte	.LFB260
 3952 0054 16000000 		.4byte	.LFE260-.LFB260
 3953 0058 00000000 		.4byte	.LFB268
 3954 005c 12000000 		.4byte	.LFE268-.LFB268
 3955 0060 00000000 		.4byte	.LFB269
 3956 0064 12000000 		.4byte	.LFE269-.LFB269
 3957 0068 00000000 		.4byte	.LFB270
 3958 006c 12000000 		.4byte	.LFE270-.LFB270
 3959 0070 00000000 		.4byte	.LFB271
 3960 0074 08000000 		.4byte	.LFE271-.LFB271
 3961 0078 00000000 		.4byte	.LFB272
 3962 007c 3A000000 		.4byte	.LFE272-.LFB272
 3963 0080 00000000 		.4byte	.LFB273
 3964 0084 50000000 		.4byte	.LFE273-.LFB273
 3965 0088 00000000 		.4byte	.LFB274
 3966 008c 48000000 		.4byte	.LFE274-.LFB274
 3967 0090 00000000 		.4byte	.LFB275
 3968 0094 26000000 		.4byte	.LFE275-.LFB275
 3969 0098 00000000 		.4byte	.LFB276
 3970 009c 80000000 		.4byte	.LFE276-.LFB276
 3971 00a0 00000000 		.4byte	.LFB277
 3972 00a4 64000000 		.4byte	.LFE277-.LFB277
 3973 00a8 00000000 		.4byte	.LFB278
 3974 00ac 68000000 		.4byte	.LFE278-.LFB278
 3975 00b0 00000000 		.4byte	.LFB279
 3976 00b4 48000000 		.4byte	.LFE279-.LFB279
 3977 00b8 00000000 		.4byte	.LFB280
 3978 00bc 28000000 		.4byte	.LFE280-.LFB280
 3979 00c0 00000000 		.4byte	.LFB281
 3980 00c4 28000000 		.4byte	.LFE281-.LFB281
 3981 00c8 00000000 		.4byte	0
 3982 00cc 00000000 		.4byte	0
 3983              		.section	.debug_ranges,"",%progbits
 3984              	.Ldebug_ranges0:
 3985 0000 00000000 		.4byte	.LFB127
 3986 0004 10000000 		.4byte	.LFE127
 3987 0008 00000000 		.4byte	.LFB128
 3988 000c 10000000 		.4byte	.LFE128
 3989 0010 00000000 		.4byte	.LFB167
 3990 0014 10000000 		.4byte	.LFE167
 3991 0018 00000000 		.4byte	.LFB168
 3992 001c 38000000 		.4byte	.LFE168
 3993 0020 00000000 		.4byte	.LFB244
 3994 0024 08000000 		.4byte	.LFE244
ARM GAS  /tmp/ccXqF3yr.s 			page 72


 3995 0028 00000000 		.4byte	.LFB245
 3996 002c 08000000 		.4byte	.LFE245
 3997 0030 00000000 		.4byte	.LFB257
 3998 0034 16000000 		.4byte	.LFE257
 3999 0038 00000000 		.4byte	.LFB259
 4000 003c 16000000 		.4byte	.LFE259
 4001 0040 00000000 		.4byte	.LFB260
 4002 0044 16000000 		.4byte	.LFE260
 4003 0048 00000000 		.4byte	.LFB268
 4004 004c 12000000 		.4byte	.LFE268
 4005 0050 00000000 		.4byte	.LFB269
 4006 0054 12000000 		.4byte	.LFE269
 4007 0058 00000000 		.4byte	.LFB270
 4008 005c 12000000 		.4byte	.LFE270
 4009 0060 00000000 		.4byte	.LFB271
 4010 0064 08000000 		.4byte	.LFE271
 4011 0068 00000000 		.4byte	.LFB272
 4012 006c 3A000000 		.4byte	.LFE272
 4013 0070 00000000 		.4byte	.LFB273
 4014 0074 50000000 		.4byte	.LFE273
 4015 0078 00000000 		.4byte	.LFB274
 4016 007c 48000000 		.4byte	.LFE274
 4017 0080 00000000 		.4byte	.LFB275
 4018 0084 26000000 		.4byte	.LFE275
 4019 0088 00000000 		.4byte	.LFB276
 4020 008c 80000000 		.4byte	.LFE276
 4021 0090 00000000 		.4byte	.LFB277
 4022 0094 64000000 		.4byte	.LFE277
 4023 0098 00000000 		.4byte	.LFB278
 4024 009c 68000000 		.4byte	.LFE278
 4025 00a0 00000000 		.4byte	.LFB279
 4026 00a4 48000000 		.4byte	.LFE279
 4027 00a8 00000000 		.4byte	.LFB280
 4028 00ac 28000000 		.4byte	.LFE280
 4029 00b0 00000000 		.4byte	.LFB281
 4030 00b4 28000000 		.4byte	.LFE281
 4031 00b8 00000000 		.4byte	0
 4032 00bc 00000000 		.4byte	0
 4033              		.section	.debug_line,"",%progbits
 4034              	.Ldebug_line0:
 4035 0000 7D050000 		.section	.debug_str,"MS",%progbits,1
 4035      02000603 
 4035      00000201 
 4035      FB0E0D00 
 4035      01010101 
 4036              	.LASF199:
 4037 0000 6F73616C 		.ascii	"osalThreadResumeI\000"
 4037      54687265 
 4037      61645265 
 4037      73756D65 
 4037      4900
 4038              	.LASF57:
 4039 0012 72656164 		.ascii	"ready_list_t\000"
 4039      795F6C69 
 4039      73745F74 
 4039      00
 4040              	.LASF113:
ARM GAS  /tmp/ccXqF3yr.s 			page 73


 4041 001f 73655F74 		.ascii	"se_time\000"
 4041      696D6500 
 4042              	.LASF200:
 4043 0027 6F73616C 		.ascii	"osalThreadResumeS\000"
 4043      54687265 
 4043      61645265 
 4043      73756D65 
 4043      5300
 4044              	.LASF2:
 4045 0039 73697A65 		.ascii	"size_t\000"
 4045      5F7400
 4046              	.LASF134:
 4047 0040 7264796D 		.ascii	"rdymsg\000"
 4047      736700
 4048              	.LASF163:
 4049 0047 61646373 		.ascii	"adcstate_t\000"
 4049      74617465 
 4049      5F7400
 4050              	.LASF87:
 4051 0052 6B65726E 		.ascii	"kernel_stats\000"
 4051      656C5F73 
 4051      74617473 
 4051      00
 4052              	.LASF106:
 4053 005f 4D304152 		.ascii	"M0AR\000"
 4053      00
 4054              	.LASF3:
 4055 0064 5F5F7569 		.ascii	"__uint8_t\000"
 4055      6E74385F 
 4055      7400
 4056              	.LASF208:
 4057 006e 61646353 		.ascii	"adcStop\000"
 4057      746F7000 
 4058              	.LASF112:
 4059 0076 706F7274 		.ascii	"port_intctx\000"
 4059      5F696E74 
 4059      63747800 
 4060              	.LASF56:
 4061 0082 63685F74 		.ascii	"ch_threads_queue\000"
 4061      68726561 
 4061      64735F71 
 4061      75657565 
 4061      00
 4062              	.LASF76:
 4063 0093 73797374 		.ascii	"system_debug_t\000"
 4063      656D5F64 
 4063      65627567 
 4063      5F7400
 4064              	.LASF150:
 4065 00a2 73747265 		.ascii	"stream\000"
 4065      616D00
 4066              	.LASF193:
 4067 00a9 706F7274 		.ascii	"port_lock\000"
 4067      5F6C6F63 
 4067      6B00
 4068              	.LASF125:
 4069 00b3 776F7273 		.ascii	"worst\000"
ARM GAS  /tmp/ccXqF3yr.s 			page 74


 4069      7400
 4070              	.LASF160:
 4071 00b9 4144435F 		.ascii	"ADC_ACTIVE\000"
 4071      41435449 
 4071      564500
 4072              	.LASF128:
 4073 00c4 74696D65 		.ascii	"time_measurement_t\000"
 4073      5F6D6561 
 4073      73757265 
 4073      6D656E74 
 4073      5F7400
 4074              	.LASF168:
 4075 00d7 61646365 		.ascii	"adcerror_t\000"
 4075      72726F72 
 4075      5F7400
 4076              	.LASF14:
 4077 00e2 6C6F6E67 		.ascii	"long long unsigned int\000"
 4077      206C6F6E 
 4077      6720756E 
 4077      7369676E 
 4077      65642069 
 4078              	.LASF121:
 4079 00f9 63685F74 		.ascii	"ch_trace_buffer_t\000"
 4079      72616365 
 4079      5F627566 
 4079      6665725F 
 4079      7400
 4080              	.LASF116:
 4081 010b 73655F73 		.ascii	"se_state\000"
 4081      74617465 
 4081      00
 4082              	.LASF142:
 4083 0114 735F7175 		.ascii	"s_queue\000"
 4083      65756500 
 4084              	.LASF135:
 4085 011c 65786974 		.ascii	"exitcode\000"
 4085      636F6465 
 4085      00
 4086              	.LASF154:
 4087 0125 76656374 		.ascii	"vector\000"
 4087      6F7200
 4088              	.LASF86:
 4089 012c 6D61696E 		.ascii	"mainthread\000"
 4089      74687265 
 4089      616400
 4090              	.LASF73:
 4091 0137 76697274 		.ascii	"virtual_timers_list_t\000"
 4091      75616C5F 
 4091      74696D65 
 4091      72735F6C 
 4091      6973745F 
 4092              	.LASF215:
 4093 014d 49544D5F 		.ascii	"ITM_RxBuffer\000"
 4093      52784275 
 4093      66666572 
 4093      00
 4094              	.LASF21:
ARM GAS  /tmp/ccXqF3yr.s 			page 75


 4095 015a 72747469 		.ascii	"rttime_t\000"
 4095      6D655F74 
 4095      00
 4096              	.LASF34:
 4097 0163 705F7072 		.ascii	"p_prio\000"
 4097      696F00
 4098              	.LASF99:
 4099 016a 4A535152 		.ascii	"JSQR\000"
 4099      00
 4100              	.LASF201:
 4101 016f 6F73616C 		.ascii	"osalMutexObjectInit\000"
 4101      4D757465 
 4101      784F626A 
 4101      65637449 
 4101      6E697400 
 4102              	.LASF149:
 4103 0183 6D757465 		.ascii	"mutex_t\000"
 4103      785F7400 
 4104              	.LASF12:
 4105 018b 6C6F6E67 		.ascii	"long long int\000"
 4105      206C6F6E 
 4105      6720696E 
 4105      7400
 4106              	.LASF1:
 4107 0199 7369676E 		.ascii	"signed char\000"
 4107      65642063 
 4107      68617200 
 4108              	.LASF49:
 4109 01a5 705F6D70 		.ascii	"p_mpool\000"
 4109      6F6F6C00 
 4110              	.LASF145:
 4111 01ad 6D5F7175 		.ascii	"m_queue\000"
 4111      65756500 
 4112              	.LASF157:
 4113 01b5 4144435F 		.ascii	"ADC_UNINIT\000"
 4113      554E494E 
 4113      495400
 4114              	.LASF85:
 4115 01c0 76746C69 		.ascii	"vtlist\000"
 4115      737400
 4116              	.LASF194:
 4117 01c7 706F7274 		.ascii	"port_unlock\000"
 4117      5F756E6C 
 4117      6F636B00 
 4118              	.LASF177:
 4119 01d3 646D6173 		.ascii	"dmastp\000"
 4119      747000
 4120              	.LASF162:
 4121 01da 4144435F 		.ascii	"ADC_ERROR\000"
 4121      4552524F 
 4121      5200
 4122              	.LASF170:
 4123 01e4 73746174 		.ascii	"state\000"
 4123      6500
 4124              	.LASF181:
 4125 01ea 63697263 		.ascii	"circular\000"
 4125      756C6172 
ARM GAS  /tmp/ccXqF3yr.s 			page 76


 4125      00
 4126              	.LASF9:
 4127 01f3 6C6F6E67 		.ascii	"long int\000"
 4127      20696E74 
 4127      00
 4128              	.LASF166:
 4129 01fc 4144435F 		.ascii	"ADC_ERR_DMAFAILURE\000"
 4129      4552525F 
 4129      444D4146 
 4129      41494C55 
 4129      524500
 4130              	.LASF180:
 4131 020f 61646365 		.ascii	"adcerrorcallback_t\000"
 4131      72726F72 
 4131      63616C6C 
 4131      6261636B 
 4131      5F7400
 4132              	.LASF23:
 4133 0222 74737461 		.ascii	"tstate_t\000"
 4133      74655F74 
 4133      00
 4134              	.LASF175:
 4135 022b 74687265 		.ascii	"thread\000"
 4135      616400
 4136              	.LASF83:
 4137 0232 63685F73 		.ascii	"ch_system\000"
 4137      79737465 
 4137      6D00
 4138              	.LASF114:
 4139 023c 73655F74 		.ascii	"se_tp\000"
 4139      7000
 4140              	.LASF16:
 4141 0242 75696E74 		.ascii	"uint16_t\000"
 4141      31365F74 
 4141      00
 4142              	.LASF104:
 4143 024b 4144435F 		.ascii	"ADC_TypeDef\000"
 4143      54797065 
 4143      44656600 
 4144              	.LASF216:
 4145 0257 474E5520 		.ascii	"GNU C 4.8.4 20141219 (release) -mcpu=cortex-m4 -mno"
 4145      4320342E 
 4145      382E3420 
 4145      32303134 
 4145      31323139 
 4146 028a 2D746875 		.ascii	"-thumb-interwork -mthumb -ggdb -O0 -fomit-frame-poi"
 4146      6D622D69 
 4146      6E746572 
 4146      776F726B 
 4146      202D6D74 
 4147 02bd 6E746572 		.ascii	"nter -falign-functions=16 -ffunction-sections -fdat"
 4147      202D6661 
 4147      6C69676E 
 4147      2D66756E 
 4147      6374696F 
 4148 02f0 612D7365 		.ascii	"a-sections -fno-common\000"
 4148      6374696F 
ARM GAS  /tmp/ccXqF3yr.s 			page 77


 4148      6E73202D 
 4148      666E6F2D 
 4148      636F6D6D 
 4149              	.LASF36:
 4150 0307 705F6E65 		.ascii	"p_newer\000"
 4150      77657200 
 4151              	.LASF183:
 4152 030f 656E645F 		.ascii	"end_cb\000"
 4152      636200
 4153              	.LASF179:
 4154 0316 61646363 		.ascii	"adccallback_t\000"
 4154      616C6C62 
 4154      61636B5F 
 4154      7400
 4155              	.LASF222:
 4156 0324 61646343 		.ascii	"adcConvert\000"
 4156      6F6E7665 
 4156      727400
 4157              	.LASF164:
 4158 032f 61646373 		.ascii	"adcsample_t\000"
 4158      616D706C 
 4158      655F7400 
 4159              	.LASF62:
 4160 033b 725F6E65 		.ascii	"r_newer\000"
 4160      77657200 
 4161              	.LASF192:
 4162 0343 41444343 		.ascii	"ADCConfig\000"
 4162      6F6E6669 
 4162      6700
 4163              	.LASF109:
 4164 034d 72656761 		.ascii	"regarm_t\000"
 4164      726D5F74 
 4164      00
 4165              	.LASF69:
 4166 0356 76745F70 		.ascii	"vt_prev\000"
 4166      72657600 
 4167              	.LASF191:
 4168 035e 64756D6D 		.ascii	"dummy\000"
 4168      7900
 4169              	.LASF197:
 4170 0364 6F73616C 		.ascii	"osalSysLock\000"
 4170      5379734C 
 4170      6F636B00 
 4171              	.LASF167:
 4172 0370 4144435F 		.ascii	"ADC_ERR_OVERFLOW\000"
 4172      4552525F 
 4172      4F564552 
 4172      464C4F57 
 4172      00
 4173              	.LASF219:
 4174 0381 76616C75 		.ascii	"value\000"
 4174      6500
 4175              	.LASF80:
 4176 0387 6C6F636B 		.ascii	"lock_cnt\000"
 4176      5F636E74 
 4176      00
 4177              	.LASF10:
ARM GAS  /tmp/ccXqF3yr.s 			page 78


 4178 0390 5F5F7569 		.ascii	"__uint32_t\000"
 4178      6E743332 
 4178      5F7400
 4179              	.LASF28:
 4180 039b 636E745F 		.ascii	"cnt_t\000"
 4180      7400
 4181              	.LASF39:
 4182 03a1 705F7374 		.ascii	"p_stklimit\000"
 4182      6B6C696D 
 4182      697400
 4183              	.LASF0:
 4184 03ac 756E7369 		.ascii	"unsigned int\000"
 4184      676E6564 
 4184      20696E74 
 4184      00
 4185              	.LASF68:
 4186 03b9 76745F6E 		.ascii	"vt_next\000"
 4186      65787400 
 4187              	.LASF205:
 4188 03c1 6164634F 		.ascii	"adcObjectInit\000"
 4188      626A6563 
 4188      74496E69 
 4188      7400
 4189              	.LASF138:
 4190 03cf 77747365 		.ascii	"wtsemp\000"
 4190      6D7000
 4191              	.LASF44:
 4192 03d6 705F6D73 		.ascii	"p_msgqueue\000"
 4192      67717565 
 4192      756500
 4193              	.LASF169:
 4194 03e1 41444344 		.ascii	"ADCDriver\000"
 4194      72697665 
 4194      7200
 4195              	.LASF152:
 4196 03eb 69736869 		.ascii	"ishift\000"
 4196      667400
 4197              	.LASF143:
 4198 03f2 735F636E 		.ascii	"s_cnt\000"
 4198      7400
 4199              	.LASF124:
 4200 03f8 62657374 		.ascii	"best\000"
 4200      00
 4201              	.LASF7:
 4202 03fd 73686F72 		.ascii	"short unsigned int\000"
 4202      7420756E 
 4202      7369676E 
 4202      65642069 
 4202      6E7400
 4203              	.LASF133:
 4204 0410 6B65726E 		.ascii	"kernel_stats_t\000"
 4204      656C5F73 
 4204      74617473 
 4204      5F7400
 4205              	.LASF53:
 4206 041f 63685F74 		.ascii	"ch_thread\000"
 4206      68726561 
ARM GAS  /tmp/ccXqF3yr.s 			page 79


 4206      6400
 4207              	.LASF159:
 4208 0429 4144435F 		.ascii	"ADC_READY\000"
 4208      52454144 
 4208      5900
 4209              	.LASF220:
 4210 0433 6F73616C 		.ascii	"osalThreadSuspendS\000"
 4210      54687265 
 4210      61645375 
 4210      7370656E 
 4210      645300
 4211              	.LASF26:
 4212 0446 6D73675F 		.ascii	"msg_t\000"
 4212      7400
 4213              	.LASF126:
 4214 044c 6C617374 		.ascii	"last\000"
 4214      00
 4215              	.LASF29:
 4216 0451 75636E74 		.ascii	"ucnt_t\000"
 4216      5F7400
 4217              	.LASF153:
 4218 0458 73656C66 		.ascii	"selfindex\000"
 4218      696E6465 
 4218      7800
 4219              	.LASF82:
 4220 0462 63685F73 		.ascii	"ch_system_t\000"
 4220      79737465 
 4220      6D5F7400 
 4221              	.LASF22:
 4222 046e 746D6F64 		.ascii	"tmode_t\000"
 4222      655F7400 
 4223              	.LASF182:
 4224 0476 6E756D5F 		.ascii	"num_channels\000"
 4224      6368616E 
 4224      6E656C73 
 4224      00
 4225              	.LASF84:
 4226 0483 726C6973 		.ascii	"rlist\000"
 4226      7400
 4227              	.LASF132:
 4228 0489 6D5F6372 		.ascii	"m_crit_isr\000"
 4228      69745F69 
 4228      737200
 4229              	.LASF58:
 4230 0494 63685F72 		.ascii	"ch_ready_list\000"
 4230      65616479 
 4230      5F6C6973 
 4230      7400
 4231              	.LASF27:
 4232 04a2 6576656E 		.ascii	"eventmask_t\000"
 4232      746D6173 
 4232      6B5F7400 
 4233              	.LASF8:
 4234 04ae 5F5F696E 		.ascii	"__int32_t\000"
 4234      7433325F 
 4234      7400
 4235              	.LASF88:
ARM GAS  /tmp/ccXqF3yr.s 			page 80


 4236 04b8 69646C65 		.ascii	"idle_thread_wa\000"
 4236      5F746872 
 4236      6561645F 
 4236      776100
 4237              	.LASF221:
 4238 04c7 61646349 		.ascii	"adcInit\000"
 4238      6E697400 
 4239              	.LASF214:
 4240 04cf 61646352 		.ascii	"adcReleaseBus\000"
 4240      656C6561 
 4240      73654275 
 4240      7300
 4241              	.LASF110:
 4242 04dd 73746B61 		.ascii	"stkalign_t\000"
 4242      6C69676E 
 4242      5F7400
 4243              	.LASF118:
 4244 04e8 74625F73 		.ascii	"tb_size\000"
 4244      697A6500 
 4245              	.LASF123:
 4246 04f0 746D5F63 		.ascii	"tm_calibration_t\000"
 4246      616C6962 
 4246      72617469 
 4246      6F6E5F74 
 4246      00
 4247              	.LASF174:
 4248 0501 67727070 		.ascii	"grpp\000"
 4248      00
 4249              	.LASF92:
 4250 0506 4A4F4652 		.ascii	"JOFR1\000"
 4250      3100
 4251              	.LASF93:
 4252 050c 4A4F4652 		.ascii	"JOFR2\000"
 4252      3200
 4253              	.LASF94:
 4254 0512 4A4F4652 		.ascii	"JOFR3\000"
 4254      3300
 4255              	.LASF172:
 4256 0518 73616D70 		.ascii	"samples\000"
 4256      6C657300 
 4257              	.LASF43:
 4258 0520 705F7761 		.ascii	"p_waiting\000"
 4258      6974696E 
 4258      6700
 4259              	.LASF89:
 4260 052a 73697A65 		.ascii	"sizetype\000"
 4260      74797065 
 4260      00
 4261              	.LASF51:
 4262 0533 74687265 		.ascii	"thread_reference_t\000"
 4262      61645F72 
 4262      65666572 
 4262      656E6365 
 4262      5F7400
 4263              	.LASF74:
 4264 0546 63685F76 		.ascii	"ch_virtual_timers_list\000"
 4264      69727475 
ARM GAS  /tmp/ccXqF3yr.s 			page 81


 4264      616C5F74 
 4264      696D6572 
 4264      735F6C69 
 4265              	.LASF137:
 4266 055d 77747472 		.ascii	"wttrp\000"
 4266      7000
 4267              	.LASF119:
 4268 0563 74625F70 		.ascii	"tb_ptr\000"
 4268      747200
 4269              	.LASF117:
 4270 056a 63685F73 		.ascii	"ch_swc_event_t\000"
 4270      77635F65 
 4270      76656E74 
 4270      5F7400
 4271              	.LASF158:
 4272 0579 4144435F 		.ascii	"ADC_STOP\000"
 4272      53544F50 
 4272      00
 4273              	.LASF75:
 4274 0582 76745F6C 		.ascii	"vt_lasttime\000"
 4274      61737474 
 4274      696D6500 
 4275              	.LASF19:
 4276 058e 75696E74 		.ascii	"uint64_t\000"
 4276      36345F74 
 4276      00
 4277              	.LASF37:
 4278 0597 705F6F6C 		.ascii	"p_older\000"
 4278      64657200 
 4279              	.LASF103:
 4280 059f 4A445234 		.ascii	"JDR4\000"
 4280      00
 4281              	.LASF61:
 4282 05a4 725F6374 		.ascii	"r_ctx\000"
 4282      7800
 4283              	.LASF90:
 4284 05aa 534D5052 		.ascii	"SMPR1\000"
 4284      3100
 4285              	.LASF91:
 4286 05b0 534D5052 		.ascii	"SMPR2\000"
 4286      3200
 4287              	.LASF147:
 4288 05b6 6D5F6E65 		.ascii	"m_next\000"
 4288      787400
 4289              	.LASF64:
 4290 05bd 725F6375 		.ascii	"r_current\000"
 4290      7272656E 
 4290      7400
 4291              	.LASF63:
 4292 05c7 725F6F6C 		.ascii	"r_older\000"
 4292      64657200 
 4293              	.LASF96:
 4294 05cf 53515231 		.ascii	"SQR1\000"
 4294      00
 4295              	.LASF97:
 4296 05d4 53515232 		.ascii	"SQR2\000"
 4296      00
ARM GAS  /tmp/ccXqF3yr.s 			page 82


 4297              	.LASF98:
 4298 05d9 53515233 		.ascii	"SQR3\000"
 4298      00
 4299              	.LASF13:
 4300 05de 5F5F7569 		.ascii	"__uint64_t\000"
 4300      6E743634 
 4300      5F7400
 4301              	.LASF127:
 4302 05e9 63756D75 		.ascii	"cumulative\000"
 4302      6C617469 
 4302      766500
 4303              	.LASF210:
 4304 05f4 61646353 		.ascii	"adcStartConversionI\000"
 4304      74617274 
 4304      436F6E76 
 4304      65727369 
 4304      6F6E4900 
 4305              	.LASF24:
 4306 0608 74726566 		.ascii	"trefs_t\000"
 4306      735F7400 
 4307              	.LASF120:
 4308 0610 74625F62 		.ascii	"tb_buffer\000"
 4308      75666665 
 4308      7200
 4309              	.LASF66:
 4310 061a 76697274 		.ascii	"virtual_timer_t\000"
 4310      75616C5F 
 4310      74696D65 
 4310      725F7400 
 4311              	.LASF33:
 4312 062a 705F7072 		.ascii	"p_prev\000"
 4312      657600
 4313              	.LASF155:
 4314 0631 73746D33 		.ascii	"stm32_dma_stream_t\000"
 4314      325F646D 
 4314      615F7374 
 4314      7265616D 
 4314      5F7400
 4315              	.LASF25:
 4316 0644 74707269 		.ascii	"tprio_t\000"
 4316      6F5F7400 
 4317              	.LASF176:
 4318 064c 6D757465 		.ascii	"mutex\000"
 4318      7800
 4319              	.LASF130:
 4320 0652 6E5F6374 		.ascii	"n_ctxswc\000"
 4320      78737763 
 4320      00
 4321              	.LASF156:
 4322 065b 5F426F6F 		.ascii	"_Bool\000"
 4322      6C00
 4323              	.LASF17:
 4324 0661 696E7433 		.ascii	"int32_t\000"
 4324      325F7400 
 4325              	.LASF4:
 4326 0669 756E7369 		.ascii	"unsigned char\000"
 4326      676E6564 
ARM GAS  /tmp/ccXqF3yr.s 			page 83


 4326      20636861 
 4326      7200
 4327              	.LASF47:
 4328 0677 705F6D74 		.ascii	"p_mtxlist\000"
 4328      786C6973 
 4328      7400
 4329              	.LASF5:
 4330 0681 73686F72 		.ascii	"short int\000"
 4330      7420696E 
 4330      7400
 4331              	.LASF40:
 4332 068b 705F7374 		.ascii	"p_state\000"
 4332      61746500 
 4333              	.LASF184:
 4334 0693 6572726F 		.ascii	"error_cb\000"
 4334      725F6362 
 4334      00
 4335              	.LASF60:
 4336 069c 725F7072 		.ascii	"r_prio\000"
 4336      696F00
 4337              	.LASF140:
 4338 06a3 65776D61 		.ascii	"ewmask\000"
 4338      736B00
 4339              	.LASF32:
 4340 06aa 705F6E65 		.ascii	"p_next\000"
 4340      787400
 4341              	.LASF41:
 4342 06b1 705F666C 		.ascii	"p_flags\000"
 4342      61677300 
 4343              	.LASF207:
 4344 06b9 5F5F6675 		.ascii	"__func__\000"
 4344      6E635F5F 
 4344      00
 4345              	.LASF50:
 4346 06c2 705F7374 		.ascii	"p_stats\000"
 4346      61747300 
 4347              	.LASF196:
 4348 06ca 63685379 		.ascii	"chSysLock\000"
 4348      734C6F63 
 4348      6B00
 4349              	.LASF95:
 4350 06d4 4A4F4652 		.ascii	"JOFR4\000"
 4350      3400
 4351              	.LASF198:
 4352 06da 6F73616C 		.ascii	"osalSysUnlock\000"
 4352      53797355 
 4352      6E6C6F63 
 4352      6B00
 4353              	.LASF45:
 4354 06e8 705F6D73 		.ascii	"p_msg\000"
 4354      6700
 4355              	.LASF141:
 4356 06ee 63685F73 		.ascii	"ch_semaphore\000"
 4356      656D6170 
 4356      686F7265 
 4356      00
 4357              	.LASF46:
ARM GAS  /tmp/ccXqF3yr.s 			page 84


 4358 06fb 705F6570 		.ascii	"p_epending\000"
 4358      656E6469 
 4358      6E6700
 4359              	.LASF151:
 4360 0706 69666372 		.ascii	"ifcr\000"
 4360      00
 4361              	.LASF18:
 4362 070b 75696E74 		.ascii	"uint32_t\000"
 4362      33325F74 
 4362      00
 4363              	.LASF139:
 4364 0714 77746D74 		.ascii	"wtmtxp\000"
 4364      787000
 4365              	.LASF59:
 4366 071b 725F7175 		.ascii	"r_queue\000"
 4366      65756500 
 4367              	.LASF70:
 4368 0723 76745F64 		.ascii	"vt_delta\000"
 4368      656C7461 
 4368      00
 4369              	.LASF54:
 4370 072c 63685F74 		.ascii	"ch_threads_list\000"
 4370      68726561 
 4370      64735F6C 
 4370      69737400 
 4371              	.LASF11:
 4372 073c 6C6F6E67 		.ascii	"long unsigned int\000"
 4372      20756E73 
 4372      69676E65 
 4372      6420696E 
 4372      7400
 4373              	.LASF173:
 4374 074e 64657074 		.ascii	"depth\000"
 4374      6800
 4375              	.LASF148:
 4376 0754 63686172 		.ascii	"char\000"
 4376      00
 4377              	.LASF171:
 4378 0759 636F6E66 		.ascii	"config\000"
 4378      696700
 4379              	.LASF203:
 4380 0760 6F73616C 		.ascii	"osalMutexUnlock\000"
 4380      4D757465 
 4380      78556E6C 
 4380      6F636B00 
 4381              	.LASF6:
 4382 0770 5F5F7569 		.ascii	"__uint16_t\000"
 4382      6E743136 
 4382      5F7400
 4383              	.LASF31:
 4384 077b 74687265 		.ascii	"thread_t\000"
 4384      61645F74 
 4384      00
 4385              	.LASF187:
 4386 0784 73717231 		.ascii	"sqr1\000"
 4386      00
 4387              	.LASF188:
ARM GAS  /tmp/ccXqF3yr.s 			page 85


 4388 0789 73717232 		.ascii	"sqr2\000"
 4388      00
 4389              	.LASF189:
 4390 078e 73717233 		.ascii	"sqr3\000"
 4390      00
 4391              	.LASF30:
 4392 0793 73797374 		.ascii	"systime_t\000"
 4392      696D655F 
 4392      7400
 4393              	.LASF48:
 4394 079d 705F7265 		.ascii	"p_realprio\000"
 4394      616C7072 
 4394      696F00
 4395              	.LASF65:
 4396 07a8 76746675 		.ascii	"vtfunc_t\000"
 4396      6E635F74 
 4396      00
 4397              	.LASF129:
 4398 07b1 6E5F6972 		.ascii	"n_irq\000"
 4398      7100
 4399              	.LASF218:
 4400 07b7 5F5F7365 		.ascii	"__set_BASEPRI\000"
 4400      745F4241 
 4400      53455052 
 4400      4900
 4401              	.LASF202:
 4402 07c5 6F73616C 		.ascii	"osalMutexLock\000"
 4402      4D757465 
 4402      784C6F63 
 4402      6B00
 4403              	.LASF105:
 4404 07d3 4E445452 		.ascii	"NDTR\000"
 4404      00
 4405              	.LASF78:
 4406 07d8 70616E69 		.ascii	"panic_msg\000"
 4406      635F6D73 
 4406      6700
 4407              	.LASF122:
 4408 07e2 6F666673 		.ascii	"offset\000"
 4408      657400
 4409              	.LASF108:
 4410 07e9 444D415F 		.ascii	"DMA_Stream_TypeDef\000"
 4410      53747265 
 4410      616D5F54 
 4410      79706544 
 4410      656600
 4411              	.LASF111:
 4412 07fc 636F6E74 		.ascii	"context\000"
 4412      65787400 
 4413              	.LASF67:
 4414 0804 63685F76 		.ascii	"ch_virtual_timer\000"
 4414      69727475 
 4414      616C5F74 
 4414      696D6572 
 4414      00
 4415              	.LASF209:
 4416 0815 61646353 		.ascii	"adcStartConversion\000"
ARM GAS  /tmp/ccXqF3yr.s 			page 86


 4416      74617274 
 4416      436F6E76 
 4416      65727369 
 4416      6F6E00
 4417              	.LASF20:
 4418 0828 7274636E 		.ascii	"rtcnt_t\000"
 4418      745F7400 
 4419              	.LASF107:
 4420 0830 4D314152 		.ascii	"M1AR\000"
 4420      00
 4421              	.LASF72:
 4422 0835 76745F70 		.ascii	"vt_par\000"
 4422      617200
 4423              	.LASF206:
 4424 083c 61646353 		.ascii	"adcStart\000"
 4424      74617274 
 4424      00
 4425              	.LASF55:
 4426 0845 74687265 		.ascii	"threads_queue_t\000"
 4426      6164735F 
 4426      71756575 
 4426      655F7400 
 4427              	.LASF144:
 4428 0855 63685F6D 		.ascii	"ch_mutex\000"
 4428      75746578 
 4428      00
 4429              	.LASF42:
 4430 085e 705F7265 		.ascii	"p_refs\000"
 4430      667300
 4431              	.LASF79:
 4432 0865 6973725F 		.ascii	"isr_cnt\000"
 4432      636E7400 
 4433              	.LASF185:
 4434 086d 736D7072 		.ascii	"smpr1\000"
 4434      3100
 4435              	.LASF186:
 4436 0873 736D7072 		.ascii	"smpr2\000"
 4436      3200
 4437              	.LASF217:
 4438 0879 2F686F6D 		.ascii	"/home/efe/ChibiOS/os/hal/src/adc.c\000"
 4438      652F6566 
 4438      652F4368 
 4438      6962694F 
 4438      532F6F73 
 4439              	.LASF15:
 4440 089c 75696E74 		.ascii	"uint8_t\000"
 4440      385F7400 
 4441              	.LASF212:
 4442 08a4 61646353 		.ascii	"adcStopConversionI\000"
 4442      746F7043 
 4442      6F6E7665 
 4442      7273696F 
 4442      6E4900
 4443              	.LASF190:
 4444 08b7 41444343 		.ascii	"ADCConversionGroup\000"
 4444      6F6E7665 
 4444      7273696F 
ARM GAS  /tmp/ccXqF3yr.s 			page 87


 4444      6E47726F 
 4444      757000
 4445              	.LASF100:
 4446 08ca 4A445231 		.ascii	"JDR1\000"
 4446      00
 4447              	.LASF101:
 4448 08cf 4A445232 		.ascii	"JDR2\000"
 4448      00
 4449              	.LASF102:
 4450 08d4 4A445233 		.ascii	"JDR3\000"
 4450      00
 4451              	.LASF178:
 4452 08d9 646D616D 		.ascii	"dmamode\000"
 4452      6F646500 
 4453              	.LASF136:
 4454 08e1 77746F62 		.ascii	"wtobjp\000"
 4454      6A7000
 4455              	.LASF161:
 4456 08e8 4144435F 		.ascii	"ADC_COMPLETE\000"
 4456      434F4D50 
 4456      4C455445 
 4456      00
 4457              	.LASF38:
 4458 08f5 705F6E61 		.ascii	"p_name\000"
 4458      6D6500
 4459              	.LASF165:
 4460 08fc 6164635F 		.ascii	"adc_channels_num_t\000"
 4460      6368616E 
 4460      6E656C73 
 4460      5F6E756D 
 4460      5F7400
 4461              	.LASF52:
 4462 090f 74687265 		.ascii	"threads_list_t\000"
 4462      6164735F 
 4462      6C697374 
 4462      5F7400
 4463              	.LASF81:
 4464 091e 74726163 		.ascii	"trace_buffer\000"
 4464      655F6275 
 4464      66666572 
 4464      00
 4465              	.LASF195:
 4466 092b 63685379 		.ascii	"chSysUnlock\000"
 4466      73556E6C 
 4466      6F636B00 
 4467              	.LASF77:
 4468 0937 63685F73 		.ascii	"ch_system_debug\000"
 4468      79737465 
 4468      6D5F6465 
 4468      62756700 
 4469              	.LASF204:
 4470 0947 61646370 		.ascii	"adcp\000"
 4470      00
 4471              	.LASF211:
 4472 094c 61646353 		.ascii	"adcStopConversion\000"
 4472      746F7043 
 4472      6F6E7665 
ARM GAS  /tmp/ccXqF3yr.s 			page 88


 4472      7273696F 
 4472      6E00
 4473              	.LASF131:
 4474 095e 6D5F6372 		.ascii	"m_crit_thd\000"
 4474      69745F74 
 4474      686400
 4475              	.LASF146:
 4476 0969 6D5F6F77 		.ascii	"m_owner\000"
 4476      6E657200 
 4477              	.LASF213:
 4478 0971 61646341 		.ascii	"adcAcquireBus\000"
 4478      63717569 
 4478      72654275 
 4478      7300
 4479              	.LASF115:
 4480 097f 73655F77 		.ascii	"se_wtobjp\000"
 4480      746F626A 
 4480      7000
 4481              	.LASF35:
 4482 0989 705F6374 		.ascii	"p_ctx\000"
 4482      7800
 4483              	.LASF71:
 4484 098f 76745F66 		.ascii	"vt_func\000"
 4484      756E6300 
 4485              		.ident	"GCC: (4.8.4-1+11-1) 4.8.4 20141219 (release)"
ARM GAS  /tmp/ccXqF3yr.s 			page 89


DEFINED SYMBOLS
                            *ABS*:0000000000000000 adc.c
     /tmp/ccXqF3yr.s:19     .text.port_lock:0000000000000000 $t
     /tmp/ccXqF3yr.s:24     .text.port_lock:0000000000000000 port_lock
     /tmp/ccXqF3yr.s:55     .text.port_unlock:0000000000000000 $t
     /tmp/ccXqF3yr.s:60     .text.port_unlock:0000000000000000 port_unlock
     /tmp/ccXqF3yr.s:89     .text.chSysLock:0000000000000000 $t
     /tmp/ccXqF3yr.s:94     .text.chSysLock:0000000000000000 chSysLock
     /tmp/ccXqF3yr.s:117    .text.chSysUnlock:0000000000000000 $t
     /tmp/ccXqF3yr.s:122    .text.chSysUnlock:0000000000000000 chSysUnlock
     /tmp/ccXqF3yr.s:161    .text.chSysUnlock:0000000000000030 $d
     /tmp/ccXqF3yr.s:1042   .rodata.__func__.5925:0000000000000000 __func__.5925
     /tmp/ccXqF3yr.s:167    .text.osalSysLock:0000000000000000 $t
     /tmp/ccXqF3yr.s:172    .text.osalSysLock:0000000000000000 osalSysLock
     /tmp/ccXqF3yr.s:191    .text.osalSysUnlock:0000000000000000 $t
     /tmp/ccXqF3yr.s:196    .text.osalSysUnlock:0000000000000000 osalSysUnlock
     /tmp/ccXqF3yr.s:214    .text.osalThreadSuspendS:0000000000000000 $t
     /tmp/ccXqF3yr.s:219    .text.osalThreadSuspendS:0000000000000000 osalThreadSuspendS
     /tmp/ccXqF3yr.s:244    .text.osalThreadResumeI:0000000000000000 $t
     /tmp/ccXqF3yr.s:249    .text.osalThreadResumeI:0000000000000000 osalThreadResumeI
     /tmp/ccXqF3yr.s:274    .text.osalThreadResumeS:0000000000000000 $t
     /tmp/ccXqF3yr.s:279    .text.osalThreadResumeS:0000000000000000 osalThreadResumeS
     /tmp/ccXqF3yr.s:304    .text.osalMutexObjectInit:0000000000000000 $t
     /tmp/ccXqF3yr.s:309    .text.osalMutexObjectInit:0000000000000000 osalMutexObjectInit
     /tmp/ccXqF3yr.s:332    .text.osalMutexLock:0000000000000000 $t
     /tmp/ccXqF3yr.s:337    .text.osalMutexLock:0000000000000000 osalMutexLock
     /tmp/ccXqF3yr.s:360    .text.osalMutexUnlock:0000000000000000 $t
     /tmp/ccXqF3yr.s:365    .text.osalMutexUnlock:0000000000000000 osalMutexUnlock
     /tmp/ccXqF3yr.s:388    .text.adcInit:0000000000000000 $t
     /tmp/ccXqF3yr.s:394    .text.adcInit:0000000000000000 adcInit
     /tmp/ccXqF3yr.s:413    .text.adcObjectInit:0000000000000000 $t
     /tmp/ccXqF3yr.s:419    .text.adcObjectInit:0000000000000000 adcObjectInit
     /tmp/ccXqF3yr.s:468    .text.adcStart:0000000000000000 $t
     /tmp/ccXqF3yr.s:474    .text.adcStart:0000000000000000 adcStart
     /tmp/ccXqF3yr.s:530    .text.adcStart:000000000000004c $d
     /tmp/ccXqF3yr.s:1036   .rodata.__func__.7147:0000000000000000 __func__.7147
     /tmp/ccXqF3yr.s:535    .text.adcStop:0000000000000000 $t
     /tmp/ccXqF3yr.s:541    .text.adcStop:0000000000000000 adcStop
     /tmp/ccXqF3yr.s:592    .text.adcStop:0000000000000044 $d
     /tmp/ccXqF3yr.s:1048   .rodata.__func__.7151:0000000000000000 __func__.7151
     /tmp/ccXqF3yr.s:597    .text.adcStartConversion:0000000000000000 $t
     /tmp/ccXqF3yr.s:603    .text.adcStartConversion:0000000000000000 adcStartConversion
     /tmp/ccXqF3yr.s:642    .text.adcStartConversionI:0000000000000000 adcStartConversionI
     /tmp/ccXqF3yr.s:636    .text.adcStartConversionI:0000000000000000 $t
     /tmp/ccXqF3yr.s:724    .text.adcStartConversionI:000000000000007c $d
     /tmp/ccXqF3yr.s:1054   .rodata.__func__.7164:0000000000000000 __func__.7164
     /tmp/ccXqF3yr.s:729    .text.adcStopConversion:0000000000000000 $t
     /tmp/ccXqF3yr.s:735    .text.adcStopConversion:0000000000000000 adcStopConversion
     /tmp/ccXqF3yr.s:802    .text.adcStopConversion:0000000000000060 $d
     /tmp/ccXqF3yr.s:1060   .rodata.__func__.7168:0000000000000000 __func__.7168
     /tmp/ccXqF3yr.s:807    .text.adcStopConversionI:0000000000000000 $t
     /tmp/ccXqF3yr.s:813    .text.adcStopConversionI:0000000000000000 adcStopConversionI
     /tmp/ccXqF3yr.s:881    .text.adcStopConversionI:0000000000000064 $d
     /tmp/ccXqF3yr.s:1066   .rodata.__func__.7172:0000000000000000 __func__.7172
     /tmp/ccXqF3yr.s:886    .text.adcConvert:0000000000000000 $t
     /tmp/ccXqF3yr.s:892    .text.adcConvert:0000000000000000 adcConvert
     /tmp/ccXqF3yr.s:942    .text.adcConvert:0000000000000044 $d
ARM GAS  /tmp/ccXqF3yr.s 			page 90


     /tmp/ccXqF3yr.s:1072   .rodata.__func__.7180:0000000000000000 __func__.7180
     /tmp/ccXqF3yr.s:947    .text.adcAcquireBus:0000000000000000 $t
     /tmp/ccXqF3yr.s:953    .text.adcAcquireBus:0000000000000000 adcAcquireBus
     /tmp/ccXqF3yr.s:985    .text.adcAcquireBus:0000000000000024 $d
     /tmp/ccXqF3yr.s:1078   .rodata.__func__.7184:0000000000000000 __func__.7184
     /tmp/ccXqF3yr.s:990    .text.adcReleaseBus:0000000000000000 $t
     /tmp/ccXqF3yr.s:996    .text.adcReleaseBus:0000000000000000 adcReleaseBus
     /tmp/ccXqF3yr.s:1028   .text.adcReleaseBus:0000000000000024 $d
     /tmp/ccXqF3yr.s:1084   .rodata.__func__.7188:0000000000000000 __func__.7188
     /tmp/ccXqF3yr.s:1033   .rodata.__func__.7147:0000000000000000 $d
     /tmp/ccXqF3yr.s:1039   .rodata.__func__.5925:0000000000000000 $d
     /tmp/ccXqF3yr.s:1045   .rodata.__func__.7151:0000000000000000 $d
     /tmp/ccXqF3yr.s:1051   .rodata.__func__.7164:0000000000000000 $d
     /tmp/ccXqF3yr.s:1057   .rodata.__func__.7168:0000000000000000 $d
     /tmp/ccXqF3yr.s:1063   .rodata.__func__.7172:0000000000000000 $d
     /tmp/ccXqF3yr.s:1069   .rodata.__func__.7180:0000000000000000 $d
     /tmp/ccXqF3yr.s:1075   .rodata.__func__.7184:0000000000000000 $d
     /tmp/ccXqF3yr.s:1081   .rodata.__func__.7188:0000000000000000 $d
                     .debug_frame:0000000000000010 $d
     /tmp/ccXqF3yr.s:166    .text.chSysUnlock:0000000000000038 $t
     /tmp/ccXqF3yr.s:596    .text.adcStop:0000000000000048 $t
     /tmp/ccXqF3yr.s:806    .text.adcStopConversion:0000000000000064 $t
     /tmp/ccXqF3yr.s:885    .text.adcStopConversionI:0000000000000068 $t
     /tmp/ccXqF3yr.s:946    .text.adcConvert:0000000000000048 $t
     /tmp/ccXqF3yr.s:989    .text.adcAcquireBus:0000000000000028 $t
     /tmp/ccXqF3yr.s:1032   .text.adcReleaseBus:0000000000000028 $t

UNDEFINED SYMBOLS
_stats_start_measure_crit_thd
_dbg_check_lock
_dbg_check_unlock
_stats_stop_measure_crit_thd
chSysHalt
ch
chThdSuspendS
chThdResumeI
chThdResumeS
chMtxObjectInit
chMtxLock
chMtxUnlock
adc_lld_init
adc_lld_start
adc_lld_stop
chDbgCheckClassI
adc_lld_start_conversion
adc_lld_stop_conversion
