ARM GAS  /tmp/ccXqF3yr.s 			page 1


   1              		.syntax unified
   2              		.cpu cortex-m4
   3              		.fpu softvfp
   4              		.eabi_attribute 20, 1
   5              		.eabi_attribute 21, 1
   6              		.eabi_attribute 23, 3
   7              		.eabi_attribute 24, 1
   8              		.eabi_attribute 25, 1
   9              		.eabi_attribute 26, 1
  10              		.eabi_attribute 30, 6
  11              		.eabi_attribute 34, 1
  12              		.eabi_attribute 18, 4
  13              		.thumb
  14              		.file	"adc.c"
  15              		.text
  16              	.Ltext0:
  17              		.cfi_sections	.debug_frame
  18              		.section	.text.port_lock,"ax",%progbits
  19              		.align	2
  20              		.p2align 4,,15
  21              		.thumb
  22              		.thumb_func
  23              		.type	port_lock, %function
  24              	port_lock:
  25              	.LFB127:
  26              		.file 1 "/home/efe/ChibiOS/os/rt/ports/ARMCMx/chcore_v7m.h"
  27              		.loc 1 456 0
  28              		.cfi_startproc
  29              		@ args = 0, pretend = 0, frame = 8
  30              		@ frame_needed = 0, uses_anonymous_args = 0
  31              		@ link register save eliminated.
  32 0000 82B0     		sub	sp, sp, #8
  33              		.cfi_def_cfa_offset 8
  34 0002 2023     		movs	r3, #32
  35 0004 0193     		str	r3, [sp, #4]
  36              	.LBB6:
  37              	.LBB7:
  38              		.file 2 "/home/efe/ChibiOS/os/ext/CMSIS/include/core_cmFunc.h"
  39              		.loc 2 548 0
  40 0006 019B     		ldr	r3, [sp, #4]
  41              	@ 548 "/home/efe/ChibiOS/os/ext/CMSIS/include/core_cmFunc.h" 1
  42 0008 83F31188 		MSR basepri, r3
  43              	@ 0 "" 2
  44              		.thumb
  45              	.LBE7:
  46              	.LBE6:
  47              		.loc 1 463 0
  48 000c 02B0     		add	sp, sp, #8
  49              		@ sp needed
  50 000e 7047     		bx	lr
  51              		.cfi_endproc
  52              	.LFE127:
  53              		.size	port_lock, .-port_lock
  54              		.section	.text.port_unlock,"ax",%progbits
  55              		.align	2
  56              		.p2align 4,,15
  57              		.thumb
ARM GAS  /tmp/ccXqF3yr.s 			page 2


  58              		.thumb_func
  59              		.type	port_unlock, %function
  60              	port_unlock:
  61              	.LFB128:
  62              		.loc 1 470 0
  63              		.cfi_startproc
  64              		@ args = 0, pretend = 0, frame = 8
  65              		@ frame_needed = 0, uses_anonymous_args = 0
  66              		@ link register save eliminated.
  67 0000 82B0     		sub	sp, sp, #8
  68              		.cfi_def_cfa_offset 8
  69 0002 0023     		movs	r3, #0
  70 0004 0193     		str	r3, [sp, #4]
  71              	.LBB8:
  72              	.LBB9:
  73              		.loc 2 548 0
  74 0006 019B     		ldr	r3, [sp, #4]
  75              	@ 548 "/home/efe/ChibiOS/os/ext/CMSIS/include/core_cmFunc.h" 1
  76 0008 83F31188 		MSR basepri, r3
  77              	@ 0 "" 2
  78              		.thumb
  79              	.LBE9:
  80              	.LBE8:
  81              		.loc 1 477 0
  82 000c 02B0     		add	sp, sp, #8
  83              		@ sp needed
  84 000e 7047     		bx	lr
  85              		.cfi_endproc
  86              	.LFE128:
  87              		.size	port_unlock, .-port_unlock
  88              		.section	.text.chSysLock,"ax",%progbits
  89              		.align	2
  90              		.p2align 4,,15
  91              		.thumb
  92              		.thumb_func
  93              		.type	chSysLock, %function
  94              	chSysLock:
  95              	.LFB167:
  96              		.file 3 "/home/efe/ChibiOS/os/rt/include/chsys.h"
  97              		.loc 3 346 0
  98              		.cfi_startproc
  99              		@ args = 0, pretend = 0, frame = 0
 100              		@ frame_needed = 0, uses_anonymous_args = 0
 101 0000 08B5     		push	{r3, lr}
 102              		.cfi_def_cfa_offset 8
 103              		.cfi_offset 3, -8
 104              		.cfi_offset 14, -4
 105              		.loc 3 348 0
 106 0002 FFF7FEFF 		bl	port_lock
 107              		.loc 3 349 0
 108 0006 FFF7FEFF 		bl	_stats_start_measure_crit_thd
 109              		.loc 3 350 0
 110 000a FFF7FEFF 		bl	_dbg_check_lock
 111              		.loc 3 351 0
 112 000e 08BD     		pop	{r3, pc}
 113              		.cfi_endproc
 114              	.LFE167:
ARM GAS  /tmp/ccXqF3yr.s 			page 3


 115              		.size	chSysLock, .-chSysLock
 116              		.section	.text.chSysUnlock,"ax",%progbits
 117              		.align	2
 118              		.p2align 4,,15
 119              		.thumb
 120              		.thumb_func
 121              		.type	chSysUnlock, %function
 122              	chSysUnlock:
 123              	.LFB168:
 124              		.loc 3 358 0
 125              		.cfi_startproc
 126              		@ args = 0, pretend = 0, frame = 0
 127              		@ frame_needed = 0, uses_anonymous_args = 0
 128 0000 08B5     		push	{r3, lr}
 129              		.cfi_def_cfa_offset 8
 130              		.cfi_offset 3, -8
 131              		.cfi_offset 14, -4
 132              		.loc 3 360 0
 133 0002 FFF7FEFF 		bl	_dbg_check_unlock
 134              		.loc 3 361 0
 135 0006 FFF7FEFF 		bl	_stats_stop_measure_crit_thd
 136              		.loc 3 367 0
 137 000a 094B     		ldr	r3, .L6
 138 000c 1A68     		ldr	r2, [r3]
 139 000e 084B     		ldr	r3, .L6
 140 0010 9A42     		cmp	r2, r3
 141 0012 0AD0     		beq	.L5
 142              		.loc 3 367 0 is_stmt 0 discriminator 1
 143 0014 064B     		ldr	r3, .L6
 144 0016 9B69     		ldr	r3, [r3, #24]
 145 0018 9A68     		ldr	r2, [r3, #8]
 146 001a 054B     		ldr	r3, .L6
 147 001c 1B68     		ldr	r3, [r3]
 148 001e 9B68     		ldr	r3, [r3, #8]
 149 0020 9A42     		cmp	r2, r3
 150 0022 02D2     		bcs	.L5
 151 0024 0348     		ldr	r0, .L6+4
 152 0026 FFF7FEFF 		bl	chSysHalt
 153              	.L5:
 154              		.loc 3 371 0 is_stmt 1
 155 002a FFF7FEFF 		bl	port_unlock
 156              		.loc 3 372 0
 157 002e 08BD     		pop	{r3, pc}
 158              	.L7:
 159              		.align	2
 160              	.L6:
 161 0030 00000000 		.word	ch
 162 0034 00000000 		.word	__func__.5925
 163              		.cfi_endproc
 164              	.LFE168:
 165              		.size	chSysUnlock, .-chSysUnlock
 166 0038 AFF30080 		.section	.text.osalSysLock,"ax",%progbits
 166      AFF30080 
 167              		.align	2
 168              		.p2align 4,,15
 169              		.thumb
 170              		.thumb_func
ARM GAS  /tmp/ccXqF3yr.s 			page 4


 171              		.type	osalSysLock, %function
 172              	osalSysLock:
 173              	.LFB244:
 174              		.file 4 "/home/efe/ChibiOS/os/hal/osal/rt/osal.h"
 175              		.loc 4 491 0
 176              		.cfi_startproc
 177              		@ args = 0, pretend = 0, frame = 0
 178              		@ frame_needed = 0, uses_anonymous_args = 0
 179 0000 08B5     		push	{r3, lr}
 180              		.cfi_def_cfa_offset 8
 181              		.cfi_offset 3, -8
 182              		.cfi_offset 14, -4
 183              		.loc 4 493 0
 184 0002 FFF7FEFF 		bl	chSysLock
 185              		.loc 4 494 0
 186 0006 08BD     		pop	{r3, pc}
 187              		.cfi_endproc
 188              	.LFE244:
 189              		.size	osalSysLock, .-osalSysLock
 190 0008 AFF30080 		.section	.text.osalSysUnlock,"ax",%progbits
 190      AFF30080 
 191              		.align	2
 192              		.p2align 4,,15
 193              		.thumb
 194              		.thumb_func
 195              		.type	osalSysUnlock, %function
 196              	osalSysUnlock:
 197              	.LFB245:
 198              		.loc 4 502 0
 199              		.cfi_startproc
 200              		@ args = 0, pretend = 0, frame = 0
 201              		@ frame_needed = 0, uses_anonymous_args = 0
 202 0000 08B5     		push	{r3, lr}
 203              		.cfi_def_cfa_offset 8
 204              		.cfi_offset 3, -8
 205              		.cfi_offset 14, -4
 206              		.loc 4 504 0
 207 0002 FFF7FEFF 		bl	chSysUnlock
 208              		.loc 4 505 0
 209 0006 08BD     		pop	{r3, pc}
 210              		.cfi_endproc
 211              	.LFE245:
 212              		.size	osalSysUnlock, .-osalSysUnlock
 213 0008 AFF30080 		.section	.text.osalThreadSuspendS,"ax",%progbits
 213      AFF30080 
 214              		.align	2
 215              		.p2align 4,,15
 216              		.thumb
 217              		.thumb_func
 218              		.type	osalThreadSuspendS, %function
 219              	osalThreadSuspendS:
 220              	.LFB257:
 221              		.loc 4 686 0
 222              		.cfi_startproc
 223              		@ args = 0, pretend = 0, frame = 8
 224              		@ frame_needed = 0, uses_anonymous_args = 0
 225 0000 00B5     		push	{lr}
ARM GAS  /tmp/ccXqF3yr.s 			page 5


 226              		.cfi_def_cfa_offset 4
 227              		.cfi_offset 14, -4
 228 0002 83B0     		sub	sp, sp, #12
 229              		.cfi_def_cfa_offset 16
 230 0004 0190     		str	r0, [sp, #4]
 231              		.loc 4 688 0
 232 0006 0198     		ldr	r0, [sp, #4]
 233 0008 FFF7FEFF 		bl	chThdSuspendS
 234 000c 0346     		mov	r3, r0
 235              		.loc 4 689 0
 236 000e 1846     		mov	r0, r3
 237 0010 03B0     		add	sp, sp, #12
 238              		@ sp needed
 239 0012 5DF804FB 		ldr	pc, [sp], #4
 240              		.cfi_endproc
 241              	.LFE257:
 242              		.size	osalThreadSuspendS, .-osalThreadSuspendS
 243 0016 00BFAFF3 		.section	.text.osalThreadResumeI,"ax",%progbits
 243      0080AFF3 
 243      0080
 244              		.align	2
 245              		.p2align 4,,15
 246              		.thumb
 247              		.thumb_func
 248              		.type	osalThreadResumeI, %function
 249              	osalThreadResumeI:
 250              	.LFB259:
 251              		.loc 4 726 0
 252              		.cfi_startproc
 253              		@ args = 0, pretend = 0, frame = 8
 254              		@ frame_needed = 0, uses_anonymous_args = 0
 255 0000 00B5     		push	{lr}
 256              		.cfi_def_cfa_offset 4
 257              		.cfi_offset 14, -4
 258 0002 83B0     		sub	sp, sp, #12
 259              		.cfi_def_cfa_offset 16
 260 0004 0190     		str	r0, [sp, #4]
 261 0006 0091     		str	r1, [sp]
 262              		.loc 4 728 0
 263 0008 0198     		ldr	r0, [sp, #4]
 264 000a 0099     		ldr	r1, [sp]
 265 000c FFF7FEFF 		bl	chThdResumeI
 266              		.loc 4 729 0
 267 0010 03B0     		add	sp, sp, #12
 268              		@ sp needed
 269 0012 5DF804FB 		ldr	pc, [sp], #4
 270              		.cfi_endproc
 271              	.LFE259:
 272              		.size	osalThreadResumeI, .-osalThreadResumeI
 273 0016 00BFAFF3 		.section	.text.osalThreadResumeS,"ax",%progbits
 273      0080AFF3 
 273      0080
 274              		.align	2
 275              		.p2align 4,,15
 276              		.thumb
 277              		.thumb_func
 278              		.type	osalThreadResumeS, %function
ARM GAS  /tmp/ccXqF3yr.s 			page 6


 279              	osalThreadResumeS:
 280              	.LFB260:
 281              		.loc 4 741 0
 282              		.cfi_startproc
 283              		@ args = 0, pretend = 0, frame = 8
 284              		@ frame_needed = 0, uses_anonymous_args = 0
 285 0000 00B5     		push	{lr}
 286              		.cfi_def_cfa_offset 4
 287              		.cfi_offset 14, -4
 288 0002 83B0     		sub	sp, sp, #12
 289              		.cfi_def_cfa_offset 16
 290 0004 0190     		str	r0, [sp, #4]
 291 0006 0091     		str	r1, [sp]
 292              		.loc 4 743 0
 293 0008 0198     		ldr	r0, [sp, #4]
 294 000a 0099     		ldr	r1, [sp]
 295 000c FFF7FEFF 		bl	chThdResumeS
 296              		.loc 4 744 0
 297 0010 03B0     		add	sp, sp, #12
 298              		@ sp needed
 299 0012 5DF804FB 		ldr	pc, [sp], #4
 300              		.cfi_endproc
 301              	.LFE260:
 302              		.size	osalThreadResumeS, .-osalThreadResumeS
 303 0016 00BFAFF3 		.section	.text.osalMutexObjectInit,"ax",%progbits
 303      0080AFF3 
 303      0080
 304              		.align	2
 305              		.p2align 4,,15
 306              		.thumb
 307              		.thumb_func
 308              		.type	osalMutexObjectInit, %function
 309              	osalMutexObjectInit:
 310              	.LFB268:
 311              		.loc 4 884 0
 312              		.cfi_startproc
 313              		@ args = 0, pretend = 0, frame = 8
 314              		@ frame_needed = 0, uses_anonymous_args = 0
 315 0000 00B5     		push	{lr}
 316              		.cfi_def_cfa_offset 4
 317              		.cfi_offset 14, -4
 318 0002 83B0     		sub	sp, sp, #12
 319              		.cfi_def_cfa_offset 16
 320 0004 0190     		str	r0, [sp, #4]
 321              		.loc 4 887 0
 322 0006 0198     		ldr	r0, [sp, #4]
 323 0008 FFF7FEFF 		bl	chMtxObjectInit
 324              		.loc 4 893 0
 325 000c 03B0     		add	sp, sp, #12
 326              		@ sp needed
 327 000e 5DF804FB 		ldr	pc, [sp], #4
 328              		.cfi_endproc
 329              	.LFE268:
 330              		.size	osalMutexObjectInit, .-osalMutexObjectInit
 331 0012 00BFAFF3 		.section	.text.osalMutexLock,"ax",%progbits
 331      0080AFF3 
 331      0080AFF3 
ARM GAS  /tmp/ccXqF3yr.s 			page 7


 331      0080
 332              		.align	2
 333              		.p2align 4,,15
 334              		.thumb
 335              		.thumb_func
 336              		.type	osalMutexLock, %function
 337              	osalMutexLock:
 338              	.LFB269:
 339              		.loc 4 904 0
 340              		.cfi_startproc
 341              		@ args = 0, pretend = 0, frame = 8
 342              		@ frame_needed = 0, uses_anonymous_args = 0
 343 0000 00B5     		push	{lr}
 344              		.cfi_def_cfa_offset 4
 345              		.cfi_offset 14, -4
 346 0002 83B0     		sub	sp, sp, #12
 347              		.cfi_def_cfa_offset 16
 348 0004 0190     		str	r0, [sp, #4]
 349              		.loc 4 907 0
 350 0006 0198     		ldr	r0, [sp, #4]
 351 0008 FFF7FEFF 		bl	chMtxLock
 352              		.loc 4 913 0
 353 000c 03B0     		add	sp, sp, #12
 354              		@ sp needed
 355 000e 5DF804FB 		ldr	pc, [sp], #4
 356              		.cfi_endproc
 357              	.LFE269:
 358              		.size	osalMutexLock, .-osalMutexLock
 359 0012 00BFAFF3 		.section	.text.osalMutexUnlock,"ax",%progbits
 359      0080AFF3 
 359      0080AFF3 
 359      0080
 360              		.align	2
 361              		.p2align 4,,15
 362              		.thumb
 363              		.thumb_func
 364              		.type	osalMutexUnlock, %function
 365              	osalMutexUnlock:
 366              	.LFB270:
 367              		.loc 4 928 0
 368              		.cfi_startproc
 369              		@ args = 0, pretend = 0, frame = 8
 370              		@ frame_needed = 0, uses_anonymous_args = 0
 371 0000 00B5     		push	{lr}
 372              		.cfi_def_cfa_offset 4
 373              		.cfi_offset 14, -4
 374 0002 83B0     		sub	sp, sp, #12
 375              		.cfi_def_cfa_offset 16
 376 0004 0190     		str	r0, [sp, #4]
 377              		.loc 4 931 0
 378 0006 0198     		ldr	r0, [sp, #4]
 379 0008 FFF7FEFF 		bl	chMtxUnlock
 380              		.loc 4 937 0
 381 000c 03B0     		add	sp, sp, #12
 382              		@ sp needed
 383 000e 5DF804FB 		ldr	pc, [sp], #4
 384              		.cfi_endproc
ARM GAS  /tmp/ccXqF3yr.s 			page 8


 385              	.LFE270:
 386              		.size	osalMutexUnlock, .-osalMutexUnlock
 387 0012 00BFAFF3 		.section	.text.adcInit,"ax",%progbits
 387      0080AFF3 
 387      0080AFF3 
 387      0080
 388              		.align	2
 389              		.p2align 4,,15
 390              		.global	adcInit
 391              		.thumb
 392              		.thumb_func
 393              		.type	adcInit, %function
 394              	adcInit:
 395              	.LFB271:
 396              		.file 5 "/home/efe/ChibiOS/os/hal/src/adc.c"
 397              		.loc 5 56 0
 398              		.cfi_startproc
 399              		@ args = 0, pretend = 0, frame = 0
 400              		@ frame_needed = 0, uses_anonymous_args = 0
 401 0000 08B5     		push	{r3, lr}
 402              		.cfi_def_cfa_offset 8
 403              		.cfi_offset 3, -8
 404              		.cfi_offset 14, -4
 405              		.loc 5 58 0
 406 0002 FFF7FEFF 		bl	adc_lld_init
 407              		.loc 5 59 0
 408 0006 08BD     		pop	{r3, pc}
 409              		.cfi_endproc
 410              	.LFE271:
 411              		.size	adcInit, .-adcInit
 412 0008 AFF30080 		.section	.text.adcObjectInit,"ax",%progbits
 412      AFF30080 
 413              		.align	2
 414              		.p2align 4,,15
 415              		.global	adcObjectInit
 416              		.thumb
 417              		.thumb_func
 418              		.type	adcObjectInit, %function
 419              	adcObjectInit:
 420              	.LFB272:
 421              		.loc 5 68 0
 422              		.cfi_startproc
 423              		@ args = 0, pretend = 0, frame = 8
 424              		@ frame_needed = 0, uses_anonymous_args = 0
 425 0000 00B5     		push	{lr}
 426              		.cfi_def_cfa_offset 4
 427              		.cfi_offset 14, -4
 428 0002 83B0     		sub	sp, sp, #12
 429              		.cfi_def_cfa_offset 16
 430 0004 0190     		str	r0, [sp, #4]
 431              		.loc 5 70 0
 432 0006 019B     		ldr	r3, [sp, #4]
 433 0008 0122     		movs	r2, #1
 434 000a 1A70     		strb	r2, [r3]
 435              		.loc 5 71 0
 436 000c 019B     		ldr	r3, [sp, #4]
 437 000e 0022     		movs	r2, #0
ARM GAS  /tmp/ccXqF3yr.s 			page 9


 438 0010 5A60     		str	r2, [r3, #4]
 439              		.loc 5 72 0
 440 0012 019B     		ldr	r3, [sp, #4]
 441 0014 0022     		movs	r2, #0
 442 0016 9A60     		str	r2, [r3, #8]
 443              		.loc 5 73 0
 444 0018 019B     		ldr	r3, [sp, #4]
 445 001a 0022     		movs	r2, #0
 446 001c DA60     		str	r2, [r3, #12]
 447              		.loc 5 74 0
 448 001e 019B     		ldr	r3, [sp, #4]
 449 0020 0022     		movs	r2, #0
 450 0022 1A61     		str	r2, [r3, #16]
 451              		.loc 5 76 0
 452 0024 019B     		ldr	r3, [sp, #4]
 453 0026 0022     		movs	r2, #0
 454 0028 5A61     		str	r2, [r3, #20]
 455              		.loc 5 79 0
 456 002a 019B     		ldr	r3, [sp, #4]
 457 002c 1833     		adds	r3, r3, #24
 458 002e 1846     		mov	r0, r3
 459 0030 FFF7FEFF 		bl	osalMutexObjectInit
 460              		.loc 5 84 0
 461 0034 03B0     		add	sp, sp, #12
 462              		@ sp needed
 463 0036 5DF804FB 		ldr	pc, [sp], #4
 464              		.cfi_endproc
 465              	.LFE272:
 466              		.size	adcObjectInit, .-adcObjectInit
 467              		.section	.text.adcStart,"ax",%progbits
 468              		.align	2
 469              		.p2align 4,,15
 470              		.global	adcStart
 471              		.thumb
 472              		.thumb_func
 473              		.type	adcStart, %function
 474              	adcStart:
 475              	.LFB273:
 476              		.loc 5 95 0
 477              		.cfi_startproc
 478              		@ args = 0, pretend = 0, frame = 8
 479              		@ frame_needed = 0, uses_anonymous_args = 0
 480 0000 00B5     		push	{lr}
 481              		.cfi_def_cfa_offset 4
 482              		.cfi_offset 14, -4
 483 0002 83B0     		sub	sp, sp, #12
 484              		.cfi_def_cfa_offset 16
 485 0004 0190     		str	r0, [sp, #4]
 486 0006 0091     		str	r1, [sp]
 487              		.loc 5 97 0
 488 0008 019B     		ldr	r3, [sp, #4]
 489 000a 002B     		cmp	r3, #0
 490 000c 02D1     		bne	.L20
 491              		.loc 5 97 0 is_stmt 0 discriminator 1
 492 000e 0F48     		ldr	r0, .L22
 493 0010 FFF7FEFF 		bl	chSysHalt
 494              	.L20:
ARM GAS  /tmp/ccXqF3yr.s 			page 10


 495              		.loc 5 99 0 is_stmt 1
 496 0014 FFF7FEFF 		bl	osalSysLock
 497              		.loc 5 100 0
 498 0018 019B     		ldr	r3, [sp, #4]
 499 001a 1B78     		ldrb	r3, [r3]	@ zero_extendqisi2
 500 001c 012B     		cmp	r3, #1
 501 001e 06D0     		beq	.L21
 502              		.loc 5 100 0 is_stmt 0 discriminator 1
 503 0020 019B     		ldr	r3, [sp, #4]
 504 0022 1B78     		ldrb	r3, [r3]	@ zero_extendqisi2
 505 0024 022B     		cmp	r3, #2
 506 0026 02D0     		beq	.L21
 507 0028 0848     		ldr	r0, .L22
 508 002a FFF7FEFF 		bl	chSysHalt
 509              	.L21:
 510              		.loc 5 102 0 is_stmt 1
 511 002e 019B     		ldr	r3, [sp, #4]
 512 0030 009A     		ldr	r2, [sp]
 513 0032 5A60     		str	r2, [r3, #4]
 514              		.loc 5 103 0
 515 0034 0198     		ldr	r0, [sp, #4]
 516 0036 FFF7FEFF 		bl	adc_lld_start
 517              		.loc 5 104 0
 518 003a 019B     		ldr	r3, [sp, #4]
 519 003c 0222     		movs	r2, #2
 520 003e 1A70     		strb	r2, [r3]
 521              		.loc 5 105 0
 522 0040 FFF7FEFF 		bl	osalSysUnlock
 523              		.loc 5 106 0
 524 0044 03B0     		add	sp, sp, #12
 525              		@ sp needed
 526 0046 5DF804FB 		ldr	pc, [sp], #4
 527              	.L23:
 528 004a 00BF     		.align	2
 529              	.L22:
 530 004c 00000000 		.word	__func__.7147
 531              		.cfi_endproc
 532              	.LFE273:
 533              		.size	adcStart, .-adcStart
 534              		.section	.text.adcStop,"ax",%progbits
 535              		.align	2
 536              		.p2align 4,,15
 537              		.global	adcStop
 538              		.thumb
 539              		.thumb_func
 540              		.type	adcStop, %function
 541              	adcStop:
 542              	.LFB274:
 543              		.loc 5 115 0
 544              		.cfi_startproc
 545              		@ args = 0, pretend = 0, frame = 8
 546              		@ frame_needed = 0, uses_anonymous_args = 0
 547 0000 00B5     		push	{lr}
 548              		.cfi_def_cfa_offset 4
 549              		.cfi_offset 14, -4
 550 0002 83B0     		sub	sp, sp, #12
 551              		.cfi_def_cfa_offset 16
ARM GAS  /tmp/ccXqF3yr.s 			page 11


 552 0004 0190     		str	r0, [sp, #4]
 553              		.loc 5 117 0
 554 0006 019B     		ldr	r3, [sp, #4]
 555 0008 002B     		cmp	r3, #0
 556 000a 02D1     		bne	.L25
 557              		.loc 5 117 0 is_stmt 0 discriminator 1
 558 000c 0D48     		ldr	r0, .L27
 559 000e FFF7FEFF 		bl	chSysHalt
 560              	.L25:
 561              		.loc 5 119 0 is_stmt 1
 562 0012 FFF7FEFF 		bl	osalSysLock
 563              		.loc 5 120 0
 564 0016 019B     		ldr	r3, [sp, #4]
 565 0018 1B78     		ldrb	r3, [r3]	@ zero_extendqisi2
 566 001a 012B     		cmp	r3, #1
 567 001c 06D0     		beq	.L26
 568              		.loc 5 120 0 is_stmt 0 discriminator 1
 569 001e 019B     		ldr	r3, [sp, #4]
 570 0020 1B78     		ldrb	r3, [r3]	@ zero_extendqisi2
 571 0022 022B     		cmp	r3, #2
 572 0024 02D0     		beq	.L26
 573 0026 0748     		ldr	r0, .L27
 574 0028 FFF7FEFF 		bl	chSysHalt
 575              	.L26:
 576              		.loc 5 122 0 is_stmt 1
 577 002c 0198     		ldr	r0, [sp, #4]
 578 002e FFF7FEFF 		bl	adc_lld_stop
 579              		.loc 5 123 0
 580 0032 019B     		ldr	r3, [sp, #4]
 581 0034 0122     		movs	r2, #1
 582 0036 1A70     		strb	r2, [r3]
 583              		.loc 5 124 0
 584 0038 FFF7FEFF 		bl	osalSysUnlock
 585              		.loc 5 125 0
 586 003c 03B0     		add	sp, sp, #12
 587              		@ sp needed
 588 003e 5DF804FB 		ldr	pc, [sp], #4
 589              	.L28:
 590 0042 00BF     		.align	2
 591              	.L27:
 592 0044 00000000 		.word	__func__.7151
 593              		.cfi_endproc
 594              	.LFE274:
 595              		.size	adcStop, .-adcStop
 596 0048 AFF30080 		.section	.text.adcStartConversion,"ax",%progbits
 596      AFF30080 
 597              		.align	2
 598              		.p2align 4,,15
 599              		.global	adcStartConversion
 600              		.thumb
 601              		.thumb_func
 602              		.type	adcStartConversion, %function
 603              	adcStartConversion:
 604              	.LFB275:
 605              		.loc 5 146 0
 606              		.cfi_startproc
 607              		@ args = 0, pretend = 0, frame = 16
ARM GAS  /tmp/ccXqF3yr.s 			page 12


 608              		@ frame_needed = 0, uses_anonymous_args = 0
 609 0000 00B5     		push	{lr}
 610              		.cfi_def_cfa_offset 4
 611              		.cfi_offset 14, -4
 612 0002 85B0     		sub	sp, sp, #20
 613              		.cfi_def_cfa_offset 24
 614 0004 0390     		str	r0, [sp, #12]
 615 0006 0291     		str	r1, [sp, #8]
 616 0008 0192     		str	r2, [sp, #4]
 617 000a 0093     		str	r3, [sp]
 618              		.loc 5 148 0
 619 000c FFF7FEFF 		bl	osalSysLock
 620              		.loc 5 149 0
 621 0010 0398     		ldr	r0, [sp, #12]
 622 0012 0299     		ldr	r1, [sp, #8]
 623 0014 019A     		ldr	r2, [sp, #4]
 624 0016 009B     		ldr	r3, [sp]
 625 0018 FFF7FEFF 		bl	adcStartConversionI
 626              		.loc 5 150 0
 627 001c FFF7FEFF 		bl	osalSysUnlock
 628              		.loc 5 151 0
 629 0020 05B0     		add	sp, sp, #20
 630              		@ sp needed
 631 0022 5DF804FB 		ldr	pc, [sp], #4
 632              		.cfi_endproc
 633              	.LFE275:
 634              		.size	adcStartConversion, .-adcStartConversion
 635 0026 00BFAFF3 		.section	.text.adcStartConversionI,"ax",%progbits
 635      0080AFF3 
 635      0080
 636              		.align	2
 637              		.p2align 4,,15
 638              		.global	adcStartConversionI
 639              		.thumb
 640              		.thumb_func
 641              		.type	adcStartConversionI, %function
 642              	adcStartConversionI:
 643              	.LFB276:
 644              		.loc 5 174 0
 645              		.cfi_startproc
 646              		@ args = 0, pretend = 0, frame = 16
 647              		@ frame_needed = 0, uses_anonymous_args = 0
 648 0000 00B5     		push	{lr}
 649              		.cfi_def_cfa_offset 4
 650              		.cfi_offset 14, -4
 651 0002 85B0     		sub	sp, sp, #20
 652              		.cfi_def_cfa_offset 24
 653 0004 0390     		str	r0, [sp, #12]
 654 0006 0291     		str	r1, [sp, #8]
 655 0008 0192     		str	r2, [sp, #4]
 656 000a 0093     		str	r3, [sp]
 657              		.loc 5 176 0
 658 000c FFF7FEFF 		bl	chDbgCheckClassI
 659              		.loc 5 177 0
 660 0010 039B     		ldr	r3, [sp, #12]
 661 0012 002B     		cmp	r3, #0
 662 0014 0DD0     		beq	.L31
ARM GAS  /tmp/ccXqF3yr.s 			page 13


 663              		.loc 5 177 0 is_stmt 0 discriminator 2
 664 0016 029B     		ldr	r3, [sp, #8]
 665 0018 002B     		cmp	r3, #0
 666 001a 0AD0     		beq	.L31
 667              		.loc 5 177 0 discriminator 1
 668 001c 019B     		ldr	r3, [sp, #4]
 669 001e 002B     		cmp	r3, #0
 670 0020 07D0     		beq	.L31
 671 0022 009B     		ldr	r3, [sp]
 672 0024 012B     		cmp	r3, #1
 673 0026 07D0     		beq	.L34
 674 0028 009B     		ldr	r3, [sp]
 675 002a 03F00103 		and	r3, r3, #1
 676 002e 002B     		cmp	r3, #0
 677 0030 02D0     		beq	.L34
 678              	.L31:
 679 0032 1248     		ldr	r0, .L35
 680 0034 FFF7FEFF 		bl	chSysHalt
 681              	.L34:
 682              		.loc 5 179 0 is_stmt 1 discriminator 1
 683 0038 039B     		ldr	r3, [sp, #12]
 684 003a 1B78     		ldrb	r3, [r3]	@ zero_extendqisi2
 685 003c 022B     		cmp	r3, #2
 686 003e 0AD0     		beq	.L33
 687 0040 039B     		ldr	r3, [sp, #12]
 688 0042 1B78     		ldrb	r3, [r3]	@ zero_extendqisi2
 689 0044 042B     		cmp	r3, #4
 690 0046 06D0     		beq	.L33
 691 0048 039B     		ldr	r3, [sp, #12]
 692 004a 1B78     		ldrb	r3, [r3]	@ zero_extendqisi2
 693 004c 052B     		cmp	r3, #5
 694 004e 02D0     		beq	.L33
 695 0050 0A48     		ldr	r0, .L35
 696 0052 FFF7FEFF 		bl	chSysHalt
 697              	.L33:
 698              		.loc 5 184 0
 699 0056 039B     		ldr	r3, [sp, #12]
 700 0058 019A     		ldr	r2, [sp, #4]
 701 005a 9A60     		str	r2, [r3, #8]
 702              		.loc 5 185 0
 703 005c 039B     		ldr	r3, [sp, #12]
 704 005e 009A     		ldr	r2, [sp]
 705 0060 DA60     		str	r2, [r3, #12]
 706              		.loc 5 186 0
 707 0062 039B     		ldr	r3, [sp, #12]
 708 0064 029A     		ldr	r2, [sp, #8]
 709 0066 1A61     		str	r2, [r3, #16]
 710              		.loc 5 187 0
 711 0068 039B     		ldr	r3, [sp, #12]
 712 006a 0322     		movs	r2, #3
 713 006c 1A70     		strb	r2, [r3]
 714              		.loc 5 188 0
 715 006e 0398     		ldr	r0, [sp, #12]
 716 0070 FFF7FEFF 		bl	adc_lld_start_conversion
 717              		.loc 5 189 0
 718 0074 05B0     		add	sp, sp, #20
 719              		@ sp needed
ARM GAS  /tmp/ccXqF3yr.s 			page 14


 720 0076 5DF804FB 		ldr	pc, [sp], #4
 721              	.L36:
 722 007a 00BF     		.align	2
 723              	.L35:
 724 007c 00000000 		.word	__func__.7164
 725              		.cfi_endproc
 726              	.LFE276:
 727              		.size	adcStartConversionI, .-adcStartConversionI
 728              		.section	.text.adcStopConversion,"ax",%progbits
 729              		.align	2
 730              		.p2align 4,,15
 731              		.global	adcStopConversion
 732              		.thumb
 733              		.thumb_func
 734              		.type	adcStopConversion, %function
 735              	adcStopConversion:
 736              	.LFB277:
 737              		.loc 5 201 0
 738              		.cfi_startproc
 739              		@ args = 0, pretend = 0, frame = 8
 740              		@ frame_needed = 0, uses_anonymous_args = 0
 741 0000 00B5     		push	{lr}
 742              		.cfi_def_cfa_offset 4
 743              		.cfi_offset 14, -4
 744 0002 83B0     		sub	sp, sp, #12
 745              		.cfi_def_cfa_offset 16
 746 0004 0190     		str	r0, [sp, #4]
 747              		.loc 5 203 0
 748 0006 019B     		ldr	r3, [sp, #4]
 749 0008 002B     		cmp	r3, #0
 750 000a 02D1     		bne	.L38
 751              		.loc 5 203 0 is_stmt 0 discriminator 1
 752 000c 1448     		ldr	r0, .L41
 753 000e FFF7FEFF 		bl	chSysHalt
 754              	.L38:
 755              		.loc 5 205 0 is_stmt 1
 756 0012 FFF7FEFF 		bl	osalSysLock
 757              		.loc 5 206 0
 758 0016 019B     		ldr	r3, [sp, #4]
 759 0018 1B78     		ldrb	r3, [r3]	@ zero_extendqisi2
 760 001a 022B     		cmp	r3, #2
 761 001c 06D0     		beq	.L39
 762              		.loc 5 206 0 is_stmt 0 discriminator 1
 763 001e 019B     		ldr	r3, [sp, #4]
 764 0020 1B78     		ldrb	r3, [r3]	@ zero_extendqisi2
 765 0022 032B     		cmp	r3, #3
 766 0024 02D0     		beq	.L39
 767 0026 0E48     		ldr	r0, .L41
 768 0028 FFF7FEFF 		bl	chSysHalt
 769              	.L39:
 770              		.loc 5 208 0 is_stmt 1
 771 002c 019B     		ldr	r3, [sp, #4]
 772 002e 1B78     		ldrb	r3, [r3]	@ zero_extendqisi2
 773 0030 022B     		cmp	r3, #2
 774 0032 0FD0     		beq	.L40
 775              		.loc 5 209 0
 776 0034 0198     		ldr	r0, [sp, #4]
ARM GAS  /tmp/ccXqF3yr.s 			page 15


 777 0036 FFF7FEFF 		bl	adc_lld_stop_conversion
 778              		.loc 5 210 0
 779 003a 019B     		ldr	r3, [sp, #4]
 780 003c 0022     		movs	r2, #0
 781 003e 1A61     		str	r2, [r3, #16]
 782              		.loc 5 211 0
 783 0040 019B     		ldr	r3, [sp, #4]
 784 0042 0222     		movs	r2, #2
 785 0044 1A70     		strb	r2, [r3]
 786              		.loc 5 212 0
 787 0046 019B     		ldr	r3, [sp, #4]
 788 0048 1433     		adds	r3, r3, #20
 789 004a 1846     		mov	r0, r3
 790 004c 6FF00101 		mvn	r1, #1
 791 0050 FFF7FEFF 		bl	osalThreadResumeS
 792              	.L40:
 793              		.loc 5 214 0
 794 0054 FFF7FEFF 		bl	osalSysUnlock
 795              		.loc 5 215 0
 796 0058 03B0     		add	sp, sp, #12
 797              		@ sp needed
 798 005a 5DF804FB 		ldr	pc, [sp], #4
 799              	.L42:
 800 005e 00BF     		.align	2
 801              	.L41:
 802 0060 00000000 		.word	__func__.7168
 803              		.cfi_endproc
 804              	.LFE277:
 805              		.size	adcStopConversion, .-adcStopConversion
 806 0064 AFF30080 		.section	.text.adcStopConversionI,"ax",%progbits
 806      AFF30080 
 806      AFF30080 
 807              		.align	2
 808              		.p2align 4,,15
 809              		.global	adcStopConversionI
 810              		.thumb
 811              		.thumb_func
 812              		.type	adcStopConversionI, %function
 813              	adcStopConversionI:
 814              	.LFB278:
 815              		.loc 5 227 0
 816              		.cfi_startproc
 817              		@ args = 0, pretend = 0, frame = 8
 818              		@ frame_needed = 0, uses_anonymous_args = 0
 819 0000 00B5     		push	{lr}
 820              		.cfi_def_cfa_offset 4
 821              		.cfi_offset 14, -4
 822 0002 83B0     		sub	sp, sp, #12
 823              		.cfi_def_cfa_offset 16
 824 0004 0190     		str	r0, [sp, #4]
 825              		.loc 5 229 0
 826 0006 FFF7FEFF 		bl	chDbgCheckClassI
 827              		.loc 5 230 0
 828 000a 019B     		ldr	r3, [sp, #4]
 829 000c 002B     		cmp	r3, #0
 830 000e 02D1     		bne	.L47
 831              		.loc 5 230 0 is_stmt 0 discriminator 1
ARM GAS  /tmp/ccXqF3yr.s 			page 16


 832 0010 1448     		ldr	r0, .L48
 833 0012 FFF7FEFF 		bl	chSysHalt
 834              	.L47:
 835              		.loc 5 231 0 is_stmt 1 discriminator 1
 836 0016 019B     		ldr	r3, [sp, #4]
 837 0018 1B78     		ldrb	r3, [r3]	@ zero_extendqisi2
 838 001a 022B     		cmp	r3, #2
 839 001c 0AD0     		beq	.L45
 840 001e 019B     		ldr	r3, [sp, #4]
 841 0020 1B78     		ldrb	r3, [r3]	@ zero_extendqisi2
 842 0022 032B     		cmp	r3, #3
 843 0024 06D0     		beq	.L45
 844 0026 019B     		ldr	r3, [sp, #4]
 845 0028 1B78     		ldrb	r3, [r3]	@ zero_extendqisi2
 846 002a 042B     		cmp	r3, #4
 847 002c 02D0     		beq	.L45
 848 002e 0D48     		ldr	r0, .L48
 849 0030 FFF7FEFF 		bl	chSysHalt
 850              	.L45:
 851              		.loc 5 236 0
 852 0034 019B     		ldr	r3, [sp, #4]
 853 0036 1B78     		ldrb	r3, [r3]	@ zero_extendqisi2
 854 0038 022B     		cmp	r3, #2
 855 003a 0FD0     		beq	.L43
 856              		.loc 5 237 0
 857 003c 0198     		ldr	r0, [sp, #4]
 858 003e FFF7FEFF 		bl	adc_lld_stop_conversion
 859              		.loc 5 238 0
 860 0042 019B     		ldr	r3, [sp, #4]
 861 0044 0022     		movs	r2, #0
 862 0046 1A61     		str	r2, [r3, #16]
 863              		.loc 5 239 0
 864 0048 019B     		ldr	r3, [sp, #4]
 865 004a 0222     		movs	r2, #2
 866 004c 1A70     		strb	r2, [r3]
 867              		.loc 5 240 0
 868 004e 019B     		ldr	r3, [sp, #4]
 869 0050 1433     		adds	r3, r3, #20
 870 0052 1846     		mov	r0, r3
 871 0054 6FF00101 		mvn	r1, #1
 872 0058 FFF7FEFF 		bl	osalThreadResumeI
 873              	.L43:
 874              		.loc 5 242 0
 875 005c 03B0     		add	sp, sp, #12
 876              		@ sp needed
 877 005e 5DF804FB 		ldr	pc, [sp], #4
 878              	.L49:
 879 0062 00BF     		.align	2
 880              	.L48:
 881 0064 00000000 		.word	__func__.7172
 882              		.cfi_endproc
 883              	.LFE278:
 884              		.size	adcStopConversionI, .-adcStopConversionI
 885 0068 AFF30080 		.section	.text.adcConvert,"ax",%progbits
 885      AFF30080 
 886              		.align	2
 887              		.p2align 4,,15
ARM GAS  /tmp/ccXqF3yr.s 			page 17


 888              		.global	adcConvert
 889              		.thumb
 890              		.thumb_func
 891              		.type	adcConvert, %function
 892              	adcConvert:
 893              	.LFB279:
 894              		.loc 5 271 0
 895              		.cfi_startproc
 896              		@ args = 0, pretend = 0, frame = 24
 897              		@ frame_needed = 0, uses_anonymous_args = 0
 898 0000 00B5     		push	{lr}
 899              		.cfi_def_cfa_offset 4
 900              		.cfi_offset 14, -4
 901 0002 87B0     		sub	sp, sp, #28
 902              		.cfi_def_cfa_offset 32
 903 0004 0390     		str	r0, [sp, #12]
 904 0006 0291     		str	r1, [sp, #8]
 905 0008 0192     		str	r2, [sp, #4]
 906 000a 0093     		str	r3, [sp]
 907              		.loc 5 274 0
 908 000c FFF7FEFF 		bl	osalSysLock
 909              		.loc 5 275 0
 910 0010 039B     		ldr	r3, [sp, #12]
 911 0012 5B69     		ldr	r3, [r3, #20]
 912 0014 002B     		cmp	r3, #0
 913 0016 02D0     		beq	.L51
 914              		.loc 5 275 0 is_stmt 0 discriminator 1
 915 0018 0A48     		ldr	r0, .L53
 916 001a FFF7FEFF 		bl	chSysHalt
 917              	.L51:
 918              		.loc 5 276 0 is_stmt 1
 919 001e 0398     		ldr	r0, [sp, #12]
 920 0020 0299     		ldr	r1, [sp, #8]
 921 0022 019A     		ldr	r2, [sp, #4]
 922 0024 009B     		ldr	r3, [sp]
 923 0026 FFF7FEFF 		bl	adcStartConversionI
 924              		.loc 5 277 0
 925 002a 039B     		ldr	r3, [sp, #12]
 926 002c 1433     		adds	r3, r3, #20
 927 002e 1846     		mov	r0, r3
 928 0030 FFF7FEFF 		bl	osalThreadSuspendS
 929 0034 0590     		str	r0, [sp, #20]
 930              		.loc 5 278 0
 931 0036 FFF7FEFF 		bl	osalSysUnlock
 932              		.loc 5 279 0
 933 003a 059B     		ldr	r3, [sp, #20]
 934              		.loc 5 280 0
 935 003c 1846     		mov	r0, r3
 936 003e 07B0     		add	sp, sp, #28
 937              		@ sp needed
 938 0040 5DF804FB 		ldr	pc, [sp], #4
 939              	.L54:
 940              		.align	2
 941              	.L53:
 942 0044 00000000 		.word	__func__.7180
 943              		.cfi_endproc
 944              	.LFE279:
ARM GAS  /tmp/ccXqF3yr.s 			page 18


 945              		.size	adcConvert, .-adcConvert
 946 0048 AFF30080 		.section	.text.adcAcquireBus,"ax",%progbits
 946      AFF30080 
 947              		.align	2
 948              		.p2align 4,,15
 949              		.global	adcAcquireBus
 950              		.thumb
 951              		.thumb_func
 952              		.type	adcAcquireBus, %function
 953              	adcAcquireBus:
 954              	.LFB280:
 955              		.loc 5 295 0
 956              		.cfi_startproc
 957              		@ args = 0, pretend = 0, frame = 8
 958              		@ frame_needed = 0, uses_anonymous_args = 0
 959 0000 00B5     		push	{lr}
 960              		.cfi_def_cfa_offset 4
 961              		.cfi_offset 14, -4
 962 0002 83B0     		sub	sp, sp, #12
 963              		.cfi_def_cfa_offset 16
 964 0004 0190     		str	r0, [sp, #4]
 965              		.loc 5 297 0
 966 0006 019B     		ldr	r3, [sp, #4]
 967 0008 002B     		cmp	r3, #0
 968 000a 02D1     		bne	.L56
 969              		.loc 5 297 0 is_stmt 0 discriminator 1
 970 000c 0548     		ldr	r0, .L57
 971 000e FFF7FEFF 		bl	chSysHalt
 972              	.L56:
 973              		.loc 5 299 0 is_stmt 1
 974 0012 019B     		ldr	r3, [sp, #4]
 975 0014 1833     		adds	r3, r3, #24
 976 0016 1846     		mov	r0, r3
 977 0018 FFF7FEFF 		bl	osalMutexLock
 978              		.loc 5 300 0
 979 001c 03B0     		add	sp, sp, #12
 980              		@ sp needed
 981 001e 5DF804FB 		ldr	pc, [sp], #4
 982              	.L58:
 983 0022 00BF     		.align	2
 984              	.L57:
 985 0024 00000000 		.word	__func__.7184
 986              		.cfi_endproc
 987              	.LFE280:
 988              		.size	adcAcquireBus, .-adcAcquireBus
 989 0028 AFF30080 		.section	.text.adcReleaseBus,"ax",%progbits
 989      AFF30080 
 990              		.align	2
 991              		.p2align 4,,15
 992              		.global	adcReleaseBus
 993              		.thumb
 994              		.thumb_func
 995              		.type	adcReleaseBus, %function
 996              	adcReleaseBus:
 997              	.LFB281:
 998              		.loc 5 311 0
 999              		.cfi_startproc
ARM GAS  /tmp/ccXqF3yr.s 			page 19


 1000              		@ args = 0, pretend = 0, frame = 8
 1001              		@ frame_needed = 0, uses_anonymous_args = 0
 1002 0000 00B5     		push	{lr}
 1003              		.cfi_def_cfa_offset 4
 1004              		.cfi_offset 14, -4
 1005 0002 83B0     		sub	sp, sp, #12
 1006              		.cfi_def_cfa_offset 16
 1007 0004 0190     		str	r0, [sp, #4]
 1008              		.loc 5 313 0
 1009 0006 019B     		ldr	r3, [sp, #4]
 1010 0008 002B     		cmp	r3, #0
 1011 000a 02D1     		bne	.L60
 1012              		.loc 5 313 0 is_stmt 0 discriminator 1
 1013 000c 0548     		ldr	r0, .L61
 1014 000e FFF7FEFF 		bl	chSysHalt
 1015              	.L60:
 1016              		.loc 5 315 0 is_stmt 1
 1017 0012 019B     		ldr	r3, [sp, #4]
 1018 0014 1833     		adds	r3, r3, #24
 1019 0016 1846     		mov	r0, r3
 1020 0018 FFF7FEFF 		bl	osalMutexUnlock
 1021              		.loc 5 316 0
 1022 001c 03B0     		add	sp, sp, #12
 1023              		@ sp needed
 1024 001e 5DF804FB 		ldr	pc, [sp], #4
 1025              	.L62:
 1026 0022 00BF     		.align	2
 1027              	.L61:
 1028 0024 00000000 		.word	__func__.7188
 1029              		.cfi_endproc
 1030              	.LFE281:
 1031              		.size	adcReleaseBus, .-adcReleaseBus
 1032 0028 AFF30080 		.section	.rodata.__func__.7147,"a",%progbits
 1032      AFF30080 
 1033              		.align	2
 1034              		.type	__func__.7147, %object
 1035              		.size	__func__.7147, 9
 1036              	__func__.7147:
 1037 0000 61646353 		.ascii	"adcStart\000"
 1037      74617274 
 1037      00
 1038 0009 000000   		.section	.rodata.__func__.5925,"a",%progbits
 1039              		.align	2
 1040              		.type	__func__.5925, %object
 1041              		.size	__func__.5925, 12
 1042              	__func__.5925:
 1043 0000 63685379 		.ascii	"chSysUnlock\000"
 1043      73556E6C 
 1043      6F636B00 
 1044              		.section	.rodata.__func__.7151,"a",%progbits
 1045              		.align	2
 1046              		.type	__func__.7151, %object
 1047              		.size	__func__.7151, 8
 1048              	__func__.7151:
 1049 0000 61646353 		.ascii	"adcStop\000"
 1049      746F7000 
 1050              		.section	.rodata.__func__.7164,"a",%progbits
ARM GAS  /tmp/ccXqF3yr.s 			page 20


 1051              		.align	2
 1052              		.type	__func__.7164, %object
 1053              		.size	__func__.7164, 20
 1054              	__func__.7164:
 1055 0000 61646353 		.ascii	"adcStartConversionI\000"
 1055      74617274 
 1055      436F6E76 
 1055      65727369 
 1055      6F6E4900 
 1056              		.section	.rodata.__func__.7168,"a",%progbits
 1057              		.align	2
 1058              		.type	__func__.7168, %object
 1059              		.size	__func__.7168, 18
 1060              	__func__.7168:
 1061 0000 61646353 		.ascii	"adcStopConversion\000"
 1061      746F7043 
 1061      6F6E7665 
 1061      7273696F 
 1061      6E00
 1062 0012 0000     		.section	.rodata.__func__.7172,"a",%progbits
 1063              		.align	2
 1064              		.type	__func__.7172, %object
 1065              		.size	__func__.7172, 19
 1066              	__func__.7172:
 1067 0000 61646353 		.ascii	"adcStopConversionI\000"
 1067      746F7043 
 1067      6F6E7665 
 1067      7273696F 
 1067      6E4900
 1068 0013 00       		.section	.rodata.__func__.7180,"a",%progbits
 1069              		.align	2
 1070              		.type	__func__.7180, %object
 1071              		.size	__func__.7180, 11
 1072              	__func__.7180:
 1073 0000 61646343 		.ascii	"adcConvert\000"
 1073      6F6E7665 
 1073      727400
 1074 000b 00       		.section	.rodata.__func__.7184,"a",%progbits
 1075              		.align	2
 1076              		.type	__func__.7184, %object
 1077              		.size	__func__.7184, 14
 1078              	__func__.7184:
 1079 0000 61646341 		.ascii	"adcAcquireBus\000"
 1079      63717569 
 1079      72654275 
 1079      7300
 1080 000e 0000     		.section	.rodata.__func__.7188,"a",%progbits
 1081              		.align	2
 1082              		.type	__func__.7188, %object
 1083              		.size	__func__.7188, 14
 1084              	__func__.7188:
 1085 0000 61646352 		.ascii	"adcReleaseBus\000"
 1085      656C6561 
 1085      73654275 
 1085      7300
 1086 000e 0000     		.text
 1087              	.Letext0:
ARM GAS  /tmp/ccXqF3yr.s 			page 21


 1088              		.file 6 "/usr/lib/gcc/arm-none-eabi/4.8/include/stddef.h"
 1089              		.file 7 "/usr/include/newlib/machine/_default_types.h"
 1090              		.file 8 "/usr/include/newlib/stdint.h"
 1091              		.file 9 "/home/efe/ChibiOS/os/rt/ports/ARMCMx/compilers/GCC/chtypes.h"
 1092              		.file 10 "/home/efe/ChibiOS/os/rt/include/chsystypes.h"
 1093              		.file 11 "/home/efe/ChibiOS/os/rt/include/chschd.h"
 1094              		.file 12 "/home/efe/ChibiOS/os/ext/CMSIS/ST/stm32f407xx.h"
 1095              		.file 13 "/home/efe/ChibiOS/os/rt/ports/ARMCMx/chcore.h"
 1096              		.file 14 "/home/efe/ChibiOS/os/rt/include/chdebug.h"
 1097              		.file 15 "/home/efe/ChibiOS/os/rt/include/chtm.h"
 1098              		.file 16 "/home/efe/ChibiOS/os/rt/include/chstats.h"
 1099              		.file 17 "/home/efe/ChibiOS/os/rt/include/chsem.h"
 1100              		.file 18 "/home/efe/ChibiOS/os/rt/include/chmtx.h"
 1101              		.file 19 "/home/efe/ChibiOS/os/hal/ports/STM32/LLD/DMAv2/stm32_dma.h"
 1102              		.file 20 "/home/efe/ChibiOS/os/hal/include/adc.h"
 1103              		.file 21 "/home/efe/ChibiOS/os/hal/ports/STM32/LLD/ADCv2/adc_lld.h"
 1104              		.file 22 "/home/efe/ChibiOS/os/ext/CMSIS/include/core_cm4.h"