ARM GAS  /tmp/ccq44K6q.s 			page 1


   1              		.syntax unified
   2              		.cpu cortex-m4
   3              		.fpu softvfp
   4              		.eabi_attribute 20, 1
   5              		.eabi_attribute 21, 1
   6              		.eabi_attribute 23, 3
   7              		.eabi_attribute 24, 1
   8              		.eabi_attribute 25, 1
   9              		.eabi_attribute 26, 1
  10              		.eabi_attribute 30, 6
  11              		.eabi_attribute 34, 1
  12              		.eabi_attribute 18, 4
  13              		.thumb
  14              		.file	"chcond.c"
  15              		.text
  16              	.Ltext0:
  17              		.cfi_sections	.debug_frame
  18              		.section	.text.port_lock,"ax",%progbits
  19              		.align	2
  20              		.p2align 4,,15
  21              		.thumb
  22              		.thumb_func
  23              		.type	port_lock, %function
  24              	port_lock:
  25              	.LFB127:
  26              		.file 1 "/home/efe/ChibiOS/os/rt/ports/ARMCMx/chcore_v7m.h"
  27              		.loc 1 456 0
  28              		.cfi_startproc
  29              		@ args = 0, pretend = 0, frame = 8
  30              		@ frame_needed = 0, uses_anonymous_args = 0
  31              		@ link register save eliminated.
  32 0000 82B0     		sub	sp, sp, #8
  33              		.cfi_def_cfa_offset 8
  34 0002 2023     		movs	r3, #32
  35 0004 0193     		str	r3, [sp, #4]
  36              	.LBB6:
  37              	.LBB7:
  38              		.file 2 "/home/efe/ChibiOS/os/ext/CMSIS/include/core_cmFunc.h"
  39              		.loc 2 548 0
  40 0006 019B     		ldr	r3, [sp, #4]
  41              	@ 548 "/home/efe/ChibiOS/os/ext/CMSIS/include/core_cmFunc.h" 1
  42 0008 83F31188 		MSR basepri, r3
  43              	@ 0 "" 2
  44              		.thumb
  45              	.LBE7:
  46              	.LBE6:
  47              		.loc 1 463 0
  48 000c 02B0     		add	sp, sp, #8
  49              		@ sp needed
  50 000e 7047     		bx	lr
  51              		.cfi_endproc
  52              	.LFE127:
  53              		.size	port_lock, .-port_lock
  54              		.section	.text.port_unlock,"ax",%progbits
  55              		.align	2
  56              		.p2align 4,,15
  57              		.thumb
ARM GAS  /tmp/ccq44K6q.s 			page 2


  58              		.thumb_func
  59              		.type	port_unlock, %function
  60              	port_unlock:
  61              	.LFB128:
  62              		.loc 1 470 0
  63              		.cfi_startproc
  64              		@ args = 0, pretend = 0, frame = 8
  65              		@ frame_needed = 0, uses_anonymous_args = 0
  66              		@ link register save eliminated.
  67 0000 82B0     		sub	sp, sp, #8
  68              		.cfi_def_cfa_offset 8
  69 0002 0023     		movs	r3, #0
  70 0004 0193     		str	r3, [sp, #4]
  71              	.LBB8:
  72              	.LBB9:
  73              		.loc 2 548 0
  74 0006 019B     		ldr	r3, [sp, #4]
  75              	@ 548 "/home/efe/ChibiOS/os/ext/CMSIS/include/core_cmFunc.h" 1
  76 0008 83F31188 		MSR basepri, r3
  77              	@ 0 "" 2
  78              		.thumb
  79              	.LBE9:
  80              	.LBE8:
  81              		.loc 1 477 0
  82 000c 02B0     		add	sp, sp, #8
  83              		@ sp needed
  84 000e 7047     		bx	lr
  85              		.cfi_endproc
  86              	.LFE128:
  87              		.size	port_unlock, .-port_unlock
  88              		.section	.text.queue_init,"ax",%progbits
  89              		.align	2
  90              		.p2align 4,,15
  91              		.thumb
  92              		.thumb_func
  93              		.type	queue_init, %function
  94              	queue_init:
  95              	.LFB150:
  96              		.file 3 "/home/efe/ChibiOS/os/rt/include/chschd.h"
  97              		.loc 3 602 0
  98              		.cfi_startproc
  99              		@ args = 0, pretend = 0, frame = 8
 100              		@ frame_needed = 0, uses_anonymous_args = 0
 101              		@ link register save eliminated.
 102 0000 82B0     		sub	sp, sp, #8
 103              		.cfi_def_cfa_offset 8
 104 0002 0190     		str	r0, [sp, #4]
 105              		.loc 3 604 0
 106 0004 019B     		ldr	r3, [sp, #4]
 107 0006 019A     		ldr	r2, [sp, #4]
 108 0008 1A60     		str	r2, [r3]
 109              		.loc 3 605 0
 110 000a 019B     		ldr	r3, [sp, #4]
 111 000c 019A     		ldr	r2, [sp, #4]
 112 000e 5A60     		str	r2, [r3, #4]
 113              		.loc 3 606 0
 114 0010 02B0     		add	sp, sp, #8
ARM GAS  /tmp/ccq44K6q.s 			page 3


 115              		@ sp needed
 116 0012 7047     		bx	lr
 117              		.cfi_endproc
 118              	.LFE150:
 119              		.size	queue_init, .-queue_init
 120 0014 AFF30080 		.section	.text.queue_notempty,"ax",%progbits
 120      AFF30080 
 120      AFF30080 
 121              		.align	2
 122              		.p2align 4,,15
 123              		.thumb
 124              		.thumb_func
 125              		.type	queue_notempty, %function
 126              	queue_notempty:
 127              	.LFB152:
 128              		.loc 3 629 0
 129              		.cfi_startproc
 130              		@ args = 0, pretend = 0, frame = 8
 131              		@ frame_needed = 0, uses_anonymous_args = 0
 132              		@ link register save eliminated.
 133 0000 82B0     		sub	sp, sp, #8
 134              		.cfi_def_cfa_offset 8
 135 0002 0190     		str	r0, [sp, #4]
 136              		.loc 3 631 0
 137 0004 019B     		ldr	r3, [sp, #4]
 138 0006 1A68     		ldr	r2, [r3]
 139 0008 019B     		ldr	r3, [sp, #4]
 140 000a 9A42     		cmp	r2, r3
 141 000c 0CBF     		ite	eq
 142 000e 0023     		moveq	r3, #0
 143 0010 0123     		movne	r3, #1
 144 0012 DBB2     		uxtb	r3, r3
 145              		.loc 3 632 0
 146 0014 1846     		mov	r0, r3
 147 0016 02B0     		add	sp, sp, #8
 148              		@ sp needed
 149 0018 7047     		bx	lr
 150              		.cfi_endproc
 151              	.LFE152:
 152              		.size	queue_notempty, .-queue_notempty
 153 001a 00BFAFF3 		.section	.text.queue_prio_insert,"ax",%progbits
 153      0080
 154              		.align	2
 155              		.p2align 4,,15
 156              		.thumb
 157              		.thumb_func
 158              		.type	queue_prio_insert, %function
 159              	queue_prio_insert:
 160              	.LFB155:
 161              		.loc 3 651 0
 162              		.cfi_startproc
 163              		@ args = 0, pretend = 0, frame = 16
 164              		@ frame_needed = 0, uses_anonymous_args = 0
 165              		@ link register save eliminated.
 166 0000 84B0     		sub	sp, sp, #16
 167              		.cfi_def_cfa_offset 16
 168 0002 0190     		str	r0, [sp, #4]
ARM GAS  /tmp/ccq44K6q.s 			page 4


 169 0004 0091     		str	r1, [sp]
 170              		.loc 3 653 0
 171 0006 009B     		ldr	r3, [sp]
 172 0008 0393     		str	r3, [sp, #12]
 173              	.L8:
 174              		.loc 3 655 0 discriminator 1
 175 000a 039B     		ldr	r3, [sp, #12]
 176 000c 1B68     		ldr	r3, [r3]
 177 000e 0393     		str	r3, [sp, #12]
 178              		.loc 3 656 0 discriminator 1
 179 0010 039A     		ldr	r2, [sp, #12]
 180 0012 009B     		ldr	r3, [sp]
 181 0014 9A42     		cmp	r2, r3
 182 0016 05D0     		beq	.L7
 183 0018 039B     		ldr	r3, [sp, #12]
 184 001a 9A68     		ldr	r2, [r3, #8]
 185 001c 019B     		ldr	r3, [sp, #4]
 186 001e 9B68     		ldr	r3, [r3, #8]
 187 0020 9A42     		cmp	r2, r3
 188 0022 F2D2     		bcs	.L8
 189              	.L7:
 190              		.loc 3 657 0
 191 0024 019B     		ldr	r3, [sp, #4]
 192 0026 039A     		ldr	r2, [sp, #12]
 193 0028 1A60     		str	r2, [r3]
 194              		.loc 3 658 0
 195 002a 039B     		ldr	r3, [sp, #12]
 196 002c 5A68     		ldr	r2, [r3, #4]
 197 002e 019B     		ldr	r3, [sp, #4]
 198 0030 5A60     		str	r2, [r3, #4]
 199              		.loc 3 659 0
 200 0032 019B     		ldr	r3, [sp, #4]
 201 0034 5B68     		ldr	r3, [r3, #4]
 202 0036 019A     		ldr	r2, [sp, #4]
 203 0038 1A60     		str	r2, [r3]
 204              		.loc 3 660 0
 205 003a 039B     		ldr	r3, [sp, #12]
 206 003c 019A     		ldr	r2, [sp, #4]
 207 003e 5A60     		str	r2, [r3, #4]
 208              		.loc 3 661 0
 209 0040 04B0     		add	sp, sp, #16
 210              		@ sp needed
 211 0042 7047     		bx	lr
 212              		.cfi_endproc
 213              	.LFE155:
 214              		.size	queue_prio_insert, .-queue_prio_insert
 215 0044 AFF30080 		.section	.text.queue_fifo_remove,"ax",%progbits
 215      AFF30080 
 215      AFF30080 
 216              		.align	2
 217              		.p2align 4,,15
 218              		.thumb
 219              		.thumb_func
 220              		.type	queue_fifo_remove, %function
 221              	queue_fifo_remove:
 222              	.LFB157:
 223              		.loc 3 671 0
ARM GAS  /tmp/ccq44K6q.s 			page 5


 224              		.cfi_startproc
 225              		@ args = 0, pretend = 0, frame = 16
 226              		@ frame_needed = 0, uses_anonymous_args = 0
 227              		@ link register save eliminated.
 228 0000 84B0     		sub	sp, sp, #16
 229              		.cfi_def_cfa_offset 16
 230 0002 0190     		str	r0, [sp, #4]
 231              		.loc 3 672 0
 232 0004 019B     		ldr	r3, [sp, #4]
 233 0006 1B68     		ldr	r3, [r3]
 234 0008 0393     		str	r3, [sp, #12]
 235              		.loc 3 674 0
 236 000a 039B     		ldr	r3, [sp, #12]
 237 000c 1A68     		ldr	r2, [r3]
 238 000e 019B     		ldr	r3, [sp, #4]
 239 0010 1A60     		str	r2, [r3]
 240              		.loc 3 675 0
 241 0012 019B     		ldr	r3, [sp, #4]
 242 0014 1B68     		ldr	r3, [r3]
 243 0016 019A     		ldr	r2, [sp, #4]
 244 0018 5A60     		str	r2, [r3, #4]
 245              		.loc 3 677 0
 246 001a 039B     		ldr	r3, [sp, #12]
 247              		.loc 3 678 0
 248 001c 1846     		mov	r0, r3
 249 001e 04B0     		add	sp, sp, #16
 250              		@ sp needed
 251 0020 7047     		bx	lr
 252              		.cfi_endproc
 253              	.LFE157:
 254              		.size	queue_fifo_remove, .-queue_fifo_remove
 255 0022 00BFAFF3 		.section	.text.chSysLock,"ax",%progbits
 255      0080AFF3 
 255      0080AFF3 
 255      0080
 256              		.align	2
 257              		.p2align 4,,15
 258              		.thumb
 259              		.thumb_func
 260              		.type	chSysLock, %function
 261              	chSysLock:
 262              	.LFB167:
 263              		.file 4 "/home/efe/ChibiOS/os/rt/include/chsys.h"
 264              		.loc 4 346 0
 265              		.cfi_startproc
 266              		@ args = 0, pretend = 0, frame = 0
 267              		@ frame_needed = 0, uses_anonymous_args = 0
 268 0000 08B5     		push	{r3, lr}
 269              		.cfi_def_cfa_offset 8
 270              		.cfi_offset 3, -8
 271              		.cfi_offset 14, -4
 272              		.loc 4 348 0
 273 0002 FFF7FEFF 		bl	port_lock
 274              		.loc 4 349 0
 275 0006 FFF7FEFF 		bl	_stats_start_measure_crit_thd
 276              		.loc 4 350 0
 277 000a FFF7FEFF 		bl	_dbg_check_lock
ARM GAS  /tmp/ccq44K6q.s 			page 6


 278              		.loc 4 351 0
 279 000e 08BD     		pop	{r3, pc}
 280              		.cfi_endproc
 281              	.LFE167:
 282              		.size	chSysLock, .-chSysLock
 283              		.section	.text.chSysUnlock,"ax",%progbits
 284              		.align	2
 285              		.p2align 4,,15
 286              		.thumb
 287              		.thumb_func
 288              		.type	chSysUnlock, %function
 289              	chSysUnlock:
 290              	.LFB168:
 291              		.loc 4 358 0
 292              		.cfi_startproc
 293              		@ args = 0, pretend = 0, frame = 0
 294              		@ frame_needed = 0, uses_anonymous_args = 0
 295 0000 08B5     		push	{r3, lr}
 296              		.cfi_def_cfa_offset 8
 297              		.cfi_offset 3, -8
 298              		.cfi_offset 14, -4
 299              		.loc 4 360 0
 300 0002 FFF7FEFF 		bl	_dbg_check_unlock
 301              		.loc 4 361 0
 302 0006 FFF7FEFF 		bl	_stats_stop_measure_crit_thd
 303              		.loc 4 367 0
 304 000a 094B     		ldr	r3, .L14
 305 000c 1A68     		ldr	r2, [r3]
 306 000e 084B     		ldr	r3, .L14
 307 0010 9A42     		cmp	r2, r3
 308 0012 0AD0     		beq	.L13
 309              		.loc 4 367 0 is_stmt 0 discriminator 1
 310 0014 064B     		ldr	r3, .L14
 311 0016 9B69     		ldr	r3, [r3, #24]
 312 0018 9A68     		ldr	r2, [r3, #8]
 313 001a 054B     		ldr	r3, .L14
 314 001c 1B68     		ldr	r3, [r3]
 315 001e 9B68     		ldr	r3, [r3, #8]
 316 0020 9A42     		cmp	r2, r3
 317 0022 02D2     		bcs	.L13
 318 0024 0348     		ldr	r0, .L14+4
 319 0026 FFF7FEFF 		bl	chSysHalt
 320              	.L13:
 321              		.loc 4 371 0 is_stmt 1
 322 002a FFF7FEFF 		bl	port_unlock
 323              		.loc 4 372 0
 324 002e 08BD     		pop	{r3, pc}
 325              	.L15:
 326              		.align	2
 327              	.L14:
 328 0030 00000000 		.word	ch
 329 0034 00000000 		.word	__func__.5925
 330              		.cfi_endproc
 331              	.LFE168:
 332              		.size	chSysUnlock, .-chSysUnlock
 333 0038 AFF30080 		.section	.text.chThdGetSelfX,"ax",%progbits
 333      AFF30080 
ARM GAS  /tmp/ccq44K6q.s 			page 7


 334              		.align	2
 335              		.p2align 4,,15
 336              		.thumb
 337              		.thumb_func
 338              		.type	chThdGetSelfX, %function
 339              	chThdGetSelfX:
 340              	.LFB188:
 341              		.file 5 "/home/efe/ChibiOS/os/rt/include/chthreads.h"
 342              		.loc 5 174 0
 343              		.cfi_startproc
 344              		@ args = 0, pretend = 0, frame = 0
 345              		@ frame_needed = 0, uses_anonymous_args = 0
 346              		@ link register save eliminated.
 347              		.loc 5 176 0
 348 0000 014B     		ldr	r3, .L18
 349 0002 9B69     		ldr	r3, [r3, #24]
 350              		.loc 5 177 0
 351 0004 1846     		mov	r0, r3
 352 0006 7047     		bx	lr
 353              	.L19:
 354              		.align	2
 355              	.L18:
 356 0008 00000000 		.word	ch
 357              		.cfi_endproc
 358              	.LFE188:
 359              		.size	chThdGetSelfX, .-chThdGetSelfX
 360 000c AFF30080 		.section	.text.chMtxGetNextMutexS,"ax",%progbits
 361              		.align	2
 362              		.p2align 4,,15
 363              		.thumb
 364              		.thumb_func
 365              		.type	chMtxGetNextMutexS, %function
 366              	chMtxGetNextMutexS:
 367              	.LFB214:
 368              		.file 6 "/home/efe/ChibiOS/os/rt/include/chmtx.h"
 369              		.loc 6 144 0
 370              		.cfi_startproc
 371              		@ args = 0, pretend = 0, frame = 0
 372              		@ frame_needed = 0, uses_anonymous_args = 0
 373 0000 08B5     		push	{r3, lr}
 374              		.cfi_def_cfa_offset 8
 375              		.cfi_offset 3, -8
 376              		.cfi_offset 14, -4
 377              		.loc 6 146 0
 378 0002 FFF7FEFF 		bl	chThdGetSelfX
 379 0006 0346     		mov	r3, r0
 380 0008 DB6B     		ldr	r3, [r3, #60]
 381              		.loc 6 147 0
 382 000a 1846     		mov	r0, r3
 383 000c 08BD     		pop	{r3, pc}
 384              		.cfi_endproc
 385              	.LFE214:
 386              		.size	chMtxGetNextMutexS, .-chMtxGetNextMutexS
 387 000e 00BF     		.section	.text.chCondObjectInit,"ax",%progbits
 388              		.align	2
 389              		.p2align 4,,15
 390              		.global	chCondObjectInit
ARM GAS  /tmp/ccq44K6q.s 			page 8


 391              		.thumb
 392              		.thumb_func
 393              		.type	chCondObjectInit, %function
 394              	chCondObjectInit:
 395              	.LFB240:
 396              		.file 7 "/home/efe/ChibiOS/os/rt/src/chcond.c"
 397              		.loc 7 75 0
 398              		.cfi_startproc
 399              		@ args = 0, pretend = 0, frame = 8
 400              		@ frame_needed = 0, uses_anonymous_args = 0
 401 0000 00B5     		push	{lr}
 402              		.cfi_def_cfa_offset 4
 403              		.cfi_offset 14, -4
 404 0002 83B0     		sub	sp, sp, #12
 405              		.cfi_def_cfa_offset 16
 406 0004 0190     		str	r0, [sp, #4]
 407              		.loc 7 77 0
 408 0006 019B     		ldr	r3, [sp, #4]
 409 0008 002B     		cmp	r3, #0
 410 000a 02D1     		bne	.L23
 411              		.loc 7 77 0 is_stmt 0 discriminator 1
 412 000c 0448     		ldr	r0, .L24
 413 000e FFF7FEFF 		bl	chSysHalt
 414              	.L23:
 415              		.loc 7 79 0 is_stmt 1
 416 0012 019B     		ldr	r3, [sp, #4]
 417 0014 1846     		mov	r0, r3
 418 0016 FFF7FEFF 		bl	queue_init
 419              		.loc 7 80 0
 420 001a 03B0     		add	sp, sp, #12
 421              		@ sp needed
 422 001c 5DF804FB 		ldr	pc, [sp], #4
 423              	.L25:
 424              		.align	2
 425              	.L24:
 426 0020 00000000 		.word	__func__.6620
 427              		.cfi_endproc
 428              	.LFE240:
 429              		.size	chCondObjectInit, .-chCondObjectInit
 430 0024 AFF30080 		.section	.text.chCondSignal,"ax",%progbits
 430      AFF30080 
 430      AFF30080 
 431              		.align	2
 432              		.p2align 4,,15
 433              		.global	chCondSignal
 434              		.thumb
 435              		.thumb_func
 436              		.type	chCondSignal, %function
 437              	chCondSignal:
 438              	.LFB241:
 439              		.loc 7 89 0
 440              		.cfi_startproc
 441              		@ args = 0, pretend = 0, frame = 8
 442              		@ frame_needed = 0, uses_anonymous_args = 0
 443 0000 00B5     		push	{lr}
 444              		.cfi_def_cfa_offset 4
 445              		.cfi_offset 14, -4
ARM GAS  /tmp/ccq44K6q.s 			page 9


 446 0002 83B0     		sub	sp, sp, #12
 447              		.cfi_def_cfa_offset 16
 448 0004 0190     		str	r0, [sp, #4]
 449              		.loc 7 91 0
 450 0006 019B     		ldr	r3, [sp, #4]
 451 0008 002B     		cmp	r3, #0
 452 000a 02D1     		bne	.L27
 453              		.loc 7 91 0 is_stmt 0 discriminator 1
 454 000c 0C48     		ldr	r0, .L29
 455 000e FFF7FEFF 		bl	chSysHalt
 456              	.L27:
 457              		.loc 7 93 0 is_stmt 1
 458 0012 FFF7FEFF 		bl	chSysLock
 459              		.loc 7 94 0
 460 0016 019B     		ldr	r3, [sp, #4]
 461 0018 1846     		mov	r0, r3
 462 001a FFF7FEFF 		bl	queue_notempty
 463 001e 0346     		mov	r3, r0
 464 0020 002B     		cmp	r3, #0
 465 0022 08D0     		beq	.L28
 466              		.loc 7 95 0
 467 0024 019B     		ldr	r3, [sp, #4]
 468 0026 1846     		mov	r0, r3
 469 0028 FFF7FEFF 		bl	queue_fifo_remove
 470 002c 0346     		mov	r3, r0
 471 002e 1846     		mov	r0, r3
 472 0030 0021     		movs	r1, #0
 473 0032 FFF7FEFF 		bl	chSchWakeupS
 474              	.L28:
 475              		.loc 7 97 0
 476 0036 FFF7FEFF 		bl	chSysUnlock
 477              		.loc 7 98 0
 478 003a 03B0     		add	sp, sp, #12
 479              		@ sp needed
 480 003c 5DF804FB 		ldr	pc, [sp], #4
 481              	.L30:
 482              		.align	2
 483              	.L29:
 484 0040 00000000 		.word	__func__.6624
 485              		.cfi_endproc
 486              	.LFE241:
 487              		.size	chCondSignal, .-chCondSignal
 488 0044 AFF30080 		.section	.text.chCondSignalI,"ax",%progbits
 488      AFF30080 
 488      AFF30080 
 489              		.align	2
 490              		.p2align 4,,15
 491              		.global	chCondSignalI
 492              		.thumb
 493              		.thumb_func
 494              		.type	chCondSignalI, %function
 495              	chCondSignalI:
 496              	.LFB242:
 497              		.loc 7 111 0
 498              		.cfi_startproc
 499              		@ args = 0, pretend = 0, frame = 16
 500              		@ frame_needed = 0, uses_anonymous_args = 0
ARM GAS  /tmp/ccq44K6q.s 			page 10


 501 0000 00B5     		push	{lr}
 502              		.cfi_def_cfa_offset 4
 503              		.cfi_offset 14, -4
 504 0002 85B0     		sub	sp, sp, #20
 505              		.cfi_def_cfa_offset 24
 506 0004 0190     		str	r0, [sp, #4]
 507              		.loc 7 113 0
 508 0006 FFF7FEFF 		bl	chDbgCheckClassI
 509              		.loc 7 114 0
 510 000a 019B     		ldr	r3, [sp, #4]
 511 000c 002B     		cmp	r3, #0
 512 000e 02D1     		bne	.L32
 513              		.loc 7 114 0 is_stmt 0 discriminator 1
 514 0010 0B48     		ldr	r0, .L34
 515 0012 FFF7FEFF 		bl	chSysHalt
 516              	.L32:
 517              		.loc 7 116 0 is_stmt 1
 518 0016 019B     		ldr	r3, [sp, #4]
 519 0018 1846     		mov	r0, r3
 520 001a FFF7FEFF 		bl	queue_notempty
 521 001e 0346     		mov	r3, r0
 522 0020 002B     		cmp	r3, #0
 523 0022 0AD0     		beq	.L31
 524              	.LBB10:
 525              		.loc 7 117 0
 526 0024 019B     		ldr	r3, [sp, #4]
 527 0026 1846     		mov	r0, r3
 528 0028 FFF7FEFF 		bl	queue_fifo_remove
 529 002c 0390     		str	r0, [sp, #12]
 530              		.loc 7 118 0
 531 002e 039B     		ldr	r3, [sp, #12]
 532 0030 0022     		movs	r2, #0
 533 0032 5A62     		str	r2, [r3, #36]
 534              		.loc 7 119 0
 535 0034 0398     		ldr	r0, [sp, #12]
 536 0036 FFF7FEFF 		bl	chSchReadyI
 537              	.L31:
 538              	.LBE10:
 539              		.loc 7 121 0
 540 003a 05B0     		add	sp, sp, #20
 541              		@ sp needed
 542 003c 5DF804FB 		ldr	pc, [sp], #4
 543              	.L35:
 544              		.align	2
 545              	.L34:
 546 0040 00000000 		.word	__func__.6628
 547              		.cfi_endproc
 548              	.LFE242:
 549              		.size	chCondSignalI, .-chCondSignalI
 550 0044 AFF30080 		.section	.text.chCondBroadcast,"ax",%progbits
 550      AFF30080 
 550      AFF30080 
 551              		.align	2
 552              		.p2align 4,,15
 553              		.global	chCondBroadcast
 554              		.thumb
 555              		.thumb_func
ARM GAS  /tmp/ccq44K6q.s 			page 11


 556              		.type	chCondBroadcast, %function
 557              	chCondBroadcast:
 558              	.LFB243:
 559              		.loc 7 130 0
 560              		.cfi_startproc
 561              		@ args = 0, pretend = 0, frame = 8
 562              		@ frame_needed = 0, uses_anonymous_args = 0
 563 0000 00B5     		push	{lr}
 564              		.cfi_def_cfa_offset 4
 565              		.cfi_offset 14, -4
 566 0002 83B0     		sub	sp, sp, #12
 567              		.cfi_def_cfa_offset 16
 568 0004 0190     		str	r0, [sp, #4]
 569              		.loc 7 132 0
 570 0006 FFF7FEFF 		bl	chSysLock
 571              		.loc 7 133 0
 572 000a 0198     		ldr	r0, [sp, #4]
 573 000c FFF7FEFF 		bl	chCondBroadcastI
 574              		.loc 7 134 0
 575 0010 FFF7FEFF 		bl	chSchRescheduleS
 576              		.loc 7 135 0
 577 0014 FFF7FEFF 		bl	chSysUnlock
 578              		.loc 7 136 0
 579 0018 03B0     		add	sp, sp, #12
 580              		@ sp needed
 581 001a 5DF804FB 		ldr	pc, [sp], #4
 582              		.cfi_endproc
 583              	.LFE243:
 584              		.size	chCondBroadcast, .-chCondBroadcast
 585 001e 00BF     		.section	.text.chCondBroadcastI,"ax",%progbits
 586              		.align	2
 587              		.p2align 4,,15
 588              		.global	chCondBroadcastI
 589              		.thumb
 590              		.thumb_func
 591              		.type	chCondBroadcastI, %function
 592              	chCondBroadcastI:
 593              	.LFB244:
 594              		.loc 7 149 0
 595              		.cfi_startproc
 596              		@ args = 0, pretend = 0, frame = 8
 597              		@ frame_needed = 0, uses_anonymous_args = 0
 598 0000 00B5     		push	{lr}
 599              		.cfi_def_cfa_offset 4
 600              		.cfi_offset 14, -4
 601 0002 83B0     		sub	sp, sp, #12
 602              		.cfi_def_cfa_offset 16
 603 0004 0190     		str	r0, [sp, #4]
 604              		.loc 7 151 0
 605 0006 FFF7FEFF 		bl	chDbgCheckClassI
 606              		.loc 7 152 0
 607 000a 019B     		ldr	r3, [sp, #4]
 608 000c 002B     		cmp	r3, #0
 609 000e 03D1     		bne	.L38
 610              		.loc 7 152 0 is_stmt 0 discriminator 1
 611 0010 0D48     		ldr	r0, .L41
 612 0012 FFF7FEFF 		bl	chSysHalt
ARM GAS  /tmp/ccq44K6q.s 			page 12


 613              		.loc 7 157 0 is_stmt 1 discriminator 1
 614 0016 0CE0     		b	.L39
 615              	.L38:
 616              		.loc 7 157 0 is_stmt 0
 617 0018 0BE0     		b	.L39
 618              	.L40:
 619              		.loc 7 158 0 is_stmt 1
 620 001a 019B     		ldr	r3, [sp, #4]
 621 001c 1846     		mov	r0, r3
 622 001e FFF7FEFF 		bl	queue_fifo_remove
 623 0022 0346     		mov	r3, r0
 624 0024 1846     		mov	r0, r3
 625 0026 FFF7FEFF 		bl	chSchReadyI
 626 002a 0346     		mov	r3, r0
 627 002c 6FF00102 		mvn	r2, #1
 628 0030 5A62     		str	r2, [r3, #36]
 629              	.L39:
 630              		.loc 7 157 0 discriminator 1
 631 0032 019B     		ldr	r3, [sp, #4]
 632 0034 1846     		mov	r0, r3
 633 0036 FFF7FEFF 		bl	queue_notempty
 634 003a 0346     		mov	r3, r0
 635 003c 002B     		cmp	r3, #0
 636 003e ECD1     		bne	.L40
 637              		.loc 7 160 0
 638 0040 03B0     		add	sp, sp, #12
 639              		@ sp needed
 640 0042 5DF804FB 		ldr	pc, [sp], #4
 641              	.L42:
 642 0046 00BF     		.align	2
 643              	.L41:
 644 0048 00000000 		.word	__func__.6636
 645              		.cfi_endproc
 646              	.LFE244:
 647              		.size	chCondBroadcastI, .-chCondBroadcastI
 648 004c AFF30080 		.section	.text.chCondWait,"ax",%progbits
 649              		.align	2
 650              		.p2align 4,,15
 651              		.global	chCondWait
 652              		.thumb
 653              		.thumb_func
 654              		.type	chCondWait, %function
 655              	chCondWait:
 656              	.LFB245:
 657              		.loc 7 179 0
 658              		.cfi_startproc
 659              		@ args = 0, pretend = 0, frame = 16
 660              		@ frame_needed = 0, uses_anonymous_args = 0
 661 0000 00B5     		push	{lr}
 662              		.cfi_def_cfa_offset 4
 663              		.cfi_offset 14, -4
 664 0002 85B0     		sub	sp, sp, #20
 665              		.cfi_def_cfa_offset 24
 666 0004 0190     		str	r0, [sp, #4]
 667              		.loc 7 182 0
 668 0006 FFF7FEFF 		bl	chSysLock
 669              		.loc 7 183 0
ARM GAS  /tmp/ccq44K6q.s 			page 13


 670 000a 0198     		ldr	r0, [sp, #4]
 671 000c FFF7FEFF 		bl	chCondWaitS
 672 0010 0390     		str	r0, [sp, #12]
 673              		.loc 7 184 0
 674 0012 FFF7FEFF 		bl	chSysUnlock
 675              		.loc 7 185 0
 676 0016 039B     		ldr	r3, [sp, #12]
 677              		.loc 7 186 0
 678 0018 1846     		mov	r0, r3
 679 001a 05B0     		add	sp, sp, #20
 680              		@ sp needed
 681 001c 5DF804FB 		ldr	pc, [sp], #4
 682              		.cfi_endproc
 683              	.LFE245:
 684              		.size	chCondWait, .-chCondWait
 685              		.section	.text.chCondWaitS,"ax",%progbits
 686              		.align	2
 687              		.p2align 4,,15
 688              		.global	chCondWaitS
 689              		.thumb
 690              		.thumb_func
 691              		.type	chCondWaitS, %function
 692              	chCondWaitS:
 693              	.LFB246:
 694              		.loc 7 205 0
 695              		.cfi_startproc
 696              		@ args = 0, pretend = 0, frame = 24
 697              		@ frame_needed = 0, uses_anonymous_args = 0
 698 0000 00B5     		push	{lr}
 699              		.cfi_def_cfa_offset 4
 700              		.cfi_offset 14, -4
 701 0002 87B0     		sub	sp, sp, #28
 702              		.cfi_def_cfa_offset 32
 703 0004 0190     		str	r0, [sp, #4]
 704              		.loc 7 206 0
 705 0006 174B     		ldr	r3, .L50
 706 0008 9B69     		ldr	r3, [r3, #24]
 707 000a 0593     		str	r3, [sp, #20]
 708              		.loc 7 210 0
 709 000c FFF7FEFF 		bl	chDbgCheckClassS
 710              		.loc 7 211 0
 711 0010 019B     		ldr	r3, [sp, #4]
 712 0012 002B     		cmp	r3, #0
 713 0014 02D1     		bne	.L49
 714              		.loc 7 211 0 is_stmt 0 discriminator 1
 715 0016 1448     		ldr	r0, .L50+4
 716 0018 FFF7FEFF 		bl	chSysHalt
 717              	.L49:
 718              		.loc 7 212 0 is_stmt 1 discriminator 1
 719 001c 059B     		ldr	r3, [sp, #20]
 720 001e DB6B     		ldr	r3, [r3, #60]
 721 0020 002B     		cmp	r3, #0
 722 0022 02D1     		bne	.L47
 723 0024 1048     		ldr	r0, .L50+4
 724 0026 FFF7FEFF 		bl	chSysHalt
 725              	.L47:
 726              		.loc 7 215 0
ARM GAS  /tmp/ccq44K6q.s 			page 14


 727 002a FFF7FEFF 		bl	chMtxGetNextMutexS
 728 002e 0490     		str	r0, [sp, #16]
 729              		.loc 7 216 0
 730 0030 0498     		ldr	r0, [sp, #16]
 731 0032 FFF7FEFF 		bl	chMtxUnlockS
 732              		.loc 7 220 0
 733 0036 059B     		ldr	r3, [sp, #20]
 734 0038 019A     		ldr	r2, [sp, #4]
 735 003a 5A62     		str	r2, [r3, #36]
 736              		.loc 7 221 0
 737 003c 019B     		ldr	r3, [sp, #4]
 738 003e 0598     		ldr	r0, [sp, #20]
 739 0040 1946     		mov	r1, r3
 740 0042 FFF7FEFF 		bl	queue_prio_insert
 741              		.loc 7 222 0
 742 0046 0720     		movs	r0, #7
 743 0048 FFF7FEFF 		bl	chSchGoSleepS
 744              		.loc 7 223 0
 745 004c 059B     		ldr	r3, [sp, #20]
 746 004e 5B6A     		ldr	r3, [r3, #36]
 747 0050 0393     		str	r3, [sp, #12]
 748              		.loc 7 224 0
 749 0052 0498     		ldr	r0, [sp, #16]
 750 0054 FFF7FEFF 		bl	chMtxLockS
 751              		.loc 7 226 0
 752 0058 039B     		ldr	r3, [sp, #12]
 753              		.loc 7 227 0
 754 005a 1846     		mov	r0, r3
 755 005c 07B0     		add	sp, sp, #28
 756              		@ sp needed
 757 005e 5DF804FB 		ldr	pc, [sp], #4
 758              	.L51:
 759 0062 00BF     		.align	2
 760              	.L50:
 761 0064 00000000 		.word	ch
 762 0068 00000000 		.word	__func__.6650
 763              		.cfi_endproc
 764              	.LFE246:
 765              		.size	chCondWaitS, .-chCondWaitS
 766 006c AFF30080 		.section	.text.chCondWaitTimeout,"ax",%progbits
 767              		.align	2
 768              		.p2align 4,,15
 769              		.global	chCondWaitTimeout
 770              		.thumb
 771              		.thumb_func
 772              		.type	chCondWaitTimeout, %function
 773              	chCondWaitTimeout:
 774              	.LFB247:
 775              		.loc 7 258 0
 776              		.cfi_startproc
 777              		@ args = 0, pretend = 0, frame = 16
 778              		@ frame_needed = 0, uses_anonymous_args = 0
 779 0000 00B5     		push	{lr}
 780              		.cfi_def_cfa_offset 4
 781              		.cfi_offset 14, -4
 782 0002 85B0     		sub	sp, sp, #20
 783              		.cfi_def_cfa_offset 24
ARM GAS  /tmp/ccq44K6q.s 			page 15


 784 0004 0190     		str	r0, [sp, #4]
 785 0006 0091     		str	r1, [sp]
 786              		.loc 7 261 0
 787 0008 FFF7FEFF 		bl	chSysLock
 788              		.loc 7 262 0
 789 000c 0198     		ldr	r0, [sp, #4]
 790 000e 0099     		ldr	r1, [sp]
 791 0010 FFF7FEFF 		bl	chCondWaitTimeoutS
 792 0014 0390     		str	r0, [sp, #12]
 793              		.loc 7 263 0
 794 0016 FFF7FEFF 		bl	chSysUnlock
 795              		.loc 7 265 0
 796 001a 039B     		ldr	r3, [sp, #12]
 797              		.loc 7 266 0
 798 001c 1846     		mov	r0, r3
 799 001e 05B0     		add	sp, sp, #20
 800              		@ sp needed
 801 0020 5DF804FB 		ldr	pc, [sp], #4
 802              		.cfi_endproc
 803              	.LFE247:
 804              		.size	chCondWaitTimeout, .-chCondWaitTimeout
 805 0024 AFF30080 		.section	.text.chCondWaitTimeoutS,"ax",%progbits
 805      AFF30080 
 805      AFF30080 
 806              		.align	2
 807              		.p2align 4,,15
 808              		.global	chCondWaitTimeoutS
 809              		.thumb
 810              		.thumb_func
 811              		.type	chCondWaitTimeoutS, %function
 812              	chCondWaitTimeoutS:
 813              	.LFB248:
 814              		.loc 7 296 0
 815              		.cfi_startproc
 816              		@ args = 0, pretend = 0, frame = 16
 817              		@ frame_needed = 0, uses_anonymous_args = 0
 818 0000 00B5     		push	{lr}
 819              		.cfi_def_cfa_offset 4
 820              		.cfi_offset 14, -4
 821 0002 85B0     		sub	sp, sp, #20
 822              		.cfi_def_cfa_offset 24
 823 0004 0190     		str	r0, [sp, #4]
 824 0006 0091     		str	r1, [sp]
 825              		.loc 7 300 0
 826 0008 FFF7FEFF 		bl	chDbgCheckClassS
 827              		.loc 7 301 0
 828 000c 019B     		ldr	r3, [sp, #4]
 829 000e 002B     		cmp	r3, #0
 830 0010 02D0     		beq	.L55
 831              		.loc 7 301 0 is_stmt 0 discriminator 2
 832 0012 009B     		ldr	r3, [sp]
 833 0014 002B     		cmp	r3, #0
 834 0016 02D1     		bne	.L60
 835              	.L55:
 836              		.loc 7 301 0 discriminator 1
 837 0018 1648     		ldr	r0, .L61
 838 001a FFF7FEFF 		bl	chSysHalt
ARM GAS  /tmp/ccq44K6q.s 			page 16


 839              	.L60:
 840              		.loc 7 302 0 is_stmt 1 discriminator 1
 841 001e 164B     		ldr	r3, .L61+4
 842 0020 9B69     		ldr	r3, [r3, #24]
 843 0022 DB6B     		ldr	r3, [r3, #60]
 844 0024 002B     		cmp	r3, #0
 845 0026 02D1     		bne	.L57
 846 0028 1248     		ldr	r0, .L61
 847 002a FFF7FEFF 		bl	chSysHalt
 848              	.L57:
 849              		.loc 7 305 0
 850 002e FFF7FEFF 		bl	chMtxGetNextMutexS
 851 0032 0390     		str	r0, [sp, #12]
 852              		.loc 7 306 0
 853 0034 0398     		ldr	r0, [sp, #12]
 854 0036 FFF7FEFF 		bl	chMtxUnlockS
 855              		.loc 7 310 0
 856 003a 0F4B     		ldr	r3, .L61+4
 857 003c 9B69     		ldr	r3, [r3, #24]
 858 003e 019A     		ldr	r2, [sp, #4]
 859 0040 5A62     		str	r2, [r3, #36]
 860              		.loc 7 311 0
 861 0042 0D4B     		ldr	r3, .L61+4
 862 0044 9A69     		ldr	r2, [r3, #24]
 863 0046 019B     		ldr	r3, [sp, #4]
 864 0048 1046     		mov	r0, r2
 865 004a 1946     		mov	r1, r3
 866 004c FFF7FEFF 		bl	queue_prio_insert
 867              		.loc 7 312 0
 868 0050 0720     		movs	r0, #7
 869 0052 0099     		ldr	r1, [sp]
 870 0054 FFF7FEFF 		bl	chSchGoSleepTimeoutS
 871 0058 0290     		str	r0, [sp, #8]
 872              		.loc 7 313 0
 873 005a 029B     		ldr	r3, [sp, #8]
 874 005c B3F1FF3F 		cmp	r3, #-1
 875 0060 02D0     		beq	.L58
 876              		.loc 7 314 0
 877 0062 0398     		ldr	r0, [sp, #12]
 878 0064 FFF7FEFF 		bl	chMtxLockS
 879              	.L58:
 880              		.loc 7 317 0
 881 0068 029B     		ldr	r3, [sp, #8]
 882              		.loc 7 318 0
 883 006a 1846     		mov	r0, r3
 884 006c 05B0     		add	sp, sp, #20
 885              		@ sp needed
 886 006e 5DF804FB 		ldr	pc, [sp], #4
 887              	.L62:
 888 0072 00BF     		.align	2
 889              	.L61:
 890 0074 00000000 		.word	__func__.6662
 891 0078 00000000 		.word	ch
 892              		.cfi_endproc
 893              	.LFE248:
 894              		.size	chCondWaitTimeoutS, .-chCondWaitTimeoutS
 895 007c AFF30080 		.section	.rodata.__func__.6620,"a",%progbits
ARM GAS  /tmp/ccq44K6q.s 			page 17


 896              		.align	2
 897              		.type	__func__.6620, %object
 898              		.size	__func__.6620, 17
 899              	__func__.6620:
 900 0000 6368436F 		.ascii	"chCondObjectInit\000"
 900      6E644F62 
 900      6A656374 
 900      496E6974 
 900      00
 901 0011 000000   		.section	.rodata.__func__.6624,"a",%progbits
 902              		.align	2
 903              		.type	__func__.6624, %object
 904              		.size	__func__.6624, 13
 905              	__func__.6624:
 906 0000 6368436F 		.ascii	"chCondSignal\000"
 906      6E645369 
 906      676E616C 
 906      00
 907 000d 000000   		.section	.rodata.__func__.5925,"a",%progbits
 908              		.align	2
 909              		.type	__func__.5925, %object
 910              		.size	__func__.5925, 12
 911              	__func__.5925:
 912 0000 63685379 		.ascii	"chSysUnlock\000"
 912      73556E6C 
 912      6F636B00 
 913              		.section	.rodata.__func__.6628,"a",%progbits
 914              		.align	2
 915              		.type	__func__.6628, %object
 916              		.size	__func__.6628, 14
 917              	__func__.6628:
 918 0000 6368436F 		.ascii	"chCondSignalI\000"
 918      6E645369 
 918      676E616C 
 918      4900
 919 000e 0000     		.section	.rodata.__func__.6636,"a",%progbits
 920              		.align	2
 921              		.type	__func__.6636, %object
 922              		.size	__func__.6636, 17
 923              	__func__.6636:
 924 0000 6368436F 		.ascii	"chCondBroadcastI\000"
 924      6E644272 
 924      6F616463 
 924      61737449 
 924      00
 925 0011 000000   		.section	.rodata.__func__.6650,"a",%progbits
 926              		.align	2
 927              		.type	__func__.6650, %object
 928              		.size	__func__.6650, 12
 929              	__func__.6650:
 930 0000 6368436F 		.ascii	"chCondWaitS\000"
 930      6E645761 
 930      69745300 
 931              		.section	.rodata.__func__.6662,"a",%progbits
 932              		.align	2
 933              		.type	__func__.6662, %object
 934              		.size	__func__.6662, 19
ARM GAS  /tmp/ccq44K6q.s 			page 18


 935              	__func__.6662:
 936 0000 6368436F 		.ascii	"chCondWaitTimeoutS\000"
 936      6E645761 
 936      69745469 
 936      6D656F75 
 936      745300
 937 0013 00       		.text
 938              	.Letext0:
 939              		.file 8 "/usr/include/newlib/machine/_default_types.h"
 940              		.file 9 "/usr/include/newlib/stdint.h"
 941              		.file 10 "/home/efe/ChibiOS/os/rt/ports/ARMCMx/compilers/GCC/chtypes.h"
 942              		.file 11 "/home/efe/ChibiOS/os/rt/include/chsystypes.h"
 943              		.file 12 "/home/efe/ChibiOS/os/rt/ports/ARMCMx/chcore.h"
 944              		.file 13 "/home/efe/ChibiOS/os/rt/include/chdebug.h"
 945              		.file 14 "/home/efe/ChibiOS/os/rt/include/chtm.h"
 946              		.file 15 "/home/efe/ChibiOS/os/rt/include/chstats.h"
 947              		.file 16 "/home/efe/ChibiOS/os/rt/include/chsem.h"
 948              		.file 17 "/home/efe/ChibiOS/os/rt/include/chcond.h"
 949              		.file 18 "/home/efe/ChibiOS/os/ext/CMSIS/include/core_cm4.h"
 950              		.section	.debug_info,"",%progbits
 951              	.Ldebug_info0:
 952 0000 5A0C0000 		.4byte	0xc5a
 953 0004 0400     		.2byte	0x4
 954 0006 00000000 		.4byte	.Ldebug_abbrev0
 955 000a 04       		.byte	0x4
 956 000b 01       		.uleb128 0x1
 957 000c C0010000 		.4byte	.LASF153
 958 0010 01       		.byte	0x1
 959 0011 61040000 		.4byte	.LASF154
 960 0015 00000000 		.4byte	.Ldebug_ranges0+0
 961 0019 00000000 		.4byte	0
 962 001d 00000000 		.4byte	.Ldebug_line0
 963 0021 02       		.uleb128 0x2
 964 0022 04       		.byte	0x4
 965 0023 05       		.byte	0x5
 966 0024 696E7400 		.ascii	"int\000"
 967 0028 03       		.uleb128 0x3
 968 0029 04       		.byte	0x4
 969 002a 07       		.byte	0x7
 970 002b F5020000 		.4byte	.LASF0
 971 002f 03       		.uleb128 0x3
 972 0030 01       		.byte	0x1
 973 0031 06       		.byte	0x6
 974 0032 4B010000 		.4byte	.LASF1
 975 0036 04       		.uleb128 0x4
 976 0037 3F000000 		.4byte	.LASF5
 977 003b 08       		.byte	0x8
 978 003c 1D       		.byte	0x1d
 979 003d 41000000 		.4byte	0x41
 980 0041 03       		.uleb128 0x3
 981 0042 01       		.byte	0x1
 982 0043 08       		.byte	0x8
 983 0044 00050000 		.4byte	.LASF2
 984 0048 03       		.uleb128 0x3
 985 0049 02       		.byte	0x2
 986 004a 05       		.byte	0x5
 987 004b 18050000 		.4byte	.LASF3
ARM GAS  /tmp/ccq44K6q.s 			page 19


 988 004f 03       		.uleb128 0x3
 989 0050 02       		.byte	0x2
 990 0051 07       		.byte	0x7
 991 0052 2F030000 		.4byte	.LASF4
 992 0056 04       		.uleb128 0x4
 993 0057 A6030000 		.4byte	.LASF6
 994 005b 08       		.byte	0x8
 995 005c 3F       		.byte	0x3f
 996 005d 61000000 		.4byte	0x61
 997 0061 03       		.uleb128 0x3
 998 0062 04       		.byte	0x4
 999 0063 05       		.byte	0x5
 1000 0064 99010000 		.4byte	.LASF7
 1001 0068 04       		.uleb128 0x4
 1002 0069 40060000 		.4byte	.LASF8
 1003 006d 08       		.byte	0x8
 1004 006e 41       		.byte	0x41
 1005 006f 73000000 		.4byte	0x73
 1006 0073 03       		.uleb128 0x3
 1007 0074 04       		.byte	0x4
 1008 0075 07       		.byte	0x7
 1009 0076 D7050000 		.4byte	.LASF9
 1010 007a 03       		.uleb128 0x3
 1011 007b 08       		.byte	0x8
 1012 007c 05       		.byte	0x5
 1013 007d 3D010000 		.4byte	.LASF10
 1014 0081 04       		.uleb128 0x4
 1015 0082 9D040000 		.4byte	.LASF11
 1016 0086 08       		.byte	0x8
 1017 0087 5B       		.byte	0x5b
 1018 0088 8C000000 		.4byte	0x8c
 1019 008c 03       		.uleb128 0x3
 1020 008d 08       		.byte	0x8
 1021 008e 07       		.byte	0x7
 1022 008f B4000000 		.4byte	.LASF12
 1023 0093 04       		.uleb128 0x4
 1024 0094 D1060000 		.4byte	.LASF13
 1025 0098 09       		.byte	0x9
 1026 0099 2A       		.byte	0x2a
 1027 009a 36000000 		.4byte	0x36
 1028 009e 04       		.uleb128 0x4
 1029 009f F8040000 		.4byte	.LASF14
 1030 00a3 09       		.byte	0x9
 1031 00a4 41       		.byte	0x41
 1032 00a5 56000000 		.4byte	0x56
 1033 00a9 04       		.uleb128 0x4
 1034 00aa A6050000 		.4byte	.LASF15
 1035 00ae 09       		.byte	0x9
 1036 00af 42       		.byte	0x42
 1037 00b0 68000000 		.4byte	0x68
 1038 00b4 04       		.uleb128 0x4
 1039 00b5 29000000 		.4byte	.LASF16
 1040 00b9 09       		.byte	0x9
 1041 00ba 4E       		.byte	0x4e
 1042 00bb 81000000 		.4byte	0x81
 1043 00bf 05       		.uleb128 0x5
 1044 00c0 9E000000 		.4byte	0x9e
ARM GAS  /tmp/ccq44K6q.s 			page 20


 1045 00c4 04       		.uleb128 0x4
 1046 00c5 72060000 		.4byte	.LASF17
 1047 00c9 0A       		.byte	0xa
 1048 00ca 45       		.byte	0x45
 1049 00cb A9000000 		.4byte	0xa9
 1050 00cf 04       		.uleb128 0x4
 1051 00d0 2D010000 		.4byte	.LASF18
 1052 00d4 0A       		.byte	0xa
 1053 00d5 46       		.byte	0x46
 1054 00d6 B4000000 		.4byte	0xb4
 1055 00da 04       		.uleb128 0x4
 1056 00db 79030000 		.4byte	.LASF19
 1057 00df 0A       		.byte	0xa
 1058 00e0 48       		.byte	0x48
 1059 00e1 93000000 		.4byte	0x93
 1060 00e5 04       		.uleb128 0x4
 1061 00e6 A2010000 		.4byte	.LASF20
 1062 00ea 0A       		.byte	0xa
 1063 00eb 49       		.byte	0x49
 1064 00ec 93000000 		.4byte	0x93
 1065 00f0 04       		.uleb128 0x4
 1066 00f1 B3040000 		.4byte	.LASF21
 1067 00f5 0A       		.byte	0xa
 1068 00f6 4A       		.byte	0x4a
 1069 00f7 93000000 		.4byte	0x93
 1070 00fb 04       		.uleb128 0x4
 1071 00fc DC040000 		.4byte	.LASF22
 1072 0100 0A       		.byte	0xa
 1073 0101 4C       		.byte	0x4c
 1074 0102 A9000000 		.4byte	0xa9
 1075 0106 04       		.uleb128 0x4
 1076 0107 5B030000 		.4byte	.LASF23
 1077 010b 0A       		.byte	0xa
 1078 010c 4D       		.byte	0x4d
 1079 010d 9E000000 		.4byte	0x9e
 1080 0111 04       		.uleb128 0x4
 1081 0112 9A030000 		.4byte	.LASF24
 1082 0116 0A       		.byte	0xa
 1083 0117 4F       		.byte	0x4f
 1084 0118 A9000000 		.4byte	0xa9
 1085 011c 04       		.uleb128 0x4
 1086 011d E4020000 		.4byte	.LASF25
 1087 0121 0A       		.byte	0xa
 1088 0122 51       		.byte	0x51
 1089 0123 9E000000 		.4byte	0x9e
 1090 0127 04       		.uleb128 0x4
 1091 0128 66030000 		.4byte	.LASF26
 1092 012c 0A       		.byte	0xa
 1093 012d 52       		.byte	0x52
 1094 012e A9000000 		.4byte	0xa9
 1095 0132 04       		.uleb128 0x4
 1096 0133 22060000 		.4byte	.LASF27
 1097 0137 0B       		.byte	0xb
 1098 0138 33       		.byte	0x33
 1099 0139 A9000000 		.4byte	0xa9
 1100 013d 04       		.uleb128 0x4
 1101 013e B4060000 		.4byte	.LASF28
ARM GAS  /tmp/ccq44K6q.s 			page 21


 1102 0142 0B       		.byte	0xb
 1103 0143 3F       		.byte	0x3f
 1104 0144 48010000 		.4byte	0x148
 1105 0148 06       		.uleb128 0x6
 1106 0149 51030000 		.4byte	.LASF50
 1107 014d 60       		.byte	0x60
 1108 014e 03       		.byte	0x3
 1109 014f C2       		.byte	0xc2
 1110 0150 4E020000 		.4byte	0x24e
 1111 0154 07       		.uleb128 0x7
 1112 0155 38050000 		.4byte	.LASF29
 1113 0159 03       		.byte	0x3
 1114 015a C3       		.byte	0xc3
 1115 015b 59020000 		.4byte	0x259
 1116 015f 00       		.byte	0
 1117 0160 07       		.uleb128 0x7
 1118 0161 D5040000 		.4byte	.LASF30
 1119 0165 03       		.byte	0x3
 1120 0166 C5       		.byte	0xc5
 1121 0167 59020000 		.4byte	0x259
 1122 016b 04       		.byte	0x4
 1123 016c 07       		.uleb128 0x7
 1124 016d 36010000 		.4byte	.LASF31
 1125 0171 03       		.byte	0x3
 1126 0172 C7       		.byte	0xc7
 1127 0173 FB000000 		.4byte	0xfb
 1128 0177 08       		.byte	0x8
 1129 0178 07       		.uleb128 0x7
 1130 0179 56070000 		.4byte	.LASF32
 1131 017d 03       		.byte	0x3
 1132 017e C8       		.byte	0xc8
 1133 017f C2040000 		.4byte	0x4c2
 1134 0183 0C       		.byte	0xc
 1135 0184 07       		.uleb128 0x7
 1136 0185 70020000 		.4byte	.LASF33
 1137 0189 03       		.byte	0x3
 1138 018a CA       		.byte	0xca
 1139 018b 59020000 		.4byte	0x259
 1140 018f 10       		.byte	0x10
 1141 0190 07       		.uleb128 0x7
 1142 0191 42040000 		.4byte	.LASF34
 1143 0195 03       		.byte	0x3
 1144 0196 CB       		.byte	0xcb
 1145 0197 59020000 		.4byte	0x259
 1146 019b 14       		.byte	0x14
 1147 019c 07       		.uleb128 0x7
 1148 019d E0060000 		.4byte	.LASF35
 1149 01a1 03       		.byte	0x3
 1150 01a2 D2       		.byte	0xd2
 1151 01a3 66070000 		.4byte	0x766
 1152 01a7 18       		.byte	0x18
 1153 01a8 07       		.uleb128 0x7
 1154 01a9 EA020000 		.4byte	.LASF36
 1155 01ad 03       		.byte	0x3
 1156 01ae D8       		.byte	0xd8
 1157 01af 78070000 		.4byte	0x778
 1158 01b3 1C       		.byte	0x1c
ARM GAS  /tmp/ccq44K6q.s 			page 22


 1159 01b4 07       		.uleb128 0x7
 1160 01b5 22050000 		.4byte	.LASF37
 1161 01b9 03       		.byte	0x3
 1162 01ba DD       		.byte	0xdd
 1163 01bb E5000000 		.4byte	0xe5
 1164 01bf 20       		.byte	0x20
 1165 01c0 07       		.uleb128 0x7
 1166 01c1 3F050000 		.4byte	.LASF38
 1167 01c5 03       		.byte	0x3
 1168 01c6 E1       		.byte	0xe1
 1169 01c7 DA000000 		.4byte	0xda
 1170 01cb 21       		.byte	0x21
 1171 01cc 07       		.uleb128 0x7
 1172 01cd A5060000 		.4byte	.LASF39
 1173 01d1 03       		.byte	0x3
 1174 01d2 E6       		.byte	0xe6
 1175 01d3 F0000000 		.4byte	0xf0
 1176 01d7 22       		.byte	0x22
 1177 01d8 08       		.uleb128 0x8
 1178 01d9 705F7500 		.ascii	"p_u\000"
 1179 01dd 03       		.byte	0x3
 1180 01de 3101     		.2byte	0x131
 1181 01e0 A1060000 		.4byte	0x6a1
 1182 01e4 24       		.byte	0x24
 1183 01e5 09       		.uleb128 0x9
 1184 01e6 BB030000 		.4byte	.LASF40
 1185 01ea 03       		.byte	0x3
 1186 01eb 3601     		.2byte	0x136
 1187 01ed 5F020000 		.4byte	0x25f
 1188 01f1 28       		.byte	0x28
 1189 01f2 09       		.uleb128 0x9
 1190 01f3 18030000 		.4byte	.LASF41
 1191 01f7 03       		.byte	0x3
 1192 01f8 3C01     		.2byte	0x13c
 1193 01fa 83020000 		.4byte	0x283
 1194 01fe 2C       		.byte	0x2c
 1195 01ff 09       		.uleb128 0x9
 1196 0200 21070000 		.4byte	.LASF42
 1197 0204 03       		.byte	0x3
 1198 0205 4001     		.2byte	0x140
 1199 0207 06010000 		.4byte	0x106
 1200 020b 34       		.byte	0x34
 1201 020c 09       		.uleb128 0x9
 1202 020d 88050000 		.4byte	.LASF43
 1203 0211 03       		.byte	0x3
 1204 0212 4601     		.2byte	0x146
 1205 0214 11010000 		.4byte	0x111
 1206 0218 38       		.byte	0x38
 1207 0219 09       		.uleb128 0x9
 1208 021a 0E050000 		.4byte	.LASF44
 1209 021e 03       		.byte	0x3
 1210 021f 4D01     		.2byte	0x14d
 1211 0221 60070000 		.4byte	0x760
 1212 0225 3C       		.byte	0x3c
 1213 0226 09       		.uleb128 0x9
 1214 0227 2C060000 		.4byte	.LASF45
 1215 022b 03       		.byte	0x3
ARM GAS  /tmp/ccq44K6q.s 			page 23


 1216 022c 5101     		.2byte	0x151
 1217 022e FB000000 		.4byte	0xfb
 1218 0232 40       		.byte	0x40
 1219 0233 09       		.uleb128 0x9
 1220 0234 6C010000 		.4byte	.LASF46
 1221 0238 03       		.byte	0x3
 1222 0239 5801     		.2byte	0x158
 1223 023b 36030000 		.4byte	0x336
 1224 023f 44       		.byte	0x44
 1225 0240 09       		.uleb128 0x9
 1226 0241 50050000 		.4byte	.LASF47
 1227 0245 03       		.byte	0x3
 1228 0246 5E01     		.2byte	0x15e
 1229 0248 52060000 		.4byte	0x652
 1230 024c 48       		.byte	0x48
 1231 024d 00       		.byte	0
 1232 024e 04       		.uleb128 0x4
 1233 024f CE030000 		.4byte	.LASF48
 1234 0253 0B       		.byte	0xb
 1235 0254 44       		.byte	0x44
 1236 0255 59020000 		.4byte	0x259
 1237 0259 0A       		.uleb128 0xa
 1238 025a 04       		.byte	0x4
 1239 025b 3D010000 		.4byte	0x13d
 1240 025f 04       		.uleb128 0x4
 1241 0260 F9060000 		.4byte	.LASF49
 1242 0264 0B       		.byte	0xb
 1243 0265 49       		.byte	0x49
 1244 0266 6A020000 		.4byte	0x26a
 1245 026a 06       		.uleb128 0x6
 1246 026b C7050000 		.4byte	.LASF51
 1247 026f 04       		.byte	0x4
 1248 0270 03       		.byte	0x3
 1249 0271 B0       		.byte	0xb0
 1250 0272 83020000 		.4byte	0x283
 1251 0276 07       		.uleb128 0x7
 1252 0277 38050000 		.4byte	.LASF29
 1253 027b 03       		.byte	0x3
 1254 027c B1       		.byte	0xb1
 1255 027d 59020000 		.4byte	0x259
 1256 0281 00       		.byte	0
 1257 0282 00       		.byte	0
 1258 0283 04       		.uleb128 0x4
 1259 0284 8C060000 		.4byte	.LASF52
 1260 0288 0B       		.byte	0xb
 1261 0289 50       		.byte	0x50
 1262 028a 8E020000 		.4byte	0x28e
 1263 028e 06       		.uleb128 0x6
 1264 028f 55000000 		.4byte	.LASF53
 1265 0293 08       		.byte	0x8
 1266 0294 03       		.byte	0x3
 1267 0295 B7       		.byte	0xb7
 1268 0296 B3020000 		.4byte	0x2b3
 1269 029a 07       		.uleb128 0x7
 1270 029b 38050000 		.4byte	.LASF29
 1271 029f 03       		.byte	0x3
 1272 02a0 B8       		.byte	0xb8
ARM GAS  /tmp/ccq44K6q.s 			page 24


 1273 02a1 59020000 		.4byte	0x259
 1274 02a5 00       		.byte	0
 1275 02a6 07       		.uleb128 0x7
 1276 02a7 D5040000 		.4byte	.LASF30
 1277 02ab 03       		.byte	0x3
 1278 02ac B9       		.byte	0xb9
 1279 02ad 59020000 		.4byte	0x259
 1280 02b1 04       		.byte	0x4
 1281 02b2 00       		.byte	0
 1282 02b3 04       		.uleb128 0x4
 1283 02b4 07000000 		.4byte	.LASF54
 1284 02b8 0B       		.byte	0xb
 1285 02b9 57       		.byte	0x57
 1286 02ba BE020000 		.4byte	0x2be
 1287 02be 0B       		.uleb128 0xb
 1288 02bf 8C030000 		.4byte	.LASF55
 1289 02c3 1C       		.byte	0x1c
 1290 02c4 03       		.byte	0x3
 1291 02c5 9001     		.2byte	0x190
 1292 02c7 1A030000 		.4byte	0x31a
 1293 02cb 09       		.uleb128 0x9
 1294 02cc B6050000 		.4byte	.LASF56
 1295 02d0 03       		.byte	0x3
 1296 02d1 9101     		.2byte	0x191
 1297 02d3 83020000 		.4byte	0x283
 1298 02d7 00       		.byte	0
 1299 02d8 09       		.uleb128 0x9
 1300 02d9 2A050000 		.4byte	.LASF57
 1301 02dd 03       		.byte	0x3
 1302 02de 9201     		.2byte	0x192
 1303 02e0 FB000000 		.4byte	0xfb
 1304 02e4 08       		.byte	0x8
 1305 02e5 09       		.uleb128 0x9
 1306 02e6 4A040000 		.4byte	.LASF58
 1307 02ea 03       		.byte	0x3
 1308 02eb 9401     		.2byte	0x194
 1309 02ed C2040000 		.4byte	0x4c2
 1310 02f1 0C       		.byte	0xc
 1311 02f2 09       		.uleb128 0x9
 1312 02f3 88020000 		.4byte	.LASF59
 1313 02f7 03       		.byte	0x3
 1314 02f8 9701     		.2byte	0x197
 1315 02fa 59020000 		.4byte	0x259
 1316 02fe 10       		.byte	0x10
 1317 02ff 09       		.uleb128 0x9
 1318 0300 95040000 		.4byte	.LASF60
 1319 0304 03       		.byte	0x3
 1320 0305 9801     		.2byte	0x198
 1321 0307 59020000 		.4byte	0x259
 1322 030b 14       		.byte	0x14
 1323 030c 09       		.uleb128 0x9
 1324 030d 8B040000 		.4byte	.LASF61
 1325 0311 03       		.byte	0x3
 1326 0312 9B01     		.2byte	0x19b
 1327 0314 59020000 		.4byte	0x259
 1328 0318 18       		.byte	0x18
 1329 0319 00       		.byte	0
ARM GAS  /tmp/ccq44K6q.s 			page 25


 1330 031a 04       		.uleb128 0x4
 1331 031b 37060000 		.4byte	.LASF62
 1332 031f 0B       		.byte	0xb
 1333 0320 5C       		.byte	0x5c
 1334 0321 25030000 		.4byte	0x325
 1335 0325 0A       		.uleb128 0xa
 1336 0326 04       		.byte	0x4
 1337 0327 2B030000 		.4byte	0x32b
 1338 032b 0C       		.uleb128 0xc
 1339 032c 36030000 		.4byte	0x336
 1340 0330 0D       		.uleb128 0xd
 1341 0331 36030000 		.4byte	0x336
 1342 0335 00       		.byte	0
 1343 0336 0E       		.uleb128 0xe
 1344 0337 04       		.byte	0x4
 1345 0338 04       		.uleb128 0x4
 1346 0339 C5040000 		.4byte	.LASF63
 1347 033d 0B       		.byte	0xb
 1348 033e 61       		.byte	0x61
 1349 033f 43030000 		.4byte	0x343
 1350 0343 0B       		.uleb128 0xb
 1351 0344 62050000 		.4byte	.LASF64
 1352 0348 14       		.byte	0x14
 1353 0349 03       		.byte	0x3
 1354 034a 6B01     		.2byte	0x16b
 1355 034c 92030000 		.4byte	0x392
 1356 0350 09       		.uleb128 0x9
 1357 0351 02030000 		.4byte	.LASF65
 1358 0355 03       		.byte	0x3
 1359 0356 6C01     		.2byte	0x16c
 1360 0358 7E070000 		.4byte	0x77e
 1361 035c 00       		.byte	0
 1362 035d 09       		.uleb128 0x9
 1363 035e 99020000 		.4byte	.LASF66
 1364 0362 03       		.byte	0x3
 1365 0363 6D01     		.2byte	0x16d
 1366 0365 7E070000 		.4byte	0x77e
 1367 0369 04       		.byte	0x4
 1368 036a 09       		.uleb128 0x9
 1369 036b BE050000 		.4byte	.LASF67
 1370 036f 03       		.byte	0x3
 1371 0370 6E01     		.2byte	0x16e
 1372 0372 32010000 		.4byte	0x132
 1373 0376 08       		.byte	0x8
 1374 0377 09       		.uleb128 0x9
 1375 0378 5C070000 		.4byte	.LASF68
 1376 037c 03       		.byte	0x3
 1377 037d 6F01     		.2byte	0x16f
 1378 037f 1A030000 		.4byte	0x31a
 1379 0383 0C       		.byte	0xc
 1380 0384 09       		.uleb128 0x9
 1381 0385 85060000 		.4byte	.LASF69
 1382 0389 03       		.byte	0x3
 1383 038a 7101     		.2byte	0x171
 1384 038c 36030000 		.4byte	0x336
 1385 0390 10       		.byte	0x10
 1386 0391 00       		.byte	0
ARM GAS  /tmp/ccq44K6q.s 			page 26


 1387 0392 04       		.uleb128 0x4
 1388 0393 0A010000 		.4byte	.LASF70
 1389 0397 0B       		.byte	0xb
 1390 0398 66       		.byte	0x66
 1391 0399 9D030000 		.4byte	0x39d
 1392 039d 0B       		.uleb128 0xb
 1393 039e E1030000 		.4byte	.LASF71
 1394 03a2 10       		.byte	0x10
 1395 03a3 03       		.byte	0x3
 1396 03a4 7B01     		.2byte	0x17b
 1397 03a6 DF030000 		.4byte	0x3df
 1398 03aa 09       		.uleb128 0x9
 1399 03ab 02030000 		.4byte	.LASF65
 1400 03af 03       		.byte	0x3
 1401 03b0 7C01     		.2byte	0x17c
 1402 03b2 7E070000 		.4byte	0x77e
 1403 03b6 00       		.byte	0
 1404 03b7 09       		.uleb128 0x9
 1405 03b8 99020000 		.4byte	.LASF66
 1406 03bc 03       		.byte	0x3
 1407 03bd 7E01     		.2byte	0x17e
 1408 03bf 7E070000 		.4byte	0x77e
 1409 03c3 04       		.byte	0x4
 1410 03c4 09       		.uleb128 0x9
 1411 03c5 BE050000 		.4byte	.LASF67
 1412 03c9 03       		.byte	0x3
 1413 03ca 8001     		.2byte	0x180
 1414 03cc 32010000 		.4byte	0x132
 1415 03d0 08       		.byte	0x8
 1416 03d1 09       		.uleb128 0x9
 1417 03d2 2D040000 		.4byte	.LASF72
 1418 03d6 03       		.byte	0x3
 1419 03d7 8801     		.2byte	0x188
 1420 03d9 32010000 		.4byte	0x132
 1421 03dd 0C       		.byte	0xc
 1422 03de 00       		.byte	0
 1423 03df 04       		.uleb128 0x4
 1424 03e0 66000000 		.4byte	.LASF73
 1425 03e4 0B       		.byte	0xb
 1426 03e5 6B       		.byte	0x6b
 1427 03e6 EA030000 		.4byte	0x3ea
 1428 03ea 0F       		.uleb128 0xf
 1429 03eb A1020000 		.4byte	.LASF74
 1430 03ef 1404     		.2byte	0x414
 1431 03f1 03       		.byte	0x3
 1432 03f2 A201     		.2byte	0x1a2
 1433 03f4 2D040000 		.4byte	0x42d
 1434 03f8 09       		.uleb128 0x9
 1435 03f9 59060000 		.4byte	.LASF75
 1436 03fd 03       		.byte	0x3
 1437 03fe AA01     		.2byte	0x1aa
 1438 0400 84070000 		.4byte	0x784
 1439 0404 00       		.byte	0
 1440 0405 09       		.uleb128 0x9
 1441 0406 AC060000 		.4byte	.LASF76
 1442 040a 03       		.byte	0x3
 1443 040b AF01     		.2byte	0x1af
ARM GAS  /tmp/ccq44K6q.s 			page 27


 1444 040d 1C010000 		.4byte	0x11c
 1445 0411 04       		.byte	0x4
 1446 0412 09       		.uleb128 0x9
 1447 0413 BF020000 		.4byte	.LASF77
 1448 0417 03       		.byte	0x3
 1449 0418 B301     		.2byte	0x1b3
 1450 041a 1C010000 		.4byte	0x11c
 1451 041e 08       		.byte	0x8
 1452 041f 09       		.uleb128 0x9
 1453 0420 08070000 		.4byte	.LASF78
 1454 0424 03       		.byte	0x3
 1455 0425 B901     		.2byte	0x1b9
 1456 0427 E4050000 		.4byte	0x5e4
 1457 042b 0C       		.byte	0xc
 1458 042c 00       		.byte	0
 1459 042d 04       		.uleb128 0x4
 1460 042e 6D030000 		.4byte	.LASF79
 1461 0432 0B       		.byte	0xb
 1462 0433 70       		.byte	0x70
 1463 0434 38040000 		.4byte	0x438
 1464 0438 0F       		.uleb128 0xf
 1465 0439 8F010000 		.4byte	.LASF80
 1466 043d D805     		.2byte	0x5d8
 1467 043f 03       		.byte	0x3
 1468 0440 C201     		.2byte	0x1c2
 1469 0442 A5040000 		.4byte	0x4a5
 1470 0446 09       		.uleb128 0x9
 1471 0447 BD060000 		.4byte	.LASF81
 1472 044b 03       		.byte	0x3
 1473 044c C601     		.2byte	0x1c6
 1474 044e B3020000 		.4byte	0x2b3
 1475 0452 00       		.byte	0
 1476 0453 09       		.uleb128 0x9
 1477 0454 7C010000 		.4byte	.LASF82
 1478 0458 03       		.byte	0x3
 1479 0459 CA01     		.2byte	0x1ca
 1480 045b 92030000 		.4byte	0x392
 1481 045f 1C       		.byte	0x1c
 1482 0460 08       		.uleb128 0x8
 1483 0461 64626700 		.ascii	"dbg\000"
 1484 0465 03       		.byte	0x3
 1485 0466 CE01     		.2byte	0x1ce
 1486 0468 DF030000 		.4byte	0x3df
 1487 046c 2C       		.byte	0x2c
 1488 046d 10       		.uleb128 0x10
 1489 046e FF000000 		.4byte	.LASF83
 1490 0472 03       		.byte	0x3
 1491 0473 D201     		.2byte	0x1d2
 1492 0475 3D010000 		.4byte	0x13d
 1493 0479 4004     		.2byte	0x440
 1494 047b 11       		.uleb128 0x11
 1495 047c 746D00   		.ascii	"tm\000"
 1496 047f 03       		.byte	0x3
 1497 0480 D701     		.2byte	0x1d7
 1498 0482 04060000 		.4byte	0x604
 1499 0486 A004     		.2byte	0x4a0
 1500 0488 10       		.uleb128 0x10
ARM GAS  /tmp/ccq44K6q.s 			page 28


 1501 0489 32000000 		.4byte	.LASF84
 1502 048d 03       		.byte	0x3
 1503 048e DD01     		.2byte	0x1dd
 1504 0490 96060000 		.4byte	0x696
 1505 0494 A804     		.2byte	0x4a8
 1506 0496 10       		.uleb128 0x10
 1507 0497 D5020000 		.4byte	.LASF85
 1508 049b 03       		.byte	0x3
 1509 049c E301     		.2byte	0x1e3
 1510 049e 89070000 		.4byte	0x789
 1511 04a2 E004     		.2byte	0x4e0
 1512 04a4 00       		.byte	0
 1513 04a5 03       		.uleb128 0x3
 1514 04a6 04       		.byte	0x4
 1515 04a7 07       		.byte	0x7
 1516 04a8 C5030000 		.4byte	.LASF86
 1517 04ac 04       		.uleb128 0x4
 1518 04ad 90020000 		.4byte	.LASF87
 1519 04b1 0C       		.byte	0xc
 1520 04b2 65       		.byte	0x65
 1521 04b3 36030000 		.4byte	0x336
 1522 04b7 04       		.uleb128 0x4
 1523 04b8 B0030000 		.4byte	.LASF88
 1524 04bc 0C       		.byte	0xc
 1525 04bd 6D       		.byte	0x6d
 1526 04be B4000000 		.4byte	0xb4
 1527 04c2 06       		.uleb128 0x6
 1528 04c3 6A060000 		.4byte	.LASF89
 1529 04c7 04       		.byte	0x4
 1530 04c8 0C       		.byte	0xc
 1531 04c9 89       		.byte	0x89
 1532 04ca DB040000 		.4byte	0x4db
 1533 04ce 12       		.uleb128 0x12
 1534 04cf 72313300 		.ascii	"r13\000"
 1535 04d3 0C       		.byte	0xc
 1536 04d4 8A       		.byte	0x8a
 1537 04d5 56050000 		.4byte	0x556
 1538 04d9 00       		.byte	0
 1539 04da 00       		.byte	0
 1540 04db 06       		.uleb128 0x6
 1541 04dc 49000000 		.4byte	.LASF90
 1542 04e0 24       		.byte	0x24
 1543 04e1 01       		.byte	0x1
 1544 04e2 FD       		.byte	0xfd
 1545 04e3 56050000 		.4byte	0x556
 1546 04e7 08       		.uleb128 0x8
 1547 04e8 723400   		.ascii	"r4\000"
 1548 04eb 01       		.byte	0x1
 1549 04ec 1001     		.2byte	0x110
 1550 04ee AC040000 		.4byte	0x4ac
 1551 04f2 00       		.byte	0
 1552 04f3 08       		.uleb128 0x8
 1553 04f4 723500   		.ascii	"r5\000"
 1554 04f7 01       		.byte	0x1
 1555 04f8 1101     		.2byte	0x111
 1556 04fa AC040000 		.4byte	0x4ac
 1557 04fe 04       		.byte	0x4
ARM GAS  /tmp/ccq44K6q.s 			page 29


 1558 04ff 08       		.uleb128 0x8
 1559 0500 723600   		.ascii	"r6\000"
 1560 0503 01       		.byte	0x1
 1561 0504 1201     		.2byte	0x112
 1562 0506 AC040000 		.4byte	0x4ac
 1563 050a 08       		.byte	0x8
 1564 050b 08       		.uleb128 0x8
 1565 050c 723700   		.ascii	"r7\000"
 1566 050f 01       		.byte	0x1
 1567 0510 1301     		.2byte	0x113
 1568 0512 AC040000 		.4byte	0x4ac
 1569 0516 0C       		.byte	0xc
 1570 0517 08       		.uleb128 0x8
 1571 0518 723800   		.ascii	"r8\000"
 1572 051b 01       		.byte	0x1
 1573 051c 1401     		.2byte	0x114
 1574 051e AC040000 		.4byte	0x4ac
 1575 0522 10       		.byte	0x10
 1576 0523 08       		.uleb128 0x8
 1577 0524 723900   		.ascii	"r9\000"
 1578 0527 01       		.byte	0x1
 1579 0528 1501     		.2byte	0x115
 1580 052a AC040000 		.4byte	0x4ac
 1581 052e 14       		.byte	0x14
 1582 052f 08       		.uleb128 0x8
 1583 0530 72313000 		.ascii	"r10\000"
 1584 0534 01       		.byte	0x1
 1585 0535 1601     		.2byte	0x116
 1586 0537 AC040000 		.4byte	0x4ac
 1587 053b 18       		.byte	0x18
 1588 053c 08       		.uleb128 0x8
 1589 053d 72313100 		.ascii	"r11\000"
 1590 0541 01       		.byte	0x1
 1591 0542 1701     		.2byte	0x117
 1592 0544 AC040000 		.4byte	0x4ac
 1593 0548 1C       		.byte	0x1c
 1594 0549 08       		.uleb128 0x8
 1595 054a 6C7200   		.ascii	"lr\000"
 1596 054d 01       		.byte	0x1
 1597 054e 1801     		.2byte	0x118
 1598 0550 AC040000 		.4byte	0x4ac
 1599 0554 20       		.byte	0x20
 1600 0555 00       		.byte	0
 1601 0556 0A       		.uleb128 0xa
 1602 0557 04       		.byte	0x4
 1603 0558 DB040000 		.4byte	0x4db
 1604 055c 13       		.uleb128 0x13
 1605 055d 10       		.byte	0x10
 1606 055e 0D       		.byte	0xd
 1607 055f 51       		.byte	0x51
 1608 0560 95050000 		.4byte	0x595
 1609 0564 07       		.uleb128 0x7
 1610 0565 14000000 		.4byte	.LASF91
 1611 0569 0D       		.byte	0xd
 1612 056a 55       		.byte	0x55
 1613 056b 32010000 		.4byte	0x132
 1614 056f 00       		.byte	0
ARM GAS  /tmp/ccq44K6q.s 			page 30


 1615 0570 07       		.uleb128 0x7
 1616 0571 BA010000 		.4byte	.LASF92
 1617 0575 0D       		.byte	0xd
 1618 0576 59       		.byte	0x59
 1619 0577 59020000 		.4byte	0x259
 1620 057b 04       		.byte	0x4
 1621 057c 07       		.uleb128 0x7
 1622 057d 4C070000 		.4byte	.LASF93
 1623 0581 0D       		.byte	0xd
 1624 0582 5D       		.byte	0x5d
 1625 0583 36030000 		.4byte	0x336
 1626 0587 08       		.byte	0x8
 1627 0588 07       		.uleb128 0x7
 1628 0589 ED000000 		.4byte	.LASF94
 1629 058d 0D       		.byte	0xd
 1630 058e 61       		.byte	0x61
 1631 058f 93000000 		.4byte	0x93
 1632 0593 0C       		.byte	0xc
 1633 0594 00       		.byte	0
 1634 0595 04       		.uleb128 0x4
 1635 0596 1E040000 		.4byte	.LASF95
 1636 059a 0D       		.byte	0xd
 1637 059b 62       		.byte	0x62
 1638 059c 5C050000 		.4byte	0x55c
 1639 05a0 14       		.uleb128 0x14
 1640 05a1 0804     		.2byte	0x408
 1641 05a3 0D       		.byte	0xd
 1642 05a4 67       		.byte	0x67
 1643 05a5 CE050000 		.4byte	0x5ce
 1644 05a9 07       		.uleb128 0x7
 1645 05aa 80020000 		.4byte	.LASF96
 1646 05ae 0D       		.byte	0xd
 1647 05af 6B       		.byte	0x6b
 1648 05b0 28000000 		.4byte	0x28
 1649 05b4 00       		.byte	0
 1650 05b5 07       		.uleb128 0x7
 1651 05b6 00000000 		.4byte	.LASF97
 1652 05ba 0D       		.byte	0xd
 1653 05bb 6F       		.byte	0x6f
 1654 05bc CE050000 		.4byte	0x5ce
 1655 05c0 04       		.byte	0x4
 1656 05c1 07       		.uleb128 0x7
 1657 05c2 BB040000 		.4byte	.LASF98
 1658 05c6 0D       		.byte	0xd
 1659 05c7 73       		.byte	0x73
 1660 05c8 D4050000 		.4byte	0x5d4
 1661 05cc 08       		.byte	0x8
 1662 05cd 00       		.byte	0
 1663 05ce 0A       		.uleb128 0xa
 1664 05cf 04       		.byte	0x4
 1665 05d0 95050000 		.4byte	0x595
 1666 05d4 15       		.uleb128 0x15
 1667 05d5 95050000 		.4byte	0x595
 1668 05d9 E4050000 		.4byte	0x5e4
 1669 05dd 16       		.uleb128 0x16
 1670 05de A5040000 		.4byte	0x4a5
 1671 05e2 3F       		.byte	0x3f
ARM GAS  /tmp/ccq44K6q.s 			page 31


 1672 05e3 00       		.byte	0
 1673 05e4 04       		.uleb128 0x4
 1674 05e5 CB000000 		.4byte	.LASF99
 1675 05e9 0D       		.byte	0xd
 1676 05ea 74       		.byte	0x74
 1677 05eb A0050000 		.4byte	0x5a0
 1678 05ef 13       		.uleb128 0x13
 1679 05f0 04       		.byte	0x4
 1680 05f1 0E       		.byte	0xe
 1681 05f2 38       		.byte	0x38
 1682 05f3 04060000 		.4byte	0x604
 1683 05f7 07       		.uleb128 0x7
 1684 05f8 63060000 		.4byte	.LASF100
 1685 05fc 0E       		.byte	0xe
 1686 05fd 3C       		.byte	0x3c
 1687 05fe C4000000 		.4byte	0xc4
 1688 0602 00       		.byte	0
 1689 0603 00       		.byte	0
 1690 0604 04       		.uleb128 0x4
 1691 0605 50040000 		.4byte	.LASF101
 1692 0609 0E       		.byte	0xe
 1693 060a 3D       		.byte	0x3d
 1694 060b EF050000 		.4byte	0x5ef
 1695 060f 13       		.uleb128 0x13
 1696 0610 18       		.byte	0x18
 1697 0611 0E       		.byte	0xe
 1698 0612 48       		.byte	0x48
 1699 0613 52060000 		.4byte	0x652
 1700 0617 07       		.uleb128 0x7
 1701 0618 0B060000 		.4byte	.LASF102
 1702 061c 0E       		.byte	0xe
 1703 061d 49       		.byte	0x49
 1704 061e C4000000 		.4byte	0xc4
 1705 0622 00       		.byte	0
 1706 0623 07       		.uleb128 0x7
 1707 0624 8A000000 		.4byte	.LASF103
 1708 0628 0E       		.byte	0xe
 1709 0629 4A       		.byte	0x4a
 1710 062a C4000000 		.4byte	0xc4
 1711 062e 04       		.byte	0x4
 1712 062f 07       		.uleb128 0x7
 1713 0630 61030000 		.4byte	.LASF104
 1714 0634 0E       		.byte	0xe
 1715 0635 4B       		.byte	0x4b
 1716 0636 C4000000 		.4byte	0xc4
 1717 063a 08       		.byte	0x8
 1718 063b 12       		.uleb128 0x12
 1719 063c 6E00     		.ascii	"n\000"
 1720 063e 0E       		.byte	0xe
 1721 063f 4C       		.byte	0x4c
 1722 0640 27010000 		.4byte	0x127
 1723 0644 0C       		.byte	0xc
 1724 0645 07       		.uleb128 0x7
 1725 0646 A8040000 		.4byte	.LASF105
 1726 064a 0E       		.byte	0xe
 1727 064b 4D       		.byte	0x4d
 1728 064c CF000000 		.4byte	0xcf
ARM GAS  /tmp/ccq44K6q.s 			page 32


 1729 0650 10       		.byte	0x10
 1730 0651 00       		.byte	0
 1731 0652 04       		.uleb128 0x4
 1732 0653 90000000 		.4byte	.LASF106
 1733 0657 0E       		.byte	0xe
 1734 0658 4E       		.byte	0x4e
 1735 0659 0F060000 		.4byte	0x60f
 1736 065d 13       		.uleb128 0x13
 1737 065e 38       		.byte	0x38
 1738 065f 0F       		.byte	0xf
 1739 0660 38       		.byte	0x38
 1740 0661 96060000 		.4byte	0x696
 1741 0665 07       		.uleb128 0x7
 1742 0666 23030000 		.4byte	.LASF107
 1743 066a 0F       		.byte	0xf
 1744 066b 39       		.byte	0x39
 1745 066c 27010000 		.4byte	0x127
 1746 0670 00       		.byte	0
 1747 0671 07       		.uleb128 0x7
 1748 0672 39040000 		.4byte	.LASF108
 1749 0676 0F       		.byte	0xf
 1750 0677 3A       		.byte	0x3a
 1751 0678 27010000 		.4byte	0x127
 1752 067c 04       		.byte	0x4
 1753 067d 07       		.uleb128 0x7
 1754 067e 39070000 		.4byte	.LASF109
 1755 0682 0F       		.byte	0xf
 1756 0683 3B       		.byte	0x3b
 1757 0684 52060000 		.4byte	0x652
 1758 0688 08       		.byte	0x8
 1759 0689 07       		.uleb128 0x7
 1760 068a 81030000 		.4byte	.LASF110
 1761 068e 0F       		.byte	0xf
 1762 068f 3D       		.byte	0x3d
 1763 0690 52060000 		.4byte	0x652
 1764 0694 20       		.byte	0x20
 1765 0695 00       		.byte	0
 1766 0696 04       		.uleb128 0x4
 1767 0697 42030000 		.4byte	.LASF111
 1768 069b 0F       		.byte	0xf
 1769 069c 3F       		.byte	0x3f
 1770 069d 5D060000 		.4byte	0x65d
 1771 06a1 17       		.uleb128 0x17
 1772 06a2 04       		.byte	0x4
 1773 06a3 03       		.byte	0x3
 1774 06a4 FA       		.byte	0xfa
 1775 06a5 FE060000 		.4byte	0x6fe
 1776 06a9 18       		.uleb128 0x18
 1777 06aa 22000000 		.4byte	.LASF112
 1778 06ae 03       		.byte	0x3
 1779 06af 0101     		.2byte	0x101
 1780 06b1 06010000 		.4byte	0x106
 1781 06b5 18       		.uleb128 0x18
 1782 06b6 F6000000 		.4byte	.LASF113
 1783 06ba 03       		.byte	0x3
 1784 06bb 0801     		.2byte	0x108
 1785 06bd 06010000 		.4byte	0x106
ARM GAS  /tmp/ccq44K6q.s 			page 33


 1786 06c1 18       		.uleb128 0x18
 1787 06c2 D9060000 		.4byte	.LASF114
 1788 06c6 03       		.byte	0x3
 1789 06c7 0F01     		.2byte	0x10f
 1790 06c9 36030000 		.4byte	0x336
 1791 06cd 18       		.uleb128 0x18
 1792 06ce 1C000000 		.4byte	.LASF115
 1793 06d2 03       		.byte	0x3
 1794 06d3 1601     		.2byte	0x116
 1795 06d5 FE060000 		.4byte	0x6fe
 1796 06d9 18       		.uleb128 0x18
 1797 06da 11030000 		.4byte	.LASF116
 1798 06de 03       		.byte	0x3
 1799 06df 1E01     		.2byte	0x11e
 1800 06e1 29070000 		.4byte	0x729
 1801 06e5 18       		.uleb128 0x18
 1802 06e6 AF050000 		.4byte	.LASF117
 1803 06ea 03       		.byte	0x3
 1804 06eb 2701     		.2byte	0x127
 1805 06ed 60070000 		.4byte	0x760
 1806 06f1 18       		.uleb128 0x18
 1807 06f2 31050000 		.4byte	.LASF118
 1808 06f6 03       		.byte	0x3
 1809 06f7 2F01     		.2byte	0x12f
 1810 06f9 11010000 		.4byte	0x111
 1811 06fd 00       		.byte	0
 1812 06fe 0A       		.uleb128 0xa
 1813 06ff 04       		.byte	0x4
 1814 0700 4E020000 		.4byte	0x24e
 1815 0704 06       		.uleb128 0x6
 1816 0705 7B050000 		.4byte	.LASF119
 1817 0709 0C       		.byte	0xc
 1818 070a 10       		.byte	0x10
 1819 070b 34       		.byte	0x34
 1820 070c 29070000 		.4byte	0x729
 1821 0710 07       		.uleb128 0x7
 1822 0711 78020000 		.4byte	.LASF120
 1823 0715 10       		.byte	0x10
 1824 0716 35       		.byte	0x35
 1825 0717 83020000 		.4byte	0x283
 1826 071b 00       		.byte	0
 1827 071c 07       		.uleb128 0x7
 1828 071d 29030000 		.4byte	.LASF121
 1829 0721 10       		.byte	0x10
 1830 0722 37       		.byte	0x37
 1831 0723 1C010000 		.4byte	0x11c
 1832 0727 08       		.byte	0x8
 1833 0728 00       		.byte	0
 1834 0729 0A       		.uleb128 0xa
 1835 072a 04       		.byte	0x4
 1836 072b 04070000 		.4byte	0x704
 1837 072f 06       		.uleb128 0x6
 1838 0730 9C060000 		.4byte	.LASF122
 1839 0734 10       		.byte	0x10
 1840 0735 06       		.byte	0x6
 1841 0736 39       		.byte	0x39
 1842 0737 60070000 		.4byte	0x760
ARM GAS  /tmp/ccq44K6q.s 			page 34


 1843 073b 07       		.uleb128 0x7
 1844 073c 74010000 		.4byte	.LASF123
 1845 0740 06       		.byte	0x6
 1846 0741 3A       		.byte	0x3a
 1847 0742 83020000 		.4byte	0x283
 1848 0746 00       		.byte	0
 1849 0747 07       		.uleb128 0x7
 1850 0748 44070000 		.4byte	.LASF124
 1851 074c 06       		.byte	0x6
 1852 074d 3C       		.byte	0x3c
 1853 074e 59020000 		.4byte	0x259
 1854 0752 08       		.byte	0x8
 1855 0753 07       		.uleb128 0x7
 1856 0754 0A030000 		.4byte	.LASF125
 1857 0758 06       		.byte	0x6
 1858 0759 3E       		.byte	0x3e
 1859 075a A4070000 		.4byte	0x7a4
 1860 075e 0C       		.byte	0xc
 1861 075f 00       		.byte	0
 1862 0760 0A       		.uleb128 0xa
 1863 0761 04       		.byte	0x4
 1864 0762 2F070000 		.4byte	0x72f
 1865 0766 0A       		.uleb128 0xa
 1866 0767 04       		.byte	0x4
 1867 0768 6C070000 		.4byte	0x76c
 1868 076c 19       		.uleb128 0x19
 1869 076d 71070000 		.4byte	0x771
 1870 0771 03       		.uleb128 0x3
 1871 0772 01       		.byte	0x1
 1872 0773 08       		.byte	0x8
 1873 0774 E9050000 		.4byte	.LASF126
 1874 0778 0A       		.uleb128 0xa
 1875 0779 04       		.byte	0x4
 1876 077a B7040000 		.4byte	0x4b7
 1877 077e 0A       		.uleb128 0xa
 1878 077f 04       		.byte	0x4
 1879 0780 38030000 		.4byte	0x338
 1880 0784 05       		.uleb128 0x5
 1881 0785 66070000 		.4byte	0x766
 1882 0789 15       		.uleb128 0x15
 1883 078a B7040000 		.4byte	0x4b7
 1884 078e 99070000 		.4byte	0x799
 1885 0792 16       		.uleb128 0x16
 1886 0793 A5040000 		.4byte	0x4a5
 1887 0797 1E       		.byte	0x1e
 1888 0798 00       		.byte	0
 1889 0799 04       		.uleb128 0x4
 1890 079a B1020000 		.4byte	.LASF127
 1891 079e 06       		.byte	0x6
 1892 079f 34       		.byte	0x34
 1893 07a0 2F070000 		.4byte	0x72f
 1894 07a4 0A       		.uleb128 0xa
 1895 07a5 04       		.byte	0x4
 1896 07a6 99070000 		.4byte	0x799
 1897 07aa 06       		.uleb128 0x6
 1898 07ab F8030000 		.4byte	.LASF128
 1899 07af 08       		.byte	0x8
ARM GAS  /tmp/ccq44K6q.s 			page 35


 1900 07b0 11       		.byte	0x11
 1901 07b1 3B       		.byte	0x3b
 1902 07b2 C3070000 		.4byte	0x7c3
 1903 07b6 07       		.uleb128 0x7
 1904 07b7 73050000 		.4byte	.LASF129
 1905 07bb 11       		.byte	0x11
 1906 07bc 3C       		.byte	0x3c
 1907 07bd 83020000 		.4byte	0x283
 1908 07c1 00       		.byte	0
 1909 07c2 00       		.byte	0
 1910 07c3 04       		.uleb128 0x4
 1911 07c4 57010000 		.4byte	.LASF130
 1912 07c8 11       		.byte	0x11
 1913 07c9 3E       		.byte	0x3e
 1914 07ca AA070000 		.4byte	0x7aa
 1915 07ce 1A       		.uleb128 0x1a
 1916 07cf 4B060000 		.4byte	.LASF155
 1917 07d3 02       		.byte	0x2
 1918 07d4 2202     		.2byte	0x222
 1919 07d6 03       		.byte	0x3
 1920 07d7 E8070000 		.4byte	0x7e8
 1921 07db 1B       		.uleb128 0x1b
 1922 07dc B9020000 		.4byte	.LASF156
 1923 07e0 02       		.byte	0x2
 1924 07e1 2202     		.2byte	0x222
 1925 07e3 A9000000 		.4byte	0xa9
 1926 07e7 00       		.byte	0
 1927 07e8 1C       		.uleb128 0x1c
 1928 07e9 80000000 		.4byte	.LASF131
 1929 07ed 01       		.byte	0x1
 1930 07ee C801     		.2byte	0x1c8
 1931 07f0 00000000 		.4byte	.LFB127
 1932 07f4 10000000 		.4byte	.LFE127-.LFB127
 1933 07f8 01       		.uleb128 0x1
 1934 07f9 9C       		.byte	0x9c
 1935 07fa 18080000 		.4byte	0x818
 1936 07fe 1D       		.uleb128 0x1d
 1937 07ff CE070000 		.4byte	0x7ce
 1938 0803 06000000 		.4byte	.LBB6
 1939 0807 06000000 		.4byte	.LBE6-.LBB6
 1940 080b 01       		.byte	0x1
 1941 080c CB01     		.2byte	0x1cb
 1942 080e 1E       		.uleb128 0x1e
 1943 080f DB070000 		.4byte	0x7db
 1944 0813 02       		.uleb128 0x2
 1945 0814 91       		.byte	0x91
 1946 0815 7C       		.sleb128 -4
 1947 0816 00       		.byte	0
 1948 0817 00       		.byte	0
 1949 0818 1C       		.uleb128 0x1c
 1950 0819 83010000 		.4byte	.LASF132
 1951 081d 01       		.byte	0x1
 1952 081e D601     		.2byte	0x1d6
 1953 0820 00000000 		.4byte	.LFB128
 1954 0824 10000000 		.4byte	.LFE128-.LFB128
 1955 0828 01       		.uleb128 0x1
 1956 0829 9C       		.byte	0x9c
ARM GAS  /tmp/ccq44K6q.s 			page 36


 1957 082a 48080000 		.4byte	0x848
 1958 082e 1D       		.uleb128 0x1d
 1959 082f CE070000 		.4byte	0x7ce
 1960 0833 06000000 		.4byte	.LBB8
 1961 0837 06000000 		.4byte	.LBE8-.LBB8
 1962 083b 01       		.byte	0x1
 1963 083c D901     		.2byte	0x1d9
 1964 083e 1E       		.uleb128 0x1e
 1965 083f DB070000 		.4byte	0x7db
 1966 0843 02       		.uleb128 0x2
 1967 0844 91       		.byte	0x91
 1968 0845 7C       		.sleb128 -4
 1969 0846 00       		.byte	0
 1970 0847 00       		.byte	0
 1971 0848 1C       		.uleb128 0x1c
 1972 0849 75000000 		.4byte	.LASF133
 1973 084d 03       		.byte	0x3
 1974 084e 5A02     		.2byte	0x25a
 1975 0850 00000000 		.4byte	.LFB150
 1976 0854 14000000 		.4byte	.LFE150-.LFB150
 1977 0858 01       		.uleb128 0x1
 1978 0859 9C       		.byte	0x9c
 1979 085a 6E080000 		.4byte	0x86e
 1980 085e 1F       		.uleb128 0x1f
 1981 085f 74717000 		.ascii	"tqp\000"
 1982 0863 03       		.byte	0x3
 1983 0864 5A02     		.2byte	0x25a
 1984 0866 6E080000 		.4byte	0x86e
 1985 086a 02       		.uleb128 0x2
 1986 086b 91       		.byte	0x91
 1987 086c 7C       		.sleb128 -4
 1988 086d 00       		.byte	0
 1989 086e 0A       		.uleb128 0xa
 1990 086f 04       		.byte	0x4
 1991 0870 83020000 		.4byte	0x283
 1992 0874 20       		.uleb128 0x20
 1993 0875 AB010000 		.4byte	.LASF136
 1994 0879 03       		.byte	0x3
 1995 087a 7502     		.2byte	0x275
 1996 087c 9E080000 		.4byte	0x89e
 1997 0880 00000000 		.4byte	.LFB152
 1998 0884 1A000000 		.4byte	.LFE152-.LFB152
 1999 0888 01       		.uleb128 0x1
 2000 0889 9C       		.byte	0x9c
 2001 088a 9E080000 		.4byte	0x89e
 2002 088e 1F       		.uleb128 0x1f
 2003 088f 74717000 		.ascii	"tqp\000"
 2004 0893 03       		.byte	0x3
 2005 0894 7502     		.2byte	0x275
 2006 0896 A5080000 		.4byte	0x8a5
 2007 089a 02       		.uleb128 0x2
 2008 089b 91       		.byte	0x91
 2009 089c 7C       		.sleb128 -4
 2010 089d 00       		.byte	0
 2011 089e 03       		.uleb128 0x3
 2012 089f 01       		.byte	0x1
 2013 08a0 02       		.byte	0x2
ARM GAS  /tmp/ccq44K6q.s 			page 37


 2014 08a1 F2040000 		.4byte	.LASF134
 2015 08a5 0A       		.uleb128 0xa
 2016 08a6 04       		.byte	0x4
 2017 08a7 AB080000 		.4byte	0x8ab
 2018 08ab 19       		.uleb128 0x19
 2019 08ac 83020000 		.4byte	0x283
 2020 08b0 1C       		.uleb128 0x1c
 2021 08b1 27070000 		.4byte	.LASF135
 2022 08b5 03       		.byte	0x3
 2023 08b6 8B02     		.2byte	0x28b
 2024 08b8 00000000 		.4byte	.LFB155
 2025 08bc 44000000 		.4byte	.LFE155-.LFB155
 2026 08c0 01       		.uleb128 0x1
 2027 08c1 9C       		.byte	0x9c
 2028 08c2 F2080000 		.4byte	0x8f2
 2029 08c6 1F       		.uleb128 0x1f
 2030 08c7 747000   		.ascii	"tp\000"
 2031 08ca 03       		.byte	0x3
 2032 08cb 8B02     		.2byte	0x28b
 2033 08cd 59020000 		.4byte	0x259
 2034 08d1 02       		.uleb128 0x2
 2035 08d2 91       		.byte	0x91
 2036 08d3 74       		.sleb128 -12
 2037 08d4 1F       		.uleb128 0x1f
 2038 08d5 74717000 		.ascii	"tqp\000"
 2039 08d9 03       		.byte	0x3
 2040 08da 8B02     		.2byte	0x28b
 2041 08dc 6E080000 		.4byte	0x86e
 2042 08e0 02       		.uleb128 0x2
 2043 08e1 91       		.byte	0x91
 2044 08e2 70       		.sleb128 -16
 2045 08e3 21       		.uleb128 0x21
 2046 08e4 637000   		.ascii	"cp\000"
 2047 08e7 03       		.byte	0x3
 2048 08e8 8D02     		.2byte	0x28d
 2049 08ea 59020000 		.4byte	0x259
 2050 08ee 02       		.uleb128 0x2
 2051 08ef 91       		.byte	0x91
 2052 08f0 7C       		.sleb128 -4
 2053 08f1 00       		.byte	0
 2054 08f2 20       		.uleb128 0x20
 2055 08f3 10060000 		.4byte	.LASF137
 2056 08f7 03       		.byte	0x3
 2057 08f8 9F02     		.2byte	0x29f
 2058 08fa 59020000 		.4byte	0x259
 2059 08fe 00000000 		.4byte	.LFB157
 2060 0902 22000000 		.4byte	.LFE157-.LFB157
 2061 0906 01       		.uleb128 0x1
 2062 0907 9C       		.byte	0x9c
 2063 0908 2A090000 		.4byte	0x92a
 2064 090c 1F       		.uleb128 0x1f
 2065 090d 74717000 		.ascii	"tqp\000"
 2066 0911 03       		.byte	0x3
 2067 0912 9F02     		.2byte	0x29f
 2068 0914 6E080000 		.4byte	0x86e
 2069 0918 02       		.uleb128 0x2
 2070 0919 91       		.byte	0x91
ARM GAS  /tmp/ccq44K6q.s 			page 38


 2071 091a 74       		.sleb128 -12
 2072 091b 21       		.uleb128 0x21
 2073 091c 747000   		.ascii	"tp\000"
 2074 091f 03       		.byte	0x3
 2075 0920 A002     		.2byte	0x2a0
 2076 0922 59020000 		.4byte	0x259
 2077 0926 02       		.uleb128 0x2
 2078 0927 91       		.byte	0x91
 2079 0928 7C       		.sleb128 -4
 2080 0929 00       		.byte	0
 2081 092a 22       		.uleb128 0x22
 2082 092b 58050000 		.4byte	.LASF157
 2083 092f 04       		.byte	0x4
 2084 0930 5A01     		.2byte	0x15a
 2085 0932 00000000 		.4byte	.LFB167
 2086 0936 10000000 		.4byte	.LFE167-.LFB167
 2087 093a 01       		.uleb128 0x1
 2088 093b 9C       		.byte	0x9c
 2089 093c 23       		.uleb128 0x23
 2090 093d 15070000 		.4byte	.LASF138
 2091 0941 04       		.byte	0x4
 2092 0942 6601     		.2byte	0x166
 2093 0944 00000000 		.4byte	.LFB168
 2094 0948 38000000 		.4byte	.LFE168-.LFB168
 2095 094c 01       		.uleb128 0x1
 2096 094d 9C       		.byte	0x9c
 2097 094e 62090000 		.4byte	0x962
 2098 0952 24       		.uleb128 0x24
 2099 0953 47050000 		.4byte	.LASF141
 2100 0957 72090000 		.4byte	0x972
 2101 095b 05       		.uleb128 0x5
 2102 095c 03       		.byte	0x3
 2103 095d 00000000 		.4byte	__func__.5925
 2104 0961 00       		.byte	0
 2105 0962 15       		.uleb128 0x15
 2106 0963 71070000 		.4byte	0x771
 2107 0967 72090000 		.4byte	0x972
 2108 096b 16       		.uleb128 0x16
 2109 096c A5040000 		.4byte	0x4a5
 2110 0970 0B       		.byte	0xb
 2111 0971 00       		.byte	0
 2112 0972 19       		.uleb128 0x19
 2113 0973 62090000 		.4byte	0x962
 2114 0977 25       		.uleb128 0x25
 2115 0978 C3060000 		.4byte	.LASF139
 2116 097c 05       		.byte	0x5
 2117 097d AE       		.byte	0xae
 2118 097e 59020000 		.4byte	0x259
 2119 0982 00000000 		.4byte	.LFB188
 2120 0986 0C000000 		.4byte	.LFE188-.LFB188
 2121 098a 01       		.uleb128 0x1
 2122 098b 9C       		.byte	0x9c
 2123 098c 26       		.uleb128 0x26
 2124 098d 93050000 		.4byte	.LASF140
 2125 0991 06       		.byte	0x6
 2126 0992 90       		.byte	0x90
 2127 0993 A4070000 		.4byte	0x7a4
ARM GAS  /tmp/ccq44K6q.s 			page 39


 2128 0997 00000000 		.4byte	.LFB214
 2129 099b 0E000000 		.4byte	.LFE214-.LFB214
 2130 099f 01       		.uleb128 0x1
 2131 09a0 9C       		.byte	0x9c
 2132 09a1 27       		.uleb128 0x27
 2133 09a2 FA050000 		.4byte	.LASF142
 2134 09a6 07       		.byte	0x7
 2135 09a7 4B       		.byte	0x4b
 2136 09a8 00000000 		.4byte	.LFB240
 2137 09ac 24000000 		.4byte	.LFE240-.LFB240
 2138 09b0 01       		.uleb128 0x1
 2139 09b1 9C       		.byte	0x9c
 2140 09b2 D3090000 		.4byte	0x9d3
 2141 09b6 28       		.uleb128 0x28
 2142 09b7 637000   		.ascii	"cp\000"
 2143 09ba 07       		.byte	0x7
 2144 09bb 4B       		.byte	0x4b
 2145 09bc D3090000 		.4byte	0x9d3
 2146 09c0 02       		.uleb128 0x2
 2147 09c1 91       		.byte	0x91
 2148 09c2 74       		.sleb128 -12
 2149 09c3 24       		.uleb128 0x24
 2150 09c4 47050000 		.4byte	.LASF141
 2151 09c8 E9090000 		.4byte	0x9e9
 2152 09cc 05       		.uleb128 0x5
 2153 09cd 03       		.byte	0x3
 2154 09ce 00000000 		.4byte	__func__.6620
 2155 09d2 00       		.byte	0
 2156 09d3 0A       		.uleb128 0xa
 2157 09d4 04       		.byte	0x4
 2158 09d5 C3070000 		.4byte	0x7c3
 2159 09d9 15       		.uleb128 0x15
 2160 09da 71070000 		.4byte	0x771
 2161 09de E9090000 		.4byte	0x9e9
 2162 09e2 16       		.uleb128 0x16
 2163 09e3 A5040000 		.4byte	0x4a5
 2164 09e7 10       		.byte	0x10
 2165 09e8 00       		.byte	0
 2166 09e9 19       		.uleb128 0x19
 2167 09ea D9090000 		.4byte	0x9d9
 2168 09ee 27       		.uleb128 0x27
 2169 09ef C8020000 		.4byte	.LASF143
 2170 09f3 07       		.byte	0x7
 2171 09f4 59       		.byte	0x59
 2172 09f5 00000000 		.4byte	.LFB241
 2173 09f9 44000000 		.4byte	.LFE241-.LFB241
 2174 09fd 01       		.uleb128 0x1
 2175 09fe 9C       		.byte	0x9c
 2176 09ff 200A0000 		.4byte	0xa20
 2177 0a03 28       		.uleb128 0x28
 2178 0a04 637000   		.ascii	"cp\000"
 2179 0a07 07       		.byte	0x7
 2180 0a08 59       		.byte	0x59
 2181 0a09 D3090000 		.4byte	0x9d3
 2182 0a0d 02       		.uleb128 0x2
 2183 0a0e 91       		.byte	0x91
 2184 0a0f 74       		.sleb128 -12
ARM GAS  /tmp/ccq44K6q.s 			page 40


 2185 0a10 24       		.uleb128 0x24
 2186 0a11 47050000 		.4byte	.LASF141
 2187 0a15 300A0000 		.4byte	0xa30
 2188 0a19 05       		.uleb128 0x5
 2189 0a1a 03       		.byte	0x3
 2190 0a1b 00000000 		.4byte	__func__.6624
 2191 0a1f 00       		.byte	0
 2192 0a20 15       		.uleb128 0x15
 2193 0a21 71070000 		.4byte	0x771
 2194 0a25 300A0000 		.4byte	0xa30
 2195 0a29 16       		.uleb128 0x16
 2196 0a2a A5040000 		.4byte	0x4a5
 2197 0a2e 0C       		.byte	0xc
 2198 0a2f 00       		.byte	0
 2199 0a30 19       		.uleb128 0x19
 2200 0a31 200A0000 		.4byte	0xa20
 2201 0a35 27       		.uleb128 0x27
 2202 0a36 E4040000 		.4byte	.LASF144
 2203 0a3a 07       		.byte	0x7
 2204 0a3b 6F       		.byte	0x6f
 2205 0a3c 00000000 		.4byte	.LFB242
 2206 0a40 44000000 		.4byte	.LFE242-.LFB242
 2207 0a44 01       		.uleb128 0x1
 2208 0a45 9C       		.byte	0x9c
 2209 0a46 7E0A0000 		.4byte	0xa7e
 2210 0a4a 28       		.uleb128 0x28
 2211 0a4b 637000   		.ascii	"cp\000"
 2212 0a4e 07       		.byte	0x7
 2213 0a4f 6F       		.byte	0x6f
 2214 0a50 D3090000 		.4byte	0x9d3
 2215 0a54 02       		.uleb128 0x2
 2216 0a55 91       		.byte	0x91
 2217 0a56 6C       		.sleb128 -20
 2218 0a57 24       		.uleb128 0x24
 2219 0a58 47050000 		.4byte	.LASF141
 2220 0a5c 8E0A0000 		.4byte	0xa8e
 2221 0a60 05       		.uleb128 0x5
 2222 0a61 03       		.byte	0x3
 2223 0a62 00000000 		.4byte	__func__.6628
 2224 0a66 29       		.uleb128 0x29
 2225 0a67 24000000 		.4byte	.LBB10
 2226 0a6b 16000000 		.4byte	.LBE10-.LBB10
 2227 0a6f 2A       		.uleb128 0x2a
 2228 0a70 747000   		.ascii	"tp\000"
 2229 0a73 07       		.byte	0x7
 2230 0a74 75       		.byte	0x75
 2231 0a75 59020000 		.4byte	0x259
 2232 0a79 02       		.uleb128 0x2
 2233 0a7a 91       		.byte	0x91
 2234 0a7b 74       		.sleb128 -12
 2235 0a7c 00       		.byte	0
 2236 0a7d 00       		.byte	0
 2237 0a7e 15       		.uleb128 0x15
 2238 0a7f 71070000 		.4byte	0x771
 2239 0a83 8E0A0000 		.4byte	0xa8e
 2240 0a87 16       		.uleb128 0x16
 2241 0a88 A5040000 		.4byte	0x4a5
ARM GAS  /tmp/ccq44K6q.s 			page 41


 2242 0a8c 0D       		.byte	0xd
 2243 0a8d 00       		.byte	0
 2244 0a8e 19       		.uleb128 0x19
 2245 0a8f 7E0A0000 		.4byte	0xa7e
 2246 0a93 27       		.uleb128 0x27
 2247 0a94 DD000000 		.4byte	.LASF145
 2248 0a98 07       		.byte	0x7
 2249 0a99 82       		.byte	0x82
 2250 0a9a 00000000 		.4byte	.LFB243
 2251 0a9e 1E000000 		.4byte	.LFE243-.LFB243
 2252 0aa2 01       		.uleb128 0x1
 2253 0aa3 9C       		.byte	0x9c
 2254 0aa4 B60A0000 		.4byte	0xab6
 2255 0aa8 28       		.uleb128 0x28
 2256 0aa9 637000   		.ascii	"cp\000"
 2257 0aac 07       		.byte	0x7
 2258 0aad 82       		.byte	0x82
 2259 0aae D3090000 		.4byte	0x9d3
 2260 0ab2 02       		.uleb128 0x2
 2261 0ab3 91       		.byte	0x91
 2262 0ab4 74       		.sleb128 -12
 2263 0ab5 00       		.byte	0
 2264 0ab6 27       		.uleb128 0x27
 2265 0ab7 A3000000 		.4byte	.LASF146
 2266 0abb 07       		.byte	0x7
 2267 0abc 95       		.byte	0x95
 2268 0abd 00000000 		.4byte	.LFB244
 2269 0ac1 4C000000 		.4byte	.LFE244-.LFB244
 2270 0ac5 01       		.uleb128 0x1
 2271 0ac6 9C       		.byte	0x9c
 2272 0ac7 E80A0000 		.4byte	0xae8
 2273 0acb 28       		.uleb128 0x28
 2274 0acc 637000   		.ascii	"cp\000"
 2275 0acf 07       		.byte	0x7
 2276 0ad0 95       		.byte	0x95
 2277 0ad1 D3090000 		.4byte	0x9d3
 2278 0ad5 02       		.uleb128 0x2
 2279 0ad6 91       		.byte	0x91
 2280 0ad7 74       		.sleb128 -12
 2281 0ad8 24       		.uleb128 0x24
 2282 0ad9 47050000 		.4byte	.LASF141
 2283 0add E80A0000 		.4byte	0xae8
 2284 0ae1 05       		.uleb128 0x5
 2285 0ae2 03       		.byte	0x3
 2286 0ae3 00000000 		.4byte	__func__.6636
 2287 0ae7 00       		.byte	0
 2288 0ae8 19       		.uleb128 0x19
 2289 0ae9 D9090000 		.4byte	0x9d9
 2290 0aed 2B       		.uleb128 0x2b
 2291 0aee 7A060000 		.4byte	.LASF147
 2292 0af2 07       		.byte	0x7
 2293 0af3 B3       		.byte	0xb3
 2294 0af4 06010000 		.4byte	0x106
 2295 0af8 00000000 		.4byte	.LFB245
 2296 0afc 20000000 		.4byte	.LFE245-.LFB245
 2297 0b00 01       		.uleb128 0x1
 2298 0b01 9C       		.byte	0x9c
ARM GAS  /tmp/ccq44K6q.s 			page 42


 2299 0b02 220B0000 		.4byte	0xb22
 2300 0b06 28       		.uleb128 0x28
 2301 0b07 637000   		.ascii	"cp\000"
 2302 0b0a 07       		.byte	0x7
 2303 0b0b B3       		.byte	0xb3
 2304 0b0c D3090000 		.4byte	0x9d3
 2305 0b10 02       		.uleb128 0x2
 2306 0b11 91       		.byte	0x91
 2307 0b12 6C       		.sleb128 -20
 2308 0b13 2A       		.uleb128 0x2a
 2309 0b14 6D736700 		.ascii	"msg\000"
 2310 0b18 07       		.byte	0x7
 2311 0b19 B4       		.byte	0xb4
 2312 0b1a 06010000 		.4byte	0x106
 2313 0b1e 02       		.uleb128 0x2
 2314 0b1f 91       		.byte	0x91
 2315 0b20 74       		.sleb128 -12
 2316 0b21 00       		.byte	0
 2317 0b22 2B       		.uleb128 0x2b
 2318 0b23 EE050000 		.4byte	.LASF148
 2319 0b27 07       		.byte	0x7
 2320 0b28 CD       		.byte	0xcd
 2321 0b29 06010000 		.4byte	0x106
 2322 0b2d 00000000 		.4byte	.LFB246
 2323 0b31 6C000000 		.4byte	.LFE246-.LFB246
 2324 0b35 01       		.uleb128 0x1
 2325 0b36 9C       		.byte	0x9c
 2326 0b37 810B0000 		.4byte	0xb81
 2327 0b3b 28       		.uleb128 0x28
 2328 0b3c 637000   		.ascii	"cp\000"
 2329 0b3f 07       		.byte	0x7
 2330 0b40 CD       		.byte	0xcd
 2331 0b41 D3090000 		.4byte	0x9d3
 2332 0b45 02       		.uleb128 0x2
 2333 0b46 91       		.byte	0x91
 2334 0b47 64       		.sleb128 -28
 2335 0b48 2A       		.uleb128 0x2a
 2336 0b49 63747000 		.ascii	"ctp\000"
 2337 0b4d 07       		.byte	0x7
 2338 0b4e CE       		.byte	0xce
 2339 0b4f 59020000 		.4byte	0x259
 2340 0b53 02       		.uleb128 0x2
 2341 0b54 91       		.byte	0x91
 2342 0b55 74       		.sleb128 -12
 2343 0b56 2A       		.uleb128 0x2a
 2344 0b57 6D7000   		.ascii	"mp\000"
 2345 0b5a 07       		.byte	0x7
 2346 0b5b CF       		.byte	0xcf
 2347 0b5c A4070000 		.4byte	0x7a4
 2348 0b60 02       		.uleb128 0x2
 2349 0b61 91       		.byte	0x91
 2350 0b62 70       		.sleb128 -16
 2351 0b63 2A       		.uleb128 0x2a
 2352 0b64 6D736700 		.ascii	"msg\000"
 2353 0b68 07       		.byte	0x7
 2354 0b69 D0       		.byte	0xd0
 2355 0b6a 06010000 		.4byte	0x106
ARM GAS  /tmp/ccq44K6q.s 			page 43


 2356 0b6e 02       		.uleb128 0x2
 2357 0b6f 91       		.byte	0x91
 2358 0b70 6C       		.sleb128 -20
 2359 0b71 24       		.uleb128 0x24
 2360 0b72 47050000 		.4byte	.LASF141
 2361 0b76 810B0000 		.4byte	0xb81
 2362 0b7a 05       		.uleb128 0x5
 2363 0b7b 03       		.byte	0x3
 2364 0b7c 00000000 		.4byte	__func__.6650
 2365 0b80 00       		.byte	0
 2366 0b81 19       		.uleb128 0x19
 2367 0b82 62090000 		.4byte	0x962
 2368 0b86 2C       		.uleb128 0x2c
 2369 0b87 E7060000 		.4byte	.LASF149
 2370 0b8b 07       		.byte	0x7
 2371 0b8c 0201     		.2byte	0x102
 2372 0b8e 06010000 		.4byte	0x106
 2373 0b92 00000000 		.4byte	.LFB247
 2374 0b96 24000000 		.4byte	.LFE247-.LFB247
 2375 0b9a 01       		.uleb128 0x1
 2376 0b9b 9C       		.byte	0x9c
 2377 0b9c CD0B0000 		.4byte	0xbcd
 2378 0ba0 1F       		.uleb128 0x1f
 2379 0ba1 637000   		.ascii	"cp\000"
 2380 0ba4 07       		.byte	0x7
 2381 0ba5 0201     		.2byte	0x102
 2382 0ba7 D3090000 		.4byte	0x9d3
 2383 0bab 02       		.uleb128 0x2
 2384 0bac 91       		.byte	0x91
 2385 0bad 6C       		.sleb128 -20
 2386 0bae 2D       		.uleb128 0x2d
 2387 0baf 86040000 		.4byte	.LASF150
 2388 0bb3 07       		.byte	0x7
 2389 0bb4 0201     		.2byte	0x102
 2390 0bb6 32010000 		.4byte	0x132
 2391 0bba 02       		.uleb128 0x2
 2392 0bbb 91       		.byte	0x91
 2393 0bbc 68       		.sleb128 -24
 2394 0bbd 21       		.uleb128 0x21
 2395 0bbe 6D736700 		.ascii	"msg\000"
 2396 0bc2 07       		.byte	0x7
 2397 0bc3 0301     		.2byte	0x103
 2398 0bc5 06010000 		.4byte	0x106
 2399 0bc9 02       		.uleb128 0x2
 2400 0bca 91       		.byte	0x91
 2401 0bcb 74       		.sleb128 -12
 2402 0bcc 00       		.byte	0
 2403 0bcd 2C       		.uleb128 0x2c
 2404 0bce 0B040000 		.4byte	.LASF151
 2405 0bd2 07       		.byte	0x7
 2406 0bd3 2801     		.2byte	0x128
 2407 0bd5 06010000 		.4byte	0x106
 2408 0bd9 00000000 		.4byte	.LFB248
 2409 0bdd 7C000000 		.4byte	.LFE248-.LFB248
 2410 0be1 01       		.uleb128 0x1
 2411 0be2 9C       		.byte	0x9c
 2412 0be3 310C0000 		.4byte	0xc31
ARM GAS  /tmp/ccq44K6q.s 			page 44


 2413 0be7 1F       		.uleb128 0x1f
 2414 0be8 637000   		.ascii	"cp\000"
 2415 0beb 07       		.byte	0x7
 2416 0bec 2801     		.2byte	0x128
 2417 0bee D3090000 		.4byte	0x9d3
 2418 0bf2 02       		.uleb128 0x2
 2419 0bf3 91       		.byte	0x91
 2420 0bf4 6C       		.sleb128 -20
 2421 0bf5 2D       		.uleb128 0x2d
 2422 0bf6 86040000 		.4byte	.LASF150
 2423 0bfa 07       		.byte	0x7
 2424 0bfb 2801     		.2byte	0x128
 2425 0bfd 32010000 		.4byte	0x132
 2426 0c01 02       		.uleb128 0x2
 2427 0c02 91       		.byte	0x91
 2428 0c03 68       		.sleb128 -24
 2429 0c04 21       		.uleb128 0x21
 2430 0c05 6D7000   		.ascii	"mp\000"
 2431 0c08 07       		.byte	0x7
 2432 0c09 2901     		.2byte	0x129
 2433 0c0b A4070000 		.4byte	0x7a4
 2434 0c0f 02       		.uleb128 0x2
 2435 0c10 91       		.byte	0x91
 2436 0c11 74       		.sleb128 -12
 2437 0c12 21       		.uleb128 0x21
 2438 0c13 6D736700 		.ascii	"msg\000"
 2439 0c17 07       		.byte	0x7
 2440 0c18 2A01     		.2byte	0x12a
 2441 0c1a 06010000 		.4byte	0x106
 2442 0c1e 02       		.uleb128 0x2
 2443 0c1f 91       		.byte	0x91
 2444 0c20 70       		.sleb128 -16
 2445 0c21 24       		.uleb128 0x24
 2446 0c22 47050000 		.4byte	.LASF141
 2447 0c26 410C0000 		.4byte	0xc41
 2448 0c2a 05       		.uleb128 0x5
 2449 0c2b 03       		.byte	0x3
 2450 0c2c 00000000 		.4byte	__func__.6662
 2451 0c30 00       		.byte	0
 2452 0c31 15       		.uleb128 0x15
 2453 0c32 71070000 		.4byte	0x771
 2454 0c36 410C0000 		.4byte	0xc41
 2455 0c3a 16       		.uleb128 0x16
 2456 0c3b A5040000 		.4byte	0x4a5
 2457 0c3f 12       		.byte	0x12
 2458 0c40 00       		.byte	0
 2459 0c41 19       		.uleb128 0x19
 2460 0c42 310C0000 		.4byte	0xc31
 2461 0c46 2E       		.uleb128 0x2e
 2462 0c47 20010000 		.4byte	.LASF152
 2463 0c4b 12       		.byte	0x12
 2464 0c4c FA06     		.2byte	0x6fa
 2465 0c4e BF000000 		.4byte	0xbf
 2466 0c52 2F       		.uleb128 0x2f
 2467 0c53 636800   		.ascii	"ch\000"
 2468 0c56 03       		.byte	0x3
 2469 0c57 0902     		.2byte	0x209
ARM GAS  /tmp/ccq44K6q.s 			page 45


 2470 0c59 2D040000 		.4byte	0x42d
 2471 0c5d 00       		.byte	0
 2472              		.section	.debug_abbrev,"",%progbits
 2473              	.Ldebug_abbrev0:
 2474 0000 01       		.uleb128 0x1
 2475 0001 11       		.uleb128 0x11
 2476 0002 01       		.byte	0x1
 2477 0003 25       		.uleb128 0x25
 2478 0004 0E       		.uleb128 0xe
 2479 0005 13       		.uleb128 0x13
 2480 0006 0B       		.uleb128 0xb
 2481 0007 03       		.uleb128 0x3
 2482 0008 0E       		.uleb128 0xe
 2483 0009 55       		.uleb128 0x55
 2484 000a 17       		.uleb128 0x17
 2485 000b 11       		.uleb128 0x11
 2486 000c 01       		.uleb128 0x1
 2487 000d 10       		.uleb128 0x10
 2488 000e 17       		.uleb128 0x17
 2489 000f 00       		.byte	0
 2490 0010 00       		.byte	0
 2491 0011 02       		.uleb128 0x2
 2492 0012 24       		.uleb128 0x24
 2493 0013 00       		.byte	0
 2494 0014 0B       		.uleb128 0xb
 2495 0015 0B       		.uleb128 0xb
 2496 0016 3E       		.uleb128 0x3e
 2497 0017 0B       		.uleb128 0xb
 2498 0018 03       		.uleb128 0x3
 2499 0019 08       		.uleb128 0x8
 2500 001a 00       		.byte	0
 2501 001b 00       		.byte	0
 2502 001c 03       		.uleb128 0x3
 2503 001d 24       		.uleb128 0x24
 2504 001e 00       		.byte	0
 2505 001f 0B       		.uleb128 0xb
 2506 0020 0B       		.uleb128 0xb
 2507 0021 3E       		.uleb128 0x3e
 2508 0022 0B       		.uleb128 0xb
 2509 0023 03       		.uleb128 0x3
 2510 0024 0E       		.uleb128 0xe
 2511 0025 00       		.byte	0
 2512 0026 00       		.byte	0
 2513 0027 04       		.uleb128 0x4
 2514 0028 16       		.uleb128 0x16
 2515 0029 00       		.byte	0
 2516 002a 03       		.uleb128 0x3
 2517 002b 0E       		.uleb128 0xe
 2518 002c 3A       		.uleb128 0x3a
 2519 002d 0B       		.uleb128 0xb
 2520 002e 3B       		.uleb128 0x3b
 2521 002f 0B       		.uleb128 0xb
 2522 0030 49       		.uleb128 0x49
 2523 0031 13       		.uleb128 0x13
 2524 0032 00       		.byte	0
 2525 0033 00       		.byte	0
 2526 0034 05       		.uleb128 0x5
ARM GAS  /tmp/ccq44K6q.s 			page 46


 2527 0035 35       		.uleb128 0x35
 2528 0036 00       		.byte	0
 2529 0037 49       		.uleb128 0x49
 2530 0038 13       		.uleb128 0x13
 2531 0039 00       		.byte	0
 2532 003a 00       		.byte	0
 2533 003b 06       		.uleb128 0x6
 2534 003c 13       		.uleb128 0x13
 2535 003d 01       		.byte	0x1
 2536 003e 03       		.uleb128 0x3
 2537 003f 0E       		.uleb128 0xe
 2538 0040 0B       		.uleb128 0xb
 2539 0041 0B       		.uleb128 0xb
 2540 0042 3A       		.uleb128 0x3a
 2541 0043 0B       		.uleb128 0xb
 2542 0044 3B       		.uleb128 0x3b
 2543 0045 0B       		.uleb128 0xb
 2544 0046 01       		.uleb128 0x1
 2545 0047 13       		.uleb128 0x13
 2546 0048 00       		.byte	0
 2547 0049 00       		.byte	0
 2548 004a 07       		.uleb128 0x7
 2549 004b 0D       		.uleb128 0xd
 2550 004c 00       		.byte	0
 2551 004d 03       		.uleb128 0x3
 2552 004e 0E       		.uleb128 0xe
 2553 004f 3A       		.uleb128 0x3a
 2554 0050 0B       		.uleb128 0xb
 2555 0051 3B       		.uleb128 0x3b
 2556 0052 0B       		.uleb128 0xb
 2557 0053 49       		.uleb128 0x49
 2558 0054 13       		.uleb128 0x13
 2559 0055 38       		.uleb128 0x38
 2560 0056 0B       		.uleb128 0xb
 2561 0057 00       		.byte	0
 2562 0058 00       		.byte	0
 2563 0059 08       		.uleb128 0x8
 2564 005a 0D       		.uleb128 0xd
 2565 005b 00       		.byte	0
 2566 005c 03       		.uleb128 0x3
 2567 005d 08       		.uleb128 0x8
 2568 005e 3A       		.uleb128 0x3a
 2569 005f 0B       		.uleb128 0xb
 2570 0060 3B       		.uleb128 0x3b
 2571 0061 05       		.uleb128 0x5
 2572 0062 49       		.uleb128 0x49
 2573 0063 13       		.uleb128 0x13
 2574 0064 38       		.uleb128 0x38
 2575 0065 0B       		.uleb128 0xb
 2576 0066 00       		.byte	0
 2577 0067 00       		.byte	0
 2578 0068 09       		.uleb128 0x9
 2579 0069 0D       		.uleb128 0xd
 2580 006a 00       		.byte	0
 2581 006b 03       		.uleb128 0x3
 2582 006c 0E       		.uleb128 0xe
 2583 006d 3A       		.uleb128 0x3a
ARM GAS  /tmp/ccq44K6q.s 			page 47


 2584 006e 0B       		.uleb128 0xb
 2585 006f 3B       		.uleb128 0x3b
 2586 0070 05       		.uleb128 0x5
 2587 0071 49       		.uleb128 0x49
 2588 0072 13       		.uleb128 0x13
 2589 0073 38       		.uleb128 0x38
 2590 0074 0B       		.uleb128 0xb
 2591 0075 00       		.byte	0
 2592 0076 00       		.byte	0
 2593 0077 0A       		.uleb128 0xa
 2594 0078 0F       		.uleb128 0xf
 2595 0079 00       		.byte	0
 2596 007a 0B       		.uleb128 0xb
 2597 007b 0B       		.uleb128 0xb
 2598 007c 49       		.uleb128 0x49
 2599 007d 13       		.uleb128 0x13
 2600 007e 00       		.byte	0
 2601 007f 00       		.byte	0
 2602 0080 0B       		.uleb128 0xb
 2603 0081 13       		.uleb128 0x13
 2604 0082 01       		.byte	0x1
 2605 0083 03       		.uleb128 0x3
 2606 0084 0E       		.uleb128 0xe
 2607 0085 0B       		.uleb128 0xb
 2608 0086 0B       		.uleb128 0xb
 2609 0087 3A       		.uleb128 0x3a
 2610 0088 0B       		.uleb128 0xb
 2611 0089 3B       		.uleb128 0x3b
 2612 008a 05       		.uleb128 0x5
 2613 008b 01       		.uleb128 0x1
 2614 008c 13       		.uleb128 0x13
 2615 008d 00       		.byte	0
 2616 008e 00       		.byte	0
 2617 008f 0C       		.uleb128 0xc
 2618 0090 15       		.uleb128 0x15
 2619 0091 01       		.byte	0x1
 2620 0092 27       		.uleb128 0x27
 2621 0093 19       		.uleb128 0x19
 2622 0094 01       		.uleb128 0x1
 2623 0095 13       		.uleb128 0x13
 2624 0096 00       		.byte	0
 2625 0097 00       		.byte	0
 2626 0098 0D       		.uleb128 0xd
 2627 0099 05       		.uleb128 0x5
 2628 009a 00       		.byte	0
 2629 009b 49       		.uleb128 0x49
 2630 009c 13       		.uleb128 0x13
 2631 009d 00       		.byte	0
 2632 009e 00       		.byte	0
 2633 009f 0E       		.uleb128 0xe
 2634 00a0 0F       		.uleb128 0xf
 2635 00a1 00       		.byte	0
 2636 00a2 0B       		.uleb128 0xb
 2637 00a3 0B       		.uleb128 0xb
 2638 00a4 00       		.byte	0
 2639 00a5 00       		.byte	0
 2640 00a6 0F       		.uleb128 0xf
ARM GAS  /tmp/ccq44K6q.s 			page 48


 2641 00a7 13       		.uleb128 0x13
 2642 00a8 01       		.byte	0x1
 2643 00a9 03       		.uleb128 0x3
 2644 00aa 0E       		.uleb128 0xe
 2645 00ab 0B       		.uleb128 0xb
 2646 00ac 05       		.uleb128 0x5
 2647 00ad 3A       		.uleb128 0x3a
 2648 00ae 0B       		.uleb128 0xb
 2649 00af 3B       		.uleb128 0x3b
 2650 00b0 05       		.uleb128 0x5
 2651 00b1 01       		.uleb128 0x1
 2652 00b2 13       		.uleb128 0x13
 2653 00b3 00       		.byte	0
 2654 00b4 00       		.byte	0
 2655 00b5 10       		.uleb128 0x10
 2656 00b6 0D       		.uleb128 0xd
 2657 00b7 00       		.byte	0
 2658 00b8 03       		.uleb128 0x3
 2659 00b9 0E       		.uleb128 0xe
 2660 00ba 3A       		.uleb128 0x3a
 2661 00bb 0B       		.uleb128 0xb
 2662 00bc 3B       		.uleb128 0x3b
 2663 00bd 05       		.uleb128 0x5
 2664 00be 49       		.uleb128 0x49
 2665 00bf 13       		.uleb128 0x13
 2666 00c0 38       		.uleb128 0x38
 2667 00c1 05       		.uleb128 0x5
 2668 00c2 00       		.byte	0
 2669 00c3 00       		.byte	0
 2670 00c4 11       		.uleb128 0x11
 2671 00c5 0D       		.uleb128 0xd
 2672 00c6 00       		.byte	0
 2673 00c7 03       		.uleb128 0x3
 2674 00c8 08       		.uleb128 0x8
 2675 00c9 3A       		.uleb128 0x3a
 2676 00ca 0B       		.uleb128 0xb
 2677 00cb 3B       		.uleb128 0x3b
 2678 00cc 05       		.uleb128 0x5
 2679 00cd 49       		.uleb128 0x49
 2680 00ce 13       		.uleb128 0x13
 2681 00cf 38       		.uleb128 0x38
 2682 00d0 05       		.uleb128 0x5
 2683 00d1 00       		.byte	0
 2684 00d2 00       		.byte	0
 2685 00d3 12       		.uleb128 0x12
 2686 00d4 0D       		.uleb128 0xd
 2687 00d5 00       		.byte	0
 2688 00d6 03       		.uleb128 0x3
 2689 00d7 08       		.uleb128 0x8
 2690 00d8 3A       		.uleb128 0x3a
 2691 00d9 0B       		.uleb128 0xb
 2692 00da 3B       		.uleb128 0x3b
 2693 00db 0B       		.uleb128 0xb
 2694 00dc 49       		.uleb128 0x49
 2695 00dd 13       		.uleb128 0x13
 2696 00de 38       		.uleb128 0x38
 2697 00df 0B       		.uleb128 0xb
ARM GAS  /tmp/ccq44K6q.s 			page 49


 2698 00e0 00       		.byte	0
 2699 00e1 00       		.byte	0
 2700 00e2 13       		.uleb128 0x13
 2701 00e3 13       		.uleb128 0x13
 2702 00e4 01       		.byte	0x1
 2703 00e5 0B       		.uleb128 0xb
 2704 00e6 0B       		.uleb128 0xb
 2705 00e7 3A       		.uleb128 0x3a
 2706 00e8 0B       		.uleb128 0xb
 2707 00e9 3B       		.uleb128 0x3b
 2708 00ea 0B       		.uleb128 0xb
 2709 00eb 01       		.uleb128 0x1
 2710 00ec 13       		.uleb128 0x13
 2711 00ed 00       		.byte	0
 2712 00ee 00       		.byte	0
 2713 00ef 14       		.uleb128 0x14
 2714 00f0 13       		.uleb128 0x13
 2715 00f1 01       		.byte	0x1
 2716 00f2 0B       		.uleb128 0xb
 2717 00f3 05       		.uleb128 0x5
 2718 00f4 3A       		.uleb128 0x3a
 2719 00f5 0B       		.uleb128 0xb
 2720 00f6 3B       		.uleb128 0x3b
 2721 00f7 0B       		.uleb128 0xb
 2722 00f8 01       		.uleb128 0x1
 2723 00f9 13       		.uleb128 0x13
 2724 00fa 00       		.byte	0
 2725 00fb 00       		.byte	0
 2726 00fc 15       		.uleb128 0x15
 2727 00fd 01       		.uleb128 0x1
 2728 00fe 01       		.byte	0x1
 2729 00ff 49       		.uleb128 0x49
 2730 0100 13       		.uleb128 0x13
 2731 0101 01       		.uleb128 0x1
 2732 0102 13       		.uleb128 0x13
 2733 0103 00       		.byte	0
 2734 0104 00       		.byte	0
 2735 0105 16       		.uleb128 0x16
 2736 0106 21       		.uleb128 0x21
 2737 0107 00       		.byte	0
 2738 0108 49       		.uleb128 0x49
 2739 0109 13       		.uleb128 0x13
 2740 010a 2F       		.uleb128 0x2f
 2741 010b 0B       		.uleb128 0xb
 2742 010c 00       		.byte	0
 2743 010d 00       		.byte	0
 2744 010e 17       		.uleb128 0x17
 2745 010f 17       		.uleb128 0x17
 2746 0110 01       		.byte	0x1
 2747 0111 0B       		.uleb128 0xb
 2748 0112 0B       		.uleb128 0xb
 2749 0113 3A       		.uleb128 0x3a
 2750 0114 0B       		.uleb128 0xb
 2751 0115 3B       		.uleb128 0x3b
 2752 0116 0B       		.uleb128 0xb
 2753 0117 01       		.uleb128 0x1
 2754 0118 13       		.uleb128 0x13
ARM GAS  /tmp/ccq44K6q.s 			page 50


 2755 0119 00       		.byte	0
 2756 011a 00       		.byte	0
 2757 011b 18       		.uleb128 0x18
 2758 011c 0D       		.uleb128 0xd
 2759 011d 00       		.byte	0
 2760 011e 03       		.uleb128 0x3
 2761 011f 0E       		.uleb128 0xe
 2762 0120 3A       		.uleb128 0x3a
 2763 0121 0B       		.uleb128 0xb
 2764 0122 3B       		.uleb128 0x3b
 2765 0123 05       		.uleb128 0x5
 2766 0124 49       		.uleb128 0x49
 2767 0125 13       		.uleb128 0x13
 2768 0126 00       		.byte	0
 2769 0127 00       		.byte	0
 2770 0128 19       		.uleb128 0x19
 2771 0129 26       		.uleb128 0x26
 2772 012a 00       		.byte	0
 2773 012b 49       		.uleb128 0x49
 2774 012c 13       		.uleb128 0x13
 2775 012d 00       		.byte	0
 2776 012e 00       		.byte	0
 2777 012f 1A       		.uleb128 0x1a
 2778 0130 2E       		.uleb128 0x2e
 2779 0131 01       		.byte	0x1
 2780 0132 03       		.uleb128 0x3
 2781 0133 0E       		.uleb128 0xe
 2782 0134 3A       		.uleb128 0x3a
 2783 0135 0B       		.uleb128 0xb
 2784 0136 3B       		.uleb128 0x3b
 2785 0137 05       		.uleb128 0x5
 2786 0138 27       		.uleb128 0x27
 2787 0139 19       		.uleb128 0x19
 2788 013a 20       		.uleb128 0x20
 2789 013b 0B       		.uleb128 0xb
 2790 013c 01       		.uleb128 0x1
 2791 013d 13       		.uleb128 0x13
 2792 013e 00       		.byte	0
 2793 013f 00       		.byte	0
 2794 0140 1B       		.uleb128 0x1b
 2795 0141 05       		.uleb128 0x5
 2796 0142 00       		.byte	0
 2797 0143 03       		.uleb128 0x3
 2798 0144 0E       		.uleb128 0xe
 2799 0145 3A       		.uleb128 0x3a
 2800 0146 0B       		.uleb128 0xb
 2801 0147 3B       		.uleb128 0x3b
 2802 0148 05       		.uleb128 0x5
 2803 0149 49       		.uleb128 0x49
 2804 014a 13       		.uleb128 0x13
 2805 014b 00       		.byte	0
 2806 014c 00       		.byte	0
 2807 014d 1C       		.uleb128 0x1c
 2808 014e 2E       		.uleb128 0x2e
 2809 014f 01       		.byte	0x1
 2810 0150 03       		.uleb128 0x3
 2811 0151 0E       		.uleb128 0xe
ARM GAS  /tmp/ccq44K6q.s 			page 51


 2812 0152 3A       		.uleb128 0x3a
 2813 0153 0B       		.uleb128 0xb
 2814 0154 3B       		.uleb128 0x3b
 2815 0155 05       		.uleb128 0x5
 2816 0156 27       		.uleb128 0x27
 2817 0157 19       		.uleb128 0x19
 2818 0158 11       		.uleb128 0x11
 2819 0159 01       		.uleb128 0x1
 2820 015a 12       		.uleb128 0x12
 2821 015b 06       		.uleb128 0x6
 2822 015c 40       		.uleb128 0x40
 2823 015d 18       		.uleb128 0x18
 2824 015e 9742     		.uleb128 0x2117
 2825 0160 19       		.uleb128 0x19
 2826 0161 01       		.uleb128 0x1
 2827 0162 13       		.uleb128 0x13
 2828 0163 00       		.byte	0
 2829 0164 00       		.byte	0
 2830 0165 1D       		.uleb128 0x1d
 2831 0166 1D       		.uleb128 0x1d
 2832 0167 01       		.byte	0x1
 2833 0168 31       		.uleb128 0x31
 2834 0169 13       		.uleb128 0x13
 2835 016a 11       		.uleb128 0x11
 2836 016b 01       		.uleb128 0x1
 2837 016c 12       		.uleb128 0x12
 2838 016d 06       		.uleb128 0x6
 2839 016e 58       		.uleb128 0x58
 2840 016f 0B       		.uleb128 0xb
 2841 0170 59       		.uleb128 0x59
 2842 0171 05       		.uleb128 0x5
 2843 0172 00       		.byte	0
 2844 0173 00       		.byte	0
 2845 0174 1E       		.uleb128 0x1e
 2846 0175 05       		.uleb128 0x5
 2847 0176 00       		.byte	0
 2848 0177 31       		.uleb128 0x31
 2849 0178 13       		.uleb128 0x13
 2850 0179 02       		.uleb128 0x2
 2851 017a 18       		.uleb128 0x18
 2852 017b 00       		.byte	0
 2853 017c 00       		.byte	0
 2854 017d 1F       		.uleb128 0x1f
 2855 017e 05       		.uleb128 0x5
 2856 017f 00       		.byte	0
 2857 0180 03       		.uleb128 0x3
 2858 0181 08       		.uleb128 0x8
 2859 0182 3A       		.uleb128 0x3a
 2860 0183 0B       		.uleb128 0xb
 2861 0184 3B       		.uleb128 0x3b
 2862 0185 05       		.uleb128 0x5
 2863 0186 49       		.uleb128 0x49
 2864 0187 13       		.uleb128 0x13
 2865 0188 02       		.uleb128 0x2
 2866 0189 18       		.uleb128 0x18
 2867 018a 00       		.byte	0
 2868 018b 00       		.byte	0
ARM GAS  /tmp/ccq44K6q.s 			page 52


 2869 018c 20       		.uleb128 0x20
 2870 018d 2E       		.uleb128 0x2e
 2871 018e 01       		.byte	0x1
 2872 018f 03       		.uleb128 0x3
 2873 0190 0E       		.uleb128 0xe
 2874 0191 3A       		.uleb128 0x3a
 2875 0192 0B       		.uleb128 0xb
 2876 0193 3B       		.uleb128 0x3b
 2877 0194 05       		.uleb128 0x5
 2878 0195 27       		.uleb128 0x27
 2879 0196 19       		.uleb128 0x19
 2880 0197 49       		.uleb128 0x49
 2881 0198 13       		.uleb128 0x13
 2882 0199 11       		.uleb128 0x11
 2883 019a 01       		.uleb128 0x1
 2884 019b 12       		.uleb128 0x12
 2885 019c 06       		.uleb128 0x6
 2886 019d 40       		.uleb128 0x40
 2887 019e 18       		.uleb128 0x18
 2888 019f 9742     		.uleb128 0x2117
 2889 01a1 19       		.uleb128 0x19
 2890 01a2 01       		.uleb128 0x1
 2891 01a3 13       		.uleb128 0x13
 2892 01a4 00       		.byte	0
 2893 01a5 00       		.byte	0
 2894 01a6 21       		.uleb128 0x21
 2895 01a7 34       		.uleb128 0x34
 2896 01a8 00       		.byte	0
 2897 01a9 03       		.uleb128 0x3
 2898 01aa 08       		.uleb128 0x8
 2899 01ab 3A       		.uleb128 0x3a
 2900 01ac 0B       		.uleb128 0xb
 2901 01ad 3B       		.uleb128 0x3b
 2902 01ae 05       		.uleb128 0x5
 2903 01af 49       		.uleb128 0x49
 2904 01b0 13       		.uleb128 0x13
 2905 01b1 02       		.uleb128 0x2
 2906 01b2 18       		.uleb128 0x18
 2907 01b3 00       		.byte	0
 2908 01b4 00       		.byte	0
 2909 01b5 22       		.uleb128 0x22
 2910 01b6 2E       		.uleb128 0x2e
 2911 01b7 00       		.byte	0
 2912 01b8 03       		.uleb128 0x3
 2913 01b9 0E       		.uleb128 0xe
 2914 01ba 3A       		.uleb128 0x3a
 2915 01bb 0B       		.uleb128 0xb
 2916 01bc 3B       		.uleb128 0x3b
 2917 01bd 05       		.uleb128 0x5
 2918 01be 27       		.uleb128 0x27
 2919 01bf 19       		.uleb128 0x19
 2920 01c0 11       		.uleb128 0x11
 2921 01c1 01       		.uleb128 0x1
 2922 01c2 12       		.uleb128 0x12
 2923 01c3 06       		.uleb128 0x6
 2924 01c4 40       		.uleb128 0x40
 2925 01c5 18       		.uleb128 0x18
ARM GAS  /tmp/ccq44K6q.s 			page 53


 2926 01c6 9642     		.uleb128 0x2116
 2927 01c8 19       		.uleb128 0x19
 2928 01c9 00       		.byte	0
 2929 01ca 00       		.byte	0
 2930 01cb 23       		.uleb128 0x23
 2931 01cc 2E       		.uleb128 0x2e
 2932 01cd 01       		.byte	0x1
 2933 01ce 03       		.uleb128 0x3
 2934 01cf 0E       		.uleb128 0xe
 2935 01d0 3A       		.uleb128 0x3a
 2936 01d1 0B       		.uleb128 0xb
 2937 01d2 3B       		.uleb128 0x3b
 2938 01d3 05       		.uleb128 0x5
 2939 01d4 27       		.uleb128 0x27
 2940 01d5 19       		.uleb128 0x19
 2941 01d6 11       		.uleb128 0x11
 2942 01d7 01       		.uleb128 0x1
 2943 01d8 12       		.uleb128 0x12
 2944 01d9 06       		.uleb128 0x6
 2945 01da 40       		.uleb128 0x40
 2946 01db 18       		.uleb128 0x18
 2947 01dc 9642     		.uleb128 0x2116
 2948 01de 19       		.uleb128 0x19
 2949 01df 01       		.uleb128 0x1
 2950 01e0 13       		.uleb128 0x13
 2951 01e1 00       		.byte	0
 2952 01e2 00       		.byte	0
 2953 01e3 24       		.uleb128 0x24
 2954 01e4 34       		.uleb128 0x34
 2955 01e5 00       		.byte	0
 2956 01e6 03       		.uleb128 0x3
 2957 01e7 0E       		.uleb128 0xe
 2958 01e8 49       		.uleb128 0x49
 2959 01e9 13       		.uleb128 0x13
 2960 01ea 34       		.uleb128 0x34
 2961 01eb 19       		.uleb128 0x19
 2962 01ec 02       		.uleb128 0x2
 2963 01ed 18       		.uleb128 0x18
 2964 01ee 00       		.byte	0
 2965 01ef 00       		.byte	0
 2966 01f0 25       		.uleb128 0x25
 2967 01f1 2E       		.uleb128 0x2e
 2968 01f2 00       		.byte	0
 2969 01f3 03       		.uleb128 0x3
 2970 01f4 0E       		.uleb128 0xe
 2971 01f5 3A       		.uleb128 0x3a
 2972 01f6 0B       		.uleb128 0xb
 2973 01f7 3B       		.uleb128 0x3b
 2974 01f8 0B       		.uleb128 0xb
 2975 01f9 27       		.uleb128 0x27
 2976 01fa 19       		.uleb128 0x19
 2977 01fb 49       		.uleb128 0x49
 2978 01fc 13       		.uleb128 0x13
 2979 01fd 11       		.uleb128 0x11
 2980 01fe 01       		.uleb128 0x1
 2981 01ff 12       		.uleb128 0x12
 2982 0200 06       		.uleb128 0x6
ARM GAS  /tmp/ccq44K6q.s 			page 54


 2983 0201 40       		.uleb128 0x40
 2984 0202 18       		.uleb128 0x18
 2985 0203 9742     		.uleb128 0x2117
 2986 0205 19       		.uleb128 0x19
 2987 0206 00       		.byte	0
 2988 0207 00       		.byte	0
 2989 0208 26       		.uleb128 0x26
 2990 0209 2E       		.uleb128 0x2e
 2991 020a 00       		.byte	0
 2992 020b 03       		.uleb128 0x3
 2993 020c 0E       		.uleb128 0xe
 2994 020d 3A       		.uleb128 0x3a
 2995 020e 0B       		.uleb128 0xb
 2996 020f 3B       		.uleb128 0x3b
 2997 0210 0B       		.uleb128 0xb
 2998 0211 27       		.uleb128 0x27
 2999 0212 19       		.uleb128 0x19
 3000 0213 49       		.uleb128 0x49
 3001 0214 13       		.uleb128 0x13
 3002 0215 11       		.uleb128 0x11
 3003 0216 01       		.uleb128 0x1
 3004 0217 12       		.uleb128 0x12
 3005 0218 06       		.uleb128 0x6
 3006 0219 40       		.uleb128 0x40
 3007 021a 18       		.uleb128 0x18
 3008 021b 9642     		.uleb128 0x2116
 3009 021d 19       		.uleb128 0x19
 3010 021e 00       		.byte	0
 3011 021f 00       		.byte	0
 3012 0220 27       		.uleb128 0x27
 3013 0221 2E       		.uleb128 0x2e
 3014 0222 01       		.byte	0x1
 3015 0223 3F       		.uleb128 0x3f
 3016 0224 19       		.uleb128 0x19
 3017 0225 03       		.uleb128 0x3
 3018 0226 0E       		.uleb128 0xe
 3019 0227 3A       		.uleb128 0x3a
 3020 0228 0B       		.uleb128 0xb
 3021 0229 3B       		.uleb128 0x3b
 3022 022a 0B       		.uleb128 0xb
 3023 022b 27       		.uleb128 0x27
 3024 022c 19       		.uleb128 0x19
 3025 022d 11       		.uleb128 0x11
 3026 022e 01       		.uleb128 0x1
 3027 022f 12       		.uleb128 0x12
 3028 0230 06       		.uleb128 0x6
 3029 0231 40       		.uleb128 0x40
 3030 0232 18       		.uleb128 0x18
 3031 0233 9642     		.uleb128 0x2116
 3032 0235 19       		.uleb128 0x19
 3033 0236 01       		.uleb128 0x1
 3034 0237 13       		.uleb128 0x13
 3035 0238 00       		.byte	0
 3036 0239 00       		.byte	0
 3037 023a 28       		.uleb128 0x28
 3038 023b 05       		.uleb128 0x5
 3039 023c 00       		.byte	0
ARM GAS  /tmp/ccq44K6q.s 			page 55


 3040 023d 03       		.uleb128 0x3
 3041 023e 08       		.uleb128 0x8
 3042 023f 3A       		.uleb128 0x3a
 3043 0240 0B       		.uleb128 0xb
 3044 0241 3B       		.uleb128 0x3b
 3045 0242 0B       		.uleb128 0xb
 3046 0243 49       		.uleb128 0x49
 3047 0244 13       		.uleb128 0x13
 3048 0245 02       		.uleb128 0x2
 3049 0246 18       		.uleb128 0x18
 3050 0247 00       		.byte	0
 3051 0248 00       		.byte	0
 3052 0249 29       		.uleb128 0x29
 3053 024a 0B       		.uleb128 0xb
 3054 024b 01       		.byte	0x1
 3055 024c 11       		.uleb128 0x11
 3056 024d 01       		.uleb128 0x1
 3057 024e 12       		.uleb128 0x12
 3058 024f 06       		.uleb128 0x6
 3059 0250 00       		.byte	0
 3060 0251 00       		.byte	0
 3061 0252 2A       		.uleb128 0x2a
 3062 0253 34       		.uleb128 0x34
 3063 0254 00       		.byte	0
 3064 0255 03       		.uleb128 0x3
 3065 0256 08       		.uleb128 0x8
 3066 0257 3A       		.uleb128 0x3a
 3067 0258 0B       		.uleb128 0xb
 3068 0259 3B       		.uleb128 0x3b
 3069 025a 0B       		.uleb128 0xb
 3070 025b 49       		.uleb128 0x49
 3071 025c 13       		.uleb128 0x13
 3072 025d 02       		.uleb128 0x2
 3073 025e 18       		.uleb128 0x18
 3074 025f 00       		.byte	0
 3075 0260 00       		.byte	0
 3076 0261 2B       		.uleb128 0x2b
 3077 0262 2E       		.uleb128 0x2e
 3078 0263 01       		.byte	0x1
 3079 0264 3F       		.uleb128 0x3f
 3080 0265 19       		.uleb128 0x19
 3081 0266 03       		.uleb128 0x3
 3082 0267 0E       		.uleb128 0xe
 3083 0268 3A       		.uleb128 0x3a
 3084 0269 0B       		.uleb128 0xb
 3085 026a 3B       		.uleb128 0x3b
 3086 026b 0B       		.uleb128 0xb
 3087 026c 27       		.uleb128 0x27
 3088 026d 19       		.uleb128 0x19
 3089 026e 49       		.uleb128 0x49
 3090 026f 13       		.uleb128 0x13
 3091 0270 11       		.uleb128 0x11
 3092 0271 01       		.uleb128 0x1
 3093 0272 12       		.uleb128 0x12
 3094 0273 06       		.uleb128 0x6
 3095 0274 40       		.uleb128 0x40
 3096 0275 18       		.uleb128 0x18
ARM GAS  /tmp/ccq44K6q.s 			page 56


 3097 0276 9642     		.uleb128 0x2116
 3098 0278 19       		.uleb128 0x19
 3099 0279 01       		.uleb128 0x1
 3100 027a 13       		.uleb128 0x13
 3101 027b 00       		.byte	0
 3102 027c 00       		.byte	0
 3103 027d 2C       		.uleb128 0x2c
 3104 027e 2E       		.uleb128 0x2e
 3105 027f 01       		.byte	0x1
 3106 0280 3F       		.uleb128 0x3f
 3107 0281 19       		.uleb128 0x19
 3108 0282 03       		.uleb128 0x3
 3109 0283 0E       		.uleb128 0xe
 3110 0284 3A       		.uleb128 0x3a
 3111 0285 0B       		.uleb128 0xb
 3112 0286 3B       		.uleb128 0x3b
 3113 0287 05       		.uleb128 0x5
 3114 0288 27       		.uleb128 0x27
 3115 0289 19       		.uleb128 0x19
 3116 028a 49       		.uleb128 0x49
 3117 028b 13       		.uleb128 0x13
 3118 028c 11       		.uleb128 0x11
 3119 028d 01       		.uleb128 0x1
 3120 028e 12       		.uleb128 0x12
 3121 028f 06       		.uleb128 0x6
 3122 0290 40       		.uleb128 0x40
 3123 0291 18       		.uleb128 0x18
 3124 0292 9642     		.uleb128 0x2116
 3125 0294 19       		.uleb128 0x19
 3126 0295 01       		.uleb128 0x1
 3127 0296 13       		.uleb128 0x13
 3128 0297 00       		.byte	0
 3129 0298 00       		.byte	0
 3130 0299 2D       		.uleb128 0x2d
 3131 029a 05       		.uleb128 0x5
 3132 029b 00       		.byte	0
 3133 029c 03       		.uleb128 0x3
 3134 029d 0E       		.uleb128 0xe
 3135 029e 3A       		.uleb128 0x3a
 3136 029f 0B       		.uleb128 0xb
 3137 02a0 3B       		.uleb128 0x3b
 3138 02a1 05       		.uleb128 0x5
 3139 02a2 49       		.uleb128 0x49
 3140 02a3 13       		.uleb128 0x13
 3141 02a4 02       		.uleb128 0x2
 3142 02a5 18       		.uleb128 0x18
 3143 02a6 00       		.byte	0
 3144 02a7 00       		.byte	0
 3145 02a8 2E       		.uleb128 0x2e
 3146 02a9 34       		.uleb128 0x34
 3147 02aa 00       		.byte	0
 3148 02ab 03       		.uleb128 0x3
 3149 02ac 0E       		.uleb128 0xe
 3150 02ad 3A       		.uleb128 0x3a
 3151 02ae 0B       		.uleb128 0xb
 3152 02af 3B       		.uleb128 0x3b
 3153 02b0 05       		.uleb128 0x5
ARM GAS  /tmp/ccq44K6q.s 			page 57


 3154 02b1 49       		.uleb128 0x49
 3155 02b2 13       		.uleb128 0x13
 3156 02b3 3F       		.uleb128 0x3f
 3157 02b4 19       		.uleb128 0x19
 3158 02b5 3C       		.uleb128 0x3c
 3159 02b6 19       		.uleb128 0x19
 3160 02b7 00       		.byte	0
 3161 02b8 00       		.byte	0
 3162 02b9 2F       		.uleb128 0x2f
 3163 02ba 34       		.uleb128 0x34
 3164 02bb 00       		.byte	0
 3165 02bc 03       		.uleb128 0x3
 3166 02bd 08       		.uleb128 0x8
 3167 02be 3A       		.uleb128 0x3a
 3168 02bf 0B       		.uleb128 0xb
 3169 02c0 3B       		.uleb128 0x3b
 3170 02c1 05       		.uleb128 0x5
 3171 02c2 49       		.uleb128 0x49
 3172 02c3 13       		.uleb128 0x13
 3173 02c4 3F       		.uleb128 0x3f
 3174 02c5 19       		.uleb128 0x19
 3175 02c6 3C       		.uleb128 0x3c
 3176 02c7 19       		.uleb128 0x19
 3177 02c8 00       		.byte	0
 3178 02c9 00       		.byte	0
 3179 02ca 00       		.byte	0
 3180              		.section	.debug_aranges,"",%progbits
 3181 0000 AC000000 		.4byte	0xac
 3182 0004 0200     		.2byte	0x2
 3183 0006 00000000 		.4byte	.Ldebug_info0
 3184 000a 04       		.byte	0x4
 3185 000b 00       		.byte	0
 3186 000c 0000     		.2byte	0
 3187 000e 0000     		.2byte	0
 3188 0010 00000000 		.4byte	.LFB127
 3189 0014 10000000 		.4byte	.LFE127-.LFB127
 3190 0018 00000000 		.4byte	.LFB128
 3191 001c 10000000 		.4byte	.LFE128-.LFB128
 3192 0020 00000000 		.4byte	.LFB150
 3193 0024 14000000 		.4byte	.LFE150-.LFB150
 3194 0028 00000000 		.4byte	.LFB152
 3195 002c 1A000000 		.4byte	.LFE152-.LFB152
 3196 0030 00000000 		.4byte	.LFB155
 3197 0034 44000000 		.4byte	.LFE155-.LFB155
 3198 0038 00000000 		.4byte	.LFB157
 3199 003c 22000000 		.4byte	.LFE157-.LFB157
 3200 0040 00000000 		.4byte	.LFB167
 3201 0044 10000000 		.4byte	.LFE167-.LFB167
 3202 0048 00000000 		.4byte	.LFB168
 3203 004c 38000000 		.4byte	.LFE168-.LFB168
 3204 0050 00000000 		.4byte	.LFB188
 3205 0054 0C000000 		.4byte	.LFE188-.LFB188
 3206 0058 00000000 		.4byte	.LFB214
 3207 005c 0E000000 		.4byte	.LFE214-.LFB214
 3208 0060 00000000 		.4byte	.LFB240
 3209 0064 24000000 		.4byte	.LFE240-.LFB240
 3210 0068 00000000 		.4byte	.LFB241
ARM GAS  /tmp/ccq44K6q.s 			page 58


 3211 006c 44000000 		.4byte	.LFE241-.LFB241
 3212 0070 00000000 		.4byte	.LFB242
 3213 0074 44000000 		.4byte	.LFE242-.LFB242
 3214 0078 00000000 		.4byte	.LFB243
 3215 007c 1E000000 		.4byte	.LFE243-.LFB243
 3216 0080 00000000 		.4byte	.LFB244
 3217 0084 4C000000 		.4byte	.LFE244-.LFB244
 3218 0088 00000000 		.4byte	.LFB245
 3219 008c 20000000 		.4byte	.LFE245-.LFB245
 3220 0090 00000000 		.4byte	.LFB246
 3221 0094 6C000000 		.4byte	.LFE246-.LFB246
 3222 0098 00000000 		.4byte	.LFB247
 3223 009c 24000000 		.4byte	.LFE247-.LFB247
 3224 00a0 00000000 		.4byte	.LFB248
 3225 00a4 7C000000 		.4byte	.LFE248-.LFB248
 3226 00a8 00000000 		.4byte	0
 3227 00ac 00000000 		.4byte	0
 3228              		.section	.debug_ranges,"",%progbits
 3229              	.Ldebug_ranges0:
 3230 0000 00000000 		.4byte	.LFB127
 3231 0004 10000000 		.4byte	.LFE127
 3232 0008 00000000 		.4byte	.LFB128
 3233 000c 10000000 		.4byte	.LFE128
 3234 0010 00000000 		.4byte	.LFB150
 3235 0014 14000000 		.4byte	.LFE150
 3236 0018 00000000 		.4byte	.LFB152
 3237 001c 1A000000 		.4byte	.LFE152
 3238 0020 00000000 		.4byte	.LFB155
 3239 0024 44000000 		.4byte	.LFE155
 3240 0028 00000000 		.4byte	.LFB157
 3241 002c 22000000 		.4byte	.LFE157
 3242 0030 00000000 		.4byte	.LFB167
 3243 0034 10000000 		.4byte	.LFE167
 3244 0038 00000000 		.4byte	.LFB168
 3245 003c 38000000 		.4byte	.LFE168
 3246 0040 00000000 		.4byte	.LFB188
 3247 0044 0C000000 		.4byte	.LFE188
 3248 0048 00000000 		.4byte	.LFB214
 3249 004c 0E000000 		.4byte	.LFE214
 3250 0050 00000000 		.4byte	.LFB240
 3251 0054 24000000 		.4byte	.LFE240
 3252 0058 00000000 		.4byte	.LFB241
 3253 005c 44000000 		.4byte	.LFE241
 3254 0060 00000000 		.4byte	.LFB242
 3255 0064 44000000 		.4byte	.LFE242
 3256 0068 00000000 		.4byte	.LFB243
 3257 006c 1E000000 		.4byte	.LFE243
 3258 0070 00000000 		.4byte	.LFB244
 3259 0074 4C000000 		.4byte	.LFE244
 3260 0078 00000000 		.4byte	.LFB245
 3261 007c 20000000 		.4byte	.LFE245
 3262 0080 00000000 		.4byte	.LFB246
 3263 0084 6C000000 		.4byte	.LFE246
 3264 0088 00000000 		.4byte	.LFB247
 3265 008c 24000000 		.4byte	.LFE247
 3266 0090 00000000 		.4byte	.LFB248
 3267 0094 7C000000 		.4byte	.LFE248
ARM GAS  /tmp/ccq44K6q.s 			page 59


 3268 0098 00000000 		.4byte	0
 3269 009c 00000000 		.4byte	0
 3270              		.section	.debug_line,"",%progbits
 3271              	.Ldebug_line0:
 3272 0000 0C040000 		.section	.debug_str,"MS",%progbits,1
 3272      0200EE01 
 3272      00000201 
 3272      FB0E0D00 
 3272      01010101 
 3273              	.LASF97:
 3274 0000 74625F70 		.ascii	"tb_ptr\000"
 3274      747200
 3275              	.LASF54:
 3276 0007 72656164 		.ascii	"ready_list_t\000"
 3276      795F6C69 
 3276      73745F74 
 3276      00
 3277              	.LASF91:
 3278 0014 73655F74 		.ascii	"se_time\000"
 3278      696D6500 
 3279              	.LASF115:
 3280 001c 77747472 		.ascii	"wttrp\000"
 3280      7000
 3281              	.LASF112:
 3282 0022 7264796D 		.ascii	"rdymsg\000"
 3282      736700
 3283              	.LASF16:
 3284 0029 75696E74 		.ascii	"uint64_t\000"
 3284      36345F74 
 3284      00
 3285              	.LASF84:
 3286 0032 6B65726E 		.ascii	"kernel_stats\000"
 3286      656C5F73 
 3286      74617473 
 3286      00
 3287              	.LASF5:
 3288 003f 5F5F7569 		.ascii	"__uint8_t\000"
 3288      6E74385F 
 3288      7400
 3289              	.LASF90:
 3290 0049 706F7274 		.ascii	"port_intctx\000"
 3290      5F696E74 
 3290      63747800 
 3291              	.LASF53:
 3292 0055 63685F74 		.ascii	"ch_threads_queue\000"
 3292      68726561 
 3292      64735F71 
 3292      75657565 
 3292      00
 3293              	.LASF73:
 3294 0066 73797374 		.ascii	"system_debug_t\000"
 3294      656D5F64 
 3294      65627567 
 3294      5F7400
 3295              	.LASF133:
 3296 0075 71756575 		.ascii	"queue_init\000"
 3296      655F696E 
ARM GAS  /tmp/ccq44K6q.s 			page 60


 3296      697400
 3297              	.LASF131:
 3298 0080 706F7274 		.ascii	"port_lock\000"
 3298      5F6C6F63 
 3298      6B00
 3299              	.LASF103:
 3300 008a 776F7273 		.ascii	"worst\000"
 3300      7400
 3301              	.LASF106:
 3302 0090 74696D65 		.ascii	"time_measurement_t\000"
 3302      5F6D6561 
 3302      73757265 
 3302      6D656E74 
 3302      5F7400
 3303              	.LASF146:
 3304 00a3 6368436F 		.ascii	"chCondBroadcastI\000"
 3304      6E644272 
 3304      6F616463 
 3304      61737449 
 3304      00
 3305              	.LASF12:
 3306 00b4 6C6F6E67 		.ascii	"long long unsigned int\000"
 3306      206C6F6E 
 3306      6720756E 
 3306      7369676E 
 3306      65642069 
 3307              	.LASF99:
 3308 00cb 63685F74 		.ascii	"ch_trace_buffer_t\000"
 3308      72616365 
 3308      5F627566 
 3308      6665725F 
 3308      7400
 3309              	.LASF145:
 3310 00dd 6368436F 		.ascii	"chCondBroadcast\000"
 3310      6E644272 
 3310      6F616463 
 3310      61737400 
 3311              	.LASF94:
 3312 00ed 73655F73 		.ascii	"se_state\000"
 3312      74617465 
 3312      00
 3313              	.LASF113:
 3314 00f6 65786974 		.ascii	"exitcode\000"
 3314      636F6465 
 3314      00
 3315              	.LASF83:
 3316 00ff 6D61696E 		.ascii	"mainthread\000"
 3316      74687265 
 3316      616400
 3317              	.LASF70:
 3318 010a 76697274 		.ascii	"virtual_timers_list_t\000"
 3318      75616C5F 
 3318      74696D65 
 3318      72735F6C 
 3318      6973745F 
 3319              	.LASF152:
 3320 0120 49544D5F 		.ascii	"ITM_RxBuffer\000"
ARM GAS  /tmp/ccq44K6q.s 			page 61


 3320      52784275 
 3320      66666572 
 3320      00
 3321              	.LASF18:
 3322 012d 72747469 		.ascii	"rttime_t\000"
 3322      6D655F74 
 3322      00
 3323              	.LASF31:
 3324 0136 705F7072 		.ascii	"p_prio\000"
 3324      696F00
 3325              	.LASF10:
 3326 013d 6C6F6E67 		.ascii	"long long int\000"
 3326      206C6F6E 
 3326      6720696E 
 3326      7400
 3327              	.LASF1:
 3328 014b 7369676E 		.ascii	"signed char\000"
 3328      65642063 
 3328      68617200 
 3329              	.LASF130:
 3330 0157 636F6E64 		.ascii	"condition_variable_t\000"
 3330      6974696F 
 3330      6E5F7661 
 3330      72696162 
 3330      6C655F74 
 3331              	.LASF46:
 3332 016c 705F6D70 		.ascii	"p_mpool\000"
 3332      6F6F6C00 
 3333              	.LASF123:
 3334 0174 6D5F7175 		.ascii	"m_queue\000"
 3334      65756500 
 3335              	.LASF82:
 3336 017c 76746C69 		.ascii	"vtlist\000"
 3336      737400
 3337              	.LASF132:
 3338 0183 706F7274 		.ascii	"port_unlock\000"
 3338      5F756E6C 
 3338      6F636B00 
 3339              	.LASF80:
 3340 018f 63685F73 		.ascii	"ch_system\000"
 3340      79737465 
 3340      6D00
 3341              	.LASF7:
 3342 0199 6C6F6E67 		.ascii	"long int\000"
 3342      20696E74 
 3342      00
 3343              	.LASF20:
 3344 01a2 74737461 		.ascii	"tstate_t\000"
 3344      74655F74 
 3344      00
 3345              	.LASF136:
 3346 01ab 71756575 		.ascii	"queue_notempty\000"
 3346      655F6E6F 
 3346      74656D70 
 3346      747900
 3347              	.LASF92:
 3348 01ba 73655F74 		.ascii	"se_tp\000"
ARM GAS  /tmp/ccq44K6q.s 			page 62


 3348      7000
 3349              	.LASF153:
 3350 01c0 474E5520 		.ascii	"GNU C 4.8.4 20141219 (release) -mcpu=cortex-m4 -mno"
 3350      4320342E 
 3350      382E3420 
 3350      32303134 
 3350      31323139 
 3351 01f3 2D746875 		.ascii	"-thumb-interwork -mthumb -ggdb -O0 -fomit-frame-poi"
 3351      6D622D69 
 3351      6E746572 
 3351      776F726B 
 3351      202D6D74 
 3352 0226 6E746572 		.ascii	"nter -falign-functions=16 -ffunction-sections -fdat"
 3352      202D6661 
 3352      6C69676E 
 3352      2D66756E 
 3352      6374696F 
 3353 0259 612D7365 		.ascii	"a-sections -fno-common\000"
 3353      6374696F 
 3353      6E73202D 
 3353      666E6F2D 
 3353      636F6D6D 
 3354              	.LASF33:
 3355 0270 705F6E65 		.ascii	"p_newer\000"
 3355      77657200 
 3356              	.LASF120:
 3357 0278 735F7175 		.ascii	"s_queue\000"
 3357      65756500 
 3358              	.LASF96:
 3359 0280 74625F73 		.ascii	"tb_size\000"
 3359      697A6500 
 3360              	.LASF59:
 3361 0288 725F6E65 		.ascii	"r_newer\000"
 3361      77657200 
 3362              	.LASF87:
 3363 0290 72656761 		.ascii	"regarm_t\000"
 3363      726D5F74 
 3363      00
 3364              	.LASF66:
 3365 0299 76745F70 		.ascii	"vt_prev\000"
 3365      72657600 
 3366              	.LASF74:
 3367 02a1 63685F73 		.ascii	"ch_system_debug\000"
 3367      79737465 
 3367      6D5F6465 
 3367      62756700 
 3368              	.LASF127:
 3369 02b1 6D757465 		.ascii	"mutex_t\000"
 3369      785F7400 
 3370              	.LASF156:
 3371 02b9 76616C75 		.ascii	"value\000"
 3371      6500
 3372              	.LASF77:
 3373 02bf 6C6F636B 		.ascii	"lock_cnt\000"
 3373      5F636E74 
 3373      00
 3374              	.LASF143:
ARM GAS  /tmp/ccq44K6q.s 			page 63


 3375 02c8 6368436F 		.ascii	"chCondSignal\000"
 3375      6E645369 
 3375      676E616C 
 3375      00
 3376              	.LASF85:
 3377 02d5 69646C65 		.ascii	"idle_thread_wa\000"
 3377      5F746872 
 3377      6561645F 
 3377      776100
 3378              	.LASF25:
 3379 02e4 636E745F 		.ascii	"cnt_t\000"
 3379      7400
 3380              	.LASF36:
 3381 02ea 705F7374 		.ascii	"p_stklimit\000"
 3381      6B6C696D 
 3381      697400
 3382              	.LASF0:
 3383 02f5 756E7369 		.ascii	"unsigned int\000"
 3383      676E6564 
 3383      20696E74 
 3383      00
 3384              	.LASF65:
 3385 0302 76745F6E 		.ascii	"vt_next\000"
 3385      65787400 
 3386              	.LASF125:
 3387 030a 6D5F6E65 		.ascii	"m_next\000"
 3387      787400
 3388              	.LASF116:
 3389 0311 77747365 		.ascii	"wtsemp\000"
 3389      6D7000
 3390              	.LASF41:
 3391 0318 705F6D73 		.ascii	"p_msgqueue\000"
 3391      67717565 
 3391      756500
 3392              	.LASF107:
 3393 0323 6E5F6972 		.ascii	"n_irq\000"
 3393      7100
 3394              	.LASF121:
 3395 0329 735F636E 		.ascii	"s_cnt\000"
 3395      7400
 3396              	.LASF4:
 3397 032f 73686F72 		.ascii	"short unsigned int\000"
 3397      7420756E 
 3397      7369676E 
 3397      65642069 
 3397      6E7400
 3398              	.LASF111:
 3399 0342 6B65726E 		.ascii	"kernel_stats_t\000"
 3399      656C5F73 
 3399      74617473 
 3399      5F7400
 3400              	.LASF50:
 3401 0351 63685F74 		.ascii	"ch_thread\000"
 3401      68726561 
 3401      6400
 3402              	.LASF23:
 3403 035b 6D73675F 		.ascii	"msg_t\000"
ARM GAS  /tmp/ccq44K6q.s 			page 64


 3403      7400
 3404              	.LASF104:
 3405 0361 6C617374 		.ascii	"last\000"
 3405      00
 3406              	.LASF26:
 3407 0366 75636E74 		.ascii	"ucnt_t\000"
 3407      5F7400
 3408              	.LASF79:
 3409 036d 63685F73 		.ascii	"ch_system_t\000"
 3409      79737465 
 3409      6D5F7400 
 3410              	.LASF19:
 3411 0379 746D6F64 		.ascii	"tmode_t\000"
 3411      655F7400 
 3412              	.LASF110:
 3413 0381 6D5F6372 		.ascii	"m_crit_isr\000"
 3413      69745F69 
 3413      737200
 3414              	.LASF55:
 3415 038c 63685F72 		.ascii	"ch_ready_list\000"
 3415      65616479 
 3415      5F6C6973 
 3415      7400
 3416              	.LASF24:
 3417 039a 6576656E 		.ascii	"eventmask_t\000"
 3417      746D6173 
 3417      6B5F7400 
 3418              	.LASF6:
 3419 03a6 5F5F696E 		.ascii	"__int32_t\000"
 3419      7433325F 
 3419      7400
 3420              	.LASF88:
 3421 03b0 73746B61 		.ascii	"stkalign_t\000"
 3421      6C69676E 
 3421      5F7400
 3422              	.LASF40:
 3423 03bb 705F7761 		.ascii	"p_waiting\000"
 3423      6974696E 
 3423      6700
 3424              	.LASF86:
 3425 03c5 73697A65 		.ascii	"sizetype\000"
 3425      74797065 
 3425      00
 3426              	.LASF48:
 3427 03ce 74687265 		.ascii	"thread_reference_t\000"
 3427      61645F72 
 3427      65666572 
 3427      656E6365 
 3427      5F7400
 3428              	.LASF71:
 3429 03e1 63685F76 		.ascii	"ch_virtual_timers_list\000"
 3429      69727475 
 3429      616C5F74 
 3429      696D6572 
 3429      735F6C69 
 3430              	.LASF128:
 3431 03f8 636F6E64 		.ascii	"condition_variable\000"
ARM GAS  /tmp/ccq44K6q.s 			page 65


 3431      6974696F 
 3431      6E5F7661 
 3431      72696162 
 3431      6C6500
 3432              	.LASF151:
 3433 040b 6368436F 		.ascii	"chCondWaitTimeoutS\000"
 3433      6E645761 
 3433      69745469 
 3433      6D656F75 
 3433      745300
 3434              	.LASF95:
 3435 041e 63685F73 		.ascii	"ch_swc_event_t\000"
 3435      77635F65 
 3435      76656E74 
 3435      5F7400
 3436              	.LASF72:
 3437 042d 76745F6C 		.ascii	"vt_lasttime\000"
 3437      61737474 
 3437      696D6500 
 3438              	.LASF108:
 3439 0439 6E5F6374 		.ascii	"n_ctxswc\000"
 3439      78737763 
 3439      00
 3440              	.LASF34:
 3441 0442 705F6F6C 		.ascii	"p_older\000"
 3441      64657200 
 3442              	.LASF58:
 3443 044a 725F6374 		.ascii	"r_ctx\000"
 3443      7800
 3444              	.LASF101:
 3445 0450 746D5F63 		.ascii	"tm_calibration_t\000"
 3445      616C6962 
 3445      72617469 
 3445      6F6E5F74 
 3445      00
 3446              	.LASF154:
 3447 0461 2F686F6D 		.ascii	"/home/efe/ChibiOS/os/rt/src/chcond.c\000"
 3447      652F6566 
 3447      652F4368 
 3447      6962694F 
 3447      532F6F73 
 3448              	.LASF150:
 3449 0486 74696D65 		.ascii	"time\000"
 3449      00
 3450              	.LASF61:
 3451 048b 725F6375 		.ascii	"r_current\000"
 3451      7272656E 
 3451      7400
 3452              	.LASF60:
 3453 0495 725F6F6C 		.ascii	"r_older\000"
 3453      64657200 
 3454              	.LASF11:
 3455 049d 5F5F7569 		.ascii	"__uint64_t\000"
 3455      6E743634 
 3455      5F7400
 3456              	.LASF105:
 3457 04a8 63756D75 		.ascii	"cumulative\000"
ARM GAS  /tmp/ccq44K6q.s 			page 66


 3457      6C617469 
 3457      766500
 3458              	.LASF21:
 3459 04b3 74726566 		.ascii	"trefs_t\000"
 3459      735F7400 
 3460              	.LASF98:
 3461 04bb 74625F62 		.ascii	"tb_buffer\000"
 3461      75666665 
 3461      7200
 3462              	.LASF63:
 3463 04c5 76697274 		.ascii	"virtual_timer_t\000"
 3463      75616C5F 
 3463      74696D65 
 3463      725F7400 
 3464              	.LASF30:
 3465 04d5 705F7072 		.ascii	"p_prev\000"
 3465      657600
 3466              	.LASF22:
 3467 04dc 74707269 		.ascii	"tprio_t\000"
 3467      6F5F7400 
 3468              	.LASF144:
 3469 04e4 6368436F 		.ascii	"chCondSignalI\000"
 3469      6E645369 
 3469      676E616C 
 3469      4900
 3470              	.LASF134:
 3471 04f2 5F426F6F 		.ascii	"_Bool\000"
 3471      6C00
 3472              	.LASF14:
 3473 04f8 696E7433 		.ascii	"int32_t\000"
 3473      325F7400 
 3474              	.LASF2:
 3475 0500 756E7369 		.ascii	"unsigned char\000"
 3475      676E6564 
 3475      20636861 
 3475      7200
 3476              	.LASF44:
 3477 050e 705F6D74 		.ascii	"p_mtxlist\000"
 3477      786C6973 
 3477      7400
 3478              	.LASF3:
 3479 0518 73686F72 		.ascii	"short int\000"
 3479      7420696E 
 3479      7400
 3480              	.LASF37:
 3481 0522 705F7374 		.ascii	"p_state\000"
 3481      61746500 
 3482              	.LASF57:
 3483 052a 725F7072 		.ascii	"r_prio\000"
 3483      696F00
 3484              	.LASF118:
 3485 0531 65776D61 		.ascii	"ewmask\000"
 3485      736B00
 3486              	.LASF29:
 3487 0538 705F6E65 		.ascii	"p_next\000"
 3487      787400
 3488              	.LASF38:
ARM GAS  /tmp/ccq44K6q.s 			page 67


 3489 053f 705F666C 		.ascii	"p_flags\000"
 3489      61677300 
 3490              	.LASF141:
 3491 0547 5F5F6675 		.ascii	"__func__\000"
 3491      6E635F5F 
 3491      00
 3492              	.LASF47:
 3493 0550 705F7374 		.ascii	"p_stats\000"
 3493      61747300 
 3494              	.LASF157:
 3495 0558 63685379 		.ascii	"chSysLock\000"
 3495      734C6F63 
 3495      6B00
 3496              	.LASF64:
 3497 0562 63685F76 		.ascii	"ch_virtual_timer\000"
 3497      69727475 
 3497      616C5F74 
 3497      696D6572 
 3497      00
 3498              	.LASF129:
 3499 0573 635F7175 		.ascii	"c_queue\000"
 3499      65756500 
 3500              	.LASF119:
 3501 057b 63685F73 		.ascii	"ch_semaphore\000"
 3501      656D6170 
 3501      686F7265 
 3501      00
 3502              	.LASF43:
 3503 0588 705F6570 		.ascii	"p_epending\000"
 3503      656E6469 
 3503      6E6700
 3504              	.LASF140:
 3505 0593 63684D74 		.ascii	"chMtxGetNextMutexS\000"
 3505      78476574 
 3505      4E657874 
 3505      4D757465 
 3505      785300
 3506              	.LASF15:
 3507 05a6 75696E74 		.ascii	"uint32_t\000"
 3507      33325F74 
 3507      00
 3508              	.LASF117:
 3509 05af 77746D74 		.ascii	"wtmtxp\000"
 3509      787000
 3510              	.LASF56:
 3511 05b6 725F7175 		.ascii	"r_queue\000"
 3511      65756500 
 3512              	.LASF67:
 3513 05be 76745F64 		.ascii	"vt_delta\000"
 3513      656C7461 
 3513      00
 3514              	.LASF51:
 3515 05c7 63685F74 		.ascii	"ch_threads_list\000"
 3515      68726561 
 3515      64735F6C 
 3515      69737400 
 3516              	.LASF9:
ARM GAS  /tmp/ccq44K6q.s 			page 68


 3517 05d7 6C6F6E67 		.ascii	"long unsigned int\000"
 3517      20756E73 
 3517      69676E65 
 3517      6420696E 
 3517      7400
 3518              	.LASF126:
 3519 05e9 63686172 		.ascii	"char\000"
 3519      00
 3520              	.LASF148:
 3521 05ee 6368436F 		.ascii	"chCondWaitS\000"
 3521      6E645761 
 3521      69745300 
 3522              	.LASF142:
 3523 05fa 6368436F 		.ascii	"chCondObjectInit\000"
 3523      6E644F62 
 3523      6A656374 
 3523      496E6974 
 3523      00
 3524              	.LASF102:
 3525 060b 62657374 		.ascii	"best\000"
 3525      00
 3526              	.LASF137:
 3527 0610 71756575 		.ascii	"queue_fifo_remove\000"
 3527      655F6669 
 3527      666F5F72 
 3527      656D6F76 
 3527      6500
 3528              	.LASF27:
 3529 0622 73797374 		.ascii	"systime_t\000"
 3529      696D655F 
 3529      7400
 3530              	.LASF45:
 3531 062c 705F7265 		.ascii	"p_realprio\000"
 3531      616C7072 
 3531      696F00
 3532              	.LASF62:
 3533 0637 76746675 		.ascii	"vtfunc_t\000"
 3533      6E635F74 
 3533      00
 3534              	.LASF8:
 3535 0640 5F5F7569 		.ascii	"__uint32_t\000"
 3535      6E743332 
 3535      5F7400
 3536              	.LASF155:
 3537 064b 5F5F7365 		.ascii	"__set_BASEPRI\000"
 3537      745F4241 
 3537      53455052 
 3537      4900
 3538              	.LASF75:
 3539 0659 70616E69 		.ascii	"panic_msg\000"
 3539      635F6D73 
 3539      6700
 3540              	.LASF100:
 3541 0663 6F666673 		.ascii	"offset\000"
 3541      657400
 3542              	.LASF89:
 3543 066a 636F6E74 		.ascii	"context\000"
ARM GAS  /tmp/ccq44K6q.s 			page 69


 3543      65787400 
 3544              	.LASF17:
 3545 0672 7274636E 		.ascii	"rtcnt_t\000"
 3545      745F7400 
 3546              	.LASF147:
 3547 067a 6368436F 		.ascii	"chCondWait\000"
 3547      6E645761 
 3547      697400
 3548              	.LASF69:
 3549 0685 76745F70 		.ascii	"vt_par\000"
 3549      617200
 3550              	.LASF52:
 3551 068c 74687265 		.ascii	"threads_queue_t\000"
 3551      6164735F 
 3551      71756575 
 3551      655F7400 
 3552              	.LASF122:
 3553 069c 63685F6D 		.ascii	"ch_mutex\000"
 3553      75746578 
 3553      00
 3554              	.LASF39:
 3555 06a5 705F7265 		.ascii	"p_refs\000"
 3555      667300
 3556              	.LASF76:
 3557 06ac 6973725F 		.ascii	"isr_cnt\000"
 3557      636E7400 
 3558              	.LASF28:
 3559 06b4 74687265 		.ascii	"thread_t\000"
 3559      61645F74 
 3559      00
 3560              	.LASF81:
 3561 06bd 726C6973 		.ascii	"rlist\000"
 3561      7400
 3562              	.LASF139:
 3563 06c3 63685468 		.ascii	"chThdGetSelfX\000"
 3563      64476574 
 3563      53656C66 
 3563      5800
 3564              	.LASF13:
 3565 06d1 75696E74 		.ascii	"uint8_t\000"
 3565      385F7400 
 3566              	.LASF114:
 3567 06d9 77746F62 		.ascii	"wtobjp\000"
 3567      6A7000
 3568              	.LASF35:
 3569 06e0 705F6E61 		.ascii	"p_name\000"
 3569      6D6500
 3570              	.LASF149:
 3571 06e7 6368436F 		.ascii	"chCondWaitTimeout\000"
 3571      6E645761 
 3571      69745469 
 3571      6D656F75 
 3571      7400
 3572              	.LASF49:
 3573 06f9 74687265 		.ascii	"threads_list_t\000"
 3573      6164735F 
 3573      6C697374 
ARM GAS  /tmp/ccq44K6q.s 			page 70


 3573      5F7400
 3574              	.LASF78:
 3575 0708 74726163 		.ascii	"trace_buffer\000"
 3575      655F6275 
 3575      66666572 
 3575      00
 3576              	.LASF138:
 3577 0715 63685379 		.ascii	"chSysUnlock\000"
 3577      73556E6C 
 3577      6F636B00 
 3578              	.LASF42:
 3579 0721 705F6D73 		.ascii	"p_msg\000"
 3579      6700
 3580              	.LASF135:
 3581 0727 71756575 		.ascii	"queue_prio_insert\000"
 3581      655F7072 
 3581      696F5F69 
 3581      6E736572 
 3581      7400
 3582              	.LASF109:
 3583 0739 6D5F6372 		.ascii	"m_crit_thd\000"
 3583      69745F74 
 3583      686400
 3584              	.LASF124:
 3585 0744 6D5F6F77 		.ascii	"m_owner\000"
 3585      6E657200 
 3586              	.LASF93:
 3587 074c 73655F77 		.ascii	"se_wtobjp\000"
 3587      746F626A 
 3587      7000
 3588              	.LASF32:
 3589 0756 705F6374 		.ascii	"p_ctx\000"
 3589      7800
 3590              	.LASF68:
 3591 075c 76745F66 		.ascii	"vt_func\000"
 3591      756E6300 
 3592              		.ident	"GCC: (4.8.4-1+11-1) 4.8.4 20141219 (release)"
ARM GAS  /tmp/ccq44K6q.s 			page 71


DEFINED SYMBOLS
                            *ABS*:0000000000000000 chcond.c
     /tmp/ccq44K6q.s:19     .text.port_lock:0000000000000000 $t
     /tmp/ccq44K6q.s:24     .text.port_lock:0000000000000000 port_lock
     /tmp/ccq44K6q.s:55     .text.port_unlock:0000000000000000 $t
     /tmp/ccq44K6q.s:60     .text.port_unlock:0000000000000000 port_unlock
     /tmp/ccq44K6q.s:89     .text.queue_init:0000000000000000 $t
     /tmp/ccq44K6q.s:94     .text.queue_init:0000000000000000 queue_init
     /tmp/ccq44K6q.s:121    .text.queue_notempty:0000000000000000 $t
     /tmp/ccq44K6q.s:126    .text.queue_notempty:0000000000000000 queue_notempty
     /tmp/ccq44K6q.s:154    .text.queue_prio_insert:0000000000000000 $t
     /tmp/ccq44K6q.s:159    .text.queue_prio_insert:0000000000000000 queue_prio_insert
     /tmp/ccq44K6q.s:216    .text.queue_fifo_remove:0000000000000000 $t
     /tmp/ccq44K6q.s:221    .text.queue_fifo_remove:0000000000000000 queue_fifo_remove
     /tmp/ccq44K6q.s:256    .text.chSysLock:0000000000000000 $t
     /tmp/ccq44K6q.s:261    .text.chSysLock:0000000000000000 chSysLock
     /tmp/ccq44K6q.s:284    .text.chSysUnlock:0000000000000000 $t
     /tmp/ccq44K6q.s:289    .text.chSysUnlock:0000000000000000 chSysUnlock
     /tmp/ccq44K6q.s:328    .text.chSysUnlock:0000000000000030 $d
     /tmp/ccq44K6q.s:911    .rodata.__func__.5925:0000000000000000 __func__.5925
     /tmp/ccq44K6q.s:334    .text.chThdGetSelfX:0000000000000000 $t
     /tmp/ccq44K6q.s:339    .text.chThdGetSelfX:0000000000000000 chThdGetSelfX
     /tmp/ccq44K6q.s:356    .text.chThdGetSelfX:0000000000000008 $d
     /tmp/ccq44K6q.s:361    .text.chMtxGetNextMutexS:0000000000000000 $t
     /tmp/ccq44K6q.s:366    .text.chMtxGetNextMutexS:0000000000000000 chMtxGetNextMutexS
     /tmp/ccq44K6q.s:388    .text.chCondObjectInit:0000000000000000 $t
     /tmp/ccq44K6q.s:394    .text.chCondObjectInit:0000000000000000 chCondObjectInit
     /tmp/ccq44K6q.s:426    .text.chCondObjectInit:0000000000000020 $d
     /tmp/ccq44K6q.s:899    .rodata.__func__.6620:0000000000000000 __func__.6620
     /tmp/ccq44K6q.s:431    .text.chCondSignal:0000000000000000 $t
     /tmp/ccq44K6q.s:437    .text.chCondSignal:0000000000000000 chCondSignal
     /tmp/ccq44K6q.s:484    .text.chCondSignal:0000000000000040 $d
     /tmp/ccq44K6q.s:905    .rodata.__func__.6624:0000000000000000 __func__.6624
     /tmp/ccq44K6q.s:489    .text.chCondSignalI:0000000000000000 $t
     /tmp/ccq44K6q.s:495    .text.chCondSignalI:0000000000000000 chCondSignalI
     /tmp/ccq44K6q.s:546    .text.chCondSignalI:0000000000000040 $d
     /tmp/ccq44K6q.s:917    .rodata.__func__.6628:0000000000000000 __func__.6628
     /tmp/ccq44K6q.s:551    .text.chCondBroadcast:0000000000000000 $t
     /tmp/ccq44K6q.s:557    .text.chCondBroadcast:0000000000000000 chCondBroadcast
     /tmp/ccq44K6q.s:592    .text.chCondBroadcastI:0000000000000000 chCondBroadcastI
     /tmp/ccq44K6q.s:586    .text.chCondBroadcastI:0000000000000000 $t
     /tmp/ccq44K6q.s:644    .text.chCondBroadcastI:0000000000000048 $d
     /tmp/ccq44K6q.s:923    .rodata.__func__.6636:0000000000000000 __func__.6636
     /tmp/ccq44K6q.s:649    .text.chCondWait:0000000000000000 $t
     /tmp/ccq44K6q.s:655    .text.chCondWait:0000000000000000 chCondWait
     /tmp/ccq44K6q.s:692    .text.chCondWaitS:0000000000000000 chCondWaitS
     /tmp/ccq44K6q.s:686    .text.chCondWaitS:0000000000000000 $t
     /tmp/ccq44K6q.s:761    .text.chCondWaitS:0000000000000064 $d
     /tmp/ccq44K6q.s:929    .rodata.__func__.6650:0000000000000000 __func__.6650
     /tmp/ccq44K6q.s:767    .text.chCondWaitTimeout:0000000000000000 $t
     /tmp/ccq44K6q.s:773    .text.chCondWaitTimeout:0000000000000000 chCondWaitTimeout
     /tmp/ccq44K6q.s:812    .text.chCondWaitTimeoutS:0000000000000000 chCondWaitTimeoutS
     /tmp/ccq44K6q.s:806    .text.chCondWaitTimeoutS:0000000000000000 $t
     /tmp/ccq44K6q.s:890    .text.chCondWaitTimeoutS:0000000000000074 $d
     /tmp/ccq44K6q.s:935    .rodata.__func__.6662:0000000000000000 __func__.6662
     /tmp/ccq44K6q.s:896    .rodata.__func__.6620:0000000000000000 $d
     /tmp/ccq44K6q.s:902    .rodata.__func__.6624:0000000000000000 $d
ARM GAS  /tmp/ccq44K6q.s 			page 72


     /tmp/ccq44K6q.s:908    .rodata.__func__.5925:0000000000000000 $d
     /tmp/ccq44K6q.s:914    .rodata.__func__.6628:0000000000000000 $d
     /tmp/ccq44K6q.s:920    .rodata.__func__.6636:0000000000000000 $d
     /tmp/ccq44K6q.s:926    .rodata.__func__.6650:0000000000000000 $d
     /tmp/ccq44K6q.s:932    .rodata.__func__.6662:0000000000000000 $d
                     .debug_frame:0000000000000010 $d
     /tmp/ccq44K6q.s:333    .text.chSysUnlock:0000000000000038 $t
     /tmp/ccq44K6q.s:360    .text.chThdGetSelfX:000000000000000c $t
     /tmp/ccq44K6q.s:430    .text.chCondObjectInit:0000000000000024 $t
     /tmp/ccq44K6q.s:488    .text.chCondSignal:0000000000000044 $t
     /tmp/ccq44K6q.s:550    .text.chCondSignalI:0000000000000044 $t
     /tmp/ccq44K6q.s:648    .text.chCondBroadcastI:000000000000004c $t
     /tmp/ccq44K6q.s:766    .text.chCondWaitS:000000000000006c $t
     /tmp/ccq44K6q.s:895    .text.chCondWaitTimeoutS:000000000000007c $t

UNDEFINED SYMBOLS
_stats_start_measure_crit_thd
_dbg_check_lock
_dbg_check_unlock
_stats_stop_measure_crit_thd
chSysHalt
ch
chSchWakeupS
chDbgCheckClassI
chSchReadyI
chSchRescheduleS
chDbgCheckClassS
chMtxUnlockS
chSchGoSleepS
chMtxLockS
chSchGoSleepTimeoutS
