ARM GAS  /tmp/ccq44K6q.s 			page 1


   1              		.syntax unified
   2              		.cpu cortex-m4
   3              		.fpu softvfp
   4              		.eabi_attribute 20, 1
   5              		.eabi_attribute 21, 1
   6              		.eabi_attribute 23, 3
   7              		.eabi_attribute 24, 1
   8              		.eabi_attribute 25, 1
   9              		.eabi_attribute 26, 1
  10              		.eabi_attribute 30, 6
  11              		.eabi_attribute 34, 1
  12              		.eabi_attribute 18, 4
  13              		.thumb
  14              		.file	"chcond.c"
  15              		.text
  16              	.Ltext0:
  17              		.cfi_sections	.debug_frame
  18              		.section	.text.port_lock,"ax",%progbits
  19              		.align	2
  20              		.p2align 4,,15
  21              		.thumb
  22              		.thumb_func
  23              		.type	port_lock, %function
  24              	port_lock:
  25              	.LFB127:
  26              		.file 1 "/home/efe/ChibiOS/os/rt/ports/ARMCMx/chcore_v7m.h"
  27              		.loc 1 456 0
  28              		.cfi_startproc
  29              		@ args = 0, pretend = 0, frame = 8
  30              		@ frame_needed = 0, uses_anonymous_args = 0
  31              		@ link register save eliminated.
  32 0000 82B0     		sub	sp, sp, #8
  33              		.cfi_def_cfa_offset 8
  34 0002 2023     		movs	r3, #32
  35 0004 0193     		str	r3, [sp, #4]
  36              	.LBB6:
  37              	.LBB7:
  38              		.file 2 "/home/efe/ChibiOS/os/ext/CMSIS/include/core_cmFunc.h"
  39              		.loc 2 548 0
  40 0006 019B     		ldr	r3, [sp, #4]
  41              	@ 548 "/home/efe/ChibiOS/os/ext/CMSIS/include/core_cmFunc.h" 1
  42 0008 83F31188 		MSR basepri, r3
  43              	@ 0 "" 2
  44              		.thumb
  45              	.LBE7:
  46              	.LBE6:
  47              		.loc 1 463 0
  48 000c 02B0     		add	sp, sp, #8
  49              		@ sp needed
  50 000e 7047     		bx	lr
  51              		.cfi_endproc
  52              	.LFE127:
  53              		.size	port_lock, .-port_lock
  54              		.section	.text.port_unlock,"ax",%progbits
  55              		.align	2
  56              		.p2align 4,,15
  57              		.thumb
ARM GAS  /tmp/ccq44K6q.s 			page 2


  58              		.thumb_func
  59              		.type	port_unlock, %function
  60              	port_unlock:
  61              	.LFB128:
  62              		.loc 1 470 0
  63              		.cfi_startproc
  64              		@ args = 0, pretend = 0, frame = 8
  65              		@ frame_needed = 0, uses_anonymous_args = 0
  66              		@ link register save eliminated.
  67 0000 82B0     		sub	sp, sp, #8
  68              		.cfi_def_cfa_offset 8
  69 0002 0023     		movs	r3, #0
  70 0004 0193     		str	r3, [sp, #4]
  71              	.LBB8:
  72              	.LBB9:
  73              		.loc 2 548 0
  74 0006 019B     		ldr	r3, [sp, #4]
  75              	@ 548 "/home/efe/ChibiOS/os/ext/CMSIS/include/core_cmFunc.h" 1
  76 0008 83F31188 		MSR basepri, r3
  77              	@ 0 "" 2
  78              		.thumb
  79              	.LBE9:
  80              	.LBE8:
  81              		.loc 1 477 0
  82 000c 02B0     		add	sp, sp, #8
  83              		@ sp needed
  84 000e 7047     		bx	lr
  85              		.cfi_endproc
  86              	.LFE128:
  87              		.size	port_unlock, .-port_unlock
  88              		.section	.text.queue_init,"ax",%progbits
  89              		.align	2
  90              		.p2align 4,,15
  91              		.thumb
  92              		.thumb_func
  93              		.type	queue_init, %function
  94              	queue_init:
  95              	.LFB150:
  96              		.file 3 "/home/efe/ChibiOS/os/rt/include/chschd.h"
  97              		.loc 3 602 0
  98              		.cfi_startproc
  99              		@ args = 0, pretend = 0, frame = 8
 100              		@ frame_needed = 0, uses_anonymous_args = 0
 101              		@ link register save eliminated.
 102 0000 82B0     		sub	sp, sp, #8
 103              		.cfi_def_cfa_offset 8
 104 0002 0190     		str	r0, [sp, #4]
 105              		.loc 3 604 0
 106 0004 019B     		ldr	r3, [sp, #4]
 107 0006 019A     		ldr	r2, [sp, #4]
 108 0008 1A60     		str	r2, [r3]
 109              		.loc 3 605 0
 110 000a 019B     		ldr	r3, [sp, #4]
 111 000c 019A     		ldr	r2, [sp, #4]
 112 000e 5A60     		str	r2, [r3, #4]
 113              		.loc 3 606 0
 114 0010 02B0     		add	sp, sp, #8
ARM GAS  /tmp/ccq44K6q.s 			page 3


 115              		@ sp needed
 116 0012 7047     		bx	lr
 117              		.cfi_endproc
 118              	.LFE150:
 119              		.size	queue_init, .-queue_init
 120 0014 AFF30080 		.section	.text.queue_notempty,"ax",%progbits
 120      AFF30080 
 120      AFF30080 
 121              		.align	2
 122              		.p2align 4,,15
 123              		.thumb
 124              		.thumb_func
 125              		.type	queue_notempty, %function
 126              	queue_notempty:
 127              	.LFB152:
 128              		.loc 3 629 0
 129              		.cfi_startproc
 130              		@ args = 0, pretend = 0, frame = 8
 131              		@ frame_needed = 0, uses_anonymous_args = 0
 132              		@ link register save eliminated.
 133 0000 82B0     		sub	sp, sp, #8
 134              		.cfi_def_cfa_offset 8
 135 0002 0190     		str	r0, [sp, #4]
 136              		.loc 3 631 0
 137 0004 019B     		ldr	r3, [sp, #4]
 138 0006 1A68     		ldr	r2, [r3]
 139 0008 019B     		ldr	r3, [sp, #4]
 140 000a 9A42     		cmp	r2, r3
 141 000c 0CBF     		ite	eq
 142 000e 0023     		moveq	r3, #0
 143 0010 0123     		movne	r3, #1
 144 0012 DBB2     		uxtb	r3, r3
 145              		.loc 3 632 0
 146 0014 1846     		mov	r0, r3
 147 0016 02B0     		add	sp, sp, #8
 148              		@ sp needed
 149 0018 7047     		bx	lr
 150              		.cfi_endproc
 151              	.LFE152:
 152              		.size	queue_notempty, .-queue_notempty
 153 001a 00BFAFF3 		.section	.text.queue_prio_insert,"ax",%progbits
 153      0080
 154              		.align	2
 155              		.p2align 4,,15
 156              		.thumb
 157              		.thumb_func
 158              		.type	queue_prio_insert, %function
 159              	queue_prio_insert:
 160              	.LFB155:
 161              		.loc 3 651 0
 162              		.cfi_startproc
 163              		@ args = 0, pretend = 0, frame = 16
 164              		@ frame_needed = 0, uses_anonymous_args = 0
 165              		@ link register save eliminated.
 166 0000 84B0     		sub	sp, sp, #16
 167              		.cfi_def_cfa_offset 16
 168 0002 0190     		str	r0, [sp, #4]
ARM GAS  /tmp/ccq44K6q.s 			page 4


 169 0004 0091     		str	r1, [sp]
 170              		.loc 3 653 0
 171 0006 009B     		ldr	r3, [sp]
 172 0008 0393     		str	r3, [sp, #12]
 173              	.L8:
 174              		.loc 3 655 0 discriminator 1
 175 000a 039B     		ldr	r3, [sp, #12]
 176 000c 1B68     		ldr	r3, [r3]
 177 000e 0393     		str	r3, [sp, #12]
 178              		.loc 3 656 0 discriminator 1
 179 0010 039A     		ldr	r2, [sp, #12]
 180 0012 009B     		ldr	r3, [sp]
 181 0014 9A42     		cmp	r2, r3
 182 0016 05D0     		beq	.L7
 183 0018 039B     		ldr	r3, [sp, #12]
 184 001a 9A68     		ldr	r2, [r3, #8]
 185 001c 019B     		ldr	r3, [sp, #4]
 186 001e 9B68     		ldr	r3, [r3, #8]
 187 0020 9A42     		cmp	r2, r3
 188 0022 F2D2     		bcs	.L8
 189              	.L7:
 190              		.loc 3 657 0
 191 0024 019B     		ldr	r3, [sp, #4]
 192 0026 039A     		ldr	r2, [sp, #12]
 193 0028 1A60     		str	r2, [r3]
 194              		.loc 3 658 0
 195 002a 039B     		ldr	r3, [sp, #12]
 196 002c 5A68     		ldr	r2, [r3, #4]
 197 002e 019B     		ldr	r3, [sp, #4]
 198 0030 5A60     		str	r2, [r3, #4]
 199              		.loc 3 659 0
 200 0032 019B     		ldr	r3, [sp, #4]
 201 0034 5B68     		ldr	r3, [r3, #4]
 202 0036 019A     		ldr	r2, [sp, #4]
 203 0038 1A60     		str	r2, [r3]
 204              		.loc 3 660 0
 205 003a 039B     		ldr	r3, [sp, #12]
 206 003c 019A     		ldr	r2, [sp, #4]
 207 003e 5A60     		str	r2, [r3, #4]
 208              		.loc 3 661 0
 209 0040 04B0     		add	sp, sp, #16
 210              		@ sp needed
 211 0042 7047     		bx	lr
 212              		.cfi_endproc
 213              	.LFE155:
 214              		.size	queue_prio_insert, .-queue_prio_insert
 215 0044 AFF30080 		.section	.text.queue_fifo_remove,"ax",%progbits
 215      AFF30080 
 215      AFF30080 
 216              		.align	2
 217              		.p2align 4,,15
 218              		.thumb
 219              		.thumb_func
 220              		.type	queue_fifo_remove, %function
 221              	queue_fifo_remove:
 222              	.LFB157:
 223              		.loc 3 671 0
ARM GAS  /tmp/ccq44K6q.s 			page 5


 224              		.cfi_startproc
 225              		@ args = 0, pretend = 0, frame = 16
 226              		@ frame_needed = 0, uses_anonymous_args = 0
 227              		@ link register save eliminated.
 228 0000 84B0     		sub	sp, sp, #16
 229              		.cfi_def_cfa_offset 16
 230 0002 0190     		str	r0, [sp, #4]
 231              		.loc 3 672 0
 232 0004 019B     		ldr	r3, [sp, #4]
 233 0006 1B68     		ldr	r3, [r3]
 234 0008 0393     		str	r3, [sp, #12]
 235              		.loc 3 674 0
 236 000a 039B     		ldr	r3, [sp, #12]
 237 000c 1A68     		ldr	r2, [r3]
 238 000e 019B     		ldr	r3, [sp, #4]
 239 0010 1A60     		str	r2, [r3]
 240              		.loc 3 675 0
 241 0012 019B     		ldr	r3, [sp, #4]
 242 0014 1B68     		ldr	r3, [r3]
 243 0016 019A     		ldr	r2, [sp, #4]
 244 0018 5A60     		str	r2, [r3, #4]
 245              		.loc 3 677 0
 246 001a 039B     		ldr	r3, [sp, #12]
 247              		.loc 3 678 0
 248 001c 1846     		mov	r0, r3
 249 001e 04B0     		add	sp, sp, #16
 250              		@ sp needed
 251 0020 7047     		bx	lr
 252              		.cfi_endproc
 253              	.LFE157:
 254              		.size	queue_fifo_remove, .-queue_fifo_remove
 255 0022 00BFAFF3 		.section	.text.chSysLock,"ax",%progbits
 255      0080AFF3 
 255      0080AFF3 
 255      0080
 256              		.align	2
 257              		.p2align 4,,15
 258              		.thumb
 259              		.thumb_func
 260              		.type	chSysLock, %function
 261              	chSysLock:
 262              	.LFB167:
 263              		.file 4 "/home/efe/ChibiOS/os/rt/include/chsys.h"
 264              		.loc 4 346 0
 265              		.cfi_startproc
 266              		@ args = 0, pretend = 0, frame = 0
 267              		@ frame_needed = 0, uses_anonymous_args = 0
 268 0000 08B5     		push	{r3, lr}
 269              		.cfi_def_cfa_offset 8
 270              		.cfi_offset 3, -8
 271              		.cfi_offset 14, -4
 272              		.loc 4 348 0
 273 0002 FFF7FEFF 		bl	port_lock
 274              		.loc 4 349 0
 275 0006 FFF7FEFF 		bl	_stats_start_measure_crit_thd
 276              		.loc 4 350 0
 277 000a FFF7FEFF 		bl	_dbg_check_lock
ARM GAS  /tmp/ccq44K6q.s 			page 6


 278              		.loc 4 351 0
 279 000e 08BD     		pop	{r3, pc}
 280              		.cfi_endproc
 281              	.LFE167:
 282              		.size	chSysLock, .-chSysLock
 283              		.section	.text.chSysUnlock,"ax",%progbits
 284              		.align	2
 285              		.p2align 4,,15
 286              		.thumb
 287              		.thumb_func
 288              		.type	chSysUnlock, %function
 289              	chSysUnlock:
 290              	.LFB168:
 291              		.loc 4 358 0
 292              		.cfi_startproc
 293              		@ args = 0, pretend = 0, frame = 0
 294              		@ frame_needed = 0, uses_anonymous_args = 0
 295 0000 08B5     		push	{r3, lr}
 296              		.cfi_def_cfa_offset 8
 297              		.cfi_offset 3, -8
 298              		.cfi_offset 14, -4
 299              		.loc 4 360 0
 300 0002 FFF7FEFF 		bl	_dbg_check_unlock
 301              		.loc 4 361 0
 302 0006 FFF7FEFF 		bl	_stats_stop_measure_crit_thd
 303              		.loc 4 367 0
 304 000a 094B     		ldr	r3, .L14
 305 000c 1A68     		ldr	r2, [r3]
 306 000e 084B     		ldr	r3, .L14
 307 0010 9A42     		cmp	r2, r3
 308 0012 0AD0     		beq	.L13
 309              		.loc 4 367 0 is_stmt 0 discriminator 1
 310 0014 064B     		ldr	r3, .L14
 311 0016 9B69     		ldr	r3, [r3, #24]
 312 0018 9A68     		ldr	r2, [r3, #8]
 313 001a 054B     		ldr	r3, .L14
 314 001c 1B68     		ldr	r3, [r3]
 315 001e 9B68     		ldr	r3, [r3, #8]
 316 0020 9A42     		cmp	r2, r3
 317 0022 02D2     		bcs	.L13
 318 0024 0348     		ldr	r0, .L14+4
 319 0026 FFF7FEFF 		bl	chSysHalt
 320              	.L13:
 321              		.loc 4 371 0 is_stmt 1
 322 002a FFF7FEFF 		bl	port_unlock
 323              		.loc 4 372 0
 324 002e 08BD     		pop	{r3, pc}
 325              	.L15:
 326              		.align	2
 327              	.L14:
 328 0030 00000000 		.word	ch
 329 0034 00000000 		.word	__func__.5925
 330              		.cfi_endproc
 331              	.LFE168:
 332              		.size	chSysUnlock, .-chSysUnlock
 333 0038 AFF30080 		.section	.text.chThdGetSelfX,"ax",%progbits
 333      AFF30080 
ARM GAS  /tmp/ccq44K6q.s 			page 7


 334              		.align	2
 335              		.p2align 4,,15
 336              		.thumb
 337              		.thumb_func
 338              		.type	chThdGetSelfX, %function
 339              	chThdGetSelfX:
 340              	.LFB188:
 341              		.file 5 "/home/efe/ChibiOS/os/rt/include/chthreads.h"
 342              		.loc 5 174 0
 343              		.cfi_startproc
 344              		@ args = 0, pretend = 0, frame = 0
 345              		@ frame_needed = 0, uses_anonymous_args = 0
 346              		@ link register save eliminated.
 347              		.loc 5 176 0
 348 0000 014B     		ldr	r3, .L18
 349 0002 9B69     		ldr	r3, [r3, #24]
 350              		.loc 5 177 0
 351 0004 1846     		mov	r0, r3
 352 0006 7047     		bx	lr
 353              	.L19:
 354              		.align	2
 355              	.L18:
 356 0008 00000000 		.word	ch
 357              		.cfi_endproc
 358              	.LFE188:
 359              		.size	chThdGetSelfX, .-chThdGetSelfX
 360 000c AFF30080 		.section	.text.chMtxGetNextMutexS,"ax",%progbits
 361              		.align	2
 362              		.p2align 4,,15
 363              		.thumb
 364              		.thumb_func
 365              		.type	chMtxGetNextMutexS, %function
 366              	chMtxGetNextMutexS:
 367              	.LFB214:
 368              		.file 6 "/home/efe/ChibiOS/os/rt/include/chmtx.h"
 369              		.loc 6 144 0
 370              		.cfi_startproc
 371              		@ args = 0, pretend = 0, frame = 0
 372              		@ frame_needed = 0, uses_anonymous_args = 0
 373 0000 08B5     		push	{r3, lr}
 374              		.cfi_def_cfa_offset 8
 375              		.cfi_offset 3, -8
 376              		.cfi_offset 14, -4
 377              		.loc 6 146 0
 378 0002 FFF7FEFF 		bl	chThdGetSelfX
 379 0006 0346     		mov	r3, r0
 380 0008 DB6B     		ldr	r3, [r3, #60]
 381              		.loc 6 147 0
 382 000a 1846     		mov	r0, r3
 383 000c 08BD     		pop	{r3, pc}
 384              		.cfi_endproc
 385              	.LFE214:
 386              		.size	chMtxGetNextMutexS, .-chMtxGetNextMutexS
 387 000e 00BF     		.section	.text.chCondObjectInit,"ax",%progbits
 388              		.align	2
 389              		.p2align 4,,15
 390              		.global	chCondObjectInit
ARM GAS  /tmp/ccq44K6q.s 			page 8


 391              		.thumb
 392              		.thumb_func
 393              		.type	chCondObjectInit, %function
 394              	chCondObjectInit:
 395              	.LFB240:
 396              		.file 7 "/home/efe/ChibiOS/os/rt/src/chcond.c"
 397              		.loc 7 75 0
 398              		.cfi_startproc
 399              		@ args = 0, pretend = 0, frame = 8
 400              		@ frame_needed = 0, uses_anonymous_args = 0
 401 0000 00B5     		push	{lr}
 402              		.cfi_def_cfa_offset 4
 403              		.cfi_offset 14, -4
 404 0002 83B0     		sub	sp, sp, #12
 405              		.cfi_def_cfa_offset 16
 406 0004 0190     		str	r0, [sp, #4]
 407              		.loc 7 77 0
 408 0006 019B     		ldr	r3, [sp, #4]
 409 0008 002B     		cmp	r3, #0
 410 000a 02D1     		bne	.L23
 411              		.loc 7 77 0 is_stmt 0 discriminator 1
 412 000c 0448     		ldr	r0, .L24
 413 000e FFF7FEFF 		bl	chSysHalt
 414              	.L23:
 415              		.loc 7 79 0 is_stmt 1
 416 0012 019B     		ldr	r3, [sp, #4]
 417 0014 1846     		mov	r0, r3
 418 0016 FFF7FEFF 		bl	queue_init
 419              		.loc 7 80 0
 420 001a 03B0     		add	sp, sp, #12
 421              		@ sp needed
 422 001c 5DF804FB 		ldr	pc, [sp], #4
 423              	.L25:
 424              		.align	2
 425              	.L24:
 426 0020 00000000 		.word	__func__.6620
 427              		.cfi_endproc
 428              	.LFE240:
 429              		.size	chCondObjectInit, .-chCondObjectInit
 430 0024 AFF30080 		.section	.text.chCondSignal,"ax",%progbits
 430      AFF30080 
 430      AFF30080 
 431              		.align	2
 432              		.p2align 4,,15
 433              		.global	chCondSignal
 434              		.thumb
 435              		.thumb_func
 436              		.type	chCondSignal, %function
 437              	chCondSignal:
 438              	.LFB241:
 439              		.loc 7 89 0
 440              		.cfi_startproc
 441              		@ args = 0, pretend = 0, frame = 8
 442              		@ frame_needed = 0, uses_anonymous_args = 0
 443 0000 00B5     		push	{lr}
 444              		.cfi_def_cfa_offset 4
 445              		.cfi_offset 14, -4
ARM GAS  /tmp/ccq44K6q.s 			page 9


 446 0002 83B0     		sub	sp, sp, #12
 447              		.cfi_def_cfa_offset 16
 448 0004 0190     		str	r0, [sp, #4]
 449              		.loc 7 91 0
 450 0006 019B     		ldr	r3, [sp, #4]
 451 0008 002B     		cmp	r3, #0
 452 000a 02D1     		bne	.L27
 453              		.loc 7 91 0 is_stmt 0 discriminator 1
 454 000c 0C48     		ldr	r0, .L29
 455 000e FFF7FEFF 		bl	chSysHalt
 456              	.L27:
 457              		.loc 7 93 0 is_stmt 1
 458 0012 FFF7FEFF 		bl	chSysLock
 459              		.loc 7 94 0
 460 0016 019B     		ldr	r3, [sp, #4]
 461 0018 1846     		mov	r0, r3
 462 001a FFF7FEFF 		bl	queue_notempty
 463 001e 0346     		mov	r3, r0
 464 0020 002B     		cmp	r3, #0
 465 0022 08D0     		beq	.L28
 466              		.loc 7 95 0
 467 0024 019B     		ldr	r3, [sp, #4]
 468 0026 1846     		mov	r0, r3
 469 0028 FFF7FEFF 		bl	queue_fifo_remove
 470 002c 0346     		mov	r3, r0
 471 002e 1846     		mov	r0, r3
 472 0030 0021     		movs	r1, #0
 473 0032 FFF7FEFF 		bl	chSchWakeupS
 474              	.L28:
 475              		.loc 7 97 0
 476 0036 FFF7FEFF 		bl	chSysUnlock
 477              		.loc 7 98 0
 478 003a 03B0     		add	sp, sp, #12
 479              		@ sp needed
 480 003c 5DF804FB 		ldr	pc, [sp], #4
 481              	.L30:
 482              		.align	2
 483              	.L29:
 484 0040 00000000 		.word	__func__.6624
 485              		.cfi_endproc
 486              	.LFE241:
 487              		.size	chCondSignal, .-chCondSignal
 488 0044 AFF30080 		.section	.text.chCondSignalI,"ax",%progbits
 488      AFF30080 
 488      AFF30080 
 489              		.align	2
 490              		.p2align 4,,15
 491              		.global	chCondSignalI
 492              		.thumb
 493              		.thumb_func
 494              		.type	chCondSignalI, %function
 495              	chCondSignalI:
 496              	.LFB242:
 497              		.loc 7 111 0
 498              		.cfi_startproc
 499              		@ args = 0, pretend = 0, frame = 16
 500              		@ frame_needed = 0, uses_anonymous_args = 0
ARM GAS  /tmp/ccq44K6q.s 			page 10


 501 0000 00B5     		push	{lr}
 502              		.cfi_def_cfa_offset 4
 503              		.cfi_offset 14, -4
 504 0002 85B0     		sub	sp, sp, #20
 505              		.cfi_def_cfa_offset 24
 506 0004 0190     		str	r0, [sp, #4]
 507              		.loc 7 113 0
 508 0006 FFF7FEFF 		bl	chDbgCheckClassI
 509              		.loc 7 114 0
 510 000a 019B     		ldr	r3, [sp, #4]
 511 000c 002B     		cmp	r3, #0
 512 000e 02D1     		bne	.L32
 513              		.loc 7 114 0 is_stmt 0 discriminator 1
 514 0010 0B48     		ldr	r0, .L34
 515 0012 FFF7FEFF 		bl	chSysHalt
 516              	.L32:
 517              		.loc 7 116 0 is_stmt 1
 518 0016 019B     		ldr	r3, [sp, #4]
 519 0018 1846     		mov	r0, r3
 520 001a FFF7FEFF 		bl	queue_notempty
 521 001e 0346     		mov	r3, r0
 522 0020 002B     		cmp	r3, #0
 523 0022 0AD0     		beq	.L31
 524              	.LBB10:
 525              		.loc 7 117 0
 526 0024 019B     		ldr	r3, [sp, #4]
 527 0026 1846     		mov	r0, r3
 528 0028 FFF7FEFF 		bl	queue_fifo_remove
 529 002c 0390     		str	r0, [sp, #12]
 530              		.loc 7 118 0
 531 002e 039B     		ldr	r3, [sp, #12]
 532 0030 0022     		movs	r2, #0
 533 0032 5A62     		str	r2, [r3, #36]
 534              		.loc 7 119 0
 535 0034 0398     		ldr	r0, [sp, #12]
 536 0036 FFF7FEFF 		bl	chSchReadyI
 537              	.L31:
 538              	.LBE10:
 539              		.loc 7 121 0
 540 003a 05B0     		add	sp, sp, #20
 541              		@ sp needed
 542 003c 5DF804FB 		ldr	pc, [sp], #4
 543              	.L35:
 544              		.align	2
 545              	.L34:
 546 0040 00000000 		.word	__func__.6628
 547              		.cfi_endproc
 548              	.LFE242:
 549              		.size	chCondSignalI, .-chCondSignalI
 550 0044 AFF30080 		.section	.text.chCondBroadcast,"ax",%progbits
 550      AFF30080 
 550      AFF30080 
 551              		.align	2
 552              		.p2align 4,,15
 553              		.global	chCondBroadcast
 554              		.thumb
 555              		.thumb_func
ARM GAS  /tmp/ccq44K6q.s 			page 11


 556              		.type	chCondBroadcast, %function
 557              	chCondBroadcast:
 558              	.LFB243:
 559              		.loc 7 130 0
 560              		.cfi_startproc
 561              		@ args = 0, pretend = 0, frame = 8
 562              		@ frame_needed = 0, uses_anonymous_args = 0
 563 0000 00B5     		push	{lr}
 564              		.cfi_def_cfa_offset 4
 565              		.cfi_offset 14, -4
 566 0002 83B0     		sub	sp, sp, #12
 567              		.cfi_def_cfa_offset 16
 568 0004 0190     		str	r0, [sp, #4]
 569              		.loc 7 132 0
 570 0006 FFF7FEFF 		bl	chSysLock
 571              		.loc 7 133 0
 572 000a 0198     		ldr	r0, [sp, #4]
 573 000c FFF7FEFF 		bl	chCondBroadcastI
 574              		.loc 7 134 0
 575 0010 FFF7FEFF 		bl	chSchRescheduleS
 576              		.loc 7 135 0
 577 0014 FFF7FEFF 		bl	chSysUnlock
 578              		.loc 7 136 0
 579 0018 03B0     		add	sp, sp, #12
 580              		@ sp needed
 581 001a 5DF804FB 		ldr	pc, [sp], #4
 582              		.cfi_endproc
 583              	.LFE243:
 584              		.size	chCondBroadcast, .-chCondBroadcast
 585 001e 00BF     		.section	.text.chCondBroadcastI,"ax",%progbits
 586              		.align	2
 587              		.p2align 4,,15
 588              		.global	chCondBroadcastI
 589              		.thumb
 590              		.thumb_func
 591              		.type	chCondBroadcastI, %function
 592              	chCondBroadcastI:
 593              	.LFB244:
 594              		.loc 7 149 0
 595              		.cfi_startproc
 596              		@ args = 0, pretend = 0, frame = 8
 597              		@ frame_needed = 0, uses_anonymous_args = 0
 598 0000 00B5     		push	{lr}
 599              		.cfi_def_cfa_offset 4
 600              		.cfi_offset 14, -4
 601 0002 83B0     		sub	sp, sp, #12
 602              		.cfi_def_cfa_offset 16
 603 0004 0190     		str	r0, [sp, #4]
 604              		.loc 7 151 0
 605 0006 FFF7FEFF 		bl	chDbgCheckClassI
 606              		.loc 7 152 0
 607 000a 019B     		ldr	r3, [sp, #4]
 608 000c 002B     		cmp	r3, #0
 609 000e 03D1     		bne	.L38
 610              		.loc 7 152 0 is_stmt 0 discriminator 1
 611 0010 0D48     		ldr	r0, .L41
 612 0012 FFF7FEFF 		bl	chSysHalt
ARM GAS  /tmp/ccq44K6q.s 			page 12


 613              		.loc 7 157 0 is_stmt 1 discriminator 1
 614 0016 0CE0     		b	.L39
 615              	.L38:
 616              		.loc 7 157 0 is_stmt 0
 617 0018 0BE0     		b	.L39
 618              	.L40:
 619              		.loc 7 158 0 is_stmt 1
 620 001a 019B     		ldr	r3, [sp, #4]
 621 001c 1846     		mov	r0, r3
 622 001e FFF7FEFF 		bl	queue_fifo_remove
 623 0022 0346     		mov	r3, r0
 624 0024 1846     		mov	r0, r3
 625 0026 FFF7FEFF 		bl	chSchReadyI
 626 002a 0346     		mov	r3, r0
 627 002c 6FF00102 		mvn	r2, #1
 628 0030 5A62     		str	r2, [r3, #36]
 629              	.L39:
 630              		.loc 7 157 0 discriminator 1
 631 0032 019B     		ldr	r3, [sp, #4]
 632 0034 1846     		mov	r0, r3
 633 0036 FFF7FEFF 		bl	queue_notempty
 634 003a 0346     		mov	r3, r0
 635 003c 002B     		cmp	r3, #0
 636 003e ECD1     		bne	.L40
 637              		.loc 7 160 0
 638 0040 03B0     		add	sp, sp, #12
 639              		@ sp needed
 640 0042 5DF804FB 		ldr	pc, [sp], #4
 641              	.L42:
 642 0046 00BF     		.align	2
 643              	.L41:
 644 0048 00000000 		.word	__func__.6636
 645              		.cfi_endproc
 646              	.LFE244:
 647              		.size	chCondBroadcastI, .-chCondBroadcastI
 648 004c AFF30080 		.section	.text.chCondWait,"ax",%progbits
 649              		.align	2
 650              		.p2align 4,,15
 651              		.global	chCondWait
 652              		.thumb
 653              		.thumb_func
 654              		.type	chCondWait, %function
 655              	chCondWait:
 656              	.LFB245:
 657              		.loc 7 179 0
 658              		.cfi_startproc
 659              		@ args = 0, pretend = 0, frame = 16
 660              		@ frame_needed = 0, uses_anonymous_args = 0
 661 0000 00B5     		push	{lr}
 662              		.cfi_def_cfa_offset 4
 663              		.cfi_offset 14, -4
 664 0002 85B0     		sub	sp, sp, #20
 665              		.cfi_def_cfa_offset 24
 666 0004 0190     		str	r0, [sp, #4]
 667              		.loc 7 182 0
 668 0006 FFF7FEFF 		bl	chSysLock
 669              		.loc 7 183 0
ARM GAS  /tmp/ccq44K6q.s 			page 13


 670 000a 0198     		ldr	r0, [sp, #4]
 671 000c FFF7FEFF 		bl	chCondWaitS
 672 0010 0390     		str	r0, [sp, #12]
 673              		.loc 7 184 0
 674 0012 FFF7FEFF 		bl	chSysUnlock
 675              		.loc 7 185 0
 676 0016 039B     		ldr	r3, [sp, #12]
 677              		.loc 7 186 0
 678 0018 1846     		mov	r0, r3
 679 001a 05B0     		add	sp, sp, #20
 680              		@ sp needed
 681 001c 5DF804FB 		ldr	pc, [sp], #4
 682              		.cfi_endproc
 683              	.LFE245:
 684              		.size	chCondWait, .-chCondWait
 685              		.section	.text.chCondWaitS,"ax",%progbits
 686              		.align	2
 687              		.p2align 4,,15
 688              		.global	chCondWaitS
 689              		.thumb
 690              		.thumb_func
 691              		.type	chCondWaitS, %function
 692              	chCondWaitS:
 693              	.LFB246:
 694              		.loc 7 205 0
 695              		.cfi_startproc
 696              		@ args = 0, pretend = 0, frame = 24
 697              		@ frame_needed = 0, uses_anonymous_args = 0
 698 0000 00B5     		push	{lr}
 699              		.cfi_def_cfa_offset 4
 700              		.cfi_offset 14, -4
 701 0002 87B0     		sub	sp, sp, #28
 702              		.cfi_def_cfa_offset 32
 703 0004 0190     		str	r0, [sp, #4]
 704              		.loc 7 206 0
 705 0006 174B     		ldr	r3, .L50
 706 0008 9B69     		ldr	r3, [r3, #24]
 707 000a 0593     		str	r3, [sp, #20]
 708              		.loc 7 210 0
 709 000c FFF7FEFF 		bl	chDbgCheckClassS
 710              		.loc 7 211 0
 711 0010 019B     		ldr	r3, [sp, #4]
 712 0012 002B     		cmp	r3, #0
 713 0014 02D1     		bne	.L49
 714              		.loc 7 211 0 is_stmt 0 discriminator 1
 715 0016 1448     		ldr	r0, .L50+4
 716 0018 FFF7FEFF 		bl	chSysHalt
 717              	.L49:
 718              		.loc 7 212 0 is_stmt 1 discriminator 1
 719 001c 059B     		ldr	r3, [sp, #20]
 720 001e DB6B     		ldr	r3, [r3, #60]
 721 0020 002B     		cmp	r3, #0
 722 0022 02D1     		bne	.L47
 723 0024 1048     		ldr	r0, .L50+4
 724 0026 FFF7FEFF 		bl	chSysHalt
 725              	.L47:
 726              		.loc 7 215 0
ARM GAS  /tmp/ccq44K6q.s 			page 14


 727 002a FFF7FEFF 		bl	chMtxGetNextMutexS
 728 002e 0490     		str	r0, [sp, #16]
 729              		.loc 7 216 0
 730 0030 0498     		ldr	r0, [sp, #16]
 731 0032 FFF7FEFF 		bl	chMtxUnlockS
 732              		.loc 7 220 0
 733 0036 059B     		ldr	r3, [sp, #20]
 734 0038 019A     		ldr	r2, [sp, #4]
 735 003a 5A62     		str	r2, [r3, #36]
 736              		.loc 7 221 0
 737 003c 019B     		ldr	r3, [sp, #4]
 738 003e 0598     		ldr	r0, [sp, #20]
 739 0040 1946     		mov	r1, r3
 740 0042 FFF7FEFF 		bl	queue_prio_insert
 741              		.loc 7 222 0
 742 0046 0720     		movs	r0, #7
 743 0048 FFF7FEFF 		bl	chSchGoSleepS
 744              		.loc 7 223 0
 745 004c 059B     		ldr	r3, [sp, #20]
 746 004e 5B6A     		ldr	r3, [r3, #36]
 747 0050 0393     		str	r3, [sp, #12]
 748              		.loc 7 224 0
 749 0052 0498     		ldr	r0, [sp, #16]
 750 0054 FFF7FEFF 		bl	chMtxLockS
 751              		.loc 7 226 0
 752 0058 039B     		ldr	r3, [sp, #12]
 753              		.loc 7 227 0
 754 005a 1846     		mov	r0, r3
 755 005c 07B0     		add	sp, sp, #28
 756              		@ sp needed
 757 005e 5DF804FB 		ldr	pc, [sp], #4
 758              	.L51:
 759 0062 00BF     		.align	2
 760              	.L50:
 761 0064 00000000 		.word	ch
 762 0068 00000000 		.word	__func__.6650
 763              		.cfi_endproc
 764              	.LFE246:
 765              		.size	chCondWaitS, .-chCondWaitS
 766 006c AFF30080 		.section	.text.chCondWaitTimeout,"ax",%progbits
 767              		.align	2
 768              		.p2align 4,,15
 769              		.global	chCondWaitTimeout
 770              		.thumb
 771              		.thumb_func
 772              		.type	chCondWaitTimeout, %function
 773              	chCondWaitTimeout:
 774              	.LFB247:
 775              		.loc 7 258 0
 776              		.cfi_startproc
 777              		@ args = 0, pretend = 0, frame = 16
 778              		@ frame_needed = 0, uses_anonymous_args = 0
 779 0000 00B5     		push	{lr}
 780              		.cfi_def_cfa_offset 4
 781              		.cfi_offset 14, -4
 782 0002 85B0     		sub	sp, sp, #20
 783              		.cfi_def_cfa_offset 24
ARM GAS  /tmp/ccq44K6q.s 			page 15


 784 0004 0190     		str	r0, [sp, #4]
 785 0006 0091     		str	r1, [sp]
 786              		.loc 7 261 0
 787 0008 FFF7FEFF 		bl	chSysLock
 788              		.loc 7 262 0
 789 000c 0198     		ldr	r0, [sp, #4]
 790 000e 0099     		ldr	r1, [sp]
 791 0010 FFF7FEFF 		bl	chCondWaitTimeoutS
 792 0014 0390     		str	r0, [sp, #12]
 793              		.loc 7 263 0
 794 0016 FFF7FEFF 		bl	chSysUnlock
 795              		.loc 7 265 0
 796 001a 039B     		ldr	r3, [sp, #12]
 797              		.loc 7 266 0
 798 001c 1846     		mov	r0, r3
 799 001e 05B0     		add	sp, sp, #20
 800              		@ sp needed
 801 0020 5DF804FB 		ldr	pc, [sp], #4
 802              		.cfi_endproc
 803              	.LFE247:
 804              		.size	chCondWaitTimeout, .-chCondWaitTimeout
 805 0024 AFF30080 		.section	.text.chCondWaitTimeoutS,"ax",%progbits
 805      AFF30080 
 805      AFF30080 
 806              		.align	2
 807              		.p2align 4,,15
 808              		.global	chCondWaitTimeoutS
 809              		.thumb
 810              		.thumb_func
 811              		.type	chCondWaitTimeoutS, %function
 812              	chCondWaitTimeoutS:
 813              	.LFB248:
 814              		.loc 7 296 0
 815              		.cfi_startproc
 816              		@ args = 0, pretend = 0, frame = 16
 817              		@ frame_needed = 0, uses_anonymous_args = 0
 818 0000 00B5     		push	{lr}
 819              		.cfi_def_cfa_offset 4
 820              		.cfi_offset 14, -4
 821 0002 85B0     		sub	sp, sp, #20
 822              		.cfi_def_cfa_offset 24
 823 0004 0190     		str	r0, [sp, #4]
 824 0006 0091     		str	r1, [sp]
 825              		.loc 7 300 0
 826 0008 FFF7FEFF 		bl	chDbgCheckClassS
 827              		.loc 7 301 0
 828 000c 019B     		ldr	r3, [sp, #4]
 829 000e 002B     		cmp	r3, #0
 830 0010 02D0     		beq	.L55
 831              		.loc 7 301 0 is_stmt 0 discriminator 2
 832 0012 009B     		ldr	r3, [sp]
 833 0014 002B     		cmp	r3, #0
 834 0016 02D1     		bne	.L60
 835              	.L55:
 836              		.loc 7 301 0 discriminator 1
 837 0018 1648     		ldr	r0, .L61
 838 001a FFF7FEFF 		bl	chSysHalt
ARM GAS  /tmp/ccq44K6q.s 			page 16


 839              	.L60:
 840              		.loc 7 302 0 is_stmt 1 discriminator 1
 841 001e 164B     		ldr	r3, .L61+4
 842 0020 9B69     		ldr	r3, [r3, #24]
 843 0022 DB6B     		ldr	r3, [r3, #60]
 844 0024 002B     		cmp	r3, #0
 845 0026 02D1     		bne	.L57
 846 0028 1248     		ldr	r0, .L61
 847 002a FFF7FEFF 		bl	chSysHalt
 848              	.L57:
 849              		.loc 7 305 0
 850 002e FFF7FEFF 		bl	chMtxGetNextMutexS
 851 0032 0390     		str	r0, [sp, #12]
 852              		.loc 7 306 0
 853 0034 0398     		ldr	r0, [sp, #12]
 854 0036 FFF7FEFF 		bl	chMtxUnlockS
 855              		.loc 7 310 0
 856 003a 0F4B     		ldr	r3, .L61+4
 857 003c 9B69     		ldr	r3, [r3, #24]
 858 003e 019A     		ldr	r2, [sp, #4]
 859 0040 5A62     		str	r2, [r3, #36]
 860              		.loc 7 311 0
 861 0042 0D4B     		ldr	r3, .L61+4
 862 0044 9A69     		ldr	r2, [r3, #24]
 863 0046 019B     		ldr	r3, [sp, #4]
 864 0048 1046     		mov	r0, r2
 865 004a 1946     		mov	r1, r3
 866 004c FFF7FEFF 		bl	queue_prio_insert
 867              		.loc 7 312 0
 868 0050 0720     		movs	r0, #7
 869 0052 0099     		ldr	r1, [sp]
 870 0054 FFF7FEFF 		bl	chSchGoSleepTimeoutS
 871 0058 0290     		str	r0, [sp, #8]
 872              		.loc 7 313 0
 873 005a 029B     		ldr	r3, [sp, #8]
 874 005c B3F1FF3F 		cmp	r3, #-1
 875 0060 02D0     		beq	.L58
 876              		.loc 7 314 0
 877 0062 0398     		ldr	r0, [sp, #12]
 878 0064 FFF7FEFF 		bl	chMtxLockS
 879              	.L58:
 880              		.loc 7 317 0
 881 0068 029B     		ldr	r3, [sp, #8]
 882              		.loc 7 318 0
 883 006a 1846     		mov	r0, r3
 884 006c 05B0     		add	sp, sp, #20
 885              		@ sp needed
 886 006e 5DF804FB 		ldr	pc, [sp], #4
 887              	.L62:
 888 0072 00BF     		.align	2
 889              	.L61:
 890 0074 00000000 		.word	__func__.6662
 891 0078 00000000 		.word	ch
 892              		.cfi_endproc
 893              	.LFE248:
 894              		.size	chCondWaitTimeoutS, .-chCondWaitTimeoutS
 895 007c AFF30080 		.section	.rodata.__func__.6620,"a",%progbits
ARM GAS  /tmp/ccq44K6q.s 			page 17


 896              		.align	2
 897              		.type	__func__.6620, %object
 898              		.size	__func__.6620, 17
 899              	__func__.6620:
 900 0000 6368436F 		.ascii	"chCondObjectInit\000"
 900      6E644F62 
 900      6A656374 
 900      496E6974 
 900      00
 901 0011 000000   		.section	.rodata.__func__.6624,"a",%progbits
 902              		.align	2
 903              		.type	__func__.6624, %object
 904              		.size	__func__.6624, 13
 905              	__func__.6624:
 906 0000 6368436F 		.ascii	"chCondSignal\000"
 906      6E645369 
 906      676E616C 
 906      00
 907 000d 000000   		.section	.rodata.__func__.5925,"a",%progbits
 908              		.align	2
 909              		.type	__func__.5925, %object
 910              		.size	__func__.5925, 12
 911              	__func__.5925:
 912 0000 63685379 		.ascii	"chSysUnlock\000"
 912      73556E6C 
 912      6F636B00 
 913              		.section	.rodata.__func__.6628,"a",%progbits
 914              		.align	2
 915              		.type	__func__.6628, %object
 916              		.size	__func__.6628, 14
 917              	__func__.6628:
 918 0000 6368436F 		.ascii	"chCondSignalI\000"
 918      6E645369 
 918      676E616C 
 918      4900
 919 000e 0000     		.section	.rodata.__func__.6636,"a",%progbits
 920              		.align	2
 921              		.type	__func__.6636, %object
 922              		.size	__func__.6636, 17
 923              	__func__.6636:
 924 0000 6368436F 		.ascii	"chCondBroadcastI\000"
 924      6E644272 
 924      6F616463 
 924      61737449 
 924      00
 925 0011 000000   		.section	.rodata.__func__.6650,"a",%progbits
 926              		.align	2
 927              		.type	__func__.6650, %object
 928              		.size	__func__.6650, 12
 929              	__func__.6650:
 930 0000 6368436F 		.ascii	"chCondWaitS\000"
 930      6E645761 
 930      69745300 
 931              		.section	.rodata.__func__.6662,"a",%progbits
 932              		.align	2
 933              		.type	__func__.6662, %object
 934              		.size	__func__.6662, 19
ARM GAS  /tmp/ccq44K6q.s 			page 18


 935              	__func__.6662:
 936 0000 6368436F 		.ascii	"chCondWaitTimeoutS\000"
 936      6E645761 
 936      69745469 
 936      6D656F75 
 936      745300
 937 0013 00       		.text
 938              	.Letext0:
 939              		.file 8 "/usr/include/newlib/machine/_default_types.h"
 940              		.file 9 "/usr/include/newlib/stdint.h"
 941              		.file 10 "/home/efe/ChibiOS/os/rt/ports/ARMCMx/compilers/GCC/chtypes.h"
 942              		.file 11 "/home/efe/ChibiOS/os/rt/include/chsystypes.h"
 943              		.file 12 "/home/efe/ChibiOS/os/rt/ports/ARMCMx/chcore.h"
 944              		.file 13 "/home/efe/ChibiOS/os/rt/include/chdebug.h"
 945              		.file 14 "/home/efe/ChibiOS/os/rt/include/chtm.h"
 946              		.file 15 "/home/efe/ChibiOS/os/rt/include/chstats.h"
 947              		.file 16 "/home/efe/ChibiOS/os/rt/include/chsem.h"
 948              		.file 17 "/home/efe/ChibiOS/os/rt/include/chcond.h"
 949              		.file 18 "/home/efe/ChibiOS/os/ext/CMSIS/include/core_cm4.h"