ARM GAS  /tmp/ccR2RkNc.s 			page 1


   1              		.syntax unified
   2              		.cpu cortex-m4
   3              		.fpu softvfp
   4              		.eabi_attribute 20, 1
   5              		.eabi_attribute 21, 1
   6              		.eabi_attribute 23, 3
   7              		.eabi_attribute 24, 1
   8              		.eabi_attribute 25, 1
   9              		.eabi_attribute 26, 1
  10              		.eabi_attribute 30, 6
  11              		.eabi_attribute 34, 1
  12              		.eabi_attribute 18, 4
  13              		.thumb
  14              		.file	"chdebug.c"
  15              		.text
  16              	.Ltext0:
  17              		.cfi_sections	.debug_frame
  18              		.section	.text.port_lock,"ax",%progbits
  19              		.align	2
  20              		.p2align 4,,15
  21              		.thumb
  22              		.thumb_func
  23              		.type	port_lock, %function
  24              	port_lock:
  25              	.LFB127:
  26              		.file 1 "/home/efe/ChibiOS/os/rt/ports/ARMCMx/chcore_v7m.h"
  27              		.loc 1 456 0
  28              		.cfi_startproc
  29              		@ args = 0, pretend = 0, frame = 8
  30              		@ frame_needed = 0, uses_anonymous_args = 0
  31              		@ link register save eliminated.
  32 0000 82B0     		sub	sp, sp, #8
  33              		.cfi_def_cfa_offset 8
  34 0002 2023     		movs	r3, #32
  35 0004 0193     		str	r3, [sp, #4]
  36              	.LBB6:
  37              	.LBB7:
  38              		.file 2 "/home/efe/ChibiOS/os/ext/CMSIS/include/core_cmFunc.h"
  39              		.loc 2 548 0
  40 0006 019B     		ldr	r3, [sp, #4]
  41              	@ 548 "/home/efe/ChibiOS/os/ext/CMSIS/include/core_cmFunc.h" 1
  42 0008 83F31188 		MSR basepri, r3
  43              	@ 0 "" 2
  44              		.thumb
  45              	.LBE7:
  46              	.LBE6:
  47              		.loc 1 463 0
  48 000c 02B0     		add	sp, sp, #8
  49              		@ sp needed
  50 000e 7047     		bx	lr
  51              		.cfi_endproc
  52              	.LFE127:
  53              		.size	port_lock, .-port_lock
  54              		.section	.text.port_unlock,"ax",%progbits
  55              		.align	2
  56              		.p2align 4,,15
  57              		.thumb
ARM GAS  /tmp/ccR2RkNc.s 			page 2


  58              		.thumb_func
  59              		.type	port_unlock, %function
  60              	port_unlock:
  61              	.LFB128:
  62              		.loc 1 470 0
  63              		.cfi_startproc
  64              		@ args = 0, pretend = 0, frame = 8
  65              		@ frame_needed = 0, uses_anonymous_args = 0
  66              		@ link register save eliminated.
  67 0000 82B0     		sub	sp, sp, #8
  68              		.cfi_def_cfa_offset 8
  69 0002 0023     		movs	r3, #0
  70 0004 0193     		str	r3, [sp, #4]
  71              	.LBB8:
  72              	.LBB9:
  73              		.loc 2 548 0
  74 0006 019B     		ldr	r3, [sp, #4]
  75              	@ 548 "/home/efe/ChibiOS/os/ext/CMSIS/include/core_cmFunc.h" 1
  76 0008 83F31188 		MSR basepri, r3
  77              	@ 0 "" 2
  78              		.thumb
  79              	.LBE9:
  80              	.LBE8:
  81              		.loc 1 477 0
  82 000c 02B0     		add	sp, sp, #8
  83              		@ sp needed
  84 000e 7047     		bx	lr
  85              		.cfi_endproc
  86              	.LFE128:
  87              		.size	port_unlock, .-port_unlock
  88              		.section	.text.port_lock_from_isr,"ax",%progbits
  89              		.align	2
  90              		.p2align 4,,15
  91              		.thumb
  92              		.thumb_func
  93              		.type	port_lock_from_isr, %function
  94              	port_lock_from_isr:
  95              	.LFB129:
  96              		.loc 1 485 0
  97              		.cfi_startproc
  98              		@ args = 0, pretend = 0, frame = 0
  99              		@ frame_needed = 0, uses_anonymous_args = 0
 100 0000 08B5     		push	{r3, lr}
 101              		.cfi_def_cfa_offset 8
 102              		.cfi_offset 3, -8
 103              		.cfi_offset 14, -4
 104              		.loc 1 487 0
 105 0002 FFF7FEFF 		bl	port_lock
 106              		.loc 1 488 0
 107 0006 08BD     		pop	{r3, pc}
 108              		.cfi_endproc
 109              	.LFE129:
 110              		.size	port_lock_from_isr, .-port_lock_from_isr
 111 0008 AFF30080 		.section	.text.port_unlock_from_isr,"ax",%progbits
 111      AFF30080 
 112              		.align	2
 113              		.p2align 4,,15
ARM GAS  /tmp/ccR2RkNc.s 			page 3


 114              		.thumb
 115              		.thumb_func
 116              		.type	port_unlock_from_isr, %function
 117              	port_unlock_from_isr:
 118              	.LFB130:
 119              		.loc 1 496 0
 120              		.cfi_startproc
 121              		@ args = 0, pretend = 0, frame = 0
 122              		@ frame_needed = 0, uses_anonymous_args = 0
 123 0000 08B5     		push	{r3, lr}
 124              		.cfi_def_cfa_offset 8
 125              		.cfi_offset 3, -8
 126              		.cfi_offset 14, -4
 127              		.loc 1 498 0
 128 0002 FFF7FEFF 		bl	port_unlock
 129              		.loc 1 499 0
 130 0006 08BD     		pop	{r3, pc}
 131              		.cfi_endproc
 132              	.LFE130:
 133              		.size	port_unlock_from_isr, .-port_unlock_from_isr
 134 0008 AFF30080 		.section	.text.st_lld_get_counter,"ax",%progbits
 134      AFF30080 
 135              		.align	2
 136              		.p2align 4,,15
 137              		.thumb
 138              		.thumb_func
 139              		.type	st_lld_get_counter, %function
 140              	st_lld_get_counter:
 141              	.LFB136:
 142              		.file 3 "/home/efe/ChibiOS/os/hal/ports/STM32/LLD/TIMv1/st_lld.h"
 143              		.loc 3 139 0
 144              		.cfi_startproc
 145              		@ args = 0, pretend = 0, frame = 0
 146              		@ frame_needed = 0, uses_anonymous_args = 0
 147              		@ link register save eliminated.
 148              		.loc 3 141 0
 149 0000 4FF08043 		mov	r3, #1073741824
 150 0004 5B6A     		ldr	r3, [r3, #36]
 151              		.loc 3 142 0
 152 0006 1846     		mov	r0, r3
 153 0008 7047     		bx	lr
 154              		.cfi_endproc
 155              	.LFE136:
 156              		.size	st_lld_get_counter, .-st_lld_get_counter
 157 000a 00BFAFF3 		.section	.text.port_timer_get_time,"ax",%progbits
 157      0080
 158              		.align	2
 159              		.p2align 4,,15
 160              		.thumb
 161              		.thumb_func
 162              		.type	port_timer_get_time, %function
 163              	port_timer_get_time:
 164              	.LFB145:
 165              		.file 4 "/home/efe/ChibiOS/os/rt/ports/ARMCMx/chcore_timer.h"
 166              		.loc 4 105 0
 167              		.cfi_startproc
 168              		@ args = 0, pretend = 0, frame = 0
ARM GAS  /tmp/ccR2RkNc.s 			page 4


 169              		@ frame_needed = 0, uses_anonymous_args = 0
 170 0000 08B5     		push	{r3, lr}
 171              		.cfi_def_cfa_offset 8
 172              		.cfi_offset 3, -8
 173              		.cfi_offset 14, -4
 174              		.loc 4 107 0
 175 0002 FFF7FEFF 		bl	st_lld_get_counter
 176 0006 0346     		mov	r3, r0
 177              		.loc 4 108 0
 178 0008 1846     		mov	r0, r3
 179 000a 08BD     		pop	{r3, pc}
 180              		.cfi_endproc
 181              	.LFE145:
 182              		.size	port_timer_get_time, .-port_timer_get_time
 183              		.section	.text.chVTGetSystemTimeX,"ax",%progbits
 184              		.align	2
 185              		.p2align 4,,15
 186              		.thumb
 187              		.thumb_func
 188              		.type	chVTGetSystemTimeX, %function
 189              	chVTGetSystemTimeX:
 190              	.LFB175:
 191              		.file 5 "/home/efe/ChibiOS/os/rt/include/chvt.h"
 192              		.loc 5 228 0
 193              		.cfi_startproc
 194              		@ args = 0, pretend = 0, frame = 0
 195              		@ frame_needed = 0, uses_anonymous_args = 0
 196 0000 08B5     		push	{r3, lr}
 197              		.cfi_def_cfa_offset 8
 198              		.cfi_offset 3, -8
 199              		.cfi_offset 14, -4
 200              		.loc 5 233 0
 201 0002 FFF7FEFF 		bl	port_timer_get_time
 202 0006 0346     		mov	r3, r0
 203              		.loc 5 235 0
 204 0008 1846     		mov	r0, r3
 205 000a 08BD     		pop	{r3, pc}
 206              		.cfi_endproc
 207              	.LFE175:
 208              		.size	chVTGetSystemTimeX, .-chVTGetSystemTimeX
 209              		.section	.rodata
 210              		.align	2
 211              	.LC0:
 212 0000 53562331 		.ascii	"SV#1\000"
 212      00
 213              		.section	.text._dbg_check_disable,"ax",%progbits
 214              		.align	2
 215              		.p2align 4,,15
 216              		.global	_dbg_check_disable
 217              		.thumb
 218              		.thumb_func
 219              		.type	_dbg_check_disable, %function
 220              	_dbg_check_disable:
 221              	.LFB240:
 222              		.file 6 "/home/efe/ChibiOS/os/rt/src/chdebug.c"
 223              		.loc 6 114 0
 224              		.cfi_startproc
ARM GAS  /tmp/ccR2RkNc.s 			page 5


 225              		@ args = 0, pretend = 0, frame = 0
 226              		@ frame_needed = 0, uses_anonymous_args = 0
 227 0000 08B5     		push	{r3, lr}
 228              		.cfi_def_cfa_offset 8
 229              		.cfi_offset 3, -8
 230              		.cfi_offset 14, -4
 231              		.loc 6 116 0
 232 0002 064B     		ldr	r3, .L14
 233 0004 1B6B     		ldr	r3, [r3, #48]
 234 0006 002B     		cmp	r3, #0
 235 0008 03D1     		bne	.L12
 236              		.loc 6 116 0 is_stmt 0 discriminator 1
 237 000a 044B     		ldr	r3, .L14
 238 000c 5B6B     		ldr	r3, [r3, #52]
 239 000e 002B     		cmp	r3, #0
 240 0010 02D0     		beq	.L11
 241              	.L12:
 242              		.loc 6 117 0 is_stmt 1
 243 0012 0348     		ldr	r0, .L14+4
 244 0014 FFF7FEFF 		bl	chSysHalt
 245              	.L11:
 246              		.loc 6 119 0
 247 0018 08BD     		pop	{r3, pc}
 248              	.L15:
 249 001a 00BF     		.align	2
 250              	.L14:
 251 001c 00000000 		.word	ch
 252 0020 00000000 		.word	.LC0
 253              		.cfi_endproc
 254              	.LFE240:
 255              		.size	_dbg_check_disable, .-_dbg_check_disable
 256 0024 AFF30080 		.section	.rodata
 256      AFF30080 
 256      AFF30080 
 257 0005 000000   		.align	2
 258              	.LC1:
 259 0008 53562332 		.ascii	"SV#2\000"
 259      00
 260              		.section	.text._dbg_check_suspend,"ax",%progbits
 261              		.align	2
 262              		.p2align 4,,15
 263              		.global	_dbg_check_suspend
 264              		.thumb
 265              		.thumb_func
 266              		.type	_dbg_check_suspend, %function
 267              	_dbg_check_suspend:
 268              	.LFB241:
 269              		.loc 6 126 0
 270              		.cfi_startproc
 271              		@ args = 0, pretend = 0, frame = 0
 272              		@ frame_needed = 0, uses_anonymous_args = 0
 273 0000 08B5     		push	{r3, lr}
 274              		.cfi_def_cfa_offset 8
 275              		.cfi_offset 3, -8
 276              		.cfi_offset 14, -4
 277              		.loc 6 128 0
 278 0002 064B     		ldr	r3, .L19
ARM GAS  /tmp/ccR2RkNc.s 			page 6


 279 0004 1B6B     		ldr	r3, [r3, #48]
 280 0006 002B     		cmp	r3, #0
 281 0008 03D1     		bne	.L17
 282              		.loc 6 128 0 is_stmt 0 discriminator 1
 283 000a 044B     		ldr	r3, .L19
 284 000c 5B6B     		ldr	r3, [r3, #52]
 285 000e 002B     		cmp	r3, #0
 286 0010 02D0     		beq	.L16
 287              	.L17:
 288              		.loc 6 129 0 is_stmt 1
 289 0012 0348     		ldr	r0, .L19+4
 290 0014 FFF7FEFF 		bl	chSysHalt
 291              	.L16:
 292              		.loc 6 131 0
 293 0018 08BD     		pop	{r3, pc}
 294              	.L20:
 295 001a 00BF     		.align	2
 296              	.L19:
 297 001c 00000000 		.word	ch
 298 0020 08000000 		.word	.LC1
 299              		.cfi_endproc
 300              	.LFE241:
 301              		.size	_dbg_check_suspend, .-_dbg_check_suspend
 302 0024 AFF30080 		.section	.rodata
 302      AFF30080 
 302      AFF30080 
 303 000d 000000   		.align	2
 304              	.LC2:
 305 0010 53562333 		.ascii	"SV#3\000"
 305      00
 306              		.section	.text._dbg_check_enable,"ax",%progbits
 307              		.align	2
 308              		.p2align 4,,15
 309              		.global	_dbg_check_enable
 310              		.thumb
 311              		.thumb_func
 312              		.type	_dbg_check_enable, %function
 313              	_dbg_check_enable:
 314              	.LFB242:
 315              		.loc 6 138 0
 316              		.cfi_startproc
 317              		@ args = 0, pretend = 0, frame = 0
 318              		@ frame_needed = 0, uses_anonymous_args = 0
 319 0000 08B5     		push	{r3, lr}
 320              		.cfi_def_cfa_offset 8
 321              		.cfi_offset 3, -8
 322              		.cfi_offset 14, -4
 323              		.loc 6 140 0
 324 0002 064B     		ldr	r3, .L24
 325 0004 1B6B     		ldr	r3, [r3, #48]
 326 0006 002B     		cmp	r3, #0
 327 0008 03D1     		bne	.L22
 328              		.loc 6 140 0 is_stmt 0 discriminator 1
 329 000a 044B     		ldr	r3, .L24
 330 000c 5B6B     		ldr	r3, [r3, #52]
 331 000e 002B     		cmp	r3, #0
 332 0010 02D0     		beq	.L21
ARM GAS  /tmp/ccR2RkNc.s 			page 7


 333              	.L22:
 334              		.loc 6 141 0 is_stmt 1
 335 0012 0348     		ldr	r0, .L24+4
 336 0014 FFF7FEFF 		bl	chSysHalt
 337              	.L21:
 338              		.loc 6 143 0
 339 0018 08BD     		pop	{r3, pc}
 340              	.L25:
 341 001a 00BF     		.align	2
 342              	.L24:
 343 001c 00000000 		.word	ch
 344 0020 10000000 		.word	.LC2
 345              		.cfi_endproc
 346              	.LFE242:
 347              		.size	_dbg_check_enable, .-_dbg_check_enable
 348 0024 AFF30080 		.section	.rodata
 348      AFF30080 
 348      AFF30080 
 349 0015 000000   		.align	2
 350              	.LC3:
 351 0018 53562334 		.ascii	"SV#4\000"
 351      00
 352              		.section	.text._dbg_check_lock,"ax",%progbits
 353              		.align	2
 354              		.p2align 4,,15
 355              		.global	_dbg_check_lock
 356              		.thumb
 357              		.thumb_func
 358              		.type	_dbg_check_lock, %function
 359              	_dbg_check_lock:
 360              	.LFB243:
 361              		.loc 6 150 0
 362              		.cfi_startproc
 363              		@ args = 0, pretend = 0, frame = 0
 364              		@ frame_needed = 0, uses_anonymous_args = 0
 365 0000 08B5     		push	{r3, lr}
 366              		.cfi_def_cfa_offset 8
 367              		.cfi_offset 3, -8
 368              		.cfi_offset 14, -4
 369              		.loc 6 152 0
 370 0002 074B     		ldr	r3, .L29
 371 0004 1B6B     		ldr	r3, [r3, #48]
 372 0006 002B     		cmp	r3, #0
 373 0008 03D1     		bne	.L27
 374              		.loc 6 152 0 is_stmt 0 discriminator 1
 375 000a 054B     		ldr	r3, .L29
 376 000c 5B6B     		ldr	r3, [r3, #52]
 377 000e 002B     		cmp	r3, #0
 378 0010 02D0     		beq	.L28
 379              	.L27:
 380              		.loc 6 153 0 is_stmt 1
 381 0012 0448     		ldr	r0, .L29+4
 382 0014 FFF7FEFF 		bl	chSysHalt
 383              	.L28:
 384              		.loc 6 155 0
 385 0018 014B     		ldr	r3, .L29
 386 001a 0122     		movs	r2, #1
ARM GAS  /tmp/ccR2RkNc.s 			page 8


 387 001c 5A63     		str	r2, [r3, #52]
 388              		.loc 6 156 0
 389 001e 08BD     		pop	{r3, pc}
 390              	.L30:
 391              		.align	2
 392              	.L29:
 393 0020 00000000 		.word	ch
 394 0024 18000000 		.word	.LC3
 395              		.cfi_endproc
 396              	.LFE243:
 397              		.size	_dbg_check_lock, .-_dbg_check_lock
 398 0028 AFF30080 		.section	.rodata
 398      AFF30080 
 399 001d 000000   		.align	2
 400              	.LC4:
 401 0020 53562335 		.ascii	"SV#5\000"
 401      00
 402              		.section	.text._dbg_check_unlock,"ax",%progbits
 403              		.align	2
 404              		.p2align 4,,15
 405              		.global	_dbg_check_unlock
 406              		.thumb
 407              		.thumb_func
 408              		.type	_dbg_check_unlock, %function
 409              	_dbg_check_unlock:
 410              	.LFB244:
 411              		.loc 6 163 0
 412              		.cfi_startproc
 413              		@ args = 0, pretend = 0, frame = 0
 414              		@ frame_needed = 0, uses_anonymous_args = 0
 415 0000 08B5     		push	{r3, lr}
 416              		.cfi_def_cfa_offset 8
 417              		.cfi_offset 3, -8
 418              		.cfi_offset 14, -4
 419              		.loc 6 165 0
 420 0002 074B     		ldr	r3, .L34
 421 0004 1B6B     		ldr	r3, [r3, #48]
 422 0006 002B     		cmp	r3, #0
 423 0008 03D1     		bne	.L32
 424              		.loc 6 165 0 is_stmt 0 discriminator 1
 425 000a 054B     		ldr	r3, .L34
 426 000c 5B6B     		ldr	r3, [r3, #52]
 427 000e 002B     		cmp	r3, #0
 428 0010 02DC     		bgt	.L33
 429              	.L32:
 430              		.loc 6 166 0 is_stmt 1
 431 0012 0448     		ldr	r0, .L34+4
 432 0014 FFF7FEFF 		bl	chSysHalt
 433              	.L33:
 434              		.loc 6 168 0
 435 0018 014B     		ldr	r3, .L34
 436 001a 0022     		movs	r2, #0
 437 001c 5A63     		str	r2, [r3, #52]
 438              		.loc 6 169 0
 439 001e 08BD     		pop	{r3, pc}
 440              	.L35:
 441              		.align	2
ARM GAS  /tmp/ccR2RkNc.s 			page 9


 442              	.L34:
 443 0020 00000000 		.word	ch
 444 0024 20000000 		.word	.LC4
 445              		.cfi_endproc
 446              	.LFE244:
 447              		.size	_dbg_check_unlock, .-_dbg_check_unlock
 448 0028 AFF30080 		.section	.rodata
 448      AFF30080 
 449 0025 000000   		.align	2
 450              	.LC5:
 451 0028 53562336 		.ascii	"SV#6\000"
 451      00
 452              		.section	.text._dbg_check_lock_from_isr,"ax",%progbits
 453              		.align	2
 454              		.p2align 4,,15
 455              		.global	_dbg_check_lock_from_isr
 456              		.thumb
 457              		.thumb_func
 458              		.type	_dbg_check_lock_from_isr, %function
 459              	_dbg_check_lock_from_isr:
 460              	.LFB245:
 461              		.loc 6 176 0
 462              		.cfi_startproc
 463              		@ args = 0, pretend = 0, frame = 0
 464              		@ frame_needed = 0, uses_anonymous_args = 0
 465 0000 08B5     		push	{r3, lr}
 466              		.cfi_def_cfa_offset 8
 467              		.cfi_offset 3, -8
 468              		.cfi_offset 14, -4
 469              		.loc 6 178 0
 470 0002 074B     		ldr	r3, .L39
 471 0004 1B6B     		ldr	r3, [r3, #48]
 472 0006 002B     		cmp	r3, #0
 473 0008 03DD     		ble	.L37
 474              		.loc 6 178 0 is_stmt 0 discriminator 1
 475 000a 054B     		ldr	r3, .L39
 476 000c 5B6B     		ldr	r3, [r3, #52]
 477 000e 002B     		cmp	r3, #0
 478 0010 02D0     		beq	.L38
 479              	.L37:
 480              		.loc 6 179 0 is_stmt 1
 481 0012 0448     		ldr	r0, .L39+4
 482 0014 FFF7FEFF 		bl	chSysHalt
 483              	.L38:
 484              		.loc 6 181 0
 485 0018 014B     		ldr	r3, .L39
 486 001a 0122     		movs	r2, #1
 487 001c 5A63     		str	r2, [r3, #52]
 488              		.loc 6 182 0
 489 001e 08BD     		pop	{r3, pc}
 490              	.L40:
 491              		.align	2
 492              	.L39:
 493 0020 00000000 		.word	ch
 494 0024 28000000 		.word	.LC5
 495              		.cfi_endproc
 496              	.LFE245:
ARM GAS  /tmp/ccR2RkNc.s 			page 10


 497              		.size	_dbg_check_lock_from_isr, .-_dbg_check_lock_from_isr
 498 0028 AFF30080 		.section	.rodata
 498      AFF30080 
 499 002d 000000   		.align	2
 500              	.LC6:
 501 0030 53562337 		.ascii	"SV#7\000"
 501      00
 502              		.section	.text._dbg_check_unlock_from_isr,"ax",%progbits
 503              		.align	2
 504              		.p2align 4,,15
 505              		.global	_dbg_check_unlock_from_isr
 506              		.thumb
 507              		.thumb_func
 508              		.type	_dbg_check_unlock_from_isr, %function
 509              	_dbg_check_unlock_from_isr:
 510              	.LFB246:
 511              		.loc 6 189 0
 512              		.cfi_startproc
 513              		@ args = 0, pretend = 0, frame = 0
 514              		@ frame_needed = 0, uses_anonymous_args = 0
 515 0000 08B5     		push	{r3, lr}
 516              		.cfi_def_cfa_offset 8
 517              		.cfi_offset 3, -8
 518              		.cfi_offset 14, -4
 519              		.loc 6 191 0
 520 0002 074B     		ldr	r3, .L44
 521 0004 1B6B     		ldr	r3, [r3, #48]
 522 0006 002B     		cmp	r3, #0
 523 0008 03DD     		ble	.L42
 524              		.loc 6 191 0 is_stmt 0 discriminator 1
 525 000a 054B     		ldr	r3, .L44
 526 000c 5B6B     		ldr	r3, [r3, #52]
 527 000e 002B     		cmp	r3, #0
 528 0010 02DC     		bgt	.L43
 529              	.L42:
 530              		.loc 6 192 0 is_stmt 1
 531 0012 0448     		ldr	r0, .L44+4
 532 0014 FFF7FEFF 		bl	chSysHalt
 533              	.L43:
 534              		.loc 6 194 0
 535 0018 014B     		ldr	r3, .L44
 536 001a 0022     		movs	r2, #0
 537 001c 5A63     		str	r2, [r3, #52]
 538              		.loc 6 195 0
 539 001e 08BD     		pop	{r3, pc}
 540              	.L45:
 541              		.align	2
 542              	.L44:
 543 0020 00000000 		.word	ch
 544 0024 30000000 		.word	.LC6
 545              		.cfi_endproc
 546              	.LFE246:
 547              		.size	_dbg_check_unlock_from_isr, .-_dbg_check_unlock_from_isr
 548 0028 AFF30080 		.section	.rodata
 548      AFF30080 
 549 0035 000000   		.align	2
 550              	.LC7:
ARM GAS  /tmp/ccR2RkNc.s 			page 11


 551 0038 53562338 		.ascii	"SV#8\000"
 551      00
 552              		.section	.text._dbg_check_enter_isr,"ax",%progbits
 553              		.align	2
 554              		.p2align 4,,15
 555              		.global	_dbg_check_enter_isr
 556              		.thumb
 557              		.thumb_func
 558              		.type	_dbg_check_enter_isr, %function
 559              	_dbg_check_enter_isr:
 560              	.LFB247:
 561              		.loc 6 202 0
 562              		.cfi_startproc
 563              		@ args = 0, pretend = 0, frame = 0
 564              		@ frame_needed = 0, uses_anonymous_args = 0
 565 0000 08B5     		push	{r3, lr}
 566              		.cfi_def_cfa_offset 8
 567              		.cfi_offset 3, -8
 568              		.cfi_offset 14, -4
 569              		.loc 6 204 0
 570 0002 FFF7FEFF 		bl	port_lock_from_isr
 571              		.loc 6 205 0
 572 0006 094B     		ldr	r3, .L49
 573 0008 1B6B     		ldr	r3, [r3, #48]
 574 000a 002B     		cmp	r3, #0
 575 000c 03DB     		blt	.L47
 576              		.loc 6 205 0 is_stmt 0 discriminator 1
 577 000e 074B     		ldr	r3, .L49
 578 0010 5B6B     		ldr	r3, [r3, #52]
 579 0012 002B     		cmp	r3, #0
 580 0014 02D0     		beq	.L48
 581              	.L47:
 582              		.loc 6 206 0 is_stmt 1
 583 0016 0648     		ldr	r0, .L49+4
 584 0018 FFF7FEFF 		bl	chSysHalt
 585              	.L48:
 586              		.loc 6 208 0
 587 001c 034B     		ldr	r3, .L49
 588 001e 1B6B     		ldr	r3, [r3, #48]
 589 0020 5A1C     		adds	r2, r3, #1
 590 0022 024B     		ldr	r3, .L49
 591 0024 1A63     		str	r2, [r3, #48]
 592              		.loc 6 209 0
 593 0026 FFF7FEFF 		bl	port_unlock_from_isr
 594              		.loc 6 210 0
 595 002a 08BD     		pop	{r3, pc}
 596              	.L50:
 597              		.align	2
 598              	.L49:
 599 002c 00000000 		.word	ch
 600 0030 38000000 		.word	.LC7
 601              		.cfi_endproc
 602              	.LFE247:
 603              		.size	_dbg_check_enter_isr, .-_dbg_check_enter_isr
 604 0034 AFF30080 		.section	.rodata
 604      AFF30080 
 604      AFF30080 
ARM GAS  /tmp/ccR2RkNc.s 			page 12


 605 003d 000000   		.align	2
 606              	.LC8:
 607 0040 53562339 		.ascii	"SV#9\000"
 607      00
 608              		.section	.text._dbg_check_leave_isr,"ax",%progbits
 609              		.align	2
 610              		.p2align 4,,15
 611              		.global	_dbg_check_leave_isr
 612              		.thumb
 613              		.thumb_func
 614              		.type	_dbg_check_leave_isr, %function
 615              	_dbg_check_leave_isr:
 616              	.LFB248:
 617              		.loc 6 217 0
 618              		.cfi_startproc
 619              		@ args = 0, pretend = 0, frame = 0
 620              		@ frame_needed = 0, uses_anonymous_args = 0
 621 0000 08B5     		push	{r3, lr}
 622              		.cfi_def_cfa_offset 8
 623              		.cfi_offset 3, -8
 624              		.cfi_offset 14, -4
 625              		.loc 6 219 0
 626 0002 FFF7FEFF 		bl	port_lock_from_isr
 627              		.loc 6 220 0
 628 0006 094B     		ldr	r3, .L54
 629 0008 1B6B     		ldr	r3, [r3, #48]
 630 000a 002B     		cmp	r3, #0
 631 000c 03DD     		ble	.L52
 632              		.loc 6 220 0 is_stmt 0 discriminator 1
 633 000e 074B     		ldr	r3, .L54
 634 0010 5B6B     		ldr	r3, [r3, #52]
 635 0012 002B     		cmp	r3, #0
 636 0014 02D0     		beq	.L53
 637              	.L52:
 638              		.loc 6 221 0 is_stmt 1
 639 0016 0648     		ldr	r0, .L54+4
 640 0018 FFF7FEFF 		bl	chSysHalt
 641              	.L53:
 642              		.loc 6 223 0
 643 001c 034B     		ldr	r3, .L54
 644 001e 1B6B     		ldr	r3, [r3, #48]
 645 0020 5A1E     		subs	r2, r3, #1
 646 0022 024B     		ldr	r3, .L54
 647 0024 1A63     		str	r2, [r3, #48]
 648              		.loc 6 224 0
 649 0026 FFF7FEFF 		bl	port_unlock_from_isr
 650              		.loc 6 225 0
 651 002a 08BD     		pop	{r3, pc}
 652              	.L55:
 653              		.align	2
 654              	.L54:
 655 002c 00000000 		.word	ch
 656 0030 40000000 		.word	.LC8
 657              		.cfi_endproc
 658              	.LFE248:
 659              		.size	_dbg_check_leave_isr, .-_dbg_check_leave_isr
 660 0034 AFF30080 		.section	.rodata
ARM GAS  /tmp/ccR2RkNc.s 			page 13


 660      AFF30080 
 660      AFF30080 
 661 0045 000000   		.align	2
 662              	.LC9:
 663 0048 53562331 		.ascii	"SV#10\000"
 663      3000
 664              		.section	.text.chDbgCheckClassI,"ax",%progbits
 665              		.align	2
 666              		.p2align 4,,15
 667              		.global	chDbgCheckClassI
 668              		.thumb
 669              		.thumb_func
 670              		.type	chDbgCheckClassI, %function
 671              	chDbgCheckClassI:
 672              	.LFB249:
 673              		.loc 6 235 0
 674              		.cfi_startproc
 675              		@ args = 0, pretend = 0, frame = 0
 676              		@ frame_needed = 0, uses_anonymous_args = 0
 677 0000 08B5     		push	{r3, lr}
 678              		.cfi_def_cfa_offset 8
 679              		.cfi_offset 3, -8
 680              		.cfi_offset 14, -4
 681              		.loc 6 237 0
 682 0002 064B     		ldr	r3, .L59
 683 0004 1B6B     		ldr	r3, [r3, #48]
 684 0006 002B     		cmp	r3, #0
 685 0008 03DB     		blt	.L57
 686              		.loc 6 237 0 is_stmt 0 discriminator 1
 687 000a 044B     		ldr	r3, .L59
 688 000c 5B6B     		ldr	r3, [r3, #52]
 689 000e 002B     		cmp	r3, #0
 690 0010 02DC     		bgt	.L56
 691              	.L57:
 692              		.loc 6 238 0 is_stmt 1
 693 0012 0348     		ldr	r0, .L59+4
 694 0014 FFF7FEFF 		bl	chSysHalt
 695              	.L56:
 696              		.loc 6 240 0
 697 0018 08BD     		pop	{r3, pc}
 698              	.L60:
 699 001a 00BF     		.align	2
 700              	.L59:
 701 001c 00000000 		.word	ch
 702 0020 48000000 		.word	.LC9
 703              		.cfi_endproc
 704              	.LFE249:
 705              		.size	chDbgCheckClassI, .-chDbgCheckClassI
 706 0024 AFF30080 		.section	.rodata
 706      AFF30080 
 706      AFF30080 
 707 004e 0000     		.align	2
 708              	.LC10:
 709 0050 53562331 		.ascii	"SV#11\000"
 709      3100
 710 0056 0000     		.section	.text.chDbgCheckClassS,"ax",%progbits
 711              		.align	2
ARM GAS  /tmp/ccR2RkNc.s 			page 14


 712              		.p2align 4,,15
 713              		.global	chDbgCheckClassS
 714              		.thumb
 715              		.thumb_func
 716              		.type	chDbgCheckClassS, %function
 717              	chDbgCheckClassS:
 718              	.LFB250:
 719              		.loc 6 250 0
 720              		.cfi_startproc
 721              		@ args = 0, pretend = 0, frame = 0
 722              		@ frame_needed = 0, uses_anonymous_args = 0
 723 0000 08B5     		push	{r3, lr}
 724              		.cfi_def_cfa_offset 8
 725              		.cfi_offset 3, -8
 726              		.cfi_offset 14, -4
 727              		.loc 6 252 0
 728 0002 064B     		ldr	r3, .L64
 729 0004 1B6B     		ldr	r3, [r3, #48]
 730 0006 002B     		cmp	r3, #0
 731 0008 03D1     		bne	.L62
 732              		.loc 6 252 0 is_stmt 0 discriminator 1
 733 000a 044B     		ldr	r3, .L64
 734 000c 5B6B     		ldr	r3, [r3, #52]
 735 000e 002B     		cmp	r3, #0
 736 0010 02DC     		bgt	.L61
 737              	.L62:
 738              		.loc 6 253 0 is_stmt 1
 739 0012 0348     		ldr	r0, .L64+4
 740 0014 FFF7FEFF 		bl	chSysHalt
 741              	.L61:
 742              		.loc 6 255 0
 743 0018 08BD     		pop	{r3, pc}
 744              	.L65:
 745 001a 00BF     		.align	2
 746              	.L64:
 747 001c 00000000 		.word	ch
 748 0020 50000000 		.word	.LC10
 749              		.cfi_endproc
 750              	.LFE250:
 751              		.size	chDbgCheckClassS, .-chDbgCheckClassS
 752 0024 AFF30080 		.section	.text._dbg_trace_init,"ax",%progbits
 752      AFF30080 
 752      AFF30080 
 753              		.align	2
 754              		.p2align 4,,15
 755              		.global	_dbg_trace_init
 756              		.thumb
 757              		.thumb_func
 758              		.type	_dbg_trace_init, %function
 759              	_dbg_trace_init:
 760              	.LFB251:
 761              		.loc 6 264 0
 762              		.cfi_startproc
 763              		@ args = 0, pretend = 0, frame = 0
 764              		@ frame_needed = 0, uses_anonymous_args = 0
 765              		@ link register save eliminated.
 766              		.loc 6 266 0
ARM GAS  /tmp/ccR2RkNc.s 			page 15


 767 0000 034B     		ldr	r3, .L67
 768 0002 4022     		movs	r2, #64
 769 0004 9A63     		str	r2, [r3, #56]
 770              		.loc 6 267 0
 771 0006 024B     		ldr	r3, .L67
 772 0008 024A     		ldr	r2, .L67+4
 773 000a DA63     		str	r2, [r3, #60]
 774              		.loc 6 268 0
 775 000c 7047     		bx	lr
 776              	.L68:
 777 000e 00BF     		.align	2
 778              	.L67:
 779 0010 00000000 		.word	ch
 780 0014 40000000 		.word	ch+64
 781              		.cfi_endproc
 782              	.LFE251:
 783              		.size	_dbg_trace_init, .-_dbg_trace_init
 784 0018 AFF30080 		.section	.text._dbg_trace,"ax",%progbits
 784      AFF30080 
 785              		.align	2
 786              		.p2align 4,,15
 787              		.global	_dbg_trace
 788              		.thumb
 789              		.thumb_func
 790              		.type	_dbg_trace, %function
 791              	_dbg_trace:
 792              	.LFB252:
 793              		.loc 6 277 0
 794              		.cfi_startproc
 795              		@ args = 0, pretend = 0, frame = 8
 796              		@ frame_needed = 0, uses_anonymous_args = 0
 797 0000 10B5     		push	{r4, lr}
 798              		.cfi_def_cfa_offset 8
 799              		.cfi_offset 4, -8
 800              		.cfi_offset 14, -4
 801 0002 82B0     		sub	sp, sp, #8
 802              		.cfi_def_cfa_offset 16
 803 0004 0190     		str	r0, [sp, #4]
 804              		.loc 6 279 0
 805 0006 134B     		ldr	r3, .L71
 806 0008 DC6B     		ldr	r4, [r3, #60]
 807 000a FFF7FEFF 		bl	chVTGetSystemTimeX
 808 000e 0346     		mov	r3, r0
 809 0010 2360     		str	r3, [r4]
 810              		.loc 6 280 0
 811 0012 104B     		ldr	r3, .L71
 812 0014 DB6B     		ldr	r3, [r3, #60]
 813 0016 0F4A     		ldr	r2, .L71
 814 0018 9269     		ldr	r2, [r2, #24]
 815 001a 5A60     		str	r2, [r3, #4]
 816              		.loc 6 281 0
 817 001c 0D4B     		ldr	r3, .L71
 818 001e DB6B     		ldr	r3, [r3, #60]
 819 0020 019A     		ldr	r2, [sp, #4]
 820 0022 526A     		ldr	r2, [r2, #36]
 821 0024 9A60     		str	r2, [r3, #8]
 822              		.loc 6 282 0
ARM GAS  /tmp/ccR2RkNc.s 			page 16


 823 0026 0B4B     		ldr	r3, .L71
 824 0028 DB6B     		ldr	r3, [r3, #60]
 825 002a 019A     		ldr	r2, [sp, #4]
 826 002c 92F82020 		ldrb	r2, [r2, #32]	@ zero_extendqisi2
 827 0030 1A73     		strb	r2, [r3, #12]
 828              		.loc 6 283 0
 829 0032 084B     		ldr	r3, .L71
 830 0034 DB6B     		ldr	r3, [r3, #60]
 831 0036 03F11002 		add	r2, r3, #16
 832 003a 064B     		ldr	r3, .L71
 833 003c DA63     		str	r2, [r3, #60]
 834 003e 054B     		ldr	r3, .L71
 835 0040 DA6B     		ldr	r2, [r3, #60]
 836 0042 054B     		ldr	r3, .L71+4
 837 0044 9A42     		cmp	r2, r3
 838 0046 02D3     		bcc	.L69
 839              		.loc 6 285 0
 840 0048 024B     		ldr	r3, .L71
 841 004a 044A     		ldr	r2, .L71+8
 842 004c DA63     		str	r2, [r3, #60]
 843              	.L69:
 844              		.loc 6 287 0
 845 004e 02B0     		add	sp, sp, #8
 846              		@ sp needed
 847 0050 10BD     		pop	{r4, pc}
 848              	.L72:
 849 0052 00BF     		.align	2
 850              	.L71:
 851 0054 00000000 		.word	ch
 852 0058 40040000 		.word	ch+1088
 853 005c 40000000 		.word	ch+64
 854              		.cfi_endproc
 855              	.LFE252:
 856              		.size	_dbg_trace, .-_dbg_trace
 857              		.text
 858              	.Letext0:
 859              		.file 7 "/usr/include/newlib/machine/_default_types.h"
 860              		.file 8 "/usr/include/newlib/stdint.h"
 861              		.file 9 "/home/efe/ChibiOS/os/rt/ports/ARMCMx/compilers/GCC/chtypes.h"
 862              		.file 10 "/home/efe/ChibiOS/os/rt/include/chsystypes.h"
 863              		.file 11 "/home/efe/ChibiOS/os/rt/include/chschd.h"
 864              		.file 12 "/home/efe/ChibiOS/os/rt/ports/ARMCMx/chcore.h"
 865              		.file 13 "/home/efe/ChibiOS/os/hal/ports/STM32/LLD/TIMv1/stm32_tim.h"
 866              		.file 14 "/home/efe/ChibiOS/os/rt/include/chdebug.h"
 867              		.file 15 "/home/efe/ChibiOS/os/rt/include/chtm.h"
 868              		.file 16 "/home/efe/ChibiOS/os/rt/include/chstats.h"
 869              		.file 17 "/home/efe/ChibiOS/os/rt/include/chsem.h"
 870              		.file 18 "/home/efe/ChibiOS/os/rt/include/chmtx.h"
 871              		.file 19 "/home/efe/ChibiOS/os/ext/CMSIS/include/core_cm4.h"