ARM GAS  /tmp/ccR2RkNc.s 			page 1


   1              		.syntax unified
   2              		.cpu cortex-m4
   3              		.fpu softvfp
   4              		.eabi_attribute 20, 1
   5              		.eabi_attribute 21, 1
   6              		.eabi_attribute 23, 3
   7              		.eabi_attribute 24, 1
   8              		.eabi_attribute 25, 1
   9              		.eabi_attribute 26, 1
  10              		.eabi_attribute 30, 6
  11              		.eabi_attribute 34, 1
  12              		.eabi_attribute 18, 4
  13              		.thumb
  14              		.file	"chdebug.c"
  15              		.text
  16              	.Ltext0:
  17              		.cfi_sections	.debug_frame
  18              		.section	.text.port_lock,"ax",%progbits
  19              		.align	2
  20              		.p2align 4,,15
  21              		.thumb
  22              		.thumb_func
  23              		.type	port_lock, %function
  24              	port_lock:
  25              	.LFB127:
  26              		.file 1 "/home/efe/ChibiOS/os/rt/ports/ARMCMx/chcore_v7m.h"
  27              		.loc 1 456 0
  28              		.cfi_startproc
  29              		@ args = 0, pretend = 0, frame = 8
  30              		@ frame_needed = 0, uses_anonymous_args = 0
  31              		@ link register save eliminated.
  32 0000 82B0     		sub	sp, sp, #8
  33              		.cfi_def_cfa_offset 8
  34 0002 2023     		movs	r3, #32
  35 0004 0193     		str	r3, [sp, #4]
  36              	.LBB6:
  37              	.LBB7:
  38              		.file 2 "/home/efe/ChibiOS/os/ext/CMSIS/include/core_cmFunc.h"
  39              		.loc 2 548 0
  40 0006 019B     		ldr	r3, [sp, #4]
  41              	@ 548 "/home/efe/ChibiOS/os/ext/CMSIS/include/core_cmFunc.h" 1
  42 0008 83F31188 		MSR basepri, r3
  43              	@ 0 "" 2
  44              		.thumb
  45              	.LBE7:
  46              	.LBE6:
  47              		.loc 1 463 0
  48 000c 02B0     		add	sp, sp, #8
  49              		@ sp needed
  50 000e 7047     		bx	lr
  51              		.cfi_endproc
  52              	.LFE127:
  53              		.size	port_lock, .-port_lock
  54              		.section	.text.port_unlock,"ax",%progbits
  55              		.align	2
  56              		.p2align 4,,15
  57              		.thumb
ARM GAS  /tmp/ccR2RkNc.s 			page 2


  58              		.thumb_func
  59              		.type	port_unlock, %function
  60              	port_unlock:
  61              	.LFB128:
  62              		.loc 1 470 0
  63              		.cfi_startproc
  64              		@ args = 0, pretend = 0, frame = 8
  65              		@ frame_needed = 0, uses_anonymous_args = 0
  66              		@ link register save eliminated.
  67 0000 82B0     		sub	sp, sp, #8
  68              		.cfi_def_cfa_offset 8
  69 0002 0023     		movs	r3, #0
  70 0004 0193     		str	r3, [sp, #4]
  71              	.LBB8:
  72              	.LBB9:
  73              		.loc 2 548 0
  74 0006 019B     		ldr	r3, [sp, #4]
  75              	@ 548 "/home/efe/ChibiOS/os/ext/CMSIS/include/core_cmFunc.h" 1
  76 0008 83F31188 		MSR basepri, r3
  77              	@ 0 "" 2
  78              		.thumb
  79              	.LBE9:
  80              	.LBE8:
  81              		.loc 1 477 0
  82 000c 02B0     		add	sp, sp, #8
  83              		@ sp needed
  84 000e 7047     		bx	lr
  85              		.cfi_endproc
  86              	.LFE128:
  87              		.size	port_unlock, .-port_unlock
  88              		.section	.text.port_lock_from_isr,"ax",%progbits
  89              		.align	2
  90              		.p2align 4,,15
  91              		.thumb
  92              		.thumb_func
  93              		.type	port_lock_from_isr, %function
  94              	port_lock_from_isr:
  95              	.LFB129:
  96              		.loc 1 485 0
  97              		.cfi_startproc
  98              		@ args = 0, pretend = 0, frame = 0
  99              		@ frame_needed = 0, uses_anonymous_args = 0
 100 0000 08B5     		push	{r3, lr}
 101              		.cfi_def_cfa_offset 8
 102              		.cfi_offset 3, -8
 103              		.cfi_offset 14, -4
 104              		.loc 1 487 0
 105 0002 FFF7FEFF 		bl	port_lock
 106              		.loc 1 488 0
 107 0006 08BD     		pop	{r3, pc}
 108              		.cfi_endproc
 109              	.LFE129:
 110              		.size	port_lock_from_isr, .-port_lock_from_isr
 111 0008 AFF30080 		.section	.text.port_unlock_from_isr,"ax",%progbits
 111      AFF30080 
 112              		.align	2
 113              		.p2align 4,,15
ARM GAS  /tmp/ccR2RkNc.s 			page 3


 114              		.thumb
 115              		.thumb_func
 116              		.type	port_unlock_from_isr, %function
 117              	port_unlock_from_isr:
 118              	.LFB130:
 119              		.loc 1 496 0
 120              		.cfi_startproc
 121              		@ args = 0, pretend = 0, frame = 0
 122              		@ frame_needed = 0, uses_anonymous_args = 0
 123 0000 08B5     		push	{r3, lr}
 124              		.cfi_def_cfa_offset 8
 125              		.cfi_offset 3, -8
 126              		.cfi_offset 14, -4
 127              		.loc 1 498 0
 128 0002 FFF7FEFF 		bl	port_unlock
 129              		.loc 1 499 0
 130 0006 08BD     		pop	{r3, pc}
 131              		.cfi_endproc
 132              	.LFE130:
 133              		.size	port_unlock_from_isr, .-port_unlock_from_isr
 134 0008 AFF30080 		.section	.text.st_lld_get_counter,"ax",%progbits
 134      AFF30080 
 135              		.align	2
 136              		.p2align 4,,15
 137              		.thumb
 138              		.thumb_func
 139              		.type	st_lld_get_counter, %function
 140              	st_lld_get_counter:
 141              	.LFB136:
 142              		.file 3 "/home/efe/ChibiOS/os/hal/ports/STM32/LLD/TIMv1/st_lld.h"
 143              		.loc 3 139 0
 144              		.cfi_startproc
 145              		@ args = 0, pretend = 0, frame = 0
 146              		@ frame_needed = 0, uses_anonymous_args = 0
 147              		@ link register save eliminated.
 148              		.loc 3 141 0
 149 0000 4FF08043 		mov	r3, #1073741824
 150 0004 5B6A     		ldr	r3, [r3, #36]
 151              		.loc 3 142 0
 152 0006 1846     		mov	r0, r3
 153 0008 7047     		bx	lr
 154              		.cfi_endproc
 155              	.LFE136:
 156              		.size	st_lld_get_counter, .-st_lld_get_counter
 157 000a 00BFAFF3 		.section	.text.port_timer_get_time,"ax",%progbits
 157      0080
 158              		.align	2
 159              		.p2align 4,,15
 160              		.thumb
 161              		.thumb_func
 162              		.type	port_timer_get_time, %function
 163              	port_timer_get_time:
 164              	.LFB145:
 165              		.file 4 "/home/efe/ChibiOS/os/rt/ports/ARMCMx/chcore_timer.h"
 166              		.loc 4 105 0
 167              		.cfi_startproc
 168              		@ args = 0, pretend = 0, frame = 0
ARM GAS  /tmp/ccR2RkNc.s 			page 4


 169              		@ frame_needed = 0, uses_anonymous_args = 0
 170 0000 08B5     		push	{r3, lr}
 171              		.cfi_def_cfa_offset 8
 172              		.cfi_offset 3, -8
 173              		.cfi_offset 14, -4
 174              		.loc 4 107 0
 175 0002 FFF7FEFF 		bl	st_lld_get_counter
 176 0006 0346     		mov	r3, r0
 177              		.loc 4 108 0
 178 0008 1846     		mov	r0, r3
 179 000a 08BD     		pop	{r3, pc}
 180              		.cfi_endproc
 181              	.LFE145:
 182              		.size	port_timer_get_time, .-port_timer_get_time
 183              		.section	.text.chVTGetSystemTimeX,"ax",%progbits
 184              		.align	2
 185              		.p2align 4,,15
 186              		.thumb
 187              		.thumb_func
 188              		.type	chVTGetSystemTimeX, %function
 189              	chVTGetSystemTimeX:
 190              	.LFB175:
 191              		.file 5 "/home/efe/ChibiOS/os/rt/include/chvt.h"
 192              		.loc 5 228 0
 193              		.cfi_startproc
 194              		@ args = 0, pretend = 0, frame = 0
 195              		@ frame_needed = 0, uses_anonymous_args = 0
 196 0000 08B5     		push	{r3, lr}
 197              		.cfi_def_cfa_offset 8
 198              		.cfi_offset 3, -8
 199              		.cfi_offset 14, -4
 200              		.loc 5 233 0
 201 0002 FFF7FEFF 		bl	port_timer_get_time
 202 0006 0346     		mov	r3, r0
 203              		.loc 5 235 0
 204 0008 1846     		mov	r0, r3
 205 000a 08BD     		pop	{r3, pc}
 206              		.cfi_endproc
 207              	.LFE175:
 208              		.size	chVTGetSystemTimeX, .-chVTGetSystemTimeX
 209              		.section	.rodata
 210              		.align	2
 211              	.LC0:
 212 0000 53562331 		.ascii	"SV#1\000"
 212      00
 213              		.section	.text._dbg_check_disable,"ax",%progbits
 214              		.align	2
 215              		.p2align 4,,15
 216              		.global	_dbg_check_disable
 217              		.thumb
 218              		.thumb_func
 219              		.type	_dbg_check_disable, %function
 220              	_dbg_check_disable:
 221              	.LFB240:
 222              		.file 6 "/home/efe/ChibiOS/os/rt/src/chdebug.c"
 223              		.loc 6 114 0
 224              		.cfi_startproc
ARM GAS  /tmp/ccR2RkNc.s 			page 5


 225              		@ args = 0, pretend = 0, frame = 0
 226              		@ frame_needed = 0, uses_anonymous_args = 0
 227 0000 08B5     		push	{r3, lr}
 228              		.cfi_def_cfa_offset 8
 229              		.cfi_offset 3, -8
 230              		.cfi_offset 14, -4
 231              		.loc 6 116 0
 232 0002 064B     		ldr	r3, .L14
 233 0004 1B6B     		ldr	r3, [r3, #48]
 234 0006 002B     		cmp	r3, #0
 235 0008 03D1     		bne	.L12
 236              		.loc 6 116 0 is_stmt 0 discriminator 1
 237 000a 044B     		ldr	r3, .L14
 238 000c 5B6B     		ldr	r3, [r3, #52]
 239 000e 002B     		cmp	r3, #0
 240 0010 02D0     		beq	.L11
 241              	.L12:
 242              		.loc 6 117 0 is_stmt 1
 243 0012 0348     		ldr	r0, .L14+4
 244 0014 FFF7FEFF 		bl	chSysHalt
 245              	.L11:
 246              		.loc 6 119 0
 247 0018 08BD     		pop	{r3, pc}
 248              	.L15:
 249 001a 00BF     		.align	2
 250              	.L14:
 251 001c 00000000 		.word	ch
 252 0020 00000000 		.word	.LC0
 253              		.cfi_endproc
 254              	.LFE240:
 255              		.size	_dbg_check_disable, .-_dbg_check_disable
 256 0024 AFF30080 		.section	.rodata
 256      AFF30080 
 256      AFF30080 
 257 0005 000000   		.align	2
 258              	.LC1:
 259 0008 53562332 		.ascii	"SV#2\000"
 259      00
 260              		.section	.text._dbg_check_suspend,"ax",%progbits
 261              		.align	2
 262              		.p2align 4,,15
 263              		.global	_dbg_check_suspend
 264              		.thumb
 265              		.thumb_func
 266              		.type	_dbg_check_suspend, %function
 267              	_dbg_check_suspend:
 268              	.LFB241:
 269              		.loc 6 126 0
 270              		.cfi_startproc
 271              		@ args = 0, pretend = 0, frame = 0
 272              		@ frame_needed = 0, uses_anonymous_args = 0
 273 0000 08B5     		push	{r3, lr}
 274              		.cfi_def_cfa_offset 8
 275              		.cfi_offset 3, -8
 276              		.cfi_offset 14, -4
 277              		.loc 6 128 0
 278 0002 064B     		ldr	r3, .L19
ARM GAS  /tmp/ccR2RkNc.s 			page 6


 279 0004 1B6B     		ldr	r3, [r3, #48]
 280 0006 002B     		cmp	r3, #0
 281 0008 03D1     		bne	.L17
 282              		.loc 6 128 0 is_stmt 0 discriminator 1
 283 000a 044B     		ldr	r3, .L19
 284 000c 5B6B     		ldr	r3, [r3, #52]
 285 000e 002B     		cmp	r3, #0
 286 0010 02D0     		beq	.L16
 287              	.L17:
 288              		.loc 6 129 0 is_stmt 1
 289 0012 0348     		ldr	r0, .L19+4
 290 0014 FFF7FEFF 		bl	chSysHalt
 291              	.L16:
 292              		.loc 6 131 0
 293 0018 08BD     		pop	{r3, pc}
 294              	.L20:
 295 001a 00BF     		.align	2
 296              	.L19:
 297 001c 00000000 		.word	ch
 298 0020 08000000 		.word	.LC1
 299              		.cfi_endproc
 300              	.LFE241:
 301              		.size	_dbg_check_suspend, .-_dbg_check_suspend
 302 0024 AFF30080 		.section	.rodata
 302      AFF30080 
 302      AFF30080 
 303 000d 000000   		.align	2
 304              	.LC2:
 305 0010 53562333 		.ascii	"SV#3\000"
 305      00
 306              		.section	.text._dbg_check_enable,"ax",%progbits
 307              		.align	2
 308              		.p2align 4,,15
 309              		.global	_dbg_check_enable
 310              		.thumb
 311              		.thumb_func
 312              		.type	_dbg_check_enable, %function
 313              	_dbg_check_enable:
 314              	.LFB242:
 315              		.loc 6 138 0
 316              		.cfi_startproc
 317              		@ args = 0, pretend = 0, frame = 0
 318              		@ frame_needed = 0, uses_anonymous_args = 0
 319 0000 08B5     		push	{r3, lr}
 320              		.cfi_def_cfa_offset 8
 321              		.cfi_offset 3, -8
 322              		.cfi_offset 14, -4
 323              		.loc 6 140 0
 324 0002 064B     		ldr	r3, .L24
 325 0004 1B6B     		ldr	r3, [r3, #48]
 326 0006 002B     		cmp	r3, #0
 327 0008 03D1     		bne	.L22
 328              		.loc 6 140 0 is_stmt 0 discriminator 1
 329 000a 044B     		ldr	r3, .L24
 330 000c 5B6B     		ldr	r3, [r3, #52]
 331 000e 002B     		cmp	r3, #0
 332 0010 02D0     		beq	.L21
ARM GAS  /tmp/ccR2RkNc.s 			page 7


 333              	.L22:
 334              		.loc 6 141 0 is_stmt 1
 335 0012 0348     		ldr	r0, .L24+4
 336 0014 FFF7FEFF 		bl	chSysHalt
 337              	.L21:
 338              		.loc 6 143 0
 339 0018 08BD     		pop	{r3, pc}
 340              	.L25:
 341 001a 00BF     		.align	2
 342              	.L24:
 343 001c 00000000 		.word	ch
 344 0020 10000000 		.word	.LC2
 345              		.cfi_endproc
 346              	.LFE242:
 347              		.size	_dbg_check_enable, .-_dbg_check_enable
 348 0024 AFF30080 		.section	.rodata
 348      AFF30080 
 348      AFF30080 
 349 0015 000000   		.align	2
 350              	.LC3:
 351 0018 53562334 		.ascii	"SV#4\000"
 351      00
 352              		.section	.text._dbg_check_lock,"ax",%progbits
 353              		.align	2
 354              		.p2align 4,,15
 355              		.global	_dbg_check_lock
 356              		.thumb
 357              		.thumb_func
 358              		.type	_dbg_check_lock, %function
 359              	_dbg_check_lock:
 360              	.LFB243:
 361              		.loc 6 150 0
 362              		.cfi_startproc
 363              		@ args = 0, pretend = 0, frame = 0
 364              		@ frame_needed = 0, uses_anonymous_args = 0
 365 0000 08B5     		push	{r3, lr}
 366              		.cfi_def_cfa_offset 8
 367              		.cfi_offset 3, -8
 368              		.cfi_offset 14, -4
 369              		.loc 6 152 0
 370 0002 074B     		ldr	r3, .L29
 371 0004 1B6B     		ldr	r3, [r3, #48]
 372 0006 002B     		cmp	r3, #0
 373 0008 03D1     		bne	.L27
 374              		.loc 6 152 0 is_stmt 0 discriminator 1
 375 000a 054B     		ldr	r3, .L29
 376 000c 5B6B     		ldr	r3, [r3, #52]
 377 000e 002B     		cmp	r3, #0
 378 0010 02D0     		beq	.L28
 379              	.L27:
 380              		.loc 6 153 0 is_stmt 1
 381 0012 0448     		ldr	r0, .L29+4
 382 0014 FFF7FEFF 		bl	chSysHalt
 383              	.L28:
 384              		.loc 6 155 0
 385 0018 014B     		ldr	r3, .L29
 386 001a 0122     		movs	r2, #1
ARM GAS  /tmp/ccR2RkNc.s 			page 8


 387 001c 5A63     		str	r2, [r3, #52]
 388              		.loc 6 156 0
 389 001e 08BD     		pop	{r3, pc}
 390              	.L30:
 391              		.align	2
 392              	.L29:
 393 0020 00000000 		.word	ch
 394 0024 18000000 		.word	.LC3
 395              		.cfi_endproc
 396              	.LFE243:
 397              		.size	_dbg_check_lock, .-_dbg_check_lock
 398 0028 AFF30080 		.section	.rodata
 398      AFF30080 
 399 001d 000000   		.align	2
 400              	.LC4:
 401 0020 53562335 		.ascii	"SV#5\000"
 401      00
 402              		.section	.text._dbg_check_unlock,"ax",%progbits
 403              		.align	2
 404              		.p2align 4,,15
 405              		.global	_dbg_check_unlock
 406              		.thumb
 407              		.thumb_func
 408              		.type	_dbg_check_unlock, %function
 409              	_dbg_check_unlock:
 410              	.LFB244:
 411              		.loc 6 163 0
 412              		.cfi_startproc
 413              		@ args = 0, pretend = 0, frame = 0
 414              		@ frame_needed = 0, uses_anonymous_args = 0
 415 0000 08B5     		push	{r3, lr}
 416              		.cfi_def_cfa_offset 8
 417              		.cfi_offset 3, -8
 418              		.cfi_offset 14, -4
 419              		.loc 6 165 0
 420 0002 074B     		ldr	r3, .L34
 421 0004 1B6B     		ldr	r3, [r3, #48]
 422 0006 002B     		cmp	r3, #0
 423 0008 03D1     		bne	.L32
 424              		.loc 6 165 0 is_stmt 0 discriminator 1
 425 000a 054B     		ldr	r3, .L34
 426 000c 5B6B     		ldr	r3, [r3, #52]
 427 000e 002B     		cmp	r3, #0
 428 0010 02DC     		bgt	.L33
 429              	.L32:
 430              		.loc 6 166 0 is_stmt 1
 431 0012 0448     		ldr	r0, .L34+4
 432 0014 FFF7FEFF 		bl	chSysHalt
 433              	.L33:
 434              		.loc 6 168 0
 435 0018 014B     		ldr	r3, .L34
 436 001a 0022     		movs	r2, #0
 437 001c 5A63     		str	r2, [r3, #52]
 438              		.loc 6 169 0
 439 001e 08BD     		pop	{r3, pc}
 440              	.L35:
 441              		.align	2
ARM GAS  /tmp/ccR2RkNc.s 			page 9


 442              	.L34:
 443 0020 00000000 		.word	ch
 444 0024 20000000 		.word	.LC4
 445              		.cfi_endproc
 446              	.LFE244:
 447              		.size	_dbg_check_unlock, .-_dbg_check_unlock
 448 0028 AFF30080 		.section	.rodata
 448      AFF30080 
 449 0025 000000   		.align	2
 450              	.LC5:
 451 0028 53562336 		.ascii	"SV#6\000"
 451      00
 452              		.section	.text._dbg_check_lock_from_isr,"ax",%progbits
 453              		.align	2
 454              		.p2align 4,,15
 455              		.global	_dbg_check_lock_from_isr
 456              		.thumb
 457              		.thumb_func
 458              		.type	_dbg_check_lock_from_isr, %function
 459              	_dbg_check_lock_from_isr:
 460              	.LFB245:
 461              		.loc 6 176 0
 462              		.cfi_startproc
 463              		@ args = 0, pretend = 0, frame = 0
 464              		@ frame_needed = 0, uses_anonymous_args = 0
 465 0000 08B5     		push	{r3, lr}
 466              		.cfi_def_cfa_offset 8
 467              		.cfi_offset 3, -8
 468              		.cfi_offset 14, -4
 469              		.loc 6 178 0
 470 0002 074B     		ldr	r3, .L39
 471 0004 1B6B     		ldr	r3, [r3, #48]
 472 0006 002B     		cmp	r3, #0
 473 0008 03DD     		ble	.L37
 474              		.loc 6 178 0 is_stmt 0 discriminator 1
 475 000a 054B     		ldr	r3, .L39
 476 000c 5B6B     		ldr	r3, [r3, #52]
 477 000e 002B     		cmp	r3, #0
 478 0010 02D0     		beq	.L38
 479              	.L37:
 480              		.loc 6 179 0 is_stmt 1
 481 0012 0448     		ldr	r0, .L39+4
 482 0014 FFF7FEFF 		bl	chSysHalt
 483              	.L38:
 484              		.loc 6 181 0
 485 0018 014B     		ldr	r3, .L39
 486 001a 0122     		movs	r2, #1
 487 001c 5A63     		str	r2, [r3, #52]
 488              		.loc 6 182 0
 489 001e 08BD     		pop	{r3, pc}
 490              	.L40:
 491              		.align	2
 492              	.L39:
 493 0020 00000000 		.word	ch
 494 0024 28000000 		.word	.LC5
 495              		.cfi_endproc
 496              	.LFE245:
ARM GAS  /tmp/ccR2RkNc.s 			page 10


 497              		.size	_dbg_check_lock_from_isr, .-_dbg_check_lock_from_isr
 498 0028 AFF30080 		.section	.rodata
 498      AFF30080 
 499 002d 000000   		.align	2
 500              	.LC6:
 501 0030 53562337 		.ascii	"SV#7\000"
 501      00
 502              		.section	.text._dbg_check_unlock_from_isr,"ax",%progbits
 503              		.align	2
 504              		.p2align 4,,15
 505              		.global	_dbg_check_unlock_from_isr
 506              		.thumb
 507              		.thumb_func
 508              		.type	_dbg_check_unlock_from_isr, %function
 509              	_dbg_check_unlock_from_isr:
 510              	.LFB246:
 511              		.loc 6 189 0
 512              		.cfi_startproc
 513              		@ args = 0, pretend = 0, frame = 0
 514              		@ frame_needed = 0, uses_anonymous_args = 0
 515 0000 08B5     		push	{r3, lr}
 516              		.cfi_def_cfa_offset 8
 517              		.cfi_offset 3, -8
 518              		.cfi_offset 14, -4
 519              		.loc 6 191 0
 520 0002 074B     		ldr	r3, .L44
 521 0004 1B6B     		ldr	r3, [r3, #48]
 522 0006 002B     		cmp	r3, #0
 523 0008 03DD     		ble	.L42
 524              		.loc 6 191 0 is_stmt 0 discriminator 1
 525 000a 054B     		ldr	r3, .L44
 526 000c 5B6B     		ldr	r3, [r3, #52]
 527 000e 002B     		cmp	r3, #0
 528 0010 02DC     		bgt	.L43
 529              	.L42:
 530              		.loc 6 192 0 is_stmt 1
 531 0012 0448     		ldr	r0, .L44+4
 532 0014 FFF7FEFF 		bl	chSysHalt
 533              	.L43:
 534              		.loc 6 194 0
 535 0018 014B     		ldr	r3, .L44
 536 001a 0022     		movs	r2, #0
 537 001c 5A63     		str	r2, [r3, #52]
 538              		.loc 6 195 0
 539 001e 08BD     		pop	{r3, pc}
 540              	.L45:
 541              		.align	2
 542              	.L44:
 543 0020 00000000 		.word	ch
 544 0024 30000000 		.word	.LC6
 545              		.cfi_endproc
 546              	.LFE246:
 547              		.size	_dbg_check_unlock_from_isr, .-_dbg_check_unlock_from_isr
 548 0028 AFF30080 		.section	.rodata
 548      AFF30080 
 549 0035 000000   		.align	2
 550              	.LC7:
ARM GAS  /tmp/ccR2RkNc.s 			page 11


 551 0038 53562338 		.ascii	"SV#8\000"
 551      00
 552              		.section	.text._dbg_check_enter_isr,"ax",%progbits
 553              		.align	2
 554              		.p2align 4,,15
 555              		.global	_dbg_check_enter_isr
 556              		.thumb
 557              		.thumb_func
 558              		.type	_dbg_check_enter_isr, %function
 559              	_dbg_check_enter_isr:
 560              	.LFB247:
 561              		.loc 6 202 0
 562              		.cfi_startproc
 563              		@ args = 0, pretend = 0, frame = 0
 564              		@ frame_needed = 0, uses_anonymous_args = 0
 565 0000 08B5     		push	{r3, lr}
 566              		.cfi_def_cfa_offset 8
 567              		.cfi_offset 3, -8
 568              		.cfi_offset 14, -4
 569              		.loc 6 204 0
 570 0002 FFF7FEFF 		bl	port_lock_from_isr
 571              		.loc 6 205 0
 572 0006 094B     		ldr	r3, .L49
 573 0008 1B6B     		ldr	r3, [r3, #48]
 574 000a 002B     		cmp	r3, #0
 575 000c 03DB     		blt	.L47
 576              		.loc 6 205 0 is_stmt 0 discriminator 1
 577 000e 074B     		ldr	r3, .L49
 578 0010 5B6B     		ldr	r3, [r3, #52]
 579 0012 002B     		cmp	r3, #0
 580 0014 02D0     		beq	.L48
 581              	.L47:
 582              		.loc 6 206 0 is_stmt 1
 583 0016 0648     		ldr	r0, .L49+4
 584 0018 FFF7FEFF 		bl	chSysHalt
 585              	.L48:
 586              		.loc 6 208 0
 587 001c 034B     		ldr	r3, .L49
 588 001e 1B6B     		ldr	r3, [r3, #48]
 589 0020 5A1C     		adds	r2, r3, #1
 590 0022 024B     		ldr	r3, .L49
 591 0024 1A63     		str	r2, [r3, #48]
 592              		.loc 6 209 0
 593 0026 FFF7FEFF 		bl	port_unlock_from_isr
 594              		.loc 6 210 0
 595 002a 08BD     		pop	{r3, pc}
 596              	.L50:
 597              		.align	2
 598              	.L49:
 599 002c 00000000 		.word	ch
 600 0030 38000000 		.word	.LC7
 601              		.cfi_endproc
 602              	.LFE247:
 603              		.size	_dbg_check_enter_isr, .-_dbg_check_enter_isr
 604 0034 AFF30080 		.section	.rodata
 604      AFF30080 
 604      AFF30080 
ARM GAS  /tmp/ccR2RkNc.s 			page 12


 605 003d 000000   		.align	2
 606              	.LC8:
 607 0040 53562339 		.ascii	"SV#9\000"
 607      00
 608              		.section	.text._dbg_check_leave_isr,"ax",%progbits
 609              		.align	2
 610              		.p2align 4,,15
 611              		.global	_dbg_check_leave_isr
 612              		.thumb
 613              		.thumb_func
 614              		.type	_dbg_check_leave_isr, %function
 615              	_dbg_check_leave_isr:
 616              	.LFB248:
 617              		.loc 6 217 0
 618              		.cfi_startproc
 619              		@ args = 0, pretend = 0, frame = 0
 620              		@ frame_needed = 0, uses_anonymous_args = 0
 621 0000 08B5     		push	{r3, lr}
 622              		.cfi_def_cfa_offset 8
 623              		.cfi_offset 3, -8
 624              		.cfi_offset 14, -4
 625              		.loc 6 219 0
 626 0002 FFF7FEFF 		bl	port_lock_from_isr
 627              		.loc 6 220 0
 628 0006 094B     		ldr	r3, .L54
 629 0008 1B6B     		ldr	r3, [r3, #48]
 630 000a 002B     		cmp	r3, #0
 631 000c 03DD     		ble	.L52
 632              		.loc 6 220 0 is_stmt 0 discriminator 1
 633 000e 074B     		ldr	r3, .L54
 634 0010 5B6B     		ldr	r3, [r3, #52]
 635 0012 002B     		cmp	r3, #0
 636 0014 02D0     		beq	.L53
 637              	.L52:
 638              		.loc 6 221 0 is_stmt 1
 639 0016 0648     		ldr	r0, .L54+4
 640 0018 FFF7FEFF 		bl	chSysHalt
 641              	.L53:
 642              		.loc 6 223 0
 643 001c 034B     		ldr	r3, .L54
 644 001e 1B6B     		ldr	r3, [r3, #48]
 645 0020 5A1E     		subs	r2, r3, #1
 646 0022 024B     		ldr	r3, .L54
 647 0024 1A63     		str	r2, [r3, #48]
 648              		.loc 6 224 0
 649 0026 FFF7FEFF 		bl	port_unlock_from_isr
 650              		.loc 6 225 0
 651 002a 08BD     		pop	{r3, pc}
 652              	.L55:
 653              		.align	2
 654              	.L54:
 655 002c 00000000 		.word	ch
 656 0030 40000000 		.word	.LC8
 657              		.cfi_endproc
 658              	.LFE248:
 659              		.size	_dbg_check_leave_isr, .-_dbg_check_leave_isr
 660 0034 AFF30080 		.section	.rodata
ARM GAS  /tmp/ccR2RkNc.s 			page 13


 660      AFF30080 
 660      AFF30080 
 661 0045 000000   		.align	2
 662              	.LC9:
 663 0048 53562331 		.ascii	"SV#10\000"
 663      3000
 664              		.section	.text.chDbgCheckClassI,"ax",%progbits
 665              		.align	2
 666              		.p2align 4,,15
 667              		.global	chDbgCheckClassI
 668              		.thumb
 669              		.thumb_func
 670              		.type	chDbgCheckClassI, %function
 671              	chDbgCheckClassI:
 672              	.LFB249:
 673              		.loc 6 235 0
 674              		.cfi_startproc
 675              		@ args = 0, pretend = 0, frame = 0
 676              		@ frame_needed = 0, uses_anonymous_args = 0
 677 0000 08B5     		push	{r3, lr}
 678              		.cfi_def_cfa_offset 8
 679              		.cfi_offset 3, -8
 680              		.cfi_offset 14, -4
 681              		.loc 6 237 0
 682 0002 064B     		ldr	r3, .L59
 683 0004 1B6B     		ldr	r3, [r3, #48]
 684 0006 002B     		cmp	r3, #0
 685 0008 03DB     		blt	.L57
 686              		.loc 6 237 0 is_stmt 0 discriminator 1
 687 000a 044B     		ldr	r3, .L59
 688 000c 5B6B     		ldr	r3, [r3, #52]
 689 000e 002B     		cmp	r3, #0
 690 0010 02DC     		bgt	.L56
 691              	.L57:
 692              		.loc 6 238 0 is_stmt 1
 693 0012 0348     		ldr	r0, .L59+4
 694 0014 FFF7FEFF 		bl	chSysHalt
 695              	.L56:
 696              		.loc 6 240 0
 697 0018 08BD     		pop	{r3, pc}
 698              	.L60:
 699 001a 00BF     		.align	2
 700              	.L59:
 701 001c 00000000 		.word	ch
 702 0020 48000000 		.word	.LC9
 703              		.cfi_endproc
 704              	.LFE249:
 705              		.size	chDbgCheckClassI, .-chDbgCheckClassI
 706 0024 AFF30080 		.section	.rodata
 706      AFF30080 
 706      AFF30080 
 707 004e 0000     		.align	2
 708              	.LC10:
 709 0050 53562331 		.ascii	"SV#11\000"
 709      3100
 710 0056 0000     		.section	.text.chDbgCheckClassS,"ax",%progbits
 711              		.align	2
ARM GAS  /tmp/ccR2RkNc.s 			page 14


 712              		.p2align 4,,15
 713              		.global	chDbgCheckClassS
 714              		.thumb
 715              		.thumb_func
 716              		.type	chDbgCheckClassS, %function
 717              	chDbgCheckClassS:
 718              	.LFB250:
 719              		.loc 6 250 0
 720              		.cfi_startproc
 721              		@ args = 0, pretend = 0, frame = 0
 722              		@ frame_needed = 0, uses_anonymous_args = 0
 723 0000 08B5     		push	{r3, lr}
 724              		.cfi_def_cfa_offset 8
 725              		.cfi_offset 3, -8
 726              		.cfi_offset 14, -4
 727              		.loc 6 252 0
 728 0002 064B     		ldr	r3, .L64
 729 0004 1B6B     		ldr	r3, [r3, #48]
 730 0006 002B     		cmp	r3, #0
 731 0008 03D1     		bne	.L62
 732              		.loc 6 252 0 is_stmt 0 discriminator 1
 733 000a 044B     		ldr	r3, .L64
 734 000c 5B6B     		ldr	r3, [r3, #52]
 735 000e 002B     		cmp	r3, #0
 736 0010 02DC     		bgt	.L61
 737              	.L62:
 738              		.loc 6 253 0 is_stmt 1
 739 0012 0348     		ldr	r0, .L64+4
 740 0014 FFF7FEFF 		bl	chSysHalt
 741              	.L61:
 742              		.loc 6 255 0
 743 0018 08BD     		pop	{r3, pc}
 744              	.L65:
 745 001a 00BF     		.align	2
 746              	.L64:
 747 001c 00000000 		.word	ch
 748 0020 50000000 		.word	.LC10
 749              		.cfi_endproc
 750              	.LFE250:
 751              		.size	chDbgCheckClassS, .-chDbgCheckClassS
 752 0024 AFF30080 		.section	.text._dbg_trace_init,"ax",%progbits
 752      AFF30080 
 752      AFF30080 
 753              		.align	2
 754              		.p2align 4,,15
 755              		.global	_dbg_trace_init
 756              		.thumb
 757              		.thumb_func
 758              		.type	_dbg_trace_init, %function
 759              	_dbg_trace_init:
 760              	.LFB251:
 761              		.loc 6 264 0
 762              		.cfi_startproc
 763              		@ args = 0, pretend = 0, frame = 0
 764              		@ frame_needed = 0, uses_anonymous_args = 0
 765              		@ link register save eliminated.
 766              		.loc 6 266 0
ARM GAS  /tmp/ccR2RkNc.s 			page 15


 767 0000 034B     		ldr	r3, .L67
 768 0002 4022     		movs	r2, #64
 769 0004 9A63     		str	r2, [r3, #56]
 770              		.loc 6 267 0
 771 0006 024B     		ldr	r3, .L67
 772 0008 024A     		ldr	r2, .L67+4
 773 000a DA63     		str	r2, [r3, #60]
 774              		.loc 6 268 0
 775 000c 7047     		bx	lr
 776              	.L68:
 777 000e 00BF     		.align	2
 778              	.L67:
 779 0010 00000000 		.word	ch
 780 0014 40000000 		.word	ch+64
 781              		.cfi_endproc
 782              	.LFE251:
 783              		.size	_dbg_trace_init, .-_dbg_trace_init
 784 0018 AFF30080 		.section	.text._dbg_trace,"ax",%progbits
 784      AFF30080 
 785              		.align	2
 786              		.p2align 4,,15
 787              		.global	_dbg_trace
 788              		.thumb
 789              		.thumb_func
 790              		.type	_dbg_trace, %function
 791              	_dbg_trace:
 792              	.LFB252:
 793              		.loc 6 277 0
 794              		.cfi_startproc
 795              		@ args = 0, pretend = 0, frame = 8
 796              		@ frame_needed = 0, uses_anonymous_args = 0
 797 0000 10B5     		push	{r4, lr}
 798              		.cfi_def_cfa_offset 8
 799              		.cfi_offset 4, -8
 800              		.cfi_offset 14, -4
 801 0002 82B0     		sub	sp, sp, #8
 802              		.cfi_def_cfa_offset 16
 803 0004 0190     		str	r0, [sp, #4]
 804              		.loc 6 279 0
 805 0006 134B     		ldr	r3, .L71
 806 0008 DC6B     		ldr	r4, [r3, #60]
 807 000a FFF7FEFF 		bl	chVTGetSystemTimeX
 808 000e 0346     		mov	r3, r0
 809 0010 2360     		str	r3, [r4]
 810              		.loc 6 280 0
 811 0012 104B     		ldr	r3, .L71
 812 0014 DB6B     		ldr	r3, [r3, #60]
 813 0016 0F4A     		ldr	r2, .L71
 814 0018 9269     		ldr	r2, [r2, #24]
 815 001a 5A60     		str	r2, [r3, #4]
 816              		.loc 6 281 0
 817 001c 0D4B     		ldr	r3, .L71
 818 001e DB6B     		ldr	r3, [r3, #60]
 819 0020 019A     		ldr	r2, [sp, #4]
 820 0022 526A     		ldr	r2, [r2, #36]
 821 0024 9A60     		str	r2, [r3, #8]
 822              		.loc 6 282 0
ARM GAS  /tmp/ccR2RkNc.s 			page 16


 823 0026 0B4B     		ldr	r3, .L71
 824 0028 DB6B     		ldr	r3, [r3, #60]
 825 002a 019A     		ldr	r2, [sp, #4]
 826 002c 92F82020 		ldrb	r2, [r2, #32]	@ zero_extendqisi2
 827 0030 1A73     		strb	r2, [r3, #12]
 828              		.loc 6 283 0
 829 0032 084B     		ldr	r3, .L71
 830 0034 DB6B     		ldr	r3, [r3, #60]
 831 0036 03F11002 		add	r2, r3, #16
 832 003a 064B     		ldr	r3, .L71
 833 003c DA63     		str	r2, [r3, #60]
 834 003e 054B     		ldr	r3, .L71
 835 0040 DA6B     		ldr	r2, [r3, #60]
 836 0042 054B     		ldr	r3, .L71+4
 837 0044 9A42     		cmp	r2, r3
 838 0046 02D3     		bcc	.L69
 839              		.loc 6 285 0
 840 0048 024B     		ldr	r3, .L71
 841 004a 044A     		ldr	r2, .L71+8
 842 004c DA63     		str	r2, [r3, #60]
 843              	.L69:
 844              		.loc 6 287 0
 845 004e 02B0     		add	sp, sp, #8
 846              		@ sp needed
 847 0050 10BD     		pop	{r4, pc}
 848              	.L72:
 849 0052 00BF     		.align	2
 850              	.L71:
 851 0054 00000000 		.word	ch
 852 0058 40040000 		.word	ch+1088
 853 005c 40000000 		.word	ch+64
 854              		.cfi_endproc
 855              	.LFE252:
 856              		.size	_dbg_trace, .-_dbg_trace
 857              		.text
 858              	.Letext0:
 859              		.file 7 "/usr/include/newlib/machine/_default_types.h"
 860              		.file 8 "/usr/include/newlib/stdint.h"
 861              		.file 9 "/home/efe/ChibiOS/os/rt/ports/ARMCMx/compilers/GCC/chtypes.h"
 862              		.file 10 "/home/efe/ChibiOS/os/rt/include/chsystypes.h"
 863              		.file 11 "/home/efe/ChibiOS/os/rt/include/chschd.h"
 864              		.file 12 "/home/efe/ChibiOS/os/rt/ports/ARMCMx/chcore.h"
 865              		.file 13 "/home/efe/ChibiOS/os/hal/ports/STM32/LLD/TIMv1/stm32_tim.h"
 866              		.file 14 "/home/efe/ChibiOS/os/rt/include/chdebug.h"
 867              		.file 15 "/home/efe/ChibiOS/os/rt/include/chtm.h"
 868              		.file 16 "/home/efe/ChibiOS/os/rt/include/chstats.h"
 869              		.file 17 "/home/efe/ChibiOS/os/rt/include/chsem.h"
 870              		.file 18 "/home/efe/ChibiOS/os/rt/include/chmtx.h"
 871              		.file 19 "/home/efe/ChibiOS/os/ext/CMSIS/include/core_cm4.h"
 872              		.section	.debug_info,"",%progbits
 873              	.Ldebug_info0:
 874 0000 D50A0000 		.4byte	0xad5
 875 0004 0400     		.2byte	0x4
 876 0006 00000000 		.4byte	.Ldebug_abbrev0
 877 000a 04       		.byte	0x4
 878 000b 01       		.uleb128 0x1
 879 000c A5010000 		.4byte	.LASF158
ARM GAS  /tmp/ccR2RkNc.s 			page 17


 880 0010 01       		.byte	0x1
 881 0011 3D030000 		.4byte	.LASF159
 882 0015 00000000 		.4byte	.Ldebug_ranges0+0
 883 0019 00000000 		.4byte	0
 884 001d 00000000 		.4byte	.Ldebug_line0
 885 0021 02       		.uleb128 0x2
 886 0022 04       		.byte	0x4
 887 0023 05       		.byte	0x5
 888 0024 696E7400 		.ascii	"int\000"
 889 0028 03       		.uleb128 0x3
 890 0029 04       		.byte	0x4
 891 002a 07       		.byte	0x7
 892 002b FB020000 		.4byte	.LASF0
 893 002f 03       		.uleb128 0x3
 894 0030 01       		.byte	0x1
 895 0031 06       		.byte	0x6
 896 0032 2F010000 		.4byte	.LASF1
 897 0036 04       		.uleb128 0x4
 898 0037 3C000000 		.4byte	.LASF5
 899 003b 07       		.byte	0x7
 900 003c 1D       		.byte	0x1d
 901 003d 41000000 		.4byte	0x41
 902 0041 03       		.uleb128 0x3
 903 0042 01       		.byte	0x1
 904 0043 08       		.byte	0x8
 905 0044 40050000 		.4byte	.LASF2
 906 0048 03       		.uleb128 0x3
 907 0049 02       		.byte	0x2
 908 004a 05       		.byte	0x5
 909 004b 68050000 		.4byte	.LASF3
 910 004f 03       		.uleb128 0x3
 911 0050 02       		.byte	0x2
 912 0051 07       		.byte	0x7
 913 0052 65020000 		.4byte	.LASF4
 914 0056 04       		.uleb128 0x4
 915 0057 DB000000 		.4byte	.LASF6
 916 005b 07       		.byte	0x7
 917 005c 3F       		.byte	0x3f
 918 005d 61000000 		.4byte	0x61
 919 0061 03       		.uleb128 0x3
 920 0062 04       		.byte	0x4
 921 0063 05       		.byte	0x5
 922 0064 7A010000 		.4byte	.LASF7
 923 0068 04       		.uleb128 0x4
 924 0069 7D060000 		.4byte	.LASF8
 925 006d 07       		.byte	0x7
 926 006e 41       		.byte	0x41
 927 006f 73000000 		.4byte	0x73
 928 0073 03       		.uleb128 0x3
 929 0074 04       		.byte	0x4
 930 0075 07       		.byte	0x7
 931 0076 19060000 		.4byte	.LASF9
 932 007a 03       		.uleb128 0x3
 933 007b 08       		.byte	0x8
 934 007c 05       		.byte	0x5
 935 007d 97010000 		.4byte	.LASF10
 936 0081 04       		.uleb128 0x4
ARM GAS  /tmp/ccR2RkNc.s 			page 18


 937 0082 D5040000 		.4byte	.LASF11
 938 0086 07       		.byte	0x7
 939 0087 5B       		.byte	0x5b
 940 0088 8C000000 		.4byte	0x8c
 941 008c 03       		.uleb128 0x3
 942 008d 08       		.byte	0x8
 943 008e 07       		.byte	0x7
 944 008f 95000000 		.4byte	.LASF12
 945 0093 04       		.uleb128 0x4
 946 0094 39070000 		.4byte	.LASF13
 947 0098 08       		.byte	0x8
 948 0099 2A       		.byte	0x2a
 949 009a 36000000 		.4byte	0x36
 950 009e 04       		.uleb128 0x4
 951 009f 38050000 		.4byte	.LASF14
 952 00a3 08       		.byte	0x8
 953 00a4 41       		.byte	0x41
 954 00a5 56000000 		.4byte	0x56
 955 00a9 04       		.uleb128 0x4
 956 00aa E8050000 		.4byte	.LASF15
 957 00ae 08       		.byte	0x8
 958 00af 42       		.byte	0x42
 959 00b0 68000000 		.4byte	0x68
 960 00b4 04       		.uleb128 0x4
 961 00b5 26000000 		.4byte	.LASF16
 962 00b9 08       		.byte	0x8
 963 00ba 4E       		.byte	0x4e
 964 00bb 81000000 		.4byte	0x81
 965 00bf 05       		.uleb128 0x5
 966 00c0 9E000000 		.4byte	0x9e
 967 00c4 05       		.uleb128 0x5
 968 00c5 A9000000 		.4byte	0xa9
 969 00c9 04       		.uleb128 0x4
 970 00ca CE060000 		.4byte	.LASF17
 971 00ce 09       		.byte	0x9
 972 00cf 45       		.byte	0x45
 973 00d0 A9000000 		.4byte	0xa9
 974 00d4 04       		.uleb128 0x4
 975 00d5 0D010000 		.4byte	.LASF18
 976 00d9 09       		.byte	0x9
 977 00da 46       		.byte	0x46
 978 00db B4000000 		.4byte	0xb4
 979 00df 04       		.uleb128 0x4
 980 00e0 70070000 		.4byte	.LASF19
 981 00e4 09       		.byte	0x9
 982 00e5 48       		.byte	0x48
 983 00e6 93000000 		.4byte	0x93
 984 00ea 04       		.uleb128 0x4
 985 00eb 83010000 		.4byte	.LASF20
 986 00ef 09       		.byte	0x9
 987 00f0 49       		.byte	0x49
 988 00f1 93000000 		.4byte	0x93
 989 00f5 04       		.uleb128 0x4
 990 00f6 EB040000 		.4byte	.LASF21
 991 00fa 09       		.byte	0x9
 992 00fb 4A       		.byte	0x4a
 993 00fc 93000000 		.4byte	0x93
ARM GAS  /tmp/ccR2RkNc.s 			page 19


 994 0100 04       		.uleb128 0x4
 995 0101 27050000 		.4byte	.LASF22
 996 0105 09       		.byte	0x9
 997 0106 4C       		.byte	0x4c
 998 0107 A9000000 		.4byte	0xa9
 999 010b 04       		.uleb128 0x4
 1000 010c 87030000 		.4byte	.LASF23
 1001 0110 09       		.byte	0x9
 1002 0111 4D       		.byte	0x4d
 1003 0112 9E000000 		.4byte	0x9e
 1004 0116 04       		.uleb128 0x4
 1005 0117 EC030000 		.4byte	.LASF24
 1006 011b 09       		.byte	0x9
 1007 011c 4F       		.byte	0x4f
 1008 011d A9000000 		.4byte	0xa9
 1009 0121 04       		.uleb128 0x4
 1010 0122 D7020000 		.4byte	.LASF25
 1011 0126 09       		.byte	0x9
 1012 0127 51       		.byte	0x51
 1013 0128 9E000000 		.4byte	0x9e
 1014 012c 04       		.uleb128 0x4
 1015 012d 92030000 		.4byte	.LASF26
 1016 0131 09       		.byte	0x9
 1017 0132 52       		.byte	0x52
 1018 0133 A9000000 		.4byte	0xa9
 1019 0137 04       		.uleb128 0x4
 1020 0138 5F060000 		.4byte	.LASF27
 1021 013c 0A       		.byte	0xa
 1022 013d 33       		.byte	0x33
 1023 013e A9000000 		.4byte	0xa9
 1024 0142 04       		.uleb128 0x4
 1025 0143 4A060000 		.4byte	.LASF28
 1026 0147 0A       		.byte	0xa
 1027 0148 3F       		.byte	0x3f
 1028 0149 4D010000 		.4byte	0x14d
 1029 014d 06       		.uleb128 0x6
 1030 014e 7D030000 		.4byte	.LASF50
 1031 0152 60       		.byte	0x60
 1032 0153 0B       		.byte	0xb
 1033 0154 C2       		.byte	0xc2
 1034 0155 53020000 		.4byte	0x253
 1035 0159 07       		.uleb128 0x7
 1036 015a 90050000 		.4byte	.LASF29
 1037 015e 0B       		.byte	0xb
 1038 015f C3       		.byte	0xc3
 1039 0160 5E020000 		.4byte	0x25e
 1040 0164 00       		.byte	0
 1041 0165 07       		.uleb128 0x7
 1042 0166 20050000 		.4byte	.LASF30
 1043 016a 0B       		.byte	0xb
 1044 016b C5       		.byte	0xc5
 1045 016c 5E020000 		.4byte	0x25e
 1046 0170 04       		.byte	0x4
 1047 0171 07       		.uleb128 0x7
 1048 0172 16010000 		.4byte	.LASF31
 1049 0176 0B       		.byte	0xb
 1050 0177 C7       		.byte	0xc7
ARM GAS  /tmp/ccR2RkNc.s 			page 20


 1051 0178 00010000 		.4byte	0x100
 1052 017c 08       		.byte	0x8
 1053 017d 07       		.uleb128 0x7
 1054 017e A8070000 		.4byte	.LASF32
 1055 0182 0B       		.byte	0xb
 1056 0183 C8       		.byte	0xc8
 1057 0184 E7040000 		.4byte	0x4e7
 1058 0188 0C       		.byte	0xc
 1059 0189 07       		.uleb128 0x7
 1060 018a 55020000 		.4byte	.LASF33
 1061 018e 0B       		.byte	0xb
 1062 018f CA       		.byte	0xca
 1063 0190 5E020000 		.4byte	0x25e
 1064 0194 10       		.byte	0x10
 1065 0195 07       		.uleb128 0x7
 1066 0196 7A050000 		.4byte	.LASF34
 1067 019a 0B       		.byte	0xb
 1068 019b CB       		.byte	0xcb
 1069 019c 5E020000 		.4byte	0x25e
 1070 01a0 14       		.byte	0x14
 1071 01a1 07       		.uleb128 0x7
 1072 01a2 5A070000 		.4byte	.LASF35
 1073 01a6 0B       		.byte	0xb
 1074 01a7 D2       		.byte	0xd2
 1075 01a8 AD080000 		.4byte	0x8ad
 1076 01ac 18       		.byte	0x18
 1077 01ad 07       		.uleb128 0x7
 1078 01ae F0020000 		.4byte	.LASF36
 1079 01b2 0B       		.byte	0xb
 1080 01b3 D8       		.byte	0xd8
 1081 01b4 BF080000 		.4byte	0x8bf
 1082 01b8 1C       		.byte	0x1c
 1083 01b9 07       		.uleb128 0x7
 1084 01ba 72050000 		.4byte	.LASF37
 1085 01be 0B       		.byte	0xb
 1086 01bf DD       		.byte	0xdd
 1087 01c0 EA000000 		.4byte	0xea
 1088 01c4 20       		.byte	0x20
 1089 01c5 07       		.uleb128 0x7
 1090 01c6 97050000 		.4byte	.LASF38
 1091 01ca 0B       		.byte	0xb
 1092 01cb E1       		.byte	0xe1
 1093 01cc DF000000 		.4byte	0xdf
 1094 01d0 21       		.byte	0x21
 1095 01d1 07       		.uleb128 0x7
 1096 01d2 24070000 		.4byte	.LASF39
 1097 01d6 0B       		.byte	0xb
 1098 01d7 E6       		.byte	0xe6
 1099 01d8 F5000000 		.4byte	0xf5
 1100 01dc 22       		.byte	0x22
 1101 01dd 08       		.uleb128 0x8
 1102 01de 705F7500 		.ascii	"p_u\000"
 1103 01e2 0B       		.byte	0xb
 1104 01e3 3101     		.2byte	0x131
 1105 01e5 E8070000 		.4byte	0x7e8
 1106 01e9 24       		.byte	0x24
 1107 01ea 09       		.uleb128 0x9
ARM GAS  /tmp/ccR2RkNc.s 			page 21


 1108 01eb 16040000 		.4byte	.LASF40
 1109 01ef 0B       		.byte	0xb
 1110 01f0 3601     		.2byte	0x136
 1111 01f2 64020000 		.4byte	0x264
 1112 01f6 28       		.byte	0x28
 1113 01f7 09       		.uleb128 0x9
 1114 01f8 2C030000 		.4byte	.LASF41
 1115 01fc 0B       		.byte	0xb
 1116 01fd 3C01     		.2byte	0x13c
 1117 01ff 88020000 		.4byte	0x288
 1118 0203 2C       		.byte	0x2c
 1119 0204 09       		.uleb128 0x9
 1120 0205 85070000 		.4byte	.LASF42
 1121 0209 0B       		.byte	0xb
 1122 020a 4001     		.2byte	0x140
 1123 020c 0B010000 		.4byte	0x10b
 1124 0210 34       		.byte	0x34
 1125 0211 09       		.uleb128 0x9
 1126 0212 CA050000 		.4byte	.LASF43
 1127 0216 0B       		.byte	0xb
 1128 0217 4601     		.2byte	0x146
 1129 0219 16010000 		.4byte	0x116
 1130 021d 38       		.byte	0x38
 1131 021e 09       		.uleb128 0x9
 1132 021f 5E050000 		.4byte	.LASF44
 1133 0223 0B       		.byte	0xb
 1134 0224 4D01     		.2byte	0x14d
 1135 0226 A7080000 		.4byte	0x8a7
 1136 022a 3C       		.byte	0x3c
 1137 022b 09       		.uleb128 0x9
 1138 022c 69060000 		.4byte	.LASF45
 1139 0230 0B       		.byte	0xb
 1140 0231 5101     		.2byte	0x151
 1141 0233 00010000 		.4byte	0x100
 1142 0237 40       		.byte	0x40
 1143 0238 09       		.uleb128 0x9
 1144 0239 88020000 		.4byte	.LASF46
 1145 023d 0B       		.byte	0xb
 1146 023e 5801     		.2byte	0x158
 1147 0240 3B030000 		.4byte	0x33b
 1148 0244 44       		.byte	0x44
 1149 0245 09       		.uleb128 0x9
 1150 0246 9F050000 		.4byte	.LASF47
 1151 024a 0B       		.byte	0xb
 1152 024b 5E01     		.2byte	0x15e
 1153 024d 99070000 		.4byte	0x799
 1154 0251 48       		.byte	0x48
 1155 0252 00       		.byte	0
 1156 0253 04       		.uleb128 0x4
 1157 0254 29040000 		.4byte	.LASF48
 1158 0258 0A       		.byte	0xa
 1159 0259 44       		.byte	0x44
 1160 025a 5E020000 		.4byte	0x25e
 1161 025e 0A       		.uleb128 0xa
 1162 025f 04       		.byte	0x4
 1163 0260 42010000 		.4byte	0x142
 1164 0264 04       		.uleb128 0x4
ARM GAS  /tmp/ccR2RkNc.s 			page 22


 1165 0265 61070000 		.4byte	.LASF49
 1166 0269 0A       		.byte	0xa
 1167 026a 49       		.byte	0x49
 1168 026b 6F020000 		.4byte	0x26f
 1169 026f 06       		.uleb128 0x6
 1170 0270 09060000 		.4byte	.LASF51
 1171 0274 04       		.byte	0x4
 1172 0275 0B       		.byte	0xb
 1173 0276 B0       		.byte	0xb0
 1174 0277 88020000 		.4byte	0x288
 1175 027b 07       		.uleb128 0x7
 1176 027c 90050000 		.4byte	.LASF29
 1177 0280 0B       		.byte	0xb
 1178 0281 B1       		.byte	0xb1
 1179 0282 5E020000 		.4byte	0x25e
 1180 0286 00       		.byte	0
 1181 0287 00       		.byte	0
 1182 0288 04       		.uleb128 0x4
 1183 0289 0B070000 		.4byte	.LASF52
 1184 028d 0A       		.byte	0xa
 1185 028e 50       		.byte	0x50
 1186 028f 93020000 		.4byte	0x293
 1187 0293 06       		.uleb128 0x6
 1188 0294 52000000 		.4byte	.LASF53
 1189 0298 08       		.byte	0x8
 1190 0299 0B       		.byte	0xb
 1191 029a B7       		.byte	0xb7
 1192 029b B8020000 		.4byte	0x2b8
 1193 029f 07       		.uleb128 0x7
 1194 02a0 90050000 		.4byte	.LASF29
 1195 02a4 0B       		.byte	0xb
 1196 02a5 B8       		.byte	0xb8
 1197 02a6 5E020000 		.4byte	0x25e
 1198 02aa 00       		.byte	0
 1199 02ab 07       		.uleb128 0x7
 1200 02ac 20050000 		.4byte	.LASF30
 1201 02b0 0B       		.byte	0xb
 1202 02b1 B9       		.byte	0xb9
 1203 02b2 5E020000 		.4byte	0x25e
 1204 02b6 04       		.byte	0x4
 1205 02b7 00       		.byte	0
 1206 02b8 04       		.uleb128 0x4
 1207 02b9 07000000 		.4byte	.LASF54
 1208 02bd 0A       		.byte	0xa
 1209 02be 57       		.byte	0x57
 1210 02bf C3020000 		.4byte	0x2c3
 1211 02c3 0B       		.uleb128 0xb
 1212 02c4 DE030000 		.4byte	.LASF55
 1213 02c8 1C       		.byte	0x1c
 1214 02c9 0B       		.byte	0xb
 1215 02ca 9001     		.2byte	0x190
 1216 02cc 1F030000 		.4byte	0x31f
 1217 02d0 09       		.uleb128 0x9
 1218 02d1 F8050000 		.4byte	.LASF56
 1219 02d5 0B       		.byte	0xb
 1220 02d6 9101     		.2byte	0x191
 1221 02d8 88020000 		.4byte	0x288
ARM GAS  /tmp/ccR2RkNc.s 			page 23


 1222 02dc 00       		.byte	0
 1223 02dd 09       		.uleb128 0x9
 1224 02de 82050000 		.4byte	.LASF57
 1225 02e2 0B       		.byte	0xb
 1226 02e3 9201     		.2byte	0x192
 1227 02e5 00010000 		.4byte	0x100
 1228 02e9 08       		.byte	0x8
 1229 02ea 09       		.uleb128 0x9
 1230 02eb 93040000 		.4byte	.LASF58
 1231 02ef 0B       		.byte	0xb
 1232 02f0 9401     		.2byte	0x194
 1233 02f2 E7040000 		.4byte	0x4e7
 1234 02f6 0C       		.byte	0xc
 1235 02f7 09       		.uleb128 0x9
 1236 02f8 80020000 		.4byte	.LASF59
 1237 02fc 0B       		.byte	0xb
 1238 02fd 9701     		.2byte	0x197
 1239 02ff 5E020000 		.4byte	0x25e
 1240 0303 10       		.byte	0x10
 1241 0304 09       		.uleb128 0x9
 1242 0305 B4040000 		.4byte	.LASF60
 1243 0309 0B       		.byte	0xb
 1244 030a 9801     		.2byte	0x198
 1245 030c 5E020000 		.4byte	0x25e
 1246 0310 14       		.byte	0x14
 1247 0311 09       		.uleb128 0x9
 1248 0312 AA040000 		.4byte	.LASF61
 1249 0316 0B       		.byte	0xb
 1250 0317 9B01     		.2byte	0x19b
 1251 0319 5E020000 		.4byte	0x25e
 1252 031d 18       		.byte	0x18
 1253 031e 00       		.byte	0
 1254 031f 04       		.uleb128 0x4
 1255 0320 74060000 		.4byte	.LASF62
 1256 0324 0A       		.byte	0xa
 1257 0325 5C       		.byte	0x5c
 1258 0326 2A030000 		.4byte	0x32a
 1259 032a 0A       		.uleb128 0xa
 1260 032b 04       		.byte	0x4
 1261 032c 30030000 		.4byte	0x330
 1262 0330 0C       		.uleb128 0xc
 1263 0331 3B030000 		.4byte	0x33b
 1264 0335 0D       		.uleb128 0xd
 1265 0336 3B030000 		.4byte	0x33b
 1266 033a 00       		.byte	0
 1267 033b 0E       		.uleb128 0xe
 1268 033c 04       		.byte	0x4
 1269 033d 04       		.uleb128 0x4
 1270 033e 10050000 		.4byte	.LASF63
 1271 0342 0A       		.byte	0xa
 1272 0343 61       		.byte	0x61
 1273 0344 48030000 		.4byte	0x348
 1274 0348 0B       		.uleb128 0xb
 1275 0349 A7050000 		.4byte	.LASF64
 1276 034d 14       		.byte	0x14
 1277 034e 0B       		.byte	0xb
 1278 034f 6B01     		.2byte	0x16b
ARM GAS  /tmp/ccR2RkNc.s 			page 24


 1279 0351 97030000 		.4byte	0x397
 1280 0355 09       		.uleb128 0x9
 1281 0356 08030000 		.4byte	.LASF65
 1282 035a 0B       		.byte	0xb
 1283 035b 6C01     		.2byte	0x16c
 1284 035d C5080000 		.4byte	0x8c5
 1285 0361 00       		.byte	0
 1286 0362 09       		.uleb128 0x9
 1287 0363 99020000 		.4byte	.LASF66
 1288 0367 0B       		.byte	0xb
 1289 0368 6D01     		.2byte	0x16d
 1290 036a C5080000 		.4byte	0x8c5
 1291 036e 04       		.byte	0x4
 1292 036f 09       		.uleb128 0x9
 1293 0370 00060000 		.4byte	.LASF67
 1294 0374 0B       		.byte	0xb
 1295 0375 6E01     		.2byte	0x16e
 1296 0377 37010000 		.4byte	0x137
 1297 037b 08       		.byte	0x8
 1298 037c 09       		.uleb128 0x9
 1299 037d AE070000 		.4byte	.LASF68
 1300 0381 0B       		.byte	0xb
 1301 0382 6F01     		.2byte	0x16f
 1302 0384 1F030000 		.4byte	0x31f
 1303 0388 0C       		.byte	0xc
 1304 0389 09       		.uleb128 0x9
 1305 038a E9060000 		.4byte	.LASF69
 1306 038e 0B       		.byte	0xb
 1307 038f 7101     		.2byte	0x171
 1308 0391 3B030000 		.4byte	0x33b
 1309 0395 10       		.byte	0x10
 1310 0396 00       		.byte	0
 1311 0397 04       		.uleb128 0x4
 1312 0398 E5000000 		.4byte	.LASF70
 1313 039c 0A       		.byte	0xa
 1314 039d 66       		.byte	0x66
 1315 039e A2030000 		.4byte	0x3a2
 1316 03a2 0B       		.uleb128 0xb
 1317 03a3 4C040000 		.4byte	.LASF71
 1318 03a7 10       		.byte	0x10
 1319 03a8 0B       		.byte	0xb
 1320 03a9 7B01     		.2byte	0x17b
 1321 03ab E4030000 		.4byte	0x3e4
 1322 03af 09       		.uleb128 0x9
 1323 03b0 08030000 		.4byte	.LASF65
 1324 03b4 0B       		.byte	0xb
 1325 03b5 7C01     		.2byte	0x17c
 1326 03b7 C5080000 		.4byte	0x8c5
 1327 03bb 00       		.byte	0
 1328 03bc 09       		.uleb128 0x9
 1329 03bd 99020000 		.4byte	.LASF66
 1330 03c1 0B       		.byte	0xb
 1331 03c2 7E01     		.2byte	0x17e
 1332 03c4 C5080000 		.4byte	0x8c5
 1333 03c8 04       		.byte	0x4
 1334 03c9 09       		.uleb128 0x9
 1335 03ca 00060000 		.4byte	.LASF67
ARM GAS  /tmp/ccR2RkNc.s 			page 25


 1336 03ce 0B       		.byte	0xb
 1337 03cf 8001     		.2byte	0x180
 1338 03d1 37010000 		.4byte	0x137
 1339 03d5 08       		.byte	0x8
 1340 03d6 09       		.uleb128 0x9
 1341 03d7 72040000 		.4byte	.LASF72
 1342 03db 0B       		.byte	0xb
 1343 03dc 8801     		.2byte	0x188
 1344 03de 37010000 		.4byte	0x137
 1345 03e2 0C       		.byte	0xc
 1346 03e3 00       		.byte	0
 1347 03e4 04       		.uleb128 0x4
 1348 03e5 63000000 		.4byte	.LASF73
 1349 03e9 0A       		.byte	0xa
 1350 03ea 6B       		.byte	0x6b
 1351 03eb EF030000 		.4byte	0x3ef
 1352 03ef 0F       		.uleb128 0xf
 1353 03f0 A1020000 		.4byte	.LASF74
 1354 03f4 1404     		.2byte	0x414
 1355 03f6 0B       		.byte	0xb
 1356 03f7 A201     		.2byte	0x1a2
 1357 03f9 32040000 		.4byte	0x432
 1358 03fd 09       		.uleb128 0x9
 1359 03fe 96060000 		.4byte	.LASF75
 1360 0402 0B       		.byte	0xb
 1361 0403 AA01     		.2byte	0x1aa
 1362 0405 CB080000 		.4byte	0x8cb
 1363 0409 00       		.byte	0
 1364 040a 09       		.uleb128 0x9
 1365 040b 2B070000 		.4byte	.LASF76
 1366 040f 0B       		.byte	0xb
 1367 0410 AF01     		.2byte	0x1af
 1368 0412 21010000 		.4byte	0x121
 1369 0416 04       		.byte	0x4
 1370 0417 09       		.uleb128 0x9
 1371 0418 BF020000 		.4byte	.LASF77
 1372 041c 0B       		.byte	0xb
 1373 041d B301     		.2byte	0x1b3
 1374 041f 21010000 		.4byte	0x121
 1375 0423 08       		.byte	0x8
 1376 0424 09       		.uleb128 0x9
 1377 0425 78070000 		.4byte	.LASF78
 1378 0429 0B       		.byte	0xb
 1379 042a B901     		.2byte	0x1b9
 1380 042c 2B070000 		.4byte	0x72b
 1381 0430 0C       		.byte	0xc
 1382 0431 00       		.byte	0
 1383 0432 04       		.uleb128 0x4
 1384 0433 AA030000 		.4byte	.LASF79
 1385 0437 0A       		.byte	0xa
 1386 0438 70       		.byte	0x70
 1387 0439 3D040000 		.4byte	0x43d
 1388 043d 0F       		.uleb128 0xf
 1389 043e 70010000 		.4byte	.LASF80
 1390 0442 D805     		.2byte	0x5d8
 1391 0444 0B       		.byte	0xb
 1392 0445 C201     		.2byte	0x1c2
ARM GAS  /tmp/ccR2RkNc.s 			page 26


 1393 0447 AA040000 		.4byte	0x4aa
 1394 044b 09       		.uleb128 0x9
 1395 044c 33070000 		.4byte	.LASF81
 1396 0450 0B       		.byte	0xb
 1397 0451 C601     		.2byte	0x1c6
 1398 0453 B8020000 		.4byte	0x2b8
 1399 0457 00       		.byte	0
 1400 0458 09       		.uleb128 0x9
 1401 0459 4B010000 		.4byte	.LASF82
 1402 045d 0B       		.byte	0xb
 1403 045e CA01     		.2byte	0x1ca
 1404 0460 97030000 		.4byte	0x397
 1405 0464 1C       		.byte	0x1c
 1406 0465 08       		.uleb128 0x8
 1407 0466 64626700 		.ascii	"dbg\000"
 1408 046a 0B       		.byte	0xb
 1409 046b CE01     		.2byte	0x1ce
 1410 046d E4030000 		.4byte	0x3e4
 1411 0471 2C       		.byte	0x2c
 1412 0472 10       		.uleb128 0x10
 1413 0473 D0000000 		.4byte	.LASF83
 1414 0477 0B       		.byte	0xb
 1415 0478 D201     		.2byte	0x1d2
 1416 047a 42010000 		.4byte	0x142
 1417 047e 4004     		.2byte	0x440
 1418 0480 11       		.uleb128 0x11
 1419 0481 746D00   		.ascii	"tm\000"
 1420 0484 0B       		.byte	0xb
 1421 0485 D701     		.2byte	0x1d7
 1422 0487 4B070000 		.4byte	0x74b
 1423 048b A004     		.2byte	0x4a0
 1424 048d 10       		.uleb128 0x10
 1425 048e 2F000000 		.4byte	.LASF84
 1426 0492 0B       		.byte	0xb
 1427 0493 DD01     		.2byte	0x1dd
 1428 0495 DD070000 		.4byte	0x7dd
 1429 0499 A804     		.2byte	0x4a8
 1430 049b 10       		.uleb128 0x10
 1431 049c C8020000 		.4byte	.LASF85
 1432 04a0 0B       		.byte	0xb
 1433 04a1 E301     		.2byte	0x1e3
 1434 04a3 D0080000 		.4byte	0x8d0
 1435 04a7 E004     		.2byte	0x4e0
 1436 04a9 00       		.byte	0
 1437 04aa 03       		.uleb128 0x3
 1438 04ab 04       		.byte	0x4
 1439 04ac 07       		.byte	0x7
 1440 04ad 20040000 		.4byte	.LASF86
 1441 04b1 12       		.uleb128 0x12
 1442 04b2 A9000000 		.4byte	0xa9
 1443 04b6 C1040000 		.4byte	0x4c1
 1444 04ba 13       		.uleb128 0x13
 1445 04bb AA040000 		.4byte	0x4aa
 1446 04bf 01       		.byte	0x1
 1447 04c0 00       		.byte	0
 1448 04c1 12       		.uleb128 0x12
 1449 04c2 A9000000 		.4byte	0xa9
ARM GAS  /tmp/ccR2RkNc.s 			page 27


 1450 04c6 D1040000 		.4byte	0x4d1
 1451 04ca 13       		.uleb128 0x13
 1452 04cb AA040000 		.4byte	0x4aa
 1453 04cf 03       		.byte	0x3
 1454 04d0 00       		.byte	0
 1455 04d1 04       		.uleb128 0x4
 1456 04d2 90020000 		.4byte	.LASF87
 1457 04d6 0C       		.byte	0xc
 1458 04d7 65       		.byte	0x65
 1459 04d8 3B030000 		.4byte	0x33b
 1460 04dc 04       		.uleb128 0x4
 1461 04dd F8030000 		.4byte	.LASF88
 1462 04e1 0C       		.byte	0xc
 1463 04e2 6D       		.byte	0x6d
 1464 04e3 B4000000 		.4byte	0xb4
 1465 04e7 06       		.uleb128 0x6
 1466 04e8 A7060000 		.4byte	.LASF89
 1467 04ec 04       		.byte	0x4
 1468 04ed 0C       		.byte	0xc
 1469 04ee 89       		.byte	0x89
 1470 04ef 00050000 		.4byte	0x500
 1471 04f3 14       		.uleb128 0x14
 1472 04f4 72313300 		.ascii	"r13\000"
 1473 04f8 0C       		.byte	0xc
 1474 04f9 8A       		.byte	0x8a
 1475 04fa 7B050000 		.4byte	0x57b
 1476 04fe 00       		.byte	0
 1477 04ff 00       		.byte	0
 1478 0500 06       		.uleb128 0x6
 1479 0501 46000000 		.4byte	.LASF90
 1480 0505 24       		.byte	0x24
 1481 0506 01       		.byte	0x1
 1482 0507 FD       		.byte	0xfd
 1483 0508 7B050000 		.4byte	0x57b
 1484 050c 08       		.uleb128 0x8
 1485 050d 723400   		.ascii	"r4\000"
 1486 0510 01       		.byte	0x1
 1487 0511 1001     		.2byte	0x110
 1488 0513 D1040000 		.4byte	0x4d1
 1489 0517 00       		.byte	0
 1490 0518 08       		.uleb128 0x8
 1491 0519 723500   		.ascii	"r5\000"
 1492 051c 01       		.byte	0x1
 1493 051d 1101     		.2byte	0x111
 1494 051f D1040000 		.4byte	0x4d1
 1495 0523 04       		.byte	0x4
 1496 0524 08       		.uleb128 0x8
 1497 0525 723600   		.ascii	"r6\000"
 1498 0528 01       		.byte	0x1
 1499 0529 1201     		.2byte	0x112
 1500 052b D1040000 		.4byte	0x4d1
 1501 052f 08       		.byte	0x8
 1502 0530 08       		.uleb128 0x8
 1503 0531 723700   		.ascii	"r7\000"
 1504 0534 01       		.byte	0x1
 1505 0535 1301     		.2byte	0x113
 1506 0537 D1040000 		.4byte	0x4d1
ARM GAS  /tmp/ccR2RkNc.s 			page 28


 1507 053b 0C       		.byte	0xc
 1508 053c 08       		.uleb128 0x8
 1509 053d 723800   		.ascii	"r8\000"
 1510 0540 01       		.byte	0x1
 1511 0541 1401     		.2byte	0x114
 1512 0543 D1040000 		.4byte	0x4d1
 1513 0547 10       		.byte	0x10
 1514 0548 08       		.uleb128 0x8
 1515 0549 723900   		.ascii	"r9\000"
 1516 054c 01       		.byte	0x1
 1517 054d 1501     		.2byte	0x115
 1518 054f D1040000 		.4byte	0x4d1
 1519 0553 14       		.byte	0x14
 1520 0554 08       		.uleb128 0x8
 1521 0555 72313000 		.ascii	"r10\000"
 1522 0559 01       		.byte	0x1
 1523 055a 1601     		.2byte	0x116
 1524 055c D1040000 		.4byte	0x4d1
 1525 0560 18       		.byte	0x18
 1526 0561 08       		.uleb128 0x8
 1527 0562 72313100 		.ascii	"r11\000"
 1528 0566 01       		.byte	0x1
 1529 0567 1701     		.2byte	0x117
 1530 0569 D1040000 		.4byte	0x4d1
 1531 056d 1C       		.byte	0x1c
 1532 056e 08       		.uleb128 0x8
 1533 056f 6C7200   		.ascii	"lr\000"
 1534 0572 01       		.byte	0x1
 1535 0573 1801     		.2byte	0x118
 1536 0575 D1040000 		.4byte	0x4d1
 1537 0579 20       		.byte	0x20
 1538 057a 00       		.byte	0
 1539 057b 0A       		.uleb128 0xa
 1540 057c 04       		.byte	0x4
 1541 057d 00050000 		.4byte	0x500
 1542 0581 15       		.uleb128 0x15
 1543 0582 60       		.byte	0x60
 1544 0583 0D       		.byte	0xd
 1545 0584 A101     		.2byte	0x1a1
 1546 0586 8D060000 		.4byte	0x68d
 1547 058a 08       		.uleb128 0x8
 1548 058b 43523100 		.ascii	"CR1\000"
 1549 058f 0D       		.byte	0xd
 1550 0590 A201     		.2byte	0x1a2
 1551 0592 C4000000 		.4byte	0xc4
 1552 0596 00       		.byte	0
 1553 0597 08       		.uleb128 0x8
 1554 0598 43523200 		.ascii	"CR2\000"
 1555 059c 0D       		.byte	0xd
 1556 059d A301     		.2byte	0x1a3
 1557 059f C4000000 		.4byte	0xc4
 1558 05a3 04       		.byte	0x4
 1559 05a4 09       		.uleb128 0x9
 1560 05a5 69030000 		.4byte	.LASF91
 1561 05a9 0D       		.byte	0xd
 1562 05aa A401     		.2byte	0x1a4
 1563 05ac C4000000 		.4byte	0xc4
ARM GAS  /tmp/ccR2RkNc.s 			page 29


 1564 05b0 08       		.byte	0x8
 1565 05b1 09       		.uleb128 0x9
 1566 05b2 14000000 		.4byte	.LASF92
 1567 05b6 0D       		.byte	0xd
 1568 05b7 A501     		.2byte	0x1a5
 1569 05b9 C4000000 		.4byte	0xc4
 1570 05bd 0C       		.byte	0xc
 1571 05be 08       		.uleb128 0x8
 1572 05bf 535200   		.ascii	"SR\000"
 1573 05c2 0D       		.byte	0xd
 1574 05c3 A601     		.2byte	0x1a6
 1575 05c5 C4000000 		.4byte	0xc4
 1576 05c9 10       		.byte	0x10
 1577 05ca 08       		.uleb128 0x8
 1578 05cb 45475200 		.ascii	"EGR\000"
 1579 05cf 0D       		.byte	0xd
 1580 05d0 A701     		.2byte	0x1a7
 1581 05d2 C4000000 		.4byte	0xc4
 1582 05d6 14       		.byte	0x14
 1583 05d7 09       		.uleb128 0x9
 1584 05d8 1D010000 		.4byte	.LASF93
 1585 05dc 0D       		.byte	0xd
 1586 05dd A801     		.2byte	0x1a8
 1587 05df C4000000 		.4byte	0xc4
 1588 05e3 18       		.byte	0x18
 1589 05e4 09       		.uleb128 0x9
 1590 05e5 23010000 		.4byte	.LASF94
 1591 05e9 0D       		.byte	0xd
 1592 05ea A901     		.2byte	0x1a9
 1593 05ec C4000000 		.4byte	0xc4
 1594 05f0 1C       		.byte	0x1c
 1595 05f1 09       		.uleb128 0x9
 1596 05f2 8C010000 		.4byte	.LASF95
 1597 05f6 0D       		.byte	0xd
 1598 05f7 AA01     		.2byte	0x1aa
 1599 05f9 C4000000 		.4byte	0xc4
 1600 05fd 20       		.byte	0x20
 1601 05fe 08       		.uleb128 0x8
 1602 05ff 434E5400 		.ascii	"CNT\000"
 1603 0603 0D       		.byte	0xd
 1604 0604 AB01     		.2byte	0x1ab
 1605 0606 C4000000 		.4byte	0xc4
 1606 060a 24       		.byte	0x24
 1607 060b 08       		.uleb128 0x8
 1608 060c 50534300 		.ascii	"PSC\000"
 1609 0610 0D       		.byte	0xd
 1610 0611 AC01     		.2byte	0x1ac
 1611 0613 C4000000 		.4byte	0xc4
 1612 0617 28       		.byte	0x28
 1613 0618 08       		.uleb128 0x8
 1614 0619 41525200 		.ascii	"ARR\000"
 1615 061d 0D       		.byte	0xd
 1616 061e AD01     		.2byte	0x1ad
 1617 0620 C4000000 		.4byte	0xc4
 1618 0624 2C       		.byte	0x2c
 1619 0625 08       		.uleb128 0x8
 1620 0626 52435200 		.ascii	"RCR\000"
ARM GAS  /tmp/ccR2RkNc.s 			page 30


 1621 062a 0D       		.byte	0xd
 1622 062b AE01     		.2byte	0x1ae
 1623 062d C4000000 		.4byte	0xc4
 1624 0631 30       		.byte	0x30
 1625 0632 08       		.uleb128 0x8
 1626 0633 43435200 		.ascii	"CCR\000"
 1627 0637 0D       		.byte	0xd
 1628 0638 AF01     		.2byte	0x1af
 1629 063a 8D060000 		.4byte	0x68d
 1630 063e 34       		.byte	0x34
 1631 063f 09       		.uleb128 0x9
 1632 0640 08010000 		.4byte	.LASF96
 1633 0644 0D       		.byte	0xd
 1634 0645 B001     		.2byte	0x1b0
 1635 0647 C4000000 		.4byte	0xc4
 1636 064b 44       		.byte	0x44
 1637 064c 08       		.uleb128 0x8
 1638 064d 44435200 		.ascii	"DCR\000"
 1639 0651 0D       		.byte	0xd
 1640 0652 B101     		.2byte	0x1b1
 1641 0654 C4000000 		.4byte	0xc4
 1642 0658 48       		.byte	0x48
 1643 0659 09       		.uleb128 0x9
 1644 065a 30060000 		.4byte	.LASF97
 1645 065e 0D       		.byte	0xd
 1646 065f B201     		.2byte	0x1b2
 1647 0661 C4000000 		.4byte	0xc4
 1648 0665 4C       		.byte	0x4c
 1649 0666 08       		.uleb128 0x8
 1650 0667 4F5200   		.ascii	"OR\000"
 1651 066a 0D       		.byte	0xd
 1652 066b B301     		.2byte	0x1b3
 1653 066d C4000000 		.4byte	0xc4
 1654 0671 50       		.byte	0x50
 1655 0672 09       		.uleb128 0x9
 1656 0673 29010000 		.4byte	.LASF98
 1657 0677 0D       		.byte	0xd
 1658 0678 B401     		.2byte	0x1b4
 1659 067a C4000000 		.4byte	0xc4
 1660 067e 54       		.byte	0x54
 1661 067f 09       		.uleb128 0x9
 1662 0680 C5050000 		.4byte	.LASF99
 1663 0684 0D       		.byte	0xd
 1664 0685 B501     		.2byte	0x1b5
 1665 0687 92060000 		.4byte	0x692
 1666 068b 58       		.byte	0x58
 1667 068c 00       		.byte	0
 1668 068d 05       		.uleb128 0x5
 1669 068e C1040000 		.4byte	0x4c1
 1670 0692 05       		.uleb128 0x5
 1671 0693 B1040000 		.4byte	0x4b1
 1672 0697 16       		.uleb128 0x16
 1673 0698 B6030000 		.4byte	.LASF100
 1674 069c 0D       		.byte	0xd
 1675 069d B601     		.2byte	0x1b6
 1676 069f 81050000 		.4byte	0x581
 1677 06a3 17       		.uleb128 0x17
ARM GAS  /tmp/ccR2RkNc.s 			page 31


 1678 06a4 10       		.byte	0x10
 1679 06a5 0E       		.byte	0xe
 1680 06a6 51       		.byte	0x51
 1681 06a7 DC060000 		.4byte	0x6dc
 1682 06ab 07       		.uleb128 0x7
 1683 06ac 3B010000 		.4byte	.LASF101
 1684 06b0 0E       		.byte	0xe
 1685 06b1 55       		.byte	0x55
 1686 06b2 37010000 		.4byte	0x137
 1687 06b6 00       		.byte	0
 1688 06b7 07       		.uleb128 0x7
 1689 06b8 91010000 		.4byte	.LASF102
 1690 06bc 0E       		.byte	0xe
 1691 06bd 59       		.byte	0x59
 1692 06be 5E020000 		.4byte	0x25e
 1693 06c2 04       		.byte	0x4
 1694 06c3 07       		.uleb128 0x7
 1695 06c4 9E070000 		.4byte	.LASF103
 1696 06c8 0E       		.byte	0xe
 1697 06c9 5D       		.byte	0x5d
 1698 06ca 3B030000 		.4byte	0x33b
 1699 06ce 08       		.byte	0x8
 1700 06cf 07       		.uleb128 0x7
 1701 06d0 BE000000 		.4byte	.LASF104
 1702 06d4 0E       		.byte	0xe
 1703 06d5 61       		.byte	0x61
 1704 06d6 93000000 		.4byte	0x93
 1705 06da 0C       		.byte	0xc
 1706 06db 00       		.byte	0
 1707 06dc 04       		.uleb128 0x4
 1708 06dd 63040000 		.4byte	.LASF105
 1709 06e1 0E       		.byte	0xe
 1710 06e2 62       		.byte	0x62
 1711 06e3 A3060000 		.4byte	0x6a3
 1712 06e7 18       		.uleb128 0x18
 1713 06e8 0804     		.2byte	0x408
 1714 06ea 0E       		.byte	0xe
 1715 06eb 67       		.byte	0x67
 1716 06ec 15070000 		.4byte	0x715
 1717 06f0 07       		.uleb128 0x7
 1718 06f1 78020000 		.4byte	.LASF106
 1719 06f5 0E       		.byte	0xe
 1720 06f6 6B       		.byte	0x6b
 1721 06f7 28000000 		.4byte	0x28
 1722 06fb 00       		.byte	0
 1723 06fc 07       		.uleb128 0x7
 1724 06fd 00000000 		.4byte	.LASF107
 1725 0701 0E       		.byte	0xe
 1726 0702 6F       		.byte	0x6f
 1727 0703 15070000 		.4byte	0x715
 1728 0707 04       		.byte	0x4
 1729 0708 07       		.uleb128 0x7
 1730 0709 F3040000 		.4byte	.LASF108
 1731 070d 0E       		.byte	0xe
 1732 070e 73       		.byte	0x73
 1733 070f 1B070000 		.4byte	0x71b
 1734 0713 08       		.byte	0x8
ARM GAS  /tmp/ccR2RkNc.s 			page 32


 1735 0714 00       		.byte	0
 1736 0715 0A       		.uleb128 0xa
 1737 0716 04       		.byte	0x4
 1738 0717 DC060000 		.4byte	0x6dc
 1739 071b 12       		.uleb128 0x12
 1740 071c DC060000 		.4byte	0x6dc
 1741 0720 2B070000 		.4byte	0x72b
 1742 0724 13       		.uleb128 0x13
 1743 0725 AA040000 		.4byte	0x4aa
 1744 0729 3F       		.byte	0x3f
 1745 072a 00       		.byte	0
 1746 072b 04       		.uleb128 0x4
 1747 072c AC000000 		.4byte	.LASF109
 1748 0730 0E       		.byte	0xe
 1749 0731 74       		.byte	0x74
 1750 0732 E7060000 		.4byte	0x6e7
 1751 0736 17       		.uleb128 0x17
 1752 0737 04       		.byte	0x4
 1753 0738 0F       		.byte	0xf
 1754 0739 38       		.byte	0x38
 1755 073a 4B070000 		.4byte	0x74b
 1756 073e 07       		.uleb128 0x7
 1757 073f A0060000 		.4byte	.LASF110
 1758 0743 0F       		.byte	0xf
 1759 0744 3C       		.byte	0x3c
 1760 0745 C9000000 		.4byte	0xc9
 1761 0749 00       		.byte	0
 1762 074a 00       		.byte	0
 1763 074b 04       		.uleb128 0x4
 1764 074c 99040000 		.4byte	.LASF111
 1765 0750 0F       		.byte	0xf
 1766 0751 3D       		.byte	0x3d
 1767 0752 36070000 		.4byte	0x736
 1768 0756 17       		.uleb128 0x17
 1769 0757 18       		.byte	0x18
 1770 0758 0F       		.byte	0xf
 1771 0759 48       		.byte	0x48
 1772 075a 99070000 		.4byte	0x799
 1773 075e 07       		.uleb128 0x7
 1774 075f 53060000 		.4byte	.LASF112
 1775 0763 0F       		.byte	0xf
 1776 0764 49       		.byte	0x49
 1777 0765 C9000000 		.4byte	0xc9
 1778 0769 00       		.byte	0
 1779 076a 07       		.uleb128 0x7
 1780 076b 7C000000 		.4byte	.LASF113
 1781 076f 0F       		.byte	0xf
 1782 0770 4A       		.byte	0x4a
 1783 0771 C9000000 		.4byte	0xc9
 1784 0775 04       		.byte	0x4
 1785 0776 07       		.uleb128 0x7
 1786 0777 8D030000 		.4byte	.LASF114
 1787 077b 0F       		.byte	0xf
 1788 077c 4B       		.byte	0x4b
 1789 077d C9000000 		.4byte	0xc9
 1790 0781 08       		.byte	0x8
 1791 0782 14       		.uleb128 0x14
ARM GAS  /tmp/ccR2RkNc.s 			page 33


 1792 0783 6E00     		.ascii	"n\000"
 1793 0785 0F       		.byte	0xf
 1794 0786 4C       		.byte	0x4c
 1795 0787 2C010000 		.4byte	0x12c
 1796 078b 0C       		.byte	0xc
 1797 078c 07       		.uleb128 0x7
 1798 078d E0040000 		.4byte	.LASF115
 1799 0791 0F       		.byte	0xf
 1800 0792 4D       		.byte	0x4d
 1801 0793 D4000000 		.4byte	0xd4
 1802 0797 10       		.byte	0x10
 1803 0798 00       		.byte	0
 1804 0799 04       		.uleb128 0x4
 1805 079a 82000000 		.4byte	.LASF116
 1806 079e 0F       		.byte	0xf
 1807 079f 4E       		.byte	0x4e
 1808 07a0 56070000 		.4byte	0x756
 1809 07a4 17       		.uleb128 0x17
 1810 07a5 38       		.byte	0x38
 1811 07a6 10       		.byte	0x10
 1812 07a7 38       		.byte	0x38
 1813 07a8 DD070000 		.4byte	0x7dd
 1814 07ac 07       		.uleb128 0x7
 1815 07ad 37030000 		.4byte	.LASF117
 1816 07b1 10       		.byte	0x10
 1817 07b2 39       		.byte	0x39
 1818 07b3 2C010000 		.4byte	0x12c
 1819 07b7 00       		.byte	0
 1820 07b8 07       		.uleb128 0x7
 1821 07b9 2F050000 		.4byte	.LASF118
 1822 07bd 10       		.byte	0x10
 1823 07be 3A       		.byte	0x3a
 1824 07bf 2C010000 		.4byte	0x12c
 1825 07c3 04       		.byte	0x4
 1826 07c4 07       		.uleb128 0x7
 1827 07c5 8B070000 		.4byte	.LASF119
 1828 07c9 10       		.byte	0x10
 1829 07ca 3B       		.byte	0x3b
 1830 07cb 99070000 		.4byte	0x799
 1831 07cf 08       		.byte	0x8
 1832 07d0 07       		.uleb128 0x7
 1833 07d1 D3030000 		.4byte	.LASF120
 1834 07d5 10       		.byte	0x10
 1835 07d6 3D       		.byte	0x3d
 1836 07d7 99070000 		.4byte	0x799
 1837 07db 20       		.byte	0x20
 1838 07dc 00       		.byte	0
 1839 07dd 04       		.uleb128 0x4
 1840 07de 6E030000 		.4byte	.LASF121
 1841 07e2 10       		.byte	0x10
 1842 07e3 3F       		.byte	0x3f
 1843 07e4 A4070000 		.4byte	0x7a4
 1844 07e8 19       		.uleb128 0x19
 1845 07e9 04       		.byte	0x4
 1846 07ea 0B       		.byte	0xb
 1847 07eb FA       		.byte	0xfa
 1848 07ec 45080000 		.4byte	0x845
ARM GAS  /tmp/ccR2RkNc.s 			page 34


 1849 07f0 1A       		.uleb128 0x1a
 1850 07f1 1F000000 		.4byte	.LASF122
 1851 07f5 0B       		.byte	0xb
 1852 07f6 0101     		.2byte	0x101
 1853 07f8 0B010000 		.4byte	0x10b
 1854 07fc 1A       		.uleb128 0x1a
 1855 07fd C7000000 		.4byte	.LASF123
 1856 0801 0B       		.byte	0xb
 1857 0802 0801     		.2byte	0x108
 1858 0804 0B010000 		.4byte	0x10b
 1859 0808 1A       		.uleb128 0x1a
 1860 0809 53070000 		.4byte	.LASF124
 1861 080d 0B       		.byte	0xb
 1862 080e 0F01     		.2byte	0x10f
 1863 0810 3B030000 		.4byte	0x33b
 1864 0814 1A       		.uleb128 0x1a
 1865 0815 19000000 		.4byte	.LASF125
 1866 0819 0B       		.byte	0xb
 1867 081a 1601     		.2byte	0x116
 1868 081c 45080000 		.4byte	0x845
 1869 0820 1A       		.uleb128 0x1a
 1870 0821 25030000 		.4byte	.LASF126
 1871 0825 0B       		.byte	0xb
 1872 0826 1E01     		.2byte	0x11e
 1873 0828 70080000 		.4byte	0x870
 1874 082c 1A       		.uleb128 0x1a
 1875 082d F1050000 		.4byte	.LASF127
 1876 0831 0B       		.byte	0xb
 1877 0832 2701     		.2byte	0x127
 1878 0834 A7080000 		.4byte	0x8a7
 1879 0838 1A       		.uleb128 0x1a
 1880 0839 89050000 		.4byte	.LASF128
 1881 083d 0B       		.byte	0xb
 1882 083e 2F01     		.2byte	0x12f
 1883 0840 16010000 		.4byte	0x116
 1884 0844 00       		.byte	0
 1885 0845 0A       		.uleb128 0xa
 1886 0846 04       		.byte	0x4
 1887 0847 53020000 		.4byte	0x253
 1888 084b 06       		.uleb128 0x6
 1889 084c B8050000 		.4byte	.LASF129
 1890 0850 0C       		.byte	0xc
 1891 0851 11       		.byte	0x11
 1892 0852 34       		.byte	0x34
 1893 0853 70080000 		.4byte	0x870
 1894 0857 07       		.uleb128 0x7
 1895 0858 5D020000 		.4byte	.LASF130
 1896 085c 11       		.byte	0x11
 1897 085d 35       		.byte	0x35
 1898 085e 88020000 		.4byte	0x288
 1899 0862 00       		.byte	0
 1900 0863 07       		.uleb128 0x7
 1901 0864 63030000 		.4byte	.LASF131
 1902 0868 11       		.byte	0x11
 1903 0869 37       		.byte	0x37
 1904 086a 21010000 		.4byte	0x121
 1905 086e 08       		.byte	0x8
ARM GAS  /tmp/ccR2RkNc.s 			page 35


 1906 086f 00       		.byte	0
 1907 0870 0A       		.uleb128 0xa
 1908 0871 04       		.byte	0x4
 1909 0872 4B080000 		.4byte	0x84b
 1910 0876 06       		.uleb128 0x6
 1911 0877 1B070000 		.4byte	.LASF132
 1912 087b 10       		.byte	0x10
 1913 087c 12       		.byte	0x12
 1914 087d 39       		.byte	0x39
 1915 087e A7080000 		.4byte	0x8a7
 1916 0882 07       		.uleb128 0x7
 1917 0883 43010000 		.4byte	.LASF133
 1918 0887 12       		.byte	0x12
 1919 0888 3A       		.byte	0x3a
 1920 0889 88020000 		.4byte	0x288
 1921 088d 00       		.byte	0
 1922 088e 07       		.uleb128 0x7
 1923 088f 96070000 		.4byte	.LASF134
 1924 0893 12       		.byte	0x12
 1925 0894 3C       		.byte	0x3c
 1926 0895 5E020000 		.4byte	0x25e
 1927 0899 08       		.byte	0x8
 1928 089a 07       		.uleb128 0x7
 1929 089b 58060000 		.4byte	.LASF135
 1930 089f 12       		.byte	0x12
 1931 08a0 3E       		.byte	0x3e
 1932 08a1 EB080000 		.4byte	0x8eb
 1933 08a5 0C       		.byte	0xc
 1934 08a6 00       		.byte	0
 1935 08a7 0A       		.uleb128 0xa
 1936 08a8 04       		.byte	0x4
 1937 08a9 76080000 		.4byte	0x876
 1938 08ad 0A       		.uleb128 0xa
 1939 08ae 04       		.byte	0x4
 1940 08af B3080000 		.4byte	0x8b3
 1941 08b3 1B       		.uleb128 0x1b
 1942 08b4 B8080000 		.4byte	0x8b8
 1943 08b8 03       		.uleb128 0x3
 1944 08b9 01       		.byte	0x1
 1945 08ba 08       		.byte	0x8
 1946 08bb 2B060000 		.4byte	.LASF136
 1947 08bf 0A       		.uleb128 0xa
 1948 08c0 04       		.byte	0x4
 1949 08c1 DC040000 		.4byte	0x4dc
 1950 08c5 0A       		.uleb128 0xa
 1951 08c6 04       		.byte	0x4
 1952 08c7 3D030000 		.4byte	0x33d
 1953 08cb 05       		.uleb128 0x5
 1954 08cc AD080000 		.4byte	0x8ad
 1955 08d0 12       		.uleb128 0x12
 1956 08d1 DC040000 		.4byte	0x4dc
 1957 08d5 E0080000 		.4byte	0x8e0
 1958 08d9 13       		.uleb128 0x13
 1959 08da AA040000 		.4byte	0x4aa
 1960 08de 1E       		.byte	0x1e
 1961 08df 00       		.byte	0
 1962 08e0 04       		.uleb128 0x4
ARM GAS  /tmp/ccR2RkNc.s 			page 36


 1963 08e1 B1020000 		.4byte	.LASF137
 1964 08e5 12       		.byte	0x12
 1965 08e6 34       		.byte	0x34
 1966 08e7 76080000 		.4byte	0x876
 1967 08eb 0A       		.uleb128 0xa
 1968 08ec 04       		.byte	0x4
 1969 08ed E0080000 		.4byte	0x8e0
 1970 08f1 1C       		.uleb128 0x1c
 1971 08f2 88060000 		.4byte	.LASF160
 1972 08f6 02       		.byte	0x2
 1973 08f7 2202     		.2byte	0x222
 1974 08f9 03       		.byte	0x3
 1975 08fa 0B090000 		.4byte	0x90b
 1976 08fe 1D       		.uleb128 0x1d
 1977 08ff B9020000 		.4byte	.LASF161
 1978 0903 02       		.byte	0x2
 1979 0904 2202     		.2byte	0x222
 1980 0906 A9000000 		.4byte	0xa9
 1981 090a 00       		.byte	0
 1982 090b 1E       		.uleb128 0x1e
 1983 090c 72000000 		.4byte	.LASF138
 1984 0910 01       		.byte	0x1
 1985 0911 C801     		.2byte	0x1c8
 1986 0913 00000000 		.4byte	.LFB127
 1987 0917 10000000 		.4byte	.LFE127-.LFB127
 1988 091b 01       		.uleb128 0x1
 1989 091c 9C       		.byte	0x9c
 1990 091d 3B090000 		.4byte	0x93b
 1991 0921 1F       		.uleb128 0x1f
 1992 0922 F1080000 		.4byte	0x8f1
 1993 0926 06000000 		.4byte	.LBB6
 1994 092a 06000000 		.4byte	.LBE6-.LBB6
 1995 092e 01       		.byte	0x1
 1996 092f CB01     		.2byte	0x1cb
 1997 0931 20       		.uleb128 0x20
 1998 0932 FE080000 		.4byte	0x8fe
 1999 0936 02       		.uleb128 0x2
 2000 0937 91       		.byte	0x91
 2001 0938 7C       		.sleb128 -4
 2002 0939 00       		.byte	0
 2003 093a 00       		.byte	0
 2004 093b 1E       		.uleb128 0x1e
 2005 093c 52010000 		.4byte	.LASF139
 2006 0940 01       		.byte	0x1
 2007 0941 D601     		.2byte	0x1d6
 2008 0943 00000000 		.4byte	.LFB128
 2009 0947 10000000 		.4byte	.LFE128-.LFB128
 2010 094b 01       		.uleb128 0x1
 2011 094c 9C       		.byte	0x9c
 2012 094d 6B090000 		.4byte	0x96b
 2013 0951 1F       		.uleb128 0x1f
 2014 0952 F1080000 		.4byte	0x8f1
 2015 0956 06000000 		.4byte	.LBB8
 2016 095a 06000000 		.4byte	.LBE8-.LBB8
 2017 095e 01       		.byte	0x1
 2018 095f D901     		.2byte	0x1d9
 2019 0961 20       		.uleb128 0x20
ARM GAS  /tmp/ccR2RkNc.s 			page 37


 2020 0962 FE080000 		.4byte	0x8fe
 2021 0966 02       		.uleb128 0x2
 2022 0967 91       		.byte	0x91
 2023 0968 7C       		.sleb128 -4
 2024 0969 00       		.byte	0
 2025 096a 00       		.byte	0
 2026 096b 21       		.uleb128 0x21
 2027 096c D6060000 		.4byte	.LASF140
 2028 0970 01       		.byte	0x1
 2029 0971 E501     		.2byte	0x1e5
 2030 0973 00000000 		.4byte	.LFB129
 2031 0977 08000000 		.4byte	.LFE129-.LFB129
 2032 097b 01       		.uleb128 0x1
 2033 097c 9C       		.byte	0x9c
 2034 097d 21       		.uleb128 0x21
 2035 097e 35060000 		.4byte	.LASF141
 2036 0982 01       		.byte	0x1
 2037 0983 F001     		.2byte	0x1f0
 2038 0985 00000000 		.4byte	.LFB130
 2039 0989 08000000 		.4byte	.LFE130-.LFB130
 2040 098d 01       		.uleb128 0x1
 2041 098e 9C       		.byte	0x9c
 2042 098f 22       		.uleb128 0x22
 2043 0990 D5050000 		.4byte	.LASF142
 2044 0994 03       		.byte	0x3
 2045 0995 8B       		.byte	0x8b
 2046 0996 37010000 		.4byte	0x137
 2047 099a 00000000 		.4byte	.LFB136
 2048 099e 0A000000 		.4byte	.LFE136-.LFB136
 2049 09a2 01       		.uleb128 0x1
 2050 09a3 9C       		.byte	0x9c
 2051 09a4 23       		.uleb128 0x23
 2052 09a5 BA060000 		.4byte	.LASF143
 2053 09a9 04       		.byte	0x4
 2054 09aa 69       		.byte	0x69
 2055 09ab 37010000 		.4byte	0x137
 2056 09af 00000000 		.4byte	.LFB145
 2057 09b3 0C000000 		.4byte	.LFE145-.LFB145
 2058 09b7 01       		.uleb128 0x1
 2059 09b8 9C       		.byte	0x9c
 2060 09b9 23       		.uleb128 0x23
 2061 09ba DD020000 		.4byte	.LASF144
 2062 09be 05       		.byte	0x5
 2063 09bf E4       		.byte	0xe4
 2064 09c0 37010000 		.4byte	0x137
 2065 09c4 00000000 		.4byte	.LFB175
 2066 09c8 0C000000 		.4byte	.LFE175-.LFB175
 2067 09cc 01       		.uleb128 0x1
 2068 09cd 9C       		.byte	0x9c
 2069 09ce 24       		.uleb128 0x24
 2070 09cf FD040000 		.4byte	.LASF145
 2071 09d3 06       		.byte	0x6
 2072 09d4 72       		.byte	0x72
 2073 09d5 00000000 		.4byte	.LFB240
 2074 09d9 24000000 		.4byte	.LFE240-.LFB240
 2075 09dd 01       		.uleb128 0x1
 2076 09de 9C       		.byte	0x9c
ARM GAS  /tmp/ccR2RkNc.s 			page 38


 2077 09df 24       		.uleb128 0x24
 2078 09e0 03040000 		.4byte	.LASF146
 2079 09e4 06       		.byte	0x6
 2080 09e5 7E       		.byte	0x7e
 2081 09e6 00000000 		.4byte	.LFB241
 2082 09ea 24000000 		.4byte	.LFE241-.LFB241
 2083 09ee 01       		.uleb128 0x1
 2084 09ef 9C       		.byte	0x9c
 2085 09f0 24       		.uleb128 0x24
 2086 09f1 5E010000 		.4byte	.LASF147
 2087 09f5 06       		.byte	0x6
 2088 09f6 8A       		.byte	0x8a
 2089 09f7 00000000 		.4byte	.LFB242
 2090 09fb 24000000 		.4byte	.LFE242-.LFB242
 2091 09ff 01       		.uleb128 0x1
 2092 0a00 9C       		.byte	0x9c
 2093 0a01 24       		.uleb128 0x24
 2094 0a02 3C040000 		.4byte	.LASF148
 2095 0a06 06       		.byte	0x6
 2096 0a07 96       		.byte	0x96
 2097 0a08 00000000 		.4byte	.LFB243
 2098 0a0c 28000000 		.4byte	.LFE243-.LFB243
 2099 0a10 01       		.uleb128 0x1
 2100 0a11 9C       		.byte	0x9c
 2101 0a12 24       		.uleb128 0x24
 2102 0a13 41070000 		.4byte	.LASF149
 2103 0a17 06       		.byte	0x6
 2104 0a18 A3       		.byte	0xa3
 2105 0a19 00000000 		.4byte	.LFB244
 2106 0a1d 28000000 		.4byte	.LFE244-.LFB244
 2107 0a21 01       		.uleb128 0x1
 2108 0a22 9C       		.byte	0x9c
 2109 0a23 24       		.uleb128 0x24
 2110 0a24 BC040000 		.4byte	.LASF150
 2111 0a28 06       		.byte	0x6
 2112 0a29 B0       		.byte	0xb0
 2113 0a2a 00000000 		.4byte	.LFB245
 2114 0a2e 28000000 		.4byte	.LFE245-.LFB245
 2115 0a32 01       		.uleb128 0x1
 2116 0a33 9C       		.byte	0x9c
 2117 0a34 24       		.uleb128 0x24
 2118 0a35 F0060000 		.4byte	.LASF151
 2119 0a39 06       		.byte	0x6
 2120 0a3a BD       		.byte	0xbd
 2121 0a3b 00000000 		.4byte	.LFB246
 2122 0a3f 28000000 		.4byte	.LFE246-.LFB246
 2123 0a43 01       		.uleb128 0x1
 2124 0a44 9C       		.byte	0x9c
 2125 0a45 24       		.uleb128 0x24
 2126 0a46 7E040000 		.4byte	.LASF152
 2127 0a4a 06       		.byte	0x6
 2128 0a4b CA       		.byte	0xca
 2129 0a4c 00000000 		.4byte	.LFB247
 2130 0a50 34000000 		.4byte	.LFE247-.LFB247
 2131 0a54 01       		.uleb128 0x1
 2132 0a55 9C       		.byte	0x9c
 2133 0a56 24       		.uleb128 0x24
ARM GAS  /tmp/ccR2RkNc.s 			page 39


 2134 0a57 10030000 		.4byte	.LASF153
 2135 0a5b 06       		.byte	0x6
 2136 0a5c D9       		.byte	0xd9
 2137 0a5d 00000000 		.4byte	.LFB248
 2138 0a61 34000000 		.4byte	.LFE248-.LFB248
 2139 0a65 01       		.uleb128 0x1
 2140 0a66 9C       		.byte	0x9c
 2141 0a67 24       		.uleb128 0x24
 2142 0a68 99030000 		.4byte	.LASF154
 2143 0a6c 06       		.byte	0x6
 2144 0a6d EB       		.byte	0xeb
 2145 0a6e 00000000 		.4byte	.LFB249
 2146 0a72 24000000 		.4byte	.LFE249-.LFB249
 2147 0a76 01       		.uleb128 0x1
 2148 0a77 9C       		.byte	0x9c
 2149 0a78 24       		.uleb128 0x24
 2150 0a79 C2030000 		.4byte	.LASF155
 2151 0a7d 06       		.byte	0x6
 2152 0a7e FA       		.byte	0xfa
 2153 0a7f 00000000 		.4byte	.LFB250
 2154 0a83 24000000 		.4byte	.LFE250-.LFB250
 2155 0a87 01       		.uleb128 0x1
 2156 0a88 9C       		.byte	0x9c
 2157 0a89 25       		.uleb128 0x25
 2158 0a8a 4E050000 		.4byte	.LASF156
 2159 0a8e 06       		.byte	0x6
 2160 0a8f 0801     		.2byte	0x108
 2161 0a91 00000000 		.4byte	.LFB251
 2162 0a95 18000000 		.4byte	.LFE251-.LFB251
 2163 0a99 01       		.uleb128 0x1
 2164 0a9a 9C       		.byte	0x9c
 2165 0a9b 26       		.uleb128 0x26
 2166 0a9c AF060000 		.4byte	.LASF162
 2167 0aa0 06       		.byte	0x6
 2168 0aa1 1501     		.2byte	0x115
 2169 0aa3 00000000 		.4byte	.LFB252
 2170 0aa7 60000000 		.4byte	.LFE252-.LFB252
 2171 0aab 01       		.uleb128 0x1
 2172 0aac 9C       		.byte	0x9c
 2173 0aad C10A0000 		.4byte	0xac1
 2174 0ab1 27       		.uleb128 0x27
 2175 0ab2 6F747000 		.ascii	"otp\000"
 2176 0ab6 06       		.byte	0x6
 2177 0ab7 1501     		.2byte	0x115
 2178 0ab9 5E020000 		.4byte	0x25e
 2179 0abd 02       		.uleb128 0x2
 2180 0abe 91       		.byte	0x91
 2181 0abf 74       		.sleb128 -12
 2182 0ac0 00       		.byte	0
 2183 0ac1 28       		.uleb128 0x28
 2184 0ac2 FB000000 		.4byte	.LASF157
 2185 0ac6 13       		.byte	0x13
 2186 0ac7 FA06     		.2byte	0x6fa
 2187 0ac9 BF000000 		.4byte	0xbf
 2188 0acd 29       		.uleb128 0x29
 2189 0ace 636800   		.ascii	"ch\000"
 2190 0ad1 0B       		.byte	0xb
ARM GAS  /tmp/ccR2RkNc.s 			page 40


 2191 0ad2 0902     		.2byte	0x209
 2192 0ad4 32040000 		.4byte	0x432
 2193 0ad8 00       		.byte	0
 2194              		.section	.debug_abbrev,"",%progbits
 2195              	.Ldebug_abbrev0:
 2196 0000 01       		.uleb128 0x1
 2197 0001 11       		.uleb128 0x11
 2198 0002 01       		.byte	0x1
 2199 0003 25       		.uleb128 0x25
 2200 0004 0E       		.uleb128 0xe
 2201 0005 13       		.uleb128 0x13
 2202 0006 0B       		.uleb128 0xb
 2203 0007 03       		.uleb128 0x3
 2204 0008 0E       		.uleb128 0xe
 2205 0009 55       		.uleb128 0x55
 2206 000a 17       		.uleb128 0x17
 2207 000b 11       		.uleb128 0x11
 2208 000c 01       		.uleb128 0x1
 2209 000d 10       		.uleb128 0x10
 2210 000e 17       		.uleb128 0x17
 2211 000f 00       		.byte	0
 2212 0010 00       		.byte	0
 2213 0011 02       		.uleb128 0x2
 2214 0012 24       		.uleb128 0x24
 2215 0013 00       		.byte	0
 2216 0014 0B       		.uleb128 0xb
 2217 0015 0B       		.uleb128 0xb
 2218 0016 3E       		.uleb128 0x3e
 2219 0017 0B       		.uleb128 0xb
 2220 0018 03       		.uleb128 0x3
 2221 0019 08       		.uleb128 0x8
 2222 001a 00       		.byte	0
 2223 001b 00       		.byte	0
 2224 001c 03       		.uleb128 0x3
 2225 001d 24       		.uleb128 0x24
 2226 001e 00       		.byte	0
 2227 001f 0B       		.uleb128 0xb
 2228 0020 0B       		.uleb128 0xb
 2229 0021 3E       		.uleb128 0x3e
 2230 0022 0B       		.uleb128 0xb
 2231 0023 03       		.uleb128 0x3
 2232 0024 0E       		.uleb128 0xe
 2233 0025 00       		.byte	0
 2234 0026 00       		.byte	0
 2235 0027 04       		.uleb128 0x4
 2236 0028 16       		.uleb128 0x16
 2237 0029 00       		.byte	0
 2238 002a 03       		.uleb128 0x3
 2239 002b 0E       		.uleb128 0xe
 2240 002c 3A       		.uleb128 0x3a
 2241 002d 0B       		.uleb128 0xb
 2242 002e 3B       		.uleb128 0x3b
 2243 002f 0B       		.uleb128 0xb
 2244 0030 49       		.uleb128 0x49
 2245 0031 13       		.uleb128 0x13
 2246 0032 00       		.byte	0
 2247 0033 00       		.byte	0
ARM GAS  /tmp/ccR2RkNc.s 			page 41


 2248 0034 05       		.uleb128 0x5
 2249 0035 35       		.uleb128 0x35
 2250 0036 00       		.byte	0
 2251 0037 49       		.uleb128 0x49
 2252 0038 13       		.uleb128 0x13
 2253 0039 00       		.byte	0
 2254 003a 00       		.byte	0
 2255 003b 06       		.uleb128 0x6
 2256 003c 13       		.uleb128 0x13
 2257 003d 01       		.byte	0x1
 2258 003e 03       		.uleb128 0x3
 2259 003f 0E       		.uleb128 0xe
 2260 0040 0B       		.uleb128 0xb
 2261 0041 0B       		.uleb128 0xb
 2262 0042 3A       		.uleb128 0x3a
 2263 0043 0B       		.uleb128 0xb
 2264 0044 3B       		.uleb128 0x3b
 2265 0045 0B       		.uleb128 0xb
 2266 0046 01       		.uleb128 0x1
 2267 0047 13       		.uleb128 0x13
 2268 0048 00       		.byte	0
 2269 0049 00       		.byte	0
 2270 004a 07       		.uleb128 0x7
 2271 004b 0D       		.uleb128 0xd
 2272 004c 00       		.byte	0
 2273 004d 03       		.uleb128 0x3
 2274 004e 0E       		.uleb128 0xe
 2275 004f 3A       		.uleb128 0x3a
 2276 0050 0B       		.uleb128 0xb
 2277 0051 3B       		.uleb128 0x3b
 2278 0052 0B       		.uleb128 0xb
 2279 0053 49       		.uleb128 0x49
 2280 0054 13       		.uleb128 0x13
 2281 0055 38       		.uleb128 0x38
 2282 0056 0B       		.uleb128 0xb
 2283 0057 00       		.byte	0
 2284 0058 00       		.byte	0
 2285 0059 08       		.uleb128 0x8
 2286 005a 0D       		.uleb128 0xd
 2287 005b 00       		.byte	0
 2288 005c 03       		.uleb128 0x3
 2289 005d 08       		.uleb128 0x8
 2290 005e 3A       		.uleb128 0x3a
 2291 005f 0B       		.uleb128 0xb
 2292 0060 3B       		.uleb128 0x3b
 2293 0061 05       		.uleb128 0x5
 2294 0062 49       		.uleb128 0x49
 2295 0063 13       		.uleb128 0x13
 2296 0064 38       		.uleb128 0x38
 2297 0065 0B       		.uleb128 0xb
 2298 0066 00       		.byte	0
 2299 0067 00       		.byte	0
 2300 0068 09       		.uleb128 0x9
 2301 0069 0D       		.uleb128 0xd
 2302 006a 00       		.byte	0
 2303 006b 03       		.uleb128 0x3
 2304 006c 0E       		.uleb128 0xe
ARM GAS  /tmp/ccR2RkNc.s 			page 42


 2305 006d 3A       		.uleb128 0x3a
 2306 006e 0B       		.uleb128 0xb
 2307 006f 3B       		.uleb128 0x3b
 2308 0070 05       		.uleb128 0x5
 2309 0071 49       		.uleb128 0x49
 2310 0072 13       		.uleb128 0x13
 2311 0073 38       		.uleb128 0x38
 2312 0074 0B       		.uleb128 0xb
 2313 0075 00       		.byte	0
 2314 0076 00       		.byte	0
 2315 0077 0A       		.uleb128 0xa
 2316 0078 0F       		.uleb128 0xf
 2317 0079 00       		.byte	0
 2318 007a 0B       		.uleb128 0xb
 2319 007b 0B       		.uleb128 0xb
 2320 007c 49       		.uleb128 0x49
 2321 007d 13       		.uleb128 0x13
 2322 007e 00       		.byte	0
 2323 007f 00       		.byte	0
 2324 0080 0B       		.uleb128 0xb
 2325 0081 13       		.uleb128 0x13
 2326 0082 01       		.byte	0x1
 2327 0083 03       		.uleb128 0x3
 2328 0084 0E       		.uleb128 0xe
 2329 0085 0B       		.uleb128 0xb
 2330 0086 0B       		.uleb128 0xb
 2331 0087 3A       		.uleb128 0x3a
 2332 0088 0B       		.uleb128 0xb
 2333 0089 3B       		.uleb128 0x3b
 2334 008a 05       		.uleb128 0x5
 2335 008b 01       		.uleb128 0x1
 2336 008c 13       		.uleb128 0x13
 2337 008d 00       		.byte	0
 2338 008e 00       		.byte	0
 2339 008f 0C       		.uleb128 0xc
 2340 0090 15       		.uleb128 0x15
 2341 0091 01       		.byte	0x1
 2342 0092 27       		.uleb128 0x27
 2343 0093 19       		.uleb128 0x19
 2344 0094 01       		.uleb128 0x1
 2345 0095 13       		.uleb128 0x13
 2346 0096 00       		.byte	0
 2347 0097 00       		.byte	0
 2348 0098 0D       		.uleb128 0xd
 2349 0099 05       		.uleb128 0x5
 2350 009a 00       		.byte	0
 2351 009b 49       		.uleb128 0x49
 2352 009c 13       		.uleb128 0x13
 2353 009d 00       		.byte	0
 2354 009e 00       		.byte	0
 2355 009f 0E       		.uleb128 0xe
 2356 00a0 0F       		.uleb128 0xf
 2357 00a1 00       		.byte	0
 2358 00a2 0B       		.uleb128 0xb
 2359 00a3 0B       		.uleb128 0xb
 2360 00a4 00       		.byte	0
 2361 00a5 00       		.byte	0
ARM GAS  /tmp/ccR2RkNc.s 			page 43


 2362 00a6 0F       		.uleb128 0xf
 2363 00a7 13       		.uleb128 0x13
 2364 00a8 01       		.byte	0x1
 2365 00a9 03       		.uleb128 0x3
 2366 00aa 0E       		.uleb128 0xe
 2367 00ab 0B       		.uleb128 0xb
 2368 00ac 05       		.uleb128 0x5
 2369 00ad 3A       		.uleb128 0x3a
 2370 00ae 0B       		.uleb128 0xb
 2371 00af 3B       		.uleb128 0x3b
 2372 00b0 05       		.uleb128 0x5
 2373 00b1 01       		.uleb128 0x1
 2374 00b2 13       		.uleb128 0x13
 2375 00b3 00       		.byte	0
 2376 00b4 00       		.byte	0
 2377 00b5 10       		.uleb128 0x10
 2378 00b6 0D       		.uleb128 0xd
 2379 00b7 00       		.byte	0
 2380 00b8 03       		.uleb128 0x3
 2381 00b9 0E       		.uleb128 0xe
 2382 00ba 3A       		.uleb128 0x3a
 2383 00bb 0B       		.uleb128 0xb
 2384 00bc 3B       		.uleb128 0x3b
 2385 00bd 05       		.uleb128 0x5
 2386 00be 49       		.uleb128 0x49
 2387 00bf 13       		.uleb128 0x13
 2388 00c0 38       		.uleb128 0x38
 2389 00c1 05       		.uleb128 0x5
 2390 00c2 00       		.byte	0
 2391 00c3 00       		.byte	0
 2392 00c4 11       		.uleb128 0x11
 2393 00c5 0D       		.uleb128 0xd
 2394 00c6 00       		.byte	0
 2395 00c7 03       		.uleb128 0x3
 2396 00c8 08       		.uleb128 0x8
 2397 00c9 3A       		.uleb128 0x3a
 2398 00ca 0B       		.uleb128 0xb
 2399 00cb 3B       		.uleb128 0x3b
 2400 00cc 05       		.uleb128 0x5
 2401 00cd 49       		.uleb128 0x49
 2402 00ce 13       		.uleb128 0x13
 2403 00cf 38       		.uleb128 0x38
 2404 00d0 05       		.uleb128 0x5
 2405 00d1 00       		.byte	0
 2406 00d2 00       		.byte	0
 2407 00d3 12       		.uleb128 0x12
 2408 00d4 01       		.uleb128 0x1
 2409 00d5 01       		.byte	0x1
 2410 00d6 49       		.uleb128 0x49
 2411 00d7 13       		.uleb128 0x13
 2412 00d8 01       		.uleb128 0x1
 2413 00d9 13       		.uleb128 0x13
 2414 00da 00       		.byte	0
 2415 00db 00       		.byte	0
 2416 00dc 13       		.uleb128 0x13
 2417 00dd 21       		.uleb128 0x21
 2418 00de 00       		.byte	0
ARM GAS  /tmp/ccR2RkNc.s 			page 44


 2419 00df 49       		.uleb128 0x49
 2420 00e0 13       		.uleb128 0x13
 2421 00e1 2F       		.uleb128 0x2f
 2422 00e2 0B       		.uleb128 0xb
 2423 00e3 00       		.byte	0
 2424 00e4 00       		.byte	0
 2425 00e5 14       		.uleb128 0x14
 2426 00e6 0D       		.uleb128 0xd
 2427 00e7 00       		.byte	0
 2428 00e8 03       		.uleb128 0x3
 2429 00e9 08       		.uleb128 0x8
 2430 00ea 3A       		.uleb128 0x3a
 2431 00eb 0B       		.uleb128 0xb
 2432 00ec 3B       		.uleb128 0x3b
 2433 00ed 0B       		.uleb128 0xb
 2434 00ee 49       		.uleb128 0x49
 2435 00ef 13       		.uleb128 0x13
 2436 00f0 38       		.uleb128 0x38
 2437 00f1 0B       		.uleb128 0xb
 2438 00f2 00       		.byte	0
 2439 00f3 00       		.byte	0
 2440 00f4 15       		.uleb128 0x15
 2441 00f5 13       		.uleb128 0x13
 2442 00f6 01       		.byte	0x1
 2443 00f7 0B       		.uleb128 0xb
 2444 00f8 0B       		.uleb128 0xb
 2445 00f9 3A       		.uleb128 0x3a
 2446 00fa 0B       		.uleb128 0xb
 2447 00fb 3B       		.uleb128 0x3b
 2448 00fc 05       		.uleb128 0x5
 2449 00fd 01       		.uleb128 0x1
 2450 00fe 13       		.uleb128 0x13
 2451 00ff 00       		.byte	0
 2452 0100 00       		.byte	0
 2453 0101 16       		.uleb128 0x16
 2454 0102 16       		.uleb128 0x16
 2455 0103 00       		.byte	0
 2456 0104 03       		.uleb128 0x3
 2457 0105 0E       		.uleb128 0xe
 2458 0106 3A       		.uleb128 0x3a
 2459 0107 0B       		.uleb128 0xb
 2460 0108 3B       		.uleb128 0x3b
 2461 0109 05       		.uleb128 0x5
 2462 010a 49       		.uleb128 0x49
 2463 010b 13       		.uleb128 0x13
 2464 010c 00       		.byte	0
 2465 010d 00       		.byte	0
 2466 010e 17       		.uleb128 0x17
 2467 010f 13       		.uleb128 0x13
 2468 0110 01       		.byte	0x1
 2469 0111 0B       		.uleb128 0xb
 2470 0112 0B       		.uleb128 0xb
 2471 0113 3A       		.uleb128 0x3a
 2472 0114 0B       		.uleb128 0xb
 2473 0115 3B       		.uleb128 0x3b
 2474 0116 0B       		.uleb128 0xb
 2475 0117 01       		.uleb128 0x1
ARM GAS  /tmp/ccR2RkNc.s 			page 45


 2476 0118 13       		.uleb128 0x13
 2477 0119 00       		.byte	0
 2478 011a 00       		.byte	0
 2479 011b 18       		.uleb128 0x18
 2480 011c 13       		.uleb128 0x13
 2481 011d 01       		.byte	0x1
 2482 011e 0B       		.uleb128 0xb
 2483 011f 05       		.uleb128 0x5
 2484 0120 3A       		.uleb128 0x3a
 2485 0121 0B       		.uleb128 0xb
 2486 0122 3B       		.uleb128 0x3b
 2487 0123 0B       		.uleb128 0xb
 2488 0124 01       		.uleb128 0x1
 2489 0125 13       		.uleb128 0x13
 2490 0126 00       		.byte	0
 2491 0127 00       		.byte	0
 2492 0128 19       		.uleb128 0x19
 2493 0129 17       		.uleb128 0x17
 2494 012a 01       		.byte	0x1
 2495 012b 0B       		.uleb128 0xb
 2496 012c 0B       		.uleb128 0xb
 2497 012d 3A       		.uleb128 0x3a
 2498 012e 0B       		.uleb128 0xb
 2499 012f 3B       		.uleb128 0x3b
 2500 0130 0B       		.uleb128 0xb
 2501 0131 01       		.uleb128 0x1
 2502 0132 13       		.uleb128 0x13
 2503 0133 00       		.byte	0
 2504 0134 00       		.byte	0
 2505 0135 1A       		.uleb128 0x1a
 2506 0136 0D       		.uleb128 0xd
 2507 0137 00       		.byte	0
 2508 0138 03       		.uleb128 0x3
 2509 0139 0E       		.uleb128 0xe
 2510 013a 3A       		.uleb128 0x3a
 2511 013b 0B       		.uleb128 0xb
 2512 013c 3B       		.uleb128 0x3b
 2513 013d 05       		.uleb128 0x5
 2514 013e 49       		.uleb128 0x49
 2515 013f 13       		.uleb128 0x13
 2516 0140 00       		.byte	0
 2517 0141 00       		.byte	0
 2518 0142 1B       		.uleb128 0x1b
 2519 0143 26       		.uleb128 0x26
 2520 0144 00       		.byte	0
 2521 0145 49       		.uleb128 0x49
 2522 0146 13       		.uleb128 0x13
 2523 0147 00       		.byte	0
 2524 0148 00       		.byte	0
 2525 0149 1C       		.uleb128 0x1c
 2526 014a 2E       		.uleb128 0x2e
 2527 014b 01       		.byte	0x1
 2528 014c 03       		.uleb128 0x3
 2529 014d 0E       		.uleb128 0xe
 2530 014e 3A       		.uleb128 0x3a
 2531 014f 0B       		.uleb128 0xb
 2532 0150 3B       		.uleb128 0x3b
ARM GAS  /tmp/ccR2RkNc.s 			page 46


 2533 0151 05       		.uleb128 0x5
 2534 0152 27       		.uleb128 0x27
 2535 0153 19       		.uleb128 0x19
 2536 0154 20       		.uleb128 0x20
 2537 0155 0B       		.uleb128 0xb
 2538 0156 01       		.uleb128 0x1
 2539 0157 13       		.uleb128 0x13
 2540 0158 00       		.byte	0
 2541 0159 00       		.byte	0
 2542 015a 1D       		.uleb128 0x1d
 2543 015b 05       		.uleb128 0x5
 2544 015c 00       		.byte	0
 2545 015d 03       		.uleb128 0x3
 2546 015e 0E       		.uleb128 0xe
 2547 015f 3A       		.uleb128 0x3a
 2548 0160 0B       		.uleb128 0xb
 2549 0161 3B       		.uleb128 0x3b
 2550 0162 05       		.uleb128 0x5
 2551 0163 49       		.uleb128 0x49
 2552 0164 13       		.uleb128 0x13
 2553 0165 00       		.byte	0
 2554 0166 00       		.byte	0
 2555 0167 1E       		.uleb128 0x1e
 2556 0168 2E       		.uleb128 0x2e
 2557 0169 01       		.byte	0x1
 2558 016a 03       		.uleb128 0x3
 2559 016b 0E       		.uleb128 0xe
 2560 016c 3A       		.uleb128 0x3a
 2561 016d 0B       		.uleb128 0xb
 2562 016e 3B       		.uleb128 0x3b
 2563 016f 05       		.uleb128 0x5
 2564 0170 27       		.uleb128 0x27
 2565 0171 19       		.uleb128 0x19
 2566 0172 11       		.uleb128 0x11
 2567 0173 01       		.uleb128 0x1
 2568 0174 12       		.uleb128 0x12
 2569 0175 06       		.uleb128 0x6
 2570 0176 40       		.uleb128 0x40
 2571 0177 18       		.uleb128 0x18
 2572 0178 9742     		.uleb128 0x2117
 2573 017a 19       		.uleb128 0x19
 2574 017b 01       		.uleb128 0x1
 2575 017c 13       		.uleb128 0x13
 2576 017d 00       		.byte	0
 2577 017e 00       		.byte	0
 2578 017f 1F       		.uleb128 0x1f
 2579 0180 1D       		.uleb128 0x1d
 2580 0181 01       		.byte	0x1
 2581 0182 31       		.uleb128 0x31
 2582 0183 13       		.uleb128 0x13
 2583 0184 11       		.uleb128 0x11
 2584 0185 01       		.uleb128 0x1
 2585 0186 12       		.uleb128 0x12
 2586 0187 06       		.uleb128 0x6
 2587 0188 58       		.uleb128 0x58
 2588 0189 0B       		.uleb128 0xb
 2589 018a 59       		.uleb128 0x59
ARM GAS  /tmp/ccR2RkNc.s 			page 47


 2590 018b 05       		.uleb128 0x5
 2591 018c 00       		.byte	0
 2592 018d 00       		.byte	0
 2593 018e 20       		.uleb128 0x20
 2594 018f 05       		.uleb128 0x5
 2595 0190 00       		.byte	0
 2596 0191 31       		.uleb128 0x31
 2597 0192 13       		.uleb128 0x13
 2598 0193 02       		.uleb128 0x2
 2599 0194 18       		.uleb128 0x18
 2600 0195 00       		.byte	0
 2601 0196 00       		.byte	0
 2602 0197 21       		.uleb128 0x21
 2603 0198 2E       		.uleb128 0x2e
 2604 0199 00       		.byte	0
 2605 019a 03       		.uleb128 0x3
 2606 019b 0E       		.uleb128 0xe
 2607 019c 3A       		.uleb128 0x3a
 2608 019d 0B       		.uleb128 0xb
 2609 019e 3B       		.uleb128 0x3b
 2610 019f 05       		.uleb128 0x5
 2611 01a0 27       		.uleb128 0x27
 2612 01a1 19       		.uleb128 0x19
 2613 01a2 11       		.uleb128 0x11
 2614 01a3 01       		.uleb128 0x1
 2615 01a4 12       		.uleb128 0x12
 2616 01a5 06       		.uleb128 0x6
 2617 01a6 40       		.uleb128 0x40
 2618 01a7 18       		.uleb128 0x18
 2619 01a8 9642     		.uleb128 0x2116
 2620 01aa 19       		.uleb128 0x19
 2621 01ab 00       		.byte	0
 2622 01ac 00       		.byte	0
 2623 01ad 22       		.uleb128 0x22
 2624 01ae 2E       		.uleb128 0x2e
 2625 01af 00       		.byte	0
 2626 01b0 03       		.uleb128 0x3
 2627 01b1 0E       		.uleb128 0xe
 2628 01b2 3A       		.uleb128 0x3a
 2629 01b3 0B       		.uleb128 0xb
 2630 01b4 3B       		.uleb128 0x3b
 2631 01b5 0B       		.uleb128 0xb
 2632 01b6 27       		.uleb128 0x27
 2633 01b7 19       		.uleb128 0x19
 2634 01b8 49       		.uleb128 0x49
 2635 01b9 13       		.uleb128 0x13
 2636 01ba 11       		.uleb128 0x11
 2637 01bb 01       		.uleb128 0x1
 2638 01bc 12       		.uleb128 0x12
 2639 01bd 06       		.uleb128 0x6
 2640 01be 40       		.uleb128 0x40
 2641 01bf 18       		.uleb128 0x18
 2642 01c0 9742     		.uleb128 0x2117
 2643 01c2 19       		.uleb128 0x19
 2644 01c3 00       		.byte	0
 2645 01c4 00       		.byte	0
 2646 01c5 23       		.uleb128 0x23
ARM GAS  /tmp/ccR2RkNc.s 			page 48


 2647 01c6 2E       		.uleb128 0x2e
 2648 01c7 00       		.byte	0
 2649 01c8 03       		.uleb128 0x3
 2650 01c9 0E       		.uleb128 0xe
 2651 01ca 3A       		.uleb128 0x3a
 2652 01cb 0B       		.uleb128 0xb
 2653 01cc 3B       		.uleb128 0x3b
 2654 01cd 0B       		.uleb128 0xb
 2655 01ce 27       		.uleb128 0x27
 2656 01cf 19       		.uleb128 0x19
 2657 01d0 49       		.uleb128 0x49
 2658 01d1 13       		.uleb128 0x13
 2659 01d2 11       		.uleb128 0x11
 2660 01d3 01       		.uleb128 0x1
 2661 01d4 12       		.uleb128 0x12
 2662 01d5 06       		.uleb128 0x6
 2663 01d6 40       		.uleb128 0x40
 2664 01d7 18       		.uleb128 0x18
 2665 01d8 9642     		.uleb128 0x2116
 2666 01da 19       		.uleb128 0x19
 2667 01db 00       		.byte	0
 2668 01dc 00       		.byte	0
 2669 01dd 24       		.uleb128 0x24
 2670 01de 2E       		.uleb128 0x2e
 2671 01df 00       		.byte	0
 2672 01e0 3F       		.uleb128 0x3f
 2673 01e1 19       		.uleb128 0x19
 2674 01e2 03       		.uleb128 0x3
 2675 01e3 0E       		.uleb128 0xe
 2676 01e4 3A       		.uleb128 0x3a
 2677 01e5 0B       		.uleb128 0xb
 2678 01e6 3B       		.uleb128 0x3b
 2679 01e7 0B       		.uleb128 0xb
 2680 01e8 27       		.uleb128 0x27
 2681 01e9 19       		.uleb128 0x19
 2682 01ea 11       		.uleb128 0x11
 2683 01eb 01       		.uleb128 0x1
 2684 01ec 12       		.uleb128 0x12
 2685 01ed 06       		.uleb128 0x6
 2686 01ee 40       		.uleb128 0x40
 2687 01ef 18       		.uleb128 0x18
 2688 01f0 9642     		.uleb128 0x2116
 2689 01f2 19       		.uleb128 0x19
 2690 01f3 00       		.byte	0
 2691 01f4 00       		.byte	0
 2692 01f5 25       		.uleb128 0x25
 2693 01f6 2E       		.uleb128 0x2e
 2694 01f7 00       		.byte	0
 2695 01f8 3F       		.uleb128 0x3f
 2696 01f9 19       		.uleb128 0x19
 2697 01fa 03       		.uleb128 0x3
 2698 01fb 0E       		.uleb128 0xe
 2699 01fc 3A       		.uleb128 0x3a
 2700 01fd 0B       		.uleb128 0xb
 2701 01fe 3B       		.uleb128 0x3b
 2702 01ff 05       		.uleb128 0x5
 2703 0200 27       		.uleb128 0x27
ARM GAS  /tmp/ccR2RkNc.s 			page 49


 2704 0201 19       		.uleb128 0x19
 2705 0202 11       		.uleb128 0x11
 2706 0203 01       		.uleb128 0x1
 2707 0204 12       		.uleb128 0x12
 2708 0205 06       		.uleb128 0x6
 2709 0206 40       		.uleb128 0x40
 2710 0207 18       		.uleb128 0x18
 2711 0208 9742     		.uleb128 0x2117
 2712 020a 19       		.uleb128 0x19
 2713 020b 00       		.byte	0
 2714 020c 00       		.byte	0
 2715 020d 26       		.uleb128 0x26
 2716 020e 2E       		.uleb128 0x2e
 2717 020f 01       		.byte	0x1
 2718 0210 3F       		.uleb128 0x3f
 2719 0211 19       		.uleb128 0x19
 2720 0212 03       		.uleb128 0x3
 2721 0213 0E       		.uleb128 0xe
 2722 0214 3A       		.uleb128 0x3a
 2723 0215 0B       		.uleb128 0xb
 2724 0216 3B       		.uleb128 0x3b
 2725 0217 05       		.uleb128 0x5
 2726 0218 27       		.uleb128 0x27
 2727 0219 19       		.uleb128 0x19
 2728 021a 11       		.uleb128 0x11
 2729 021b 01       		.uleb128 0x1
 2730 021c 12       		.uleb128 0x12
 2731 021d 06       		.uleb128 0x6
 2732 021e 40       		.uleb128 0x40
 2733 021f 18       		.uleb128 0x18
 2734 0220 9642     		.uleb128 0x2116
 2735 0222 19       		.uleb128 0x19
 2736 0223 01       		.uleb128 0x1
 2737 0224 13       		.uleb128 0x13
 2738 0225 00       		.byte	0
 2739 0226 00       		.byte	0
 2740 0227 27       		.uleb128 0x27
 2741 0228 05       		.uleb128 0x5
 2742 0229 00       		.byte	0
 2743 022a 03       		.uleb128 0x3
 2744 022b 08       		.uleb128 0x8
 2745 022c 3A       		.uleb128 0x3a
 2746 022d 0B       		.uleb128 0xb
 2747 022e 3B       		.uleb128 0x3b
 2748 022f 05       		.uleb128 0x5
 2749 0230 49       		.uleb128 0x49
 2750 0231 13       		.uleb128 0x13
 2751 0232 02       		.uleb128 0x2
 2752 0233 18       		.uleb128 0x18
 2753 0234 00       		.byte	0
 2754 0235 00       		.byte	0
 2755 0236 28       		.uleb128 0x28
 2756 0237 34       		.uleb128 0x34
 2757 0238 00       		.byte	0
 2758 0239 03       		.uleb128 0x3
 2759 023a 0E       		.uleb128 0xe
 2760 023b 3A       		.uleb128 0x3a
ARM GAS  /tmp/ccR2RkNc.s 			page 50


 2761 023c 0B       		.uleb128 0xb
 2762 023d 3B       		.uleb128 0x3b
 2763 023e 05       		.uleb128 0x5
 2764 023f 49       		.uleb128 0x49
 2765 0240 13       		.uleb128 0x13
 2766 0241 3F       		.uleb128 0x3f
 2767 0242 19       		.uleb128 0x19
 2768 0243 3C       		.uleb128 0x3c
 2769 0244 19       		.uleb128 0x19
 2770 0245 00       		.byte	0
 2771 0246 00       		.byte	0
 2772 0247 29       		.uleb128 0x29
 2773 0248 34       		.uleb128 0x34
 2774 0249 00       		.byte	0
 2775 024a 03       		.uleb128 0x3
 2776 024b 08       		.uleb128 0x8
 2777 024c 3A       		.uleb128 0x3a
 2778 024d 0B       		.uleb128 0xb
 2779 024e 3B       		.uleb128 0x3b
 2780 024f 05       		.uleb128 0x5
 2781 0250 49       		.uleb128 0x49
 2782 0251 13       		.uleb128 0x13
 2783 0252 3F       		.uleb128 0x3f
 2784 0253 19       		.uleb128 0x19
 2785 0254 3C       		.uleb128 0x3c
 2786 0255 19       		.uleb128 0x19
 2787 0256 00       		.byte	0
 2788 0257 00       		.byte	0
 2789 0258 00       		.byte	0
 2790              		.section	.debug_aranges,"",%progbits
 2791 0000 B4000000 		.4byte	0xb4
 2792 0004 0200     		.2byte	0x2
 2793 0006 00000000 		.4byte	.Ldebug_info0
 2794 000a 04       		.byte	0x4
 2795 000b 00       		.byte	0
 2796 000c 0000     		.2byte	0
 2797 000e 0000     		.2byte	0
 2798 0010 00000000 		.4byte	.LFB127
 2799 0014 10000000 		.4byte	.LFE127-.LFB127
 2800 0018 00000000 		.4byte	.LFB128
 2801 001c 10000000 		.4byte	.LFE128-.LFB128
 2802 0020 00000000 		.4byte	.LFB129
 2803 0024 08000000 		.4byte	.LFE129-.LFB129
 2804 0028 00000000 		.4byte	.LFB130
 2805 002c 08000000 		.4byte	.LFE130-.LFB130
 2806 0030 00000000 		.4byte	.LFB136
 2807 0034 0A000000 		.4byte	.LFE136-.LFB136
 2808 0038 00000000 		.4byte	.LFB145
 2809 003c 0C000000 		.4byte	.LFE145-.LFB145
 2810 0040 00000000 		.4byte	.LFB175
 2811 0044 0C000000 		.4byte	.LFE175-.LFB175
 2812 0048 00000000 		.4byte	.LFB240
 2813 004c 24000000 		.4byte	.LFE240-.LFB240
 2814 0050 00000000 		.4byte	.LFB241
 2815 0054 24000000 		.4byte	.LFE241-.LFB241
 2816 0058 00000000 		.4byte	.LFB242
 2817 005c 24000000 		.4byte	.LFE242-.LFB242
ARM GAS  /tmp/ccR2RkNc.s 			page 51


 2818 0060 00000000 		.4byte	.LFB243
 2819 0064 28000000 		.4byte	.LFE243-.LFB243
 2820 0068 00000000 		.4byte	.LFB244
 2821 006c 28000000 		.4byte	.LFE244-.LFB244
 2822 0070 00000000 		.4byte	.LFB245
 2823 0074 28000000 		.4byte	.LFE245-.LFB245
 2824 0078 00000000 		.4byte	.LFB246
 2825 007c 28000000 		.4byte	.LFE246-.LFB246
 2826 0080 00000000 		.4byte	.LFB247
 2827 0084 34000000 		.4byte	.LFE247-.LFB247
 2828 0088 00000000 		.4byte	.LFB248
 2829 008c 34000000 		.4byte	.LFE248-.LFB248
 2830 0090 00000000 		.4byte	.LFB249
 2831 0094 24000000 		.4byte	.LFE249-.LFB249
 2832 0098 00000000 		.4byte	.LFB250
 2833 009c 24000000 		.4byte	.LFE250-.LFB250
 2834 00a0 00000000 		.4byte	.LFB251
 2835 00a4 18000000 		.4byte	.LFE251-.LFB251
 2836 00a8 00000000 		.4byte	.LFB252
 2837 00ac 60000000 		.4byte	.LFE252-.LFB252
 2838 00b0 00000000 		.4byte	0
 2839 00b4 00000000 		.4byte	0
 2840              		.section	.debug_ranges,"",%progbits
 2841              	.Ldebug_ranges0:
 2842 0000 00000000 		.4byte	.LFB127
 2843 0004 10000000 		.4byte	.LFE127
 2844 0008 00000000 		.4byte	.LFB128
 2845 000c 10000000 		.4byte	.LFE128
 2846 0010 00000000 		.4byte	.LFB129
 2847 0014 08000000 		.4byte	.LFE129
 2848 0018 00000000 		.4byte	.LFB130
 2849 001c 08000000 		.4byte	.LFE130
 2850 0020 00000000 		.4byte	.LFB136
 2851 0024 0A000000 		.4byte	.LFE136
 2852 0028 00000000 		.4byte	.LFB145
 2853 002c 0C000000 		.4byte	.LFE145
 2854 0030 00000000 		.4byte	.LFB175
 2855 0034 0C000000 		.4byte	.LFE175
 2856 0038 00000000 		.4byte	.LFB240
 2857 003c 24000000 		.4byte	.LFE240
 2858 0040 00000000 		.4byte	.LFB241
 2859 0044 24000000 		.4byte	.LFE241
 2860 0048 00000000 		.4byte	.LFB242
 2861 004c 24000000 		.4byte	.LFE242
 2862 0050 00000000 		.4byte	.LFB243
 2863 0054 28000000 		.4byte	.LFE243
 2864 0058 00000000 		.4byte	.LFB244
 2865 005c 28000000 		.4byte	.LFE244
 2866 0060 00000000 		.4byte	.LFB245
 2867 0064 28000000 		.4byte	.LFE245
 2868 0068 00000000 		.4byte	.LFB246
 2869 006c 28000000 		.4byte	.LFE246
 2870 0070 00000000 		.4byte	.LFB247
 2871 0074 34000000 		.4byte	.LFE247
 2872 0078 00000000 		.4byte	.LFB248
 2873 007c 34000000 		.4byte	.LFE248
 2874 0080 00000000 		.4byte	.LFB249
ARM GAS  /tmp/ccR2RkNc.s 			page 52


 2875 0084 24000000 		.4byte	.LFE249
 2876 0088 00000000 		.4byte	.LFB250
 2877 008c 24000000 		.4byte	.LFE250
 2878 0090 00000000 		.4byte	.LFB251
 2879 0094 18000000 		.4byte	.LFE251
 2880 0098 00000000 		.4byte	.LFB252
 2881 009c 60000000 		.4byte	.LFE252
 2882 00a0 00000000 		.4byte	0
 2883 00a4 00000000 		.4byte	0
 2884              		.section	.debug_line,"",%progbits
 2885              	.Ldebug_line0:
 2886 0000 39040000 		.section	.debug_str,"MS",%progbits,1
 2886      02002F02 
 2886      00000201 
 2886      FB0E0D00 
 2886      01010101 
 2887              	.LASF107:
 2888 0000 74625F70 		.ascii	"tb_ptr\000"
 2888      747200
 2889              	.LASF54:
 2890 0007 72656164 		.ascii	"ready_list_t\000"
 2890      795F6C69 
 2890      73745F74 
 2890      00
 2891              	.LASF92:
 2892 0014 44494552 		.ascii	"DIER\000"
 2892      00
 2893              	.LASF125:
 2894 0019 77747472 		.ascii	"wttrp\000"
 2894      7000
 2895              	.LASF122:
 2896 001f 7264796D 		.ascii	"rdymsg\000"
 2896      736700
 2897              	.LASF16:
 2898 0026 75696E74 		.ascii	"uint64_t\000"
 2898      36345F74 
 2898      00
 2899              	.LASF84:
 2900 002f 6B65726E 		.ascii	"kernel_stats\000"
 2900      656C5F73 
 2900      74617473 
 2900      00
 2901              	.LASF5:
 2902 003c 5F5F7569 		.ascii	"__uint8_t\000"
 2902      6E74385F 
 2902      7400
 2903              	.LASF90:
 2904 0046 706F7274 		.ascii	"port_intctx\000"
 2904      5F696E74 
 2904      63747800 
 2905              	.LASF53:
 2906 0052 63685F74 		.ascii	"ch_threads_queue\000"
 2906      68726561 
 2906      64735F71 
 2906      75657565 
 2906      00
 2907              	.LASF73:
ARM GAS  /tmp/ccR2RkNc.s 			page 53


 2908 0063 73797374 		.ascii	"system_debug_t\000"
 2908      656D5F64 
 2908      65627567 
 2908      5F7400
 2909              	.LASF138:
 2910 0072 706F7274 		.ascii	"port_lock\000"
 2910      5F6C6F63 
 2910      6B00
 2911              	.LASF113:
 2912 007c 776F7273 		.ascii	"worst\000"
 2912      7400
 2913              	.LASF116:
 2914 0082 74696D65 		.ascii	"time_measurement_t\000"
 2914      5F6D6561 
 2914      73757265 
 2914      6D656E74 
 2914      5F7400
 2915              	.LASF12:
 2916 0095 6C6F6E67 		.ascii	"long long unsigned int\000"
 2916      206C6F6E 
 2916      6720756E 
 2916      7369676E 
 2916      65642069 
 2917              	.LASF109:
 2918 00ac 63685F74 		.ascii	"ch_trace_buffer_t\000"
 2918      72616365 
 2918      5F627566 
 2918      6665725F 
 2918      7400
 2919              	.LASF104:
 2920 00be 73655F73 		.ascii	"se_state\000"
 2920      74617465 
 2920      00
 2921              	.LASF123:
 2922 00c7 65786974 		.ascii	"exitcode\000"
 2922      636F6465 
 2922      00
 2923              	.LASF83:
 2924 00d0 6D61696E 		.ascii	"mainthread\000"
 2924      74687265 
 2924      616400
 2925              	.LASF6:
 2926 00db 5F5F696E 		.ascii	"__int32_t\000"
 2926      7433325F 
 2926      7400
 2927              	.LASF70:
 2928 00e5 76697274 		.ascii	"virtual_timers_list_t\000"
 2928      75616C5F 
 2928      74696D65 
 2928      72735F6C 
 2928      6973745F 
 2929              	.LASF157:
 2930 00fb 49544D5F 		.ascii	"ITM_RxBuffer\000"
 2930      52784275 
 2930      66666572 
 2930      00
 2931              	.LASF96:
ARM GAS  /tmp/ccR2RkNc.s 			page 54


 2932 0108 42445452 		.ascii	"BDTR\000"
 2932      00
 2933              	.LASF18:
 2934 010d 72747469 		.ascii	"rttime_t\000"
 2934      6D655F74 
 2934      00
 2935              	.LASF31:
 2936 0116 705F7072 		.ascii	"p_prio\000"
 2936      696F00
 2937              	.LASF93:
 2938 011d 43434D52 		.ascii	"CCMR1\000"
 2938      3100
 2939              	.LASF94:
 2940 0123 43434D52 		.ascii	"CCMR2\000"
 2940      3200
 2941              	.LASF98:
 2942 0129 43434D52 		.ascii	"CCMR3\000"
 2942      3300
 2943              	.LASF1:
 2944 012f 7369676E 		.ascii	"signed char\000"
 2944      65642063 
 2944      68617200 
 2945              	.LASF101:
 2946 013b 73655F74 		.ascii	"se_time\000"
 2946      696D6500 
 2947              	.LASF133:
 2948 0143 6D5F7175 		.ascii	"m_queue\000"
 2948      65756500 
 2949              	.LASF82:
 2950 014b 76746C69 		.ascii	"vtlist\000"
 2950      737400
 2951              	.LASF139:
 2952 0152 706F7274 		.ascii	"port_unlock\000"
 2952      5F756E6C 
 2952      6F636B00 
 2953              	.LASF147:
 2954 015e 5F646267 		.ascii	"_dbg_check_enable\000"
 2954      5F636865 
 2954      636B5F65 
 2954      6E61626C 
 2954      6500
 2955              	.LASF80:
 2956 0170 63685F73 		.ascii	"ch_system\000"
 2956      79737465 
 2956      6D00
 2957              	.LASF7:
 2958 017a 6C6F6E67 		.ascii	"long int\000"
 2958      20696E74 
 2958      00
 2959              	.LASF20:
 2960 0183 74737461 		.ascii	"tstate_t\000"
 2960      74655F74 
 2960      00
 2961              	.LASF95:
 2962 018c 43434552 		.ascii	"CCER\000"
 2962      00
 2963              	.LASF102:
ARM GAS  /tmp/ccR2RkNc.s 			page 55


 2964 0191 73655F74 		.ascii	"se_tp\000"
 2964      7000
 2965              	.LASF10:
 2966 0197 6C6F6E67 		.ascii	"long long int\000"
 2966      206C6F6E 
 2966      6720696E 
 2966      7400
 2967              	.LASF158:
 2968 01a5 474E5520 		.ascii	"GNU C 4.8.4 20141219 (release) -mcpu=cortex-m4 -mno"
 2968      4320342E 
 2968      382E3420 
 2968      32303134 
 2968      31323139 
 2969 01d8 2D746875 		.ascii	"-thumb-interwork -mthumb -ggdb -O0 -fomit-frame-poi"
 2969      6D622D69 
 2969      6E746572 
 2969      776F726B 
 2969      202D6D74 
 2970 020b 6E746572 		.ascii	"nter -falign-functions=16 -ffunction-sections -fdat"
 2970      202D6661 
 2970      6C69676E 
 2970      2D66756E 
 2970      6374696F 
 2971 023e 612D7365 		.ascii	"a-sections -fno-common\000"
 2971      6374696F 
 2971      6E73202D 
 2971      666E6F2D 
 2971      636F6D6D 
 2972              	.LASF33:
 2973 0255 705F6E65 		.ascii	"p_newer\000"
 2973      77657200 
 2974              	.LASF130:
 2975 025d 735F7175 		.ascii	"s_queue\000"
 2975      65756500 
 2976              	.LASF4:
 2977 0265 73686F72 		.ascii	"short unsigned int\000"
 2977      7420756E 
 2977      7369676E 
 2977      65642069 
 2977      6E7400
 2978              	.LASF106:
 2979 0278 74625F73 		.ascii	"tb_size\000"
 2979      697A6500 
 2980              	.LASF59:
 2981 0280 725F6E65 		.ascii	"r_newer\000"
 2981      77657200 
 2982              	.LASF46:
 2983 0288 705F6D70 		.ascii	"p_mpool\000"
 2983      6F6F6C00 
 2984              	.LASF87:
 2985 0290 72656761 		.ascii	"regarm_t\000"
 2985      726D5F74 
 2985      00
 2986              	.LASF66:
 2987 0299 76745F70 		.ascii	"vt_prev\000"
 2987      72657600 
 2988              	.LASF74:
ARM GAS  /tmp/ccR2RkNc.s 			page 56


 2989 02a1 63685F73 		.ascii	"ch_system_debug\000"
 2989      79737465 
 2989      6D5F6465 
 2989      62756700 
 2990              	.LASF137:
 2991 02b1 6D757465 		.ascii	"mutex_t\000"
 2991      785F7400 
 2992              	.LASF161:
 2993 02b9 76616C75 		.ascii	"value\000"
 2993      6500
 2994              	.LASF77:
 2995 02bf 6C6F636B 		.ascii	"lock_cnt\000"
 2995      5F636E74 
 2995      00
 2996              	.LASF85:
 2997 02c8 69646C65 		.ascii	"idle_thread_wa\000"
 2997      5F746872 
 2997      6561645F 
 2997      776100
 2998              	.LASF25:
 2999 02d7 636E745F 		.ascii	"cnt_t\000"
 2999      7400
 3000              	.LASF144:
 3001 02dd 63685654 		.ascii	"chVTGetSystemTimeX\000"
 3001      47657453 
 3001      79737465 
 3001      6D54696D 
 3001      655800
 3002              	.LASF36:
 3003 02f0 705F7374 		.ascii	"p_stklimit\000"
 3003      6B6C696D 
 3003      697400
 3004              	.LASF0:
 3005 02fb 756E7369 		.ascii	"unsigned int\000"
 3005      676E6564 
 3005      20696E74 
 3005      00
 3006              	.LASF65:
 3007 0308 76745F6E 		.ascii	"vt_next\000"
 3007      65787400 
 3008              	.LASF153:
 3009 0310 5F646267 		.ascii	"_dbg_check_leave_isr\000"
 3009      5F636865 
 3009      636B5F6C 
 3009      65617665 
 3009      5F697372 
 3010              	.LASF126:
 3011 0325 77747365 		.ascii	"wtsemp\000"
 3011      6D7000
 3012              	.LASF41:
 3013 032c 705F6D73 		.ascii	"p_msgqueue\000"
 3013      67717565 
 3013      756500
 3014              	.LASF117:
 3015 0337 6E5F6972 		.ascii	"n_irq\000"
 3015      7100
 3016              	.LASF159:
ARM GAS  /tmp/ccR2RkNc.s 			page 57


 3017 033d 2F686F6D 		.ascii	"/home/efe/ChibiOS/os/rt/src/chdebug.c\000"
 3017      652F6566 
 3017      652F4368 
 3017      6962694F 
 3017      532F6F73 
 3018              	.LASF131:
 3019 0363 735F636E 		.ascii	"s_cnt\000"
 3019      7400
 3020              	.LASF91:
 3021 0369 534D4352 		.ascii	"SMCR\000"
 3021      00
 3022              	.LASF121:
 3023 036e 6B65726E 		.ascii	"kernel_stats_t\000"
 3023      656C5F73 
 3023      74617473 
 3023      5F7400
 3024              	.LASF50:
 3025 037d 63685F74 		.ascii	"ch_thread\000"
 3025      68726561 
 3025      6400
 3026              	.LASF23:
 3027 0387 6D73675F 		.ascii	"msg_t\000"
 3027      7400
 3028              	.LASF114:
 3029 038d 6C617374 		.ascii	"last\000"
 3029      00
 3030              	.LASF26:
 3031 0392 75636E74 		.ascii	"ucnt_t\000"
 3031      5F7400
 3032              	.LASF154:
 3033 0399 63684462 		.ascii	"chDbgCheckClassI\000"
 3033      67436865 
 3033      636B436C 
 3033      61737349 
 3033      00
 3034              	.LASF79:
 3035 03aa 63685F73 		.ascii	"ch_system_t\000"
 3035      79737465 
 3035      6D5F7400 
 3036              	.LASF100:
 3037 03b6 73746D33 		.ascii	"stm32_tim_t\000"
 3037      325F7469 
 3037      6D5F7400 
 3038              	.LASF155:
 3039 03c2 63684462 		.ascii	"chDbgCheckClassS\000"
 3039      67436865 
 3039      636B436C 
 3039      61737353 
 3039      00
 3040              	.LASF120:
 3041 03d3 6D5F6372 		.ascii	"m_crit_isr\000"
 3041      69745F69 
 3041      737200
 3042              	.LASF55:
 3043 03de 63685F72 		.ascii	"ch_ready_list\000"
 3043      65616479 
 3043      5F6C6973 
ARM GAS  /tmp/ccR2RkNc.s 			page 58


 3043      7400
 3044              	.LASF24:
 3045 03ec 6576656E 		.ascii	"eventmask_t\000"
 3045      746D6173 
 3045      6B5F7400 
 3046              	.LASF88:
 3047 03f8 73746B61 		.ascii	"stkalign_t\000"
 3047      6C69676E 
 3047      5F7400
 3048              	.LASF146:
 3049 0403 5F646267 		.ascii	"_dbg_check_suspend\000"
 3049      5F636865 
 3049      636B5F73 
 3049      75737065 
 3049      6E6400
 3050              	.LASF40:
 3051 0416 705F7761 		.ascii	"p_waiting\000"
 3051      6974696E 
 3051      6700
 3052              	.LASF86:
 3053 0420 73697A65 		.ascii	"sizetype\000"
 3053      74797065 
 3053      00
 3054              	.LASF48:
 3055 0429 74687265 		.ascii	"thread_reference_t\000"
 3055      61645F72 
 3055      65666572 
 3055      656E6365 
 3055      5F7400
 3056              	.LASF148:
 3057 043c 5F646267 		.ascii	"_dbg_check_lock\000"
 3057      5F636865 
 3057      636B5F6C 
 3057      6F636B00 
 3058              	.LASF71:
 3059 044c 63685F76 		.ascii	"ch_virtual_timers_list\000"
 3059      69727475 
 3059      616C5F74 
 3059      696D6572 
 3059      735F6C69 
 3060              	.LASF105:
 3061 0463 63685F73 		.ascii	"ch_swc_event_t\000"
 3061      77635F65 
 3061      76656E74 
 3061      5F7400
 3062              	.LASF72:
 3063 0472 76745F6C 		.ascii	"vt_lasttime\000"
 3063      61737474 
 3063      696D6500 
 3064              	.LASF152:
 3065 047e 5F646267 		.ascii	"_dbg_check_enter_isr\000"
 3065      5F636865 
 3065      636B5F65 
 3065      6E746572 
 3065      5F697372 
 3066              	.LASF58:
 3067 0493 725F6374 		.ascii	"r_ctx\000"
ARM GAS  /tmp/ccR2RkNc.s 			page 59


 3067      7800
 3068              	.LASF111:
 3069 0499 746D5F63 		.ascii	"tm_calibration_t\000"
 3069      616C6962 
 3069      72617469 
 3069      6F6E5F74 
 3069      00
 3070              	.LASF61:
 3071 04aa 725F6375 		.ascii	"r_current\000"
 3071      7272656E 
 3071      7400
 3072              	.LASF60:
 3073 04b4 725F6F6C 		.ascii	"r_older\000"
 3073      64657200 
 3074              	.LASF150:
 3075 04bc 5F646267 		.ascii	"_dbg_check_lock_from_isr\000"
 3075      5F636865 
 3075      636B5F6C 
 3075      6F636B5F 
 3075      66726F6D 
 3076              	.LASF11:
 3077 04d5 5F5F7569 		.ascii	"__uint64_t\000"
 3077      6E743634 
 3077      5F7400
 3078              	.LASF115:
 3079 04e0 63756D75 		.ascii	"cumulative\000"
 3079      6C617469 
 3079      766500
 3080              	.LASF21:
 3081 04eb 74726566 		.ascii	"trefs_t\000"
 3081      735F7400 
 3082              	.LASF108:
 3083 04f3 74625F62 		.ascii	"tb_buffer\000"
 3083      75666665 
 3083      7200
 3084              	.LASF145:
 3085 04fd 5F646267 		.ascii	"_dbg_check_disable\000"
 3085      5F636865 
 3085      636B5F64 
 3085      69736162 
 3085      6C6500
 3086              	.LASF63:
 3087 0510 76697274 		.ascii	"virtual_timer_t\000"
 3087      75616C5F 
 3087      74696D65 
 3087      725F7400 
 3088              	.LASF30:
 3089 0520 705F7072 		.ascii	"p_prev\000"
 3089      657600
 3090              	.LASF22:
 3091 0527 74707269 		.ascii	"tprio_t\000"
 3091      6F5F7400 
 3092              	.LASF118:
 3093 052f 6E5F6374 		.ascii	"n_ctxswc\000"
 3093      78737763 
 3093      00
 3094              	.LASF14:
ARM GAS  /tmp/ccR2RkNc.s 			page 60


 3095 0538 696E7433 		.ascii	"int32_t\000"
 3095      325F7400 
 3096              	.LASF2:
 3097 0540 756E7369 		.ascii	"unsigned char\000"
 3097      676E6564 
 3097      20636861 
 3097      7200
 3098              	.LASF156:
 3099 054e 5F646267 		.ascii	"_dbg_trace_init\000"
 3099      5F747261 
 3099      63655F69 
 3099      6E697400 
 3100              	.LASF44:
 3101 055e 705F6D74 		.ascii	"p_mtxlist\000"
 3101      786C6973 
 3101      7400
 3102              	.LASF3:
 3103 0568 73686F72 		.ascii	"short int\000"
 3103      7420696E 
 3103      7400
 3104              	.LASF37:
 3105 0572 705F7374 		.ascii	"p_state\000"
 3105      61746500 
 3106              	.LASF34:
 3107 057a 705F6F6C 		.ascii	"p_older\000"
 3107      64657200 
 3108              	.LASF57:
 3109 0582 725F7072 		.ascii	"r_prio\000"
 3109      696F00
 3110              	.LASF128:
 3111 0589 65776D61 		.ascii	"ewmask\000"
 3111      736B00
 3112              	.LASF29:
 3113 0590 705F6E65 		.ascii	"p_next\000"
 3113      787400
 3114              	.LASF38:
 3115 0597 705F666C 		.ascii	"p_flags\000"
 3115      61677300 
 3116              	.LASF47:
 3117 059f 705F7374 		.ascii	"p_stats\000"
 3117      61747300 
 3118              	.LASF64:
 3119 05a7 63685F76 		.ascii	"ch_virtual_timer\000"
 3119      69727475 
 3119      616C5F74 
 3119      696D6572 
 3119      00
 3120              	.LASF129:
 3121 05b8 63685F73 		.ascii	"ch_semaphore\000"
 3121      656D6170 
 3121      686F7265 
 3121      00
 3122              	.LASF99:
 3123 05c5 43435852 		.ascii	"CCXR\000"
 3123      00
 3124              	.LASF43:
 3125 05ca 705F6570 		.ascii	"p_epending\000"
ARM GAS  /tmp/ccR2RkNc.s 			page 61


 3125      656E6469 
 3125      6E6700
 3126              	.LASF142:
 3127 05d5 73745F6C 		.ascii	"st_lld_get_counter\000"
 3127      6C645F67 
 3127      65745F63 
 3127      6F756E74 
 3127      657200
 3128              	.LASF15:
 3129 05e8 75696E74 		.ascii	"uint32_t\000"
 3129      33325F74 
 3129      00
 3130              	.LASF127:
 3131 05f1 77746D74 		.ascii	"wtmtxp\000"
 3131      787000
 3132              	.LASF56:
 3133 05f8 725F7175 		.ascii	"r_queue\000"
 3133      65756500 
 3134              	.LASF67:
 3135 0600 76745F64 		.ascii	"vt_delta\000"
 3135      656C7461 
 3135      00
 3136              	.LASF51:
 3137 0609 63685F74 		.ascii	"ch_threads_list\000"
 3137      68726561 
 3137      64735F6C 
 3137      69737400 
 3138              	.LASF9:
 3139 0619 6C6F6E67 		.ascii	"long unsigned int\000"
 3139      20756E73 
 3139      69676E65 
 3139      6420696E 
 3139      7400
 3140              	.LASF136:
 3141 062b 63686172 		.ascii	"char\000"
 3141      00
 3142              	.LASF97:
 3143 0630 444D4152 		.ascii	"DMAR\000"
 3143      00
 3144              	.LASF141:
 3145 0635 706F7274 		.ascii	"port_unlock_from_isr\000"
 3145      5F756E6C 
 3145      6F636B5F 
 3145      66726F6D 
 3145      5F697372 
 3146              	.LASF28:
 3147 064a 74687265 		.ascii	"thread_t\000"
 3147      61645F74 
 3147      00
 3148              	.LASF112:
 3149 0653 62657374 		.ascii	"best\000"
 3149      00
 3150              	.LASF135:
 3151 0658 6D5F6E65 		.ascii	"m_next\000"
 3151      787400
 3152              	.LASF27:
 3153 065f 73797374 		.ascii	"systime_t\000"
ARM GAS  /tmp/ccR2RkNc.s 			page 62


 3153      696D655F 
 3153      7400
 3154              	.LASF45:
 3155 0669 705F7265 		.ascii	"p_realprio\000"
 3155      616C7072 
 3155      696F00
 3156              	.LASF62:
 3157 0674 76746675 		.ascii	"vtfunc_t\000"
 3157      6E635F74 
 3157      00
 3158              	.LASF8:
 3159 067d 5F5F7569 		.ascii	"__uint32_t\000"
 3159      6E743332 
 3159      5F7400
 3160              	.LASF160:
 3161 0688 5F5F7365 		.ascii	"__set_BASEPRI\000"
 3161      745F4241 
 3161      53455052 
 3161      4900
 3162              	.LASF75:
 3163 0696 70616E69 		.ascii	"panic_msg\000"
 3163      635F6D73 
 3163      6700
 3164              	.LASF110:
 3165 06a0 6F666673 		.ascii	"offset\000"
 3165      657400
 3166              	.LASF89:
 3167 06a7 636F6E74 		.ascii	"context\000"
 3167      65787400 
 3168              	.LASF162:
 3169 06af 5F646267 		.ascii	"_dbg_trace\000"
 3169      5F747261 
 3169      636500
 3170              	.LASF143:
 3171 06ba 706F7274 		.ascii	"port_timer_get_time\000"
 3171      5F74696D 
 3171      65725F67 
 3171      65745F74 
 3171      696D6500 
 3172              	.LASF17:
 3173 06ce 7274636E 		.ascii	"rtcnt_t\000"
 3173      745F7400 
 3174              	.LASF140:
 3175 06d6 706F7274 		.ascii	"port_lock_from_isr\000"
 3175      5F6C6F63 
 3175      6B5F6672 
 3175      6F6D5F69 
 3175      737200
 3176              	.LASF69:
 3177 06e9 76745F70 		.ascii	"vt_par\000"
 3177      617200
 3178              	.LASF151:
 3179 06f0 5F646267 		.ascii	"_dbg_check_unlock_from_isr\000"
 3179      5F636865 
 3179      636B5F75 
 3179      6E6C6F63 
 3179      6B5F6672 
ARM GAS  /tmp/ccR2RkNc.s 			page 63


 3180              	.LASF52:
 3181 070b 74687265 		.ascii	"threads_queue_t\000"
 3181      6164735F 
 3181      71756575 
 3181      655F7400 
 3182              	.LASF132:
 3183 071b 63685F6D 		.ascii	"ch_mutex\000"
 3183      75746578 
 3183      00
 3184              	.LASF39:
 3185 0724 705F7265 		.ascii	"p_refs\000"
 3185      667300
 3186              	.LASF76:
 3187 072b 6973725F 		.ascii	"isr_cnt\000"
 3187      636E7400 
 3188              	.LASF81:
 3189 0733 726C6973 		.ascii	"rlist\000"
 3189      7400
 3190              	.LASF13:
 3191 0739 75696E74 		.ascii	"uint8_t\000"
 3191      385F7400 
 3192              	.LASF149:
 3193 0741 5F646267 		.ascii	"_dbg_check_unlock\000"
 3193      5F636865 
 3193      636B5F75 
 3193      6E6C6F63 
 3193      6B00
 3194              	.LASF124:
 3195 0753 77746F62 		.ascii	"wtobjp\000"
 3195      6A7000
 3196              	.LASF35:
 3197 075a 705F6E61 		.ascii	"p_name\000"
 3197      6D6500
 3198              	.LASF49:
 3199 0761 74687265 		.ascii	"threads_list_t\000"
 3199      6164735F 
 3199      6C697374 
 3199      5F7400
 3200              	.LASF19:
 3201 0770 746D6F64 		.ascii	"tmode_t\000"
 3201      655F7400 
 3202              	.LASF78:
 3203 0778 74726163 		.ascii	"trace_buffer\000"
 3203      655F6275 
 3203      66666572 
 3203      00
 3204              	.LASF42:
 3205 0785 705F6D73 		.ascii	"p_msg\000"
 3205      6700
 3206              	.LASF119:
 3207 078b 6D5F6372 		.ascii	"m_crit_thd\000"
 3207      69745F74 
 3207      686400
 3208              	.LASF134:
 3209 0796 6D5F6F77 		.ascii	"m_owner\000"
 3209      6E657200 
 3210              	.LASF103:
ARM GAS  /tmp/ccR2RkNc.s 			page 64


 3211 079e 73655F77 		.ascii	"se_wtobjp\000"
 3211      746F626A 
 3211      7000
 3212              	.LASF32:
 3213 07a8 705F6374 		.ascii	"p_ctx\000"
 3213      7800
 3214              	.LASF68:
 3215 07ae 76745F66 		.ascii	"vt_func\000"
 3215      756E6300 
 3216              		.ident	"GCC: (4.8.4-1+11-1) 4.8.4 20141219 (release)"
ARM GAS  /tmp/ccR2RkNc.s 			page 65


DEFINED SYMBOLS
                            *ABS*:0000000000000000 chdebug.c
     /tmp/ccR2RkNc.s:19     .text.port_lock:0000000000000000 $t
     /tmp/ccR2RkNc.s:24     .text.port_lock:0000000000000000 port_lock
     /tmp/ccR2RkNc.s:55     .text.port_unlock:0000000000000000 $t
     /tmp/ccR2RkNc.s:60     .text.port_unlock:0000000000000000 port_unlock
     /tmp/ccR2RkNc.s:89     .text.port_lock_from_isr:0000000000000000 $t
     /tmp/ccR2RkNc.s:94     .text.port_lock_from_isr:0000000000000000 port_lock_from_isr
     /tmp/ccR2RkNc.s:112    .text.port_unlock_from_isr:0000000000000000 $t
     /tmp/ccR2RkNc.s:117    .text.port_unlock_from_isr:0000000000000000 port_unlock_from_isr
     /tmp/ccR2RkNc.s:135    .text.st_lld_get_counter:0000000000000000 $t
     /tmp/ccR2RkNc.s:140    .text.st_lld_get_counter:0000000000000000 st_lld_get_counter
     /tmp/ccR2RkNc.s:158    .text.port_timer_get_time:0000000000000000 $t
     /tmp/ccR2RkNc.s:163    .text.port_timer_get_time:0000000000000000 port_timer_get_time
     /tmp/ccR2RkNc.s:184    .text.chVTGetSystemTimeX:0000000000000000 $t
     /tmp/ccR2RkNc.s:189    .text.chVTGetSystemTimeX:0000000000000000 chVTGetSystemTimeX
     /tmp/ccR2RkNc.s:210    .rodata:0000000000000000 $d
     /tmp/ccR2RkNc.s:214    .text._dbg_check_disable:0000000000000000 $t
     /tmp/ccR2RkNc.s:220    .text._dbg_check_disable:0000000000000000 _dbg_check_disable
     /tmp/ccR2RkNc.s:251    .text._dbg_check_disable:000000000000001c $d
     /tmp/ccR2RkNc.s:261    .text._dbg_check_suspend:0000000000000000 $t
     /tmp/ccR2RkNc.s:267    .text._dbg_check_suspend:0000000000000000 _dbg_check_suspend
     /tmp/ccR2RkNc.s:297    .text._dbg_check_suspend:000000000000001c $d
     /tmp/ccR2RkNc.s:307    .text._dbg_check_enable:0000000000000000 $t
     /tmp/ccR2RkNc.s:313    .text._dbg_check_enable:0000000000000000 _dbg_check_enable
     /tmp/ccR2RkNc.s:343    .text._dbg_check_enable:000000000000001c $d
     /tmp/ccR2RkNc.s:353    .text._dbg_check_lock:0000000000000000 $t
     /tmp/ccR2RkNc.s:359    .text._dbg_check_lock:0000000000000000 _dbg_check_lock
     /tmp/ccR2RkNc.s:393    .text._dbg_check_lock:0000000000000020 $d
     /tmp/ccR2RkNc.s:403    .text._dbg_check_unlock:0000000000000000 $t
     /tmp/ccR2RkNc.s:409    .text._dbg_check_unlock:0000000000000000 _dbg_check_unlock
     /tmp/ccR2RkNc.s:443    .text._dbg_check_unlock:0000000000000020 $d
     /tmp/ccR2RkNc.s:453    .text._dbg_check_lock_from_isr:0000000000000000 $t
     /tmp/ccR2RkNc.s:459    .text._dbg_check_lock_from_isr:0000000000000000 _dbg_check_lock_from_isr
     /tmp/ccR2RkNc.s:493    .text._dbg_check_lock_from_isr:0000000000000020 $d
     /tmp/ccR2RkNc.s:503    .text._dbg_check_unlock_from_isr:0000000000000000 $t
     /tmp/ccR2RkNc.s:509    .text._dbg_check_unlock_from_isr:0000000000000000 _dbg_check_unlock_from_isr
     /tmp/ccR2RkNc.s:543    .text._dbg_check_unlock_from_isr:0000000000000020 $d
     /tmp/ccR2RkNc.s:553    .text._dbg_check_enter_isr:0000000000000000 $t
     /tmp/ccR2RkNc.s:559    .text._dbg_check_enter_isr:0000000000000000 _dbg_check_enter_isr
     /tmp/ccR2RkNc.s:599    .text._dbg_check_enter_isr:000000000000002c $d
     /tmp/ccR2RkNc.s:609    .text._dbg_check_leave_isr:0000000000000000 $t
     /tmp/ccR2RkNc.s:615    .text._dbg_check_leave_isr:0000000000000000 _dbg_check_leave_isr
     /tmp/ccR2RkNc.s:655    .text._dbg_check_leave_isr:000000000000002c $d
     /tmp/ccR2RkNc.s:665    .text.chDbgCheckClassI:0000000000000000 $t
     /tmp/ccR2RkNc.s:671    .text.chDbgCheckClassI:0000000000000000 chDbgCheckClassI
     /tmp/ccR2RkNc.s:701    .text.chDbgCheckClassI:000000000000001c $d
     /tmp/ccR2RkNc.s:711    .text.chDbgCheckClassS:0000000000000000 $t
     /tmp/ccR2RkNc.s:717    .text.chDbgCheckClassS:0000000000000000 chDbgCheckClassS
     /tmp/ccR2RkNc.s:747    .text.chDbgCheckClassS:000000000000001c $d
     /tmp/ccR2RkNc.s:753    .text._dbg_trace_init:0000000000000000 $t
     /tmp/ccR2RkNc.s:759    .text._dbg_trace_init:0000000000000000 _dbg_trace_init
     /tmp/ccR2RkNc.s:779    .text._dbg_trace_init:0000000000000010 $d
     /tmp/ccR2RkNc.s:785    .text._dbg_trace:0000000000000000 $t
     /tmp/ccR2RkNc.s:791    .text._dbg_trace:0000000000000000 _dbg_trace
     /tmp/ccR2RkNc.s:851    .text._dbg_trace:0000000000000054 $d
                     .debug_frame:0000000000000010 $d
ARM GAS  /tmp/ccR2RkNc.s 			page 66


     /tmp/ccR2RkNc.s:256    .text._dbg_check_disable:0000000000000024 $t
     /tmp/ccR2RkNc.s:302    .text._dbg_check_suspend:0000000000000024 $t
     /tmp/ccR2RkNc.s:348    .text._dbg_check_enable:0000000000000024 $t
     /tmp/ccR2RkNc.s:398    .text._dbg_check_lock:0000000000000028 $t
     /tmp/ccR2RkNc.s:448    .text._dbg_check_unlock:0000000000000028 $t
     /tmp/ccR2RkNc.s:498    .text._dbg_check_lock_from_isr:0000000000000028 $t
     /tmp/ccR2RkNc.s:548    .text._dbg_check_unlock_from_isr:0000000000000028 $t
     /tmp/ccR2RkNc.s:604    .text._dbg_check_enter_isr:0000000000000034 $t
     /tmp/ccR2RkNc.s:660    .text._dbg_check_leave_isr:0000000000000034 $t
     /tmp/ccR2RkNc.s:706    .text.chDbgCheckClassI:0000000000000024 $t
     /tmp/ccR2RkNc.s:752    .text.chDbgCheckClassS:0000000000000024 $t
     /tmp/ccR2RkNc.s:784    .text._dbg_trace_init:0000000000000018 $t

UNDEFINED SYMBOLS
chSysHalt
ch
