ARM GAS  /tmp/cc3EapMx.s 			page 1


   1              		.syntax unified
   2              		.cpu cortex-m4
   3              		.fpu softvfp
   4              		.eabi_attribute 20, 1
   5              		.eabi_attribute 21, 1
   6              		.eabi_attribute 23, 3
   7              		.eabi_attribute 24, 1
   8              		.eabi_attribute 25, 1
   9              		.eabi_attribute 26, 1
  10              		.eabi_attribute 30, 6
  11              		.eabi_attribute 34, 1
  12              		.eabi_attribute 18, 4
  13              		.thumb
  14              		.file	"chdynamic.c"
  15              		.text
  16              	.Ltext0:
  17              		.cfi_sections	.debug_frame
  18              		.section	.text.port_lock,"ax",%progbits
  19              		.align	2
  20              		.p2align 4,,15
  21              		.thumb
  22              		.thumb_func
  23              		.type	port_lock, %function
  24              	port_lock:
  25              	.LFB127:
  26              		.file 1 "/home/efe/ChibiOS/os/rt/ports/ARMCMx/chcore_v7m.h"
  27              		.loc 1 456 0
  28              		.cfi_startproc
  29              		@ args = 0, pretend = 0, frame = 8
  30              		@ frame_needed = 0, uses_anonymous_args = 0
  31              		@ link register save eliminated.
  32 0000 82B0     		sub	sp, sp, #8
  33              		.cfi_def_cfa_offset 8
  34 0002 2023     		movs	r3, #32
  35 0004 0193     		str	r3, [sp, #4]
  36              	.LBB6:
  37              	.LBB7:
  38              		.file 2 "/home/efe/ChibiOS/os/ext/CMSIS/include/core_cmFunc.h"
  39              		.loc 2 548 0
  40 0006 019B     		ldr	r3, [sp, #4]
  41              	@ 548 "/home/efe/ChibiOS/os/ext/CMSIS/include/core_cmFunc.h" 1
  42 0008 83F31188 		MSR basepri, r3
  43              	@ 0 "" 2
  44              		.thumb
  45              	.LBE7:
  46              	.LBE6:
  47              		.loc 1 463 0
  48 000c 02B0     		add	sp, sp, #8
  49              		@ sp needed
  50 000e 7047     		bx	lr
  51              		.cfi_endproc
  52              	.LFE127:
  53              		.size	port_lock, .-port_lock
  54              		.section	.text.port_unlock,"ax",%progbits
  55              		.align	2
  56              		.p2align 4,,15
  57              		.thumb
ARM GAS  /tmp/cc3EapMx.s 			page 2


  58              		.thumb_func
  59              		.type	port_unlock, %function
  60              	port_unlock:
  61              	.LFB128:
  62              		.loc 1 470 0
  63              		.cfi_startproc
  64              		@ args = 0, pretend = 0, frame = 8
  65              		@ frame_needed = 0, uses_anonymous_args = 0
  66              		@ link register save eliminated.
  67 0000 82B0     		sub	sp, sp, #8
  68              		.cfi_def_cfa_offset 8
  69 0002 0023     		movs	r3, #0
  70 0004 0193     		str	r3, [sp, #4]
  71              	.LBB8:
  72              	.LBB9:
  73              		.loc 2 548 0
  74 0006 019B     		ldr	r3, [sp, #4]
  75              	@ 548 "/home/efe/ChibiOS/os/ext/CMSIS/include/core_cmFunc.h" 1
  76 0008 83F31188 		MSR basepri, r3
  77              	@ 0 "" 2
  78              		.thumb
  79              	.LBE9:
  80              	.LBE8:
  81              		.loc 1 477 0
  82 000c 02B0     		add	sp, sp, #8
  83              		@ sp needed
  84 000e 7047     		bx	lr
  85              		.cfi_endproc
  86              	.LFE128:
  87              		.size	port_unlock, .-port_unlock
  88              		.section	.text.chSysLock,"ax",%progbits
  89              		.align	2
  90              		.p2align 4,,15
  91              		.thumb
  92              		.thumb_func
  93              		.type	chSysLock, %function
  94              	chSysLock:
  95              	.LFB167:
  96              		.file 3 "/home/efe/ChibiOS/os/rt/include/chsys.h"
  97              		.loc 3 346 0
  98              		.cfi_startproc
  99              		@ args = 0, pretend = 0, frame = 0
 100              		@ frame_needed = 0, uses_anonymous_args = 0
 101 0000 08B5     		push	{r3, lr}
 102              		.cfi_def_cfa_offset 8
 103              		.cfi_offset 3, -8
 104              		.cfi_offset 14, -4
 105              		.loc 3 348 0
 106 0002 FFF7FEFF 		bl	port_lock
 107              		.loc 3 349 0
 108 0006 FFF7FEFF 		bl	_stats_start_measure_crit_thd
 109              		.loc 3 350 0
 110 000a FFF7FEFF 		bl	_dbg_check_lock
 111              		.loc 3 351 0
 112 000e 08BD     		pop	{r3, pc}
 113              		.cfi_endproc
 114              	.LFE167:
ARM GAS  /tmp/cc3EapMx.s 			page 3


 115              		.size	chSysLock, .-chSysLock
 116              		.section	.text.chSysUnlock,"ax",%progbits
 117              		.align	2
 118              		.p2align 4,,15
 119              		.thumb
 120              		.thumb_func
 121              		.type	chSysUnlock, %function
 122              	chSysUnlock:
 123              	.LFB168:
 124              		.loc 3 358 0
 125              		.cfi_startproc
 126              		@ args = 0, pretend = 0, frame = 0
 127              		@ frame_needed = 0, uses_anonymous_args = 0
 128 0000 08B5     		push	{r3, lr}
 129              		.cfi_def_cfa_offset 8
 130              		.cfi_offset 3, -8
 131              		.cfi_offset 14, -4
 132              		.loc 3 360 0
 133 0002 FFF7FEFF 		bl	_dbg_check_unlock
 134              		.loc 3 361 0
 135 0006 FFF7FEFF 		bl	_stats_stop_measure_crit_thd
 136              		.loc 3 367 0
 137 000a 094B     		ldr	r3, .L6
 138 000c 1A68     		ldr	r2, [r3]
 139 000e 084B     		ldr	r3, .L6
 140 0010 9A42     		cmp	r2, r3
 141 0012 0AD0     		beq	.L5
 142              		.loc 3 367 0 is_stmt 0 discriminator 1
 143 0014 064B     		ldr	r3, .L6
 144 0016 9B69     		ldr	r3, [r3, #24]
 145 0018 9A68     		ldr	r2, [r3, #8]
 146 001a 054B     		ldr	r3, .L6
 147 001c 1B68     		ldr	r3, [r3]
 148 001e 9B68     		ldr	r3, [r3, #8]
 149 0020 9A42     		cmp	r2, r3
 150 0022 02D2     		bcs	.L5
 151 0024 0348     		ldr	r0, .L6+4
 152 0026 FFF7FEFF 		bl	chSysHalt
 153              	.L5:
 154              		.loc 3 371 0 is_stmt 1
 155 002a FFF7FEFF 		bl	port_unlock
 156              		.loc 3 372 0
 157 002e 08BD     		pop	{r3, pc}
 158              	.L7:
 159              		.align	2
 160              	.L6:
 161 0030 00000000 		.word	ch
 162 0034 00000000 		.word	__func__.5925
 163              		.cfi_endproc
 164              	.LFE168:
 165              		.size	chSysUnlock, .-chSysUnlock
 166 0038 AFF30080 		.section	.text.chThdAddRef,"ax",%progbits
 166      AFF30080 
 167              		.align	2
 168              		.p2align 4,,15
 169              		.global	chThdAddRef
 170              		.thumb
ARM GAS  /tmp/cc3EapMx.s 			page 4


 171              		.thumb_func
 172              		.type	chThdAddRef, %function
 173              	chThdAddRef:
 174              	.LFB240:
 175              		.file 4 "/home/efe/ChibiOS/os/rt/src/chdynamic.c"
 176              		.loc 4 68 0
 177              		.cfi_startproc
 178              		@ args = 0, pretend = 0, frame = 8
 179              		@ frame_needed = 0, uses_anonymous_args = 0
 180 0000 00B5     		push	{lr}
 181              		.cfi_def_cfa_offset 4
 182              		.cfi_offset 14, -4
 183 0002 83B0     		sub	sp, sp, #12
 184              		.cfi_def_cfa_offset 16
 185 0004 0190     		str	r0, [sp, #4]
 186              		.loc 4 70 0
 187 0006 FFF7FEFF 		bl	chSysLock
 188              		.loc 4 71 0
 189 000a 019B     		ldr	r3, [sp, #4]
 190 000c 93F82230 		ldrb	r3, [r3, #34]	@ zero_extendqisi2
 191 0010 FF2B     		cmp	r3, #255
 192 0012 02D1     		bne	.L9
 193              		.loc 4 71 0 is_stmt 0 discriminator 1
 194 0014 0848     		ldr	r0, .L11
 195 0016 FFF7FEFF 		bl	chSysHalt
 196              	.L9:
 197              		.loc 4 72 0 is_stmt 1
 198 001a 019B     		ldr	r3, [sp, #4]
 199 001c 93F82230 		ldrb	r3, [r3, #34]	@ zero_extendqisi2
 200 0020 0133     		adds	r3, r3, #1
 201 0022 DAB2     		uxtb	r2, r3
 202 0024 019B     		ldr	r3, [sp, #4]
 203 0026 83F82220 		strb	r2, [r3, #34]
 204              		.loc 4 73 0
 205 002a FFF7FEFF 		bl	chSysUnlock
 206              		.loc 4 75 0
 207 002e 019B     		ldr	r3, [sp, #4]
 208              		.loc 4 76 0
 209 0030 1846     		mov	r0, r3
 210 0032 03B0     		add	sp, sp, #12
 211              		@ sp needed
 212 0034 5DF804FB 		ldr	pc, [sp], #4
 213              	.L12:
 214              		.align	2
 215              	.L11:
 216 0038 00000000 		.word	__func__.6620
 217              		.cfi_endproc
 218              	.LFE240:
 219              		.size	chThdAddRef, .-chThdAddRef
 220 003c AFF30080 		.section	.text.chThdRelease,"ax",%progbits
 221              		.align	2
 222              		.p2align 4,,15
 223              		.global	chThdRelease
 224              		.thumb
 225              		.thumb_func
 226              		.type	chThdRelease, %function
 227              	chThdRelease:
ARM GAS  /tmp/cc3EapMx.s 			page 5


 228              	.LFB241:
 229              		.loc 4 91 0
 230              		.cfi_startproc
 231              		@ args = 0, pretend = 0, frame = 16
 232              		@ frame_needed = 0, uses_anonymous_args = 0
 233 0000 00B5     		push	{lr}
 234              		.cfi_def_cfa_offset 4
 235              		.cfi_offset 14, -4
 236 0002 85B0     		sub	sp, sp, #20
 237              		.cfi_def_cfa_offset 24
 238 0004 0190     		str	r0, [sp, #4]
 239              		.loc 4 94 0
 240 0006 FFF7FEFF 		bl	chSysLock
 241              		.loc 4 95 0
 242 000a 019B     		ldr	r3, [sp, #4]
 243 000c 93F82230 		ldrb	r3, [r3, #34]	@ zero_extendqisi2
 244 0010 002B     		cmp	r3, #0
 245 0012 02D1     		bne	.L14
 246              		.loc 4 95 0 is_stmt 0 discriminator 1
 247 0014 2348     		ldr	r0, .L19
 248 0016 FFF7FEFF 		bl	chSysHalt
 249              	.L14:
 250              		.loc 4 96 0 is_stmt 1
 251 001a 019B     		ldr	r3, [sp, #4]
 252 001c 93F82230 		ldrb	r3, [r3, #34]	@ zero_extendqisi2
 253 0020 013B     		subs	r3, r3, #1
 254 0022 DAB2     		uxtb	r2, r3
 255 0024 019B     		ldr	r3, [sp, #4]
 256 0026 83F82220 		strb	r2, [r3, #34]
 257              		.loc 4 97 0
 258 002a 019B     		ldr	r3, [sp, #4]
 259 002c 93F82230 		ldrb	r3, [r3, #34]
 260 0030 8DF80F30 		strb	r3, [sp, #15]
 261              		.loc 4 98 0
 262 0034 FFF7FEFF 		bl	chSysUnlock
 263              		.loc 4 103 0
 264 0038 9DF80F30 		ldrb	r3, [sp, #15]	@ zero_extendqisi2
 265 003c 002B     		cmp	r3, #0
 266 003e 2DD1     		bne	.L13
 267              		.loc 4 103 0 is_stmt 0 discriminator 1
 268 0040 019B     		ldr	r3, [sp, #4]
 269 0042 93F82030 		ldrb	r3, [r3, #32]	@ zero_extendqisi2
 270 0046 0F2B     		cmp	r3, #15
 271 0048 28D1     		bne	.L13
 272              		.loc 4 104 0 is_stmt 1
 273 004a 019B     		ldr	r3, [sp, #4]
 274 004c 93F82130 		ldrb	r3, [r3, #33]	@ zero_extendqisi2
 275 0050 03F00303 		and	r3, r3, #3
 276 0054 012B     		cmp	r3, #1
 277 0056 02D0     		beq	.L17
 278 0058 022B     		cmp	r3, #2
 279 005a 0ED0     		beq	.L18
 280              		.loc 4 124 0
 281 005c 1EE0     		b	.L13
 282              	.L17:
 283              		.loc 4 108 0
 284 005e 019B     		ldr	r3, [sp, #4]
ARM GAS  /tmp/cc3EapMx.s 			page 6


 285 0060 5B69     		ldr	r3, [r3, #20]
 286 0062 019A     		ldr	r2, [sp, #4]
 287 0064 1269     		ldr	r2, [r2, #16]
 288 0066 1A61     		str	r2, [r3, #16]
 289 0068 019B     		ldr	r3, [sp, #4]
 290 006a 1B69     		ldr	r3, [r3, #16]
 291 006c 019A     		ldr	r2, [sp, #4]
 292 006e 5269     		ldr	r2, [r2, #20]
 293 0070 5A61     		str	r2, [r3, #20]
 294              		.loc 4 110 0
 295 0072 0198     		ldr	r0, [sp, #4]
 296 0074 FFF7FEFF 		bl	chHeapFree
 297              		.loc 4 111 0
 298 0078 10E0     		b	.L13
 299              	.L18:
 300              		.loc 4 116 0
 301 007a 019B     		ldr	r3, [sp, #4]
 302 007c 5B69     		ldr	r3, [r3, #20]
 303 007e 019A     		ldr	r2, [sp, #4]
 304 0080 1269     		ldr	r2, [r2, #16]
 305 0082 1A61     		str	r2, [r3, #16]
 306 0084 019B     		ldr	r3, [sp, #4]
 307 0086 1B69     		ldr	r3, [r3, #16]
 308 0088 019A     		ldr	r2, [sp, #4]
 309 008a 5269     		ldr	r2, [r2, #20]
 310 008c 5A61     		str	r2, [r3, #20]
 311              		.loc 4 118 0
 312 008e 019B     		ldr	r3, [sp, #4]
 313 0090 5B6C     		ldr	r3, [r3, #68]
 314 0092 1846     		mov	r0, r3
 315 0094 0199     		ldr	r1, [sp, #4]
 316 0096 FFF7FEFF 		bl	chPoolFree
 317              		.loc 4 119 0
 318 009a 00BF     		nop
 319              	.L13:
 320              		.loc 4 127 0
 321 009c 05B0     		add	sp, sp, #20
 322              		@ sp needed
 323 009e 5DF804FB 		ldr	pc, [sp], #4
 324              	.L20:
 325 00a2 00BF     		.align	2
 326              	.L19:
 327 00a4 00000000 		.word	__func__.6625
 328              		.cfi_endproc
 329              	.LFE241:
 330              		.size	chThdRelease, .-chThdRelease
 331 00a8 AFF30080 		.section	.text.chThdCreateFromHeap,"ax",%progbits
 331      AFF30080 
 332              		.align	2
 333              		.p2align 4,,15
 334              		.global	chThdCreateFromHeap
 335              		.thumb
 336              		.thumb_func
 337              		.type	chThdCreateFromHeap, %function
 338              	chThdCreateFromHeap:
 339              	.LFB242:
 340              		.loc 4 153 0
ARM GAS  /tmp/cc3EapMx.s 			page 7


 341              		.cfi_startproc
 342              		@ args = 4, pretend = 0, frame = 24
 343              		@ frame_needed = 0, uses_anonymous_args = 0
 344 0000 00B5     		push	{lr}
 345              		.cfi_def_cfa_offset 4
 346              		.cfi_offset 14, -4
 347 0002 89B0     		sub	sp, sp, #36
 348              		.cfi_def_cfa_offset 40
 349 0004 0590     		str	r0, [sp, #20]
 350 0006 0491     		str	r1, [sp, #16]
 351 0008 0392     		str	r2, [sp, #12]
 352 000a 0293     		str	r3, [sp, #8]
 353              		.loc 4 157 0
 354 000c 0598     		ldr	r0, [sp, #20]
 355 000e 0499     		ldr	r1, [sp, #16]
 356 0010 FFF7FEFF 		bl	chHeapAlloc
 357 0014 0790     		str	r0, [sp, #28]
 358              		.loc 4 158 0
 359 0016 079B     		ldr	r3, [sp, #28]
 360 0018 002B     		cmp	r3, #0
 361 001a 01D1     		bne	.L22
 362              		.loc 4 159 0
 363 001c 0023     		movs	r3, #0
 364 001e 27E0     		b	.L23
 365              	.L22:
 366              		.loc 4 163 0
 367 0020 079B     		ldr	r3, [sp, #28]
 368 0022 6033     		adds	r3, r3, #96
 369 0024 0798     		ldr	r0, [sp, #28]
 370 0026 1946     		mov	r1, r3
 371 0028 FF22     		movs	r2, #255
 372 002a FFF7FEFF 		bl	_thread_memfill
 373              		.loc 4 166 0
 374 002e 079B     		ldr	r3, [sp, #28]
 375 0030 03F16002 		add	r2, r3, #96
 376 0034 0799     		ldr	r1, [sp, #28]
 377 0036 049B     		ldr	r3, [sp, #16]
 378 0038 0B44     		add	r3, r3, r1
 379 003a 1046     		mov	r0, r2
 380 003c 1946     		mov	r1, r3
 381 003e 5522     		movs	r2, #85
 382 0040 FFF7FEFF 		bl	_thread_memfill
 383              		.loc 4 171 0
 384 0044 FFF7FEFF 		bl	chSysLock
 385              		.loc 4 172 0
 386 0048 0A9B     		ldr	r3, [sp, #40]
 387 004a 0093     		str	r3, [sp]
 388 004c 0798     		ldr	r0, [sp, #28]
 389 004e 0499     		ldr	r1, [sp, #16]
 390 0050 039A     		ldr	r2, [sp, #12]
 391 0052 029B     		ldr	r3, [sp, #8]
 392 0054 FFF7FEFF 		bl	chThdCreateI
 393 0058 0690     		str	r0, [sp, #24]
 394              		.loc 4 173 0
 395 005a 069B     		ldr	r3, [sp, #24]
 396 005c 0122     		movs	r2, #1
 397 005e 83F82120 		strb	r2, [r3, #33]
ARM GAS  /tmp/cc3EapMx.s 			page 8


 398              		.loc 4 174 0
 399 0062 0698     		ldr	r0, [sp, #24]
 400 0064 0021     		movs	r1, #0
 401 0066 FFF7FEFF 		bl	chSchWakeupS
 402              		.loc 4 175 0
 403 006a FFF7FEFF 		bl	chSysUnlock
 404              		.loc 4 177 0
 405 006e 069B     		ldr	r3, [sp, #24]
 406              	.L23:
 407              		.loc 4 178 0
 408 0070 1846     		mov	r0, r3
 409 0072 09B0     		add	sp, sp, #36
 410              		@ sp needed
 411 0074 5DF804FB 		ldr	pc, [sp], #4
 412              		.cfi_endproc
 413              	.LFE242:
 414              		.size	chThdCreateFromHeap, .-chThdCreateFromHeap
 415 0078 AFF30080 		.section	.text.chThdCreateFromMemoryPool,"ax",%progbits
 415      AFF30080 
 416              		.align	2
 417              		.p2align 4,,15
 418              		.global	chThdCreateFromMemoryPool
 419              		.thumb
 420              		.thumb_func
 421              		.type	chThdCreateFromMemoryPool, %function
 422              	chThdCreateFromMemoryPool:
 423              	.LFB243:
 424              		.loc 4 205 0
 425              		.cfi_startproc
 426              		@ args = 0, pretend = 0, frame = 24
 427              		@ frame_needed = 0, uses_anonymous_args = 0
 428 0000 00B5     		push	{lr}
 429              		.cfi_def_cfa_offset 4
 430              		.cfi_offset 14, -4
 431 0002 89B0     		sub	sp, sp, #36
 432              		.cfi_def_cfa_offset 40
 433 0004 0590     		str	r0, [sp, #20]
 434 0006 0491     		str	r1, [sp, #16]
 435 0008 0392     		str	r2, [sp, #12]
 436 000a 0293     		str	r3, [sp, #8]
 437              		.loc 4 209 0
 438 000c 059B     		ldr	r3, [sp, #20]
 439 000e 002B     		cmp	r3, #0
 440 0010 02D1     		bne	.L25
 441              		.loc 4 209 0 is_stmt 0 discriminator 1
 442 0012 1F48     		ldr	r0, .L28
 443 0014 FFF7FEFF 		bl	chSysHalt
 444              	.L25:
 445              		.loc 4 211 0 is_stmt 1
 446 0018 0598     		ldr	r0, [sp, #20]
 447 001a FFF7FEFF 		bl	chPoolAlloc
 448 001e 0790     		str	r0, [sp, #28]
 449              		.loc 4 212 0
 450 0020 079B     		ldr	r3, [sp, #28]
 451 0022 002B     		cmp	r3, #0
 452 0024 01D1     		bne	.L26
 453              		.loc 4 213 0
ARM GAS  /tmp/cc3EapMx.s 			page 9


 454 0026 0023     		movs	r3, #0
 455 0028 2DE0     		b	.L27
 456              	.L26:
 457              		.loc 4 217 0
 458 002a 079B     		ldr	r3, [sp, #28]
 459 002c 6033     		adds	r3, r3, #96
 460 002e 0798     		ldr	r0, [sp, #28]
 461 0030 1946     		mov	r1, r3
 462 0032 FF22     		movs	r2, #255
 463 0034 FFF7FEFF 		bl	_thread_memfill
 464              		.loc 4 220 0
 465 0038 079B     		ldr	r3, [sp, #28]
 466 003a 03F16002 		add	r2, r3, #96
 467              		.loc 4 221 0
 468 003e 059B     		ldr	r3, [sp, #20]
 469 0040 5B68     		ldr	r3, [r3, #4]
 470              		.loc 4 220 0
 471 0042 0799     		ldr	r1, [sp, #28]
 472 0044 0B44     		add	r3, r3, r1
 473 0046 1046     		mov	r0, r2
 474 0048 1946     		mov	r1, r3
 475 004a 5522     		movs	r2, #85
 476 004c FFF7FEFF 		bl	_thread_memfill
 477              		.loc 4 225 0
 478 0050 FFF7FEFF 		bl	chSysLock
 479              		.loc 4 226 0
 480 0054 059B     		ldr	r3, [sp, #20]
 481 0056 5B68     		ldr	r3, [r3, #4]
 482 0058 029A     		ldr	r2, [sp, #8]
 483 005a 0092     		str	r2, [sp]
 484 005c 0798     		ldr	r0, [sp, #28]
 485 005e 1946     		mov	r1, r3
 486 0060 049A     		ldr	r2, [sp, #16]
 487 0062 039B     		ldr	r3, [sp, #12]
 488 0064 FFF7FEFF 		bl	chThdCreateI
 489 0068 0690     		str	r0, [sp, #24]
 490              		.loc 4 227 0
 491 006a 069B     		ldr	r3, [sp, #24]
 492 006c 0222     		movs	r2, #2
 493 006e 83F82120 		strb	r2, [r3, #33]
 494              		.loc 4 228 0
 495 0072 069B     		ldr	r3, [sp, #24]
 496 0074 059A     		ldr	r2, [sp, #20]
 497 0076 5A64     		str	r2, [r3, #68]
 498              		.loc 4 229 0
 499 0078 0698     		ldr	r0, [sp, #24]
 500 007a 0021     		movs	r1, #0
 501 007c FFF7FEFF 		bl	chSchWakeupS
 502              		.loc 4 230 0
 503 0080 FFF7FEFF 		bl	chSysUnlock
 504              		.loc 4 232 0
 505 0084 069B     		ldr	r3, [sp, #24]
 506              	.L27:
 507              		.loc 4 233 0
 508 0086 1846     		mov	r0, r3
 509 0088 09B0     		add	sp, sp, #36
 510              		@ sp needed
ARM GAS  /tmp/cc3EapMx.s 			page 10


 511 008a 5DF804FB 		ldr	pc, [sp], #4
 512              	.L29:
 513 008e 00BF     		.align	2
 514              	.L28:
 515 0090 00000000 		.word	__func__.6647
 516              		.cfi_endproc
 517              	.LFE243:
 518              		.size	chThdCreateFromMemoryPool, .-chThdCreateFromMemoryPool
 519 0094 AFF30080 		.section	.rodata.__func__.6620,"a",%progbits
 519      AFF30080 
 519      AFF30080 
 520              		.align	2
 521              		.type	__func__.6620, %object
 522              		.size	__func__.6620, 12
 523              	__func__.6620:
 524 0000 63685468 		.ascii	"chThdAddRef\000"
 524      64416464 
 524      52656600 
 525              		.section	.rodata.__func__.5925,"a",%progbits
 526              		.align	2
 527              		.type	__func__.5925, %object
 528              		.size	__func__.5925, 12
 529              	__func__.5925:
 530 0000 63685379 		.ascii	"chSysUnlock\000"
 530      73556E6C 
 530      6F636B00 
 531              		.section	.rodata.__func__.6625,"a",%progbits
 532              		.align	2
 533              		.type	__func__.6625, %object
 534              		.size	__func__.6625, 13
 535              	__func__.6625:
 536 0000 63685468 		.ascii	"chThdRelease\000"
 536      6452656C 
 536      65617365 
 536      00
 537 000d 000000   		.section	.rodata.__func__.6647,"a",%progbits
 538              		.align	2
 539              		.type	__func__.6647, %object
 540              		.size	__func__.6647, 26
 541              	__func__.6647:
 542 0000 63685468 		.ascii	"chThdCreateFromMemoryPool\000"
 542      64437265 
 542      61746546 
 542      726F6D4D 
 542      656D6F72 
 543 001a 0000     		.text
 544              	.Letext0:
 545              		.file 5 "/usr/lib/gcc/arm-none-eabi/4.8/include/stddef.h"
 546              		.file 6 "/usr/include/newlib/machine/_default_types.h"
 547              		.file 7 "/usr/include/newlib/stdint.h"
 548              		.file 8 "/home/efe/ChibiOS/os/rt/ports/ARMCMx/compilers/GCC/chtypes.h"
 549              		.file 9 "/home/efe/ChibiOS/os/rt/include/chsystypes.h"
 550              		.file 10 "/home/efe/ChibiOS/os/rt/include/chschd.h"
 551              		.file 11 "/home/efe/ChibiOS/os/rt/ports/ARMCMx/chcore.h"
 552              		.file 12 "/home/efe/ChibiOS/os/rt/include/chdebug.h"
 553              		.file 13 "/home/efe/ChibiOS/os/rt/include/chtm.h"
 554              		.file 14 "/home/efe/ChibiOS/os/rt/include/chstats.h"
ARM GAS  /tmp/cc3EapMx.s 			page 11


 555              		.file 15 "/home/efe/ChibiOS/os/rt/include/chsem.h"
 556              		.file 16 "/home/efe/ChibiOS/os/rt/include/chmtx.h"
 557              		.file 17 "/home/efe/ChibiOS/os/rt/include/chthreads.h"
 558              		.file 18 "/home/efe/ChibiOS/os/rt/include/chmemcore.h"
 559              		.file 19 "/home/efe/ChibiOS/os/rt/include/chheap.h"
 560              		.file 20 "/home/efe/ChibiOS/os/rt/include/chmempools.h"
 561              		.file 21 "/home/efe/ChibiOS/os/ext/CMSIS/include/core_cm4.h"