ARM GAS  /tmp/cceWPl9e.s 			page 1


   1              		.syntax unified
   2              		.cpu cortex-m4
   3              		.fpu softvfp
   4              		.eabi_attribute 20, 1
   5              		.eabi_attribute 21, 1
   6              		.eabi_attribute 23, 3
   7              		.eabi_attribute 24, 1
   8              		.eabi_attribute 25, 1
   9              		.eabi_attribute 26, 1
  10              		.eabi_attribute 30, 6
  11              		.eabi_attribute 34, 1
  12              		.eabi_attribute 18, 4
  13              		.thumb
  14              		.file	"chevents.c"
  15              		.text
  16              	.Ltext0:
  17              		.cfi_sections	.debug_frame
  18              		.section	.text.port_lock,"ax",%progbits
  19              		.align	2
  20              		.p2align 4,,15
  21              		.thumb
  22              		.thumb_func
  23              		.type	port_lock, %function
  24              	port_lock:
  25              	.LFB127:
  26              		.file 1 "/home/efe/ChibiOS/os/rt/ports/ARMCMx/chcore_v7m.h"
  27              		.loc 1 456 0
  28              		.cfi_startproc
  29              		@ args = 0, pretend = 0, frame = 8
  30              		@ frame_needed = 0, uses_anonymous_args = 0
  31              		@ link register save eliminated.
  32 0000 82B0     		sub	sp, sp, #8
  33              		.cfi_def_cfa_offset 8
  34 0002 2023     		movs	r3, #32
  35 0004 0193     		str	r3, [sp, #4]
  36              	.LBB6:
  37              	.LBB7:
  38              		.file 2 "/home/efe/ChibiOS/os/ext/CMSIS/include/core_cmFunc.h"
  39              		.loc 2 548 0
  40 0006 019B     		ldr	r3, [sp, #4]
  41              	@ 548 "/home/efe/ChibiOS/os/ext/CMSIS/include/core_cmFunc.h" 1
  42 0008 83F31188 		MSR basepri, r3
  43              	@ 0 "" 2
  44              		.thumb
  45              	.LBE7:
  46              	.LBE6:
  47              		.loc 1 463 0
  48 000c 02B0     		add	sp, sp, #8
  49              		@ sp needed
  50 000e 7047     		bx	lr
  51              		.cfi_endproc
  52              	.LFE127:
  53              		.size	port_lock, .-port_lock
  54              		.section	.text.port_unlock,"ax",%progbits
  55              		.align	2
  56              		.p2align 4,,15
  57              		.thumb
ARM GAS  /tmp/cceWPl9e.s 			page 2


  58              		.thumb_func
  59              		.type	port_unlock, %function
  60              	port_unlock:
  61              	.LFB128:
  62              		.loc 1 470 0
  63              		.cfi_startproc
  64              		@ args = 0, pretend = 0, frame = 8
  65              		@ frame_needed = 0, uses_anonymous_args = 0
  66              		@ link register save eliminated.
  67 0000 82B0     		sub	sp, sp, #8
  68              		.cfi_def_cfa_offset 8
  69 0002 0023     		movs	r3, #0
  70 0004 0193     		str	r3, [sp, #4]
  71              	.LBB8:
  72              	.LBB9:
  73              		.loc 2 548 0
  74 0006 019B     		ldr	r3, [sp, #4]
  75              	@ 548 "/home/efe/ChibiOS/os/ext/CMSIS/include/core_cmFunc.h" 1
  76 0008 83F31188 		MSR basepri, r3
  77              	@ 0 "" 2
  78              		.thumb
  79              	.LBE9:
  80              	.LBE8:
  81              		.loc 1 477 0
  82 000c 02B0     		add	sp, sp, #8
  83              		@ sp needed
  84 000e 7047     		bx	lr
  85              		.cfi_endproc
  86              	.LFE128:
  87              		.size	port_unlock, .-port_unlock
  88              		.section	.text.chSysLock,"ax",%progbits
  89              		.align	2
  90              		.p2align 4,,15
  91              		.thumb
  92              		.thumb_func
  93              		.type	chSysLock, %function
  94              	chSysLock:
  95              	.LFB167:
  96              		.file 3 "/home/efe/ChibiOS/os/rt/include/chsys.h"
  97              		.loc 3 346 0
  98              		.cfi_startproc
  99              		@ args = 0, pretend = 0, frame = 0
 100              		@ frame_needed = 0, uses_anonymous_args = 0
 101 0000 08B5     		push	{r3, lr}
 102              		.cfi_def_cfa_offset 8
 103              		.cfi_offset 3, -8
 104              		.cfi_offset 14, -4
 105              		.loc 3 348 0
 106 0002 FFF7FEFF 		bl	port_lock
 107              		.loc 3 349 0
 108 0006 FFF7FEFF 		bl	_stats_start_measure_crit_thd
 109              		.loc 3 350 0
 110 000a FFF7FEFF 		bl	_dbg_check_lock
 111              		.loc 3 351 0
 112 000e 08BD     		pop	{r3, pc}
 113              		.cfi_endproc
 114              	.LFE167:
ARM GAS  /tmp/cceWPl9e.s 			page 3


 115              		.size	chSysLock, .-chSysLock
 116              		.section	.text.chSysUnlock,"ax",%progbits
 117              		.align	2
 118              		.p2align 4,,15
 119              		.thumb
 120              		.thumb_func
 121              		.type	chSysUnlock, %function
 122              	chSysUnlock:
 123              	.LFB168:
 124              		.loc 3 358 0
 125              		.cfi_startproc
 126              		@ args = 0, pretend = 0, frame = 0
 127              		@ frame_needed = 0, uses_anonymous_args = 0
 128 0000 08B5     		push	{r3, lr}
 129              		.cfi_def_cfa_offset 8
 130              		.cfi_offset 3, -8
 131              		.cfi_offset 14, -4
 132              		.loc 3 360 0
 133 0002 FFF7FEFF 		bl	_dbg_check_unlock
 134              		.loc 3 361 0
 135 0006 FFF7FEFF 		bl	_stats_stop_measure_crit_thd
 136              		.loc 3 367 0
 137 000a 094B     		ldr	r3, .L6
 138 000c 1A68     		ldr	r2, [r3]
 139 000e 084B     		ldr	r3, .L6
 140 0010 9A42     		cmp	r2, r3
 141 0012 0AD0     		beq	.L5
 142              		.loc 3 367 0 is_stmt 0 discriminator 1
 143 0014 064B     		ldr	r3, .L6
 144 0016 9B69     		ldr	r3, [r3, #24]
 145 0018 9A68     		ldr	r2, [r3, #8]
 146 001a 054B     		ldr	r3, .L6
 147 001c 1B68     		ldr	r3, [r3]
 148 001e 9B68     		ldr	r3, [r3, #8]
 149 0020 9A42     		cmp	r2, r3
 150 0022 02D2     		bcs	.L5
 151 0024 0348     		ldr	r0, .L6+4
 152 0026 FFF7FEFF 		bl	chSysHalt
 153              	.L5:
 154              		.loc 3 371 0 is_stmt 1
 155 002a FFF7FEFF 		bl	port_unlock
 156              		.loc 3 372 0
 157 002e 08BD     		pop	{r3, pc}
 158              	.L7:
 159              		.align	2
 160              	.L6:
 161 0030 00000000 		.word	ch
 162 0034 00000000 		.word	__func__.5925
 163              		.cfi_endproc
 164              	.LFE168:
 165              		.size	chSysUnlock, .-chSysUnlock
 166 0038 AFF30080 		.section	.text.chEvtRegisterMaskWithFlags,"ax",%progbits
 166      AFF30080 
 167              		.align	2
 168              		.p2align 4,,15
 169              		.global	chEvtRegisterMaskWithFlags
 170              		.thumb
ARM GAS  /tmp/cceWPl9e.s 			page 4


 171              		.thumb_func
 172              		.type	chEvtRegisterMaskWithFlags, %function
 173              	chEvtRegisterMaskWithFlags:
 174              	.LFB240:
 175              		.file 4 "/home/efe/ChibiOS/os/rt/src/chevents.c"
 176              		.loc 4 106 0
 177              		.cfi_startproc
 178              		@ args = 0, pretend = 0, frame = 16
 179              		@ frame_needed = 0, uses_anonymous_args = 0
 180 0000 00B5     		push	{lr}
 181              		.cfi_def_cfa_offset 4
 182              		.cfi_offset 14, -4
 183 0002 85B0     		sub	sp, sp, #20
 184              		.cfi_def_cfa_offset 24
 185 0004 0390     		str	r0, [sp, #12]
 186 0006 0291     		str	r1, [sp, #8]
 187 0008 0192     		str	r2, [sp, #4]
 188 000a 0093     		str	r3, [sp]
 189              		.loc 4 108 0
 190 000c 039B     		ldr	r3, [sp, #12]
 191 000e 002B     		cmp	r3, #0
 192 0010 02D0     		beq	.L9
 193              		.loc 4 108 0 is_stmt 0 discriminator 2
 194 0012 029B     		ldr	r3, [sp, #8]
 195 0014 002B     		cmp	r3, #0
 196 0016 02D1     		bne	.L10
 197              	.L9:
 198              		.loc 4 108 0 discriminator 1
 199 0018 0E48     		ldr	r0, .L11
 200 001a FFF7FEFF 		bl	chSysHalt
 201              	.L10:
 202              		.loc 4 110 0 is_stmt 1
 203 001e FFF7FEFF 		bl	chSysLock
 204              		.loc 4 111 0
 205 0022 039B     		ldr	r3, [sp, #12]
 206 0024 1A68     		ldr	r2, [r3]
 207 0026 029B     		ldr	r3, [sp, #8]
 208 0028 1A60     		str	r2, [r3]
 209              		.loc 4 112 0
 210 002a 039B     		ldr	r3, [sp, #12]
 211 002c 029A     		ldr	r2, [sp, #8]
 212 002e 1A60     		str	r2, [r3]
 213              		.loc 4 113 0
 214 0030 094B     		ldr	r3, .L11+4
 215 0032 9A69     		ldr	r2, [r3, #24]
 216 0034 029B     		ldr	r3, [sp, #8]
 217 0036 5A60     		str	r2, [r3, #4]
 218              		.loc 4 114 0
 219 0038 029B     		ldr	r3, [sp, #8]
 220 003a 019A     		ldr	r2, [sp, #4]
 221 003c 9A60     		str	r2, [r3, #8]
 222              		.loc 4 115 0
 223 003e 029B     		ldr	r3, [sp, #8]
 224 0040 0022     		movs	r2, #0
 225 0042 DA60     		str	r2, [r3, #12]
 226              		.loc 4 116 0
 227 0044 029B     		ldr	r3, [sp, #8]
ARM GAS  /tmp/cceWPl9e.s 			page 5


 228 0046 009A     		ldr	r2, [sp]
 229 0048 1A61     		str	r2, [r3, #16]
 230              		.loc 4 117 0
 231 004a FFF7FEFF 		bl	chSysUnlock
 232              		.loc 4 118 0
 233 004e 05B0     		add	sp, sp, #20
 234              		@ sp needed
 235 0050 5DF804FB 		ldr	pc, [sp], #4
 236              	.L12:
 237              		.align	2
 238              	.L11:
 239 0054 00000000 		.word	__func__.6623
 240 0058 00000000 		.word	ch
 241              		.cfi_endproc
 242              	.LFE240:
 243              		.size	chEvtRegisterMaskWithFlags, .-chEvtRegisterMaskWithFlags
 244 005c AFF30080 		.section	.text.chEvtUnregister,"ax",%progbits
 245              		.align	2
 246              		.p2align 4,,15
 247              		.global	chEvtUnregister
 248              		.thumb
 249              		.thumb_func
 250              		.type	chEvtUnregister, %function
 251              	chEvtUnregister:
 252              	.LFB241:
 253              		.loc 4 133 0
 254              		.cfi_startproc
 255              		@ args = 0, pretend = 0, frame = 16
 256              		@ frame_needed = 0, uses_anonymous_args = 0
 257 0000 00B5     		push	{lr}
 258              		.cfi_def_cfa_offset 4
 259              		.cfi_offset 14, -4
 260 0002 85B0     		sub	sp, sp, #20
 261              		.cfi_def_cfa_offset 24
 262 0004 0190     		str	r0, [sp, #4]
 263 0006 0091     		str	r1, [sp]
 264              		.loc 4 136 0
 265 0008 019B     		ldr	r3, [sp, #4]
 266 000a 002B     		cmp	r3, #0
 267 000c 02D0     		beq	.L14
 268              		.loc 4 136 0 is_stmt 0 discriminator 2
 269 000e 009B     		ldr	r3, [sp]
 270 0010 002B     		cmp	r3, #0
 271 0012 02D1     		bne	.L15
 272              	.L14:
 273              		.loc 4 136 0 discriminator 1
 274 0014 0F48     		ldr	r0, .L20
 275 0016 FFF7FEFF 		bl	chSysHalt
 276              	.L15:
 277              		.loc 4 139 0 is_stmt 1
 278 001a 019B     		ldr	r3, [sp, #4]
 279 001c 0393     		str	r3, [sp, #12]
 280              		.loc 4 141 0
 281 001e FFF7FEFF 		bl	chSysLock
 282              		.loc 4 143 0
 283 0022 0CE0     		b	.L16
 284              	.L19:
ARM GAS  /tmp/cceWPl9e.s 			page 6


 285              		.loc 4 145 0
 286 0024 039B     		ldr	r3, [sp, #12]
 287 0026 1A68     		ldr	r2, [r3]
 288 0028 009B     		ldr	r3, [sp]
 289 002a 9A42     		cmp	r2, r3
 290 002c 04D1     		bne	.L17
 291              		.loc 4 146 0
 292 002e 009B     		ldr	r3, [sp]
 293 0030 1A68     		ldr	r2, [r3]
 294 0032 039B     		ldr	r3, [sp, #12]
 295 0034 1A60     		str	r2, [r3]
 296              		.loc 4 147 0
 297 0036 07E0     		b	.L18
 298              	.L17:
 299              		.loc 4 149 0
 300 0038 039B     		ldr	r3, [sp, #12]
 301 003a 1B68     		ldr	r3, [r3]
 302 003c 0393     		str	r3, [sp, #12]
 303              	.L16:
 304              		.loc 4 143 0 discriminator 1
 305 003e 039B     		ldr	r3, [sp, #12]
 306 0040 1A68     		ldr	r2, [r3]
 307 0042 019B     		ldr	r3, [sp, #4]
 308 0044 9A42     		cmp	r2, r3
 309 0046 EDD1     		bne	.L19
 310              	.L18:
 311              		.loc 4 151 0
 312 0048 FFF7FEFF 		bl	chSysUnlock
 313              		.loc 4 152 0
 314 004c 05B0     		add	sp, sp, #20
 315              		@ sp needed
 316 004e 5DF804FB 		ldr	pc, [sp], #4
 317              	.L21:
 318 0052 00BF     		.align	2
 319              	.L20:
 320 0054 00000000 		.word	__func__.6629
 321              		.cfi_endproc
 322              	.LFE241:
 323              		.size	chEvtUnregister, .-chEvtUnregister
 324 0058 AFF30080 		.section	.text.chEvtGetAndClearEvents,"ax",%progbits
 324      AFF30080 
 325              		.align	2
 326              		.p2align 4,,15
 327              		.global	chEvtGetAndClearEvents
 328              		.thumb
 329              		.thumb_func
 330              		.type	chEvtGetAndClearEvents, %function
 331              	chEvtGetAndClearEvents:
 332              	.LFB242:
 333              		.loc 4 162 0
 334              		.cfi_startproc
 335              		@ args = 0, pretend = 0, frame = 16
 336              		@ frame_needed = 0, uses_anonymous_args = 0
 337 0000 00B5     		push	{lr}
 338              		.cfi_def_cfa_offset 4
 339              		.cfi_offset 14, -4
 340 0002 85B0     		sub	sp, sp, #20
ARM GAS  /tmp/cceWPl9e.s 			page 7


 341              		.cfi_def_cfa_offset 24
 342 0004 0190     		str	r0, [sp, #4]
 343              		.loc 4 165 0
 344 0006 FFF7FEFF 		bl	chSysLock
 345              		.loc 4 166 0
 346 000a 0B4B     		ldr	r3, .L24
 347 000c 9B69     		ldr	r3, [r3, #24]
 348 000e 9A6B     		ldr	r2, [r3, #56]
 349 0010 019B     		ldr	r3, [sp, #4]
 350 0012 1340     		ands	r3, r3, r2
 351 0014 0393     		str	r3, [sp, #12]
 352              		.loc 4 167 0
 353 0016 084B     		ldr	r3, .L24
 354 0018 9B69     		ldr	r3, [r3, #24]
 355 001a 074A     		ldr	r2, .L24
 356 001c 9269     		ldr	r2, [r2, #24]
 357 001e 916B     		ldr	r1, [r2, #56]
 358 0020 019A     		ldr	r2, [sp, #4]
 359 0022 D243     		mvns	r2, r2
 360 0024 0A40     		ands	r2, r2, r1
 361 0026 9A63     		str	r2, [r3, #56]
 362              		.loc 4 168 0
 363 0028 FFF7FEFF 		bl	chSysUnlock
 364              		.loc 4 170 0
 365 002c 039B     		ldr	r3, [sp, #12]
 366              		.loc 4 171 0
 367 002e 1846     		mov	r0, r3
 368 0030 05B0     		add	sp, sp, #20
 369              		@ sp needed
 370 0032 5DF804FB 		ldr	pc, [sp], #4
 371              	.L25:
 372 0036 00BF     		.align	2
 373              	.L24:
 374 0038 00000000 		.word	ch
 375              		.cfi_endproc
 376              	.LFE242:
 377              		.size	chEvtGetAndClearEvents, .-chEvtGetAndClearEvents
 378 003c AFF30080 		.section	.text.chEvtAddEvents,"ax",%progbits
 379              		.align	2
 380              		.p2align 4,,15
 381              		.global	chEvtAddEvents
 382              		.thumb
 383              		.thumb_func
 384              		.type	chEvtAddEvents, %function
 385              	chEvtAddEvents:
 386              	.LFB243:
 387              		.loc 4 182 0
 388              		.cfi_startproc
 389              		@ args = 0, pretend = 0, frame = 8
 390              		@ frame_needed = 0, uses_anonymous_args = 0
 391 0000 00B5     		push	{lr}
 392              		.cfi_def_cfa_offset 4
 393              		.cfi_offset 14, -4
 394 0002 83B0     		sub	sp, sp, #12
 395              		.cfi_def_cfa_offset 16
 396 0004 0190     		str	r0, [sp, #4]
 397              		.loc 4 184 0
ARM GAS  /tmp/cceWPl9e.s 			page 8


 398 0006 FFF7FEFF 		bl	chSysLock
 399              		.loc 4 185 0
 400 000a 094B     		ldr	r3, .L28
 401 000c 9B69     		ldr	r3, [r3, #24]
 402 000e 084A     		ldr	r2, .L28
 403 0010 9269     		ldr	r2, [r2, #24]
 404 0012 916B     		ldr	r1, [r2, #56]
 405 0014 019A     		ldr	r2, [sp, #4]
 406 0016 0A43     		orrs	r2, r2, r1
 407 0018 9A63     		str	r2, [r3, #56]
 408              		.loc 4 186 0
 409 001a 054B     		ldr	r3, .L28
 410 001c 9B69     		ldr	r3, [r3, #24]
 411 001e 9B6B     		ldr	r3, [r3, #56]
 412 0020 0193     		str	r3, [sp, #4]
 413              		.loc 4 187 0
 414 0022 FFF7FEFF 		bl	chSysUnlock
 415              		.loc 4 189 0
 416 0026 019B     		ldr	r3, [sp, #4]
 417              		.loc 4 190 0
 418 0028 1846     		mov	r0, r3
 419 002a 03B0     		add	sp, sp, #12
 420              		@ sp needed
 421 002c 5DF804FB 		ldr	pc, [sp], #4
 422              	.L29:
 423              		.align	2
 424              	.L28:
 425 0030 00000000 		.word	ch
 426              		.cfi_endproc
 427              	.LFE243:
 428              		.size	chEvtAddEvents, .-chEvtAddEvents
 429 0034 AFF30080 		.section	.text.chEvtBroadcastFlagsI,"ax",%progbits
 429      AFF30080 
 429      AFF30080 
 430              		.align	2
 431              		.p2align 4,,15
 432              		.global	chEvtBroadcastFlagsI
 433              		.thumb
 434              		.thumb_func
 435              		.type	chEvtBroadcastFlagsI, %function
 436              	chEvtBroadcastFlagsI:
 437              	.LFB244:
 438              		.loc 4 209 0
 439              		.cfi_startproc
 440              		@ args = 0, pretend = 0, frame = 16
 441              		@ frame_needed = 0, uses_anonymous_args = 0
 442 0000 00B5     		push	{lr}
 443              		.cfi_def_cfa_offset 4
 444              		.cfi_offset 14, -4
 445 0002 85B0     		sub	sp, sp, #20
 446              		.cfi_def_cfa_offset 24
 447 0004 0190     		str	r0, [sp, #4]
 448 0006 0091     		str	r1, [sp]
 449              		.loc 4 212 0
 450 0008 FFF7FEFF 		bl	chDbgCheckClassI
 451              		.loc 4 213 0
 452 000c 019B     		ldr	r3, [sp, #4]
ARM GAS  /tmp/cceWPl9e.s 			page 9


 453 000e 002B     		cmp	r3, #0
 454 0010 02D1     		bne	.L31
 455              		.loc 4 213 0 is_stmt 0 discriminator 1
 456 0012 1448     		ldr	r0, .L36
 457 0014 FFF7FEFF 		bl	chSysHalt
 458              	.L31:
 459              		.loc 4 215 0 is_stmt 1
 460 0018 019B     		ldr	r3, [sp, #4]
 461 001a 1B68     		ldr	r3, [r3]
 462 001c 0393     		str	r3, [sp, #12]
 463              		.loc 4 217 0
 464 001e 1AE0     		b	.L32
 465              	.L35:
 466              		.loc 4 219 0
 467 0020 039B     		ldr	r3, [sp, #12]
 468 0022 DA68     		ldr	r2, [r3, #12]
 469 0024 009B     		ldr	r3, [sp]
 470 0026 1A43     		orrs	r2, r2, r3
 471 0028 039B     		ldr	r3, [sp, #12]
 472 002a DA60     		str	r2, [r3, #12]
 473              		.loc 4 222 0
 474 002c 009B     		ldr	r3, [sp]
 475 002e 002B     		cmp	r3, #0
 476 0030 06D0     		beq	.L33
 477              		.loc 4 223 0 discriminator 1
 478 0032 039B     		ldr	r3, [sp, #12]
 479 0034 DA68     		ldr	r2, [r3, #12]
 480 0036 039B     		ldr	r3, [sp, #12]
 481 0038 1B69     		ldr	r3, [r3, #16]
 482 003a 1340     		ands	r3, r3, r2
 483              		.loc 4 222 0 discriminator 1
 484 003c 002B     		cmp	r3, #0
 485 003e 07D0     		beq	.L34
 486              	.L33:
 487              		.loc 4 224 0
 488 0040 039B     		ldr	r3, [sp, #12]
 489 0042 5A68     		ldr	r2, [r3, #4]
 490 0044 039B     		ldr	r3, [sp, #12]
 491 0046 9B68     		ldr	r3, [r3, #8]
 492 0048 1046     		mov	r0, r2
 493 004a 1946     		mov	r1, r3
 494 004c FFF7FEFF 		bl	chEvtSignalI
 495              	.L34:
 496              		.loc 4 226 0
 497 0050 039B     		ldr	r3, [sp, #12]
 498 0052 1B68     		ldr	r3, [r3]
 499 0054 0393     		str	r3, [sp, #12]
 500              	.L32:
 501              		.loc 4 217 0 discriminator 1
 502 0056 039A     		ldr	r2, [sp, #12]
 503 0058 019B     		ldr	r3, [sp, #4]
 504 005a 9A42     		cmp	r2, r3
 505 005c E0D1     		bne	.L35
 506              		.loc 4 228 0
 507 005e 05B0     		add	sp, sp, #20
 508              		@ sp needed
 509 0060 5DF804FB 		ldr	pc, [sp], #4
ARM GAS  /tmp/cceWPl9e.s 			page 10


 510              	.L37:
 511              		.align	2
 512              	.L36:
 513 0064 00000000 		.word	__func__.6645
 514              		.cfi_endproc
 515              	.LFE244:
 516              		.size	chEvtBroadcastFlagsI, .-chEvtBroadcastFlagsI
 517 0068 AFF30080 		.section	.text.chEvtGetAndClearFlags,"ax",%progbits
 517      AFF30080 
 518              		.align	2
 519              		.p2align 4,,15
 520              		.global	chEvtGetAndClearFlags
 521              		.thumb
 522              		.thumb_func
 523              		.type	chEvtGetAndClearFlags, %function
 524              	chEvtGetAndClearFlags:
 525              	.LFB245:
 526              		.loc 4 241 0
 527              		.cfi_startproc
 528              		@ args = 0, pretend = 0, frame = 16
 529              		@ frame_needed = 0, uses_anonymous_args = 0
 530 0000 00B5     		push	{lr}
 531              		.cfi_def_cfa_offset 4
 532              		.cfi_offset 14, -4
 533 0002 85B0     		sub	sp, sp, #20
 534              		.cfi_def_cfa_offset 24
 535 0004 0190     		str	r0, [sp, #4]
 536              		.loc 4 244 0
 537 0006 FFF7FEFF 		bl	chSysLock
 538              		.loc 4 245 0
 539 000a 019B     		ldr	r3, [sp, #4]
 540 000c DB68     		ldr	r3, [r3, #12]
 541 000e 0393     		str	r3, [sp, #12]
 542              		.loc 4 246 0
 543 0010 019B     		ldr	r3, [sp, #4]
 544 0012 0022     		movs	r2, #0
 545 0014 DA60     		str	r2, [r3, #12]
 546              		.loc 4 247 0
 547 0016 FFF7FEFF 		bl	chSysUnlock
 548              		.loc 4 249 0
 549 001a 039B     		ldr	r3, [sp, #12]
 550              		.loc 4 250 0
 551 001c 1846     		mov	r0, r3
 552 001e 05B0     		add	sp, sp, #20
 553              		@ sp needed
 554 0020 5DF804FB 		ldr	pc, [sp], #4
 555              		.cfi_endproc
 556              	.LFE245:
 557              		.size	chEvtGetAndClearFlags, .-chEvtGetAndClearFlags
 558 0024 AFF30080 		.section	.text.chEvtSignal,"ax",%progbits
 558      AFF30080 
 558      AFF30080 
 559              		.align	2
 560              		.p2align 4,,15
 561              		.global	chEvtSignal
 562              		.thumb
 563              		.thumb_func
ARM GAS  /tmp/cceWPl9e.s 			page 11


 564              		.type	chEvtSignal, %function
 565              	chEvtSignal:
 566              	.LFB246:
 567              		.loc 4 260 0
 568              		.cfi_startproc
 569              		@ args = 0, pretend = 0, frame = 8
 570              		@ frame_needed = 0, uses_anonymous_args = 0
 571 0000 00B5     		push	{lr}
 572              		.cfi_def_cfa_offset 4
 573              		.cfi_offset 14, -4
 574 0002 83B0     		sub	sp, sp, #12
 575              		.cfi_def_cfa_offset 16
 576 0004 0190     		str	r0, [sp, #4]
 577 0006 0091     		str	r1, [sp]
 578              		.loc 4 262 0
 579 0008 019B     		ldr	r3, [sp, #4]
 580 000a 002B     		cmp	r3, #0
 581 000c 02D1     		bne	.L41
 582              		.loc 4 262 0 is_stmt 0 discriminator 1
 583 000e 0848     		ldr	r0, .L42
 584 0010 FFF7FEFF 		bl	chSysHalt
 585              	.L41:
 586              		.loc 4 264 0 is_stmt 1
 587 0014 FFF7FEFF 		bl	chSysLock
 588              		.loc 4 265 0
 589 0018 0198     		ldr	r0, [sp, #4]
 590 001a 0099     		ldr	r1, [sp]
 591 001c FFF7FEFF 		bl	chEvtSignalI
 592              		.loc 4 266 0
 593 0020 FFF7FEFF 		bl	chSchRescheduleS
 594              		.loc 4 267 0
 595 0024 FFF7FEFF 		bl	chSysUnlock
 596              		.loc 4 268 0
 597 0028 03B0     		add	sp, sp, #12
 598              		@ sp needed
 599 002a 5DF804FB 		ldr	pc, [sp], #4
 600              	.L43:
 601 002e 00BF     		.align	2
 602              	.L42:
 603 0030 00000000 		.word	__func__.6657
 604              		.cfi_endproc
 605              	.LFE246:
 606              		.size	chEvtSignal, .-chEvtSignal
 607 0034 AFF30080 		.section	.text.chEvtSignalI,"ax",%progbits
 607      AFF30080 
 607      AFF30080 
 608              		.align	2
 609              		.p2align 4,,15
 610              		.global	chEvtSignalI
 611              		.thumb
 612              		.thumb_func
 613              		.type	chEvtSignalI, %function
 614              	chEvtSignalI:
 615              	.LFB247:
 616              		.loc 4 282 0
 617              		.cfi_startproc
 618              		@ args = 0, pretend = 0, frame = 8
ARM GAS  /tmp/cceWPl9e.s 			page 12


 619              		@ frame_needed = 0, uses_anonymous_args = 0
 620 0000 00B5     		push	{lr}
 621              		.cfi_def_cfa_offset 4
 622              		.cfi_offset 14, -4
 623 0002 83B0     		sub	sp, sp, #12
 624              		.cfi_def_cfa_offset 16
 625 0004 0190     		str	r0, [sp, #4]
 626 0006 0091     		str	r1, [sp]
 627              		.loc 4 284 0
 628 0008 FFF7FEFF 		bl	chDbgCheckClassI
 629              		.loc 4 285 0
 630 000c 019B     		ldr	r3, [sp, #4]
 631 000e 002B     		cmp	r3, #0
 632 0010 02D1     		bne	.L45
 633              		.loc 4 285 0 is_stmt 0 discriminator 1
 634 0012 1648     		ldr	r0, .L49
 635 0014 FFF7FEFF 		bl	chSysHalt
 636              	.L45:
 637              		.loc 4 287 0 is_stmt 1
 638 0018 019B     		ldr	r3, [sp, #4]
 639 001a 9A6B     		ldr	r2, [r3, #56]
 640 001c 009B     		ldr	r3, [sp]
 641 001e 1A43     		orrs	r2, r2, r3
 642 0020 019B     		ldr	r3, [sp, #4]
 643 0022 9A63     		str	r2, [r3, #56]
 644              		.loc 4 289 0
 645 0024 019B     		ldr	r3, [sp, #4]
 646 0026 93F82030 		ldrb	r3, [r3, #32]	@ zero_extendqisi2
 647 002a 0A2B     		cmp	r3, #10
 648 002c 06D1     		bne	.L46
 649              		.loc 4 290 0 discriminator 1
 650 002e 019B     		ldr	r3, [sp, #4]
 651 0030 9A6B     		ldr	r2, [r3, #56]
 652 0032 019B     		ldr	r3, [sp, #4]
 653 0034 5B6A     		ldr	r3, [r3, #36]
 654 0036 1340     		ands	r3, r3, r2
 655              		.loc 4 289 0 discriminator 1
 656 0038 002B     		cmp	r3, #0
 657 003a 0DD1     		bne	.L47
 658              	.L46:
 659              		.loc 4 291 0
 660 003c 019B     		ldr	r3, [sp, #4]
 661 003e 93F82030 		ldrb	r3, [r3, #32]	@ zero_extendqisi2
 662              		.loc 4 290 0
 663 0042 0B2B     		cmp	r3, #11
 664 0044 0ED1     		bne	.L44
 665              		.loc 4 292 0
 666 0046 019B     		ldr	r3, [sp, #4]
 667 0048 9A6B     		ldr	r2, [r3, #56]
 668 004a 019B     		ldr	r3, [sp, #4]
 669 004c 5B6A     		ldr	r3, [r3, #36]
 670 004e 1A40     		ands	r2, r2, r3
 671 0050 019B     		ldr	r3, [sp, #4]
 672 0052 5B6A     		ldr	r3, [r3, #36]
 673              		.loc 4 291 0
 674 0054 9A42     		cmp	r2, r3
 675 0056 05D1     		bne	.L44
ARM GAS  /tmp/cceWPl9e.s 			page 13


 676              	.L47:
 677              		.loc 4 293 0
 678 0058 019B     		ldr	r3, [sp, #4]
 679 005a 0022     		movs	r2, #0
 680 005c 5A62     		str	r2, [r3, #36]
 681              		.loc 4 294 0
 682 005e 0198     		ldr	r0, [sp, #4]
 683 0060 FFF7FEFF 		bl	chSchReadyI
 684              	.L44:
 685              		.loc 4 296 0
 686 0064 03B0     		add	sp, sp, #12
 687              		@ sp needed
 688 0066 5DF804FB 		ldr	pc, [sp], #4
 689              	.L50:
 690 006a 00BF     		.align	2
 691              	.L49:
 692 006c 00000000 		.word	__func__.6662
 693              		.cfi_endproc
 694              	.LFE247:
 695              		.size	chEvtSignalI, .-chEvtSignalI
 696              		.section	.text.chEvtBroadcastFlags,"ax",%progbits
 697              		.align	2
 698              		.p2align 4,,15
 699              		.global	chEvtBroadcastFlags
 700              		.thumb
 701              		.thumb_func
 702              		.type	chEvtBroadcastFlags, %function
 703              	chEvtBroadcastFlags:
 704              	.LFB248:
 705              		.loc 4 311 0
 706              		.cfi_startproc
 707              		@ args = 0, pretend = 0, frame = 8
 708              		@ frame_needed = 0, uses_anonymous_args = 0
 709 0000 00B5     		push	{lr}
 710              		.cfi_def_cfa_offset 4
 711              		.cfi_offset 14, -4
 712 0002 83B0     		sub	sp, sp, #12
 713              		.cfi_def_cfa_offset 16
 714 0004 0190     		str	r0, [sp, #4]
 715 0006 0091     		str	r1, [sp]
 716              		.loc 4 313 0
 717 0008 FFF7FEFF 		bl	chSysLock
 718              		.loc 4 314 0
 719 000c 0198     		ldr	r0, [sp, #4]
 720 000e 0099     		ldr	r1, [sp]
 721 0010 FFF7FEFF 		bl	chEvtBroadcastFlagsI
 722              		.loc 4 315 0
 723 0014 FFF7FEFF 		bl	chSchRescheduleS
 724              		.loc 4 316 0
 725 0018 FFF7FEFF 		bl	chSysUnlock
 726              		.loc 4 317 0
 727 001c 03B0     		add	sp, sp, #12
 728              		@ sp needed
 729 001e 5DF804FB 		ldr	pc, [sp], #4
 730              		.cfi_endproc
 731              	.LFE248:
 732              		.size	chEvtBroadcastFlags, .-chEvtBroadcastFlags
ARM GAS  /tmp/cceWPl9e.s 			page 14


 733 0022 00BFAFF3 		.section	.text.chEvtGetAndClearFlagsI,"ax",%progbits
 733      0080AFF3 
 733      0080AFF3 
 733      0080
 734              		.align	2
 735              		.p2align 4,,15
 736              		.global	chEvtGetAndClearFlagsI
 737              		.thumb
 738              		.thumb_func
 739              		.type	chEvtGetAndClearFlagsI, %function
 740              	chEvtGetAndClearFlagsI:
 741              	.LFB249:
 742              		.loc 4 330 0
 743              		.cfi_startproc
 744              		@ args = 0, pretend = 0, frame = 16
 745              		@ frame_needed = 0, uses_anonymous_args = 0
 746              		@ link register save eliminated.
 747 0000 84B0     		sub	sp, sp, #16
 748              		.cfi_def_cfa_offset 16
 749 0002 0190     		str	r0, [sp, #4]
 750              		.loc 4 333 0
 751 0004 019B     		ldr	r3, [sp, #4]
 752 0006 DB68     		ldr	r3, [r3, #12]
 753 0008 0393     		str	r3, [sp, #12]
 754              		.loc 4 334 0
 755 000a 019B     		ldr	r3, [sp, #4]
 756 000c 0022     		movs	r2, #0
 757 000e DA60     		str	r2, [r3, #12]
 758              		.loc 4 336 0
 759 0010 039B     		ldr	r3, [sp, #12]
 760              		.loc 4 337 0
 761 0012 1846     		mov	r0, r3
 762 0014 04B0     		add	sp, sp, #16
 763              		@ sp needed
 764 0016 7047     		bx	lr
 765              		.cfi_endproc
 766              	.LFE249:
 767              		.size	chEvtGetAndClearFlagsI, .-chEvtGetAndClearFlagsI
 768 0018 AFF30080 		.section	.text.chEvtDispatch,"ax",%progbits
 768      AFF30080 
 769              		.align	2
 770              		.p2align 4,,15
 771              		.global	chEvtDispatch
 772              		.thumb
 773              		.thumb_func
 774              		.type	chEvtDispatch, %function
 775              	chEvtDispatch:
 776              	.LFB250:
 777              		.loc 4 348 0
 778              		.cfi_startproc
 779              		@ args = 0, pretend = 0, frame = 16
 780              		@ frame_needed = 0, uses_anonymous_args = 0
 781 0000 00B5     		push	{lr}
 782              		.cfi_def_cfa_offset 4
 783              		.cfi_offset 14, -4
 784 0002 85B0     		sub	sp, sp, #20
 785              		.cfi_def_cfa_offset 24
ARM GAS  /tmp/cceWPl9e.s 			page 15


 786 0004 0190     		str	r0, [sp, #4]
 787 0006 0091     		str	r1, [sp]
 788              		.loc 4 351 0
 789 0008 019B     		ldr	r3, [sp, #4]
 790 000a 002B     		cmp	r3, #0
 791 000c 02D1     		bne	.L55
 792              		.loc 4 351 0 is_stmt 0 discriminator 1
 793 000e 1848     		ldr	r0, .L60
 794 0010 FFF7FEFF 		bl	chSysHalt
 795              	.L55:
 796              		.loc 4 353 0 is_stmt 1
 797 0014 0023     		movs	r3, #0
 798 0016 0393     		str	r3, [sp, #12]
 799              		.loc 4 354 0
 800 0018 23E0     		b	.L56
 801              	.L59:
 802              		.loc 4 355 0
 803 001a 009A     		ldr	r2, [sp]
 804 001c 039B     		ldr	r3, [sp, #12]
 805 001e 22FA03F3 		lsr	r3, r2, r3
 806 0022 03F00103 		and	r3, r3, #1
 807 0026 002B     		cmp	r3, #0
 808 0028 18D0     		beq	.L57
 809              		.loc 4 356 0 discriminator 1
 810 002a 039B     		ldr	r3, [sp, #12]
 811 002c 9B00     		lsls	r3, r3, #2
 812 002e 019A     		ldr	r2, [sp, #4]
 813 0030 1344     		add	r3, r3, r2
 814 0032 1B68     		ldr	r3, [r3]
 815 0034 002B     		cmp	r3, #0
 816 0036 02D1     		bne	.L58
 817 0038 0D48     		ldr	r0, .L60
 818 003a FFF7FEFF 		bl	chSysHalt
 819              	.L58:
 820              		.loc 4 357 0
 821 003e 0122     		movs	r2, #1
 822 0040 039B     		ldr	r3, [sp, #12]
 823 0042 02FA03F3 		lsl	r3, r2, r3
 824 0046 DB43     		mvns	r3, r3
 825 0048 009A     		ldr	r2, [sp]
 826 004a 1340     		ands	r3, r3, r2
 827 004c 0093     		str	r3, [sp]
 828              		.loc 4 358 0
 829 004e 039B     		ldr	r3, [sp, #12]
 830 0050 9B00     		lsls	r3, r3, #2
 831 0052 019A     		ldr	r2, [sp, #4]
 832 0054 1344     		add	r3, r3, r2
 833 0056 1B68     		ldr	r3, [r3]
 834 0058 0398     		ldr	r0, [sp, #12]
 835 005a 9847     		blx	r3
 836              	.L57:
 837              		.loc 4 360 0
 838 005c 039B     		ldr	r3, [sp, #12]
 839 005e 0133     		adds	r3, r3, #1
 840 0060 0393     		str	r3, [sp, #12]
 841              	.L56:
 842              		.loc 4 354 0 discriminator 1
ARM GAS  /tmp/cceWPl9e.s 			page 16


 843 0062 009B     		ldr	r3, [sp]
 844 0064 002B     		cmp	r3, #0
 845 0066 D8D1     		bne	.L59
 846              		.loc 4 362 0
 847 0068 05B0     		add	sp, sp, #20
 848              		@ sp needed
 849 006a 5DF804FB 		ldr	pc, [sp], #4
 850              	.L61:
 851 006e 00BF     		.align	2
 852              	.L60:
 853 0070 00000000 		.word	__func__.6676
 854              		.cfi_endproc
 855              	.LFE250:
 856              		.size	chEvtDispatch, .-chEvtDispatch
 857 0074 AFF30080 		.section	.text.chEvtWaitOne,"ax",%progbits
 857      AFF30080 
 857      AFF30080 
 858              		.align	2
 859              		.p2align 4,,15
 860              		.global	chEvtWaitOne
 861              		.thumb
 862              		.thumb_func
 863              		.type	chEvtWaitOne, %function
 864              	chEvtWaitOne:
 865              	.LFB251:
 866              		.loc 4 383 0
 867              		.cfi_startproc
 868              		@ args = 0, pretend = 0, frame = 16
 869              		@ frame_needed = 0, uses_anonymous_args = 0
 870 0000 00B5     		push	{lr}
 871              		.cfi_def_cfa_offset 4
 872              		.cfi_offset 14, -4
 873 0002 85B0     		sub	sp, sp, #20
 874              		.cfi_def_cfa_offset 24
 875 0004 0190     		str	r0, [sp, #4]
 876              		.loc 4 384 0
 877 0006 154B     		ldr	r3, .L65
 878 0008 9B69     		ldr	r3, [r3, #24]
 879 000a 0293     		str	r3, [sp, #8]
 880              		.loc 4 387 0
 881 000c FFF7FEFF 		bl	chSysLock
 882              		.loc 4 388 0
 883 0010 029B     		ldr	r3, [sp, #8]
 884 0012 9A6B     		ldr	r2, [r3, #56]
 885 0014 019B     		ldr	r3, [sp, #4]
 886 0016 1340     		ands	r3, r3, r2
 887 0018 0393     		str	r3, [sp, #12]
 888              		.loc 4 389 0
 889 001a 039B     		ldr	r3, [sp, #12]
 890 001c 002B     		cmp	r3, #0
 891 001e 0AD1     		bne	.L63
 892              		.loc 4 390 0
 893 0020 029B     		ldr	r3, [sp, #8]
 894 0022 019A     		ldr	r2, [sp, #4]
 895 0024 5A62     		str	r2, [r3, #36]
 896              		.loc 4 391 0
 897 0026 0A20     		movs	r0, #10
ARM GAS  /tmp/cceWPl9e.s 			page 17


 898 0028 FFF7FEFF 		bl	chSchGoSleepS
 899              		.loc 4 392 0
 900 002c 029B     		ldr	r3, [sp, #8]
 901 002e 9A6B     		ldr	r2, [r3, #56]
 902 0030 019B     		ldr	r3, [sp, #4]
 903 0032 1340     		ands	r3, r3, r2
 904 0034 0393     		str	r3, [sp, #12]
 905              	.L63:
 906              		.loc 4 394 0
 907 0036 039B     		ldr	r3, [sp, #12]
 908 0038 5B42     		negs	r3, r3
 909 003a 039A     		ldr	r2, [sp, #12]
 910 003c 1340     		ands	r3, r3, r2
 911 003e 0393     		str	r3, [sp, #12]
 912              		.loc 4 395 0
 913 0040 029B     		ldr	r3, [sp, #8]
 914 0042 9A6B     		ldr	r2, [r3, #56]
 915 0044 039B     		ldr	r3, [sp, #12]
 916 0046 DB43     		mvns	r3, r3
 917 0048 1A40     		ands	r2, r2, r3
 918 004a 029B     		ldr	r3, [sp, #8]
 919 004c 9A63     		str	r2, [r3, #56]
 920              		.loc 4 396 0
 921 004e FFF7FEFF 		bl	chSysUnlock
 922              		.loc 4 398 0
 923 0052 039B     		ldr	r3, [sp, #12]
 924              		.loc 4 399 0
 925 0054 1846     		mov	r0, r3
 926 0056 05B0     		add	sp, sp, #20
 927              		@ sp needed
 928 0058 5DF804FB 		ldr	pc, [sp], #4
 929              	.L66:
 930              		.align	2
 931              	.L65:
 932 005c 00000000 		.word	ch
 933              		.cfi_endproc
 934              	.LFE251:
 935              		.size	chEvtWaitOne, .-chEvtWaitOne
 936              		.section	.text.chEvtWaitAny,"ax",%progbits
 937              		.align	2
 938              		.p2align 4,,15
 939              		.global	chEvtWaitAny
 940              		.thumb
 941              		.thumb_func
 942              		.type	chEvtWaitAny, %function
 943              	chEvtWaitAny:
 944              	.LFB252:
 945              		.loc 4 413 0
 946              		.cfi_startproc
 947              		@ args = 0, pretend = 0, frame = 16
 948              		@ frame_needed = 0, uses_anonymous_args = 0
 949 0000 00B5     		push	{lr}
 950              		.cfi_def_cfa_offset 4
 951              		.cfi_offset 14, -4
 952 0002 85B0     		sub	sp, sp, #20
 953              		.cfi_def_cfa_offset 24
 954 0004 0190     		str	r0, [sp, #4]
ARM GAS  /tmp/cceWPl9e.s 			page 18


 955              		.loc 4 414 0
 956 0006 134B     		ldr	r3, .L70
 957 0008 9B69     		ldr	r3, [r3, #24]
 958 000a 0293     		str	r3, [sp, #8]
 959              		.loc 4 417 0
 960 000c FFF7FEFF 		bl	chSysLock
 961              		.loc 4 418 0
 962 0010 029B     		ldr	r3, [sp, #8]
 963 0012 9A6B     		ldr	r2, [r3, #56]
 964 0014 019B     		ldr	r3, [sp, #4]
 965 0016 1340     		ands	r3, r3, r2
 966 0018 0393     		str	r3, [sp, #12]
 967              		.loc 4 419 0
 968 001a 039B     		ldr	r3, [sp, #12]
 969 001c 002B     		cmp	r3, #0
 970 001e 0AD1     		bne	.L68
 971              		.loc 4 420 0
 972 0020 029B     		ldr	r3, [sp, #8]
 973 0022 019A     		ldr	r2, [sp, #4]
 974 0024 5A62     		str	r2, [r3, #36]
 975              		.loc 4 421 0
 976 0026 0A20     		movs	r0, #10
 977 0028 FFF7FEFF 		bl	chSchGoSleepS
 978              		.loc 4 422 0
 979 002c 029B     		ldr	r3, [sp, #8]
 980 002e 9A6B     		ldr	r2, [r3, #56]
 981 0030 019B     		ldr	r3, [sp, #4]
 982 0032 1340     		ands	r3, r3, r2
 983 0034 0393     		str	r3, [sp, #12]
 984              	.L68:
 985              		.loc 4 424 0
 986 0036 029B     		ldr	r3, [sp, #8]
 987 0038 9A6B     		ldr	r2, [r3, #56]
 988 003a 039B     		ldr	r3, [sp, #12]
 989 003c DB43     		mvns	r3, r3
 990 003e 1A40     		ands	r2, r2, r3
 991 0040 029B     		ldr	r3, [sp, #8]
 992 0042 9A63     		str	r2, [r3, #56]
 993              		.loc 4 425 0
 994 0044 FFF7FEFF 		bl	chSysUnlock
 995              		.loc 4 427 0
 996 0048 039B     		ldr	r3, [sp, #12]
 997              		.loc 4 428 0
 998 004a 1846     		mov	r0, r3
 999 004c 05B0     		add	sp, sp, #20
 1000              		@ sp needed
 1001 004e 5DF804FB 		ldr	pc, [sp], #4
 1002              	.L71:
 1003 0052 00BF     		.align	2
 1004              	.L70:
 1005 0054 00000000 		.word	ch
 1006              		.cfi_endproc
 1007              	.LFE252:
 1008              		.size	chEvtWaitAny, .-chEvtWaitAny
 1009 0058 AFF30080 		.section	.text.chEvtWaitAll,"ax",%progbits
 1009      AFF30080 
 1010              		.align	2
ARM GAS  /tmp/cceWPl9e.s 			page 19


 1011              		.p2align 4,,15
 1012              		.global	chEvtWaitAll
 1013              		.thumb
 1014              		.thumb_func
 1015              		.type	chEvtWaitAll, %function
 1016              	chEvtWaitAll:
 1017              	.LFB253:
 1018              		.loc 4 441 0
 1019              		.cfi_startproc
 1020              		@ args = 0, pretend = 0, frame = 16
 1021              		@ frame_needed = 0, uses_anonymous_args = 0
 1022 0000 00B5     		push	{lr}
 1023              		.cfi_def_cfa_offset 4
 1024              		.cfi_offset 14, -4
 1025 0002 85B0     		sub	sp, sp, #20
 1026              		.cfi_def_cfa_offset 24
 1027 0004 0190     		str	r0, [sp, #4]
 1028              		.loc 4 442 0
 1029 0006 104B     		ldr	r3, .L75
 1030 0008 9B69     		ldr	r3, [r3, #24]
 1031 000a 0393     		str	r3, [sp, #12]
 1032              		.loc 4 444 0
 1033 000c FFF7FEFF 		bl	chSysLock
 1034              		.loc 4 445 0
 1035 0010 039B     		ldr	r3, [sp, #12]
 1036 0012 9A6B     		ldr	r2, [r3, #56]
 1037 0014 019B     		ldr	r3, [sp, #4]
 1038 0016 1A40     		ands	r2, r2, r3
 1039 0018 019B     		ldr	r3, [sp, #4]
 1040 001a 9A42     		cmp	r2, r3
 1041 001c 05D0     		beq	.L73
 1042              		.loc 4 446 0
 1043 001e 039B     		ldr	r3, [sp, #12]
 1044 0020 019A     		ldr	r2, [sp, #4]
 1045 0022 5A62     		str	r2, [r3, #36]
 1046              		.loc 4 447 0
 1047 0024 0B20     		movs	r0, #11
 1048 0026 FFF7FEFF 		bl	chSchGoSleepS
 1049              	.L73:
 1050              		.loc 4 449 0
 1051 002a 039B     		ldr	r3, [sp, #12]
 1052 002c 9A6B     		ldr	r2, [r3, #56]
 1053 002e 019B     		ldr	r3, [sp, #4]
 1054 0030 DB43     		mvns	r3, r3
 1055 0032 1A40     		ands	r2, r2, r3
 1056 0034 039B     		ldr	r3, [sp, #12]
 1057 0036 9A63     		str	r2, [r3, #56]
 1058              		.loc 4 450 0
 1059 0038 FFF7FEFF 		bl	chSysUnlock
 1060              		.loc 4 452 0
 1061 003c 019B     		ldr	r3, [sp, #4]
 1062              		.loc 4 453 0
 1063 003e 1846     		mov	r0, r3
 1064 0040 05B0     		add	sp, sp, #20
 1065              		@ sp needed
 1066 0042 5DF804FB 		ldr	pc, [sp], #4
 1067              	.L76:
ARM GAS  /tmp/cceWPl9e.s 			page 20


 1068 0046 00BF     		.align	2
 1069              	.L75:
 1070 0048 00000000 		.word	ch
 1071              		.cfi_endproc
 1072              	.LFE253:
 1073              		.size	chEvtWaitAll, .-chEvtWaitAll
 1074 004c AFF30080 		.section	.text.chEvtWaitOneTimeout,"ax",%progbits
 1075              		.align	2
 1076              		.p2align 4,,15
 1077              		.global	chEvtWaitOneTimeout
 1078              		.thumb
 1079              		.thumb_func
 1080              		.type	chEvtWaitOneTimeout, %function
 1081              	chEvtWaitOneTimeout:
 1082              	.LFB254:
 1083              		.loc 4 479 0
 1084              		.cfi_startproc
 1085              		@ args = 0, pretend = 0, frame = 16
 1086              		@ frame_needed = 0, uses_anonymous_args = 0
 1087 0000 00B5     		push	{lr}
 1088              		.cfi_def_cfa_offset 4
 1089              		.cfi_offset 14, -4
 1090 0002 85B0     		sub	sp, sp, #20
 1091              		.cfi_def_cfa_offset 24
 1092 0004 0190     		str	r0, [sp, #4]
 1093 0006 0091     		str	r1, [sp]
 1094              		.loc 4 480 0
 1095 0008 1C4B     		ldr	r3, .L82
 1096 000a 9B69     		ldr	r3, [r3, #24]
 1097 000c 0293     		str	r3, [sp, #8]
 1098              		.loc 4 483 0
 1099 000e FFF7FEFF 		bl	chSysLock
 1100              		.loc 4 484 0
 1101 0012 029B     		ldr	r3, [sp, #8]
 1102 0014 9A6B     		ldr	r2, [r3, #56]
 1103 0016 019B     		ldr	r3, [sp, #4]
 1104 0018 1340     		ands	r3, r3, r2
 1105 001a 0393     		str	r3, [sp, #12]
 1106              		.loc 4 485 0
 1107 001c 039B     		ldr	r3, [sp, #12]
 1108 001e 002B     		cmp	r3, #0
 1109 0020 19D1     		bne	.L78
 1110              		.loc 4 486 0
 1111 0022 009B     		ldr	r3, [sp]
 1112 0024 002B     		cmp	r3, #0
 1113 0026 03D1     		bne	.L79
 1114              		.loc 4 487 0
 1115 0028 FFF7FEFF 		bl	chSysUnlock
 1116              		.loc 4 488 0
 1117 002c 0023     		movs	r3, #0
 1118 002e 21E0     		b	.L80
 1119              	.L79:
 1120              		.loc 4 490 0
 1121 0030 029B     		ldr	r3, [sp, #8]
 1122 0032 019A     		ldr	r2, [sp, #4]
 1123 0034 5A62     		str	r2, [r3, #36]
 1124              		.loc 4 491 0
ARM GAS  /tmp/cceWPl9e.s 			page 21


 1125 0036 0A20     		movs	r0, #10
 1126 0038 0099     		ldr	r1, [sp]
 1127 003a FFF7FEFF 		bl	chSchGoSleepTimeoutS
 1128 003e 0346     		mov	r3, r0
 1129 0040 002B     		cmp	r3, #0
 1130 0042 03DA     		bge	.L81
 1131              		.loc 4 492 0
 1132 0044 FFF7FEFF 		bl	chSysUnlock
 1133              		.loc 4 493 0
 1134 0048 0023     		movs	r3, #0
 1135 004a 13E0     		b	.L80
 1136              	.L81:
 1137              		.loc 4 495 0
 1138 004c 029B     		ldr	r3, [sp, #8]
 1139 004e 9A6B     		ldr	r2, [r3, #56]
 1140 0050 019B     		ldr	r3, [sp, #4]
 1141 0052 1340     		ands	r3, r3, r2
 1142 0054 0393     		str	r3, [sp, #12]
 1143              	.L78:
 1144              		.loc 4 497 0
 1145 0056 039B     		ldr	r3, [sp, #12]
 1146 0058 5B42     		negs	r3, r3
 1147 005a 039A     		ldr	r2, [sp, #12]
 1148 005c 1340     		ands	r3, r3, r2
 1149 005e 0393     		str	r3, [sp, #12]
 1150              		.loc 4 498 0
 1151 0060 029B     		ldr	r3, [sp, #8]
 1152 0062 9A6B     		ldr	r2, [r3, #56]
 1153 0064 039B     		ldr	r3, [sp, #12]
 1154 0066 DB43     		mvns	r3, r3
 1155 0068 1A40     		ands	r2, r2, r3
 1156 006a 029B     		ldr	r3, [sp, #8]
 1157 006c 9A63     		str	r2, [r3, #56]
 1158              		.loc 4 499 0
 1159 006e FFF7FEFF 		bl	chSysUnlock
 1160              		.loc 4 501 0
 1161 0072 039B     		ldr	r3, [sp, #12]
 1162              	.L80:
 1163              		.loc 4 502 0
 1164 0074 1846     		mov	r0, r3
 1165 0076 05B0     		add	sp, sp, #20
 1166              		@ sp needed
 1167 0078 5DF804FB 		ldr	pc, [sp], #4
 1168              	.L83:
 1169              		.align	2
 1170              	.L82:
 1171 007c 00000000 		.word	ch
 1172              		.cfi_endproc
 1173              	.LFE254:
 1174              		.size	chEvtWaitOneTimeout, .-chEvtWaitOneTimeout
 1175              		.section	.text.chEvtWaitAnyTimeout,"ax",%progbits
 1176              		.align	2
 1177              		.p2align 4,,15
 1178              		.global	chEvtWaitAnyTimeout
 1179              		.thumb
 1180              		.thumb_func
 1181              		.type	chEvtWaitAnyTimeout, %function
ARM GAS  /tmp/cceWPl9e.s 			page 22


 1182              	chEvtWaitAnyTimeout:
 1183              	.LFB255:
 1184              		.loc 4 522 0
 1185              		.cfi_startproc
 1186              		@ args = 0, pretend = 0, frame = 16
 1187              		@ frame_needed = 0, uses_anonymous_args = 0
 1188 0000 00B5     		push	{lr}
 1189              		.cfi_def_cfa_offset 4
 1190              		.cfi_offset 14, -4
 1191 0002 85B0     		sub	sp, sp, #20
 1192              		.cfi_def_cfa_offset 24
 1193 0004 0190     		str	r0, [sp, #4]
 1194 0006 0091     		str	r1, [sp]
 1195              		.loc 4 523 0
 1196 0008 1A4B     		ldr	r3, .L89
 1197 000a 9B69     		ldr	r3, [r3, #24]
 1198 000c 0293     		str	r3, [sp, #8]
 1199              		.loc 4 526 0
 1200 000e FFF7FEFF 		bl	chSysLock
 1201              		.loc 4 527 0
 1202 0012 029B     		ldr	r3, [sp, #8]
 1203 0014 9A6B     		ldr	r2, [r3, #56]
 1204 0016 019B     		ldr	r3, [sp, #4]
 1205 0018 1340     		ands	r3, r3, r2
 1206 001a 0393     		str	r3, [sp, #12]
 1207              		.loc 4 528 0
 1208 001c 039B     		ldr	r3, [sp, #12]
 1209 001e 002B     		cmp	r3, #0
 1210 0020 19D1     		bne	.L85
 1211              		.loc 4 529 0
 1212 0022 009B     		ldr	r3, [sp]
 1213 0024 002B     		cmp	r3, #0
 1214 0026 03D1     		bne	.L86
 1215              		.loc 4 530 0
 1216 0028 FFF7FEFF 		bl	chSysUnlock
 1217              		.loc 4 531 0
 1218 002c 0023     		movs	r3, #0
 1219 002e 1CE0     		b	.L87
 1220              	.L86:
 1221              		.loc 4 533 0
 1222 0030 029B     		ldr	r3, [sp, #8]
 1223 0032 019A     		ldr	r2, [sp, #4]
 1224 0034 5A62     		str	r2, [r3, #36]
 1225              		.loc 4 534 0
 1226 0036 0A20     		movs	r0, #10
 1227 0038 0099     		ldr	r1, [sp]
 1228 003a FFF7FEFF 		bl	chSchGoSleepTimeoutS
 1229 003e 0346     		mov	r3, r0
 1230 0040 002B     		cmp	r3, #0
 1231 0042 03DA     		bge	.L88
 1232              		.loc 4 535 0
 1233 0044 FFF7FEFF 		bl	chSysUnlock
 1234              		.loc 4 536 0
 1235 0048 0023     		movs	r3, #0
 1236 004a 0EE0     		b	.L87
 1237              	.L88:
 1238              		.loc 4 538 0
ARM GAS  /tmp/cceWPl9e.s 			page 23


 1239 004c 029B     		ldr	r3, [sp, #8]
 1240 004e 9A6B     		ldr	r2, [r3, #56]
 1241 0050 019B     		ldr	r3, [sp, #4]
 1242 0052 1340     		ands	r3, r3, r2
 1243 0054 0393     		str	r3, [sp, #12]
 1244              	.L85:
 1245              		.loc 4 540 0
 1246 0056 029B     		ldr	r3, [sp, #8]
 1247 0058 9A6B     		ldr	r2, [r3, #56]
 1248 005a 039B     		ldr	r3, [sp, #12]
 1249 005c DB43     		mvns	r3, r3
 1250 005e 1A40     		ands	r2, r2, r3
 1251 0060 029B     		ldr	r3, [sp, #8]
 1252 0062 9A63     		str	r2, [r3, #56]
 1253              		.loc 4 541 0
 1254 0064 FFF7FEFF 		bl	chSysUnlock
 1255              		.loc 4 543 0
 1256 0068 039B     		ldr	r3, [sp, #12]
 1257              	.L87:
 1258              		.loc 4 544 0
 1259 006a 1846     		mov	r0, r3
 1260 006c 05B0     		add	sp, sp, #20
 1261              		@ sp needed
 1262 006e 5DF804FB 		ldr	pc, [sp], #4
 1263              	.L90:
 1264 0072 00BF     		.align	2
 1265              	.L89:
 1266 0074 00000000 		.word	ch
 1267              		.cfi_endproc
 1268              	.LFE255:
 1269              		.size	chEvtWaitAnyTimeout, .-chEvtWaitAnyTimeout
 1270 0078 AFF30080 		.section	.text.chEvtWaitAllTimeout,"ax",%progbits
 1270      AFF30080 
 1271              		.align	2
 1272              		.p2align 4,,15
 1273              		.global	chEvtWaitAllTimeout
 1274              		.thumb
 1275              		.thumb_func
 1276              		.type	chEvtWaitAllTimeout, %function
 1277              	chEvtWaitAllTimeout:
 1278              	.LFB256:
 1279              		.loc 4 563 0
 1280              		.cfi_startproc
 1281              		@ args = 0, pretend = 0, frame = 16
 1282              		@ frame_needed = 0, uses_anonymous_args = 0
 1283 0000 00B5     		push	{lr}
 1284              		.cfi_def_cfa_offset 4
 1285              		.cfi_offset 14, -4
 1286 0002 85B0     		sub	sp, sp, #20
 1287              		.cfi_def_cfa_offset 24
 1288 0004 0190     		str	r0, [sp, #4]
 1289 0006 0091     		str	r1, [sp]
 1290              		.loc 4 564 0
 1291 0008 174B     		ldr	r3, .L95
 1292 000a 9B69     		ldr	r3, [r3, #24]
 1293 000c 0393     		str	r3, [sp, #12]
 1294              		.loc 4 566 0
ARM GAS  /tmp/cceWPl9e.s 			page 24


 1295 000e FFF7FEFF 		bl	chSysLock
 1296              		.loc 4 567 0
 1297 0012 039B     		ldr	r3, [sp, #12]
 1298 0014 9A6B     		ldr	r2, [r3, #56]
 1299 0016 019B     		ldr	r3, [sp, #4]
 1300 0018 1A40     		ands	r2, r2, r3
 1301 001a 019B     		ldr	r3, [sp, #4]
 1302 001c 9A42     		cmp	r2, r3
 1303 001e 14D0     		beq	.L92
 1304              		.loc 4 568 0
 1305 0020 009B     		ldr	r3, [sp]
 1306 0022 002B     		cmp	r3, #0
 1307 0024 03D1     		bne	.L93
 1308              		.loc 4 569 0
 1309 0026 FFF7FEFF 		bl	chSysUnlock
 1310              		.loc 4 570 0
 1311 002a 0023     		movs	r3, #0
 1312 002c 17E0     		b	.L94
 1313              	.L93:
 1314              		.loc 4 572 0
 1315 002e 039B     		ldr	r3, [sp, #12]
 1316 0030 019A     		ldr	r2, [sp, #4]
 1317 0032 5A62     		str	r2, [r3, #36]
 1318              		.loc 4 573 0
 1319 0034 0B20     		movs	r0, #11
 1320 0036 0099     		ldr	r1, [sp]
 1321 0038 FFF7FEFF 		bl	chSchGoSleepTimeoutS
 1322 003c 0346     		mov	r3, r0
 1323 003e 002B     		cmp	r3, #0
 1324 0040 03DA     		bge	.L92
 1325              		.loc 4 574 0
 1326 0042 FFF7FEFF 		bl	chSysUnlock
 1327              		.loc 4 575 0
 1328 0046 0023     		movs	r3, #0
 1329 0048 09E0     		b	.L94
 1330              	.L92:
 1331              		.loc 4 578 0
 1332 004a 039B     		ldr	r3, [sp, #12]
 1333 004c 9A6B     		ldr	r2, [r3, #56]
 1334 004e 019B     		ldr	r3, [sp, #4]
 1335 0050 DB43     		mvns	r3, r3
 1336 0052 1A40     		ands	r2, r2, r3
 1337 0054 039B     		ldr	r3, [sp, #12]
 1338 0056 9A63     		str	r2, [r3, #56]
 1339              		.loc 4 579 0
 1340 0058 FFF7FEFF 		bl	chSysUnlock
 1341              		.loc 4 581 0
 1342 005c 019B     		ldr	r3, [sp, #4]
 1343              	.L94:
 1344              		.loc 4 582 0
 1345 005e 1846     		mov	r0, r3
 1346 0060 05B0     		add	sp, sp, #20
 1347              		@ sp needed
 1348 0062 5DF804FB 		ldr	pc, [sp], #4
 1349              	.L96:
 1350 0066 00BF     		.align	2
 1351              	.L95:
ARM GAS  /tmp/cceWPl9e.s 			page 25


 1352 0068 00000000 		.word	ch
 1353              		.cfi_endproc
 1354              	.LFE256:
 1355              		.size	chEvtWaitAllTimeout, .-chEvtWaitAllTimeout
 1356 006c AFF30080 		.section	.rodata.__func__.6623,"a",%progbits
 1357              		.align	2
 1358              		.type	__func__.6623, %object
 1359              		.size	__func__.6623, 27
 1360              	__func__.6623:
 1361 0000 63684576 		.ascii	"chEvtRegisterMaskWithFlags\000"
 1361      74526567 
 1361      69737465 
 1361      724D6173 
 1361      6B576974 
 1362 001b 00       		.section	.rodata.__func__.5925,"a",%progbits
 1363              		.align	2
 1364              		.type	__func__.5925, %object
 1365              		.size	__func__.5925, 12
 1366              	__func__.5925:
 1367 0000 63685379 		.ascii	"chSysUnlock\000"
 1367      73556E6C 
 1367      6F636B00 
 1368              		.section	.rodata.__func__.6629,"a",%progbits
 1369              		.align	2
 1370              		.type	__func__.6629, %object
 1371              		.size	__func__.6629, 16
 1372              	__func__.6629:
 1373 0000 63684576 		.ascii	"chEvtUnregister\000"
 1373      74556E72 
 1373      65676973 
 1373      74657200 
 1374              		.section	.rodata.__func__.6645,"a",%progbits
 1375              		.align	2
 1376              		.type	__func__.6645, %object
 1377              		.size	__func__.6645, 21
 1378              	__func__.6645:
 1379 0000 63684576 		.ascii	"chEvtBroadcastFlagsI\000"
 1379      7442726F 
 1379      61646361 
 1379      7374466C 
 1379      61677349 
 1380 0015 000000   		.section	.rodata.__func__.6657,"a",%progbits
 1381              		.align	2
 1382              		.type	__func__.6657, %object
 1383              		.size	__func__.6657, 12
 1384              	__func__.6657:
 1385 0000 63684576 		.ascii	"chEvtSignal\000"
 1385      74536967 
 1385      6E616C00 
 1386              		.section	.rodata.__func__.6662,"a",%progbits
 1387              		.align	2
 1388              		.type	__func__.6662, %object
 1389              		.size	__func__.6662, 13
 1390              	__func__.6662:
 1391 0000 63684576 		.ascii	"chEvtSignalI\000"
 1391      74536967 
 1391      6E616C49 
ARM GAS  /tmp/cceWPl9e.s 			page 26


 1391      00
 1392 000d 000000   		.section	.rodata.__func__.6676,"a",%progbits
 1393              		.align	2
 1394              		.type	__func__.6676, %object
 1395              		.size	__func__.6676, 14
 1396              	__func__.6676:
 1397 0000 63684576 		.ascii	"chEvtDispatch\000"
 1397      74446973 
 1397      70617463 
 1397      6800
 1398 000e 0000     		.text
 1399              	.Letext0:
 1400              		.file 5 "/usr/include/newlib/machine/_default_types.h"
 1401              		.file 6 "/usr/include/newlib/stdint.h"
 1402              		.file 7 "/home/efe/ChibiOS/os/rt/ports/ARMCMx/compilers/GCC/chtypes.h"
 1403              		.file 8 "/home/efe/ChibiOS/os/rt/include/chsystypes.h"
 1404              		.file 9 "/home/efe/ChibiOS/os/rt/include/chschd.h"
 1405              		.file 10 "/home/efe/ChibiOS/os/rt/ports/ARMCMx/chcore.h"
 1406              		.file 11 "/home/efe/ChibiOS/os/rt/include/chdebug.h"
 1407              		.file 12 "/home/efe/ChibiOS/os/rt/include/chtm.h"
 1408              		.file 13 "/home/efe/ChibiOS/os/rt/include/chstats.h"
 1409              		.file 14 "/home/efe/ChibiOS/os/rt/include/chsem.h"
 1410              		.file 15 "/home/efe/ChibiOS/os/rt/include/chmtx.h"
 1411              		.file 16 "/home/efe/ChibiOS/os/rt/include/chevents.h"
 1412              		.file 17 "/home/efe/ChibiOS/os/ext/CMSIS/include/core_cm4.h"
 1413              		.section	.debug_info,"",%progbits
 1414              	.Ldebug_info0:
 1415 0000 3D0E0000 		.4byte	0xe3d
 1416 0004 0400     		.2byte	0x4
 1417 0006 00000000 		.4byte	.Ldebug_abbrev0
 1418 000a 04       		.byte	0x4
 1419 000b 01       		.uleb128 0x1
 1420 000c B0010000 		.4byte	.LASF168
 1421 0010 01       		.byte	0x1
 1422 0011 79030000 		.4byte	.LASF169
 1423 0015 00000000 		.4byte	.Ldebug_ranges0+0
 1424 0019 00000000 		.4byte	0
 1425 001d 00000000 		.4byte	.Ldebug_line0
 1426 0021 02       		.uleb128 0x2
 1427 0022 04       		.byte	0x4
 1428 0023 05       		.byte	0x5
 1429 0024 696E7400 		.ascii	"int\000"
 1430 0028 03       		.uleb128 0x3
 1431 0029 04       		.byte	0x4
 1432 002a 07       		.byte	0x7
 1433 002b 35030000 		.4byte	.LASF0
 1434 002f 03       		.uleb128 0x3
 1435 0030 01       		.byte	0x1
 1436 0031 06       		.byte	0x6
 1437 0032 2B010000 		.4byte	.LASF1
 1438 0036 04       		.uleb128 0x4
 1439 0037 3F000000 		.4byte	.LASF5
 1440 003b 05       		.byte	0x5
 1441 003c 1D       		.byte	0x1d
 1442 003d 41000000 		.4byte	0x41
 1443 0041 03       		.uleb128 0x3
 1444 0042 01       		.byte	0x1
ARM GAS  /tmp/cceWPl9e.s 			page 27


 1445 0043 08       		.byte	0x8
 1446 0044 B0050000 		.4byte	.LASF2
 1447 0048 03       		.uleb128 0x3
 1448 0049 02       		.byte	0x2
 1449 004a 05       		.byte	0x5
 1450 004b F4050000 		.4byte	.LASF3
 1451 004f 03       		.uleb128 0x3
 1452 0050 02       		.byte	0x2
 1453 0051 07       		.byte	0x7
 1454 0052 A6030000 		.4byte	.LASF4
 1455 0056 04       		.uleb128 0x4
 1456 0057 67040000 		.4byte	.LASF6
 1457 005b 05       		.byte	0x5
 1458 005c 3F       		.byte	0x3f
 1459 005d 61000000 		.4byte	0x61
 1460 0061 03       		.uleb128 0x3
 1461 0062 04       		.byte	0x4
 1462 0063 05       		.byte	0x5
 1463 0064 78010000 		.4byte	.LASF7
 1464 0068 04       		.uleb128 0x4
 1465 0069 00070000 		.4byte	.LASF8
 1466 006d 05       		.byte	0x5
 1467 006e 41       		.byte	0x41
 1468 006f 73000000 		.4byte	0x73
 1469 0073 03       		.uleb128 0x3
 1470 0074 04       		.byte	0x4
 1471 0075 07       		.byte	0x7
 1472 0076 B6060000 		.4byte	.LASF9
 1473 007a 03       		.uleb128 0x3
 1474 007b 08       		.byte	0x8
 1475 007c 05       		.byte	0x5
 1476 007d 1D010000 		.4byte	.LASF10
 1477 0081 04       		.uleb128 0x4
 1478 0082 40050000 		.4byte	.LASF11
 1479 0086 05       		.byte	0x5
 1480 0087 5B       		.byte	0x5b
 1481 0088 8C000000 		.4byte	0x8c
 1482 008c 03       		.uleb128 0x3
 1483 008d 08       		.byte	0x8
 1484 008e 07       		.byte	0x7
 1485 008f A4000000 		.4byte	.LASF12
 1486 0093 04       		.uleb128 0x4
 1487 0094 7D070000 		.4byte	.LASF13
 1488 0098 06       		.byte	0x6
 1489 0099 2A       		.byte	0x2a
 1490 009a 36000000 		.4byte	0x36
 1491 009e 04       		.uleb128 0x4
 1492 009f A8050000 		.4byte	.LASF14
 1493 00a3 06       		.byte	0x6
 1494 00a4 41       		.byte	0x41
 1495 00a5 56000000 		.4byte	0x56
 1496 00a9 04       		.uleb128 0x4
 1497 00aa 85060000 		.4byte	.LASF15
 1498 00ae 06       		.byte	0x6
 1499 00af 42       		.byte	0x42
 1500 00b0 68000000 		.4byte	0x68
 1501 00b4 04       		.uleb128 0x4
ARM GAS  /tmp/cceWPl9e.s 			page 28


 1502 00b5 29000000 		.4byte	.LASF16
 1503 00b9 06       		.byte	0x6
 1504 00ba 4E       		.byte	0x4e
 1505 00bb 81000000 		.4byte	0x81
 1506 00bf 05       		.uleb128 0x5
 1507 00c0 9E000000 		.4byte	0x9e
 1508 00c4 04       		.uleb128 0x4
 1509 00c5 32070000 		.4byte	.LASF17
 1510 00c9 07       		.byte	0x7
 1511 00ca 45       		.byte	0x45
 1512 00cb A9000000 		.4byte	0xa9
 1513 00cf 04       		.uleb128 0x4
 1514 00d0 0D010000 		.4byte	.LASF18
 1515 00d4 07       		.byte	0x7
 1516 00d5 46       		.byte	0x46
 1517 00d6 B4000000 		.4byte	0xb4
 1518 00da 04       		.uleb128 0x4
 1519 00db 3A040000 		.4byte	.LASF19
 1520 00df 07       		.byte	0x7
 1521 00e0 48       		.byte	0x48
 1522 00e1 93000000 		.4byte	0x93
 1523 00e5 04       		.uleb128 0x4
 1524 00e6 60020000 		.4byte	.LASF20
 1525 00ea 07       		.byte	0x7
 1526 00eb 49       		.byte	0x49
 1527 00ec 93000000 		.4byte	0x93
 1528 00f0 04       		.uleb128 0x4
 1529 00f1 5F050000 		.4byte	.LASF21
 1530 00f5 07       		.byte	0x7
 1531 00f6 4A       		.byte	0x4a
 1532 00f7 93000000 		.4byte	0x93
 1533 00fb 04       		.uleb128 0x4
 1534 00fc 88050000 		.4byte	.LASF22
 1535 0100 07       		.byte	0x7
 1536 0101 4C       		.byte	0x4c
 1537 0102 A9000000 		.4byte	0xa9
 1538 0106 04       		.uleb128 0x4
 1539 0107 E9030000 		.4byte	.LASF23
 1540 010b 07       		.byte	0x7
 1541 010c 4D       		.byte	0x4d
 1542 010d 9E000000 		.4byte	0x9e
 1543 0111 04       		.uleb128 0x4
 1544 0112 D9020000 		.4byte	.LASF24
 1545 0116 07       		.byte	0x7
 1546 0117 4E       		.byte	0x4e
 1547 0118 9E000000 		.4byte	0x9e
 1548 011c 04       		.uleb128 0x4
 1549 011d 5B040000 		.4byte	.LASF25
 1550 0121 07       		.byte	0x7
 1551 0122 4F       		.byte	0x4f
 1552 0123 A9000000 		.4byte	0xa9
 1553 0127 04       		.uleb128 0x4
 1554 0128 DC030000 		.4byte	.LASF26
 1555 012c 07       		.byte	0x7
 1556 012d 50       		.byte	0x50
 1557 012e A9000000 		.4byte	0xa9
 1558 0132 04       		.uleb128 0x4
ARM GAS  /tmp/cceWPl9e.s 			page 29


 1559 0133 24030000 		.4byte	.LASF27
 1560 0137 07       		.byte	0x7
 1561 0138 51       		.byte	0x51
 1562 0139 9E000000 		.4byte	0x9e
 1563 013d 04       		.uleb128 0x4
 1564 013e F4030000 		.4byte	.LASF28
 1565 0142 07       		.byte	0x7
 1566 0143 52       		.byte	0x52
 1567 0144 A9000000 		.4byte	0xa9
 1568 0148 04       		.uleb128 0x4
 1569 0149 E2060000 		.4byte	.LASF29
 1570 014d 08       		.byte	0x8
 1571 014e 33       		.byte	0x33
 1572 014f A9000000 		.4byte	0xa9
 1573 0153 04       		.uleb128 0x4
 1574 0154 CD060000 		.4byte	.LASF30
 1575 0158 08       		.byte	0x8
 1576 0159 3F       		.byte	0x3f
 1577 015a 5E010000 		.4byte	0x15e
 1578 015e 06       		.uleb128 0x6
 1579 015f C8030000 		.4byte	.LASF52
 1580 0163 60       		.byte	0x60
 1581 0164 09       		.byte	0x9
 1582 0165 C2       		.byte	0xc2
 1583 0166 64020000 		.4byte	0x264
 1584 016a 07       		.uleb128 0x7
 1585 016b 2B060000 		.4byte	.LASF31
 1586 016f 09       		.byte	0x9
 1587 0170 C3       		.byte	0xc3
 1588 0171 6F020000 		.4byte	0x26f
 1589 0175 00       		.byte	0
 1590 0176 07       		.uleb128 0x7
 1591 0177 81050000 		.4byte	.LASF32
 1592 017b 09       		.byte	0x9
 1593 017c C5       		.byte	0xc5
 1594 017d 6F020000 		.4byte	0x26f
 1595 0181 04       		.byte	0x4
 1596 0182 07       		.uleb128 0x7
 1597 0183 16010000 		.4byte	.LASF33
 1598 0187 09       		.byte	0x9
 1599 0188 C7       		.byte	0xc7
 1600 0189 FB000000 		.4byte	0xfb
 1601 018d 08       		.byte	0x8
 1602 018e 07       		.uleb128 0x7
 1603 018f 04080000 		.4byte	.LASF34
 1604 0193 09       		.byte	0x9
 1605 0194 C8       		.byte	0xc8
 1606 0195 D8040000 		.4byte	0x4d8
 1607 0199 0C       		.byte	0xc
 1608 019a 07       		.uleb128 0x7
 1609 019b 84020000 		.4byte	.LASF35
 1610 019f 09       		.byte	0x9
 1611 01a0 CA       		.byte	0xca
 1612 01a1 6F020000 		.4byte	0x26f
 1613 01a5 10       		.byte	0x10
 1614 01a6 07       		.uleb128 0x7
 1615 01a7 F3040000 		.4byte	.LASF36
ARM GAS  /tmp/cceWPl9e.s 			page 30


 1616 01ab 09       		.byte	0x9
 1617 01ac CB       		.byte	0xcb
 1618 01ad 6F020000 		.4byte	0x26f
 1619 01b1 14       		.byte	0x14
 1620 01b2 07       		.uleb128 0x7
 1621 01b3 B2070000 		.4byte	.LASF37
 1622 01b7 09       		.byte	0x9
 1623 01b8 D2       		.byte	0xd2
 1624 01b9 7C070000 		.4byte	0x77c
 1625 01bd 18       		.byte	0x18
 1626 01be 07       		.uleb128 0x7
 1627 01bf 2A030000 		.4byte	.LASF38
 1628 01c3 09       		.byte	0x9
 1629 01c4 D8       		.byte	0xd8
 1630 01c5 8E070000 		.4byte	0x78e
 1631 01c9 1C       		.byte	0x1c
 1632 01ca 07       		.uleb128 0x7
 1633 01cb FE050000 		.4byte	.LASF39
 1634 01cf 09       		.byte	0x9
 1635 01d0 DD       		.byte	0xdd
 1636 01d1 E5000000 		.4byte	0xe5
 1637 01d5 20       		.byte	0x20
 1638 01d6 07       		.uleb128 0x7
 1639 01d7 32060000 		.4byte	.LASF40
 1640 01db 09       		.byte	0x9
 1641 01dc E1       		.byte	0xe1
 1642 01dd DA000000 		.4byte	0xda
 1643 01e1 21       		.byte	0x21
 1644 01e2 07       		.uleb128 0x7
 1645 01e3 8E010000 		.4byte	.LASF41
 1646 01e7 09       		.byte	0x9
 1647 01e8 E6       		.byte	0xe6
 1648 01e9 F0000000 		.4byte	0xf0
 1649 01ed 22       		.byte	0x22
 1650 01ee 08       		.uleb128 0x8
 1651 01ef 705F7500 		.ascii	"p_u\000"
 1652 01f3 09       		.byte	0x9
 1653 01f4 3101     		.2byte	0x131
 1654 01f6 B7060000 		.4byte	0x6b7
 1655 01fa 24       		.byte	0x24
 1656 01fb 09       		.uleb128 0x9
 1657 01fc 8D040000 		.4byte	.LASF42
 1658 0200 09       		.byte	0x9
 1659 0201 3601     		.2byte	0x136
 1660 0203 75020000 		.4byte	0x275
 1661 0207 28       		.byte	0x28
 1662 0208 09       		.uleb128 0x9
 1663 0209 51030000 		.4byte	.LASF43
 1664 020d 09       		.byte	0x9
 1665 020e 3C01     		.2byte	0x13c
 1666 0210 99020000 		.4byte	0x299
 1667 0214 2C       		.byte	0x2c
 1668 0215 09       		.uleb128 0x9
 1669 0216 E1070000 		.4byte	.LASF44
 1670 021a 09       		.byte	0x9
 1671 021b 4001     		.2byte	0x140
 1672 021d 06010000 		.4byte	0x106
ARM GAS  /tmp/cceWPl9e.s 			page 31


 1673 0221 34       		.byte	0x34
 1674 0222 09       		.uleb128 0x9
 1675 0223 73060000 		.4byte	.LASF45
 1676 0227 09       		.byte	0x9
 1677 0228 4601     		.2byte	0x146
 1678 022a 1C010000 		.4byte	0x11c
 1679 022e 38       		.byte	0x38
 1680 022f 09       		.uleb128 0x9
 1681 0230 EA050000 		.4byte	.LASF46
 1682 0234 09       		.byte	0x9
 1683 0235 4D01     		.2byte	0x14d
 1684 0237 76070000 		.4byte	0x776
 1685 023b 3C       		.byte	0x3c
 1686 023c 09       		.uleb128 0x9
 1687 023d EC060000 		.4byte	.LASF47
 1688 0241 09       		.byte	0x9
 1689 0242 5101     		.2byte	0x151
 1690 0244 FB000000 		.4byte	0xfb
 1691 0248 40       		.byte	0x40
 1692 0249 09       		.uleb128 0x9
 1693 024a 4B010000 		.4byte	.LASF48
 1694 024e 09       		.byte	0x9
 1695 024f 5801     		.2byte	0x158
 1696 0251 4C030000 		.4byte	0x34c
 1697 0255 44       		.byte	0x44
 1698 0256 09       		.uleb128 0x9
 1699 0257 43060000 		.4byte	.LASF49
 1700 025b 09       		.byte	0x9
 1701 025c 5E01     		.2byte	0x15e
 1702 025e 68060000 		.4byte	0x668
 1703 0262 48       		.byte	0x48
 1704 0263 00       		.byte	0
 1705 0264 04       		.uleb128 0x4
 1706 0265 A0040000 		.4byte	.LASF50
 1707 0269 08       		.byte	0x8
 1708 026a 44       		.byte	0x44
 1709 026b 6F020000 		.4byte	0x26f
 1710 026f 0A       		.uleb128 0xa
 1711 0270 04       		.byte	0x4
 1712 0271 53010000 		.4byte	0x153
 1713 0275 04       		.uleb128 0x4
 1714 0276 B9070000 		.4byte	.LASF51
 1715 027a 08       		.byte	0x8
 1716 027b 49       		.byte	0x49
 1717 027c 80020000 		.4byte	0x280
 1718 0280 06       		.uleb128 0x6
 1719 0281 A6060000 		.4byte	.LASF53
 1720 0285 04       		.byte	0x4
 1721 0286 09       		.byte	0x9
 1722 0287 B0       		.byte	0xb0
 1723 0288 99020000 		.4byte	0x299
 1724 028c 07       		.uleb128 0x7
 1725 028d 2B060000 		.4byte	.LASF31
 1726 0291 09       		.byte	0x9
 1727 0292 B1       		.byte	0xb1
 1728 0293 6F020000 		.4byte	0x26f
 1729 0297 00       		.byte	0
ARM GAS  /tmp/cceWPl9e.s 			page 32


 1730 0298 00       		.byte	0
 1731 0299 04       		.uleb128 0x4
 1732 029a 41070000 		.4byte	.LASF54
 1733 029e 08       		.byte	0x8
 1734 029f 50       		.byte	0x50
 1735 02a0 A4020000 		.4byte	0x2a4
 1736 02a4 06       		.uleb128 0x6
 1737 02a5 55000000 		.4byte	.LASF55
 1738 02a9 08       		.byte	0x8
 1739 02aa 09       		.byte	0x9
 1740 02ab B7       		.byte	0xb7
 1741 02ac C9020000 		.4byte	0x2c9
 1742 02b0 07       		.uleb128 0x7
 1743 02b1 2B060000 		.4byte	.LASF31
 1744 02b5 09       		.byte	0x9
 1745 02b6 B8       		.byte	0xb8
 1746 02b7 6F020000 		.4byte	0x26f
 1747 02bb 00       		.byte	0
 1748 02bc 07       		.uleb128 0x7
 1749 02bd 81050000 		.4byte	.LASF32
 1750 02c1 09       		.byte	0x9
 1751 02c2 B9       		.byte	0xb9
 1752 02c3 6F020000 		.4byte	0x26f
 1753 02c7 04       		.byte	0x4
 1754 02c8 00       		.byte	0
 1755 02c9 04       		.uleb128 0x4
 1756 02ca 07000000 		.4byte	.LASF56
 1757 02ce 08       		.byte	0x8
 1758 02cf 57       		.byte	0x57
 1759 02d0 D4020000 		.4byte	0x2d4
 1760 02d4 0B       		.uleb128 0xb
 1761 02d5 4D040000 		.4byte	.LASF57
 1762 02d9 1C       		.byte	0x1c
 1763 02da 09       		.byte	0x9
 1764 02db 9001     		.2byte	0x190
 1765 02dd 30030000 		.4byte	0x330
 1766 02e1 09       		.uleb128 0x9
 1767 02e2 95060000 		.4byte	.LASF58
 1768 02e6 09       		.byte	0x9
 1769 02e7 9101     		.2byte	0x191
 1770 02e9 99020000 		.4byte	0x299
 1771 02ed 00       		.byte	0
 1772 02ee 09       		.uleb128 0x9
 1773 02ef 06060000 		.4byte	.LASF59
 1774 02f3 09       		.byte	0x9
 1775 02f4 9201     		.2byte	0x192
 1776 02f6 FB000000 		.4byte	0xfb
 1777 02fa 08       		.byte	0x8
 1778 02fb 09       		.uleb128 0x9
 1779 02fc FB040000 		.4byte	.LASF60
 1780 0300 09       		.byte	0x9
 1781 0301 9401     		.2byte	0x194
 1782 0303 D8040000 		.4byte	0x4d8
 1783 0307 0C       		.byte	0xc
 1784 0308 09       		.uleb128 0x9
 1785 0309 9C020000 		.4byte	.LASF61
 1786 030d 09       		.byte	0x9
ARM GAS  /tmp/cceWPl9e.s 			page 33


 1787 030e 9701     		.2byte	0x197
 1788 0310 6F020000 		.4byte	0x26f
 1789 0314 10       		.byte	0x10
 1790 0315 09       		.uleb128 0x9
 1791 0316 2E050000 		.4byte	.LASF62
 1792 031a 09       		.byte	0x9
 1793 031b 9801     		.2byte	0x198
 1794 031d 6F020000 		.4byte	0x26f
 1795 0321 14       		.byte	0x14
 1796 0322 09       		.uleb128 0x9
 1797 0323 24050000 		.4byte	.LASF63
 1798 0327 09       		.byte	0x9
 1799 0328 9B01     		.2byte	0x19b
 1800 032a 6F020000 		.4byte	0x26f
 1801 032e 18       		.byte	0x18
 1802 032f 00       		.byte	0
 1803 0330 04       		.uleb128 0x4
 1804 0331 F7060000 		.4byte	.LASF64
 1805 0335 08       		.byte	0x8
 1806 0336 5C       		.byte	0x5c
 1807 0337 3B030000 		.4byte	0x33b
 1808 033b 0A       		.uleb128 0xa
 1809 033c 04       		.byte	0x4
 1810 033d 41030000 		.4byte	0x341
 1811 0341 0C       		.uleb128 0xc
 1812 0342 4C030000 		.4byte	0x34c
 1813 0346 0D       		.uleb128 0xd
 1814 0347 4C030000 		.4byte	0x34c
 1815 034b 00       		.byte	0
 1816 034c 0E       		.uleb128 0xe
 1817 034d 04       		.byte	0x4
 1818 034e 04       		.uleb128 0x4
 1819 034f 71050000 		.4byte	.LASF65
 1820 0353 08       		.byte	0x8
 1821 0354 61       		.byte	0x61
 1822 0355 59030000 		.4byte	0x359
 1823 0359 0B       		.uleb128 0xb
 1824 035a 55060000 		.4byte	.LASF66
 1825 035e 14       		.byte	0x14
 1826 035f 09       		.byte	0x9
 1827 0360 6B01     		.2byte	0x16b
 1828 0362 A8030000 		.4byte	0x3a8
 1829 0366 09       		.uleb128 0x9
 1830 0367 42030000 		.4byte	.LASF67
 1831 036b 09       		.byte	0x9
 1832 036c 6C01     		.2byte	0x16c
 1833 036e 94070000 		.4byte	0x794
 1834 0372 00       		.byte	0
 1835 0373 09       		.uleb128 0x9
 1836 0374 AD020000 		.4byte	.LASF68
 1837 0378 09       		.byte	0x9
 1838 0379 6D01     		.2byte	0x16d
 1839 037b 94070000 		.4byte	0x794
 1840 037f 04       		.byte	0x4
 1841 0380 09       		.uleb128 0x9
 1842 0381 9D060000 		.4byte	.LASF69
 1843 0385 09       		.byte	0x9
ARM GAS  /tmp/cceWPl9e.s 			page 34


 1844 0386 6E01     		.2byte	0x16e
 1845 0388 48010000 		.4byte	0x148
 1846 038c 08       		.byte	0x8
 1847 038d 09       		.uleb128 0x9
 1848 038e 0A080000 		.4byte	.LASF70
 1849 0392 09       		.byte	0x9
 1850 0393 6F01     		.2byte	0x16f
 1851 0395 30030000 		.4byte	0x330
 1852 0399 0C       		.byte	0xc
 1853 039a 09       		.uleb128 0x9
 1854 039b 3A070000 		.4byte	.LASF71
 1855 039f 09       		.byte	0x9
 1856 03a0 7101     		.2byte	0x171
 1857 03a2 4C030000 		.4byte	0x34c
 1858 03a6 10       		.byte	0x10
 1859 03a7 00       		.byte	0
 1860 03a8 04       		.uleb128 0x4
 1861 03a9 EA000000 		.4byte	.LASF72
 1862 03ad 08       		.byte	0x8
 1863 03ae 66       		.byte	0x66
 1864 03af B3030000 		.4byte	0x3b3
 1865 03b3 0B       		.uleb128 0xb
 1866 03b4 B3040000 		.4byte	.LASF73
 1867 03b8 10       		.byte	0x10
 1868 03b9 09       		.byte	0x9
 1869 03ba 7B01     		.2byte	0x17b
 1870 03bc F5030000 		.4byte	0x3f5
 1871 03c0 09       		.uleb128 0x9
 1872 03c1 42030000 		.4byte	.LASF67
 1873 03c5 09       		.byte	0x9
 1874 03c6 7C01     		.2byte	0x17c
 1875 03c8 94070000 		.4byte	0x794
 1876 03cc 00       		.byte	0
 1877 03cd 09       		.uleb128 0x9
 1878 03ce AD020000 		.4byte	.LASF68
 1879 03d2 09       		.byte	0x9
 1880 03d3 7E01     		.2byte	0x17e
 1881 03d5 94070000 		.4byte	0x794
 1882 03d9 04       		.byte	0x4
 1883 03da 09       		.uleb128 0x9
 1884 03db 9D060000 		.4byte	.LASF69
 1885 03df 09       		.byte	0x9
 1886 03e0 8001     		.2byte	0x180
 1887 03e2 48010000 		.4byte	0x148
 1888 03e6 08       		.byte	0x8
 1889 03e7 09       		.uleb128 0x9
 1890 03e8 E7040000 		.4byte	.LASF74
 1891 03ec 09       		.byte	0x9
 1892 03ed 8801     		.2byte	0x188
 1893 03ef 48010000 		.4byte	0x148
 1894 03f3 0C       		.byte	0xc
 1895 03f4 00       		.byte	0
 1896 03f5 04       		.uleb128 0x4
 1897 03f6 66000000 		.4byte	.LASF75
 1898 03fa 08       		.byte	0x8
 1899 03fb 6B       		.byte	0x6b
 1900 03fc 00040000 		.4byte	0x400
ARM GAS  /tmp/cceWPl9e.s 			page 35


 1901 0400 0F       		.uleb128 0xf
 1902 0401 C9020000 		.4byte	.LASF76
 1903 0405 1404     		.2byte	0x414
 1904 0407 09       		.byte	0x9
 1905 0408 A201     		.2byte	0x1a2
 1906 040a 43040000 		.4byte	0x443
 1907 040e 09       		.uleb128 0x9
 1908 040f 19070000 		.4byte	.LASF77
 1909 0413 09       		.byte	0x9
 1910 0414 AA01     		.2byte	0x1aa
 1911 0416 9A070000 		.4byte	0x79a
 1912 041a 00       		.byte	0
 1913 041b 09       		.uleb128 0x9
 1914 041c 62070000 		.4byte	.LASF78
 1915 0420 09       		.byte	0x9
 1916 0421 AF01     		.2byte	0x1af
 1917 0423 32010000 		.4byte	0x132
 1918 0427 04       		.byte	0x4
 1919 0428 09       		.uleb128 0x9
 1920 0429 F1020000 		.4byte	.LASF79
 1921 042d 09       		.byte	0x9
 1922 042e B301     		.2byte	0x1b3
 1923 0430 32010000 		.4byte	0x132
 1924 0434 08       		.byte	0x8
 1925 0435 09       		.uleb128 0x9
 1926 0436 C8070000 		.4byte	.LASF80
 1927 043a 09       		.byte	0x9
 1928 043b B901     		.2byte	0x1b9
 1929 043d FA050000 		.4byte	0x5fa
 1930 0441 0C       		.byte	0xc
 1931 0442 00       		.byte	0
 1932 0443 04       		.uleb128 0x4
 1933 0444 13040000 		.4byte	.LASF81
 1934 0448 08       		.byte	0x8
 1935 0449 70       		.byte	0x70
 1936 044a 4E040000 		.4byte	0x44e
 1937 044e 0F       		.uleb128 0xf
 1938 044f 6E010000 		.4byte	.LASF82
 1939 0453 D805     		.2byte	0x5d8
 1940 0455 09       		.byte	0x9
 1941 0456 C201     		.2byte	0x1c2
 1942 0458 BB040000 		.4byte	0x4bb
 1943 045c 09       		.uleb128 0x9
 1944 045d 6A070000 		.4byte	.LASF83
 1945 0461 09       		.byte	0x9
 1946 0462 C601     		.2byte	0x1c6
 1947 0464 C9020000 		.4byte	0x2c9
 1948 0468 00       		.byte	0
 1949 0469 09       		.uleb128 0x9
 1950 046a 5B010000 		.4byte	.LASF84
 1951 046e 09       		.byte	0x9
 1952 046f CA01     		.2byte	0x1ca
 1953 0471 A8030000 		.4byte	0x3a8
 1954 0475 1C       		.byte	0x1c
 1955 0476 08       		.uleb128 0x8
 1956 0477 64626700 		.ascii	"dbg\000"
 1957 047b 09       		.byte	0x9
ARM GAS  /tmp/cceWPl9e.s 			page 36


 1958 047c CE01     		.2byte	0x1ce
 1959 047e F5030000 		.4byte	0x3f5
 1960 0482 2C       		.byte	0x2c
 1961 0483 10       		.uleb128 0x10
 1962 0484 DF000000 		.4byte	.LASF85
 1963 0488 09       		.byte	0x9
 1964 0489 D201     		.2byte	0x1d2
 1965 048b 53010000 		.4byte	0x153
 1966 048f 4004     		.2byte	0x440
 1967 0491 11       		.uleb128 0x11
 1968 0492 746D00   		.ascii	"tm\000"
 1969 0495 09       		.byte	0x9
 1970 0496 D701     		.2byte	0x1d7
 1971 0498 1A060000 		.4byte	0x61a
 1972 049c A004     		.2byte	0x4a0
 1973 049e 10       		.uleb128 0x10
 1974 049f 32000000 		.4byte	.LASF86
 1975 04a3 09       		.byte	0x9
 1976 04a4 DD01     		.2byte	0x1dd
 1977 04a6 AC060000 		.4byte	0x6ac
 1978 04aa A804     		.2byte	0x4a8
 1979 04ac 10       		.uleb128 0x10
 1980 04ad 09030000 		.4byte	.LASF87
 1981 04b1 09       		.byte	0x9
 1982 04b2 E301     		.2byte	0x1e3
 1983 04b4 9F070000 		.4byte	0x79f
 1984 04b8 E004     		.2byte	0x4e0
 1985 04ba 00       		.byte	0
 1986 04bb 03       		.uleb128 0x3
 1987 04bc 04       		.byte	0x4
 1988 04bd 07       		.byte	0x7
 1989 04be 97040000 		.4byte	.LASF88
 1990 04c2 04       		.uleb128 0x4
 1991 04c3 A4020000 		.4byte	.LASF89
 1992 04c7 0A       		.byte	0xa
 1993 04c8 65       		.byte	0x65
 1994 04c9 4C030000 		.4byte	0x34c
 1995 04cd 04       		.uleb128 0x4
 1996 04ce 71040000 		.4byte	.LASF90
 1997 04d2 0A       		.byte	0xa
 1998 04d3 6D       		.byte	0x6d
 1999 04d4 B4000000 		.4byte	0xb4
 2000 04d8 06       		.uleb128 0x6
 2001 04d9 2A070000 		.4byte	.LASF91
 2002 04dd 04       		.byte	0x4
 2003 04de 0A       		.byte	0xa
 2004 04df 89       		.byte	0x89
 2005 04e0 F1040000 		.4byte	0x4f1
 2006 04e4 12       		.uleb128 0x12
 2007 04e5 72313300 		.ascii	"r13\000"
 2008 04e9 0A       		.byte	0xa
 2009 04ea 8A       		.byte	0x8a
 2010 04eb 6C050000 		.4byte	0x56c
 2011 04ef 00       		.byte	0
 2012 04f0 00       		.byte	0
 2013 04f1 06       		.uleb128 0x6
 2014 04f2 49000000 		.4byte	.LASF92
ARM GAS  /tmp/cceWPl9e.s 			page 37


 2015 04f6 24       		.byte	0x24
 2016 04f7 01       		.byte	0x1
 2017 04f8 FD       		.byte	0xfd
 2018 04f9 6C050000 		.4byte	0x56c
 2019 04fd 08       		.uleb128 0x8
 2020 04fe 723400   		.ascii	"r4\000"
 2021 0501 01       		.byte	0x1
 2022 0502 1001     		.2byte	0x110
 2023 0504 C2040000 		.4byte	0x4c2
 2024 0508 00       		.byte	0
 2025 0509 08       		.uleb128 0x8
 2026 050a 723500   		.ascii	"r5\000"
 2027 050d 01       		.byte	0x1
 2028 050e 1101     		.2byte	0x111
 2029 0510 C2040000 		.4byte	0x4c2
 2030 0514 04       		.byte	0x4
 2031 0515 08       		.uleb128 0x8
 2032 0516 723600   		.ascii	"r6\000"
 2033 0519 01       		.byte	0x1
 2034 051a 1201     		.2byte	0x112
 2035 051c C2040000 		.4byte	0x4c2
 2036 0520 08       		.byte	0x8
 2037 0521 08       		.uleb128 0x8
 2038 0522 723700   		.ascii	"r7\000"
 2039 0525 01       		.byte	0x1
 2040 0526 1301     		.2byte	0x113
 2041 0528 C2040000 		.4byte	0x4c2
 2042 052c 0C       		.byte	0xc
 2043 052d 08       		.uleb128 0x8
 2044 052e 723800   		.ascii	"r8\000"
 2045 0531 01       		.byte	0x1
 2046 0532 1401     		.2byte	0x114
 2047 0534 C2040000 		.4byte	0x4c2
 2048 0538 10       		.byte	0x10
 2049 0539 08       		.uleb128 0x8
 2050 053a 723900   		.ascii	"r9\000"
 2051 053d 01       		.byte	0x1
 2052 053e 1501     		.2byte	0x115
 2053 0540 C2040000 		.4byte	0x4c2
 2054 0544 14       		.byte	0x14
 2055 0545 08       		.uleb128 0x8
 2056 0546 72313000 		.ascii	"r10\000"
 2057 054a 01       		.byte	0x1
 2058 054b 1601     		.2byte	0x116
 2059 054d C2040000 		.4byte	0x4c2
 2060 0551 18       		.byte	0x18
 2061 0552 08       		.uleb128 0x8
 2062 0553 72313100 		.ascii	"r11\000"
 2063 0557 01       		.byte	0x1
 2064 0558 1701     		.2byte	0x117
 2065 055a C2040000 		.4byte	0x4c2
 2066 055e 1C       		.byte	0x1c
 2067 055f 08       		.uleb128 0x8
 2068 0560 6C7200   		.ascii	"lr\000"
 2069 0563 01       		.byte	0x1
 2070 0564 1801     		.2byte	0x118
 2071 0566 C2040000 		.4byte	0x4c2
ARM GAS  /tmp/cceWPl9e.s 			page 38


 2072 056a 20       		.byte	0x20
 2073 056b 00       		.byte	0
 2074 056c 0A       		.uleb128 0xa
 2075 056d 04       		.byte	0x4
 2076 056e F1040000 		.4byte	0x4f1
 2077 0572 13       		.uleb128 0x13
 2078 0573 10       		.byte	0x10
 2079 0574 0B       		.byte	0xb
 2080 0575 51       		.byte	0x51
 2081 0576 AB050000 		.4byte	0x5ab
 2082 057a 07       		.uleb128 0x7
 2083 057b 14000000 		.4byte	.LASF93
 2084 057f 0B       		.byte	0xb
 2085 0580 55       		.byte	0x55
 2086 0581 48010000 		.4byte	0x148
 2087 0585 00       		.byte	0
 2088 0586 07       		.uleb128 0x7
 2089 0587 95010000 		.4byte	.LASF94
 2090 058b 0B       		.byte	0xb
 2091 058c 59       		.byte	0x59
 2092 058d 6F020000 		.4byte	0x26f
 2093 0591 04       		.byte	0x4
 2094 0592 07       		.uleb128 0x7
 2095 0593 FA070000 		.4byte	.LASF95
 2096 0597 0B       		.byte	0xb
 2097 0598 5D       		.byte	0x5d
 2098 0599 4C030000 		.4byte	0x34c
 2099 059d 08       		.byte	0x8
 2100 059e 07       		.uleb128 0x7
 2101 059f CD000000 		.4byte	.LASF96
 2102 05a3 0B       		.byte	0xb
 2103 05a4 61       		.byte	0x61
 2104 05a5 93000000 		.4byte	0x93
 2105 05a9 0C       		.byte	0xc
 2106 05aa 00       		.byte	0
 2107 05ab 04       		.uleb128 0x4
 2108 05ac D8040000 		.4byte	.LASF97
 2109 05b0 0B       		.byte	0xb
 2110 05b1 62       		.byte	0x62
 2111 05b2 72050000 		.4byte	0x572
 2112 05b6 14       		.uleb128 0x14
 2113 05b7 0804     		.2byte	0x408
 2114 05b9 0B       		.byte	0xb
 2115 05ba 67       		.byte	0x67
 2116 05bb E4050000 		.4byte	0x5e4
 2117 05bf 07       		.uleb128 0x7
 2118 05c0 94020000 		.4byte	.LASF98
 2119 05c4 0B       		.byte	0xb
 2120 05c5 6B       		.byte	0x6b
 2121 05c6 28000000 		.4byte	0x28
 2122 05ca 00       		.byte	0
 2123 05cb 07       		.uleb128 0x7
 2124 05cc 00000000 		.4byte	.LASF99
 2125 05d0 0B       		.byte	0xb
 2126 05d1 6F       		.byte	0x6f
 2127 05d2 E4050000 		.4byte	0x5e4
 2128 05d6 04       		.byte	0x4
ARM GAS  /tmp/cceWPl9e.s 			page 39


 2129 05d7 07       		.uleb128 0x7
 2130 05d8 67050000 		.4byte	.LASF100
 2131 05dc 0B       		.byte	0xb
 2132 05dd 73       		.byte	0x73
 2133 05de EA050000 		.4byte	0x5ea
 2134 05e2 08       		.byte	0x8
 2135 05e3 00       		.byte	0
 2136 05e4 0A       		.uleb128 0xa
 2137 05e5 04       		.byte	0x4
 2138 05e6 AB050000 		.4byte	0x5ab
 2139 05ea 15       		.uleb128 0x15
 2140 05eb AB050000 		.4byte	0x5ab
 2141 05ef FA050000 		.4byte	0x5fa
 2142 05f3 16       		.uleb128 0x16
 2143 05f4 BB040000 		.4byte	0x4bb
 2144 05f8 3F       		.byte	0x3f
 2145 05f9 00       		.byte	0
 2146 05fa 04       		.uleb128 0x4
 2147 05fb BB000000 		.4byte	.LASF101
 2148 05ff 0B       		.byte	0xb
 2149 0600 74       		.byte	0x74
 2150 0601 B6050000 		.4byte	0x5b6
 2151 0605 13       		.uleb128 0x13
 2152 0606 04       		.byte	0x4
 2153 0607 0C       		.byte	0xc
 2154 0608 38       		.byte	0x38
 2155 0609 1A060000 		.4byte	0x61a
 2156 060d 07       		.uleb128 0x7
 2157 060e 23070000 		.4byte	.LASF102
 2158 0612 0C       		.byte	0xc
 2159 0613 3C       		.byte	0x3c
 2160 0614 C4000000 		.4byte	0xc4
 2161 0618 00       		.byte	0
 2162 0619 00       		.byte	0
 2163 061a 04       		.uleb128 0x4
 2164 061b 01050000 		.4byte	.LASF103
 2165 061f 0C       		.byte	0xc
 2166 0620 3D       		.byte	0x3d
 2167 0621 05060000 		.4byte	0x605
 2168 0625 13       		.uleb128 0x13
 2169 0626 18       		.byte	0x18
 2170 0627 0C       		.byte	0xc
 2171 0628 48       		.byte	0x48
 2172 0629 68060000 		.4byte	0x668
 2173 062d 07       		.uleb128 0x7
 2174 062e D6060000 		.4byte	.LASF104
 2175 0632 0C       		.byte	0xc
 2176 0633 49       		.byte	0x49
 2177 0634 C4000000 		.4byte	0xc4
 2178 0638 00       		.byte	0
 2179 0639 07       		.uleb128 0x7
 2180 063a 8B000000 		.4byte	.LASF105
 2181 063e 0C       		.byte	0xc
 2182 063f 4A       		.byte	0x4a
 2183 0640 C4000000 		.4byte	0xc4
 2184 0644 04       		.byte	0x4
 2185 0645 07       		.uleb128 0x7
ARM GAS  /tmp/cceWPl9e.s 			page 40


 2186 0646 EF030000 		.4byte	.LASF106
 2187 064a 0C       		.byte	0xc
 2188 064b 4B       		.byte	0x4b
 2189 064c C4000000 		.4byte	0xc4
 2190 0650 08       		.byte	0x8
 2191 0651 12       		.uleb128 0x12
 2192 0652 6E00     		.ascii	"n\000"
 2193 0654 0C       		.byte	0xc
 2194 0655 4C       		.byte	0x4c
 2195 0656 3D010000 		.4byte	0x13d
 2196 065a 0C       		.byte	0xc
 2197 065b 07       		.uleb128 0x7
 2198 065c 4B050000 		.4byte	.LASF107
 2199 0660 0C       		.byte	0xc
 2200 0661 4D       		.byte	0x4d
 2201 0662 CF000000 		.4byte	0xcf
 2202 0666 10       		.byte	0x10
 2203 0667 00       		.byte	0
 2204 0668 04       		.uleb128 0x4
 2205 0669 91000000 		.4byte	.LASF108
 2206 066d 0C       		.byte	0xc
 2207 066e 4E       		.byte	0x4e
 2208 066f 25060000 		.4byte	0x625
 2209 0673 13       		.uleb128 0x13
 2210 0674 38       		.byte	0x38
 2211 0675 0D       		.byte	0xd
 2212 0676 38       		.byte	0x38
 2213 0677 AC060000 		.4byte	0x6ac
 2214 067b 07       		.uleb128 0x7
 2215 067c 73030000 		.4byte	.LASF109
 2216 0680 0D       		.byte	0xd
 2217 0681 39       		.byte	0x39
 2218 0682 3D010000 		.4byte	0x13d
 2219 0686 00       		.byte	0
 2220 0687 07       		.uleb128 0x7
 2221 0688 9F050000 		.4byte	.LASF110
 2222 068c 0D       		.byte	0xd
 2223 068d 3A       		.byte	0x3a
 2224 068e 3D010000 		.4byte	0x13d
 2225 0692 04       		.byte	0x4
 2226 0693 07       		.uleb128 0x7
 2227 0694 E7070000 		.4byte	.LASF111
 2228 0698 0D       		.byte	0xd
 2229 0699 3B       		.byte	0x3b
 2230 069a 68060000 		.4byte	0x668
 2231 069e 08       		.byte	0x8
 2232 069f 07       		.uleb128 0x7
 2233 06a0 42040000 		.4byte	.LASF112
 2234 06a4 0D       		.byte	0xd
 2235 06a5 3D       		.byte	0x3d
 2236 06a6 68060000 		.4byte	0x668
 2237 06aa 20       		.byte	0x20
 2238 06ab 00       		.byte	0
 2239 06ac 04       		.uleb128 0x4
 2240 06ad B9030000 		.4byte	.LASF113
 2241 06b1 0D       		.byte	0xd
 2242 06b2 3F       		.byte	0x3f
ARM GAS  /tmp/cceWPl9e.s 			page 41


 2243 06b3 73060000 		.4byte	0x673
 2244 06b7 17       		.uleb128 0x17
 2245 06b8 04       		.byte	0x4
 2246 06b9 09       		.byte	0x9
 2247 06ba FA       		.byte	0xfa
 2248 06bb 14070000 		.4byte	0x714
 2249 06bf 18       		.uleb128 0x18
 2250 06c0 22000000 		.4byte	.LASF114
 2251 06c4 09       		.byte	0x9
 2252 06c5 0101     		.2byte	0x101
 2253 06c7 06010000 		.4byte	0x106
 2254 06cb 18       		.uleb128 0x18
 2255 06cc D6000000 		.4byte	.LASF115
 2256 06d0 09       		.byte	0x9
 2257 06d1 0801     		.2byte	0x108
 2258 06d3 06010000 		.4byte	0x106
 2259 06d7 18       		.uleb128 0x18
 2260 06d8 9F070000 		.4byte	.LASF116
 2261 06dc 09       		.byte	0x9
 2262 06dd 0F01     		.2byte	0x10f
 2263 06df 4C030000 		.4byte	0x34c
 2264 06e3 18       		.uleb128 0x18
 2265 06e4 1C000000 		.4byte	.LASF117
 2266 06e8 09       		.byte	0x9
 2267 06e9 1601     		.2byte	0x116
 2268 06eb 14070000 		.4byte	0x714
 2269 06ef 18       		.uleb128 0x18
 2270 06f0 4A030000 		.4byte	.LASF118
 2271 06f4 09       		.byte	0x9
 2272 06f5 1E01     		.2byte	0x11e
 2273 06f7 3F070000 		.4byte	0x73f
 2274 06fb 18       		.uleb128 0x18
 2275 06fc 8E060000 		.4byte	.LASF119
 2276 0700 09       		.byte	0x9
 2277 0701 2701     		.2byte	0x127
 2278 0703 76070000 		.4byte	0x776
 2279 0707 18       		.uleb128 0x18
 2280 0708 24060000 		.4byte	.LASF120
 2281 070c 09       		.byte	0x9
 2282 070d 2F01     		.2byte	0x12f
 2283 070f 1C010000 		.4byte	0x11c
 2284 0713 00       		.byte	0
 2285 0714 0A       		.uleb128 0xa
 2286 0715 04       		.byte	0x4
 2287 0716 64020000 		.4byte	0x264
 2288 071a 06       		.uleb128 0x6
 2289 071b 66060000 		.4byte	.LASF121
 2290 071f 0C       		.byte	0xc
 2291 0720 0E       		.byte	0xe
 2292 0721 34       		.byte	0x34
 2293 0722 3F070000 		.4byte	0x73f
 2294 0726 07       		.uleb128 0x7
 2295 0727 8C020000 		.4byte	.LASF122
 2296 072b 0E       		.byte	0xe
 2297 072c 35       		.byte	0x35
 2298 072d 99020000 		.4byte	0x299
 2299 0731 00       		.byte	0
ARM GAS  /tmp/cceWPl9e.s 			page 42


 2300 0732 07       		.uleb128 0x7
 2301 0733 A0030000 		.4byte	.LASF123
 2302 0737 0E       		.byte	0xe
 2303 0738 37       		.byte	0x37
 2304 0739 32010000 		.4byte	0x132
 2305 073d 08       		.byte	0x8
 2306 073e 00       		.byte	0
 2307 073f 0A       		.uleb128 0xa
 2308 0740 04       		.byte	0x4
 2309 0741 1A070000 		.4byte	0x71a
 2310 0745 06       		.uleb128 0x6
 2311 0746 51070000 		.4byte	.LASF124
 2312 074a 10       		.byte	0x10
 2313 074b 0F       		.byte	0xf
 2314 074c 39       		.byte	0x39
 2315 074d 76070000 		.4byte	0x776
 2316 0751 07       		.uleb128 0x7
 2317 0752 53010000 		.4byte	.LASF125
 2318 0756 0F       		.byte	0xf
 2319 0757 3A       		.byte	0x3a
 2320 0758 99020000 		.4byte	0x299
 2321 075c 00       		.byte	0
 2322 075d 07       		.uleb128 0x7
 2323 075e F2070000 		.4byte	.LASF126
 2324 0762 0F       		.byte	0xf
 2325 0763 3C       		.byte	0x3c
 2326 0764 6F020000 		.4byte	0x26f
 2327 0768 08       		.byte	0x8
 2328 0769 07       		.uleb128 0x7
 2329 076a DB060000 		.4byte	.LASF127
 2330 076e 0F       		.byte	0xf
 2331 076f 3E       		.byte	0x3e
 2332 0770 BA070000 		.4byte	0x7ba
 2333 0774 0C       		.byte	0xc
 2334 0775 00       		.byte	0
 2335 0776 0A       		.uleb128 0xa
 2336 0777 04       		.byte	0x4
 2337 0778 45070000 		.4byte	0x745
 2338 077c 0A       		.uleb128 0xa
 2339 077d 04       		.byte	0x4
 2340 077e 82070000 		.4byte	0x782
 2341 0782 19       		.uleb128 0x19
 2342 0783 87070000 		.4byte	0x787
 2343 0787 03       		.uleb128 0x3
 2344 0788 01       		.byte	0x1
 2345 0789 08       		.byte	0x8
 2346 078a C8060000 		.4byte	.LASF128
 2347 078e 0A       		.uleb128 0xa
 2348 078f 04       		.byte	0x4
 2349 0790 CD040000 		.4byte	0x4cd
 2350 0794 0A       		.uleb128 0xa
 2351 0795 04       		.byte	0x4
 2352 0796 4E030000 		.4byte	0x34e
 2353 079a 05       		.uleb128 0x5
 2354 079b 7C070000 		.4byte	0x77c
 2355 079f 15       		.uleb128 0x15
 2356 07a0 CD040000 		.4byte	0x4cd
ARM GAS  /tmp/cceWPl9e.s 			page 43


 2357 07a4 AF070000 		.4byte	0x7af
 2358 07a8 16       		.uleb128 0x16
 2359 07a9 BB040000 		.4byte	0x4bb
 2360 07ad 1E       		.byte	0x1e
 2361 07ae 00       		.byte	0
 2362 07af 04       		.uleb128 0x4
 2363 07b0 E3020000 		.4byte	.LASF129
 2364 07b4 0F       		.byte	0xf
 2365 07b5 34       		.byte	0x34
 2366 07b6 45070000 		.4byte	0x745
 2367 07ba 0A       		.uleb128 0xa
 2368 07bb 04       		.byte	0x4
 2369 07bc AF070000 		.4byte	0x7af
 2370 07c0 04       		.uleb128 0x4
 2371 07c1 7C040000 		.4byte	.LASF130
 2372 07c5 10       		.byte	0x10
 2373 07c6 34       		.byte	0x34
 2374 07c7 CB070000 		.4byte	0x7cb
 2375 07cb 06       		.uleb128 0x6
 2376 07cc 12080000 		.4byte	.LASF131
 2377 07d0 14       		.byte	0x14
 2378 07d1 10       		.byte	0x10
 2379 07d2 39       		.byte	0x39
 2380 07d3 14080000 		.4byte	0x814
 2381 07d7 07       		.uleb128 0x7
 2382 07d8 FB030000 		.4byte	.LASF132
 2383 07dc 10       		.byte	0x10
 2384 07dd 3A       		.byte	0x3a
 2385 07de 14080000 		.4byte	0x814
 2386 07e2 00       		.byte	0
 2387 07e3 07       		.uleb128 0x7
 2388 07e4 A6070000 		.4byte	.LASF133
 2389 07e8 10       		.byte	0x10
 2390 07e9 3D       		.byte	0x3d
 2391 07ea 6F020000 		.4byte	0x26f
 2392 07ee 04       		.byte	0x4
 2393 07ef 07       		.uleb128 0x7
 2394 07f0 36050000 		.4byte	.LASF134
 2395 07f4 10       		.byte	0x10
 2396 07f5 3F       		.byte	0x3f
 2397 07f6 1C010000 		.4byte	0x11c
 2398 07fa 08       		.byte	0x8
 2399 07fb 07       		.uleb128 0x7
 2400 07fc E1050000 		.4byte	.LASF135
 2401 0800 10       		.byte	0x10
 2402 0801 41       		.byte	0x41
 2403 0802 27010000 		.4byte	0x127
 2404 0806 0C       		.byte	0xc
 2405 0807 07       		.uleb128 0x7
 2406 0808 D2030000 		.4byte	.LASF136
 2407 080c 10       		.byte	0x10
 2408 080d 43       		.byte	0x43
 2409 080e 27010000 		.4byte	0x127
 2410 0812 10       		.byte	0x10
 2411 0813 00       		.byte	0
 2412 0814 0A       		.uleb128 0xa
 2413 0815 04       		.byte	0x4
ARM GAS  /tmp/cceWPl9e.s 			page 44


 2414 0816 C0070000 		.4byte	0x7c0
 2415 081a 06       		.uleb128 0x6
 2416 081b 70070000 		.4byte	.LASF137
 2417 081f 04       		.byte	0x4
 2418 0820 10       		.byte	0x10
 2419 0821 4A       		.byte	0x4a
 2420 0822 33080000 		.4byte	0x833
 2421 0826 07       		.uleb128 0x7
 2422 0827 5A070000 		.4byte	.LASF138
 2423 082b 10       		.byte	0x10
 2424 082c 4B       		.byte	0x4b
 2425 082d 14080000 		.4byte	0x814
 2426 0831 00       		.byte	0
 2427 0832 00       		.byte	0
 2428 0833 04       		.uleb128 0x4
 2429 0834 FA020000 		.4byte	.LASF139
 2430 0838 10       		.byte	0x10
 2431 0839 4E       		.byte	0x4e
 2432 083a 1A080000 		.4byte	0x81a
 2433 083e 04       		.uleb128 0x4
 2434 083f 18030000 		.4byte	.LASF140
 2435 0843 10       		.byte	0x10
 2436 0844 53       		.byte	0x53
 2437 0845 49080000 		.4byte	0x849
 2438 0849 0A       		.uleb128 0xa
 2439 084a 04       		.byte	0x4
 2440 084b 4F080000 		.4byte	0x84f
 2441 084f 0C       		.uleb128 0xc
 2442 0850 5A080000 		.4byte	0x85a
 2443 0854 0D       		.uleb128 0xd
 2444 0855 11010000 		.4byte	0x111
 2445 0859 00       		.byte	0
 2446 085a 1A       		.uleb128 0x1a
 2447 085b 0B070000 		.4byte	.LASF170
 2448 085f 02       		.byte	0x2
 2449 0860 2202     		.2byte	0x222
 2450 0862 03       		.byte	0x3
 2451 0863 74080000 		.4byte	0x874
 2452 0867 1B       		.uleb128 0x1b
 2453 0868 EB020000 		.4byte	.LASF171
 2454 086c 02       		.byte	0x2
 2455 086d 2202     		.2byte	0x222
 2456 086f A9000000 		.4byte	0xa9
 2457 0873 00       		.byte	0
 2458 0874 1C       		.uleb128 0x1c
 2459 0875 81000000 		.4byte	.LASF141
 2460 0879 01       		.byte	0x1
 2461 087a C801     		.2byte	0x1c8
 2462 087c 00000000 		.4byte	.LFB127
 2463 0880 10000000 		.4byte	.LFE127-.LFB127
 2464 0884 01       		.uleb128 0x1
 2465 0885 9C       		.byte	0x9c
 2466 0886 A4080000 		.4byte	0x8a4
 2467 088a 1D       		.uleb128 0x1d
 2468 088b 5A080000 		.4byte	0x85a
 2469 088f 06000000 		.4byte	.LBB6
 2470 0893 06000000 		.4byte	.LBE6-.LBB6
ARM GAS  /tmp/cceWPl9e.s 			page 45


 2471 0897 01       		.byte	0x1
 2472 0898 CB01     		.2byte	0x1cb
 2473 089a 1E       		.uleb128 0x1e
 2474 089b 67080000 		.4byte	0x867
 2475 089f 02       		.uleb128 0x2
 2476 08a0 91       		.byte	0x91
 2477 08a1 7C       		.sleb128 -4
 2478 08a2 00       		.byte	0
 2479 08a3 00       		.byte	0
 2480 08a4 1C       		.uleb128 0x1c
 2481 08a5 62010000 		.4byte	.LASF142
 2482 08a9 01       		.byte	0x1
 2483 08aa D601     		.2byte	0x1d6
 2484 08ac 00000000 		.4byte	.LFB128
 2485 08b0 10000000 		.4byte	.LFE128-.LFB128
 2486 08b4 01       		.uleb128 0x1
 2487 08b5 9C       		.byte	0x9c
 2488 08b6 D4080000 		.4byte	0x8d4
 2489 08ba 1D       		.uleb128 0x1d
 2490 08bb 5A080000 		.4byte	0x85a
 2491 08bf 06000000 		.4byte	.LBB8
 2492 08c3 06000000 		.4byte	.LBE8-.LBB8
 2493 08c7 01       		.byte	0x1
 2494 08c8 D901     		.2byte	0x1d9
 2495 08ca 1E       		.uleb128 0x1e
 2496 08cb 67080000 		.4byte	0x867
 2497 08cf 02       		.uleb128 0x2
 2498 08d0 91       		.byte	0x91
 2499 08d1 7C       		.sleb128 -4
 2500 08d2 00       		.byte	0
 2501 08d3 00       		.byte	0
 2502 08d4 1F       		.uleb128 0x1f
 2503 08d5 4B060000 		.4byte	.LASF172
 2504 08d9 03       		.byte	0x3
 2505 08da 5A01     		.2byte	0x15a
 2506 08dc 00000000 		.4byte	.LFB167
 2507 08e0 10000000 		.4byte	.LFE167-.LFB167
 2508 08e4 01       		.uleb128 0x1
 2509 08e5 9C       		.byte	0x9c
 2510 08e6 20       		.uleb128 0x20
 2511 08e7 D5070000 		.4byte	.LASF143
 2512 08eb 03       		.byte	0x3
 2513 08ec 6601     		.2byte	0x166
 2514 08ee 00000000 		.4byte	.LFB168
 2515 08f2 38000000 		.4byte	.LFE168-.LFB168
 2516 08f6 01       		.uleb128 0x1
 2517 08f7 9C       		.byte	0x9c
 2518 08f8 0C090000 		.4byte	0x90c
 2519 08fc 21       		.uleb128 0x21
 2520 08fd 3A060000 		.4byte	.LASF146
 2521 0901 1C090000 		.4byte	0x91c
 2522 0905 05       		.uleb128 0x5
 2523 0906 03       		.byte	0x3
 2524 0907 00000000 		.4byte	__func__.5925
 2525 090b 00       		.byte	0
 2526 090c 15       		.uleb128 0x15
 2527 090d 87070000 		.4byte	0x787
ARM GAS  /tmp/cceWPl9e.s 			page 46


 2528 0911 1C090000 		.4byte	0x91c
 2529 0915 16       		.uleb128 0x16
 2530 0916 BB040000 		.4byte	0x4bb
 2531 091a 0B       		.byte	0xb
 2532 091b 00       		.byte	0
 2533 091c 19       		.uleb128 0x19
 2534 091d 0C090000 		.4byte	0x90c
 2535 0921 22       		.uleb128 0x22
 2536 0922 1F040000 		.4byte	.LASF147
 2537 0926 04       		.byte	0x4
 2538 0927 67       		.byte	0x67
 2539 0928 00000000 		.4byte	.LFB240
 2540 092c 5C000000 		.4byte	.LFE240-.LFB240
 2541 0930 01       		.uleb128 0x1
 2542 0931 9C       		.byte	0x9c
 2543 0932 7E090000 		.4byte	0x97e
 2544 0936 23       		.uleb128 0x23
 2545 0937 65737000 		.ascii	"esp\000"
 2546 093b 04       		.byte	0x4
 2547 093c 67       		.byte	0x67
 2548 093d 7E090000 		.4byte	0x97e
 2549 0941 02       		.uleb128 0x2
 2550 0942 91       		.byte	0x91
 2551 0943 74       		.sleb128 -12
 2552 0944 23       		.uleb128 0x23
 2553 0945 656C7000 		.ascii	"elp\000"
 2554 0949 04       		.byte	0x4
 2555 094a 68       		.byte	0x68
 2556 094b 14080000 		.4byte	0x814
 2557 094f 02       		.uleb128 0x2
 2558 0950 91       		.byte	0x91
 2559 0951 70       		.sleb128 -16
 2560 0952 24       		.uleb128 0x24
 2561 0953 7E060000 		.4byte	.LASF144
 2562 0957 04       		.byte	0x4
 2563 0958 69       		.byte	0x69
 2564 0959 1C010000 		.4byte	0x11c
 2565 095d 02       		.uleb128 0x2
 2566 095e 91       		.byte	0x91
 2567 095f 6C       		.sleb128 -20
 2568 0960 24       		.uleb128 0x24
 2569 0961 7D020000 		.4byte	.LASF145
 2570 0965 04       		.byte	0x4
 2571 0966 6A       		.byte	0x6a
 2572 0967 27010000 		.4byte	0x127
 2573 096b 02       		.uleb128 0x2
 2574 096c 91       		.byte	0x91
 2575 096d 68       		.sleb128 -24
 2576 096e 21       		.uleb128 0x21
 2577 096f 3A060000 		.4byte	.LASF146
 2578 0973 94090000 		.4byte	0x994
 2579 0977 05       		.uleb128 0x5
 2580 0978 03       		.byte	0x3
 2581 0979 00000000 		.4byte	__func__.6623
 2582 097d 00       		.byte	0
 2583 097e 0A       		.uleb128 0xa
 2584 097f 04       		.byte	0x4
ARM GAS  /tmp/cceWPl9e.s 			page 47


 2585 0980 33080000 		.4byte	0x833
 2586 0984 15       		.uleb128 0x15
 2587 0985 87070000 		.4byte	0x787
 2588 0989 94090000 		.4byte	0x994
 2589 098d 16       		.uleb128 0x16
 2590 098e BB040000 		.4byte	0x4bb
 2591 0992 1A       		.byte	0x1a
 2592 0993 00       		.byte	0
 2593 0994 19       		.uleb128 0x19
 2594 0995 84090000 		.4byte	0x984
 2595 0999 22       		.uleb128 0x22
 2596 099a 03040000 		.4byte	.LASF148
 2597 099e 04       		.byte	0x4
 2598 099f 85       		.byte	0x85
 2599 09a0 00000000 		.4byte	.LFB241
 2600 09a4 58000000 		.4byte	.LFE241-.LFB241
 2601 09a8 01       		.uleb128 0x1
 2602 09a9 9C       		.byte	0x9c
 2603 09aa E6090000 		.4byte	0x9e6
 2604 09ae 23       		.uleb128 0x23
 2605 09af 65737000 		.ascii	"esp\000"
 2606 09b3 04       		.byte	0x4
 2607 09b4 85       		.byte	0x85
 2608 09b5 7E090000 		.4byte	0x97e
 2609 09b9 02       		.uleb128 0x2
 2610 09ba 91       		.byte	0x91
 2611 09bb 6C       		.sleb128 -20
 2612 09bc 23       		.uleb128 0x23
 2613 09bd 656C7000 		.ascii	"elp\000"
 2614 09c1 04       		.byte	0x4
 2615 09c2 85       		.byte	0x85
 2616 09c3 14080000 		.4byte	0x814
 2617 09c7 02       		.uleb128 0x2
 2618 09c8 91       		.byte	0x91
 2619 09c9 68       		.sleb128 -24
 2620 09ca 25       		.uleb128 0x25
 2621 09cb 7000     		.ascii	"p\000"
 2622 09cd 04       		.byte	0x4
 2623 09ce 86       		.byte	0x86
 2624 09cf 14080000 		.4byte	0x814
 2625 09d3 02       		.uleb128 0x2
 2626 09d4 91       		.byte	0x91
 2627 09d5 74       		.sleb128 -12
 2628 09d6 21       		.uleb128 0x21
 2629 09d7 3A060000 		.4byte	.LASF146
 2630 09db F6090000 		.4byte	0x9f6
 2631 09df 05       		.uleb128 0x5
 2632 09e0 03       		.byte	0x3
 2633 09e1 00000000 		.4byte	__func__.6629
 2634 09e5 00       		.byte	0
 2635 09e6 15       		.uleb128 0x15
 2636 09e7 87070000 		.4byte	0x787
 2637 09eb F6090000 		.4byte	0x9f6
 2638 09ef 16       		.uleb128 0x16
 2639 09f0 BB040000 		.4byte	0x4bb
 2640 09f4 0F       		.byte	0xf
 2641 09f5 00       		.byte	0
ARM GAS  /tmp/cceWPl9e.s 			page 48


 2642 09f6 19       		.uleb128 0x19
 2643 09f7 E6090000 		.4byte	0x9e6
 2644 09fb 26       		.uleb128 0x26
 2645 09fc 5C030000 		.4byte	.LASF149
 2646 0a00 04       		.byte	0x4
 2647 0a01 A2       		.byte	0xa2
 2648 0a02 1C010000 		.4byte	0x11c
 2649 0a06 00000000 		.4byte	.LFB242
 2650 0a0a 3C000000 		.4byte	.LFE242-.LFB242
 2651 0a0e 01       		.uleb128 0x1
 2652 0a0f 9C       		.byte	0x9c
 2653 0a10 2F0A0000 		.4byte	0xa2f
 2654 0a14 24       		.uleb128 0x24
 2655 0a15 7E060000 		.4byte	.LASF144
 2656 0a19 04       		.byte	0x4
 2657 0a1a A2       		.byte	0xa2
 2658 0a1b 1C010000 		.4byte	0x11c
 2659 0a1f 02       		.uleb128 0x2
 2660 0a20 91       		.byte	0x91
 2661 0a21 6C       		.sleb128 -20
 2662 0a22 25       		.uleb128 0x25
 2663 0a23 6D00     		.ascii	"m\000"
 2664 0a25 04       		.byte	0x4
 2665 0a26 A3       		.byte	0xa3
 2666 0a27 1C010000 		.4byte	0x11c
 2667 0a2b 02       		.uleb128 0x2
 2668 0a2c 91       		.byte	0x91
 2669 0a2d 74       		.sleb128 -12
 2670 0a2e 00       		.byte	0
 2671 0a2f 26       		.uleb128 0x26
 2672 0a30 90050000 		.4byte	.LASF150
 2673 0a34 04       		.byte	0x4
 2674 0a35 B6       		.byte	0xb6
 2675 0a36 1C010000 		.4byte	0x11c
 2676 0a3a 00000000 		.4byte	.LFB243
 2677 0a3e 34000000 		.4byte	.LFE243-.LFB243
 2678 0a42 01       		.uleb128 0x1
 2679 0a43 9C       		.byte	0x9c
 2680 0a44 570A0000 		.4byte	0xa57
 2681 0a48 24       		.uleb128 0x24
 2682 0a49 7E060000 		.4byte	.LASF144
 2683 0a4d 04       		.byte	0x4
 2684 0a4e B6       		.byte	0xb6
 2685 0a4f 1C010000 		.4byte	0x11c
 2686 0a53 02       		.uleb128 0x2
 2687 0a54 91       		.byte	0x91
 2688 0a55 74       		.sleb128 -12
 2689 0a56 00       		.byte	0
 2690 0a57 22       		.uleb128 0x22
 2691 0a58 9B010000 		.4byte	.LASF151
 2692 0a5c 04       		.byte	0x4
 2693 0a5d D1       		.byte	0xd1
 2694 0a5e 00000000 		.4byte	.LFB244
 2695 0a62 68000000 		.4byte	.LFE244-.LFB244
 2696 0a66 01       		.uleb128 0x1
 2697 0a67 9C       		.byte	0x9c
 2698 0a68 A60A0000 		.4byte	0xaa6
ARM GAS  /tmp/cceWPl9e.s 			page 49


 2699 0a6c 23       		.uleb128 0x23
 2700 0a6d 65737000 		.ascii	"esp\000"
 2701 0a71 04       		.byte	0x4
 2702 0a72 D1       		.byte	0xd1
 2703 0a73 7E090000 		.4byte	0x97e
 2704 0a77 02       		.uleb128 0x2
 2705 0a78 91       		.byte	0x91
 2706 0a79 6C       		.sleb128 -20
 2707 0a7a 24       		.uleb128 0x24
 2708 0a7b 85070000 		.4byte	.LASF152
 2709 0a7f 04       		.byte	0x4
 2710 0a80 D1       		.byte	0xd1
 2711 0a81 27010000 		.4byte	0x127
 2712 0a85 02       		.uleb128 0x2
 2713 0a86 91       		.byte	0x91
 2714 0a87 68       		.sleb128 -24
 2715 0a88 25       		.uleb128 0x25
 2716 0a89 656C7000 		.ascii	"elp\000"
 2717 0a8d 04       		.byte	0x4
 2718 0a8e D2       		.byte	0xd2
 2719 0a8f 14080000 		.4byte	0x814
 2720 0a93 02       		.uleb128 0x2
 2721 0a94 91       		.byte	0x91
 2722 0a95 74       		.sleb128 -12
 2723 0a96 21       		.uleb128 0x21
 2724 0a97 3A060000 		.4byte	.LASF146
 2725 0a9b B60A0000 		.4byte	0xab6
 2726 0a9f 05       		.uleb128 0x5
 2727 0aa0 03       		.byte	0x3
 2728 0aa1 00000000 		.4byte	__func__.6645
 2729 0aa5 00       		.byte	0
 2730 0aa6 15       		.uleb128 0x15
 2731 0aa7 87070000 		.4byte	0x787
 2732 0aab B60A0000 		.4byte	0xab6
 2733 0aaf 16       		.uleb128 0x16
 2734 0ab0 BB040000 		.4byte	0x4bb
 2735 0ab4 14       		.byte	0x14
 2736 0ab5 00       		.byte	0
 2737 0ab6 19       		.uleb128 0x19
 2738 0ab7 A60A0000 		.4byte	0xaa6
 2739 0abb 26       		.uleb128 0x26
 2740 0abc CB050000 		.4byte	.LASF153
 2741 0ac0 04       		.byte	0x4
 2742 0ac1 F1       		.byte	0xf1
 2743 0ac2 27010000 		.4byte	0x127
 2744 0ac6 00000000 		.4byte	.LFB245
 2745 0aca 24000000 		.4byte	.LFE245-.LFB245
 2746 0ace 01       		.uleb128 0x1
 2747 0acf 9C       		.byte	0x9c
 2748 0ad0 F10A0000 		.4byte	0xaf1
 2749 0ad4 23       		.uleb128 0x23
 2750 0ad5 656C7000 		.ascii	"elp\000"
 2751 0ad9 04       		.byte	0x4
 2752 0ada F1       		.byte	0xf1
 2753 0adb 14080000 		.4byte	0x814
 2754 0adf 02       		.uleb128 0x2
 2755 0ae0 91       		.byte	0x91
ARM GAS  /tmp/cceWPl9e.s 			page 50


 2756 0ae1 6C       		.sleb128 -20
 2757 0ae2 27       		.uleb128 0x27
 2758 0ae3 85070000 		.4byte	.LASF152
 2759 0ae7 04       		.byte	0x4
 2760 0ae8 F2       		.byte	0xf2
 2761 0ae9 27010000 		.4byte	0x127
 2762 0aed 02       		.uleb128 0x2
 2763 0aee 91       		.byte	0x91
 2764 0aef 74       		.sleb128 -12
 2765 0af0 00       		.byte	0
 2766 0af1 28       		.uleb128 0x28
 2767 0af2 75000000 		.4byte	.LASF154
 2768 0af6 04       		.byte	0x4
 2769 0af7 0401     		.2byte	0x104
 2770 0af9 00000000 		.4byte	.LFB246
 2771 0afd 34000000 		.4byte	.LFE246-.LFB246
 2772 0b01 01       		.uleb128 0x1
 2773 0b02 9C       		.byte	0x9c
 2774 0b03 340B0000 		.4byte	0xb34
 2775 0b07 29       		.uleb128 0x29
 2776 0b08 747000   		.ascii	"tp\000"
 2777 0b0b 04       		.byte	0x4
 2778 0b0c 0401     		.2byte	0x104
 2779 0b0e 6F020000 		.4byte	0x26f
 2780 0b12 02       		.uleb128 0x2
 2781 0b13 91       		.byte	0x91
 2782 0b14 74       		.sleb128 -12
 2783 0b15 2A       		.uleb128 0x2a
 2784 0b16 7E060000 		.4byte	.LASF144
 2785 0b1a 04       		.byte	0x4
 2786 0b1b 0401     		.2byte	0x104
 2787 0b1d 1C010000 		.4byte	0x11c
 2788 0b21 02       		.uleb128 0x2
 2789 0b22 91       		.byte	0x91
 2790 0b23 70       		.sleb128 -16
 2791 0b24 21       		.uleb128 0x21
 2792 0b25 3A060000 		.4byte	.LASF146
 2793 0b29 340B0000 		.4byte	0xb34
 2794 0b2d 05       		.uleb128 0x5
 2795 0b2e 03       		.byte	0x3
 2796 0b2f 00000000 		.4byte	__func__.6657
 2797 0b33 00       		.byte	0
 2798 0b34 19       		.uleb128 0x19
 2799 0b35 0C090000 		.4byte	0x90c
 2800 0b39 28       		.uleb128 0x28
 2801 0b3a 21080000 		.4byte	.LASF155
 2802 0b3e 04       		.byte	0x4
 2803 0b3f 1A01     		.2byte	0x11a
 2804 0b41 00000000 		.4byte	.LFB247
 2805 0b45 70000000 		.4byte	.LFE247-.LFB247
 2806 0b49 01       		.uleb128 0x1
 2807 0b4a 9C       		.byte	0x9c
 2808 0b4b 7C0B0000 		.4byte	0xb7c
 2809 0b4f 29       		.uleb128 0x29
 2810 0b50 747000   		.ascii	"tp\000"
 2811 0b53 04       		.byte	0x4
 2812 0b54 1A01     		.2byte	0x11a
ARM GAS  /tmp/cceWPl9e.s 			page 51


 2813 0b56 6F020000 		.4byte	0x26f
 2814 0b5a 02       		.uleb128 0x2
 2815 0b5b 91       		.byte	0x91
 2816 0b5c 74       		.sleb128 -12
 2817 0b5d 2A       		.uleb128 0x2a
 2818 0b5e 7E060000 		.4byte	.LASF144
 2819 0b62 04       		.byte	0x4
 2820 0b63 1A01     		.2byte	0x11a
 2821 0b65 1C010000 		.4byte	0x11c
 2822 0b69 02       		.uleb128 0x2
 2823 0b6a 91       		.byte	0x91
 2824 0b6b 70       		.sleb128 -16
 2825 0b6c 21       		.uleb128 0x21
 2826 0b6d 3A060000 		.4byte	.LASF146
 2827 0b71 8C0B0000 		.4byte	0xb8c
 2828 0b75 05       		.uleb128 0x5
 2829 0b76 03       		.byte	0x3
 2830 0b77 00000000 		.4byte	__func__.6662
 2831 0b7b 00       		.byte	0
 2832 0b7c 15       		.uleb128 0x15
 2833 0b7d 87070000 		.4byte	0x787
 2834 0b81 8C0B0000 		.4byte	0xb8c
 2835 0b85 16       		.uleb128 0x16
 2836 0b86 BB040000 		.4byte	0x4bb
 2837 0b8a 0C       		.byte	0xc
 2838 0b8b 00       		.byte	0
 2839 0b8c 19       		.uleb128 0x19
 2840 0b8d 7C0B0000 		.4byte	0xb7c
 2841 0b91 28       		.uleb128 0x28
 2842 0b92 B5020000 		.4byte	.LASF156
 2843 0b96 04       		.byte	0x4
 2844 0b97 3701     		.2byte	0x137
 2845 0b99 00000000 		.4byte	.LFB248
 2846 0b9d 22000000 		.4byte	.LFE248-.LFB248
 2847 0ba1 01       		.uleb128 0x1
 2848 0ba2 9C       		.byte	0x9c
 2849 0ba3 C60B0000 		.4byte	0xbc6
 2850 0ba7 29       		.uleb128 0x29
 2851 0ba8 65737000 		.ascii	"esp\000"
 2852 0bac 04       		.byte	0x4
 2853 0bad 3701     		.2byte	0x137
 2854 0baf 7E090000 		.4byte	0x97e
 2855 0bb3 02       		.uleb128 0x2
 2856 0bb4 91       		.byte	0x91
 2857 0bb5 74       		.sleb128 -12
 2858 0bb6 2A       		.uleb128 0x2a
 2859 0bb7 85070000 		.4byte	.LASF152
 2860 0bbb 04       		.byte	0x4
 2861 0bbc 3701     		.2byte	0x137
 2862 0bbe 27010000 		.4byte	0x127
 2863 0bc2 02       		.uleb128 0x2
 2864 0bc3 91       		.byte	0x91
 2865 0bc4 70       		.sleb128 -16
 2866 0bc5 00       		.byte	0
 2867 0bc6 2B       		.uleb128 0x2b
 2868 0bc7 0D060000 		.4byte	.LASF157
 2869 0bcb 04       		.byte	0x4
ARM GAS  /tmp/cceWPl9e.s 			page 52


 2870 0bcc 4A01     		.2byte	0x14a
 2871 0bce 27010000 		.4byte	0x127
 2872 0bd2 00000000 		.4byte	.LFB249
 2873 0bd6 18000000 		.4byte	.LFE249-.LFB249
 2874 0bda 01       		.uleb128 0x1
 2875 0bdb 9C       		.byte	0x9c
 2876 0bdc FF0B0000 		.4byte	0xbff
 2877 0be0 29       		.uleb128 0x29
 2878 0be1 656C7000 		.ascii	"elp\000"
 2879 0be5 04       		.byte	0x4
 2880 0be6 4A01     		.2byte	0x14a
 2881 0be8 14080000 		.4byte	0x814
 2882 0bec 02       		.uleb128 0x2
 2883 0bed 91       		.byte	0x91
 2884 0bee 74       		.sleb128 -12
 2885 0bef 2C       		.uleb128 0x2c
 2886 0bf0 85070000 		.4byte	.LASF152
 2887 0bf4 04       		.byte	0x4
 2888 0bf5 4B01     		.2byte	0x14b
 2889 0bf7 27010000 		.4byte	0x127
 2890 0bfb 02       		.uleb128 0x2
 2891 0bfc 91       		.byte	0x91
 2892 0bfd 7C       		.sleb128 -4
 2893 0bfe 00       		.byte	0
 2894 0bff 28       		.uleb128 0x28
 2895 0c00 CA040000 		.4byte	.LASF158
 2896 0c04 04       		.byte	0x4
 2897 0c05 5C01     		.2byte	0x15c
 2898 0c07 00000000 		.4byte	.LFB250
 2899 0c0b 74000000 		.4byte	.LFE250-.LFB250
 2900 0c0f 01       		.uleb128 0x1
 2901 0c10 9C       		.byte	0x9c
 2902 0c11 520C0000 		.4byte	0xc52
 2903 0c15 2A       		.uleb128 0x2a
 2904 0c16 56050000 		.4byte	.LASF159
 2905 0c1a 04       		.byte	0x4
 2906 0c1b 5C01     		.2byte	0x15c
 2907 0c1d 520C0000 		.4byte	0xc52
 2908 0c21 02       		.uleb128 0x2
 2909 0c22 91       		.byte	0x91
 2910 0c23 6C       		.sleb128 -20
 2911 0c24 2A       		.uleb128 0x2a
 2912 0c25 7E060000 		.4byte	.LASF144
 2913 0c29 04       		.byte	0x4
 2914 0c2a 5C01     		.2byte	0x15c
 2915 0c2c 1C010000 		.4byte	0x11c
 2916 0c30 02       		.uleb128 0x2
 2917 0c31 91       		.byte	0x91
 2918 0c32 68       		.sleb128 -24
 2919 0c33 2D       		.uleb128 0x2d
 2920 0c34 65696400 		.ascii	"eid\000"
 2921 0c38 04       		.byte	0x4
 2922 0c39 5D01     		.2byte	0x15d
 2923 0c3b 11010000 		.4byte	0x111
 2924 0c3f 02       		.uleb128 0x2
 2925 0c40 91       		.byte	0x91
 2926 0c41 74       		.sleb128 -12
ARM GAS  /tmp/cceWPl9e.s 			page 53


 2927 0c42 21       		.uleb128 0x21
 2928 0c43 3A060000 		.4byte	.LASF146
 2929 0c47 6D0C0000 		.4byte	0xc6d
 2930 0c4b 05       		.uleb128 0x5
 2931 0c4c 03       		.byte	0x3
 2932 0c4d 00000000 		.4byte	__func__.6676
 2933 0c51 00       		.byte	0
 2934 0c52 0A       		.uleb128 0xa
 2935 0c53 04       		.byte	0x4
 2936 0c54 580C0000 		.4byte	0xc58
 2937 0c58 19       		.uleb128 0x19
 2938 0c59 3E080000 		.4byte	0x83e
 2939 0c5d 15       		.uleb128 0x15
 2940 0c5e 87070000 		.4byte	0x787
 2941 0c62 6D0C0000 		.4byte	0xc6d
 2942 0c66 16       		.uleb128 0x16
 2943 0c67 BB040000 		.4byte	0x4bb
 2944 0c6b 0D       		.byte	0xd
 2945 0c6c 00       		.byte	0
 2946 0c6d 19       		.uleb128 0x19
 2947 0c6e 5D0C0000 		.4byte	0xc5d
 2948 0c72 2E       		.uleb128 0x2e
 2949 0c73 BE050000 		.4byte	.LASF160
 2950 0c77 04       		.byte	0x4
 2951 0c78 7F01     		.2byte	0x17f
 2952 0c7a 1C010000 		.4byte	0x11c
 2953 0c7e 00000000 		.4byte	.LFB251
 2954 0c82 60000000 		.4byte	.LFE251-.LFB251
 2955 0c86 01       		.uleb128 0x1
 2956 0c87 9C       		.byte	0x9c
 2957 0c88 B80C0000 		.4byte	0xcb8
 2958 0c8c 2A       		.uleb128 0x2a
 2959 0c8d 7E060000 		.4byte	.LASF144
 2960 0c91 04       		.byte	0x4
 2961 0c92 7F01     		.2byte	0x17f
 2962 0c94 1C010000 		.4byte	0x11c
 2963 0c98 02       		.uleb128 0x2
 2964 0c99 91       		.byte	0x91
 2965 0c9a 6C       		.sleb128 -20
 2966 0c9b 2D       		.uleb128 0x2d
 2967 0c9c 63747000 		.ascii	"ctp\000"
 2968 0ca0 04       		.byte	0x4
 2969 0ca1 8001     		.2byte	0x180
 2970 0ca3 6F020000 		.4byte	0x26f
 2971 0ca7 02       		.uleb128 0x2
 2972 0ca8 91       		.byte	0x91
 2973 0ca9 70       		.sleb128 -16
 2974 0caa 2D       		.uleb128 0x2d
 2975 0cab 6D00     		.ascii	"m\000"
 2976 0cad 04       		.byte	0x4
 2977 0cae 8101     		.2byte	0x181
 2978 0cb0 1C010000 		.4byte	0x11c
 2979 0cb4 02       		.uleb128 0x2
 2980 0cb5 91       		.byte	0x91
 2981 0cb6 74       		.sleb128 -12
 2982 0cb7 00       		.byte	0
 2983 0cb8 2E       		.uleb128 0x2e
ARM GAS  /tmp/cceWPl9e.s 			page 54


 2984 0cb9 81010000 		.4byte	.LASF161
 2985 0cbd 04       		.byte	0x4
 2986 0cbe 9D01     		.2byte	0x19d
 2987 0cc0 1C010000 		.4byte	0x11c
 2988 0cc4 00000000 		.4byte	.LFB252
 2989 0cc8 58000000 		.4byte	.LFE252-.LFB252
 2990 0ccc 01       		.uleb128 0x1
 2991 0ccd 9C       		.byte	0x9c
 2992 0cce FE0C0000 		.4byte	0xcfe
 2993 0cd2 2A       		.uleb128 0x2a
 2994 0cd3 7E060000 		.4byte	.LASF144
 2995 0cd7 04       		.byte	0x4
 2996 0cd8 9D01     		.2byte	0x19d
 2997 0cda 1C010000 		.4byte	0x11c
 2998 0cde 02       		.uleb128 0x2
 2999 0cdf 91       		.byte	0x91
 3000 0ce0 6C       		.sleb128 -20
 3001 0ce1 2D       		.uleb128 0x2d
 3002 0ce2 63747000 		.ascii	"ctp\000"
 3003 0ce6 04       		.byte	0x4
 3004 0ce7 9E01     		.2byte	0x19e
 3005 0ce9 6F020000 		.4byte	0x26f
 3006 0ced 02       		.uleb128 0x2
 3007 0cee 91       		.byte	0x91
 3008 0cef 70       		.sleb128 -16
 3009 0cf0 2D       		.uleb128 0x2d
 3010 0cf1 6D00     		.ascii	"m\000"
 3011 0cf3 04       		.byte	0x4
 3012 0cf4 9F01     		.2byte	0x19f
 3013 0cf6 1C010000 		.4byte	0x11c
 3014 0cfa 02       		.uleb128 0x2
 3015 0cfb 91       		.byte	0x91
 3016 0cfc 74       		.sleb128 -12
 3017 0cfd 00       		.byte	0
 3018 0cfe 2E       		.uleb128 0x2e
 3019 0cff 17050000 		.4byte	.LASF162
 3020 0d03 04       		.byte	0x4
 3021 0d04 B901     		.2byte	0x1b9
 3022 0d06 1C010000 		.4byte	0x11c
 3023 0d0a 00000000 		.4byte	.LFB253
 3024 0d0e 4C000000 		.4byte	.LFE253-.LFB253
 3025 0d12 01       		.uleb128 0x1
 3026 0d13 9C       		.byte	0x9c
 3027 0d14 370D0000 		.4byte	0xd37
 3028 0d18 2A       		.uleb128 0x2a
 3029 0d19 7E060000 		.4byte	.LASF144
 3030 0d1d 04       		.byte	0x4
 3031 0d1e B901     		.2byte	0x1b9
 3032 0d20 1C010000 		.4byte	0x11c
 3033 0d24 02       		.uleb128 0x2
 3034 0d25 91       		.byte	0x91
 3035 0d26 6C       		.sleb128 -20
 3036 0d27 2D       		.uleb128 0x2d
 3037 0d28 63747000 		.ascii	"ctp\000"
 3038 0d2c 04       		.byte	0x4
 3039 0d2d BA01     		.2byte	0x1ba
 3040 0d2f 6F020000 		.4byte	0x26f
ARM GAS  /tmp/cceWPl9e.s 			page 55


 3041 0d33 02       		.uleb128 0x2
 3042 0d34 91       		.byte	0x91
 3043 0d35 74       		.sleb128 -12
 3044 0d36 00       		.byte	0
 3045 0d37 2E       		.uleb128 0x2e
 3046 0d38 8B070000 		.4byte	.LASF163
 3047 0d3c 04       		.byte	0x4
 3048 0d3d DF01     		.2byte	0x1df
 3049 0d3f 1C010000 		.4byte	0x11c
 3050 0d43 00000000 		.4byte	.LFB254
 3051 0d47 80000000 		.4byte	.LFE254-.LFB254
 3052 0d4b 01       		.uleb128 0x1
 3053 0d4c 9C       		.byte	0x9c
 3054 0d4d 8C0D0000 		.4byte	0xd8c
 3055 0d51 2A       		.uleb128 0x2a
 3056 0d52 7E060000 		.4byte	.LASF144
 3057 0d56 04       		.byte	0x4
 3058 0d57 DF01     		.2byte	0x1df
 3059 0d59 1C010000 		.4byte	0x11c
 3060 0d5d 02       		.uleb128 0x2
 3061 0d5e 91       		.byte	0x91
 3062 0d5f 6C       		.sleb128 -20
 3063 0d60 2A       		.uleb128 0x2a
 3064 0d61 12050000 		.4byte	.LASF164
 3065 0d65 04       		.byte	0x4
 3066 0d66 DF01     		.2byte	0x1df
 3067 0d68 48010000 		.4byte	0x148
 3068 0d6c 02       		.uleb128 0x2
 3069 0d6d 91       		.byte	0x91
 3070 0d6e 68       		.sleb128 -24
 3071 0d6f 2D       		.uleb128 0x2d
 3072 0d70 63747000 		.ascii	"ctp\000"
 3073 0d74 04       		.byte	0x4
 3074 0d75 E001     		.2byte	0x1e0
 3075 0d77 6F020000 		.4byte	0x26f
 3076 0d7b 02       		.uleb128 0x2
 3077 0d7c 91       		.byte	0x91
 3078 0d7d 70       		.sleb128 -16
 3079 0d7e 2D       		.uleb128 0x2d
 3080 0d7f 6D00     		.ascii	"m\000"
 3081 0d81 04       		.byte	0x4
 3082 0d82 E101     		.2byte	0x1e1
 3083 0d84 1C010000 		.4byte	0x11c
 3084 0d88 02       		.uleb128 0x2
 3085 0d89 91       		.byte	0x91
 3086 0d8a 74       		.sleb128 -12
 3087 0d8b 00       		.byte	0
 3088 0d8c 2E       		.uleb128 0x2e
 3089 0d8d 69020000 		.4byte	.LASF165
 3090 0d91 04       		.byte	0x4
 3091 0d92 0A02     		.2byte	0x20a
 3092 0d94 1C010000 		.4byte	0x11c
 3093 0d98 00000000 		.4byte	.LFB255
 3094 0d9c 78000000 		.4byte	.LFE255-.LFB255
 3095 0da0 01       		.uleb128 0x1
 3096 0da1 9C       		.byte	0x9c
 3097 0da2 E10D0000 		.4byte	0xde1
ARM GAS  /tmp/cceWPl9e.s 			page 56


 3098 0da6 2A       		.uleb128 0x2a
 3099 0da7 7E060000 		.4byte	.LASF144
 3100 0dab 04       		.byte	0x4
 3101 0dac 0A02     		.2byte	0x20a
 3102 0dae 1C010000 		.4byte	0x11c
 3103 0db2 02       		.uleb128 0x2
 3104 0db3 91       		.byte	0x91
 3105 0db4 6C       		.sleb128 -20
 3106 0db5 2A       		.uleb128 0x2a
 3107 0db6 12050000 		.4byte	.LASF164
 3108 0dba 04       		.byte	0x4
 3109 0dbb 0A02     		.2byte	0x20a
 3110 0dbd 48010000 		.4byte	0x148
 3111 0dc1 02       		.uleb128 0x2
 3112 0dc2 91       		.byte	0x91
 3113 0dc3 68       		.sleb128 -24
 3114 0dc4 2D       		.uleb128 0x2d
 3115 0dc5 63747000 		.ascii	"ctp\000"
 3116 0dc9 04       		.byte	0x4
 3117 0dca 0B02     		.2byte	0x20b
 3118 0dcc 6F020000 		.4byte	0x26f
 3119 0dd0 02       		.uleb128 0x2
 3120 0dd1 91       		.byte	0x91
 3121 0dd2 70       		.sleb128 -16
 3122 0dd3 2D       		.uleb128 0x2d
 3123 0dd4 6D00     		.ascii	"m\000"
 3124 0dd6 04       		.byte	0x4
 3125 0dd7 0C02     		.2byte	0x20c
 3126 0dd9 1C010000 		.4byte	0x11c
 3127 0ddd 02       		.uleb128 0x2
 3128 0dde 91       		.byte	0x91
 3129 0ddf 74       		.sleb128 -12
 3130 0de0 00       		.byte	0
 3131 0de1 2E       		.uleb128 0x2e
 3132 0de2 37010000 		.4byte	.LASF166
 3133 0de6 04       		.byte	0x4
 3134 0de7 3302     		.2byte	0x233
 3135 0de9 1C010000 		.4byte	0x11c
 3136 0ded 00000000 		.4byte	.LFB256
 3137 0df1 6C000000 		.4byte	.LFE256-.LFB256
 3138 0df5 01       		.uleb128 0x1
 3139 0df6 9C       		.byte	0x9c
 3140 0df7 290E0000 		.4byte	0xe29
 3141 0dfb 2A       		.uleb128 0x2a
 3142 0dfc 7E060000 		.4byte	.LASF144
 3143 0e00 04       		.byte	0x4
 3144 0e01 3302     		.2byte	0x233
 3145 0e03 1C010000 		.4byte	0x11c
 3146 0e07 02       		.uleb128 0x2
 3147 0e08 91       		.byte	0x91
 3148 0e09 6C       		.sleb128 -20
 3149 0e0a 2A       		.uleb128 0x2a
 3150 0e0b 12050000 		.4byte	.LASF164
 3151 0e0f 04       		.byte	0x4
 3152 0e10 3302     		.2byte	0x233
 3153 0e12 48010000 		.4byte	0x148
 3154 0e16 02       		.uleb128 0x2
ARM GAS  /tmp/cceWPl9e.s 			page 57


 3155 0e17 91       		.byte	0x91
 3156 0e18 68       		.sleb128 -24
 3157 0e19 2D       		.uleb128 0x2d
 3158 0e1a 63747000 		.ascii	"ctp\000"
 3159 0e1e 04       		.byte	0x4
 3160 0e1f 3402     		.2byte	0x234
 3161 0e21 6F020000 		.4byte	0x26f
 3162 0e25 02       		.uleb128 0x2
 3163 0e26 91       		.byte	0x91
 3164 0e27 74       		.sleb128 -12
 3165 0e28 00       		.byte	0
 3166 0e29 2F       		.uleb128 0x2f
 3167 0e2a 00010000 		.4byte	.LASF167
 3168 0e2e 11       		.byte	0x11
 3169 0e2f FA06     		.2byte	0x6fa
 3170 0e31 BF000000 		.4byte	0xbf
 3171 0e35 30       		.uleb128 0x30
 3172 0e36 636800   		.ascii	"ch\000"
 3173 0e39 09       		.byte	0x9
 3174 0e3a 0902     		.2byte	0x209
 3175 0e3c 43040000 		.4byte	0x443
 3176 0e40 00       		.byte	0
 3177              		.section	.debug_abbrev,"",%progbits
 3178              	.Ldebug_abbrev0:
 3179 0000 01       		.uleb128 0x1
 3180 0001 11       		.uleb128 0x11
 3181 0002 01       		.byte	0x1
 3182 0003 25       		.uleb128 0x25
 3183 0004 0E       		.uleb128 0xe
 3184 0005 13       		.uleb128 0x13
 3185 0006 0B       		.uleb128 0xb
 3186 0007 03       		.uleb128 0x3
 3187 0008 0E       		.uleb128 0xe
 3188 0009 55       		.uleb128 0x55
 3189 000a 17       		.uleb128 0x17
 3190 000b 11       		.uleb128 0x11
 3191 000c 01       		.uleb128 0x1
 3192 000d 10       		.uleb128 0x10
 3193 000e 17       		.uleb128 0x17
 3194 000f 00       		.byte	0
 3195 0010 00       		.byte	0
 3196 0011 02       		.uleb128 0x2
 3197 0012 24       		.uleb128 0x24
 3198 0013 00       		.byte	0
 3199 0014 0B       		.uleb128 0xb
 3200 0015 0B       		.uleb128 0xb
 3201 0016 3E       		.uleb128 0x3e
 3202 0017 0B       		.uleb128 0xb
 3203 0018 03       		.uleb128 0x3
 3204 0019 08       		.uleb128 0x8
 3205 001a 00       		.byte	0
 3206 001b 00       		.byte	0
 3207 001c 03       		.uleb128 0x3
 3208 001d 24       		.uleb128 0x24
 3209 001e 00       		.byte	0
 3210 001f 0B       		.uleb128 0xb
 3211 0020 0B       		.uleb128 0xb
ARM GAS  /tmp/cceWPl9e.s 			page 58


 3212 0021 3E       		.uleb128 0x3e
 3213 0022 0B       		.uleb128 0xb
 3214 0023 03       		.uleb128 0x3
 3215 0024 0E       		.uleb128 0xe
 3216 0025 00       		.byte	0
 3217 0026 00       		.byte	0
 3218 0027 04       		.uleb128 0x4
 3219 0028 16       		.uleb128 0x16
 3220 0029 00       		.byte	0
 3221 002a 03       		.uleb128 0x3
 3222 002b 0E       		.uleb128 0xe
 3223 002c 3A       		.uleb128 0x3a
 3224 002d 0B       		.uleb128 0xb
 3225 002e 3B       		.uleb128 0x3b
 3226 002f 0B       		.uleb128 0xb
 3227 0030 49       		.uleb128 0x49
 3228 0031 13       		.uleb128 0x13
 3229 0032 00       		.byte	0
 3230 0033 00       		.byte	0
 3231 0034 05       		.uleb128 0x5
 3232 0035 35       		.uleb128 0x35
 3233 0036 00       		.byte	0
 3234 0037 49       		.uleb128 0x49
 3235 0038 13       		.uleb128 0x13
 3236 0039 00       		.byte	0
 3237 003a 00       		.byte	0
 3238 003b 06       		.uleb128 0x6
 3239 003c 13       		.uleb128 0x13
 3240 003d 01       		.byte	0x1
 3241 003e 03       		.uleb128 0x3
 3242 003f 0E       		.uleb128 0xe
 3243 0040 0B       		.uleb128 0xb
 3244 0041 0B       		.uleb128 0xb
 3245 0042 3A       		.uleb128 0x3a
 3246 0043 0B       		.uleb128 0xb
 3247 0044 3B       		.uleb128 0x3b
 3248 0045 0B       		.uleb128 0xb
 3249 0046 01       		.uleb128 0x1
 3250 0047 13       		.uleb128 0x13
 3251 0048 00       		.byte	0
 3252 0049 00       		.byte	0
 3253 004a 07       		.uleb128 0x7
 3254 004b 0D       		.uleb128 0xd
 3255 004c 00       		.byte	0
 3256 004d 03       		.uleb128 0x3
 3257 004e 0E       		.uleb128 0xe
 3258 004f 3A       		.uleb128 0x3a
 3259 0050 0B       		.uleb128 0xb
 3260 0051 3B       		.uleb128 0x3b
 3261 0052 0B       		.uleb128 0xb
 3262 0053 49       		.uleb128 0x49
 3263 0054 13       		.uleb128 0x13
 3264 0055 38       		.uleb128 0x38
 3265 0056 0B       		.uleb128 0xb
 3266 0057 00       		.byte	0
 3267 0058 00       		.byte	0
 3268 0059 08       		.uleb128 0x8
ARM GAS  /tmp/cceWPl9e.s 			page 59


 3269 005a 0D       		.uleb128 0xd
 3270 005b 00       		.byte	0
 3271 005c 03       		.uleb128 0x3
 3272 005d 08       		.uleb128 0x8
 3273 005e 3A       		.uleb128 0x3a
 3274 005f 0B       		.uleb128 0xb
 3275 0060 3B       		.uleb128 0x3b
 3276 0061 05       		.uleb128 0x5
 3277 0062 49       		.uleb128 0x49
 3278 0063 13       		.uleb128 0x13
 3279 0064 38       		.uleb128 0x38
 3280 0065 0B       		.uleb128 0xb
 3281 0066 00       		.byte	0
 3282 0067 00       		.byte	0
 3283 0068 09       		.uleb128 0x9
 3284 0069 0D       		.uleb128 0xd
 3285 006a 00       		.byte	0
 3286 006b 03       		.uleb128 0x3
 3287 006c 0E       		.uleb128 0xe
 3288 006d 3A       		.uleb128 0x3a
 3289 006e 0B       		.uleb128 0xb
 3290 006f 3B       		.uleb128 0x3b
 3291 0070 05       		.uleb128 0x5
 3292 0071 49       		.uleb128 0x49
 3293 0072 13       		.uleb128 0x13
 3294 0073 38       		.uleb128 0x38
 3295 0074 0B       		.uleb128 0xb
 3296 0075 00       		.byte	0
 3297 0076 00       		.byte	0
 3298 0077 0A       		.uleb128 0xa
 3299 0078 0F       		.uleb128 0xf
 3300 0079 00       		.byte	0
 3301 007a 0B       		.uleb128 0xb
 3302 007b 0B       		.uleb128 0xb
 3303 007c 49       		.uleb128 0x49
 3304 007d 13       		.uleb128 0x13
 3305 007e 00       		.byte	0
 3306 007f 00       		.byte	0
 3307 0080 0B       		.uleb128 0xb
 3308 0081 13       		.uleb128 0x13
 3309 0082 01       		.byte	0x1
 3310 0083 03       		.uleb128 0x3
 3311 0084 0E       		.uleb128 0xe
 3312 0085 0B       		.uleb128 0xb
 3313 0086 0B       		.uleb128 0xb
 3314 0087 3A       		.uleb128 0x3a
 3315 0088 0B       		.uleb128 0xb
 3316 0089 3B       		.uleb128 0x3b
 3317 008a 05       		.uleb128 0x5
 3318 008b 01       		.uleb128 0x1
 3319 008c 13       		.uleb128 0x13
 3320 008d 00       		.byte	0
 3321 008e 00       		.byte	0
 3322 008f 0C       		.uleb128 0xc
 3323 0090 15       		.uleb128 0x15
 3324 0091 01       		.byte	0x1
 3325 0092 27       		.uleb128 0x27
ARM GAS  /tmp/cceWPl9e.s 			page 60


 3326 0093 19       		.uleb128 0x19
 3327 0094 01       		.uleb128 0x1
 3328 0095 13       		.uleb128 0x13
 3329 0096 00       		.byte	0
 3330 0097 00       		.byte	0
 3331 0098 0D       		.uleb128 0xd
 3332 0099 05       		.uleb128 0x5
 3333 009a 00       		.byte	0
 3334 009b 49       		.uleb128 0x49
 3335 009c 13       		.uleb128 0x13
 3336 009d 00       		.byte	0
 3337 009e 00       		.byte	0
 3338 009f 0E       		.uleb128 0xe
 3339 00a0 0F       		.uleb128 0xf
 3340 00a1 00       		.byte	0
 3341 00a2 0B       		.uleb128 0xb
 3342 00a3 0B       		.uleb128 0xb
 3343 00a4 00       		.byte	0
 3344 00a5 00       		.byte	0
 3345 00a6 0F       		.uleb128 0xf
 3346 00a7 13       		.uleb128 0x13
 3347 00a8 01       		.byte	0x1
 3348 00a9 03       		.uleb128 0x3
 3349 00aa 0E       		.uleb128 0xe
 3350 00ab 0B       		.uleb128 0xb
 3351 00ac 05       		.uleb128 0x5
 3352 00ad 3A       		.uleb128 0x3a
 3353 00ae 0B       		.uleb128 0xb
 3354 00af 3B       		.uleb128 0x3b
 3355 00b0 05       		.uleb128 0x5
 3356 00b1 01       		.uleb128 0x1
 3357 00b2 13       		.uleb128 0x13
 3358 00b3 00       		.byte	0
 3359 00b4 00       		.byte	0
 3360 00b5 10       		.uleb128 0x10
 3361 00b6 0D       		.uleb128 0xd
 3362 00b7 00       		.byte	0
 3363 00b8 03       		.uleb128 0x3
 3364 00b9 0E       		.uleb128 0xe
 3365 00ba 3A       		.uleb128 0x3a
 3366 00bb 0B       		.uleb128 0xb
 3367 00bc 3B       		.uleb128 0x3b
 3368 00bd 05       		.uleb128 0x5
 3369 00be 49       		.uleb128 0x49
 3370 00bf 13       		.uleb128 0x13
 3371 00c0 38       		.uleb128 0x38
 3372 00c1 05       		.uleb128 0x5
 3373 00c2 00       		.byte	0
 3374 00c3 00       		.byte	0
 3375 00c4 11       		.uleb128 0x11
 3376 00c5 0D       		.uleb128 0xd
 3377 00c6 00       		.byte	0
 3378 00c7 03       		.uleb128 0x3
 3379 00c8 08       		.uleb128 0x8
 3380 00c9 3A       		.uleb128 0x3a
 3381 00ca 0B       		.uleb128 0xb
 3382 00cb 3B       		.uleb128 0x3b
ARM GAS  /tmp/cceWPl9e.s 			page 61


 3383 00cc 05       		.uleb128 0x5
 3384 00cd 49       		.uleb128 0x49
 3385 00ce 13       		.uleb128 0x13
 3386 00cf 38       		.uleb128 0x38
 3387 00d0 05       		.uleb128 0x5
 3388 00d1 00       		.byte	0
 3389 00d2 00       		.byte	0
 3390 00d3 12       		.uleb128 0x12
 3391 00d4 0D       		.uleb128 0xd
 3392 00d5 00       		.byte	0
 3393 00d6 03       		.uleb128 0x3
 3394 00d7 08       		.uleb128 0x8
 3395 00d8 3A       		.uleb128 0x3a
 3396 00d9 0B       		.uleb128 0xb
 3397 00da 3B       		.uleb128 0x3b
 3398 00db 0B       		.uleb128 0xb
 3399 00dc 49       		.uleb128 0x49
 3400 00dd 13       		.uleb128 0x13
 3401 00de 38       		.uleb128 0x38
 3402 00df 0B       		.uleb128 0xb
 3403 00e0 00       		.byte	0
 3404 00e1 00       		.byte	0
 3405 00e2 13       		.uleb128 0x13
 3406 00e3 13       		.uleb128 0x13
 3407 00e4 01       		.byte	0x1
 3408 00e5 0B       		.uleb128 0xb
 3409 00e6 0B       		.uleb128 0xb
 3410 00e7 3A       		.uleb128 0x3a
 3411 00e8 0B       		.uleb128 0xb
 3412 00e9 3B       		.uleb128 0x3b
 3413 00ea 0B       		.uleb128 0xb
 3414 00eb 01       		.uleb128 0x1
 3415 00ec 13       		.uleb128 0x13
 3416 00ed 00       		.byte	0
 3417 00ee 00       		.byte	0
 3418 00ef 14       		.uleb128 0x14
 3419 00f0 13       		.uleb128 0x13
 3420 00f1 01       		.byte	0x1
 3421 00f2 0B       		.uleb128 0xb
 3422 00f3 05       		.uleb128 0x5
 3423 00f4 3A       		.uleb128 0x3a
 3424 00f5 0B       		.uleb128 0xb
 3425 00f6 3B       		.uleb128 0x3b
 3426 00f7 0B       		.uleb128 0xb
 3427 00f8 01       		.uleb128 0x1
 3428 00f9 13       		.uleb128 0x13
 3429 00fa 00       		.byte	0
 3430 00fb 00       		.byte	0
 3431 00fc 15       		.uleb128 0x15
 3432 00fd 01       		.uleb128 0x1
 3433 00fe 01       		.byte	0x1
 3434 00ff 49       		.uleb128 0x49
 3435 0100 13       		.uleb128 0x13
 3436 0101 01       		.uleb128 0x1
 3437 0102 13       		.uleb128 0x13
 3438 0103 00       		.byte	0
 3439 0104 00       		.byte	0
ARM GAS  /tmp/cceWPl9e.s 			page 62


 3440 0105 16       		.uleb128 0x16
 3441 0106 21       		.uleb128 0x21
 3442 0107 00       		.byte	0
 3443 0108 49       		.uleb128 0x49
 3444 0109 13       		.uleb128 0x13
 3445 010a 2F       		.uleb128 0x2f
 3446 010b 0B       		.uleb128 0xb
 3447 010c 00       		.byte	0
 3448 010d 00       		.byte	0
 3449 010e 17       		.uleb128 0x17
 3450 010f 17       		.uleb128 0x17
 3451 0110 01       		.byte	0x1
 3452 0111 0B       		.uleb128 0xb
 3453 0112 0B       		.uleb128 0xb
 3454 0113 3A       		.uleb128 0x3a
 3455 0114 0B       		.uleb128 0xb
 3456 0115 3B       		.uleb128 0x3b
 3457 0116 0B       		.uleb128 0xb
 3458 0117 01       		.uleb128 0x1
 3459 0118 13       		.uleb128 0x13
 3460 0119 00       		.byte	0
 3461 011a 00       		.byte	0
 3462 011b 18       		.uleb128 0x18
 3463 011c 0D       		.uleb128 0xd
 3464 011d 00       		.byte	0
 3465 011e 03       		.uleb128 0x3
 3466 011f 0E       		.uleb128 0xe
 3467 0120 3A       		.uleb128 0x3a
 3468 0121 0B       		.uleb128 0xb
 3469 0122 3B       		.uleb128 0x3b
 3470 0123 05       		.uleb128 0x5
 3471 0124 49       		.uleb128 0x49
 3472 0125 13       		.uleb128 0x13
 3473 0126 00       		.byte	0
 3474 0127 00       		.byte	0
 3475 0128 19       		.uleb128 0x19
 3476 0129 26       		.uleb128 0x26
 3477 012a 00       		.byte	0
 3478 012b 49       		.uleb128 0x49
 3479 012c 13       		.uleb128 0x13
 3480 012d 00       		.byte	0
 3481 012e 00       		.byte	0
 3482 012f 1A       		.uleb128 0x1a
 3483 0130 2E       		.uleb128 0x2e
 3484 0131 01       		.byte	0x1
 3485 0132 03       		.uleb128 0x3
 3486 0133 0E       		.uleb128 0xe
 3487 0134 3A       		.uleb128 0x3a
 3488 0135 0B       		.uleb128 0xb
 3489 0136 3B       		.uleb128 0x3b
 3490 0137 05       		.uleb128 0x5
 3491 0138 27       		.uleb128 0x27
 3492 0139 19       		.uleb128 0x19
 3493 013a 20       		.uleb128 0x20
 3494 013b 0B       		.uleb128 0xb
 3495 013c 01       		.uleb128 0x1
 3496 013d 13       		.uleb128 0x13
ARM GAS  /tmp/cceWPl9e.s 			page 63


 3497 013e 00       		.byte	0
 3498 013f 00       		.byte	0
 3499 0140 1B       		.uleb128 0x1b
 3500 0141 05       		.uleb128 0x5
 3501 0142 00       		.byte	0
 3502 0143 03       		.uleb128 0x3
 3503 0144 0E       		.uleb128 0xe
 3504 0145 3A       		.uleb128 0x3a
 3505 0146 0B       		.uleb128 0xb
 3506 0147 3B       		.uleb128 0x3b
 3507 0148 05       		.uleb128 0x5
 3508 0149 49       		.uleb128 0x49
 3509 014a 13       		.uleb128 0x13
 3510 014b 00       		.byte	0
 3511 014c 00       		.byte	0
 3512 014d 1C       		.uleb128 0x1c
 3513 014e 2E       		.uleb128 0x2e
 3514 014f 01       		.byte	0x1
 3515 0150 03       		.uleb128 0x3
 3516 0151 0E       		.uleb128 0xe
 3517 0152 3A       		.uleb128 0x3a
 3518 0153 0B       		.uleb128 0xb
 3519 0154 3B       		.uleb128 0x3b
 3520 0155 05       		.uleb128 0x5
 3521 0156 27       		.uleb128 0x27
 3522 0157 19       		.uleb128 0x19
 3523 0158 11       		.uleb128 0x11
 3524 0159 01       		.uleb128 0x1
 3525 015a 12       		.uleb128 0x12
 3526 015b 06       		.uleb128 0x6
 3527 015c 40       		.uleb128 0x40
 3528 015d 18       		.uleb128 0x18
 3529 015e 9742     		.uleb128 0x2117
 3530 0160 19       		.uleb128 0x19
 3531 0161 01       		.uleb128 0x1
 3532 0162 13       		.uleb128 0x13
 3533 0163 00       		.byte	0
 3534 0164 00       		.byte	0
 3535 0165 1D       		.uleb128 0x1d
 3536 0166 1D       		.uleb128 0x1d
 3537 0167 01       		.byte	0x1
 3538 0168 31       		.uleb128 0x31
 3539 0169 13       		.uleb128 0x13
 3540 016a 11       		.uleb128 0x11
 3541 016b 01       		.uleb128 0x1
 3542 016c 12       		.uleb128 0x12
 3543 016d 06       		.uleb128 0x6
 3544 016e 58       		.uleb128 0x58
 3545 016f 0B       		.uleb128 0xb
 3546 0170 59       		.uleb128 0x59
 3547 0171 05       		.uleb128 0x5
 3548 0172 00       		.byte	0
 3549 0173 00       		.byte	0
 3550 0174 1E       		.uleb128 0x1e
 3551 0175 05       		.uleb128 0x5
 3552 0176 00       		.byte	0
 3553 0177 31       		.uleb128 0x31
ARM GAS  /tmp/cceWPl9e.s 			page 64


 3554 0178 13       		.uleb128 0x13
 3555 0179 02       		.uleb128 0x2
 3556 017a 18       		.uleb128 0x18
 3557 017b 00       		.byte	0
 3558 017c 00       		.byte	0
 3559 017d 1F       		.uleb128 0x1f
 3560 017e 2E       		.uleb128 0x2e
 3561 017f 00       		.byte	0
 3562 0180 03       		.uleb128 0x3
 3563 0181 0E       		.uleb128 0xe
 3564 0182 3A       		.uleb128 0x3a
 3565 0183 0B       		.uleb128 0xb
 3566 0184 3B       		.uleb128 0x3b
 3567 0185 05       		.uleb128 0x5
 3568 0186 27       		.uleb128 0x27
 3569 0187 19       		.uleb128 0x19
 3570 0188 11       		.uleb128 0x11
 3571 0189 01       		.uleb128 0x1
 3572 018a 12       		.uleb128 0x12
 3573 018b 06       		.uleb128 0x6
 3574 018c 40       		.uleb128 0x40
 3575 018d 18       		.uleb128 0x18
 3576 018e 9642     		.uleb128 0x2116
 3577 0190 19       		.uleb128 0x19
 3578 0191 00       		.byte	0
 3579 0192 00       		.byte	0
 3580 0193 20       		.uleb128 0x20
 3581 0194 2E       		.uleb128 0x2e
 3582 0195 01       		.byte	0x1
 3583 0196 03       		.uleb128 0x3
 3584 0197 0E       		.uleb128 0xe
 3585 0198 3A       		.uleb128 0x3a
 3586 0199 0B       		.uleb128 0xb
 3587 019a 3B       		.uleb128 0x3b
 3588 019b 05       		.uleb128 0x5
 3589 019c 27       		.uleb128 0x27
 3590 019d 19       		.uleb128 0x19
 3591 019e 11       		.uleb128 0x11
 3592 019f 01       		.uleb128 0x1
 3593 01a0 12       		.uleb128 0x12
 3594 01a1 06       		.uleb128 0x6
 3595 01a2 40       		.uleb128 0x40
 3596 01a3 18       		.uleb128 0x18
 3597 01a4 9642     		.uleb128 0x2116
 3598 01a6 19       		.uleb128 0x19
 3599 01a7 01       		.uleb128 0x1
 3600 01a8 13       		.uleb128 0x13
 3601 01a9 00       		.byte	0
 3602 01aa 00       		.byte	0
 3603 01ab 21       		.uleb128 0x21
 3604 01ac 34       		.uleb128 0x34
 3605 01ad 00       		.byte	0
 3606 01ae 03       		.uleb128 0x3
 3607 01af 0E       		.uleb128 0xe
 3608 01b0 49       		.uleb128 0x49
 3609 01b1 13       		.uleb128 0x13
 3610 01b2 34       		.uleb128 0x34
ARM GAS  /tmp/cceWPl9e.s 			page 65


 3611 01b3 19       		.uleb128 0x19
 3612 01b4 02       		.uleb128 0x2
 3613 01b5 18       		.uleb128 0x18
 3614 01b6 00       		.byte	0
 3615 01b7 00       		.byte	0
 3616 01b8 22       		.uleb128 0x22
 3617 01b9 2E       		.uleb128 0x2e
 3618 01ba 01       		.byte	0x1
 3619 01bb 3F       		.uleb128 0x3f
 3620 01bc 19       		.uleb128 0x19
 3621 01bd 03       		.uleb128 0x3
 3622 01be 0E       		.uleb128 0xe
 3623 01bf 3A       		.uleb128 0x3a
 3624 01c0 0B       		.uleb128 0xb
 3625 01c1 3B       		.uleb128 0x3b
 3626 01c2 0B       		.uleb128 0xb
 3627 01c3 27       		.uleb128 0x27
 3628 01c4 19       		.uleb128 0x19
 3629 01c5 11       		.uleb128 0x11
 3630 01c6 01       		.uleb128 0x1
 3631 01c7 12       		.uleb128 0x12
 3632 01c8 06       		.uleb128 0x6
 3633 01c9 40       		.uleb128 0x40
 3634 01ca 18       		.uleb128 0x18
 3635 01cb 9642     		.uleb128 0x2116
 3636 01cd 19       		.uleb128 0x19
 3637 01ce 01       		.uleb128 0x1
 3638 01cf 13       		.uleb128 0x13
 3639 01d0 00       		.byte	0
 3640 01d1 00       		.byte	0
 3641 01d2 23       		.uleb128 0x23
 3642 01d3 05       		.uleb128 0x5
 3643 01d4 00       		.byte	0
 3644 01d5 03       		.uleb128 0x3
 3645 01d6 08       		.uleb128 0x8
 3646 01d7 3A       		.uleb128 0x3a
 3647 01d8 0B       		.uleb128 0xb
 3648 01d9 3B       		.uleb128 0x3b
 3649 01da 0B       		.uleb128 0xb
 3650 01db 49       		.uleb128 0x49
 3651 01dc 13       		.uleb128 0x13
 3652 01dd 02       		.uleb128 0x2
 3653 01de 18       		.uleb128 0x18
 3654 01df 00       		.byte	0
 3655 01e0 00       		.byte	0
 3656 01e1 24       		.uleb128 0x24
 3657 01e2 05       		.uleb128 0x5
 3658 01e3 00       		.byte	0
 3659 01e4 03       		.uleb128 0x3
 3660 01e5 0E       		.uleb128 0xe
 3661 01e6 3A       		.uleb128 0x3a
 3662 01e7 0B       		.uleb128 0xb
 3663 01e8 3B       		.uleb128 0x3b
 3664 01e9 0B       		.uleb128 0xb
 3665 01ea 49       		.uleb128 0x49
 3666 01eb 13       		.uleb128 0x13
 3667 01ec 02       		.uleb128 0x2
ARM GAS  /tmp/cceWPl9e.s 			page 66


 3668 01ed 18       		.uleb128 0x18
 3669 01ee 00       		.byte	0
 3670 01ef 00       		.byte	0
 3671 01f0 25       		.uleb128 0x25
 3672 01f1 34       		.uleb128 0x34
 3673 01f2 00       		.byte	0
 3674 01f3 03       		.uleb128 0x3
 3675 01f4 08       		.uleb128 0x8
 3676 01f5 3A       		.uleb128 0x3a
 3677 01f6 0B       		.uleb128 0xb
 3678 01f7 3B       		.uleb128 0x3b
 3679 01f8 0B       		.uleb128 0xb
 3680 01f9 49       		.uleb128 0x49
 3681 01fa 13       		.uleb128 0x13
 3682 01fb 02       		.uleb128 0x2
 3683 01fc 18       		.uleb128 0x18
 3684 01fd 00       		.byte	0
 3685 01fe 00       		.byte	0
 3686 01ff 26       		.uleb128 0x26
 3687 0200 2E       		.uleb128 0x2e
 3688 0201 01       		.byte	0x1
 3689 0202 3F       		.uleb128 0x3f
 3690 0203 19       		.uleb128 0x19
 3691 0204 03       		.uleb128 0x3
 3692 0205 0E       		.uleb128 0xe
 3693 0206 3A       		.uleb128 0x3a
 3694 0207 0B       		.uleb128 0xb
 3695 0208 3B       		.uleb128 0x3b
 3696 0209 0B       		.uleb128 0xb
 3697 020a 27       		.uleb128 0x27
 3698 020b 19       		.uleb128 0x19
 3699 020c 49       		.uleb128 0x49
 3700 020d 13       		.uleb128 0x13
 3701 020e 11       		.uleb128 0x11
 3702 020f 01       		.uleb128 0x1
 3703 0210 12       		.uleb128 0x12
 3704 0211 06       		.uleb128 0x6
 3705 0212 40       		.uleb128 0x40
 3706 0213 18       		.uleb128 0x18
 3707 0214 9642     		.uleb128 0x2116
 3708 0216 19       		.uleb128 0x19
 3709 0217 01       		.uleb128 0x1
 3710 0218 13       		.uleb128 0x13
 3711 0219 00       		.byte	0
 3712 021a 00       		.byte	0
 3713 021b 27       		.uleb128 0x27
 3714 021c 34       		.uleb128 0x34
 3715 021d 00       		.byte	0
 3716 021e 03       		.uleb128 0x3
 3717 021f 0E       		.uleb128 0xe
 3718 0220 3A       		.uleb128 0x3a
 3719 0221 0B       		.uleb128 0xb
 3720 0222 3B       		.uleb128 0x3b
 3721 0223 0B       		.uleb128 0xb
 3722 0224 49       		.uleb128 0x49
 3723 0225 13       		.uleb128 0x13
 3724 0226 02       		.uleb128 0x2
ARM GAS  /tmp/cceWPl9e.s 			page 67


 3725 0227 18       		.uleb128 0x18
 3726 0228 00       		.byte	0
 3727 0229 00       		.byte	0
 3728 022a 28       		.uleb128 0x28
 3729 022b 2E       		.uleb128 0x2e
 3730 022c 01       		.byte	0x1
 3731 022d 3F       		.uleb128 0x3f
 3732 022e 19       		.uleb128 0x19
 3733 022f 03       		.uleb128 0x3
 3734 0230 0E       		.uleb128 0xe
 3735 0231 3A       		.uleb128 0x3a
 3736 0232 0B       		.uleb128 0xb
 3737 0233 3B       		.uleb128 0x3b
 3738 0234 05       		.uleb128 0x5
 3739 0235 27       		.uleb128 0x27
 3740 0236 19       		.uleb128 0x19
 3741 0237 11       		.uleb128 0x11
 3742 0238 01       		.uleb128 0x1
 3743 0239 12       		.uleb128 0x12
 3744 023a 06       		.uleb128 0x6
 3745 023b 40       		.uleb128 0x40
 3746 023c 18       		.uleb128 0x18
 3747 023d 9642     		.uleb128 0x2116
 3748 023f 19       		.uleb128 0x19
 3749 0240 01       		.uleb128 0x1
 3750 0241 13       		.uleb128 0x13
 3751 0242 00       		.byte	0
 3752 0243 00       		.byte	0
 3753 0244 29       		.uleb128 0x29
 3754 0245 05       		.uleb128 0x5
 3755 0246 00       		.byte	0
 3756 0247 03       		.uleb128 0x3
 3757 0248 08       		.uleb128 0x8
 3758 0249 3A       		.uleb128 0x3a
 3759 024a 0B       		.uleb128 0xb
 3760 024b 3B       		.uleb128 0x3b
 3761 024c 05       		.uleb128 0x5
 3762 024d 49       		.uleb128 0x49
 3763 024e 13       		.uleb128 0x13
 3764 024f 02       		.uleb128 0x2
 3765 0250 18       		.uleb128 0x18
 3766 0251 00       		.byte	0
 3767 0252 00       		.byte	0
 3768 0253 2A       		.uleb128 0x2a
 3769 0254 05       		.uleb128 0x5
 3770 0255 00       		.byte	0
 3771 0256 03       		.uleb128 0x3
 3772 0257 0E       		.uleb128 0xe
 3773 0258 3A       		.uleb128 0x3a
 3774 0259 0B       		.uleb128 0xb
 3775 025a 3B       		.uleb128 0x3b
 3776 025b 05       		.uleb128 0x5
 3777 025c 49       		.uleb128 0x49
 3778 025d 13       		.uleb128 0x13
 3779 025e 02       		.uleb128 0x2
 3780 025f 18       		.uleb128 0x18
 3781 0260 00       		.byte	0
ARM GAS  /tmp/cceWPl9e.s 			page 68


 3782 0261 00       		.byte	0
 3783 0262 2B       		.uleb128 0x2b
 3784 0263 2E       		.uleb128 0x2e
 3785 0264 01       		.byte	0x1
 3786 0265 3F       		.uleb128 0x3f
 3787 0266 19       		.uleb128 0x19
 3788 0267 03       		.uleb128 0x3
 3789 0268 0E       		.uleb128 0xe
 3790 0269 3A       		.uleb128 0x3a
 3791 026a 0B       		.uleb128 0xb
 3792 026b 3B       		.uleb128 0x3b
 3793 026c 05       		.uleb128 0x5
 3794 026d 27       		.uleb128 0x27
 3795 026e 19       		.uleb128 0x19
 3796 026f 49       		.uleb128 0x49
 3797 0270 13       		.uleb128 0x13
 3798 0271 11       		.uleb128 0x11
 3799 0272 01       		.uleb128 0x1
 3800 0273 12       		.uleb128 0x12
 3801 0274 06       		.uleb128 0x6
 3802 0275 40       		.uleb128 0x40
 3803 0276 18       		.uleb128 0x18
 3804 0277 9742     		.uleb128 0x2117
 3805 0279 19       		.uleb128 0x19
 3806 027a 01       		.uleb128 0x1
 3807 027b 13       		.uleb128 0x13
 3808 027c 00       		.byte	0
 3809 027d 00       		.byte	0
 3810 027e 2C       		.uleb128 0x2c
 3811 027f 34       		.uleb128 0x34
 3812 0280 00       		.byte	0
 3813 0281 03       		.uleb128 0x3
 3814 0282 0E       		.uleb128 0xe
 3815 0283 3A       		.uleb128 0x3a
 3816 0284 0B       		.uleb128 0xb
 3817 0285 3B       		.uleb128 0x3b
 3818 0286 05       		.uleb128 0x5
 3819 0287 49       		.uleb128 0x49
 3820 0288 13       		.uleb128 0x13
 3821 0289 02       		.uleb128 0x2
 3822 028a 18       		.uleb128 0x18
 3823 028b 00       		.byte	0
 3824 028c 00       		.byte	0
 3825 028d 2D       		.uleb128 0x2d
 3826 028e 34       		.uleb128 0x34
 3827 028f 00       		.byte	0
 3828 0290 03       		.uleb128 0x3
 3829 0291 08       		.uleb128 0x8
 3830 0292 3A       		.uleb128 0x3a
 3831 0293 0B       		.uleb128 0xb
 3832 0294 3B       		.uleb128 0x3b
 3833 0295 05       		.uleb128 0x5
 3834 0296 49       		.uleb128 0x49
 3835 0297 13       		.uleb128 0x13
 3836 0298 02       		.uleb128 0x2
 3837 0299 18       		.uleb128 0x18
 3838 029a 00       		.byte	0
ARM GAS  /tmp/cceWPl9e.s 			page 69


 3839 029b 00       		.byte	0
 3840 029c 2E       		.uleb128 0x2e
 3841 029d 2E       		.uleb128 0x2e
 3842 029e 01       		.byte	0x1
 3843 029f 3F       		.uleb128 0x3f
 3844 02a0 19       		.uleb128 0x19
 3845 02a1 03       		.uleb128 0x3
 3846 02a2 0E       		.uleb128 0xe
 3847 02a3 3A       		.uleb128 0x3a
 3848 02a4 0B       		.uleb128 0xb
 3849 02a5 3B       		.uleb128 0x3b
 3850 02a6 05       		.uleb128 0x5
 3851 02a7 27       		.uleb128 0x27
 3852 02a8 19       		.uleb128 0x19
 3853 02a9 49       		.uleb128 0x49
 3854 02aa 13       		.uleb128 0x13
 3855 02ab 11       		.uleb128 0x11
 3856 02ac 01       		.uleb128 0x1
 3857 02ad 12       		.uleb128 0x12
 3858 02ae 06       		.uleb128 0x6
 3859 02af 40       		.uleb128 0x40
 3860 02b0 18       		.uleb128 0x18
 3861 02b1 9642     		.uleb128 0x2116
 3862 02b3 19       		.uleb128 0x19
 3863 02b4 01       		.uleb128 0x1
 3864 02b5 13       		.uleb128 0x13
 3865 02b6 00       		.byte	0
 3866 02b7 00       		.byte	0
 3867 02b8 2F       		.uleb128 0x2f
 3868 02b9 34       		.uleb128 0x34
 3869 02ba 00       		.byte	0
 3870 02bb 03       		.uleb128 0x3
 3871 02bc 0E       		.uleb128 0xe
 3872 02bd 3A       		.uleb128 0x3a
 3873 02be 0B       		.uleb128 0xb
 3874 02bf 3B       		.uleb128 0x3b
 3875 02c0 05       		.uleb128 0x5
 3876 02c1 49       		.uleb128 0x49
 3877 02c2 13       		.uleb128 0x13
 3878 02c3 3F       		.uleb128 0x3f
 3879 02c4 19       		.uleb128 0x19
 3880 02c5 3C       		.uleb128 0x3c
 3881 02c6 19       		.uleb128 0x19
 3882 02c7 00       		.byte	0
 3883 02c8 00       		.byte	0
 3884 02c9 30       		.uleb128 0x30
 3885 02ca 34       		.uleb128 0x34
 3886 02cb 00       		.byte	0
 3887 02cc 03       		.uleb128 0x3
 3888 02cd 08       		.uleb128 0x8
 3889 02ce 3A       		.uleb128 0x3a
 3890 02cf 0B       		.uleb128 0xb
 3891 02d0 3B       		.uleb128 0x3b
 3892 02d1 05       		.uleb128 0x5
 3893 02d2 49       		.uleb128 0x49
 3894 02d3 13       		.uleb128 0x13
 3895 02d4 3F       		.uleb128 0x3f
ARM GAS  /tmp/cceWPl9e.s 			page 70


 3896 02d5 19       		.uleb128 0x19
 3897 02d6 3C       		.uleb128 0x3c
 3898 02d7 19       		.uleb128 0x19
 3899 02d8 00       		.byte	0
 3900 02d9 00       		.byte	0
 3901 02da 00       		.byte	0
 3902              		.section	.debug_aranges,"",%progbits
 3903 0000 BC000000 		.4byte	0xbc
 3904 0004 0200     		.2byte	0x2
 3905 0006 00000000 		.4byte	.Ldebug_info0
 3906 000a 04       		.byte	0x4
 3907 000b 00       		.byte	0
 3908 000c 0000     		.2byte	0
 3909 000e 0000     		.2byte	0
 3910 0010 00000000 		.4byte	.LFB127
 3911 0014 10000000 		.4byte	.LFE127-.LFB127
 3912 0018 00000000 		.4byte	.LFB128
 3913 001c 10000000 		.4byte	.LFE128-.LFB128
 3914 0020 00000000 		.4byte	.LFB167
 3915 0024 10000000 		.4byte	.LFE167-.LFB167
 3916 0028 00000000 		.4byte	.LFB168
 3917 002c 38000000 		.4byte	.LFE168-.LFB168
 3918 0030 00000000 		.4byte	.LFB240
 3919 0034 5C000000 		.4byte	.LFE240-.LFB240
 3920 0038 00000000 		.4byte	.LFB241
 3921 003c 58000000 		.4byte	.LFE241-.LFB241
 3922 0040 00000000 		.4byte	.LFB242
 3923 0044 3C000000 		.4byte	.LFE242-.LFB242
 3924 0048 00000000 		.4byte	.LFB243
 3925 004c 34000000 		.4byte	.LFE243-.LFB243
 3926 0050 00000000 		.4byte	.LFB244
 3927 0054 68000000 		.4byte	.LFE244-.LFB244
 3928 0058 00000000 		.4byte	.LFB245
 3929 005c 24000000 		.4byte	.LFE245-.LFB245
 3930 0060 00000000 		.4byte	.LFB246
 3931 0064 34000000 		.4byte	.LFE246-.LFB246
 3932 0068 00000000 		.4byte	.LFB247
 3933 006c 70000000 		.4byte	.LFE247-.LFB247
 3934 0070 00000000 		.4byte	.LFB248
 3935 0074 22000000 		.4byte	.LFE248-.LFB248
 3936 0078 00000000 		.4byte	.LFB249
 3937 007c 18000000 		.4byte	.LFE249-.LFB249
 3938 0080 00000000 		.4byte	.LFB250
 3939 0084 74000000 		.4byte	.LFE250-.LFB250
 3940 0088 00000000 		.4byte	.LFB251
 3941 008c 60000000 		.4byte	.LFE251-.LFB251
 3942 0090 00000000 		.4byte	.LFB252
 3943 0094 58000000 		.4byte	.LFE252-.LFB252
 3944 0098 00000000 		.4byte	.LFB253
 3945 009c 4C000000 		.4byte	.LFE253-.LFB253
 3946 00a0 00000000 		.4byte	.LFB254
 3947 00a4 80000000 		.4byte	.LFE254-.LFB254
 3948 00a8 00000000 		.4byte	.LFB255
 3949 00ac 78000000 		.4byte	.LFE255-.LFB255
 3950 00b0 00000000 		.4byte	.LFB256
 3951 00b4 6C000000 		.4byte	.LFE256-.LFB256
 3952 00b8 00000000 		.4byte	0
ARM GAS  /tmp/cceWPl9e.s 			page 71


 3953 00bc 00000000 		.4byte	0
 3954              		.section	.debug_ranges,"",%progbits
 3955              	.Ldebug_ranges0:
 3956 0000 00000000 		.4byte	.LFB127
 3957 0004 10000000 		.4byte	.LFE127
 3958 0008 00000000 		.4byte	.LFB128
 3959 000c 10000000 		.4byte	.LFE128
 3960 0010 00000000 		.4byte	.LFB167
 3961 0014 10000000 		.4byte	.LFE167
 3962 0018 00000000 		.4byte	.LFB168
 3963 001c 38000000 		.4byte	.LFE168
 3964 0020 00000000 		.4byte	.LFB240
 3965 0024 5C000000 		.4byte	.LFE240
 3966 0028 00000000 		.4byte	.LFB241
 3967 002c 58000000 		.4byte	.LFE241
 3968 0030 00000000 		.4byte	.LFB242
 3969 0034 3C000000 		.4byte	.LFE242
 3970 0038 00000000 		.4byte	.LFB243
 3971 003c 34000000 		.4byte	.LFE243
 3972 0040 00000000 		.4byte	.LFB244
 3973 0044 68000000 		.4byte	.LFE244
 3974 0048 00000000 		.4byte	.LFB245
 3975 004c 24000000 		.4byte	.LFE245
 3976 0050 00000000 		.4byte	.LFB246
 3977 0054 34000000 		.4byte	.LFE246
 3978 0058 00000000 		.4byte	.LFB247
 3979 005c 70000000 		.4byte	.LFE247
 3980 0060 00000000 		.4byte	.LFB248
 3981 0064 22000000 		.4byte	.LFE248
 3982 0068 00000000 		.4byte	.LFB249
 3983 006c 18000000 		.4byte	.LFE249
 3984 0070 00000000 		.4byte	.LFB250
 3985 0074 74000000 		.4byte	.LFE250
 3986 0078 00000000 		.4byte	.LFB251
 3987 007c 60000000 		.4byte	.LFE251
 3988 0080 00000000 		.4byte	.LFB252
 3989 0084 58000000 		.4byte	.LFE252
 3990 0088 00000000 		.4byte	.LFB253
 3991 008c 4C000000 		.4byte	.LFE253
 3992 0090 00000000 		.4byte	.LFB254
 3993 0094 80000000 		.4byte	.LFE254
 3994 0098 00000000 		.4byte	.LFB255
 3995 009c 78000000 		.4byte	.LFE255
 3996 00a0 00000000 		.4byte	.LFB256
 3997 00a4 6C000000 		.4byte	.LFE256
 3998 00a8 00000000 		.4byte	0
 3999 00ac 00000000 		.4byte	0
 4000              		.section	.debug_line,"",%progbits
 4001              	.Ldebug_line0:
 4002 0000 8B040000 		.section	.debug_str,"MS",%progbits,1
 4002      0200E301 
 4002      00000201 
 4002      FB0E0D00 
 4002      01010101 
 4003              	.LASF99:
 4004 0000 74625F70 		.ascii	"tb_ptr\000"
 4004      747200
ARM GAS  /tmp/cceWPl9e.s 			page 72


 4005              	.LASF56:
 4006 0007 72656164 		.ascii	"ready_list_t\000"
 4006      795F6C69 
 4006      73745F74 
 4006      00
 4007              	.LASF93:
 4008 0014 73655F74 		.ascii	"se_time\000"
 4008      696D6500 
 4009              	.LASF117:
 4010 001c 77747472 		.ascii	"wttrp\000"
 4010      7000
 4011              	.LASF114:
 4012 0022 7264796D 		.ascii	"rdymsg\000"
 4012      736700
 4013              	.LASF16:
 4014 0029 75696E74 		.ascii	"uint64_t\000"
 4014      36345F74 
 4014      00
 4015              	.LASF86:
 4016 0032 6B65726E 		.ascii	"kernel_stats\000"
 4016      656C5F73 
 4016      74617473 
 4016      00
 4017              	.LASF5:
 4018 003f 5F5F7569 		.ascii	"__uint8_t\000"
 4018      6E74385F 
 4018      7400
 4019              	.LASF92:
 4020 0049 706F7274 		.ascii	"port_intctx\000"
 4020      5F696E74 
 4020      63747800 
 4021              	.LASF55:
 4022 0055 63685F74 		.ascii	"ch_threads_queue\000"
 4022      68726561 
 4022      64735F71 
 4022      75657565 
 4022      00
 4023              	.LASF75:
 4024 0066 73797374 		.ascii	"system_debug_t\000"
 4024      656D5F64 
 4024      65627567 
 4024      5F7400
 4025              	.LASF154:
 4026 0075 63684576 		.ascii	"chEvtSignal\000"
 4026      74536967 
 4026      6E616C00 
 4027              	.LASF141:
 4028 0081 706F7274 		.ascii	"port_lock\000"
 4028      5F6C6F63 
 4028      6B00
 4029              	.LASF105:
 4030 008b 776F7273 		.ascii	"worst\000"
 4030      7400
 4031              	.LASF108:
 4032 0091 74696D65 		.ascii	"time_measurement_t\000"
 4032      5F6D6561 
 4032      73757265 
ARM GAS  /tmp/cceWPl9e.s 			page 73


 4032      6D656E74 
 4032      5F7400
 4033              	.LASF12:
 4034 00a4 6C6F6E67 		.ascii	"long long unsigned int\000"
 4034      206C6F6E 
 4034      6720756E 
 4034      7369676E 
 4034      65642069 
 4035              	.LASF101:
 4036 00bb 63685F74 		.ascii	"ch_trace_buffer_t\000"
 4036      72616365 
 4036      5F627566 
 4036      6665725F 
 4036      7400
 4037              	.LASF96:
 4038 00cd 73655F73 		.ascii	"se_state\000"
 4038      74617465 
 4038      00
 4039              	.LASF115:
 4040 00d6 65786974 		.ascii	"exitcode\000"
 4040      636F6465 
 4040      00
 4041              	.LASF85:
 4042 00df 6D61696E 		.ascii	"mainthread\000"
 4042      74687265 
 4042      616400
 4043              	.LASF72:
 4044 00ea 76697274 		.ascii	"virtual_timers_list_t\000"
 4044      75616C5F 
 4044      74696D65 
 4044      72735F6C 
 4044      6973745F 
 4045              	.LASF167:
 4046 0100 49544D5F 		.ascii	"ITM_RxBuffer\000"
 4046      52784275 
 4046      66666572 
 4046      00
 4047              	.LASF18:
 4048 010d 72747469 		.ascii	"rttime_t\000"
 4048      6D655F74 
 4048      00
 4049              	.LASF33:
 4050 0116 705F7072 		.ascii	"p_prio\000"
 4050      696F00
 4051              	.LASF10:
 4052 011d 6C6F6E67 		.ascii	"long long int\000"
 4052      206C6F6E 
 4052      6720696E 
 4052      7400
 4053              	.LASF1:
 4054 012b 7369676E 		.ascii	"signed char\000"
 4054      65642063 
 4054      68617200 
 4055              	.LASF166:
 4056 0137 63684576 		.ascii	"chEvtWaitAllTimeout\000"
 4056      74576169 
 4056      74416C6C 
ARM GAS  /tmp/cceWPl9e.s 			page 74


 4056      54696D65 
 4056      6F757400 
 4057              	.LASF48:
 4058 014b 705F6D70 		.ascii	"p_mpool\000"
 4058      6F6F6C00 
 4059              	.LASF125:
 4060 0153 6D5F7175 		.ascii	"m_queue\000"
 4060      65756500 
 4061              	.LASF84:
 4062 015b 76746C69 		.ascii	"vtlist\000"
 4062      737400
 4063              	.LASF142:
 4064 0162 706F7274 		.ascii	"port_unlock\000"
 4064      5F756E6C 
 4064      6F636B00 
 4065              	.LASF82:
 4066 016e 63685F73 		.ascii	"ch_system\000"
 4066      79737465 
 4066      6D00
 4067              	.LASF7:
 4068 0178 6C6F6E67 		.ascii	"long int\000"
 4068      20696E74 
 4068      00
 4069              	.LASF161:
 4070 0181 63684576 		.ascii	"chEvtWaitAny\000"
 4070      74576169 
 4070      74416E79 
 4070      00
 4071              	.LASF41:
 4072 018e 705F7265 		.ascii	"p_refs\000"
 4072      667300
 4073              	.LASF94:
 4074 0195 73655F74 		.ascii	"se_tp\000"
 4074      7000
 4075              	.LASF151:
 4076 019b 63684576 		.ascii	"chEvtBroadcastFlagsI\000"
 4076      7442726F 
 4076      61646361 
 4076      7374466C 
 4076      61677349 
 4077              	.LASF168:
 4078 01b0 474E5520 		.ascii	"GNU C 4.8.4 20141219 (release) -mcpu=cortex-m4 -mno"
 4078      4320342E 
 4078      382E3420 
 4078      32303134 
 4078      31323139 
 4079 01e3 2D746875 		.ascii	"-thumb-interwork -mthumb -ggdb -O0 -fomit-frame-poi"
 4079      6D622D69 
 4079      6E746572 
 4079      776F726B 
 4079      202D6D74 
 4080 0216 6E746572 		.ascii	"nter -falign-functions=16 -ffunction-sections -fdat"
 4080      202D6661 
 4080      6C69676E 
 4080      2D66756E 
 4080      6374696F 
 4081 0249 612D7365 		.ascii	"a-sections -fno-common\000"
ARM GAS  /tmp/cceWPl9e.s 			page 75


 4081      6374696F 
 4081      6E73202D 
 4081      666E6F2D 
 4081      636F6D6D 
 4082              	.LASF20:
 4083 0260 74737461 		.ascii	"tstate_t\000"
 4083      74655F74 
 4083      00
 4084              	.LASF165:
 4085 0269 63684576 		.ascii	"chEvtWaitAnyTimeout\000"
 4085      74576169 
 4085      74416E79 
 4085      54696D65 
 4085      6F757400 
 4086              	.LASF145:
 4087 027d 77666C61 		.ascii	"wflags\000"
 4087      677300
 4088              	.LASF35:
 4089 0284 705F6E65 		.ascii	"p_newer\000"
 4089      77657200 
 4090              	.LASF122:
 4091 028c 735F7175 		.ascii	"s_queue\000"
 4091      65756500 
 4092              	.LASF98:
 4093 0294 74625F73 		.ascii	"tb_size\000"
 4093      697A6500 
 4094              	.LASF61:
 4095 029c 725F6E65 		.ascii	"r_newer\000"
 4095      77657200 
 4096              	.LASF89:
 4097 02a4 72656761 		.ascii	"regarm_t\000"
 4097      726D5F74 
 4097      00
 4098              	.LASF68:
 4099 02ad 76745F70 		.ascii	"vt_prev\000"
 4099      72657600 
 4100              	.LASF156:
 4101 02b5 63684576 		.ascii	"chEvtBroadcastFlags\000"
 4101      7442726F 
 4101      61646361 
 4101      7374466C 
 4101      61677300 
 4102              	.LASF76:
 4103 02c9 63685F73 		.ascii	"ch_system_debug\000"
 4103      79737465 
 4103      6D5F6465 
 4103      62756700 
 4104              	.LASF24:
 4105 02d9 6576656E 		.ascii	"eventid_t\000"
 4105      7469645F 
 4105      7400
 4106              	.LASF129:
 4107 02e3 6D757465 		.ascii	"mutex_t\000"
 4107      785F7400 
 4108              	.LASF171:
 4109 02eb 76616C75 		.ascii	"value\000"
 4109      6500
ARM GAS  /tmp/cceWPl9e.s 			page 76


 4110              	.LASF79:
 4111 02f1 6C6F636B 		.ascii	"lock_cnt\000"
 4111      5F636E74 
 4111      00
 4112              	.LASF139:
 4113 02fa 6576656E 		.ascii	"event_source_t\000"
 4113      745F736F 
 4113      75726365 
 4113      5F7400
 4114              	.LASF87:
 4115 0309 69646C65 		.ascii	"idle_thread_wa\000"
 4115      5F746872 
 4115      6561645F 
 4115      776100
 4116              	.LASF140:
 4117 0318 65766861 		.ascii	"evhandler_t\000"
 4117      6E646C65 
 4117      725F7400 
 4118              	.LASF27:
 4119 0324 636E745F 		.ascii	"cnt_t\000"
 4119      7400
 4120              	.LASF38:
 4121 032a 705F7374 		.ascii	"p_stklimit\000"
 4121      6B6C696D 
 4121      697400
 4122              	.LASF0:
 4123 0335 756E7369 		.ascii	"unsigned int\000"
 4123      676E6564 
 4123      20696E74 
 4123      00
 4124              	.LASF67:
 4125 0342 76745F6E 		.ascii	"vt_next\000"
 4125      65787400 
 4126              	.LASF118:
 4127 034a 77747365 		.ascii	"wtsemp\000"
 4127      6D7000
 4128              	.LASF43:
 4129 0351 705F6D73 		.ascii	"p_msgqueue\000"
 4129      67717565 
 4129      756500
 4130              	.LASF149:
 4131 035c 63684576 		.ascii	"chEvtGetAndClearEvents\000"
 4131      74476574 
 4131      416E6443 
 4131      6C656172 
 4131      4576656E 
 4132              	.LASF109:
 4133 0373 6E5F6972 		.ascii	"n_irq\000"
 4133      7100
 4134              	.LASF169:
 4135 0379 2F686F6D 		.ascii	"/home/efe/ChibiOS/os/rt/src/chevents.c\000"
 4135      652F6566 
 4135      652F4368 
 4135      6962694F 
 4135      532F6F73 
 4136              	.LASF123:
 4137 03a0 735F636E 		.ascii	"s_cnt\000"
ARM GAS  /tmp/cceWPl9e.s 			page 77


 4137      7400
 4138              	.LASF4:
 4139 03a6 73686F72 		.ascii	"short unsigned int\000"
 4139      7420756E 
 4139      7369676E 
 4139      65642069 
 4139      6E7400
 4140              	.LASF113:
 4141 03b9 6B65726E 		.ascii	"kernel_stats_t\000"
 4141      656C5F73 
 4141      74617473 
 4141      5F7400
 4142              	.LASF52:
 4143 03c8 63685F74 		.ascii	"ch_thread\000"
 4143      68726561 
 4143      6400
 4144              	.LASF136:
 4145 03d2 656C5F77 		.ascii	"el_wflags\000"
 4145      666C6167 
 4145      7300
 4146              	.LASF26:
 4147 03dc 6576656E 		.ascii	"eventflags_t\000"
 4147      74666C61 
 4147      67735F74 
 4147      00
 4148              	.LASF23:
 4149 03e9 6D73675F 		.ascii	"msg_t\000"
 4149      7400
 4150              	.LASF106:
 4151 03ef 6C617374 		.ascii	"last\000"
 4151      00
 4152              	.LASF28:
 4153 03f4 75636E74 		.ascii	"ucnt_t\000"
 4153      5F7400
 4154              	.LASF132:
 4155 03fb 656C5F6E 		.ascii	"el_next\000"
 4155      65787400 
 4156              	.LASF148:
 4157 0403 63684576 		.ascii	"chEvtUnregister\000"
 4157      74556E72 
 4157      65676973 
 4157      74657200 
 4158              	.LASF81:
 4159 0413 63685F73 		.ascii	"ch_system_t\000"
 4159      79737465 
 4159      6D5F7400 
 4160              	.LASF147:
 4161 041f 63684576 		.ascii	"chEvtRegisterMaskWithFlags\000"
 4161      74526567 
 4161      69737465 
 4161      724D6173 
 4161      6B576974 
 4162              	.LASF19:
 4163 043a 746D6F64 		.ascii	"tmode_t\000"
 4163      655F7400 
 4164              	.LASF112:
 4165 0442 6D5F6372 		.ascii	"m_crit_isr\000"
ARM GAS  /tmp/cceWPl9e.s 			page 78


 4165      69745F69 
 4165      737200
 4166              	.LASF57:
 4167 044d 63685F72 		.ascii	"ch_ready_list\000"
 4167      65616479 
 4167      5F6C6973 
 4167      7400
 4168              	.LASF25:
 4169 045b 6576656E 		.ascii	"eventmask_t\000"
 4169      746D6173 
 4169      6B5F7400 
 4170              	.LASF6:
 4171 0467 5F5F696E 		.ascii	"__int32_t\000"
 4171      7433325F 
 4171      7400
 4172              	.LASF90:
 4173 0471 73746B61 		.ascii	"stkalign_t\000"
 4173      6C69676E 
 4173      5F7400
 4174              	.LASF130:
 4175 047c 6576656E 		.ascii	"event_listener_t\000"
 4175      745F6C69 
 4175      7374656E 
 4175      65725F74 
 4175      00
 4176              	.LASF42:
 4177 048d 705F7761 		.ascii	"p_waiting\000"
 4177      6974696E 
 4177      6700
 4178              	.LASF88:
 4179 0497 73697A65 		.ascii	"sizetype\000"
 4179      74797065 
 4179      00
 4180              	.LASF50:
 4181 04a0 74687265 		.ascii	"thread_reference_t\000"
 4181      61645F72 
 4181      65666572 
 4181      656E6365 
 4181      5F7400
 4182              	.LASF73:
 4183 04b3 63685F76 		.ascii	"ch_virtual_timers_list\000"
 4183      69727475 
 4183      616C5F74 
 4183      696D6572 
 4183      735F6C69 
 4184              	.LASF158:
 4185 04ca 63684576 		.ascii	"chEvtDispatch\000"
 4185      74446973 
 4185      70617463 
 4185      6800
 4186              	.LASF97:
 4187 04d8 63685F73 		.ascii	"ch_swc_event_t\000"
 4187      77635F65 
 4187      76656E74 
 4187      5F7400
 4188              	.LASF74:
 4189 04e7 76745F6C 		.ascii	"vt_lasttime\000"
ARM GAS  /tmp/cceWPl9e.s 			page 79


 4189      61737474 
 4189      696D6500 
 4190              	.LASF36:
 4191 04f3 705F6F6C 		.ascii	"p_older\000"
 4191      64657200 
 4192              	.LASF60:
 4193 04fb 725F6374 		.ascii	"r_ctx\000"
 4193      7800
 4194              	.LASF103:
 4195 0501 746D5F63 		.ascii	"tm_calibration_t\000"
 4195      616C6962 
 4195      72617469 
 4195      6F6E5F74 
 4195      00
 4196              	.LASF164:
 4197 0512 74696D65 		.ascii	"time\000"
 4197      00
 4198              	.LASF162:
 4199 0517 63684576 		.ascii	"chEvtWaitAll\000"
 4199      74576169 
 4199      74416C6C 
 4199      00
 4200              	.LASF63:
 4201 0524 725F6375 		.ascii	"r_current\000"
 4201      7272656E 
 4201      7400
 4202              	.LASF62:
 4203 052e 725F6F6C 		.ascii	"r_older\000"
 4203      64657200 
 4204              	.LASF134:
 4205 0536 656C5F65 		.ascii	"el_events\000"
 4205      76656E74 
 4205      7300
 4206              	.LASF11:
 4207 0540 5F5F7569 		.ascii	"__uint64_t\000"
 4207      6E743634 
 4207      5F7400
 4208              	.LASF107:
 4209 054b 63756D75 		.ascii	"cumulative\000"
 4209      6C617469 
 4209      766500
 4210              	.LASF159:
 4211 0556 68616E64 		.ascii	"handlers\000"
 4211      6C657273 
 4211      00
 4212              	.LASF21:
 4213 055f 74726566 		.ascii	"trefs_t\000"
 4213      735F7400 
 4214              	.LASF100:
 4215 0567 74625F62 		.ascii	"tb_buffer\000"
 4215      75666665 
 4215      7200
 4216              	.LASF65:
 4217 0571 76697274 		.ascii	"virtual_timer_t\000"
 4217      75616C5F 
 4217      74696D65 
 4217      725F7400 
ARM GAS  /tmp/cceWPl9e.s 			page 80


 4218              	.LASF32:
 4219 0581 705F7072 		.ascii	"p_prev\000"
 4219      657600
 4220              	.LASF22:
 4221 0588 74707269 		.ascii	"tprio_t\000"
 4221      6F5F7400 
 4222              	.LASF150:
 4223 0590 63684576 		.ascii	"chEvtAddEvents\000"
 4223      74416464 
 4223      4576656E 
 4223      747300
 4224              	.LASF110:
 4225 059f 6E5F6374 		.ascii	"n_ctxswc\000"
 4225      78737763 
 4225      00
 4226              	.LASF14:
 4227 05a8 696E7433 		.ascii	"int32_t\000"
 4227      325F7400 
 4228              	.LASF2:
 4229 05b0 756E7369 		.ascii	"unsigned char\000"
 4229      676E6564 
 4229      20636861 
 4229      7200
 4230              	.LASF160:
 4231 05be 63684576 		.ascii	"chEvtWaitOne\000"
 4231      74576169 
 4231      744F6E65 
 4231      00
 4232              	.LASF153:
 4233 05cb 63684576 		.ascii	"chEvtGetAndClearFlags\000"
 4233      74476574 
 4233      416E6443 
 4233      6C656172 
 4233      466C6167 
 4234              	.LASF135:
 4235 05e1 656C5F66 		.ascii	"el_flags\000"
 4235      6C616773 
 4235      00
 4236              	.LASF46:
 4237 05ea 705F6D74 		.ascii	"p_mtxlist\000"
 4237      786C6973 
 4237      7400
 4238              	.LASF3:
 4239 05f4 73686F72 		.ascii	"short int\000"
 4239      7420696E 
 4239      7400
 4240              	.LASF39:
 4241 05fe 705F7374 		.ascii	"p_state\000"
 4241      61746500 
 4242              	.LASF59:
 4243 0606 725F7072 		.ascii	"r_prio\000"
 4243      696F00
 4244              	.LASF157:
 4245 060d 63684576 		.ascii	"chEvtGetAndClearFlagsI\000"
 4245      74476574 
 4245      416E6443 
 4245      6C656172 
ARM GAS  /tmp/cceWPl9e.s 			page 81


 4245      466C6167 
 4246              	.LASF120:
 4247 0624 65776D61 		.ascii	"ewmask\000"
 4247      736B00
 4248              	.LASF31:
 4249 062b 705F6E65 		.ascii	"p_next\000"
 4249      787400
 4250              	.LASF40:
 4251 0632 705F666C 		.ascii	"p_flags\000"
 4251      61677300 
 4252              	.LASF146:
 4253 063a 5F5F6675 		.ascii	"__func__\000"
 4253      6E635F5F 
 4253      00
 4254              	.LASF49:
 4255 0643 705F7374 		.ascii	"p_stats\000"
 4255      61747300 
 4256              	.LASF172:
 4257 064b 63685379 		.ascii	"chSysLock\000"
 4257      734C6F63 
 4257      6B00
 4258              	.LASF66:
 4259 0655 63685F76 		.ascii	"ch_virtual_timer\000"
 4259      69727475 
 4259      616C5F74 
 4259      696D6572 
 4259      00
 4260              	.LASF121:
 4261 0666 63685F73 		.ascii	"ch_semaphore\000"
 4261      656D6170 
 4261      686F7265 
 4261      00
 4262              	.LASF45:
 4263 0673 705F6570 		.ascii	"p_epending\000"
 4263      656E6469 
 4263      6E6700
 4264              	.LASF144:
 4265 067e 6576656E 		.ascii	"events\000"
 4265      747300
 4266              	.LASF15:
 4267 0685 75696E74 		.ascii	"uint32_t\000"
 4267      33325F74 
 4267      00
 4268              	.LASF119:
 4269 068e 77746D74 		.ascii	"wtmtxp\000"
 4269      787000
 4270              	.LASF58:
 4271 0695 725F7175 		.ascii	"r_queue\000"
 4271      65756500 
 4272              	.LASF69:
 4273 069d 76745F64 		.ascii	"vt_delta\000"
 4273      656C7461 
 4273      00
 4274              	.LASF53:
 4275 06a6 63685F74 		.ascii	"ch_threads_list\000"
 4275      68726561 
 4275      64735F6C 
ARM GAS  /tmp/cceWPl9e.s 			page 82


 4275      69737400 
 4276              	.LASF9:
 4277 06b6 6C6F6E67 		.ascii	"long unsigned int\000"
 4277      20756E73 
 4277      69676E65 
 4277      6420696E 
 4277      7400
 4278              	.LASF128:
 4279 06c8 63686172 		.ascii	"char\000"
 4279      00
 4280              	.LASF30:
 4281 06cd 74687265 		.ascii	"thread_t\000"
 4281      61645F74 
 4281      00
 4282              	.LASF104:
 4283 06d6 62657374 		.ascii	"best\000"
 4283      00
 4284              	.LASF127:
 4285 06db 6D5F6E65 		.ascii	"m_next\000"
 4285      787400
 4286              	.LASF29:
 4287 06e2 73797374 		.ascii	"systime_t\000"
 4287      696D655F 
 4287      7400
 4288              	.LASF47:
 4289 06ec 705F7265 		.ascii	"p_realprio\000"
 4289      616C7072 
 4289      696F00
 4290              	.LASF64:
 4291 06f7 76746675 		.ascii	"vtfunc_t\000"
 4291      6E635F74 
 4291      00
 4292              	.LASF8:
 4293 0700 5F5F7569 		.ascii	"__uint32_t\000"
 4293      6E743332 
 4293      5F7400
 4294              	.LASF170:
 4295 070b 5F5F7365 		.ascii	"__set_BASEPRI\000"
 4295      745F4241 
 4295      53455052 
 4295      4900
 4296              	.LASF77:
 4297 0719 70616E69 		.ascii	"panic_msg\000"
 4297      635F6D73 
 4297      6700
 4298              	.LASF102:
 4299 0723 6F666673 		.ascii	"offset\000"
 4299      657400
 4300              	.LASF91:
 4301 072a 636F6E74 		.ascii	"context\000"
 4301      65787400 
 4302              	.LASF17:
 4303 0732 7274636E 		.ascii	"rtcnt_t\000"
 4303      745F7400 
 4304              	.LASF71:
 4305 073a 76745F70 		.ascii	"vt_par\000"
 4305      617200
ARM GAS  /tmp/cceWPl9e.s 			page 83


 4306              	.LASF54:
 4307 0741 74687265 		.ascii	"threads_queue_t\000"
 4307      6164735F 
 4307      71756575 
 4307      655F7400 
 4308              	.LASF124:
 4309 0751 63685F6D 		.ascii	"ch_mutex\000"
 4309      75746578 
 4309      00
 4310              	.LASF138:
 4311 075a 65735F6E 		.ascii	"es_next\000"
 4311      65787400 
 4312              	.LASF78:
 4313 0762 6973725F 		.ascii	"isr_cnt\000"
 4313      636E7400 
 4314              	.LASF83:
 4315 076a 726C6973 		.ascii	"rlist\000"
 4315      7400
 4316              	.LASF137:
 4317 0770 6576656E 		.ascii	"event_source\000"
 4317      745F736F 
 4317      75726365 
 4317      00
 4318              	.LASF13:
 4319 077d 75696E74 		.ascii	"uint8_t\000"
 4319      385F7400 
 4320              	.LASF152:
 4321 0785 666C6167 		.ascii	"flags\000"
 4321      7300
 4322              	.LASF163:
 4323 078b 63684576 		.ascii	"chEvtWaitOneTimeout\000"
 4323      74576169 
 4323      744F6E65 
 4323      54696D65 
 4323      6F757400 
 4324              	.LASF116:
 4325 079f 77746F62 		.ascii	"wtobjp\000"
 4325      6A7000
 4326              	.LASF133:
 4327 07a6 656C5F6C 		.ascii	"el_listener\000"
 4327      69737465 
 4327      6E657200 
 4328              	.LASF37:
 4329 07b2 705F6E61 		.ascii	"p_name\000"
 4329      6D6500
 4330              	.LASF51:
 4331 07b9 74687265 		.ascii	"threads_list_t\000"
 4331      6164735F 
 4331      6C697374 
 4331      5F7400
 4332              	.LASF80:
 4333 07c8 74726163 		.ascii	"trace_buffer\000"
 4333      655F6275 
 4333      66666572 
 4333      00
 4334              	.LASF143:
 4335 07d5 63685379 		.ascii	"chSysUnlock\000"
ARM GAS  /tmp/cceWPl9e.s 			page 84


 4335      73556E6C 
 4335      6F636B00 
 4336              	.LASF44:
 4337 07e1 705F6D73 		.ascii	"p_msg\000"
 4337      6700
 4338              	.LASF111:
 4339 07e7 6D5F6372 		.ascii	"m_crit_thd\000"
 4339      69745F74 
 4339      686400
 4340              	.LASF126:
 4341 07f2 6D5F6F77 		.ascii	"m_owner\000"
 4341      6E657200 
 4342              	.LASF95:
 4343 07fa 73655F77 		.ascii	"se_wtobjp\000"
 4343      746F626A 
 4343      7000
 4344              	.LASF34:
 4345 0804 705F6374 		.ascii	"p_ctx\000"
 4345      7800
 4346              	.LASF70:
 4347 080a 76745F66 		.ascii	"vt_func\000"
 4347      756E6300 
 4348              	.LASF131:
 4349 0812 6576656E 		.ascii	"event_listener\000"
 4349      745F6C69 
 4349      7374656E 
 4349      657200
 4350              	.LASF155:
 4351 0821 63684576 		.ascii	"chEvtSignalI\000"
 4351      74536967 
 4351      6E616C49 
 4351      00
 4352              		.ident	"GCC: (4.8.4-1+11-1) 4.8.4 20141219 (release)"
ARM GAS  /tmp/cceWPl9e.s 			page 85


DEFINED SYMBOLS
                            *ABS*:0000000000000000 chevents.c
     /tmp/cceWPl9e.s:19     .text.port_lock:0000000000000000 $t
     /tmp/cceWPl9e.s:24     .text.port_lock:0000000000000000 port_lock
     /tmp/cceWPl9e.s:55     .text.port_unlock:0000000000000000 $t
     /tmp/cceWPl9e.s:60     .text.port_unlock:0000000000000000 port_unlock
     /tmp/cceWPl9e.s:89     .text.chSysLock:0000000000000000 $t
     /tmp/cceWPl9e.s:94     .text.chSysLock:0000000000000000 chSysLock
     /tmp/cceWPl9e.s:117    .text.chSysUnlock:0000000000000000 $t
     /tmp/cceWPl9e.s:122    .text.chSysUnlock:0000000000000000 chSysUnlock
     /tmp/cceWPl9e.s:161    .text.chSysUnlock:0000000000000030 $d
     /tmp/cceWPl9e.s:1366   .rodata.__func__.5925:0000000000000000 __func__.5925
     /tmp/cceWPl9e.s:167    .text.chEvtRegisterMaskWithFlags:0000000000000000 $t
     /tmp/cceWPl9e.s:173    .text.chEvtRegisterMaskWithFlags:0000000000000000 chEvtRegisterMaskWithFlags
     /tmp/cceWPl9e.s:239    .text.chEvtRegisterMaskWithFlags:0000000000000054 $d
     /tmp/cceWPl9e.s:1360   .rodata.__func__.6623:0000000000000000 __func__.6623
     /tmp/cceWPl9e.s:245    .text.chEvtUnregister:0000000000000000 $t
     /tmp/cceWPl9e.s:251    .text.chEvtUnregister:0000000000000000 chEvtUnregister
     /tmp/cceWPl9e.s:320    .text.chEvtUnregister:0000000000000054 $d
     /tmp/cceWPl9e.s:1372   .rodata.__func__.6629:0000000000000000 __func__.6629
     /tmp/cceWPl9e.s:325    .text.chEvtGetAndClearEvents:0000000000000000 $t
     /tmp/cceWPl9e.s:331    .text.chEvtGetAndClearEvents:0000000000000000 chEvtGetAndClearEvents
     /tmp/cceWPl9e.s:374    .text.chEvtGetAndClearEvents:0000000000000038 $d
     /tmp/cceWPl9e.s:379    .text.chEvtAddEvents:0000000000000000 $t
     /tmp/cceWPl9e.s:385    .text.chEvtAddEvents:0000000000000000 chEvtAddEvents
     /tmp/cceWPl9e.s:425    .text.chEvtAddEvents:0000000000000030 $d
     /tmp/cceWPl9e.s:430    .text.chEvtBroadcastFlagsI:0000000000000000 $t
     /tmp/cceWPl9e.s:436    .text.chEvtBroadcastFlagsI:0000000000000000 chEvtBroadcastFlagsI
     /tmp/cceWPl9e.s:614    .text.chEvtSignalI:0000000000000000 chEvtSignalI
     /tmp/cceWPl9e.s:513    .text.chEvtBroadcastFlagsI:0000000000000064 $d
     /tmp/cceWPl9e.s:1378   .rodata.__func__.6645:0000000000000000 __func__.6645
     /tmp/cceWPl9e.s:518    .text.chEvtGetAndClearFlags:0000000000000000 $t
     /tmp/cceWPl9e.s:524    .text.chEvtGetAndClearFlags:0000000000000000 chEvtGetAndClearFlags
     /tmp/cceWPl9e.s:559    .text.chEvtSignal:0000000000000000 $t
     /tmp/cceWPl9e.s:565    .text.chEvtSignal:0000000000000000 chEvtSignal
     /tmp/cceWPl9e.s:603    .text.chEvtSignal:0000000000000030 $d
     /tmp/cceWPl9e.s:1384   .rodata.__func__.6657:0000000000000000 __func__.6657
     /tmp/cceWPl9e.s:608    .text.chEvtSignalI:0000000000000000 $t
     /tmp/cceWPl9e.s:692    .text.chEvtSignalI:000000000000006c $d
     /tmp/cceWPl9e.s:1390   .rodata.__func__.6662:0000000000000000 __func__.6662
     /tmp/cceWPl9e.s:697    .text.chEvtBroadcastFlags:0000000000000000 $t
     /tmp/cceWPl9e.s:703    .text.chEvtBroadcastFlags:0000000000000000 chEvtBroadcastFlags
     /tmp/cceWPl9e.s:734    .text.chEvtGetAndClearFlagsI:0000000000000000 $t
     /tmp/cceWPl9e.s:740    .text.chEvtGetAndClearFlagsI:0000000000000000 chEvtGetAndClearFlagsI
     /tmp/cceWPl9e.s:769    .text.chEvtDispatch:0000000000000000 $t
     /tmp/cceWPl9e.s:775    .text.chEvtDispatch:0000000000000000 chEvtDispatch
     /tmp/cceWPl9e.s:853    .text.chEvtDispatch:0000000000000070 $d
     /tmp/cceWPl9e.s:1396   .rodata.__func__.6676:0000000000000000 __func__.6676
     /tmp/cceWPl9e.s:858    .text.chEvtWaitOne:0000000000000000 $t
     /tmp/cceWPl9e.s:864    .text.chEvtWaitOne:0000000000000000 chEvtWaitOne
     /tmp/cceWPl9e.s:932    .text.chEvtWaitOne:000000000000005c $d
     /tmp/cceWPl9e.s:937    .text.chEvtWaitAny:0000000000000000 $t
     /tmp/cceWPl9e.s:943    .text.chEvtWaitAny:0000000000000000 chEvtWaitAny
     /tmp/cceWPl9e.s:1005   .text.chEvtWaitAny:0000000000000054 $d
     /tmp/cceWPl9e.s:1010   .text.chEvtWaitAll:0000000000000000 $t
     /tmp/cceWPl9e.s:1016   .text.chEvtWaitAll:0000000000000000 chEvtWaitAll
     /tmp/cceWPl9e.s:1070   .text.chEvtWaitAll:0000000000000048 $d
ARM GAS  /tmp/cceWPl9e.s 			page 86


     /tmp/cceWPl9e.s:1075   .text.chEvtWaitOneTimeout:0000000000000000 $t
     /tmp/cceWPl9e.s:1081   .text.chEvtWaitOneTimeout:0000000000000000 chEvtWaitOneTimeout
     /tmp/cceWPl9e.s:1171   .text.chEvtWaitOneTimeout:000000000000007c $d
     /tmp/cceWPl9e.s:1176   .text.chEvtWaitAnyTimeout:0000000000000000 $t
     /tmp/cceWPl9e.s:1182   .text.chEvtWaitAnyTimeout:0000000000000000 chEvtWaitAnyTimeout
     /tmp/cceWPl9e.s:1266   .text.chEvtWaitAnyTimeout:0000000000000074 $d
     /tmp/cceWPl9e.s:1271   .text.chEvtWaitAllTimeout:0000000000000000 $t
     /tmp/cceWPl9e.s:1277   .text.chEvtWaitAllTimeout:0000000000000000 chEvtWaitAllTimeout
     /tmp/cceWPl9e.s:1352   .text.chEvtWaitAllTimeout:0000000000000068 $d
     /tmp/cceWPl9e.s:1357   .rodata.__func__.6623:0000000000000000 $d
     /tmp/cceWPl9e.s:1363   .rodata.__func__.5925:0000000000000000 $d
     /tmp/cceWPl9e.s:1369   .rodata.__func__.6629:0000000000000000 $d
     /tmp/cceWPl9e.s:1375   .rodata.__func__.6645:0000000000000000 $d
     /tmp/cceWPl9e.s:1381   .rodata.__func__.6657:0000000000000000 $d
     /tmp/cceWPl9e.s:1387   .rodata.__func__.6662:0000000000000000 $d
     /tmp/cceWPl9e.s:1393   .rodata.__func__.6676:0000000000000000 $d
                     .debug_frame:0000000000000010 $d
     /tmp/cceWPl9e.s:166    .text.chSysUnlock:0000000000000038 $t
     /tmp/cceWPl9e.s:244    .text.chEvtRegisterMaskWithFlags:000000000000005c $t
     /tmp/cceWPl9e.s:324    .text.chEvtUnregister:0000000000000058 $t
     /tmp/cceWPl9e.s:378    .text.chEvtGetAndClearEvents:000000000000003c $t
     /tmp/cceWPl9e.s:429    .text.chEvtAddEvents:0000000000000034 $t
     /tmp/cceWPl9e.s:517    .text.chEvtBroadcastFlagsI:0000000000000068 $t
     /tmp/cceWPl9e.s:607    .text.chEvtSignal:0000000000000034 $t
     /tmp/cceWPl9e.s:857    .text.chEvtDispatch:0000000000000074 $t
     /tmp/cceWPl9e.s:1009   .text.chEvtWaitAny:0000000000000058 $t
     /tmp/cceWPl9e.s:1074   .text.chEvtWaitAll:000000000000004c $t
     /tmp/cceWPl9e.s:1270   .text.chEvtWaitAnyTimeout:0000000000000078 $t
     /tmp/cceWPl9e.s:1356   .text.chEvtWaitAllTimeout:000000000000006c $t

UNDEFINED SYMBOLS
_stats_start_measure_crit_thd
_dbg_check_lock
_dbg_check_unlock
_stats_stop_measure_crit_thd
chSysHalt
ch
chDbgCheckClassI
chSchRescheduleS
chSchReadyI
chSchGoSleepS
chSchGoSleepTimeoutS
