ARM GAS  /tmp/cceWPl9e.s 			page 1


   1              		.syntax unified
   2              		.cpu cortex-m4
   3              		.fpu softvfp
   4              		.eabi_attribute 20, 1
   5              		.eabi_attribute 21, 1
   6              		.eabi_attribute 23, 3
   7              		.eabi_attribute 24, 1
   8              		.eabi_attribute 25, 1
   9              		.eabi_attribute 26, 1
  10              		.eabi_attribute 30, 6
  11              		.eabi_attribute 34, 1
  12              		.eabi_attribute 18, 4
  13              		.thumb
  14              		.file	"chevents.c"
  15              		.text
  16              	.Ltext0:
  17              		.cfi_sections	.debug_frame
  18              		.section	.text.port_lock,"ax",%progbits
  19              		.align	2
  20              		.p2align 4,,15
  21              		.thumb
  22              		.thumb_func
  23              		.type	port_lock, %function
  24              	port_lock:
  25              	.LFB127:
  26              		.file 1 "/home/efe/ChibiOS/os/rt/ports/ARMCMx/chcore_v7m.h"
  27              		.loc 1 456 0
  28              		.cfi_startproc
  29              		@ args = 0, pretend = 0, frame = 8
  30              		@ frame_needed = 0, uses_anonymous_args = 0
  31              		@ link register save eliminated.
  32 0000 82B0     		sub	sp, sp, #8
  33              		.cfi_def_cfa_offset 8
  34 0002 2023     		movs	r3, #32
  35 0004 0193     		str	r3, [sp, #4]
  36              	.LBB6:
  37              	.LBB7:
  38              		.file 2 "/home/efe/ChibiOS/os/ext/CMSIS/include/core_cmFunc.h"
  39              		.loc 2 548 0
  40 0006 019B     		ldr	r3, [sp, #4]
  41              	@ 548 "/home/efe/ChibiOS/os/ext/CMSIS/include/core_cmFunc.h" 1
  42 0008 83F31188 		MSR basepri, r3
  43              	@ 0 "" 2
  44              		.thumb
  45              	.LBE7:
  46              	.LBE6:
  47              		.loc 1 463 0
  48 000c 02B0     		add	sp, sp, #8
  49              		@ sp needed
  50 000e 7047     		bx	lr
  51              		.cfi_endproc
  52              	.LFE127:
  53              		.size	port_lock, .-port_lock
  54              		.section	.text.port_unlock,"ax",%progbits
  55              		.align	2
  56              		.p2align 4,,15
  57              		.thumb
ARM GAS  /tmp/cceWPl9e.s 			page 2


  58              		.thumb_func
  59              		.type	port_unlock, %function
  60              	port_unlock:
  61              	.LFB128:
  62              		.loc 1 470 0
  63              		.cfi_startproc
  64              		@ args = 0, pretend = 0, frame = 8
  65              		@ frame_needed = 0, uses_anonymous_args = 0
  66              		@ link register save eliminated.
  67 0000 82B0     		sub	sp, sp, #8
  68              		.cfi_def_cfa_offset 8
  69 0002 0023     		movs	r3, #0
  70 0004 0193     		str	r3, [sp, #4]
  71              	.LBB8:
  72              	.LBB9:
  73              		.loc 2 548 0
  74 0006 019B     		ldr	r3, [sp, #4]
  75              	@ 548 "/home/efe/ChibiOS/os/ext/CMSIS/include/core_cmFunc.h" 1
  76 0008 83F31188 		MSR basepri, r3
  77              	@ 0 "" 2
  78              		.thumb
  79              	.LBE9:
  80              	.LBE8:
  81              		.loc 1 477 0
  82 000c 02B0     		add	sp, sp, #8
  83              		@ sp needed
  84 000e 7047     		bx	lr
  85              		.cfi_endproc
  86              	.LFE128:
  87              		.size	port_unlock, .-port_unlock
  88              		.section	.text.chSysLock,"ax",%progbits
  89              		.align	2
  90              		.p2align 4,,15
  91              		.thumb
  92              		.thumb_func
  93              		.type	chSysLock, %function
  94              	chSysLock:
  95              	.LFB167:
  96              		.file 3 "/home/efe/ChibiOS/os/rt/include/chsys.h"
  97              		.loc 3 346 0
  98              		.cfi_startproc
  99              		@ args = 0, pretend = 0, frame = 0
 100              		@ frame_needed = 0, uses_anonymous_args = 0
 101 0000 08B5     		push	{r3, lr}
 102              		.cfi_def_cfa_offset 8
 103              		.cfi_offset 3, -8
 104              		.cfi_offset 14, -4
 105              		.loc 3 348 0
 106 0002 FFF7FEFF 		bl	port_lock
 107              		.loc 3 349 0
 108 0006 FFF7FEFF 		bl	_stats_start_measure_crit_thd
 109              		.loc 3 350 0
 110 000a FFF7FEFF 		bl	_dbg_check_lock
 111              		.loc 3 351 0
 112 000e 08BD     		pop	{r3, pc}
 113              		.cfi_endproc
 114              	.LFE167:
ARM GAS  /tmp/cceWPl9e.s 			page 3


 115              		.size	chSysLock, .-chSysLock
 116              		.section	.text.chSysUnlock,"ax",%progbits
 117              		.align	2
 118              		.p2align 4,,15
 119              		.thumb
 120              		.thumb_func
 121              		.type	chSysUnlock, %function
 122              	chSysUnlock:
 123              	.LFB168:
 124              		.loc 3 358 0
 125              		.cfi_startproc
 126              		@ args = 0, pretend = 0, frame = 0
 127              		@ frame_needed = 0, uses_anonymous_args = 0
 128 0000 08B5     		push	{r3, lr}
 129              		.cfi_def_cfa_offset 8
 130              		.cfi_offset 3, -8
 131              		.cfi_offset 14, -4
 132              		.loc 3 360 0
 133 0002 FFF7FEFF 		bl	_dbg_check_unlock
 134              		.loc 3 361 0
 135 0006 FFF7FEFF 		bl	_stats_stop_measure_crit_thd
 136              		.loc 3 367 0
 137 000a 094B     		ldr	r3, .L6
 138 000c 1A68     		ldr	r2, [r3]
 139 000e 084B     		ldr	r3, .L6
 140 0010 9A42     		cmp	r2, r3
 141 0012 0AD0     		beq	.L5
 142              		.loc 3 367 0 is_stmt 0 discriminator 1
 143 0014 064B     		ldr	r3, .L6
 144 0016 9B69     		ldr	r3, [r3, #24]
 145 0018 9A68     		ldr	r2, [r3, #8]
 146 001a 054B     		ldr	r3, .L6
 147 001c 1B68     		ldr	r3, [r3]
 148 001e 9B68     		ldr	r3, [r3, #8]
 149 0020 9A42     		cmp	r2, r3
 150 0022 02D2     		bcs	.L5
 151 0024 0348     		ldr	r0, .L6+4
 152 0026 FFF7FEFF 		bl	chSysHalt
 153              	.L5:
 154              		.loc 3 371 0 is_stmt 1
 155 002a FFF7FEFF 		bl	port_unlock
 156              		.loc 3 372 0
 157 002e 08BD     		pop	{r3, pc}
 158              	.L7:
 159              		.align	2
 160              	.L6:
 161 0030 00000000 		.word	ch
 162 0034 00000000 		.word	__func__.5925
 163              		.cfi_endproc
 164              	.LFE168:
 165              		.size	chSysUnlock, .-chSysUnlock
 166 0038 AFF30080 		.section	.text.chEvtRegisterMaskWithFlags,"ax",%progbits
 166      AFF30080 
 167              		.align	2
 168              		.p2align 4,,15
 169              		.global	chEvtRegisterMaskWithFlags
 170              		.thumb
ARM GAS  /tmp/cceWPl9e.s 			page 4


 171              		.thumb_func
 172              		.type	chEvtRegisterMaskWithFlags, %function
 173              	chEvtRegisterMaskWithFlags:
 174              	.LFB240:
 175              		.file 4 "/home/efe/ChibiOS/os/rt/src/chevents.c"
 176              		.loc 4 106 0
 177              		.cfi_startproc
 178              		@ args = 0, pretend = 0, frame = 16
 179              		@ frame_needed = 0, uses_anonymous_args = 0
 180 0000 00B5     		push	{lr}
 181              		.cfi_def_cfa_offset 4
 182              		.cfi_offset 14, -4
 183 0002 85B0     		sub	sp, sp, #20
 184              		.cfi_def_cfa_offset 24
 185 0004 0390     		str	r0, [sp, #12]
 186 0006 0291     		str	r1, [sp, #8]
 187 0008 0192     		str	r2, [sp, #4]
 188 000a 0093     		str	r3, [sp]
 189              		.loc 4 108 0
 190 000c 039B     		ldr	r3, [sp, #12]
 191 000e 002B     		cmp	r3, #0
 192 0010 02D0     		beq	.L9
 193              		.loc 4 108 0 is_stmt 0 discriminator 2
 194 0012 029B     		ldr	r3, [sp, #8]
 195 0014 002B     		cmp	r3, #0
 196 0016 02D1     		bne	.L10
 197              	.L9:
 198              		.loc 4 108 0 discriminator 1
 199 0018 0E48     		ldr	r0, .L11
 200 001a FFF7FEFF 		bl	chSysHalt
 201              	.L10:
 202              		.loc 4 110 0 is_stmt 1
 203 001e FFF7FEFF 		bl	chSysLock
 204              		.loc 4 111 0
 205 0022 039B     		ldr	r3, [sp, #12]
 206 0024 1A68     		ldr	r2, [r3]
 207 0026 029B     		ldr	r3, [sp, #8]
 208 0028 1A60     		str	r2, [r3]
 209              		.loc 4 112 0
 210 002a 039B     		ldr	r3, [sp, #12]
 211 002c 029A     		ldr	r2, [sp, #8]
 212 002e 1A60     		str	r2, [r3]
 213              		.loc 4 113 0
 214 0030 094B     		ldr	r3, .L11+4
 215 0032 9A69     		ldr	r2, [r3, #24]
 216 0034 029B     		ldr	r3, [sp, #8]
 217 0036 5A60     		str	r2, [r3, #4]
 218              		.loc 4 114 0
 219 0038 029B     		ldr	r3, [sp, #8]
 220 003a 019A     		ldr	r2, [sp, #4]
 221 003c 9A60     		str	r2, [r3, #8]
 222              		.loc 4 115 0
 223 003e 029B     		ldr	r3, [sp, #8]
 224 0040 0022     		movs	r2, #0
 225 0042 DA60     		str	r2, [r3, #12]
 226              		.loc 4 116 0
 227 0044 029B     		ldr	r3, [sp, #8]
ARM GAS  /tmp/cceWPl9e.s 			page 5


 228 0046 009A     		ldr	r2, [sp]
 229 0048 1A61     		str	r2, [r3, #16]
 230              		.loc 4 117 0
 231 004a FFF7FEFF 		bl	chSysUnlock
 232              		.loc 4 118 0
 233 004e 05B0     		add	sp, sp, #20
 234              		@ sp needed
 235 0050 5DF804FB 		ldr	pc, [sp], #4
 236              	.L12:
 237              		.align	2
 238              	.L11:
 239 0054 00000000 		.word	__func__.6623
 240 0058 00000000 		.word	ch
 241              		.cfi_endproc
 242              	.LFE240:
 243              		.size	chEvtRegisterMaskWithFlags, .-chEvtRegisterMaskWithFlags
 244 005c AFF30080 		.section	.text.chEvtUnregister,"ax",%progbits
 245              		.align	2
 246              		.p2align 4,,15
 247              		.global	chEvtUnregister
 248              		.thumb
 249              		.thumb_func
 250              		.type	chEvtUnregister, %function
 251              	chEvtUnregister:
 252              	.LFB241:
 253              		.loc 4 133 0
 254              		.cfi_startproc
 255              		@ args = 0, pretend = 0, frame = 16
 256              		@ frame_needed = 0, uses_anonymous_args = 0
 257 0000 00B5     		push	{lr}
 258              		.cfi_def_cfa_offset 4
 259              		.cfi_offset 14, -4
 260 0002 85B0     		sub	sp, sp, #20
 261              		.cfi_def_cfa_offset 24
 262 0004 0190     		str	r0, [sp, #4]
 263 0006 0091     		str	r1, [sp]
 264              		.loc 4 136 0
 265 0008 019B     		ldr	r3, [sp, #4]
 266 000a 002B     		cmp	r3, #0
 267 000c 02D0     		beq	.L14
 268              		.loc 4 136 0 is_stmt 0 discriminator 2
 269 000e 009B     		ldr	r3, [sp]
 270 0010 002B     		cmp	r3, #0
 271 0012 02D1     		bne	.L15
 272              	.L14:
 273              		.loc 4 136 0 discriminator 1
 274 0014 0F48     		ldr	r0, .L20
 275 0016 FFF7FEFF 		bl	chSysHalt
 276              	.L15:
 277              		.loc 4 139 0 is_stmt 1
 278 001a 019B     		ldr	r3, [sp, #4]
 279 001c 0393     		str	r3, [sp, #12]
 280              		.loc 4 141 0
 281 001e FFF7FEFF 		bl	chSysLock
 282              		.loc 4 143 0
 283 0022 0CE0     		b	.L16
 284              	.L19:
ARM GAS  /tmp/cceWPl9e.s 			page 6


 285              		.loc 4 145 0
 286 0024 039B     		ldr	r3, [sp, #12]
 287 0026 1A68     		ldr	r2, [r3]
 288 0028 009B     		ldr	r3, [sp]
 289 002a 9A42     		cmp	r2, r3
 290 002c 04D1     		bne	.L17
 291              		.loc 4 146 0
 292 002e 009B     		ldr	r3, [sp]
 293 0030 1A68     		ldr	r2, [r3]
 294 0032 039B     		ldr	r3, [sp, #12]
 295 0034 1A60     		str	r2, [r3]
 296              		.loc 4 147 0
 297 0036 07E0     		b	.L18
 298              	.L17:
 299              		.loc 4 149 0
 300 0038 039B     		ldr	r3, [sp, #12]
 301 003a 1B68     		ldr	r3, [r3]
 302 003c 0393     		str	r3, [sp, #12]
 303              	.L16:
 304              		.loc 4 143 0 discriminator 1
 305 003e 039B     		ldr	r3, [sp, #12]
 306 0040 1A68     		ldr	r2, [r3]
 307 0042 019B     		ldr	r3, [sp, #4]
 308 0044 9A42     		cmp	r2, r3
 309 0046 EDD1     		bne	.L19
 310              	.L18:
 311              		.loc 4 151 0
 312 0048 FFF7FEFF 		bl	chSysUnlock
 313              		.loc 4 152 0
 314 004c 05B0     		add	sp, sp, #20
 315              		@ sp needed
 316 004e 5DF804FB 		ldr	pc, [sp], #4
 317              	.L21:
 318 0052 00BF     		.align	2
 319              	.L20:
 320 0054 00000000 		.word	__func__.6629
 321              		.cfi_endproc
 322              	.LFE241:
 323              		.size	chEvtUnregister, .-chEvtUnregister
 324 0058 AFF30080 		.section	.text.chEvtGetAndClearEvents,"ax",%progbits
 324      AFF30080 
 325              		.align	2
 326              		.p2align 4,,15
 327              		.global	chEvtGetAndClearEvents
 328              		.thumb
 329              		.thumb_func
 330              		.type	chEvtGetAndClearEvents, %function
 331              	chEvtGetAndClearEvents:
 332              	.LFB242:
 333              		.loc 4 162 0
 334              		.cfi_startproc
 335              		@ args = 0, pretend = 0, frame = 16
 336              		@ frame_needed = 0, uses_anonymous_args = 0
 337 0000 00B5     		push	{lr}
 338              		.cfi_def_cfa_offset 4
 339              		.cfi_offset 14, -4
 340 0002 85B0     		sub	sp, sp, #20
ARM GAS  /tmp/cceWPl9e.s 			page 7


 341              		.cfi_def_cfa_offset 24
 342 0004 0190     		str	r0, [sp, #4]
 343              		.loc 4 165 0
 344 0006 FFF7FEFF 		bl	chSysLock
 345              		.loc 4 166 0
 346 000a 0B4B     		ldr	r3, .L24
 347 000c 9B69     		ldr	r3, [r3, #24]
 348 000e 9A6B     		ldr	r2, [r3, #56]
 349 0010 019B     		ldr	r3, [sp, #4]
 350 0012 1340     		ands	r3, r3, r2
 351 0014 0393     		str	r3, [sp, #12]
 352              		.loc 4 167 0
 353 0016 084B     		ldr	r3, .L24
 354 0018 9B69     		ldr	r3, [r3, #24]
 355 001a 074A     		ldr	r2, .L24
 356 001c 9269     		ldr	r2, [r2, #24]
 357 001e 916B     		ldr	r1, [r2, #56]
 358 0020 019A     		ldr	r2, [sp, #4]
 359 0022 D243     		mvns	r2, r2
 360 0024 0A40     		ands	r2, r2, r1
 361 0026 9A63     		str	r2, [r3, #56]
 362              		.loc 4 168 0
 363 0028 FFF7FEFF 		bl	chSysUnlock
 364              		.loc 4 170 0
 365 002c 039B     		ldr	r3, [sp, #12]
 366              		.loc 4 171 0
 367 002e 1846     		mov	r0, r3
 368 0030 05B0     		add	sp, sp, #20
 369              		@ sp needed
 370 0032 5DF804FB 		ldr	pc, [sp], #4
 371              	.L25:
 372 0036 00BF     		.align	2
 373              	.L24:
 374 0038 00000000 		.word	ch
 375              		.cfi_endproc
 376              	.LFE242:
 377              		.size	chEvtGetAndClearEvents, .-chEvtGetAndClearEvents
 378 003c AFF30080 		.section	.text.chEvtAddEvents,"ax",%progbits
 379              		.align	2
 380              		.p2align 4,,15
 381              		.global	chEvtAddEvents
 382              		.thumb
 383              		.thumb_func
 384              		.type	chEvtAddEvents, %function
 385              	chEvtAddEvents:
 386              	.LFB243:
 387              		.loc 4 182 0
 388              		.cfi_startproc
 389              		@ args = 0, pretend = 0, frame = 8
 390              		@ frame_needed = 0, uses_anonymous_args = 0
 391 0000 00B5     		push	{lr}
 392              		.cfi_def_cfa_offset 4
 393              		.cfi_offset 14, -4
 394 0002 83B0     		sub	sp, sp, #12
 395              		.cfi_def_cfa_offset 16
 396 0004 0190     		str	r0, [sp, #4]
 397              		.loc 4 184 0
ARM GAS  /tmp/cceWPl9e.s 			page 8


 398 0006 FFF7FEFF 		bl	chSysLock
 399              		.loc 4 185 0
 400 000a 094B     		ldr	r3, .L28
 401 000c 9B69     		ldr	r3, [r3, #24]
 402 000e 084A     		ldr	r2, .L28
 403 0010 9269     		ldr	r2, [r2, #24]
 404 0012 916B     		ldr	r1, [r2, #56]
 405 0014 019A     		ldr	r2, [sp, #4]
 406 0016 0A43     		orrs	r2, r2, r1
 407 0018 9A63     		str	r2, [r3, #56]
 408              		.loc 4 186 0
 409 001a 054B     		ldr	r3, .L28
 410 001c 9B69     		ldr	r3, [r3, #24]
 411 001e 9B6B     		ldr	r3, [r3, #56]
 412 0020 0193     		str	r3, [sp, #4]
 413              		.loc 4 187 0
 414 0022 FFF7FEFF 		bl	chSysUnlock
 415              		.loc 4 189 0
 416 0026 019B     		ldr	r3, [sp, #4]
 417              		.loc 4 190 0
 418 0028 1846     		mov	r0, r3
 419 002a 03B0     		add	sp, sp, #12
 420              		@ sp needed
 421 002c 5DF804FB 		ldr	pc, [sp], #4
 422              	.L29:
 423              		.align	2
 424              	.L28:
 425 0030 00000000 		.word	ch
 426              		.cfi_endproc
 427              	.LFE243:
 428              		.size	chEvtAddEvents, .-chEvtAddEvents
 429 0034 AFF30080 		.section	.text.chEvtBroadcastFlagsI,"ax",%progbits
 429      AFF30080 
 429      AFF30080 
 430              		.align	2
 431              		.p2align 4,,15
 432              		.global	chEvtBroadcastFlagsI
 433              		.thumb
 434              		.thumb_func
 435              		.type	chEvtBroadcastFlagsI, %function
 436              	chEvtBroadcastFlagsI:
 437              	.LFB244:
 438              		.loc 4 209 0
 439              		.cfi_startproc
 440              		@ args = 0, pretend = 0, frame = 16
 441              		@ frame_needed = 0, uses_anonymous_args = 0
 442 0000 00B5     		push	{lr}
 443              		.cfi_def_cfa_offset 4
 444              		.cfi_offset 14, -4
 445 0002 85B0     		sub	sp, sp, #20
 446              		.cfi_def_cfa_offset 24
 447 0004 0190     		str	r0, [sp, #4]
 448 0006 0091     		str	r1, [sp]
 449              		.loc 4 212 0
 450 0008 FFF7FEFF 		bl	chDbgCheckClassI
 451              		.loc 4 213 0
 452 000c 019B     		ldr	r3, [sp, #4]
ARM GAS  /tmp/cceWPl9e.s 			page 9


 453 000e 002B     		cmp	r3, #0
 454 0010 02D1     		bne	.L31
 455              		.loc 4 213 0 is_stmt 0 discriminator 1
 456 0012 1448     		ldr	r0, .L36
 457 0014 FFF7FEFF 		bl	chSysHalt
 458              	.L31:
 459              		.loc 4 215 0 is_stmt 1
 460 0018 019B     		ldr	r3, [sp, #4]
 461 001a 1B68     		ldr	r3, [r3]
 462 001c 0393     		str	r3, [sp, #12]
 463              		.loc 4 217 0
 464 001e 1AE0     		b	.L32
 465              	.L35:
 466              		.loc 4 219 0
 467 0020 039B     		ldr	r3, [sp, #12]
 468 0022 DA68     		ldr	r2, [r3, #12]
 469 0024 009B     		ldr	r3, [sp]
 470 0026 1A43     		orrs	r2, r2, r3
 471 0028 039B     		ldr	r3, [sp, #12]
 472 002a DA60     		str	r2, [r3, #12]
 473              		.loc 4 222 0
 474 002c 009B     		ldr	r3, [sp]
 475 002e 002B     		cmp	r3, #0
 476 0030 06D0     		beq	.L33
 477              		.loc 4 223 0 discriminator 1
 478 0032 039B     		ldr	r3, [sp, #12]
 479 0034 DA68     		ldr	r2, [r3, #12]
 480 0036 039B     		ldr	r3, [sp, #12]
 481 0038 1B69     		ldr	r3, [r3, #16]
 482 003a 1340     		ands	r3, r3, r2
 483              		.loc 4 222 0 discriminator 1
 484 003c 002B     		cmp	r3, #0
 485 003e 07D0     		beq	.L34
 486              	.L33:
 487              		.loc 4 224 0
 488 0040 039B     		ldr	r3, [sp, #12]
 489 0042 5A68     		ldr	r2, [r3, #4]
 490 0044 039B     		ldr	r3, [sp, #12]
 491 0046 9B68     		ldr	r3, [r3, #8]
 492 0048 1046     		mov	r0, r2
 493 004a 1946     		mov	r1, r3
 494 004c FFF7FEFF 		bl	chEvtSignalI
 495              	.L34:
 496              		.loc 4 226 0
 497 0050 039B     		ldr	r3, [sp, #12]
 498 0052 1B68     		ldr	r3, [r3]
 499 0054 0393     		str	r3, [sp, #12]
 500              	.L32:
 501              		.loc 4 217 0 discriminator 1
 502 0056 039A     		ldr	r2, [sp, #12]
 503 0058 019B     		ldr	r3, [sp, #4]
 504 005a 9A42     		cmp	r2, r3
 505 005c E0D1     		bne	.L35
 506              		.loc 4 228 0
 507 005e 05B0     		add	sp, sp, #20
 508              		@ sp needed
 509 0060 5DF804FB 		ldr	pc, [sp], #4
ARM GAS  /tmp/cceWPl9e.s 			page 10


 510              	.L37:
 511              		.align	2
 512              	.L36:
 513 0064 00000000 		.word	__func__.6645
 514              		.cfi_endproc
 515              	.LFE244:
 516              		.size	chEvtBroadcastFlagsI, .-chEvtBroadcastFlagsI
 517 0068 AFF30080 		.section	.text.chEvtGetAndClearFlags,"ax",%progbits
 517      AFF30080 
 518              		.align	2
 519              		.p2align 4,,15
 520              		.global	chEvtGetAndClearFlags
 521              		.thumb
 522              		.thumb_func
 523              		.type	chEvtGetAndClearFlags, %function
 524              	chEvtGetAndClearFlags:
 525              	.LFB245:
 526              		.loc 4 241 0
 527              		.cfi_startproc
 528              		@ args = 0, pretend = 0, frame = 16
 529              		@ frame_needed = 0, uses_anonymous_args = 0
 530 0000 00B5     		push	{lr}
 531              		.cfi_def_cfa_offset 4
 532              		.cfi_offset 14, -4
 533 0002 85B0     		sub	sp, sp, #20
 534              		.cfi_def_cfa_offset 24
 535 0004 0190     		str	r0, [sp, #4]
 536              		.loc 4 244 0
 537 0006 FFF7FEFF 		bl	chSysLock
 538              		.loc 4 245 0
 539 000a 019B     		ldr	r3, [sp, #4]
 540 000c DB68     		ldr	r3, [r3, #12]
 541 000e 0393     		str	r3, [sp, #12]
 542              		.loc 4 246 0
 543 0010 019B     		ldr	r3, [sp, #4]
 544 0012 0022     		movs	r2, #0
 545 0014 DA60     		str	r2, [r3, #12]
 546              		.loc 4 247 0
 547 0016 FFF7FEFF 		bl	chSysUnlock
 548              		.loc 4 249 0
 549 001a 039B     		ldr	r3, [sp, #12]
 550              		.loc 4 250 0
 551 001c 1846     		mov	r0, r3
 552 001e 05B0     		add	sp, sp, #20
 553              		@ sp needed
 554 0020 5DF804FB 		ldr	pc, [sp], #4
 555              		.cfi_endproc
 556              	.LFE245:
 557              		.size	chEvtGetAndClearFlags, .-chEvtGetAndClearFlags
 558 0024 AFF30080 		.section	.text.chEvtSignal,"ax",%progbits
 558      AFF30080 
 558      AFF30080 
 559              		.align	2
 560              		.p2align 4,,15
 561              		.global	chEvtSignal
 562              		.thumb
 563              		.thumb_func
ARM GAS  /tmp/cceWPl9e.s 			page 11


 564              		.type	chEvtSignal, %function
 565              	chEvtSignal:
 566              	.LFB246:
 567              		.loc 4 260 0
 568              		.cfi_startproc
 569              		@ args = 0, pretend = 0, frame = 8
 570              		@ frame_needed = 0, uses_anonymous_args = 0
 571 0000 00B5     		push	{lr}
 572              		.cfi_def_cfa_offset 4
 573              		.cfi_offset 14, -4
 574 0002 83B0     		sub	sp, sp, #12
 575              		.cfi_def_cfa_offset 16
 576 0004 0190     		str	r0, [sp, #4]
 577 0006 0091     		str	r1, [sp]
 578              		.loc 4 262 0
 579 0008 019B     		ldr	r3, [sp, #4]
 580 000a 002B     		cmp	r3, #0
 581 000c 02D1     		bne	.L41
 582              		.loc 4 262 0 is_stmt 0 discriminator 1
 583 000e 0848     		ldr	r0, .L42
 584 0010 FFF7FEFF 		bl	chSysHalt
 585              	.L41:
 586              		.loc 4 264 0 is_stmt 1
 587 0014 FFF7FEFF 		bl	chSysLock
 588              		.loc 4 265 0
 589 0018 0198     		ldr	r0, [sp, #4]
 590 001a 0099     		ldr	r1, [sp]
 591 001c FFF7FEFF 		bl	chEvtSignalI
 592              		.loc 4 266 0
 593 0020 FFF7FEFF 		bl	chSchRescheduleS
 594              		.loc 4 267 0
 595 0024 FFF7FEFF 		bl	chSysUnlock
 596              		.loc 4 268 0
 597 0028 03B0     		add	sp, sp, #12
 598              		@ sp needed
 599 002a 5DF804FB 		ldr	pc, [sp], #4
 600              	.L43:
 601 002e 00BF     		.align	2
 602              	.L42:
 603 0030 00000000 		.word	__func__.6657
 604              		.cfi_endproc
 605              	.LFE246:
 606              		.size	chEvtSignal, .-chEvtSignal
 607 0034 AFF30080 		.section	.text.chEvtSignalI,"ax",%progbits
 607      AFF30080 
 607      AFF30080 
 608              		.align	2
 609              		.p2align 4,,15
 610              		.global	chEvtSignalI
 611              		.thumb
 612              		.thumb_func
 613              		.type	chEvtSignalI, %function
 614              	chEvtSignalI:
 615              	.LFB247:
 616              		.loc 4 282 0
 617              		.cfi_startproc
 618              		@ args = 0, pretend = 0, frame = 8
ARM GAS  /tmp/cceWPl9e.s 			page 12


 619              		@ frame_needed = 0, uses_anonymous_args = 0
 620 0000 00B5     		push	{lr}
 621              		.cfi_def_cfa_offset 4
 622              		.cfi_offset 14, -4
 623 0002 83B0     		sub	sp, sp, #12
 624              		.cfi_def_cfa_offset 16
 625 0004 0190     		str	r0, [sp, #4]
 626 0006 0091     		str	r1, [sp]
 627              		.loc 4 284 0
 628 0008 FFF7FEFF 		bl	chDbgCheckClassI
 629              		.loc 4 285 0
 630 000c 019B     		ldr	r3, [sp, #4]
 631 000e 002B     		cmp	r3, #0
 632 0010 02D1     		bne	.L45
 633              		.loc 4 285 0 is_stmt 0 discriminator 1
 634 0012 1648     		ldr	r0, .L49
 635 0014 FFF7FEFF 		bl	chSysHalt
 636              	.L45:
 637              		.loc 4 287 0 is_stmt 1
 638 0018 019B     		ldr	r3, [sp, #4]
 639 001a 9A6B     		ldr	r2, [r3, #56]
 640 001c 009B     		ldr	r3, [sp]
 641 001e 1A43     		orrs	r2, r2, r3
 642 0020 019B     		ldr	r3, [sp, #4]
 643 0022 9A63     		str	r2, [r3, #56]
 644              		.loc 4 289 0
 645 0024 019B     		ldr	r3, [sp, #4]
 646 0026 93F82030 		ldrb	r3, [r3, #32]	@ zero_extendqisi2
 647 002a 0A2B     		cmp	r3, #10
 648 002c 06D1     		bne	.L46
 649              		.loc 4 290 0 discriminator 1
 650 002e 019B     		ldr	r3, [sp, #4]
 651 0030 9A6B     		ldr	r2, [r3, #56]
 652 0032 019B     		ldr	r3, [sp, #4]
 653 0034 5B6A     		ldr	r3, [r3, #36]
 654 0036 1340     		ands	r3, r3, r2
 655              		.loc 4 289 0 discriminator 1
 656 0038 002B     		cmp	r3, #0
 657 003a 0DD1     		bne	.L47
 658              	.L46:
 659              		.loc 4 291 0
 660 003c 019B     		ldr	r3, [sp, #4]
 661 003e 93F82030 		ldrb	r3, [r3, #32]	@ zero_extendqisi2
 662              		.loc 4 290 0
 663 0042 0B2B     		cmp	r3, #11
 664 0044 0ED1     		bne	.L44
 665              		.loc 4 292 0
 666 0046 019B     		ldr	r3, [sp, #4]
 667 0048 9A6B     		ldr	r2, [r3, #56]
 668 004a 019B     		ldr	r3, [sp, #4]
 669 004c 5B6A     		ldr	r3, [r3, #36]
 670 004e 1A40     		ands	r2, r2, r3
 671 0050 019B     		ldr	r3, [sp, #4]
 672 0052 5B6A     		ldr	r3, [r3, #36]
 673              		.loc 4 291 0
 674 0054 9A42     		cmp	r2, r3
 675 0056 05D1     		bne	.L44
ARM GAS  /tmp/cceWPl9e.s 			page 13


 676              	.L47:
 677              		.loc 4 293 0
 678 0058 019B     		ldr	r3, [sp, #4]
 679 005a 0022     		movs	r2, #0
 680 005c 5A62     		str	r2, [r3, #36]
 681              		.loc 4 294 0
 682 005e 0198     		ldr	r0, [sp, #4]
 683 0060 FFF7FEFF 		bl	chSchReadyI
 684              	.L44:
 685              		.loc 4 296 0
 686 0064 03B0     		add	sp, sp, #12
 687              		@ sp needed
 688 0066 5DF804FB 		ldr	pc, [sp], #4
 689              	.L50:
 690 006a 00BF     		.align	2
 691              	.L49:
 692 006c 00000000 		.word	__func__.6662
 693              		.cfi_endproc
 694              	.LFE247:
 695              		.size	chEvtSignalI, .-chEvtSignalI
 696              		.section	.text.chEvtBroadcastFlags,"ax",%progbits
 697              		.align	2
 698              		.p2align 4,,15
 699              		.global	chEvtBroadcastFlags
 700              		.thumb
 701              		.thumb_func
 702              		.type	chEvtBroadcastFlags, %function
 703              	chEvtBroadcastFlags:
 704              	.LFB248:
 705              		.loc 4 311 0
 706              		.cfi_startproc
 707              		@ args = 0, pretend = 0, frame = 8
 708              		@ frame_needed = 0, uses_anonymous_args = 0
 709 0000 00B5     		push	{lr}
 710              		.cfi_def_cfa_offset 4
 711              		.cfi_offset 14, -4
 712 0002 83B0     		sub	sp, sp, #12
 713              		.cfi_def_cfa_offset 16
 714 0004 0190     		str	r0, [sp, #4]
 715 0006 0091     		str	r1, [sp]
 716              		.loc 4 313 0
 717 0008 FFF7FEFF 		bl	chSysLock
 718              		.loc 4 314 0
 719 000c 0198     		ldr	r0, [sp, #4]
 720 000e 0099     		ldr	r1, [sp]
 721 0010 FFF7FEFF 		bl	chEvtBroadcastFlagsI
 722              		.loc 4 315 0
 723 0014 FFF7FEFF 		bl	chSchRescheduleS
 724              		.loc 4 316 0
 725 0018 FFF7FEFF 		bl	chSysUnlock
 726              		.loc 4 317 0
 727 001c 03B0     		add	sp, sp, #12
 728              		@ sp needed
 729 001e 5DF804FB 		ldr	pc, [sp], #4
 730              		.cfi_endproc
 731              	.LFE248:
 732              		.size	chEvtBroadcastFlags, .-chEvtBroadcastFlags
ARM GAS  /tmp/cceWPl9e.s 			page 14


 733 0022 00BFAFF3 		.section	.text.chEvtGetAndClearFlagsI,"ax",%progbits
 733      0080AFF3 
 733      0080AFF3 
 733      0080
 734              		.align	2
 735              		.p2align 4,,15
 736              		.global	chEvtGetAndClearFlagsI
 737              		.thumb
 738              		.thumb_func
 739              		.type	chEvtGetAndClearFlagsI, %function
 740              	chEvtGetAndClearFlagsI:
 741              	.LFB249:
 742              		.loc 4 330 0
 743              		.cfi_startproc
 744              		@ args = 0, pretend = 0, frame = 16
 745              		@ frame_needed = 0, uses_anonymous_args = 0
 746              		@ link register save eliminated.
 747 0000 84B0     		sub	sp, sp, #16
 748              		.cfi_def_cfa_offset 16
 749 0002 0190     		str	r0, [sp, #4]
 750              		.loc 4 333 0
 751 0004 019B     		ldr	r3, [sp, #4]
 752 0006 DB68     		ldr	r3, [r3, #12]
 753 0008 0393     		str	r3, [sp, #12]
 754              		.loc 4 334 0
 755 000a 019B     		ldr	r3, [sp, #4]
 756 000c 0022     		movs	r2, #0
 757 000e DA60     		str	r2, [r3, #12]
 758              		.loc 4 336 0
 759 0010 039B     		ldr	r3, [sp, #12]
 760              		.loc 4 337 0
 761 0012 1846     		mov	r0, r3
 762 0014 04B0     		add	sp, sp, #16
 763              		@ sp needed
 764 0016 7047     		bx	lr
 765              		.cfi_endproc
 766              	.LFE249:
 767              		.size	chEvtGetAndClearFlagsI, .-chEvtGetAndClearFlagsI
 768 0018 AFF30080 		.section	.text.chEvtDispatch,"ax",%progbits
 768      AFF30080 
 769              		.align	2
 770              		.p2align 4,,15
 771              		.global	chEvtDispatch
 772              		.thumb
 773              		.thumb_func
 774              		.type	chEvtDispatch, %function
 775              	chEvtDispatch:
 776              	.LFB250:
 777              		.loc 4 348 0
 778              		.cfi_startproc
 779              		@ args = 0, pretend = 0, frame = 16
 780              		@ frame_needed = 0, uses_anonymous_args = 0
 781 0000 00B5     		push	{lr}
 782              		.cfi_def_cfa_offset 4
 783              		.cfi_offset 14, -4
 784 0002 85B0     		sub	sp, sp, #20
 785              		.cfi_def_cfa_offset 24
ARM GAS  /tmp/cceWPl9e.s 			page 15


 786 0004 0190     		str	r0, [sp, #4]
 787 0006 0091     		str	r1, [sp]
 788              		.loc 4 351 0
 789 0008 019B     		ldr	r3, [sp, #4]
 790 000a 002B     		cmp	r3, #0
 791 000c 02D1     		bne	.L55
 792              		.loc 4 351 0 is_stmt 0 discriminator 1
 793 000e 1848     		ldr	r0, .L60
 794 0010 FFF7FEFF 		bl	chSysHalt
 795              	.L55:
 796              		.loc 4 353 0 is_stmt 1
 797 0014 0023     		movs	r3, #0
 798 0016 0393     		str	r3, [sp, #12]
 799              		.loc 4 354 0
 800 0018 23E0     		b	.L56
 801              	.L59:
 802              		.loc 4 355 0
 803 001a 009A     		ldr	r2, [sp]
 804 001c 039B     		ldr	r3, [sp, #12]
 805 001e 22FA03F3 		lsr	r3, r2, r3
 806 0022 03F00103 		and	r3, r3, #1
 807 0026 002B     		cmp	r3, #0
 808 0028 18D0     		beq	.L57
 809              		.loc 4 356 0 discriminator 1
 810 002a 039B     		ldr	r3, [sp, #12]
 811 002c 9B00     		lsls	r3, r3, #2
 812 002e 019A     		ldr	r2, [sp, #4]
 813 0030 1344     		add	r3, r3, r2
 814 0032 1B68     		ldr	r3, [r3]
 815 0034 002B     		cmp	r3, #0
 816 0036 02D1     		bne	.L58
 817 0038 0D48     		ldr	r0, .L60
 818 003a FFF7FEFF 		bl	chSysHalt
 819              	.L58:
 820              		.loc 4 357 0
 821 003e 0122     		movs	r2, #1
 822 0040 039B     		ldr	r3, [sp, #12]
 823 0042 02FA03F3 		lsl	r3, r2, r3
 824 0046 DB43     		mvns	r3, r3
 825 0048 009A     		ldr	r2, [sp]
 826 004a 1340     		ands	r3, r3, r2
 827 004c 0093     		str	r3, [sp]
 828              		.loc 4 358 0
 829 004e 039B     		ldr	r3, [sp, #12]
 830 0050 9B00     		lsls	r3, r3, #2
 831 0052 019A     		ldr	r2, [sp, #4]
 832 0054 1344     		add	r3, r3, r2
 833 0056 1B68     		ldr	r3, [r3]
 834 0058 0398     		ldr	r0, [sp, #12]
 835 005a 9847     		blx	r3
 836              	.L57:
 837              		.loc 4 360 0
 838 005c 039B     		ldr	r3, [sp, #12]
 839 005e 0133     		adds	r3, r3, #1
 840 0060 0393     		str	r3, [sp, #12]
 841              	.L56:
 842              		.loc 4 354 0 discriminator 1
ARM GAS  /tmp/cceWPl9e.s 			page 16


 843 0062 009B     		ldr	r3, [sp]
 844 0064 002B     		cmp	r3, #0
 845 0066 D8D1     		bne	.L59
 846              		.loc 4 362 0
 847 0068 05B0     		add	sp, sp, #20
 848              		@ sp needed
 849 006a 5DF804FB 		ldr	pc, [sp], #4
 850              	.L61:
 851 006e 00BF     		.align	2
 852              	.L60:
 853 0070 00000000 		.word	__func__.6676
 854              		.cfi_endproc
 855              	.LFE250:
 856              		.size	chEvtDispatch, .-chEvtDispatch
 857 0074 AFF30080 		.section	.text.chEvtWaitOne,"ax",%progbits
 857      AFF30080 
 857      AFF30080 
 858              		.align	2
 859              		.p2align 4,,15
 860              		.global	chEvtWaitOne
 861              		.thumb
 862              		.thumb_func
 863              		.type	chEvtWaitOne, %function
 864              	chEvtWaitOne:
 865              	.LFB251:
 866              		.loc 4 383 0
 867              		.cfi_startproc
 868              		@ args = 0, pretend = 0, frame = 16
 869              		@ frame_needed = 0, uses_anonymous_args = 0
 870 0000 00B5     		push	{lr}
 871              		.cfi_def_cfa_offset 4
 872              		.cfi_offset 14, -4
 873 0002 85B0     		sub	sp, sp, #20
 874              		.cfi_def_cfa_offset 24
 875 0004 0190     		str	r0, [sp, #4]
 876              		.loc 4 384 0
 877 0006 154B     		ldr	r3, .L65
 878 0008 9B69     		ldr	r3, [r3, #24]
 879 000a 0293     		str	r3, [sp, #8]
 880              		.loc 4 387 0
 881 000c FFF7FEFF 		bl	chSysLock
 882              		.loc 4 388 0
 883 0010 029B     		ldr	r3, [sp, #8]
 884 0012 9A6B     		ldr	r2, [r3, #56]
 885 0014 019B     		ldr	r3, [sp, #4]
 886 0016 1340     		ands	r3, r3, r2
 887 0018 0393     		str	r3, [sp, #12]
 888              		.loc 4 389 0
 889 001a 039B     		ldr	r3, [sp, #12]
 890 001c 002B     		cmp	r3, #0
 891 001e 0AD1     		bne	.L63
 892              		.loc 4 390 0
 893 0020 029B     		ldr	r3, [sp, #8]
 894 0022 019A     		ldr	r2, [sp, #4]
 895 0024 5A62     		str	r2, [r3, #36]
 896              		.loc 4 391 0
 897 0026 0A20     		movs	r0, #10
ARM GAS  /tmp/cceWPl9e.s 			page 17


 898 0028 FFF7FEFF 		bl	chSchGoSleepS
 899              		.loc 4 392 0
 900 002c 029B     		ldr	r3, [sp, #8]
 901 002e 9A6B     		ldr	r2, [r3, #56]
 902 0030 019B     		ldr	r3, [sp, #4]
 903 0032 1340     		ands	r3, r3, r2
 904 0034 0393     		str	r3, [sp, #12]
 905              	.L63:
 906              		.loc 4 394 0
 907 0036 039B     		ldr	r3, [sp, #12]
 908 0038 5B42     		negs	r3, r3
 909 003a 039A     		ldr	r2, [sp, #12]
 910 003c 1340     		ands	r3, r3, r2
 911 003e 0393     		str	r3, [sp, #12]
 912              		.loc 4 395 0
 913 0040 029B     		ldr	r3, [sp, #8]
 914 0042 9A6B     		ldr	r2, [r3, #56]
 915 0044 039B     		ldr	r3, [sp, #12]
 916 0046 DB43     		mvns	r3, r3
 917 0048 1A40     		ands	r2, r2, r3
 918 004a 029B     		ldr	r3, [sp, #8]
 919 004c 9A63     		str	r2, [r3, #56]
 920              		.loc 4 396 0
 921 004e FFF7FEFF 		bl	chSysUnlock
 922              		.loc 4 398 0
 923 0052 039B     		ldr	r3, [sp, #12]
 924              		.loc 4 399 0
 925 0054 1846     		mov	r0, r3
 926 0056 05B0     		add	sp, sp, #20
 927              		@ sp needed
 928 0058 5DF804FB 		ldr	pc, [sp], #4
 929              	.L66:
 930              		.align	2
 931              	.L65:
 932 005c 00000000 		.word	ch
 933              		.cfi_endproc
 934              	.LFE251:
 935              		.size	chEvtWaitOne, .-chEvtWaitOne
 936              		.section	.text.chEvtWaitAny,"ax",%progbits
 937              		.align	2
 938              		.p2align 4,,15
 939              		.global	chEvtWaitAny
 940              		.thumb
 941              		.thumb_func
 942              		.type	chEvtWaitAny, %function
 943              	chEvtWaitAny:
 944              	.LFB252:
 945              		.loc 4 413 0
 946              		.cfi_startproc
 947              		@ args = 0, pretend = 0, frame = 16
 948              		@ frame_needed = 0, uses_anonymous_args = 0
 949 0000 00B5     		push	{lr}
 950              		.cfi_def_cfa_offset 4
 951              		.cfi_offset 14, -4
 952 0002 85B0     		sub	sp, sp, #20
 953              		.cfi_def_cfa_offset 24
 954 0004 0190     		str	r0, [sp, #4]
ARM GAS  /tmp/cceWPl9e.s 			page 18


 955              		.loc 4 414 0
 956 0006 134B     		ldr	r3, .L70
 957 0008 9B69     		ldr	r3, [r3, #24]
 958 000a 0293     		str	r3, [sp, #8]
 959              		.loc 4 417 0
 960 000c FFF7FEFF 		bl	chSysLock
 961              		.loc 4 418 0
 962 0010 029B     		ldr	r3, [sp, #8]
 963 0012 9A6B     		ldr	r2, [r3, #56]
 964 0014 019B     		ldr	r3, [sp, #4]
 965 0016 1340     		ands	r3, r3, r2
 966 0018 0393     		str	r3, [sp, #12]
 967              		.loc 4 419 0
 968 001a 039B     		ldr	r3, [sp, #12]
 969 001c 002B     		cmp	r3, #0
 970 001e 0AD1     		bne	.L68
 971              		.loc 4 420 0
 972 0020 029B     		ldr	r3, [sp, #8]
 973 0022 019A     		ldr	r2, [sp, #4]
 974 0024 5A62     		str	r2, [r3, #36]
 975              		.loc 4 421 0
 976 0026 0A20     		movs	r0, #10
 977 0028 FFF7FEFF 		bl	chSchGoSleepS
 978              		.loc 4 422 0
 979 002c 029B     		ldr	r3, [sp, #8]
 980 002e 9A6B     		ldr	r2, [r3, #56]
 981 0030 019B     		ldr	r3, [sp, #4]
 982 0032 1340     		ands	r3, r3, r2
 983 0034 0393     		str	r3, [sp, #12]
 984              	.L68:
 985              		.loc 4 424 0
 986 0036 029B     		ldr	r3, [sp, #8]
 987 0038 9A6B     		ldr	r2, [r3, #56]
 988 003a 039B     		ldr	r3, [sp, #12]
 989 003c DB43     		mvns	r3, r3
 990 003e 1A40     		ands	r2, r2, r3
 991 0040 029B     		ldr	r3, [sp, #8]
 992 0042 9A63     		str	r2, [r3, #56]
 993              		.loc 4 425 0
 994 0044 FFF7FEFF 		bl	chSysUnlock
 995              		.loc 4 427 0
 996 0048 039B     		ldr	r3, [sp, #12]
 997              		.loc 4 428 0
 998 004a 1846     		mov	r0, r3
 999 004c 05B0     		add	sp, sp, #20
 1000              		@ sp needed
 1001 004e 5DF804FB 		ldr	pc, [sp], #4
 1002              	.L71:
 1003 0052 00BF     		.align	2
 1004              	.L70:
 1005 0054 00000000 		.word	ch
 1006              		.cfi_endproc
 1007              	.LFE252:
 1008              		.size	chEvtWaitAny, .-chEvtWaitAny
 1009 0058 AFF30080 		.section	.text.chEvtWaitAll,"ax",%progbits
 1009      AFF30080 
 1010              		.align	2
ARM GAS  /tmp/cceWPl9e.s 			page 19


 1011              		.p2align 4,,15
 1012              		.global	chEvtWaitAll
 1013              		.thumb
 1014              		.thumb_func
 1015              		.type	chEvtWaitAll, %function
 1016              	chEvtWaitAll:
 1017              	.LFB253:
 1018              		.loc 4 441 0
 1019              		.cfi_startproc
 1020              		@ args = 0, pretend = 0, frame = 16
 1021              		@ frame_needed = 0, uses_anonymous_args = 0
 1022 0000 00B5     		push	{lr}
 1023              		.cfi_def_cfa_offset 4
 1024              		.cfi_offset 14, -4
 1025 0002 85B0     		sub	sp, sp, #20
 1026              		.cfi_def_cfa_offset 24
 1027 0004 0190     		str	r0, [sp, #4]
 1028              		.loc 4 442 0
 1029 0006 104B     		ldr	r3, .L75
 1030 0008 9B69     		ldr	r3, [r3, #24]
 1031 000a 0393     		str	r3, [sp, #12]
 1032              		.loc 4 444 0
 1033 000c FFF7FEFF 		bl	chSysLock
 1034              		.loc 4 445 0
 1035 0010 039B     		ldr	r3, [sp, #12]
 1036 0012 9A6B     		ldr	r2, [r3, #56]
 1037 0014 019B     		ldr	r3, [sp, #4]
 1038 0016 1A40     		ands	r2, r2, r3
 1039 0018 019B     		ldr	r3, [sp, #4]
 1040 001a 9A42     		cmp	r2, r3
 1041 001c 05D0     		beq	.L73
 1042              		.loc 4 446 0
 1043 001e 039B     		ldr	r3, [sp, #12]
 1044 0020 019A     		ldr	r2, [sp, #4]
 1045 0022 5A62     		str	r2, [r3, #36]
 1046              		.loc 4 447 0
 1047 0024 0B20     		movs	r0, #11
 1048 0026 FFF7FEFF 		bl	chSchGoSleepS
 1049              	.L73:
 1050              		.loc 4 449 0
 1051 002a 039B     		ldr	r3, [sp, #12]
 1052 002c 9A6B     		ldr	r2, [r3, #56]
 1053 002e 019B     		ldr	r3, [sp, #4]
 1054 0030 DB43     		mvns	r3, r3
 1055 0032 1A40     		ands	r2, r2, r3
 1056 0034 039B     		ldr	r3, [sp, #12]
 1057 0036 9A63     		str	r2, [r3, #56]
 1058              		.loc 4 450 0
 1059 0038 FFF7FEFF 		bl	chSysUnlock
 1060              		.loc 4 452 0
 1061 003c 019B     		ldr	r3, [sp, #4]
 1062              		.loc 4 453 0
 1063 003e 1846     		mov	r0, r3
 1064 0040 05B0     		add	sp, sp, #20
 1065              		@ sp needed
 1066 0042 5DF804FB 		ldr	pc, [sp], #4
 1067              	.L76:
ARM GAS  /tmp/cceWPl9e.s 			page 20


 1068 0046 00BF     		.align	2
 1069              	.L75:
 1070 0048 00000000 		.word	ch
 1071              		.cfi_endproc
 1072              	.LFE253:
 1073              		.size	chEvtWaitAll, .-chEvtWaitAll
 1074 004c AFF30080 		.section	.text.chEvtWaitOneTimeout,"ax",%progbits
 1075              		.align	2
 1076              		.p2align 4,,15
 1077              		.global	chEvtWaitOneTimeout
 1078              		.thumb
 1079              		.thumb_func
 1080              		.type	chEvtWaitOneTimeout, %function
 1081              	chEvtWaitOneTimeout:
 1082              	.LFB254:
 1083              		.loc 4 479 0
 1084              		.cfi_startproc
 1085              		@ args = 0, pretend = 0, frame = 16
 1086              		@ frame_needed = 0, uses_anonymous_args = 0
 1087 0000 00B5     		push	{lr}
 1088              		.cfi_def_cfa_offset 4
 1089              		.cfi_offset 14, -4
 1090 0002 85B0     		sub	sp, sp, #20
 1091              		.cfi_def_cfa_offset 24
 1092 0004 0190     		str	r0, [sp, #4]
 1093 0006 0091     		str	r1, [sp]
 1094              		.loc 4 480 0
 1095 0008 1C4B     		ldr	r3, .L82
 1096 000a 9B69     		ldr	r3, [r3, #24]
 1097 000c 0293     		str	r3, [sp, #8]
 1098              		.loc 4 483 0
 1099 000e FFF7FEFF 		bl	chSysLock
 1100              		.loc 4 484 0
 1101 0012 029B     		ldr	r3, [sp, #8]
 1102 0014 9A6B     		ldr	r2, [r3, #56]
 1103 0016 019B     		ldr	r3, [sp, #4]
 1104 0018 1340     		ands	r3, r3, r2
 1105 001a 0393     		str	r3, [sp, #12]
 1106              		.loc 4 485 0
 1107 001c 039B     		ldr	r3, [sp, #12]
 1108 001e 002B     		cmp	r3, #0
 1109 0020 19D1     		bne	.L78
 1110              		.loc 4 486 0
 1111 0022 009B     		ldr	r3, [sp]
 1112 0024 002B     		cmp	r3, #0
 1113 0026 03D1     		bne	.L79
 1114              		.loc 4 487 0
 1115 0028 FFF7FEFF 		bl	chSysUnlock
 1116              		.loc 4 488 0
 1117 002c 0023     		movs	r3, #0
 1118 002e 21E0     		b	.L80
 1119              	.L79:
 1120              		.loc 4 490 0
 1121 0030 029B     		ldr	r3, [sp, #8]
 1122 0032 019A     		ldr	r2, [sp, #4]
 1123 0034 5A62     		str	r2, [r3, #36]
 1124              		.loc 4 491 0
ARM GAS  /tmp/cceWPl9e.s 			page 21


 1125 0036 0A20     		movs	r0, #10
 1126 0038 0099     		ldr	r1, [sp]
 1127 003a FFF7FEFF 		bl	chSchGoSleepTimeoutS
 1128 003e 0346     		mov	r3, r0
 1129 0040 002B     		cmp	r3, #0
 1130 0042 03DA     		bge	.L81
 1131              		.loc 4 492 0
 1132 0044 FFF7FEFF 		bl	chSysUnlock
 1133              		.loc 4 493 0
 1134 0048 0023     		movs	r3, #0
 1135 004a 13E0     		b	.L80
 1136              	.L81:
 1137              		.loc 4 495 0
 1138 004c 029B     		ldr	r3, [sp, #8]
 1139 004e 9A6B     		ldr	r2, [r3, #56]
 1140 0050 019B     		ldr	r3, [sp, #4]
 1141 0052 1340     		ands	r3, r3, r2
 1142 0054 0393     		str	r3, [sp, #12]
 1143              	.L78:
 1144              		.loc 4 497 0
 1145 0056 039B     		ldr	r3, [sp, #12]
 1146 0058 5B42     		negs	r3, r3
 1147 005a 039A     		ldr	r2, [sp, #12]
 1148 005c 1340     		ands	r3, r3, r2
 1149 005e 0393     		str	r3, [sp, #12]
 1150              		.loc 4 498 0
 1151 0060 029B     		ldr	r3, [sp, #8]
 1152 0062 9A6B     		ldr	r2, [r3, #56]
 1153 0064 039B     		ldr	r3, [sp, #12]
 1154 0066 DB43     		mvns	r3, r3
 1155 0068 1A40     		ands	r2, r2, r3
 1156 006a 029B     		ldr	r3, [sp, #8]
 1157 006c 9A63     		str	r2, [r3, #56]
 1158              		.loc 4 499 0
 1159 006e FFF7FEFF 		bl	chSysUnlock
 1160              		.loc 4 501 0
 1161 0072 039B     		ldr	r3, [sp, #12]
 1162              	.L80:
 1163              		.loc 4 502 0
 1164 0074 1846     		mov	r0, r3
 1165 0076 05B0     		add	sp, sp, #20
 1166              		@ sp needed
 1167 0078 5DF804FB 		ldr	pc, [sp], #4
 1168              	.L83:
 1169              		.align	2
 1170              	.L82:
 1171 007c 00000000 		.word	ch
 1172              		.cfi_endproc
 1173              	.LFE254:
 1174              		.size	chEvtWaitOneTimeout, .-chEvtWaitOneTimeout
 1175              		.section	.text.chEvtWaitAnyTimeout,"ax",%progbits
 1176              		.align	2
 1177              		.p2align 4,,15
 1178              		.global	chEvtWaitAnyTimeout
 1179              		.thumb
 1180              		.thumb_func
 1181              		.type	chEvtWaitAnyTimeout, %function
ARM GAS  /tmp/cceWPl9e.s 			page 22


 1182              	chEvtWaitAnyTimeout:
 1183              	.LFB255:
 1184              		.loc 4 522 0
 1185              		.cfi_startproc
 1186              		@ args = 0, pretend = 0, frame = 16
 1187              		@ frame_needed = 0, uses_anonymous_args = 0
 1188 0000 00B5     		push	{lr}
 1189              		.cfi_def_cfa_offset 4
 1190              		.cfi_offset 14, -4
 1191 0002 85B0     		sub	sp, sp, #20
 1192              		.cfi_def_cfa_offset 24
 1193 0004 0190     		str	r0, [sp, #4]
 1194 0006 0091     		str	r1, [sp]
 1195              		.loc 4 523 0
 1196 0008 1A4B     		ldr	r3, .L89
 1197 000a 9B69     		ldr	r3, [r3, #24]
 1198 000c 0293     		str	r3, [sp, #8]
 1199              		.loc 4 526 0
 1200 000e FFF7FEFF 		bl	chSysLock
 1201              		.loc 4 527 0
 1202 0012 029B     		ldr	r3, [sp, #8]
 1203 0014 9A6B     		ldr	r2, [r3, #56]
 1204 0016 019B     		ldr	r3, [sp, #4]
 1205 0018 1340     		ands	r3, r3, r2
 1206 001a 0393     		str	r3, [sp, #12]
 1207              		.loc 4 528 0
 1208 001c 039B     		ldr	r3, [sp, #12]
 1209 001e 002B     		cmp	r3, #0
 1210 0020 19D1     		bne	.L85
 1211              		.loc 4 529 0
 1212 0022 009B     		ldr	r3, [sp]
 1213 0024 002B     		cmp	r3, #0
 1214 0026 03D1     		bne	.L86
 1215              		.loc 4 530 0
 1216 0028 FFF7FEFF 		bl	chSysUnlock
 1217              		.loc 4 531 0
 1218 002c 0023     		movs	r3, #0
 1219 002e 1CE0     		b	.L87
 1220              	.L86:
 1221              		.loc 4 533 0
 1222 0030 029B     		ldr	r3, [sp, #8]
 1223 0032 019A     		ldr	r2, [sp, #4]
 1224 0034 5A62     		str	r2, [r3, #36]
 1225              		.loc 4 534 0
 1226 0036 0A20     		movs	r0, #10
 1227 0038 0099     		ldr	r1, [sp]
 1228 003a FFF7FEFF 		bl	chSchGoSleepTimeoutS
 1229 003e 0346     		mov	r3, r0
 1230 0040 002B     		cmp	r3, #0
 1231 0042 03DA     		bge	.L88
 1232              		.loc 4 535 0
 1233 0044 FFF7FEFF 		bl	chSysUnlock
 1234              		.loc 4 536 0
 1235 0048 0023     		movs	r3, #0
 1236 004a 0EE0     		b	.L87
 1237              	.L88:
 1238              		.loc 4 538 0
ARM GAS  /tmp/cceWPl9e.s 			page 23


 1239 004c 029B     		ldr	r3, [sp, #8]
 1240 004e 9A6B     		ldr	r2, [r3, #56]
 1241 0050 019B     		ldr	r3, [sp, #4]
 1242 0052 1340     		ands	r3, r3, r2
 1243 0054 0393     		str	r3, [sp, #12]
 1244              	.L85:
 1245              		.loc 4 540 0
 1246 0056 029B     		ldr	r3, [sp, #8]
 1247 0058 9A6B     		ldr	r2, [r3, #56]
 1248 005a 039B     		ldr	r3, [sp, #12]
 1249 005c DB43     		mvns	r3, r3
 1250 005e 1A40     		ands	r2, r2, r3
 1251 0060 029B     		ldr	r3, [sp, #8]
 1252 0062 9A63     		str	r2, [r3, #56]
 1253              		.loc 4 541 0
 1254 0064 FFF7FEFF 		bl	chSysUnlock
 1255              		.loc 4 543 0
 1256 0068 039B     		ldr	r3, [sp, #12]
 1257              	.L87:
 1258              		.loc 4 544 0
 1259 006a 1846     		mov	r0, r3
 1260 006c 05B0     		add	sp, sp, #20
 1261              		@ sp needed
 1262 006e 5DF804FB 		ldr	pc, [sp], #4
 1263              	.L90:
 1264 0072 00BF     		.align	2
 1265              	.L89:
 1266 0074 00000000 		.word	ch
 1267              		.cfi_endproc
 1268              	.LFE255:
 1269              		.size	chEvtWaitAnyTimeout, .-chEvtWaitAnyTimeout
 1270 0078 AFF30080 		.section	.text.chEvtWaitAllTimeout,"ax",%progbits
 1270      AFF30080 
 1271              		.align	2
 1272              		.p2align 4,,15
 1273              		.global	chEvtWaitAllTimeout
 1274              		.thumb
 1275              		.thumb_func
 1276              		.type	chEvtWaitAllTimeout, %function
 1277              	chEvtWaitAllTimeout:
 1278              	.LFB256:
 1279              		.loc 4 563 0
 1280              		.cfi_startproc
 1281              		@ args = 0, pretend = 0, frame = 16
 1282              		@ frame_needed = 0, uses_anonymous_args = 0
 1283 0000 00B5     		push	{lr}
 1284              		.cfi_def_cfa_offset 4
 1285              		.cfi_offset 14, -4
 1286 0002 85B0     		sub	sp, sp, #20
 1287              		.cfi_def_cfa_offset 24
 1288 0004 0190     		str	r0, [sp, #4]
 1289 0006 0091     		str	r1, [sp]
 1290              		.loc 4 564 0
 1291 0008 174B     		ldr	r3, .L95
 1292 000a 9B69     		ldr	r3, [r3, #24]
 1293 000c 0393     		str	r3, [sp, #12]
 1294              		.loc 4 566 0
ARM GAS  /tmp/cceWPl9e.s 			page 24


 1295 000e FFF7FEFF 		bl	chSysLock
 1296              		.loc 4 567 0
 1297 0012 039B     		ldr	r3, [sp, #12]
 1298 0014 9A6B     		ldr	r2, [r3, #56]
 1299 0016 019B     		ldr	r3, [sp, #4]
 1300 0018 1A40     		ands	r2, r2, r3
 1301 001a 019B     		ldr	r3, [sp, #4]
 1302 001c 9A42     		cmp	r2, r3
 1303 001e 14D0     		beq	.L92
 1304              		.loc 4 568 0
 1305 0020 009B     		ldr	r3, [sp]
 1306 0022 002B     		cmp	r3, #0
 1307 0024 03D1     		bne	.L93
 1308              		.loc 4 569 0
 1309 0026 FFF7FEFF 		bl	chSysUnlock
 1310              		.loc 4 570 0
 1311 002a 0023     		movs	r3, #0
 1312 002c 17E0     		b	.L94
 1313              	.L93:
 1314              		.loc 4 572 0
 1315 002e 039B     		ldr	r3, [sp, #12]
 1316 0030 019A     		ldr	r2, [sp, #4]
 1317 0032 5A62     		str	r2, [r3, #36]
 1318              		.loc 4 573 0
 1319 0034 0B20     		movs	r0, #11
 1320 0036 0099     		ldr	r1, [sp]
 1321 0038 FFF7FEFF 		bl	chSchGoSleepTimeoutS
 1322 003c 0346     		mov	r3, r0
 1323 003e 002B     		cmp	r3, #0
 1324 0040 03DA     		bge	.L92
 1325              		.loc 4 574 0
 1326 0042 FFF7FEFF 		bl	chSysUnlock
 1327              		.loc 4 575 0
 1328 0046 0023     		movs	r3, #0
 1329 0048 09E0     		b	.L94
 1330              	.L92:
 1331              		.loc 4 578 0
 1332 004a 039B     		ldr	r3, [sp, #12]
 1333 004c 9A6B     		ldr	r2, [r3, #56]
 1334 004e 019B     		ldr	r3, [sp, #4]
 1335 0050 DB43     		mvns	r3, r3
 1336 0052 1A40     		ands	r2, r2, r3
 1337 0054 039B     		ldr	r3, [sp, #12]
 1338 0056 9A63     		str	r2, [r3, #56]
 1339              		.loc 4 579 0
 1340 0058 FFF7FEFF 		bl	chSysUnlock
 1341              		.loc 4 581 0
 1342 005c 019B     		ldr	r3, [sp, #4]
 1343              	.L94:
 1344              		.loc 4 582 0
 1345 005e 1846     		mov	r0, r3
 1346 0060 05B0     		add	sp, sp, #20
 1347              		@ sp needed
 1348 0062 5DF804FB 		ldr	pc, [sp], #4
 1349              	.L96:
 1350 0066 00BF     		.align	2
 1351              	.L95:
ARM GAS  /tmp/cceWPl9e.s 			page 25


 1352 0068 00000000 		.word	ch
 1353              		.cfi_endproc
 1354              	.LFE256:
 1355              		.size	chEvtWaitAllTimeout, .-chEvtWaitAllTimeout
 1356 006c AFF30080 		.section	.rodata.__func__.6623,"a",%progbits
 1357              		.align	2
 1358              		.type	__func__.6623, %object
 1359              		.size	__func__.6623, 27
 1360              	__func__.6623:
 1361 0000 63684576 		.ascii	"chEvtRegisterMaskWithFlags\000"
 1361      74526567 
 1361      69737465 
 1361      724D6173 
 1361      6B576974 
 1362 001b 00       		.section	.rodata.__func__.5925,"a",%progbits
 1363              		.align	2
 1364              		.type	__func__.5925, %object
 1365              		.size	__func__.5925, 12
 1366              	__func__.5925:
 1367 0000 63685379 		.ascii	"chSysUnlock\000"
 1367      73556E6C 
 1367      6F636B00 
 1368              		.section	.rodata.__func__.6629,"a",%progbits
 1369              		.align	2
 1370              		.type	__func__.6629, %object
 1371              		.size	__func__.6629, 16
 1372              	__func__.6629:
 1373 0000 63684576 		.ascii	"chEvtUnregister\000"
 1373      74556E72 
 1373      65676973 
 1373      74657200 
 1374              		.section	.rodata.__func__.6645,"a",%progbits
 1375              		.align	2
 1376              		.type	__func__.6645, %object
 1377              		.size	__func__.6645, 21
 1378              	__func__.6645:
 1379 0000 63684576 		.ascii	"chEvtBroadcastFlagsI\000"
 1379      7442726F 
 1379      61646361 
 1379      7374466C 
 1379      61677349 
 1380 0015 000000   		.section	.rodata.__func__.6657,"a",%progbits
 1381              		.align	2
 1382              		.type	__func__.6657, %object
 1383              		.size	__func__.6657, 12
 1384              	__func__.6657:
 1385 0000 63684576 		.ascii	"chEvtSignal\000"
 1385      74536967 
 1385      6E616C00 
 1386              		.section	.rodata.__func__.6662,"a",%progbits
 1387              		.align	2
 1388              		.type	__func__.6662, %object
 1389              		.size	__func__.6662, 13
 1390              	__func__.6662:
 1391 0000 63684576 		.ascii	"chEvtSignalI\000"
 1391      74536967 
 1391      6E616C49 
ARM GAS  /tmp/cceWPl9e.s 			page 26


 1391      00
 1392 000d 000000   		.section	.rodata.__func__.6676,"a",%progbits
 1393              		.align	2
 1394              		.type	__func__.6676, %object
 1395              		.size	__func__.6676, 14
 1396              	__func__.6676:
 1397 0000 63684576 		.ascii	"chEvtDispatch\000"
 1397      74446973 
 1397      70617463 
 1397      6800
 1398 000e 0000     		.text
 1399              	.Letext0:
 1400              		.file 5 "/usr/include/newlib/machine/_default_types.h"
 1401              		.file 6 "/usr/include/newlib/stdint.h"
 1402              		.file 7 "/home/efe/ChibiOS/os/rt/ports/ARMCMx/compilers/GCC/chtypes.h"
 1403              		.file 8 "/home/efe/ChibiOS/os/rt/include/chsystypes.h"
 1404              		.file 9 "/home/efe/ChibiOS/os/rt/include/chschd.h"
 1405              		.file 10 "/home/efe/ChibiOS/os/rt/ports/ARMCMx/chcore.h"
 1406              		.file 11 "/home/efe/ChibiOS/os/rt/include/chdebug.h"
 1407              		.file 12 "/home/efe/ChibiOS/os/rt/include/chtm.h"
 1408              		.file 13 "/home/efe/ChibiOS/os/rt/include/chstats.h"
 1409              		.file 14 "/home/efe/ChibiOS/os/rt/include/chsem.h"
 1410              		.file 15 "/home/efe/ChibiOS/os/rt/include/chmtx.h"
 1411              		.file 16 "/home/efe/ChibiOS/os/rt/include/chevents.h"
 1412              		.file 17 "/home/efe/ChibiOS/os/ext/CMSIS/include/core_cm4.h"