ARM GAS  /tmp/ccYdJoxU.s 			page 1


   1              		.syntax unified
   2              		.cpu cortex-m4
   3              		.fpu softvfp
   4              		.eabi_attribute 20, 1
   5              		.eabi_attribute 21, 1
   6              		.eabi_attribute 23, 3
   7              		.eabi_attribute 24, 1
   8              		.eabi_attribute 25, 1
   9              		.eabi_attribute 26, 1
  10              		.eabi_attribute 30, 6
  11              		.eabi_attribute 34, 1
  12              		.eabi_attribute 18, 4
  13              		.thumb
  14              		.file	"chheap.c"
  15              		.text
  16              	.Ltext0:
  17              		.cfi_sections	.debug_frame
  18              		.section	.bss.default_heap,"aw",%nobits
  19              		.align	3
  20              		.type	default_heap, %object
  21              		.size	default_heap, 32
  22              	default_heap:
  23 0000 00000000 		.space	32
  23      00000000 
  23      00000000 
  23      00000000 
  23      00000000 
  24              		.section	.text._heap_init,"ax",%progbits
  25              		.align	2
  26              		.p2align 4,,15
  27              		.global	_heap_init
  28              		.thumb
  29              		.thumb_func
  30              		.type	_heap_init, %function
  31              	_heap_init:
  32              	.LFB240:
  33              		.file 1 "/home/efe/ChibiOS/os/rt/src/chheap.c"
  34              		.loc 1 91 0
  35              		.cfi_startproc
  36              		@ args = 0, pretend = 0, frame = 0
  37              		@ frame_needed = 0, uses_anonymous_args = 0
  38 0000 08B5     		push	{r3, lr}
  39              		.cfi_def_cfa_offset 8
  40              		.cfi_offset 3, -8
  41              		.cfi_offset 14, -4
  42              		.loc 1 93 0
  43 0002 064B     		ldr	r3, .L2
  44 0004 064A     		ldr	r2, .L2+4
  45 0006 1A60     		str	r2, [r3]
  46              		.loc 1 94 0
  47 0008 044B     		ldr	r3, .L2
  48 000a 0022     		movs	r2, #0
  49 000c 9A60     		str	r2, [r3, #8]
  50              		.loc 1 95 0
  51 000e 034B     		ldr	r3, .L2
  52 0010 0022     		movs	r2, #0
  53 0012 DA60     		str	r2, [r3, #12]
ARM GAS  /tmp/ccYdJoxU.s 			page 2


  54              		.loc 1 97 0
  55 0014 0348     		ldr	r0, .L2+8
  56 0016 FFF7FEFF 		bl	chMtxObjectInit
  57              		.loc 1 101 0
  58 001a 08BD     		pop	{r3, pc}
  59              	.L3:
  60              		.align	2
  61              	.L2:
  62 001c 00000000 		.word	default_heap
  63 0020 00000000 		.word	chCoreAlloc
  64 0024 10000000 		.word	default_heap+16
  65              		.cfi_endproc
  66              	.LFE240:
  67              		.size	_heap_init, .-_heap_init
  68 0028 AFF30080 		.section	.text.chHeapObjectInit,"ax",%progbits
  68      AFF30080 
  69              		.align	2
  70              		.p2align 4,,15
  71              		.global	chHeapObjectInit
  72              		.thumb
  73              		.thumb_func
  74              		.type	chHeapObjectInit, %function
  75              	chHeapObjectInit:
  76              	.LFB241:
  77              		.loc 1 114 0
  78              		.cfi_startproc
  79              		@ args = 0, pretend = 0, frame = 24
  80              		@ frame_needed = 0, uses_anonymous_args = 0
  81 0000 00B5     		push	{lr}
  82              		.cfi_def_cfa_offset 4
  83              		.cfi_offset 14, -4
  84 0002 87B0     		sub	sp, sp, #28
  85              		.cfi_def_cfa_offset 32
  86 0004 0390     		str	r0, [sp, #12]
  87 0006 0291     		str	r1, [sp, #8]
  88 0008 0192     		str	r2, [sp, #4]
  89              		.loc 1 115 0
  90 000a 029B     		ldr	r3, [sp, #8]
  91 000c 0593     		str	r3, [sp, #20]
  92              		.loc 1 117 0
  93 000e 029B     		ldr	r3, [sp, #8]
  94 0010 03F00703 		and	r3, r3, #7
  95 0014 002B     		cmp	r3, #0
  96 0016 04D1     		bne	.L5
  97              		.loc 1 117 0 is_stmt 0 discriminator 2
  98 0018 019B     		ldr	r3, [sp, #4]
  99 001a 03F00703 		and	r3, r3, #7
 100 001e 002B     		cmp	r3, #0
 101 0020 02D0     		beq	.L6
 102              	.L5:
 103              		.loc 1 117 0 discriminator 1
 104 0022 0E48     		ldr	r0, .L7
 105 0024 FFF7FEFF 		bl	chSysHalt
 106              	.L6:
 107              		.loc 1 119 0 is_stmt 1
 108 0028 039B     		ldr	r3, [sp, #12]
 109 002a 0022     		movs	r2, #0
ARM GAS  /tmp/ccYdJoxU.s 			page 3


 110 002c 1A60     		str	r2, [r3]
 111              		.loc 1 120 0
 112 002e 039B     		ldr	r3, [sp, #12]
 113 0030 059A     		ldr	r2, [sp, #20]
 114 0032 9A60     		str	r2, [r3, #8]
 115              		.loc 1 121 0
 116 0034 039B     		ldr	r3, [sp, #12]
 117 0036 0022     		movs	r2, #0
 118 0038 DA60     		str	r2, [r3, #12]
 119              		.loc 1 122 0
 120 003a 059B     		ldr	r3, [sp, #20]
 121 003c 0022     		movs	r2, #0
 122 003e 1A60     		str	r2, [r3]
 123              		.loc 1 123 0
 124 0040 019B     		ldr	r3, [sp, #4]
 125 0042 A3F10802 		sub	r2, r3, #8
 126 0046 059B     		ldr	r3, [sp, #20]
 127 0048 5A60     		str	r2, [r3, #4]
 128              		.loc 1 125 0
 129 004a 039B     		ldr	r3, [sp, #12]
 130 004c 1033     		adds	r3, r3, #16
 131 004e 1846     		mov	r0, r3
 132 0050 FFF7FEFF 		bl	chMtxObjectInit
 133              		.loc 1 129 0
 134 0054 07B0     		add	sp, sp, #28
 135              		@ sp needed
 136 0056 5DF804FB 		ldr	pc, [sp], #4
 137              	.L8:
 138 005a 00BF     		.align	2
 139              	.L7:
 140 005c 00000000 		.word	__func__.6627
 141              		.cfi_endproc
 142              	.LFE241:
 143              		.size	chHeapObjectInit, .-chHeapObjectInit
 144              		.section	.text.chHeapAlloc,"ax",%progbits
 145              		.align	2
 146              		.p2align 4,,15
 147              		.global	chHeapAlloc
 148              		.thumb
 149              		.thumb_func
 150              		.type	chHeapAlloc, %function
 151              	chHeapAlloc:
 152              	.LFB242:
 153              		.loc 1 147 0
 154              		.cfi_startproc
 155              		@ args = 0, pretend = 0, frame = 24
 156              		@ frame_needed = 0, uses_anonymous_args = 0
 157 0000 00B5     		push	{lr}
 158              		.cfi_def_cfa_offset 4
 159              		.cfi_offset 14, -4
 160 0002 87B0     		sub	sp, sp, #28
 161              		.cfi_def_cfa_offset 32
 162 0004 0190     		str	r0, [sp, #4]
 163 0006 0091     		str	r1, [sp]
 164              		.loc 1 150 0
 165 0008 019B     		ldr	r3, [sp, #4]
 166 000a 002B     		cmp	r3, #0
ARM GAS  /tmp/ccYdJoxU.s 			page 4


 167 000c 01D1     		bne	.L10
 168              		.loc 1 151 0
 169 000e 374B     		ldr	r3, .L18
 170 0010 0193     		str	r3, [sp, #4]
 171              	.L10:
 172              		.loc 1 154 0
 173 0012 009B     		ldr	r3, [sp]
 174 0014 0733     		adds	r3, r3, #7
 175 0016 23F00703 		bic	r3, r3, #7
 176 001a 0093     		str	r3, [sp]
 177              		.loc 1 155 0
 178 001c 019B     		ldr	r3, [sp, #4]
 179 001e 0833     		adds	r3, r3, #8
 180 0020 0593     		str	r3, [sp, #20]
 181              		.loc 1 157 0
 182 0022 019B     		ldr	r3, [sp, #4]
 183 0024 1033     		adds	r3, r3, #16
 184 0026 1846     		mov	r0, r3
 185 0028 FFF7FEFF 		bl	chMtxLock
 186              		.loc 1 158 0
 187 002c 36E0     		b	.L11
 188              	.L16:
 189              		.loc 1 159 0
 190 002e 059B     		ldr	r3, [sp, #20]
 191 0030 1B68     		ldr	r3, [r3]
 192 0032 0493     		str	r3, [sp, #16]
 193              		.loc 1 160 0
 194 0034 049B     		ldr	r3, [sp, #16]
 195 0036 5A68     		ldr	r2, [r3, #4]
 196 0038 009B     		ldr	r3, [sp]
 197 003a 9A42     		cmp	r2, r3
 198 003c 2CD3     		bcc	.L12
 199              		.loc 1 161 0
 200 003e 049B     		ldr	r3, [sp, #16]
 201 0040 5A68     		ldr	r2, [r3, #4]
 202 0042 009B     		ldr	r3, [sp]
 203 0044 0833     		adds	r3, r3, #8
 204 0046 9A42     		cmp	r2, r3
 205 0048 04D2     		bcs	.L13
 206              		.loc 1 165 0
 207 004a 049B     		ldr	r3, [sp, #16]
 208 004c 1A68     		ldr	r2, [r3]
 209 004e 059B     		ldr	r3, [sp, #20]
 210 0050 1A60     		str	r2, [r3]
 211 0052 16E0     		b	.L14
 212              	.L13:
 213              		.loc 1 170 0
 214 0054 009B     		ldr	r3, [sp]
 215 0056 0833     		adds	r3, r3, #8
 216 0058 049A     		ldr	r2, [sp, #16]
 217 005a 1344     		add	r3, r3, r2
 218 005c 0393     		str	r3, [sp, #12]
 219              		.loc 1 172 0
 220 005e 049B     		ldr	r3, [sp, #16]
 221 0060 1A68     		ldr	r2, [r3]
 222 0062 039B     		ldr	r3, [sp, #12]
 223 0064 1A60     		str	r2, [r3]
ARM GAS  /tmp/ccYdJoxU.s 			page 5


 224              		.loc 1 173 0
 225 0066 049B     		ldr	r3, [sp, #16]
 226 0068 5A68     		ldr	r2, [r3, #4]
 227 006a 009B     		ldr	r3, [sp]
 228 006c D31A     		subs	r3, r2, r3
 229 006e A3F10802 		sub	r2, r3, #8
 230 0072 039B     		ldr	r3, [sp, #12]
 231 0074 5A60     		str	r2, [r3, #4]
 232              		.loc 1 174 0
 233 0076 059B     		ldr	r3, [sp, #20]
 234 0078 039A     		ldr	r2, [sp, #12]
 235 007a 1A60     		str	r2, [r3]
 236              		.loc 1 175 0
 237 007c 049B     		ldr	r3, [sp, #16]
 238 007e 009A     		ldr	r2, [sp]
 239 0080 5A60     		str	r2, [r3, #4]
 240              	.L14:
 241              		.loc 1 177 0
 242 0082 049B     		ldr	r3, [sp, #16]
 243 0084 019A     		ldr	r2, [sp, #4]
 244 0086 1A60     		str	r2, [r3]
 245              		.loc 1 178 0
 246 0088 019B     		ldr	r3, [sp, #4]
 247 008a 1033     		adds	r3, r3, #16
 248 008c 1846     		mov	r0, r3
 249 008e FFF7FEFF 		bl	chMtxUnlock
 250              		.loc 1 181 0
 251 0092 049B     		ldr	r3, [sp, #16]
 252 0094 0833     		adds	r3, r3, #8
 253 0096 24E0     		b	.L15
 254              	.L12:
 255              		.loc 1 184 0
 256 0098 049B     		ldr	r3, [sp, #16]
 257 009a 0593     		str	r3, [sp, #20]
 258              	.L11:
 259              		.loc 1 158 0 discriminator 1
 260 009c 059B     		ldr	r3, [sp, #20]
 261 009e 1B68     		ldr	r3, [r3]
 262 00a0 002B     		cmp	r3, #0
 263 00a2 C4D1     		bne	.L16
 264              		.loc 1 186 0
 265 00a4 019B     		ldr	r3, [sp, #4]
 266 00a6 1033     		adds	r3, r3, #16
 267 00a8 1846     		mov	r0, r3
 268 00aa FFF7FEFF 		bl	chMtxUnlock
 269              		.loc 1 190 0
 270 00ae 019B     		ldr	r3, [sp, #4]
 271 00b0 1B68     		ldr	r3, [r3]
 272 00b2 002B     		cmp	r3, #0
 273 00b4 14D0     		beq	.L17
 274              		.loc 1 191 0
 275 00b6 019B     		ldr	r3, [sp, #4]
 276 00b8 1B68     		ldr	r3, [r3]
 277 00ba 009A     		ldr	r2, [sp]
 278 00bc 0832     		adds	r2, r2, #8
 279 00be 1046     		mov	r0, r2
 280 00c0 9847     		blx	r3
ARM GAS  /tmp/ccYdJoxU.s 			page 6


 281 00c2 0490     		str	r0, [sp, #16]
 282              		.loc 1 192 0
 283 00c4 049B     		ldr	r3, [sp, #16]
 284 00c6 002B     		cmp	r3, #0
 285 00c8 0AD0     		beq	.L17
 286              		.loc 1 193 0
 287 00ca 049B     		ldr	r3, [sp, #16]
 288 00cc 019A     		ldr	r2, [sp, #4]
 289 00ce 1A60     		str	r2, [r3]
 290              		.loc 1 194 0
 291 00d0 049B     		ldr	r3, [sp, #16]
 292 00d2 009A     		ldr	r2, [sp]
 293 00d4 5A60     		str	r2, [r3, #4]
 294              		.loc 1 195 0
 295 00d6 049B     		ldr	r3, [sp, #16]
 296 00d8 0833     		adds	r3, r3, #8
 297 00da 0493     		str	r3, [sp, #16]
 298              		.loc 1 198 0
 299 00dc 049B     		ldr	r3, [sp, #16]
 300 00de 00E0     		b	.L15
 301              	.L17:
 302              		.loc 1 203 0
 303 00e0 0023     		movs	r3, #0
 304              	.L15:
 305              		.loc 1 204 0
 306 00e2 1846     		mov	r0, r3
 307 00e4 07B0     		add	sp, sp, #28
 308              		@ sp needed
 309 00e6 5DF804FB 		ldr	pc, [sp], #4
 310              	.L19:
 311 00ea 00BF     		.align	2
 312              	.L18:
 313 00ec 00000000 		.word	default_heap
 314              		.cfi_endproc
 315              	.LFE242:
 316              		.size	chHeapAlloc, .-chHeapAlloc
 317              		.section	.text.chHeapFree,"ax",%progbits
 318              		.align	2
 319              		.p2align 4,,15
 320              		.global	chHeapFree
 321              		.thumb
 322              		.thumb_func
 323              		.type	chHeapFree, %function
 324              	chHeapFree:
 325              	.LFB243:
 326              		.loc 1 213 0
 327              		.cfi_startproc
 328              		@ args = 0, pretend = 0, frame = 24
 329              		@ frame_needed = 0, uses_anonymous_args = 0
 330 0000 00B5     		push	{lr}
 331              		.cfi_def_cfa_offset 4
 332              		.cfi_offset 14, -4
 333 0002 87B0     		sub	sp, sp, #28
 334              		.cfi_def_cfa_offset 32
 335 0004 0190     		str	r0, [sp, #4]
 336              		.loc 1 217 0
 337 0006 019B     		ldr	r3, [sp, #4]
ARM GAS  /tmp/ccYdJoxU.s 			page 7


 338 0008 002B     		cmp	r3, #0
 339 000a 02D1     		bne	.L21
 340              		.loc 1 217 0 is_stmt 0 discriminator 1
 341 000c 3A48     		ldr	r0, .L31
 342 000e FFF7FEFF 		bl	chSysHalt
 343              	.L21:
 344              		.loc 1 220 0 is_stmt 1
 345 0012 019B     		ldr	r3, [sp, #4]
 346 0014 083B     		subs	r3, r3, #8
 347 0016 0493     		str	r3, [sp, #16]
 348              		.loc 1 222 0
 349 0018 049B     		ldr	r3, [sp, #16]
 350 001a 1B68     		ldr	r3, [r3]
 351 001c 0393     		str	r3, [sp, #12]
 352              		.loc 1 223 0
 353 001e 039B     		ldr	r3, [sp, #12]
 354 0020 0833     		adds	r3, r3, #8
 355 0022 0593     		str	r3, [sp, #20]
 356              		.loc 1 225 0
 357 0024 039B     		ldr	r3, [sp, #12]
 358 0026 1033     		adds	r3, r3, #16
 359 0028 1846     		mov	r0, r3
 360 002a FFF7FEFF 		bl	chMtxLock
 361              	.L29:
 362              		.loc 1 227 0
 363 002e 049A     		ldr	r2, [sp, #16]
 364 0030 059B     		ldr	r3, [sp, #20]
 365 0032 9A42     		cmp	r2, r3
 366 0034 0AD3     		bcc	.L22
 367              		.loc 1 227 0 is_stmt 0 discriminator 1
 368 0036 059B     		ldr	r3, [sp, #20]
 369 0038 5B68     		ldr	r3, [r3, #4]
 370 003a 0833     		adds	r3, r3, #8
 371 003c 059A     		ldr	r2, [sp, #20]
 372 003e 1A44     		add	r2, r2, r3
 373 0040 049B     		ldr	r3, [sp, #16]
 374 0042 9A42     		cmp	r2, r3
 375 0044 02D9     		bls	.L22
 376 0046 2C48     		ldr	r0, .L31
 377 0048 FFF7FEFF 		bl	chSysHalt
 378              	.L22:
 379              		.loc 1 229 0 is_stmt 1
 380 004c 039B     		ldr	r3, [sp, #12]
 381 004e 03F10802 		add	r2, r3, #8
 382 0052 059B     		ldr	r3, [sp, #20]
 383 0054 9A42     		cmp	r2, r3
 384 0056 03D0     		beq	.L23
 385              		.loc 1 229 0 is_stmt 0 discriminator 2
 386 0058 049A     		ldr	r2, [sp, #16]
 387 005a 059B     		ldr	r3, [sp, #20]
 388 005c 9A42     		cmp	r2, r3
 389 005e 3ED9     		bls	.L24
 390              	.L23:
 391              		.loc 1 230 0 is_stmt 1 discriminator 1
 392 0060 059B     		ldr	r3, [sp, #20]
 393 0062 1B68     		ldr	r3, [r3]
 394              		.loc 1 229 0 discriminator 1
ARM GAS  /tmp/ccYdJoxU.s 			page 8


 395 0064 002B     		cmp	r3, #0
 396 0066 04D0     		beq	.L25
 397              		.loc 1 230 0
 398 0068 059B     		ldr	r3, [sp, #20]
 399 006a 1A68     		ldr	r2, [r3]
 400 006c 049B     		ldr	r3, [sp, #16]
 401 006e 9A42     		cmp	r2, r3
 402 0070 35D9     		bls	.L24
 403              	.L25:
 404              		.loc 1 232 0
 405 0072 059B     		ldr	r3, [sp, #20]
 406 0074 1A68     		ldr	r2, [r3]
 407 0076 049B     		ldr	r3, [sp, #16]
 408 0078 1A60     		str	r2, [r3]
 409              		.loc 1 233 0
 410 007a 059B     		ldr	r3, [sp, #20]
 411 007c 049A     		ldr	r2, [sp, #16]
 412 007e 1A60     		str	r2, [r3]
 413              		.loc 1 235 0
 414 0080 049B     		ldr	r3, [sp, #16]
 415 0082 5B68     		ldr	r3, [r3, #4]
 416 0084 0833     		adds	r3, r3, #8
 417 0086 049A     		ldr	r2, [sp, #16]
 418 0088 1A44     		add	r2, r2, r3
 419 008a 049B     		ldr	r3, [sp, #16]
 420 008c 1B68     		ldr	r3, [r3]
 421 008e 9A42     		cmp	r2, r3
 422 0090 0ED1     		bne	.L26
 423              		.loc 1 237 0
 424 0092 049B     		ldr	r3, [sp, #16]
 425 0094 5A68     		ldr	r2, [r3, #4]
 426 0096 049B     		ldr	r3, [sp, #16]
 427 0098 1B68     		ldr	r3, [r3]
 428 009a 5B68     		ldr	r3, [r3, #4]
 429 009c 1344     		add	r3, r3, r2
 430 009e 03F10802 		add	r2, r3, #8
 431 00a2 049B     		ldr	r3, [sp, #16]
 432 00a4 5A60     		str	r2, [r3, #4]
 433              		.loc 1 238 0
 434 00a6 049B     		ldr	r3, [sp, #16]
 435 00a8 1B68     		ldr	r3, [r3]
 436 00aa 1A68     		ldr	r2, [r3]
 437 00ac 049B     		ldr	r3, [sp, #16]
 438 00ae 1A60     		str	r2, [r3]
 439              	.L26:
 440              		.loc 1 240 0
 441 00b0 059B     		ldr	r3, [sp, #20]
 442 00b2 5B68     		ldr	r3, [r3, #4]
 443 00b4 0833     		adds	r3, r3, #8
 444 00b6 059A     		ldr	r2, [sp, #20]
 445 00b8 1A44     		add	r2, r2, r3
 446 00ba 049B     		ldr	r3, [sp, #16]
 447 00bc 9A42     		cmp	r2, r3
 448 00be 0DD1     		bne	.L27
 449              		.loc 1 242 0
 450 00c0 059B     		ldr	r3, [sp, #20]
 451 00c2 5A68     		ldr	r2, [r3, #4]
ARM GAS  /tmp/ccYdJoxU.s 			page 9


 452 00c4 049B     		ldr	r3, [sp, #16]
 453 00c6 5B68     		ldr	r3, [r3, #4]
 454 00c8 1344     		add	r3, r3, r2
 455 00ca 03F10802 		add	r2, r3, #8
 456 00ce 059B     		ldr	r3, [sp, #20]
 457 00d0 5A60     		str	r2, [r3, #4]
 458              		.loc 1 243 0
 459 00d2 049B     		ldr	r3, [sp, #16]
 460 00d4 1A68     		ldr	r2, [r3]
 461 00d6 059B     		ldr	r3, [sp, #20]
 462 00d8 1A60     		str	r2, [r3]
 463              		.loc 1 245 0
 464 00da 04E0     		b	.L28
 465              	.L27:
 466 00dc 03E0     		b	.L28
 467              	.L24:
 468              		.loc 1 247 0
 469 00de 059B     		ldr	r3, [sp, #20]
 470 00e0 1B68     		ldr	r3, [r3]
 471 00e2 0593     		str	r3, [sp, #20]
 472              		.loc 1 248 0
 473 00e4 A3E7     		b	.L29
 474              	.L28:
 475              		.loc 1 249 0
 476 00e6 039B     		ldr	r3, [sp, #12]
 477 00e8 1033     		adds	r3, r3, #16
 478 00ea 1846     		mov	r0, r3
 479 00ec FFF7FEFF 		bl	chMtxUnlock
 480              		.loc 1 251 0
 481 00f0 00BF     		nop
 482              		.loc 1 252 0
 483 00f2 07B0     		add	sp, sp, #28
 484              		@ sp needed
 485 00f4 5DF804FB 		ldr	pc, [sp], #4
 486              	.L32:
 487              		.align	2
 488              	.L31:
 489 00f8 00000000 		.word	__func__.6644
 490              		.cfi_endproc
 491              	.LFE243:
 492              		.size	chHeapFree, .-chHeapFree
 493 00fc AFF30080 		.section	.text.chHeapStatus,"ax",%progbits
 494              		.align	2
 495              		.p2align 4,,15
 496              		.global	chHeapStatus
 497              		.thumb
 498              		.thumb_func
 499              		.type	chHeapStatus, %function
 500              	chHeapStatus:
 501              	.LFB244:
 502              		.loc 1 267 0
 503              		.cfi_startproc
 504              		@ args = 0, pretend = 0, frame = 24
 505              		@ frame_needed = 0, uses_anonymous_args = 0
 506 0000 00B5     		push	{lr}
 507              		.cfi_def_cfa_offset 4
 508              		.cfi_offset 14, -4
ARM GAS  /tmp/ccYdJoxU.s 			page 10


 509 0002 87B0     		sub	sp, sp, #28
 510              		.cfi_def_cfa_offset 32
 511 0004 0190     		str	r0, [sp, #4]
 512 0006 0091     		str	r1, [sp]
 513              		.loc 1 271 0
 514 0008 019B     		ldr	r3, [sp, #4]
 515 000a 002B     		cmp	r3, #0
 516 000c 01D1     		bne	.L34
 517              		.loc 1 272 0
 518 000e 174B     		ldr	r3, .L39
 519 0010 0193     		str	r3, [sp, #4]
 520              	.L34:
 521              		.loc 1 275 0
 522 0012 019B     		ldr	r3, [sp, #4]
 523 0014 1033     		adds	r3, r3, #16
 524 0016 1846     		mov	r0, r3
 525 0018 FFF7FEFF 		bl	chMtxLock
 526              		.loc 1 276 0
 527 001c 0023     		movs	r3, #0
 528 001e 0393     		str	r3, [sp, #12]
 529              		.loc 1 277 0
 530 0020 0023     		movs	r3, #0
 531 0022 0493     		str	r3, [sp, #16]
 532              		.loc 1 278 0
 533 0024 019B     		ldr	r3, [sp, #4]
 534 0026 0833     		adds	r3, r3, #8
 535 0028 0593     		str	r3, [sp, #20]
 536              		.loc 1 279 0
 537 002a 0BE0     		b	.L35
 538              	.L36:
 539              		.loc 1 280 0
 540 002c 059B     		ldr	r3, [sp, #20]
 541 002e 1B68     		ldr	r3, [r3]
 542 0030 5B68     		ldr	r3, [r3, #4]
 543 0032 039A     		ldr	r2, [sp, #12]
 544 0034 1344     		add	r3, r3, r2
 545 0036 0393     		str	r3, [sp, #12]
 546              		.loc 1 281 0
 547 0038 049B     		ldr	r3, [sp, #16]
 548 003a 0133     		adds	r3, r3, #1
 549 003c 0493     		str	r3, [sp, #16]
 550              		.loc 1 282 0
 551 003e 059B     		ldr	r3, [sp, #20]
 552 0040 1B68     		ldr	r3, [r3]
 553 0042 0593     		str	r3, [sp, #20]
 554              	.L35:
 555              		.loc 1 279 0 discriminator 1
 556 0044 059B     		ldr	r3, [sp, #20]
 557 0046 1B68     		ldr	r3, [r3]
 558 0048 002B     		cmp	r3, #0
 559 004a EFD1     		bne	.L36
 560              		.loc 1 284 0
 561 004c 009B     		ldr	r3, [sp]
 562 004e 002B     		cmp	r3, #0
 563 0050 02D0     		beq	.L37
 564              		.loc 1 285 0
 565 0052 009B     		ldr	r3, [sp]
ARM GAS  /tmp/ccYdJoxU.s 			page 11


 566 0054 039A     		ldr	r2, [sp, #12]
 567 0056 1A60     		str	r2, [r3]
 568              	.L37:
 569              		.loc 1 287 0
 570 0058 019B     		ldr	r3, [sp, #4]
 571 005a 1033     		adds	r3, r3, #16
 572 005c 1846     		mov	r0, r3
 573 005e FFF7FEFF 		bl	chMtxUnlock
 574              		.loc 1 289 0
 575 0062 049B     		ldr	r3, [sp, #16]
 576              		.loc 1 290 0
 577 0064 1846     		mov	r0, r3
 578 0066 07B0     		add	sp, sp, #28
 579              		@ sp needed
 580 0068 5DF804FB 		ldr	pc, [sp], #4
 581              	.L40:
 582              		.align	2
 583              	.L39:
 584 006c 00000000 		.word	default_heap
 585              		.cfi_endproc
 586              	.LFE244:
 587              		.size	chHeapStatus, .-chHeapStatus
 588              		.section	.rodata.__func__.6627,"a",%progbits
 589              		.align	2
 590              		.type	__func__.6627, %object
 591              		.size	__func__.6627, 17
 592              	__func__.6627:
 593 0000 63684865 		.ascii	"chHeapObjectInit\000"
 593      61704F62 
 593      6A656374 
 593      496E6974 
 593      00
 594 0011 000000   		.section	.rodata.__func__.6644,"a",%progbits
 595              		.align	2
 596              		.type	__func__.6644, %object
 597              		.size	__func__.6644, 11
 598              	__func__.6644:
 599 0000 63684865 		.ascii	"chHeapFree\000"
 599      61704672 
 599      656500
 600 000b 00       		.text
 601              	.Letext0:
 602              		.file 2 "/usr/lib/gcc/arm-none-eabi/4.8/include/stddef.h"
 603              		.file 3 "/usr/include/newlib/machine/_default_types.h"
 604              		.file 4 "/usr/include/newlib/stdint.h"
 605              		.file 5 "/home/efe/ChibiOS/os/rt/ports/ARMCMx/compilers/GCC/chtypes.h"
 606              		.file 6 "/home/efe/ChibiOS/os/rt/include/chsystypes.h"
 607              		.file 7 "/home/efe/ChibiOS/os/rt/include/chschd.h"
 608              		.file 8 "/home/efe/ChibiOS/os/rt/ports/ARMCMx/chcore.h"
 609              		.file 9 "/home/efe/ChibiOS/os/rt/ports/ARMCMx/chcore_v7m.h"
 610              		.file 10 "/home/efe/ChibiOS/os/rt/include/chdebug.h"
 611              		.file 11 "/home/efe/ChibiOS/os/rt/include/chtm.h"
 612              		.file 12 "/home/efe/ChibiOS/os/rt/include/chstats.h"
 613              		.file 13 "/home/efe/ChibiOS/os/rt/include/chsem.h"
 614              		.file 14 "/home/efe/ChibiOS/os/rt/include/chmtx.h"
 615              		.file 15 "/home/efe/ChibiOS/os/rt/include/chmemcore.h"
 616              		.file 16 "/home/efe/ChibiOS/os/rt/include/chheap.h"
ARM GAS  /tmp/ccYdJoxU.s 			page 12


 617              		.file 17 "/home/efe/ChibiOS/os/ext/CMSIS/include/core_cm4.h"