ARM GAS  /tmp/ccYdJoxU.s 			page 1


   1              		.syntax unified
   2              		.cpu cortex-m4
   3              		.fpu softvfp
   4              		.eabi_attribute 20, 1
   5              		.eabi_attribute 21, 1
   6              		.eabi_attribute 23, 3
   7              		.eabi_attribute 24, 1
   8              		.eabi_attribute 25, 1
   9              		.eabi_attribute 26, 1
  10              		.eabi_attribute 30, 6
  11              		.eabi_attribute 34, 1
  12              		.eabi_attribute 18, 4
  13              		.thumb
  14              		.file	"chheap.c"
  15              		.text
  16              	.Ltext0:
  17              		.cfi_sections	.debug_frame
  18              		.section	.bss.default_heap,"aw",%nobits
  19              		.align	3
  20              		.type	default_heap, %object
  21              		.size	default_heap, 32
  22              	default_heap:
  23 0000 00000000 		.space	32
  23      00000000 
  23      00000000 
  23      00000000 
  23      00000000 
  24              		.section	.text._heap_init,"ax",%progbits
  25              		.align	2
  26              		.p2align 4,,15
  27              		.global	_heap_init
  28              		.thumb
  29              		.thumb_func
  30              		.type	_heap_init, %function
  31              	_heap_init:
  32              	.LFB240:
  33              		.file 1 "/home/efe/ChibiOS/os/rt/src/chheap.c"
  34              		.loc 1 91 0
  35              		.cfi_startproc
  36              		@ args = 0, pretend = 0, frame = 0
  37              		@ frame_needed = 0, uses_anonymous_args = 0
  38 0000 08B5     		push	{r3, lr}
  39              		.cfi_def_cfa_offset 8
  40              		.cfi_offset 3, -8
  41              		.cfi_offset 14, -4
  42              		.loc 1 93 0
  43 0002 064B     		ldr	r3, .L2
  44 0004 064A     		ldr	r2, .L2+4
  45 0006 1A60     		str	r2, [r3]
  46              		.loc 1 94 0
  47 0008 044B     		ldr	r3, .L2
  48 000a 0022     		movs	r2, #0
  49 000c 9A60     		str	r2, [r3, #8]
  50              		.loc 1 95 0
  51 000e 034B     		ldr	r3, .L2
  52 0010 0022     		movs	r2, #0
  53 0012 DA60     		str	r2, [r3, #12]
ARM GAS  /tmp/ccYdJoxU.s 			page 2


  54              		.loc 1 97 0
  55 0014 0348     		ldr	r0, .L2+8
  56 0016 FFF7FEFF 		bl	chMtxObjectInit
  57              		.loc 1 101 0
  58 001a 08BD     		pop	{r3, pc}
  59              	.L3:
  60              		.align	2
  61              	.L2:
  62 001c 00000000 		.word	default_heap
  63 0020 00000000 		.word	chCoreAlloc
  64 0024 10000000 		.word	default_heap+16
  65              		.cfi_endproc
  66              	.LFE240:
  67              		.size	_heap_init, .-_heap_init
  68 0028 AFF30080 		.section	.text.chHeapObjectInit,"ax",%progbits
  68      AFF30080 
  69              		.align	2
  70              		.p2align 4,,15
  71              		.global	chHeapObjectInit
  72              		.thumb
  73              		.thumb_func
  74              		.type	chHeapObjectInit, %function
  75              	chHeapObjectInit:
  76              	.LFB241:
  77              		.loc 1 114 0
  78              		.cfi_startproc
  79              		@ args = 0, pretend = 0, frame = 24
  80              		@ frame_needed = 0, uses_anonymous_args = 0
  81 0000 00B5     		push	{lr}
  82              		.cfi_def_cfa_offset 4
  83              		.cfi_offset 14, -4
  84 0002 87B0     		sub	sp, sp, #28
  85              		.cfi_def_cfa_offset 32
  86 0004 0390     		str	r0, [sp, #12]
  87 0006 0291     		str	r1, [sp, #8]
  88 0008 0192     		str	r2, [sp, #4]
  89              		.loc 1 115 0
  90 000a 029B     		ldr	r3, [sp, #8]
  91 000c 0593     		str	r3, [sp, #20]
  92              		.loc 1 117 0
  93 000e 029B     		ldr	r3, [sp, #8]
  94 0010 03F00703 		and	r3, r3, #7
  95 0014 002B     		cmp	r3, #0
  96 0016 04D1     		bne	.L5
  97              		.loc 1 117 0 is_stmt 0 discriminator 2
  98 0018 019B     		ldr	r3, [sp, #4]
  99 001a 03F00703 		and	r3, r3, #7
 100 001e 002B     		cmp	r3, #0
 101 0020 02D0     		beq	.L6
 102              	.L5:
 103              		.loc 1 117 0 discriminator 1
 104 0022 0E48     		ldr	r0, .L7
 105 0024 FFF7FEFF 		bl	chSysHalt
 106              	.L6:
 107              		.loc 1 119 0 is_stmt 1
 108 0028 039B     		ldr	r3, [sp, #12]
 109 002a 0022     		movs	r2, #0
ARM GAS  /tmp/ccYdJoxU.s 			page 3


 110 002c 1A60     		str	r2, [r3]
 111              		.loc 1 120 0
 112 002e 039B     		ldr	r3, [sp, #12]
 113 0030 059A     		ldr	r2, [sp, #20]
 114 0032 9A60     		str	r2, [r3, #8]
 115              		.loc 1 121 0
 116 0034 039B     		ldr	r3, [sp, #12]
 117 0036 0022     		movs	r2, #0
 118 0038 DA60     		str	r2, [r3, #12]
 119              		.loc 1 122 0
 120 003a 059B     		ldr	r3, [sp, #20]
 121 003c 0022     		movs	r2, #0
 122 003e 1A60     		str	r2, [r3]
 123              		.loc 1 123 0
 124 0040 019B     		ldr	r3, [sp, #4]
 125 0042 A3F10802 		sub	r2, r3, #8
 126 0046 059B     		ldr	r3, [sp, #20]
 127 0048 5A60     		str	r2, [r3, #4]
 128              		.loc 1 125 0
 129 004a 039B     		ldr	r3, [sp, #12]
 130 004c 1033     		adds	r3, r3, #16
 131 004e 1846     		mov	r0, r3
 132 0050 FFF7FEFF 		bl	chMtxObjectInit
 133              		.loc 1 129 0
 134 0054 07B0     		add	sp, sp, #28
 135              		@ sp needed
 136 0056 5DF804FB 		ldr	pc, [sp], #4
 137              	.L8:
 138 005a 00BF     		.align	2
 139              	.L7:
 140 005c 00000000 		.word	__func__.6627
 141              		.cfi_endproc
 142              	.LFE241:
 143              		.size	chHeapObjectInit, .-chHeapObjectInit
 144              		.section	.text.chHeapAlloc,"ax",%progbits
 145              		.align	2
 146              		.p2align 4,,15
 147              		.global	chHeapAlloc
 148              		.thumb
 149              		.thumb_func
 150              		.type	chHeapAlloc, %function
 151              	chHeapAlloc:
 152              	.LFB242:
 153              		.loc 1 147 0
 154              		.cfi_startproc
 155              		@ args = 0, pretend = 0, frame = 24
 156              		@ frame_needed = 0, uses_anonymous_args = 0
 157 0000 00B5     		push	{lr}
 158              		.cfi_def_cfa_offset 4
 159              		.cfi_offset 14, -4
 160 0002 87B0     		sub	sp, sp, #28
 161              		.cfi_def_cfa_offset 32
 162 0004 0190     		str	r0, [sp, #4]
 163 0006 0091     		str	r1, [sp]
 164              		.loc 1 150 0
 165 0008 019B     		ldr	r3, [sp, #4]
 166 000a 002B     		cmp	r3, #0
ARM GAS  /tmp/ccYdJoxU.s 			page 4


 167 000c 01D1     		bne	.L10
 168              		.loc 1 151 0
 169 000e 374B     		ldr	r3, .L18
 170 0010 0193     		str	r3, [sp, #4]
 171              	.L10:
 172              		.loc 1 154 0
 173 0012 009B     		ldr	r3, [sp]
 174 0014 0733     		adds	r3, r3, #7
 175 0016 23F00703 		bic	r3, r3, #7
 176 001a 0093     		str	r3, [sp]
 177              		.loc 1 155 0
 178 001c 019B     		ldr	r3, [sp, #4]
 179 001e 0833     		adds	r3, r3, #8
 180 0020 0593     		str	r3, [sp, #20]
 181              		.loc 1 157 0
 182 0022 019B     		ldr	r3, [sp, #4]
 183 0024 1033     		adds	r3, r3, #16
 184 0026 1846     		mov	r0, r3
 185 0028 FFF7FEFF 		bl	chMtxLock
 186              		.loc 1 158 0
 187 002c 36E0     		b	.L11
 188              	.L16:
 189              		.loc 1 159 0
 190 002e 059B     		ldr	r3, [sp, #20]
 191 0030 1B68     		ldr	r3, [r3]
 192 0032 0493     		str	r3, [sp, #16]
 193              		.loc 1 160 0
 194 0034 049B     		ldr	r3, [sp, #16]
 195 0036 5A68     		ldr	r2, [r3, #4]
 196 0038 009B     		ldr	r3, [sp]
 197 003a 9A42     		cmp	r2, r3
 198 003c 2CD3     		bcc	.L12
 199              		.loc 1 161 0
 200 003e 049B     		ldr	r3, [sp, #16]
 201 0040 5A68     		ldr	r2, [r3, #4]
 202 0042 009B     		ldr	r3, [sp]
 203 0044 0833     		adds	r3, r3, #8
 204 0046 9A42     		cmp	r2, r3
 205 0048 04D2     		bcs	.L13
 206              		.loc 1 165 0
 207 004a 049B     		ldr	r3, [sp, #16]
 208 004c 1A68     		ldr	r2, [r3]
 209 004e 059B     		ldr	r3, [sp, #20]
 210 0050 1A60     		str	r2, [r3]
 211 0052 16E0     		b	.L14
 212              	.L13:
 213              		.loc 1 170 0
 214 0054 009B     		ldr	r3, [sp]
 215 0056 0833     		adds	r3, r3, #8
 216 0058 049A     		ldr	r2, [sp, #16]
 217 005a 1344     		add	r3, r3, r2
 218 005c 0393     		str	r3, [sp, #12]
 219              		.loc 1 172 0
 220 005e 049B     		ldr	r3, [sp, #16]
 221 0060 1A68     		ldr	r2, [r3]
 222 0062 039B     		ldr	r3, [sp, #12]
 223 0064 1A60     		str	r2, [r3]
ARM GAS  /tmp/ccYdJoxU.s 			page 5


 224              		.loc 1 173 0
 225 0066 049B     		ldr	r3, [sp, #16]
 226 0068 5A68     		ldr	r2, [r3, #4]
 227 006a 009B     		ldr	r3, [sp]
 228 006c D31A     		subs	r3, r2, r3
 229 006e A3F10802 		sub	r2, r3, #8
 230 0072 039B     		ldr	r3, [sp, #12]
 231 0074 5A60     		str	r2, [r3, #4]
 232              		.loc 1 174 0
 233 0076 059B     		ldr	r3, [sp, #20]
 234 0078 039A     		ldr	r2, [sp, #12]
 235 007a 1A60     		str	r2, [r3]
 236              		.loc 1 175 0
 237 007c 049B     		ldr	r3, [sp, #16]
 238 007e 009A     		ldr	r2, [sp]
 239 0080 5A60     		str	r2, [r3, #4]
 240              	.L14:
 241              		.loc 1 177 0
 242 0082 049B     		ldr	r3, [sp, #16]
 243 0084 019A     		ldr	r2, [sp, #4]
 244 0086 1A60     		str	r2, [r3]
 245              		.loc 1 178 0
 246 0088 019B     		ldr	r3, [sp, #4]
 247 008a 1033     		adds	r3, r3, #16
 248 008c 1846     		mov	r0, r3
 249 008e FFF7FEFF 		bl	chMtxUnlock
 250              		.loc 1 181 0
 251 0092 049B     		ldr	r3, [sp, #16]
 252 0094 0833     		adds	r3, r3, #8
 253 0096 24E0     		b	.L15
 254              	.L12:
 255              		.loc 1 184 0
 256 0098 049B     		ldr	r3, [sp, #16]
 257 009a 0593     		str	r3, [sp, #20]
 258              	.L11:
 259              		.loc 1 158 0 discriminator 1
 260 009c 059B     		ldr	r3, [sp, #20]
 261 009e 1B68     		ldr	r3, [r3]
 262 00a0 002B     		cmp	r3, #0
 263 00a2 C4D1     		bne	.L16
 264              		.loc 1 186 0
 265 00a4 019B     		ldr	r3, [sp, #4]
 266 00a6 1033     		adds	r3, r3, #16
 267 00a8 1846     		mov	r0, r3
 268 00aa FFF7FEFF 		bl	chMtxUnlock
 269              		.loc 1 190 0
 270 00ae 019B     		ldr	r3, [sp, #4]
 271 00b0 1B68     		ldr	r3, [r3]
 272 00b2 002B     		cmp	r3, #0
 273 00b4 14D0     		beq	.L17
 274              		.loc 1 191 0
 275 00b6 019B     		ldr	r3, [sp, #4]
 276 00b8 1B68     		ldr	r3, [r3]
 277 00ba 009A     		ldr	r2, [sp]
 278 00bc 0832     		adds	r2, r2, #8
 279 00be 1046     		mov	r0, r2
 280 00c0 9847     		blx	r3
ARM GAS  /tmp/ccYdJoxU.s 			page 6


 281 00c2 0490     		str	r0, [sp, #16]
 282              		.loc 1 192 0
 283 00c4 049B     		ldr	r3, [sp, #16]
 284 00c6 002B     		cmp	r3, #0
 285 00c8 0AD0     		beq	.L17
 286              		.loc 1 193 0
 287 00ca 049B     		ldr	r3, [sp, #16]
 288 00cc 019A     		ldr	r2, [sp, #4]
 289 00ce 1A60     		str	r2, [r3]
 290              		.loc 1 194 0
 291 00d0 049B     		ldr	r3, [sp, #16]
 292 00d2 009A     		ldr	r2, [sp]
 293 00d4 5A60     		str	r2, [r3, #4]
 294              		.loc 1 195 0
 295 00d6 049B     		ldr	r3, [sp, #16]
 296 00d8 0833     		adds	r3, r3, #8
 297 00da 0493     		str	r3, [sp, #16]
 298              		.loc 1 198 0
 299 00dc 049B     		ldr	r3, [sp, #16]
 300 00de 00E0     		b	.L15
 301              	.L17:
 302              		.loc 1 203 0
 303 00e0 0023     		movs	r3, #0
 304              	.L15:
 305              		.loc 1 204 0
 306 00e2 1846     		mov	r0, r3
 307 00e4 07B0     		add	sp, sp, #28
 308              		@ sp needed
 309 00e6 5DF804FB 		ldr	pc, [sp], #4
 310              	.L19:
 311 00ea 00BF     		.align	2
 312              	.L18:
 313 00ec 00000000 		.word	default_heap
 314              		.cfi_endproc
 315              	.LFE242:
 316              		.size	chHeapAlloc, .-chHeapAlloc
 317              		.section	.text.chHeapFree,"ax",%progbits
 318              		.align	2
 319              		.p2align 4,,15
 320              		.global	chHeapFree
 321              		.thumb
 322              		.thumb_func
 323              		.type	chHeapFree, %function
 324              	chHeapFree:
 325              	.LFB243:
 326              		.loc 1 213 0
 327              		.cfi_startproc
 328              		@ args = 0, pretend = 0, frame = 24
 329              		@ frame_needed = 0, uses_anonymous_args = 0
 330 0000 00B5     		push	{lr}
 331              		.cfi_def_cfa_offset 4
 332              		.cfi_offset 14, -4
 333 0002 87B0     		sub	sp, sp, #28
 334              		.cfi_def_cfa_offset 32
 335 0004 0190     		str	r0, [sp, #4]
 336              		.loc 1 217 0
 337 0006 019B     		ldr	r3, [sp, #4]
ARM GAS  /tmp/ccYdJoxU.s 			page 7


 338 0008 002B     		cmp	r3, #0
 339 000a 02D1     		bne	.L21
 340              		.loc 1 217 0 is_stmt 0 discriminator 1
 341 000c 3A48     		ldr	r0, .L31
 342 000e FFF7FEFF 		bl	chSysHalt
 343              	.L21:
 344              		.loc 1 220 0 is_stmt 1
 345 0012 019B     		ldr	r3, [sp, #4]
 346 0014 083B     		subs	r3, r3, #8
 347 0016 0493     		str	r3, [sp, #16]
 348              		.loc 1 222 0
 349 0018 049B     		ldr	r3, [sp, #16]
 350 001a 1B68     		ldr	r3, [r3]
 351 001c 0393     		str	r3, [sp, #12]
 352              		.loc 1 223 0
 353 001e 039B     		ldr	r3, [sp, #12]
 354 0020 0833     		adds	r3, r3, #8
 355 0022 0593     		str	r3, [sp, #20]
 356              		.loc 1 225 0
 357 0024 039B     		ldr	r3, [sp, #12]
 358 0026 1033     		adds	r3, r3, #16
 359 0028 1846     		mov	r0, r3
 360 002a FFF7FEFF 		bl	chMtxLock
 361              	.L29:
 362              		.loc 1 227 0
 363 002e 049A     		ldr	r2, [sp, #16]
 364 0030 059B     		ldr	r3, [sp, #20]
 365 0032 9A42     		cmp	r2, r3
 366 0034 0AD3     		bcc	.L22
 367              		.loc 1 227 0 is_stmt 0 discriminator 1
 368 0036 059B     		ldr	r3, [sp, #20]
 369 0038 5B68     		ldr	r3, [r3, #4]
 370 003a 0833     		adds	r3, r3, #8
 371 003c 059A     		ldr	r2, [sp, #20]
 372 003e 1A44     		add	r2, r2, r3
 373 0040 049B     		ldr	r3, [sp, #16]
 374 0042 9A42     		cmp	r2, r3
 375 0044 02D9     		bls	.L22
 376 0046 2C48     		ldr	r0, .L31
 377 0048 FFF7FEFF 		bl	chSysHalt
 378              	.L22:
 379              		.loc 1 229 0 is_stmt 1
 380 004c 039B     		ldr	r3, [sp, #12]
 381 004e 03F10802 		add	r2, r3, #8
 382 0052 059B     		ldr	r3, [sp, #20]
 383 0054 9A42     		cmp	r2, r3
 384 0056 03D0     		beq	.L23
 385              		.loc 1 229 0 is_stmt 0 discriminator 2
 386 0058 049A     		ldr	r2, [sp, #16]
 387 005a 059B     		ldr	r3, [sp, #20]
 388 005c 9A42     		cmp	r2, r3
 389 005e 3ED9     		bls	.L24
 390              	.L23:
 391              		.loc 1 230 0 is_stmt 1 discriminator 1
 392 0060 059B     		ldr	r3, [sp, #20]
 393 0062 1B68     		ldr	r3, [r3]
 394              		.loc 1 229 0 discriminator 1
ARM GAS  /tmp/ccYdJoxU.s 			page 8


 395 0064 002B     		cmp	r3, #0
 396 0066 04D0     		beq	.L25
 397              		.loc 1 230 0
 398 0068 059B     		ldr	r3, [sp, #20]
 399 006a 1A68     		ldr	r2, [r3]
 400 006c 049B     		ldr	r3, [sp, #16]
 401 006e 9A42     		cmp	r2, r3
 402 0070 35D9     		bls	.L24
 403              	.L25:
 404              		.loc 1 232 0
 405 0072 059B     		ldr	r3, [sp, #20]
 406 0074 1A68     		ldr	r2, [r3]
 407 0076 049B     		ldr	r3, [sp, #16]
 408 0078 1A60     		str	r2, [r3]
 409              		.loc 1 233 0
 410 007a 059B     		ldr	r3, [sp, #20]
 411 007c 049A     		ldr	r2, [sp, #16]
 412 007e 1A60     		str	r2, [r3]
 413              		.loc 1 235 0
 414 0080 049B     		ldr	r3, [sp, #16]
 415 0082 5B68     		ldr	r3, [r3, #4]
 416 0084 0833     		adds	r3, r3, #8
 417 0086 049A     		ldr	r2, [sp, #16]
 418 0088 1A44     		add	r2, r2, r3
 419 008a 049B     		ldr	r3, [sp, #16]
 420 008c 1B68     		ldr	r3, [r3]
 421 008e 9A42     		cmp	r2, r3
 422 0090 0ED1     		bne	.L26
 423              		.loc 1 237 0
 424 0092 049B     		ldr	r3, [sp, #16]
 425 0094 5A68     		ldr	r2, [r3, #4]
 426 0096 049B     		ldr	r3, [sp, #16]
 427 0098 1B68     		ldr	r3, [r3]
 428 009a 5B68     		ldr	r3, [r3, #4]
 429 009c 1344     		add	r3, r3, r2
 430 009e 03F10802 		add	r2, r3, #8
 431 00a2 049B     		ldr	r3, [sp, #16]
 432 00a4 5A60     		str	r2, [r3, #4]
 433              		.loc 1 238 0
 434 00a6 049B     		ldr	r3, [sp, #16]
 435 00a8 1B68     		ldr	r3, [r3]
 436 00aa 1A68     		ldr	r2, [r3]
 437 00ac 049B     		ldr	r3, [sp, #16]
 438 00ae 1A60     		str	r2, [r3]
 439              	.L26:
 440              		.loc 1 240 0
 441 00b0 059B     		ldr	r3, [sp, #20]
 442 00b2 5B68     		ldr	r3, [r3, #4]
 443 00b4 0833     		adds	r3, r3, #8
 444 00b6 059A     		ldr	r2, [sp, #20]
 445 00b8 1A44     		add	r2, r2, r3
 446 00ba 049B     		ldr	r3, [sp, #16]
 447 00bc 9A42     		cmp	r2, r3
 448 00be 0DD1     		bne	.L27
 449              		.loc 1 242 0
 450 00c0 059B     		ldr	r3, [sp, #20]
 451 00c2 5A68     		ldr	r2, [r3, #4]
ARM GAS  /tmp/ccYdJoxU.s 			page 9


 452 00c4 049B     		ldr	r3, [sp, #16]
 453 00c6 5B68     		ldr	r3, [r3, #4]
 454 00c8 1344     		add	r3, r3, r2
 455 00ca 03F10802 		add	r2, r3, #8
 456 00ce 059B     		ldr	r3, [sp, #20]
 457 00d0 5A60     		str	r2, [r3, #4]
 458              		.loc 1 243 0
 459 00d2 049B     		ldr	r3, [sp, #16]
 460 00d4 1A68     		ldr	r2, [r3]
 461 00d6 059B     		ldr	r3, [sp, #20]
 462 00d8 1A60     		str	r2, [r3]
 463              		.loc 1 245 0
 464 00da 04E0     		b	.L28
 465              	.L27:
 466 00dc 03E0     		b	.L28
 467              	.L24:
 468              		.loc 1 247 0
 469 00de 059B     		ldr	r3, [sp, #20]
 470 00e0 1B68     		ldr	r3, [r3]
 471 00e2 0593     		str	r3, [sp, #20]
 472              		.loc 1 248 0
 473 00e4 A3E7     		b	.L29
 474              	.L28:
 475              		.loc 1 249 0
 476 00e6 039B     		ldr	r3, [sp, #12]
 477 00e8 1033     		adds	r3, r3, #16
 478 00ea 1846     		mov	r0, r3
 479 00ec FFF7FEFF 		bl	chMtxUnlock
 480              		.loc 1 251 0
 481 00f0 00BF     		nop
 482              		.loc 1 252 0
 483 00f2 07B0     		add	sp, sp, #28
 484              		@ sp needed
 485 00f4 5DF804FB 		ldr	pc, [sp], #4
 486              	.L32:
 487              		.align	2
 488              	.L31:
 489 00f8 00000000 		.word	__func__.6644
 490              		.cfi_endproc
 491              	.LFE243:
 492              		.size	chHeapFree, .-chHeapFree
 493 00fc AFF30080 		.section	.text.chHeapStatus,"ax",%progbits
 494              		.align	2
 495              		.p2align 4,,15
 496              		.global	chHeapStatus
 497              		.thumb
 498              		.thumb_func
 499              		.type	chHeapStatus, %function
 500              	chHeapStatus:
 501              	.LFB244:
 502              		.loc 1 267 0
 503              		.cfi_startproc
 504              		@ args = 0, pretend = 0, frame = 24
 505              		@ frame_needed = 0, uses_anonymous_args = 0
 506 0000 00B5     		push	{lr}
 507              		.cfi_def_cfa_offset 4
 508              		.cfi_offset 14, -4
ARM GAS  /tmp/ccYdJoxU.s 			page 10


 509 0002 87B0     		sub	sp, sp, #28
 510              		.cfi_def_cfa_offset 32
 511 0004 0190     		str	r0, [sp, #4]
 512 0006 0091     		str	r1, [sp]
 513              		.loc 1 271 0
 514 0008 019B     		ldr	r3, [sp, #4]
 515 000a 002B     		cmp	r3, #0
 516 000c 01D1     		bne	.L34
 517              		.loc 1 272 0
 518 000e 174B     		ldr	r3, .L39
 519 0010 0193     		str	r3, [sp, #4]
 520              	.L34:
 521              		.loc 1 275 0
 522 0012 019B     		ldr	r3, [sp, #4]
 523 0014 1033     		adds	r3, r3, #16
 524 0016 1846     		mov	r0, r3
 525 0018 FFF7FEFF 		bl	chMtxLock
 526              		.loc 1 276 0
 527 001c 0023     		movs	r3, #0
 528 001e 0393     		str	r3, [sp, #12]
 529              		.loc 1 277 0
 530 0020 0023     		movs	r3, #0
 531 0022 0493     		str	r3, [sp, #16]
 532              		.loc 1 278 0
 533 0024 019B     		ldr	r3, [sp, #4]
 534 0026 0833     		adds	r3, r3, #8
 535 0028 0593     		str	r3, [sp, #20]
 536              		.loc 1 279 0
 537 002a 0BE0     		b	.L35
 538              	.L36:
 539              		.loc 1 280 0
 540 002c 059B     		ldr	r3, [sp, #20]
 541 002e 1B68     		ldr	r3, [r3]
 542 0030 5B68     		ldr	r3, [r3, #4]
 543 0032 039A     		ldr	r2, [sp, #12]
 544 0034 1344     		add	r3, r3, r2
 545 0036 0393     		str	r3, [sp, #12]
 546              		.loc 1 281 0
 547 0038 049B     		ldr	r3, [sp, #16]
 548 003a 0133     		adds	r3, r3, #1
 549 003c 0493     		str	r3, [sp, #16]
 550              		.loc 1 282 0
 551 003e 059B     		ldr	r3, [sp, #20]
 552 0040 1B68     		ldr	r3, [r3]
 553 0042 0593     		str	r3, [sp, #20]
 554              	.L35:
 555              		.loc 1 279 0 discriminator 1
 556 0044 059B     		ldr	r3, [sp, #20]
 557 0046 1B68     		ldr	r3, [r3]
 558 0048 002B     		cmp	r3, #0
 559 004a EFD1     		bne	.L36
 560              		.loc 1 284 0
 561 004c 009B     		ldr	r3, [sp]
 562 004e 002B     		cmp	r3, #0
 563 0050 02D0     		beq	.L37
 564              		.loc 1 285 0
 565 0052 009B     		ldr	r3, [sp]
ARM GAS  /tmp/ccYdJoxU.s 			page 11


 566 0054 039A     		ldr	r2, [sp, #12]
 567 0056 1A60     		str	r2, [r3]
 568              	.L37:
 569              		.loc 1 287 0
 570 0058 019B     		ldr	r3, [sp, #4]
 571 005a 1033     		adds	r3, r3, #16
 572 005c 1846     		mov	r0, r3
 573 005e FFF7FEFF 		bl	chMtxUnlock
 574              		.loc 1 289 0
 575 0062 049B     		ldr	r3, [sp, #16]
 576              		.loc 1 290 0
 577 0064 1846     		mov	r0, r3
 578 0066 07B0     		add	sp, sp, #28
 579              		@ sp needed
 580 0068 5DF804FB 		ldr	pc, [sp], #4
 581              	.L40:
 582              		.align	2
 583              	.L39:
 584 006c 00000000 		.word	default_heap
 585              		.cfi_endproc
 586              	.LFE244:
 587              		.size	chHeapStatus, .-chHeapStatus
 588              		.section	.rodata.__func__.6627,"a",%progbits
 589              		.align	2
 590              		.type	__func__.6627, %object
 591              		.size	__func__.6627, 17
 592              	__func__.6627:
 593 0000 63684865 		.ascii	"chHeapObjectInit\000"
 593      61704F62 
 593      6A656374 
 593      496E6974 
 593      00
 594 0011 000000   		.section	.rodata.__func__.6644,"a",%progbits
 595              		.align	2
 596              		.type	__func__.6644, %object
 597              		.size	__func__.6644, 11
 598              	__func__.6644:
 599 0000 63684865 		.ascii	"chHeapFree\000"
 599      61704672 
 599      656500
 600 000b 00       		.text
 601              	.Letext0:
 602              		.file 2 "/usr/lib/gcc/arm-none-eabi/4.8/include/stddef.h"
 603              		.file 3 "/usr/include/newlib/machine/_default_types.h"
 604              		.file 4 "/usr/include/newlib/stdint.h"
 605              		.file 5 "/home/efe/ChibiOS/os/rt/ports/ARMCMx/compilers/GCC/chtypes.h"
 606              		.file 6 "/home/efe/ChibiOS/os/rt/include/chsystypes.h"
 607              		.file 7 "/home/efe/ChibiOS/os/rt/include/chschd.h"
 608              		.file 8 "/home/efe/ChibiOS/os/rt/ports/ARMCMx/chcore.h"
 609              		.file 9 "/home/efe/ChibiOS/os/rt/ports/ARMCMx/chcore_v7m.h"
 610              		.file 10 "/home/efe/ChibiOS/os/rt/include/chdebug.h"
 611              		.file 11 "/home/efe/ChibiOS/os/rt/include/chtm.h"
 612              		.file 12 "/home/efe/ChibiOS/os/rt/include/chstats.h"
 613              		.file 13 "/home/efe/ChibiOS/os/rt/include/chsem.h"
 614              		.file 14 "/home/efe/ChibiOS/os/rt/include/chmtx.h"
 615              		.file 15 "/home/efe/ChibiOS/os/rt/include/chmemcore.h"
 616              		.file 16 "/home/efe/ChibiOS/os/rt/include/chheap.h"
ARM GAS  /tmp/ccYdJoxU.s 			page 12


 617              		.file 17 "/home/efe/ChibiOS/os/ext/CMSIS/include/core_cm4.h"
 618              		.section	.debug_info,"",%progbits
 619              	.Ldebug_info0:
 620 0000 560A0000 		.4byte	0xa56
 621 0004 0400     		.2byte	0x4
 622 0006 00000000 		.4byte	.Ldebug_abbrev0
 623 000a 04       		.byte	0x4
 624 000b 01       		.uleb128 0x1
 625 000c 86010000 		.4byte	.LASF148
 626 0010 01       		.byte	0x1
 627 0011 5D030000 		.4byte	.LASF149
 628 0015 00000000 		.4byte	.Ldebug_ranges0+0
 629 0019 00000000 		.4byte	0
 630 001d 00000000 		.4byte	.Ldebug_line0
 631 0021 02       		.uleb128 0x2
 632 0022 04       		.byte	0x4
 633 0023 05       		.byte	0x5
 634 0024 696E7400 		.ascii	"int\000"
 635 0028 03       		.uleb128 0x3
 636 0029 15000000 		.4byte	.LASF2
 637 002d 02       		.byte	0x2
 638 002e D4       		.byte	0xd4
 639 002f 33000000 		.4byte	0x33
 640 0033 04       		.uleb128 0x4
 641 0034 04       		.byte	0x4
 642 0035 07       		.byte	0x7
 643 0036 A8020000 		.4byte	.LASF0
 644 003a 04       		.uleb128 0x4
 645 003b 01       		.byte	0x1
 646 003c 06       		.byte	0x6
 647 003d 1C010000 		.4byte	.LASF1
 648 0041 03       		.uleb128 0x3
 649 0042 3E000000 		.4byte	.LASF3
 650 0046 03       		.byte	0x3
 651 0047 1D       		.byte	0x1d
 652 0048 4C000000 		.4byte	0x4c
 653 004c 04       		.uleb128 0x4
 654 004d 01       		.byte	0x1
 655 004e 08       		.byte	0x8
 656 004f 90040000 		.4byte	.LASF4
 657 0053 04       		.uleb128 0x4
 658 0054 02       		.byte	0x2
 659 0055 05       		.byte	0x5
 660 0056 B4040000 		.4byte	.LASF5
 661 005a 04       		.uleb128 0x4
 662 005b 02       		.byte	0x2
 663 005c 07       		.byte	0x7
 664 005d DB020000 		.4byte	.LASF6
 665 0061 03       		.uleb128 0x3
 666 0062 82030000 		.4byte	.LASF7
 667 0066 03       		.byte	0x3
 668 0067 3F       		.byte	0x3f
 669 0068 6C000000 		.4byte	0x6c
 670 006c 04       		.uleb128 0x4
 671 006d 04       		.byte	0x4
 672 006e 05       		.byte	0x5
 673 006f 60010000 		.4byte	.LASF8
ARM GAS  /tmp/ccYdJoxU.s 			page 13


 674 0073 03       		.uleb128 0x3
 675 0074 A5050000 		.4byte	.LASF9
 676 0078 03       		.byte	0x3
 677 0079 41       		.byte	0x41
 678 007a 7E000000 		.4byte	0x7e
 679 007e 04       		.uleb128 0x4
 680 007f 04       		.byte	0x4
 681 0080 07       		.byte	0x7
 682 0081 4E050000 		.4byte	.LASF10
 683 0085 04       		.uleb128 0x4
 684 0086 08       		.byte	0x8
 685 0087 05       		.byte	0x5
 686 0088 0E010000 		.4byte	.LASF11
 687 008c 03       		.uleb128 0x3
 688 008d 38040000 		.4byte	.LASF12
 689 0091 03       		.byte	0x3
 690 0092 5B       		.byte	0x5b
 691 0093 97000000 		.4byte	0x97
 692 0097 04       		.uleb128 0x4
 693 0098 08       		.byte	0x8
 694 0099 07       		.byte	0x7
 695 009a 8D000000 		.4byte	.LASF13
 696 009e 03       		.uleb128 0x3
 697 009f 31060000 		.4byte	.LASF14
 698 00a3 04       		.byte	0x4
 699 00a4 2A       		.byte	0x2a
 700 00a5 41000000 		.4byte	0x41
 701 00a9 03       		.uleb128 0x3
 702 00aa 88040000 		.4byte	.LASF15
 703 00ae 04       		.byte	0x4
 704 00af 41       		.byte	0x41
 705 00b0 61000000 		.4byte	0x61
 706 00b4 03       		.uleb128 0x3
 707 00b5 18050000 		.4byte	.LASF16
 708 00b9 04       		.byte	0x4
 709 00ba 42       		.byte	0x42
 710 00bb 73000000 		.4byte	0x73
 711 00bf 03       		.uleb128 0x3
 712 00c0 28000000 		.4byte	.LASF17
 713 00c4 04       		.byte	0x4
 714 00c5 4E       		.byte	0x4e
 715 00c6 8C000000 		.4byte	0x8c
 716 00ca 05       		.uleb128 0x5
 717 00cb A9000000 		.4byte	0xa9
 718 00cf 03       		.uleb128 0x3
 719 00d0 DA050000 		.4byte	.LASF18
 720 00d4 05       		.byte	0x5
 721 00d5 45       		.byte	0x45
 722 00d6 B4000000 		.4byte	0xb4
 723 00da 03       		.uleb128 0x3
 724 00db FE000000 		.4byte	.LASF19
 725 00df 05       		.byte	0x5
 726 00e0 46       		.byte	0x46
 727 00e1 BF000000 		.4byte	0xbf
 728 00e5 03       		.uleb128 0x3
 729 00e6 30030000 		.4byte	.LASF20
 730 00ea 05       		.byte	0x5
ARM GAS  /tmp/ccYdJoxU.s 			page 14


 731 00eb 48       		.byte	0x48
 732 00ec 9E000000 		.4byte	0x9e
 733 00f0 03       		.uleb128 0x3
 734 00f1 69010000 		.4byte	.LASF21
 735 00f5 05       		.byte	0x5
 736 00f6 49       		.byte	0x49
 737 00f7 9E000000 		.4byte	0x9e
 738 00fb 03       		.uleb128 0x3
 739 00fc 4E040000 		.4byte	.LASF22
 740 0100 05       		.byte	0x5
 741 0101 4A       		.byte	0x4a
 742 0102 9E000000 		.4byte	0x9e
 743 0106 03       		.uleb128 0x3
 744 0107 77040000 		.4byte	.LASF23
 745 010b 05       		.byte	0x5
 746 010c 4C       		.byte	0x4c
 747 010d B4000000 		.4byte	0xb4
 748 0111 03       		.uleb128 0x3
 749 0112 12030000 		.4byte	.LASF24
 750 0116 05       		.byte	0x5
 751 0117 4D       		.byte	0x4d
 752 0118 A9000000 		.4byte	0xa9
 753 011c 03       		.uleb128 0x3
 754 011d 51030000 		.4byte	.LASF25
 755 0121 05       		.byte	0x5
 756 0122 4F       		.byte	0x4f
 757 0123 B4000000 		.4byte	0xb4
 758 0127 03       		.uleb128 0x3
 759 0128 97020000 		.4byte	.LASF26
 760 012c 05       		.byte	0x5
 761 012d 51       		.byte	0x51
 762 012e A9000000 		.4byte	0xa9
 763 0132 03       		.uleb128 0x3
 764 0133 1D030000 		.4byte	.LASF27
 765 0137 05       		.byte	0x5
 766 0138 52       		.byte	0x52
 767 0139 B4000000 		.4byte	0xb4
 768 013d 03       		.uleb128 0x3
 769 013e 87050000 		.4byte	.LASF28
 770 0142 06       		.byte	0x6
 771 0143 33       		.byte	0x33
 772 0144 B4000000 		.4byte	0xb4
 773 0148 03       		.uleb128 0x3
 774 0149 72050000 		.4byte	.LASF29
 775 014d 06       		.byte	0x6
 776 014e 3F       		.byte	0x3f
 777 014f 53010000 		.4byte	0x153
 778 0153 06       		.uleb128 0x6
 779 0154 FD020000 		.4byte	.LASF51
 780 0158 60       		.byte	0x60
 781 0159 07       		.byte	0x7
 782 015a C2       		.byte	0xc2
 783 015b 59020000 		.4byte	0x259
 784 015f 07       		.uleb128 0x7
 785 0160 D4040000 		.4byte	.LASF30
 786 0164 07       		.byte	0x7
 787 0165 C3       		.byte	0xc3
ARM GAS  /tmp/ccYdJoxU.s 			page 15


 788 0166 64020000 		.4byte	0x264
 789 016a 00       		.byte	0
 790 016b 07       		.uleb128 0x7
 791 016c 70040000 		.4byte	.LASF31
 792 0170 07       		.byte	0x7
 793 0171 C5       		.byte	0xc5
 794 0172 64020000 		.4byte	0x264
 795 0176 04       		.byte	0x4
 796 0177 07       		.uleb128 0x7
 797 0178 07010000 		.4byte	.LASF32
 798 017c 07       		.byte	0x7
 799 017d C7       		.byte	0xc7
 800 017e 06010000 		.4byte	0x106
 801 0182 08       		.byte	0x8
 802 0183 07       		.uleb128 0x7
 803 0184 A7060000 		.4byte	.LASF33
 804 0188 07       		.byte	0x7
 805 0189 C8       		.byte	0xc8
 806 018a CD040000 		.4byte	0x4cd
 807 018e 0C       		.byte	0xc
 808 018f 07       		.uleb128 0x7
 809 0190 36020000 		.4byte	.LASF34
 810 0194 07       		.byte	0x7
 811 0195 CA       		.byte	0xca
 812 0196 64020000 		.4byte	0x264
 813 019a 10       		.byte	0x10
 814 019b 07       		.uleb128 0x7
 815 019c 07040000 		.4byte	.LASF35
 816 01a0 07       		.byte	0x7
 817 01a1 CB       		.byte	0xcb
 818 01a2 64020000 		.4byte	0x264
 819 01a6 14       		.byte	0x14
 820 01a7 07       		.uleb128 0x7
 821 01a8 51060000 		.4byte	.LASF36
 822 01ac 07       		.byte	0x7
 823 01ad D2       		.byte	0xd2
 824 01ae 71070000 		.4byte	0x771
 825 01b2 18       		.byte	0x18
 826 01b3 07       		.uleb128 0x7
 827 01b4 9D020000 		.4byte	.LASF37
 828 01b8 07       		.byte	0x7
 829 01b9 D8       		.byte	0xd8
 830 01ba 83070000 		.4byte	0x783
 831 01be 1C       		.byte	0x1c
 832 01bf 07       		.uleb128 0x7
 833 01c0 BE040000 		.4byte	.LASF38
 834 01c4 07       		.byte	0x7
 835 01c5 DD       		.byte	0xdd
 836 01c6 F0000000 		.4byte	0xf0
 837 01ca 20       		.byte	0x20
 838 01cb 07       		.uleb128 0x7
 839 01cc DB040000 		.4byte	.LASF39
 840 01d0 07       		.byte	0x7
 841 01d1 E1       		.byte	0xe1
 842 01d2 E5000000 		.4byte	0xe5
 843 01d6 21       		.byte	0x21
 844 01d7 07       		.uleb128 0x7
ARM GAS  /tmp/ccYdJoxU.s 			page 16


 845 01d8 1C060000 		.4byte	.LASF40
 846 01dc 07       		.byte	0x7
 847 01dd E6       		.byte	0xe6
 848 01de FB000000 		.4byte	0xfb
 849 01e2 22       		.byte	0x22
 850 01e3 08       		.uleb128 0x8
 851 01e4 705F7500 		.ascii	"p_u\000"
 852 01e8 07       		.byte	0x7
 853 01e9 3101     		.2byte	0x131
 854 01eb AC060000 		.4byte	0x6ac
 855 01ef 24       		.byte	0x24
 856 01f0 09       		.uleb128 0x9
 857 01f1 A8030000 		.4byte	.LASF41
 858 01f5 07       		.byte	0x7
 859 01f6 3601     		.2byte	0x136
 860 01f8 6A020000 		.4byte	0x26a
 861 01fc 28       		.byte	0x28
 862 01fd 09       		.uleb128 0x9
 863 01fe C4020000 		.4byte	.LASF42
 864 0202 07       		.byte	0x7
 865 0203 3C01     		.2byte	0x13c
 866 0205 8E020000 		.4byte	0x28e
 867 0209 2C       		.byte	0x2c
 868 020a 09       		.uleb128 0x9
 869 020b 84060000 		.4byte	.LASF43
 870 020f 07       		.byte	0x7
 871 0210 4001     		.2byte	0x140
 872 0212 11010000 		.4byte	0x111
 873 0216 34       		.byte	0x34
 874 0217 09       		.uleb128 0x9
 875 0218 0D050000 		.4byte	.LASF44
 876 021c 07       		.byte	0x7
 877 021d 4601     		.2byte	0x146
 878 021f 1C010000 		.4byte	0x11c
 879 0223 38       		.byte	0x38
 880 0224 09       		.uleb128 0x9
 881 0225 AA040000 		.4byte	.LASF45
 882 0229 07       		.byte	0x7
 883 022a 4D01     		.2byte	0x14d
 884 022c 6B070000 		.4byte	0x76b
 885 0230 3C       		.byte	0x3c
 886 0231 09       		.uleb128 0x9
 887 0232 91050000 		.4byte	.LASF46
 888 0236 07       		.byte	0x7
 889 0237 5101     		.2byte	0x151
 890 0239 06010000 		.4byte	0x106
 891 023d 40       		.byte	0x40
 892 023e 09       		.uleb128 0x9
 893 023f 2E010000 		.4byte	.LASF47
 894 0243 07       		.byte	0x7
 895 0244 5801     		.2byte	0x158
 896 0246 41030000 		.4byte	0x341
 897 024a 44       		.byte	0x44
 898 024b 09       		.uleb128 0x9
 899 024c EC040000 		.4byte	.LASF48
 900 0250 07       		.byte	0x7
 901 0251 5E01     		.2byte	0x15e
ARM GAS  /tmp/ccYdJoxU.s 			page 17


 902 0253 5D060000 		.4byte	0x65d
 903 0257 48       		.byte	0x48
 904 0258 00       		.byte	0
 905 0259 03       		.uleb128 0x3
 906 025a BB030000 		.4byte	.LASF49
 907 025e 06       		.byte	0x6
 908 025f 44       		.byte	0x44
 909 0260 64020000 		.4byte	0x264
 910 0264 0A       		.uleb128 0xa
 911 0265 04       		.byte	0x4
 912 0266 48010000 		.4byte	0x148
 913 026a 03       		.uleb128 0x3
 914 026b 5D060000 		.4byte	.LASF50
 915 026f 06       		.byte	0x6
 916 0270 49       		.byte	0x49
 917 0271 75020000 		.4byte	0x275
 918 0275 06       		.uleb128 0x6
 919 0276 39050000 		.4byte	.LASF52
 920 027a 04       		.byte	0x4
 921 027b 07       		.byte	0x7
 922 027c B0       		.byte	0xb0
 923 027d 8E020000 		.4byte	0x28e
 924 0281 07       		.uleb128 0x7
 925 0282 D4040000 		.4byte	.LASF30
 926 0286 07       		.byte	0x7
 927 0287 B1       		.byte	0xb1
 928 0288 64020000 		.4byte	0x264
 929 028c 00       		.byte	0
 930 028d 00       		.byte	0
 931 028e 03       		.uleb128 0x3
 932 028f 03060000 		.4byte	.LASF53
 933 0293 06       		.byte	0x6
 934 0294 50       		.byte	0x50
 935 0295 99020000 		.4byte	0x299
 936 0299 06       		.uleb128 0x6
 937 029a 54000000 		.4byte	.LASF54
 938 029e 08       		.byte	0x8
 939 029f 07       		.byte	0x7
 940 02a0 B7       		.byte	0xb7
 941 02a1 BE020000 		.4byte	0x2be
 942 02a5 07       		.uleb128 0x7
 943 02a6 D4040000 		.4byte	.LASF30
 944 02aa 07       		.byte	0x7
 945 02ab B8       		.byte	0xb8
 946 02ac 64020000 		.4byte	0x264
 947 02b0 00       		.byte	0
 948 02b1 07       		.uleb128 0x7
 949 02b2 70040000 		.4byte	.LASF31
 950 02b6 07       		.byte	0x7
 951 02b7 B9       		.byte	0xb9
 952 02b8 64020000 		.4byte	0x264
 953 02bc 04       		.byte	0x4
 954 02bd 00       		.byte	0
 955 02be 03       		.uleb128 0x3
 956 02bf 00000000 		.4byte	.LASF55
 957 02c3 06       		.byte	0x6
 958 02c4 57       		.byte	0x57
ARM GAS  /tmp/ccYdJoxU.s 			page 18


 959 02c5 C9020000 		.4byte	0x2c9
 960 02c9 0B       		.uleb128 0xb
 961 02ca 43030000 		.4byte	.LASF56
 962 02ce 1C       		.byte	0x1c
 963 02cf 07       		.byte	0x7
 964 02d0 9001     		.2byte	0x190
 965 02d2 25030000 		.4byte	0x325
 966 02d6 09       		.uleb128 0x9
 967 02d7 28050000 		.4byte	.LASF57
 968 02db 07       		.byte	0x7
 969 02dc 9101     		.2byte	0x191
 970 02de 8E020000 		.4byte	0x28e
 971 02e2 00       		.byte	0
 972 02e3 09       		.uleb128 0x9
 973 02e4 C6040000 		.4byte	.LASF58
 974 02e8 07       		.byte	0x7
 975 02e9 9201     		.2byte	0x192
 976 02eb 06010000 		.4byte	0x106
 977 02ef 08       		.byte	0x8
 978 02f0 09       		.uleb128 0x9
 979 02f1 0F040000 		.4byte	.LASF59
 980 02f5 07       		.byte	0x7
 981 02f6 9401     		.2byte	0x194
 982 02f8 CD040000 		.4byte	0x4cd
 983 02fc 0C       		.byte	0xc
 984 02fd 09       		.uleb128 0x9
 985 02fe 4E020000 		.4byte	.LASF60
 986 0302 07       		.byte	0x7
 987 0303 9701     		.2byte	0x197
 988 0305 64020000 		.4byte	0x264
 989 0309 10       		.byte	0x10
 990 030a 09       		.uleb128 0x9
 991 030b 30040000 		.4byte	.LASF61
 992 030f 07       		.byte	0x7
 993 0310 9801     		.2byte	0x198
 994 0312 64020000 		.4byte	0x264
 995 0316 14       		.byte	0x14
 996 0317 09       		.uleb128 0x9
 997 0318 26040000 		.4byte	.LASF62
 998 031c 07       		.byte	0x7
 999 031d 9B01     		.2byte	0x19b
 1000 031f 64020000 		.4byte	0x264
 1001 0323 18       		.byte	0x18
 1002 0324 00       		.byte	0
 1003 0325 03       		.uleb128 0x3
 1004 0326 9C050000 		.4byte	.LASF63
 1005 032a 06       		.byte	0x6
 1006 032b 5C       		.byte	0x5c
 1007 032c 30030000 		.4byte	0x330
 1008 0330 0A       		.uleb128 0xa
 1009 0331 04       		.byte	0x4
 1010 0332 36030000 		.4byte	0x336
 1011 0336 0C       		.uleb128 0xc
 1012 0337 41030000 		.4byte	0x341
 1013 033b 0D       		.uleb128 0xd
 1014 033c 41030000 		.4byte	0x341
 1015 0340 00       		.byte	0
ARM GAS  /tmp/ccYdJoxU.s 			page 19


 1016 0341 0E       		.uleb128 0xe
 1017 0342 04       		.byte	0x4
 1018 0343 03       		.uleb128 0x3
 1019 0344 60040000 		.4byte	.LASF64
 1020 0348 06       		.byte	0x6
 1021 0349 61       		.byte	0x61
 1022 034a 4E030000 		.4byte	0x34e
 1023 034e 0B       		.uleb128 0xb
 1024 034f C9050000 		.4byte	.LASF65
 1025 0353 14       		.byte	0x14
 1026 0354 07       		.byte	0x7
 1027 0355 6B01     		.2byte	0x16b
 1028 0357 9D030000 		.4byte	0x39d
 1029 035b 09       		.uleb128 0x9
 1030 035c B5020000 		.4byte	.LASF66
 1031 0360 07       		.byte	0x7
 1032 0361 6C01     		.2byte	0x16c
 1033 0363 89070000 		.4byte	0x789
 1034 0367 00       		.byte	0
 1035 0368 09       		.uleb128 0x9
 1036 0369 5F020000 		.4byte	.LASF67
 1037 036d 07       		.byte	0x7
 1038 036e 6D01     		.2byte	0x16d
 1039 0370 89070000 		.4byte	0x789
 1040 0374 04       		.byte	0x4
 1041 0375 09       		.uleb128 0x9
 1042 0376 30050000 		.4byte	.LASF68
 1043 037a 07       		.byte	0x7
 1044 037b 6E01     		.2byte	0x16e
 1045 037d 3D010000 		.4byte	0x13d
 1046 0381 08       		.byte	0x8
 1047 0382 09       		.uleb128 0x9
 1048 0383 AD060000 		.4byte	.LASF69
 1049 0387 07       		.byte	0x7
 1050 0388 6F01     		.2byte	0x16f
 1051 038a 25030000 		.4byte	0x325
 1052 038e 0C       		.byte	0xc
 1053 038f 09       		.uleb128 0x9
 1054 0390 EF050000 		.4byte	.LASF70
 1055 0394 07       		.byte	0x7
 1056 0395 7101     		.2byte	0x171
 1057 0397 41030000 		.4byte	0x341
 1058 039b 10       		.byte	0x10
 1059 039c 00       		.byte	0
 1060 039d 03       		.uleb128 0x3
 1061 039e CF000000 		.4byte	.LASF71
 1062 03a2 06       		.byte	0x6
 1063 03a3 66       		.byte	0x66
 1064 03a4 A8030000 		.4byte	0x3a8
 1065 03a8 0B       		.uleb128 0xb
 1066 03a9 CE030000 		.4byte	.LASF72
 1067 03ad 10       		.byte	0x10
 1068 03ae 07       		.byte	0x7
 1069 03af 7B01     		.2byte	0x17b
 1070 03b1 EA030000 		.4byte	0x3ea
 1071 03b5 09       		.uleb128 0x9
 1072 03b6 B5020000 		.4byte	.LASF66
ARM GAS  /tmp/ccYdJoxU.s 			page 20


 1073 03ba 07       		.byte	0x7
 1074 03bb 7C01     		.2byte	0x17c
 1075 03bd 89070000 		.4byte	0x789
 1076 03c1 00       		.byte	0
 1077 03c2 09       		.uleb128 0x9
 1078 03c3 5F020000 		.4byte	.LASF67
 1079 03c7 07       		.byte	0x7
 1080 03c8 7E01     		.2byte	0x17e
 1081 03ca 89070000 		.4byte	0x789
 1082 03ce 04       		.byte	0x4
 1083 03cf 09       		.uleb128 0x9
 1084 03d0 30050000 		.4byte	.LASF68
 1085 03d4 07       		.byte	0x7
 1086 03d5 8001     		.2byte	0x180
 1087 03d7 3D010000 		.4byte	0x13d
 1088 03db 08       		.byte	0x8
 1089 03dc 09       		.uleb128 0x9
 1090 03dd FB030000 		.4byte	.LASF73
 1091 03e1 07       		.byte	0x7
 1092 03e2 8801     		.2byte	0x188
 1093 03e4 3D010000 		.4byte	0x13d
 1094 03e8 0C       		.byte	0xc
 1095 03e9 00       		.byte	0
 1096 03ea 03       		.uleb128 0x3
 1097 03eb 65000000 		.4byte	.LASF74
 1098 03ef 06       		.byte	0x6
 1099 03f0 6B       		.byte	0x6b
 1100 03f1 F5030000 		.4byte	0x3f5
 1101 03f5 0F       		.uleb128 0xf
 1102 03f6 67020000 		.4byte	.LASF75
 1103 03fa 1404     		.2byte	0x414
 1104 03fc 07       		.byte	0x7
 1105 03fd A201     		.2byte	0x1a2
 1106 03ff 38040000 		.4byte	0x438
 1107 0403 09       		.uleb128 0x9
 1108 0404 B0050000 		.4byte	.LASF76
 1109 0408 07       		.byte	0x7
 1110 0409 AA01     		.2byte	0x1aa
 1111 040b 8F070000 		.4byte	0x78f
 1112 040f 00       		.byte	0
 1113 0410 09       		.uleb128 0x9
 1114 0411 23060000 		.4byte	.LASF77
 1115 0415 07       		.byte	0x7
 1116 0416 AF01     		.2byte	0x1af
 1117 0418 27010000 		.4byte	0x127
 1118 041c 04       		.byte	0x4
 1119 041d 09       		.uleb128 0x9
 1120 041e 7F020000 		.4byte	.LASF78
 1121 0422 07       		.byte	0x7
 1122 0423 B301     		.2byte	0x1b3
 1123 0425 27010000 		.4byte	0x127
 1124 0429 08       		.byte	0x8
 1125 042a 09       		.uleb128 0x9
 1126 042b 6C060000 		.4byte	.LASF79
 1127 042f 07       		.byte	0x7
 1128 0430 B901     		.2byte	0x1b9
 1129 0432 EF050000 		.4byte	0x5ef
ARM GAS  /tmp/ccYdJoxU.s 			page 21


 1130 0436 0C       		.byte	0xc
 1131 0437 00       		.byte	0
 1132 0438 03       		.uleb128 0x3
 1133 0439 24030000 		.4byte	.LASF80
 1134 043d 06       		.byte	0x6
 1135 043e 70       		.byte	0x70
 1136 043f 43040000 		.4byte	0x443
 1137 0443 0F       		.uleb128 0xf
 1138 0444 56010000 		.4byte	.LASF81
 1139 0448 D805     		.2byte	0x5d8
 1140 044a 07       		.byte	0x7
 1141 044b C201     		.2byte	0x1c2
 1142 044d B0040000 		.4byte	0x4b0
 1143 0451 09       		.uleb128 0x9
 1144 0452 2B060000 		.4byte	.LASF82
 1145 0456 07       		.byte	0x7
 1146 0457 C601     		.2byte	0x1c6
 1147 0459 BE020000 		.4byte	0x2be
 1148 045d 00       		.byte	0
 1149 045e 09       		.uleb128 0x9
 1150 045f 49010000 		.4byte	.LASF83
 1151 0463 07       		.byte	0x7
 1152 0464 CA01     		.2byte	0x1ca
 1153 0466 9D030000 		.4byte	0x39d
 1154 046a 1C       		.byte	0x1c
 1155 046b 08       		.uleb128 0x8
 1156 046c 64626700 		.ascii	"dbg\000"
 1157 0470 07       		.byte	0x7
 1158 0471 CE01     		.2byte	0x1ce
 1159 0473 EA030000 		.4byte	0x3ea
 1160 0477 2C       		.byte	0x2c
 1161 0478 10       		.uleb128 0x10
 1162 0479 07030000 		.4byte	.LASF84
 1163 047d 07       		.byte	0x7
 1164 047e D201     		.2byte	0x1d2
 1165 0480 48010000 		.4byte	0x148
 1166 0484 4004     		.2byte	0x440
 1167 0486 11       		.uleb128 0x11
 1168 0487 746D00   		.ascii	"tm\000"
 1169 048a 07       		.byte	0x7
 1170 048b D701     		.2byte	0x1d7
 1171 048d 0F060000 		.4byte	0x60f
 1172 0491 A004     		.2byte	0x4a0
 1173 0493 10       		.uleb128 0x10
 1174 0494 31000000 		.4byte	.LASF85
 1175 0498 07       		.byte	0x7
 1176 0499 DD01     		.2byte	0x1dd
 1177 049b A1060000 		.4byte	0x6a1
 1178 049f A804     		.2byte	0x4a8
 1179 04a1 10       		.uleb128 0x10
 1180 04a2 88020000 		.4byte	.LASF86
 1181 04a6 07       		.byte	0x7
 1182 04a7 E301     		.2byte	0x1e3
 1183 04a9 94070000 		.4byte	0x794
 1184 04ad E004     		.2byte	0x4e0
 1185 04af 00       		.byte	0
 1186 04b0 04       		.uleb128 0x4
ARM GAS  /tmp/ccYdJoxU.s 			page 22


 1187 04b1 04       		.byte	0x4
 1188 04b2 07       		.byte	0x7
 1189 04b3 B2030000 		.4byte	.LASF87
 1190 04b7 03       		.uleb128 0x3
 1191 04b8 56020000 		.4byte	.LASF88
 1192 04bc 08       		.byte	0x8
 1193 04bd 65       		.byte	0x65
 1194 04be 41030000 		.4byte	0x341
 1195 04c2 03       		.uleb128 0x3
 1196 04c3 8C030000 		.4byte	.LASF89
 1197 04c7 08       		.byte	0x8
 1198 04c8 6D       		.byte	0x6d
 1199 04c9 BF000000 		.4byte	0xbf
 1200 04cd 06       		.uleb128 0x6
 1201 04ce C1050000 		.4byte	.LASF90
 1202 04d2 04       		.byte	0x4
 1203 04d3 08       		.byte	0x8
 1204 04d4 89       		.byte	0x89
 1205 04d5 E6040000 		.4byte	0x4e6
 1206 04d9 12       		.uleb128 0x12
 1207 04da 72313300 		.ascii	"r13\000"
 1208 04de 08       		.byte	0x8
 1209 04df 8A       		.byte	0x8a
 1210 04e0 61050000 		.4byte	0x561
 1211 04e4 00       		.byte	0
 1212 04e5 00       		.byte	0
 1213 04e6 06       		.uleb128 0x6
 1214 04e7 48000000 		.4byte	.LASF91
 1215 04eb 24       		.byte	0x24
 1216 04ec 09       		.byte	0x9
 1217 04ed FD       		.byte	0xfd
 1218 04ee 61050000 		.4byte	0x561
 1219 04f2 08       		.uleb128 0x8
 1220 04f3 723400   		.ascii	"r4\000"
 1221 04f6 09       		.byte	0x9
 1222 04f7 1001     		.2byte	0x110
 1223 04f9 B7040000 		.4byte	0x4b7
 1224 04fd 00       		.byte	0
 1225 04fe 08       		.uleb128 0x8
 1226 04ff 723500   		.ascii	"r5\000"
 1227 0502 09       		.byte	0x9
 1228 0503 1101     		.2byte	0x111
 1229 0505 B7040000 		.4byte	0x4b7
 1230 0509 04       		.byte	0x4
 1231 050a 08       		.uleb128 0x8
 1232 050b 723600   		.ascii	"r6\000"
 1233 050e 09       		.byte	0x9
 1234 050f 1201     		.2byte	0x112
 1235 0511 B7040000 		.4byte	0x4b7
 1236 0515 08       		.byte	0x8
 1237 0516 08       		.uleb128 0x8
 1238 0517 723700   		.ascii	"r7\000"
 1239 051a 09       		.byte	0x9
 1240 051b 1301     		.2byte	0x113
 1241 051d B7040000 		.4byte	0x4b7
 1242 0521 0C       		.byte	0xc
 1243 0522 08       		.uleb128 0x8
ARM GAS  /tmp/ccYdJoxU.s 			page 23


 1244 0523 723800   		.ascii	"r8\000"
 1245 0526 09       		.byte	0x9
 1246 0527 1401     		.2byte	0x114
 1247 0529 B7040000 		.4byte	0x4b7
 1248 052d 10       		.byte	0x10
 1249 052e 08       		.uleb128 0x8
 1250 052f 723900   		.ascii	"r9\000"
 1251 0532 09       		.byte	0x9
 1252 0533 1501     		.2byte	0x115
 1253 0535 B7040000 		.4byte	0x4b7
 1254 0539 14       		.byte	0x14
 1255 053a 08       		.uleb128 0x8
 1256 053b 72313000 		.ascii	"r10\000"
 1257 053f 09       		.byte	0x9
 1258 0540 1601     		.2byte	0x116
 1259 0542 B7040000 		.4byte	0x4b7
 1260 0546 18       		.byte	0x18
 1261 0547 08       		.uleb128 0x8
 1262 0548 72313100 		.ascii	"r11\000"
 1263 054c 09       		.byte	0x9
 1264 054d 1701     		.2byte	0x117
 1265 054f B7040000 		.4byte	0x4b7
 1266 0553 1C       		.byte	0x1c
 1267 0554 08       		.uleb128 0x8
 1268 0555 6C7200   		.ascii	"lr\000"
 1269 0558 09       		.byte	0x9
 1270 0559 1801     		.2byte	0x118
 1271 055b B7040000 		.4byte	0x4b7
 1272 055f 20       		.byte	0x20
 1273 0560 00       		.byte	0
 1274 0561 0A       		.uleb128 0xa
 1275 0562 04       		.byte	0x4
 1276 0563 E6040000 		.4byte	0x4e6
 1277 0567 13       		.uleb128 0x13
 1278 0568 10       		.byte	0x10
 1279 0569 0A       		.byte	0xa
 1280 056a 51       		.byte	0x51
 1281 056b A0050000 		.4byte	0x5a0
 1282 056f 07       		.uleb128 0x7
 1283 0570 0D000000 		.4byte	.LASF92
 1284 0574 0A       		.byte	0xa
 1285 0575 55       		.byte	0x55
 1286 0576 3D010000 		.4byte	0x13d
 1287 057a 00       		.byte	0
 1288 057b 07       		.uleb128 0x7
 1289 057c 80010000 		.4byte	.LASF93
 1290 0580 0A       		.byte	0xa
 1291 0581 59       		.byte	0x59
 1292 0582 64020000 		.4byte	0x264
 1293 0586 04       		.byte	0x4
 1294 0587 07       		.uleb128 0x7
 1295 0588 9D060000 		.4byte	.LASF94
 1296 058c 0A       		.byte	0xa
 1297 058d 5D       		.byte	0x5d
 1298 058e 41030000 		.4byte	0x341
 1299 0592 08       		.byte	0x8
 1300 0593 07       		.uleb128 0x7
ARM GAS  /tmp/ccYdJoxU.s 			page 24


 1301 0594 B6000000 		.4byte	.LASF95
 1302 0598 0A       		.byte	0xa
 1303 0599 61       		.byte	0x61
 1304 059a 9E000000 		.4byte	0x9e
 1305 059e 0C       		.byte	0xc
 1306 059f 00       		.byte	0
 1307 05a0 03       		.uleb128 0x3
 1308 05a1 EC030000 		.4byte	.LASF96
 1309 05a5 0A       		.byte	0xa
 1310 05a6 62       		.byte	0x62
 1311 05a7 67050000 		.4byte	0x567
 1312 05ab 14       		.uleb128 0x14
 1313 05ac 0804     		.2byte	0x408
 1314 05ae 0A       		.byte	0xa
 1315 05af 67       		.byte	0x67
 1316 05b0 D9050000 		.4byte	0x5d9
 1317 05b4 07       		.uleb128 0x7
 1318 05b5 46020000 		.4byte	.LASF97
 1319 05b9 0A       		.byte	0xa
 1320 05ba 6B       		.byte	0x6b
 1321 05bb 33000000 		.4byte	0x33
 1322 05bf 00       		.byte	0
 1323 05c0 07       		.uleb128 0x7
 1324 05c1 E5030000 		.4byte	.LASF98
 1325 05c5 0A       		.byte	0xa
 1326 05c6 6F       		.byte	0x6f
 1327 05c7 D9050000 		.4byte	0x5d9
 1328 05cb 04       		.byte	0x4
 1329 05cc 07       		.uleb128 0x7
 1330 05cd 56040000 		.4byte	.LASF99
 1331 05d1 0A       		.byte	0xa
 1332 05d2 73       		.byte	0x73
 1333 05d3 DF050000 		.4byte	0x5df
 1334 05d7 08       		.byte	0x8
 1335 05d8 00       		.byte	0
 1336 05d9 0A       		.uleb128 0xa
 1337 05da 04       		.byte	0x4
 1338 05db A0050000 		.4byte	0x5a0
 1339 05df 15       		.uleb128 0x15
 1340 05e0 A0050000 		.4byte	0x5a0
 1341 05e4 EF050000 		.4byte	0x5ef
 1342 05e8 16       		.uleb128 0x16
 1343 05e9 B0040000 		.4byte	0x4b0
 1344 05ed 3F       		.byte	0x3f
 1345 05ee 00       		.byte	0
 1346 05ef 03       		.uleb128 0x3
 1347 05f0 A4000000 		.4byte	.LASF100
 1348 05f4 0A       		.byte	0xa
 1349 05f5 74       		.byte	0x74
 1350 05f6 AB050000 		.4byte	0x5ab
 1351 05fa 13       		.uleb128 0x13
 1352 05fb 04       		.byte	0x4
 1353 05fc 0B       		.byte	0xb
 1354 05fd 38       		.byte	0x38
 1355 05fe 0F060000 		.4byte	0x60f
 1356 0602 07       		.uleb128 0x7
 1357 0603 BA050000 		.4byte	.LASF101
ARM GAS  /tmp/ccYdJoxU.s 			page 25


 1358 0607 0B       		.byte	0xb
 1359 0608 3C       		.byte	0x3c
 1360 0609 CF000000 		.4byte	0xcf
 1361 060d 00       		.byte	0
 1362 060e 00       		.byte	0
 1363 060f 03       		.uleb128 0x3
 1364 0610 15040000 		.4byte	.LASF102
 1365 0614 0B       		.byte	0xb
 1366 0615 3D       		.byte	0x3d
 1367 0616 FA050000 		.4byte	0x5fa
 1368 061a 13       		.uleb128 0x13
 1369 061b 18       		.byte	0x18
 1370 061c 0B       		.byte	0xb
 1371 061d 48       		.byte	0x48
 1372 061e 5D060000 		.4byte	0x65d
 1373 0622 07       		.uleb128 0x7
 1374 0623 7B050000 		.4byte	.LASF103
 1375 0627 0B       		.byte	0xb
 1376 0628 49       		.byte	0x49
 1377 0629 CF000000 		.4byte	0xcf
 1378 062d 00       		.byte	0
 1379 062e 07       		.uleb128 0x7
 1380 062f 74000000 		.4byte	.LASF104
 1381 0633 0B       		.byte	0xb
 1382 0634 4A       		.byte	0x4a
 1383 0635 CF000000 		.4byte	0xcf
 1384 0639 04       		.byte	0x4
 1385 063a 07       		.uleb128 0x7
 1386 063b 18030000 		.4byte	.LASF105
 1387 063f 0B       		.byte	0xb
 1388 0640 4B       		.byte	0x4b
 1389 0641 CF000000 		.4byte	0xcf
 1390 0645 08       		.byte	0x8
 1391 0646 12       		.uleb128 0x12
 1392 0647 6E00     		.ascii	"n\000"
 1393 0649 0B       		.byte	0xb
 1394 064a 4C       		.byte	0x4c
 1395 064b 32010000 		.4byte	0x132
 1396 064f 0C       		.byte	0xc
 1397 0650 07       		.uleb128 0x7
 1398 0651 43040000 		.4byte	.LASF106
 1399 0655 0B       		.byte	0xb
 1400 0656 4D       		.byte	0x4d
 1401 0657 DA000000 		.4byte	0xda
 1402 065b 10       		.byte	0x10
 1403 065c 00       		.byte	0
 1404 065d 03       		.uleb128 0x3
 1405 065e 7A000000 		.4byte	.LASF107
 1406 0662 0B       		.byte	0xb
 1407 0663 4E       		.byte	0x4e
 1408 0664 1A060000 		.4byte	0x61a
 1409 0668 13       		.uleb128 0x13
 1410 0669 38       		.byte	0x38
 1411 066a 0C       		.byte	0xc
 1412 066b 38       		.byte	0x38
 1413 066c A1060000 		.4byte	0x6a1
 1414 0670 07       		.uleb128 0x7
ARM GAS  /tmp/ccYdJoxU.s 			page 26


 1415 0671 CF020000 		.4byte	.LASF108
 1416 0675 0C       		.byte	0xc
 1417 0676 39       		.byte	0x39
 1418 0677 32010000 		.4byte	0x132
 1419 067b 00       		.byte	0
 1420 067c 07       		.uleb128 0x7
 1421 067d 7F040000 		.4byte	.LASF109
 1422 0681 0C       		.byte	0xc
 1423 0682 3A       		.byte	0x3a
 1424 0683 32010000 		.4byte	0x132
 1425 0687 04       		.byte	0x4
 1426 0688 07       		.uleb128 0x7
 1427 0689 8A060000 		.4byte	.LASF110
 1428 068d 0C       		.byte	0xc
 1429 068e 3B       		.byte	0x3b
 1430 068f 5D060000 		.4byte	0x65d
 1431 0693 08       		.byte	0x8
 1432 0694 07       		.uleb128 0x7
 1433 0695 38030000 		.4byte	.LASF111
 1434 0699 0C       		.byte	0xc
 1435 069a 3D       		.byte	0x3d
 1436 069b 5D060000 		.4byte	0x65d
 1437 069f 20       		.byte	0x20
 1438 06a0 00       		.byte	0
 1439 06a1 03       		.uleb128 0x3
 1440 06a2 EE020000 		.4byte	.LASF112
 1441 06a6 0C       		.byte	0xc
 1442 06a7 3F       		.byte	0x3f
 1443 06a8 68060000 		.4byte	0x668
 1444 06ac 17       		.uleb128 0x17
 1445 06ad 04       		.byte	0x4
 1446 06ae 07       		.byte	0x7
 1447 06af FA       		.byte	0xfa
 1448 06b0 09070000 		.4byte	0x709
 1449 06b4 18       		.uleb128 0x18
 1450 06b5 21000000 		.4byte	.LASF113
 1451 06b9 07       		.byte	0x7
 1452 06ba 0101     		.2byte	0x101
 1453 06bc 11010000 		.4byte	0x111
 1454 06c0 18       		.uleb128 0x18
 1455 06c1 BF000000 		.4byte	.LASF114
 1456 06c5 07       		.byte	0x7
 1457 06c6 0801     		.2byte	0x108
 1458 06c8 11010000 		.4byte	0x111
 1459 06cc 18       		.uleb128 0x18
 1460 06cd 44060000 		.4byte	.LASF115
 1461 06d1 07       		.byte	0x7
 1462 06d2 0F01     		.2byte	0x10f
 1463 06d4 41030000 		.4byte	0x341
 1464 06d8 18       		.uleb128 0x18
 1465 06d9 50010000 		.4byte	.LASF116
 1466 06dd 07       		.byte	0x7
 1467 06de 1601     		.2byte	0x116
 1468 06e0 09070000 		.4byte	0x709
 1469 06e4 18       		.uleb128 0x18
 1470 06e5 BD020000 		.4byte	.LASF117
 1471 06e9 07       		.byte	0x7
ARM GAS  /tmp/ccYdJoxU.s 			page 27


 1472 06ea 1E01     		.2byte	0x11e
 1473 06ec 34070000 		.4byte	0x734
 1474 06f0 18       		.uleb128 0x18
 1475 06f1 21050000 		.4byte	.LASF118
 1476 06f5 07       		.byte	0x7
 1477 06f6 2701     		.2byte	0x127
 1478 06f8 6B070000 		.4byte	0x76b
 1479 06fc 18       		.uleb128 0x18
 1480 06fd CD040000 		.4byte	.LASF119
 1481 0701 07       		.byte	0x7
 1482 0702 2F01     		.2byte	0x12f
 1483 0704 1C010000 		.4byte	0x11c
 1484 0708 00       		.byte	0
 1485 0709 0A       		.uleb128 0xa
 1486 070a 04       		.byte	0x4
 1487 070b 59020000 		.4byte	0x259
 1488 070f 06       		.uleb128 0x6
 1489 0710 00050000 		.4byte	.LASF120
 1490 0714 0C       		.byte	0xc
 1491 0715 0D       		.byte	0xd
 1492 0716 34       		.byte	0x34
 1493 0717 34070000 		.4byte	0x734
 1494 071b 07       		.uleb128 0x7
 1495 071c 3E020000 		.4byte	.LASF121
 1496 0720 0D       		.byte	0xd
 1497 0721 35       		.byte	0x35
 1498 0722 8E020000 		.4byte	0x28e
 1499 0726 00       		.byte	0
 1500 0727 07       		.uleb128 0x7
 1501 0728 D5020000 		.4byte	.LASF122
 1502 072c 0D       		.byte	0xd
 1503 072d 37       		.byte	0x37
 1504 072e 27010000 		.4byte	0x127
 1505 0732 08       		.byte	0x8
 1506 0733 00       		.byte	0
 1507 0734 0A       		.uleb128 0xa
 1508 0735 04       		.byte	0x4
 1509 0736 0F070000 		.4byte	0x70f
 1510 073a 06       		.uleb128 0x6
 1511 073b 13060000 		.4byte	.LASF123
 1512 073f 10       		.byte	0x10
 1513 0740 0E       		.byte	0xe
 1514 0741 39       		.byte	0x39
 1515 0742 6B070000 		.4byte	0x76b
 1516 0746 07       		.uleb128 0x7
 1517 0747 36010000 		.4byte	.LASF124
 1518 074b 0E       		.byte	0xe
 1519 074c 3A       		.byte	0x3a
 1520 074d 8E020000 		.4byte	0x28e
 1521 0751 00       		.byte	0
 1522 0752 07       		.uleb128 0x7
 1523 0753 95060000 		.4byte	.LASF125
 1524 0757 0E       		.byte	0xe
 1525 0758 3C       		.byte	0x3c
 1526 0759 64020000 		.4byte	0x264
 1527 075d 08       		.byte	0x8
 1528 075e 07       		.uleb128 0x7
ARM GAS  /tmp/ccYdJoxU.s 			page 28


 1529 075f 80050000 		.4byte	.LASF126
 1530 0763 0E       		.byte	0xe
 1531 0764 3E       		.byte	0x3e
 1532 0765 AF070000 		.4byte	0x7af
 1533 0769 0C       		.byte	0xc
 1534 076a 00       		.byte	0
 1535 076b 0A       		.uleb128 0xa
 1536 076c 04       		.byte	0x4
 1537 076d 3A070000 		.4byte	0x73a
 1538 0771 0A       		.uleb128 0xa
 1539 0772 04       		.byte	0x4
 1540 0773 77070000 		.4byte	0x777
 1541 0777 19       		.uleb128 0x19
 1542 0778 7C070000 		.4byte	0x77c
 1543 077c 04       		.uleb128 0x4
 1544 077d 01       		.byte	0x1
 1545 077e 08       		.byte	0x8
 1546 077f 6D050000 		.4byte	.LASF127
 1547 0783 0A       		.uleb128 0xa
 1548 0784 04       		.byte	0x4
 1549 0785 C2040000 		.4byte	0x4c2
 1550 0789 0A       		.uleb128 0xa
 1551 078a 04       		.byte	0x4
 1552 078b 43030000 		.4byte	0x343
 1553 078f 05       		.uleb128 0x5
 1554 0790 71070000 		.4byte	0x771
 1555 0794 15       		.uleb128 0x15
 1556 0795 C2040000 		.4byte	0x4c2
 1557 0799 A4070000 		.4byte	0x7a4
 1558 079d 16       		.uleb128 0x16
 1559 079e B0040000 		.4byte	0x4b0
 1560 07a2 1E       		.byte	0x1e
 1561 07a3 00       		.byte	0
 1562 07a4 03       		.uleb128 0x3
 1563 07a5 77020000 		.4byte	.LASF128
 1564 07a9 0E       		.byte	0xe
 1565 07aa 34       		.byte	0x34
 1566 07ab 3A070000 		.4byte	0x73a
 1567 07af 0A       		.uleb128 0xa
 1568 07b0 04       		.byte	0x4
 1569 07b1 A4070000 		.4byte	0x7a4
 1570 07b5 03       		.uleb128 0x3
 1571 07b6 E2050000 		.4byte	.LASF129
 1572 07ba 0F       		.byte	0xf
 1573 07bb 36       		.byte	0x36
 1574 07bc C0070000 		.4byte	0x7c0
 1575 07c0 0A       		.uleb128 0xa
 1576 07c1 04       		.byte	0x4
 1577 07c2 C6070000 		.4byte	0x7c6
 1578 07c6 1A       		.uleb128 0x1a
 1579 07c7 41030000 		.4byte	0x341
 1580 07cb D5070000 		.4byte	0x7d5
 1581 07cf 0D       		.uleb128 0xd
 1582 07d0 28000000 		.4byte	0x28
 1583 07d4 00       		.byte	0
 1584 07d5 03       		.uleb128 0x3
 1585 07d6 72010000 		.4byte	.LASF130
ARM GAS  /tmp/ccYdJoxU.s 			page 29


 1586 07da 10       		.byte	0x10
 1587 07db 3C       		.byte	0x3c
 1588 07dc E0070000 		.4byte	0x7e0
 1589 07e0 06       		.uleb128 0x6
 1590 07e1 B5060000 		.4byte	.LASF131
 1591 07e5 20       		.byte	0x20
 1592 07e6 10       		.byte	0x10
 1593 07e7 4F       		.byte	0x4f
 1594 07e8 11080000 		.4byte	0x811
 1595 07ec 07       		.uleb128 0x7
 1596 07ed 39060000 		.4byte	.LASF132
 1597 07f1 10       		.byte	0x10
 1598 07f2 50       		.byte	0x50
 1599 07f3 B5070000 		.4byte	0x7b5
 1600 07f7 00       		.byte	0
 1601 07f8 07       		.uleb128 0x7
 1602 07f9 C8000000 		.4byte	.LASF133
 1603 07fd 10       		.byte	0x10
 1604 07fe 52       		.byte	0x52
 1605 07ff 30080000 		.4byte	0x830
 1606 0803 08       		.byte	0x8
 1607 0804 07       		.uleb128 0x7
 1608 0805 28010000 		.4byte	.LASF134
 1609 0809 10       		.byte	0x10
 1610 080a 54       		.byte	0x54
 1611 080b A4070000 		.4byte	0x7a4
 1612 080f 10       		.byte	0x10
 1613 0810 00       		.byte	0
 1614 0811 17       		.uleb128 0x17
 1615 0812 04       		.byte	0x4
 1616 0813 10       		.byte	0x10
 1617 0814 44       		.byte	0x44
 1618 0815 30080000 		.4byte	0x830
 1619 0819 1B       		.uleb128 0x1b
 1620 081a 1C000000 		.4byte	.LASF135
 1621 081e 10       		.byte	0x10
 1622 081f 45       		.byte	0x45
 1623 0820 51080000 		.4byte	0x851
 1624 0824 1B       		.uleb128 0x1b
 1625 0825 49050000 		.4byte	.LASF136
 1626 0829 10       		.byte	0x10
 1627 082a 46       		.byte	0x46
 1628 082b 57080000 		.4byte	0x857
 1629 082f 00       		.byte	0
 1630 0830 1C       		.uleb128 0x1c
 1631 0831 9E040000 		.4byte	.LASF150
 1632 0835 08       		.byte	0x8
 1633 0836 10       		.byte	0x10
 1634 0837 41       		.byte	0x41
 1635 0838 51080000 		.4byte	0x851
 1636 083c 1B       		.uleb128 0x1b
 1637 083d F8000000 		.4byte	.LASF137
 1638 0841 10       		.byte	0x10
 1639 0842 42       		.byte	0x42
 1640 0843 C2040000 		.4byte	0x4c2
 1641 0847 1D       		.uleb128 0x1d
 1642 0848 6800     		.ascii	"h\000"
ARM GAS  /tmp/ccYdJoxU.s 			page 30


 1643 084a 10       		.byte	0x10
 1644 084b 49       		.byte	0x49
 1645 084c 5D080000 		.4byte	0x85d
 1646 0850 00       		.byte	0
 1647 0851 0A       		.uleb128 0xa
 1648 0852 04       		.byte	0x4
 1649 0853 30080000 		.4byte	0x830
 1650 0857 0A       		.uleb128 0xa
 1651 0858 04       		.byte	0x4
 1652 0859 D5070000 		.4byte	0x7d5
 1653 085d 13       		.uleb128 0x13
 1654 085e 08       		.byte	0x8
 1655 085f 10       		.byte	0x10
 1656 0860 43       		.byte	0x43
 1657 0861 7C080000 		.4byte	0x87c
 1658 0865 12       		.uleb128 0x12
 1659 0866 7500     		.ascii	"u\000"
 1660 0868 10       		.byte	0x10
 1661 0869 47       		.byte	0x47
 1662 086a 11080000 		.4byte	0x811
 1663 086e 00       		.byte	0
 1664 086f 07       		.uleb128 0x7
 1665 0870 58060000 		.4byte	.LASF138
 1666 0874 10       		.byte	0x10
 1667 0875 48       		.byte	0x48
 1668 0876 28000000 		.4byte	0x28
 1669 087a 04       		.byte	0x4
 1670 087b 00       		.byte	0
 1671 087c 1E       		.uleb128 0x1e
 1672 087d 79060000 		.4byte	.LASF151
 1673 0881 01       		.byte	0x1
 1674 0882 5B       		.byte	0x5b
 1675 0883 00000000 		.4byte	.LFB240
 1676 0887 28000000 		.4byte	.LFE240-.LFB240
 1677 088b 01       		.uleb128 0x1
 1678 088c 9C       		.byte	0x9c
 1679 088d 1F       		.uleb128 0x1f
 1680 088e 97030000 		.4byte	.LASF140
 1681 0892 01       		.byte	0x1
 1682 0893 72       		.byte	0x72
 1683 0894 00000000 		.4byte	.LFB241
 1684 0898 60000000 		.4byte	.LFE241-.LFB241
 1685 089c 01       		.uleb128 0x1
 1686 089d 9C       		.byte	0x9c
 1687 089e E9080000 		.4byte	0x8e9
 1688 08a2 20       		.uleb128 0x20
 1689 08a3 F2000000 		.4byte	.LASF139
 1690 08a7 01       		.byte	0x1
 1691 08a8 72       		.byte	0x72
 1692 08a9 57080000 		.4byte	0x857
 1693 08ad 02       		.uleb128 0x2
 1694 08ae 91       		.byte	0x91
 1695 08af 6C       		.sleb128 -20
 1696 08b0 21       		.uleb128 0x21
 1697 08b1 62756600 		.ascii	"buf\000"
 1698 08b5 01       		.byte	0x1
 1699 08b6 72       		.byte	0x72
ARM GAS  /tmp/ccYdJoxU.s 			page 31


 1700 08b7 41030000 		.4byte	0x341
 1701 08bb 02       		.uleb128 0x2
 1702 08bc 91       		.byte	0x91
 1703 08bd 68       		.sleb128 -24
 1704 08be 20       		.uleb128 0x20
 1705 08bf 58060000 		.4byte	.LASF138
 1706 08c3 01       		.byte	0x1
 1707 08c4 72       		.byte	0x72
 1708 08c5 28000000 		.4byte	0x28
 1709 08c9 02       		.uleb128 0x2
 1710 08ca 91       		.byte	0x91
 1711 08cb 64       		.sleb128 -28
 1712 08cc 22       		.uleb128 0x22
 1713 08cd 687000   		.ascii	"hp\000"
 1714 08d0 01       		.byte	0x1
 1715 08d1 73       		.byte	0x73
 1716 08d2 51080000 		.4byte	0x851
 1717 08d6 02       		.uleb128 0x2
 1718 08d7 91       		.byte	0x91
 1719 08d8 74       		.sleb128 -12
 1720 08d9 23       		.uleb128 0x23
 1721 08da E3040000 		.4byte	.LASF142
 1722 08de F9080000 		.4byte	0x8f9
 1723 08e2 05       		.uleb128 0x5
 1724 08e3 03       		.byte	0x3
 1725 08e4 00000000 		.4byte	__func__.6627
 1726 08e8 00       		.byte	0
 1727 08e9 15       		.uleb128 0x15
 1728 08ea 7C070000 		.4byte	0x77c
 1729 08ee F9080000 		.4byte	0x8f9
 1730 08f2 16       		.uleb128 0x16
 1731 08f3 B0040000 		.4byte	0x4b0
 1732 08f7 10       		.byte	0x10
 1733 08f8 00       		.byte	0
 1734 08f9 19       		.uleb128 0x19
 1735 08fa E9080000 		.4byte	0x8e9
 1736 08fe 24       		.uleb128 0x24
 1737 08ff F4040000 		.4byte	.LASF143
 1738 0903 01       		.byte	0x1
 1739 0904 93       		.byte	0x93
 1740 0905 41030000 		.4byte	0x341
 1741 0909 00000000 		.4byte	.LFB242
 1742 090d F0000000 		.4byte	.LFE242-.LFB242
 1743 0911 01       		.uleb128 0x1
 1744 0912 9C       		.byte	0x9c
 1745 0913 5B090000 		.4byte	0x95b
 1746 0917 20       		.uleb128 0x20
 1747 0918 F2000000 		.4byte	.LASF139
 1748 091c 01       		.byte	0x1
 1749 091d 93       		.byte	0x93
 1750 091e 57080000 		.4byte	0x857
 1751 0922 02       		.uleb128 0x2
 1752 0923 91       		.byte	0x91
 1753 0924 64       		.sleb128 -28
 1754 0925 20       		.uleb128 0x20
 1755 0926 58060000 		.4byte	.LASF138
 1756 092a 01       		.byte	0x1
ARM GAS  /tmp/ccYdJoxU.s 			page 32


 1757 092b 93       		.byte	0x93
 1758 092c 28000000 		.4byte	0x28
 1759 0930 02       		.uleb128 0x2
 1760 0931 91       		.byte	0x91
 1761 0932 60       		.sleb128 -32
 1762 0933 22       		.uleb128 0x22
 1763 0934 717000   		.ascii	"qp\000"
 1764 0937 01       		.byte	0x1
 1765 0938 94       		.byte	0x94
 1766 0939 51080000 		.4byte	0x851
 1767 093d 02       		.uleb128 0x2
 1768 093e 91       		.byte	0x91
 1769 093f 74       		.sleb128 -12
 1770 0940 22       		.uleb128 0x22
 1771 0941 687000   		.ascii	"hp\000"
 1772 0944 01       		.byte	0x1
 1773 0945 94       		.byte	0x94
 1774 0946 51080000 		.4byte	0x851
 1775 094a 02       		.uleb128 0x2
 1776 094b 91       		.byte	0x91
 1777 094c 70       		.sleb128 -16
 1778 094d 22       		.uleb128 0x22
 1779 094e 667000   		.ascii	"fp\000"
 1780 0951 01       		.byte	0x1
 1781 0952 94       		.byte	0x94
 1782 0953 51080000 		.4byte	0x851
 1783 0957 02       		.uleb128 0x2
 1784 0958 91       		.byte	0x91
 1785 0959 6C       		.sleb128 -20
 1786 095a 00       		.byte	0
 1787 095b 1F       		.uleb128 0x1f
 1788 095c 3E010000 		.4byte	.LASF141
 1789 0960 01       		.byte	0x1
 1790 0961 D5       		.byte	0xd5
 1791 0962 00000000 		.4byte	.LFB243
 1792 0966 FC000000 		.4byte	.LFE243-.LFB243
 1793 096a 01       		.uleb128 0x1
 1794 096b 9C       		.byte	0x9c
 1795 096c B4090000 		.4byte	0x9b4
 1796 0970 21       		.uleb128 0x21
 1797 0971 7000     		.ascii	"p\000"
 1798 0973 01       		.byte	0x1
 1799 0974 D5       		.byte	0xd5
 1800 0975 41030000 		.4byte	0x341
 1801 0979 02       		.uleb128 0x2
 1802 097a 91       		.byte	0x91
 1803 097b 64       		.sleb128 -28
 1804 097c 22       		.uleb128 0x22
 1805 097d 717000   		.ascii	"qp\000"
 1806 0980 01       		.byte	0x1
 1807 0981 D6       		.byte	0xd6
 1808 0982 51080000 		.4byte	0x851
 1809 0986 02       		.uleb128 0x2
 1810 0987 91       		.byte	0x91
 1811 0988 74       		.sleb128 -12
 1812 0989 22       		.uleb128 0x22
 1813 098a 687000   		.ascii	"hp\000"
ARM GAS  /tmp/ccYdJoxU.s 			page 33


 1814 098d 01       		.byte	0x1
 1815 098e D6       		.byte	0xd6
 1816 098f 51080000 		.4byte	0x851
 1817 0993 02       		.uleb128 0x2
 1818 0994 91       		.byte	0x91
 1819 0995 70       		.sleb128 -16
 1820 0996 25       		.uleb128 0x25
 1821 0997 F2000000 		.4byte	.LASF139
 1822 099b 01       		.byte	0x1
 1823 099c D7       		.byte	0xd7
 1824 099d 57080000 		.4byte	0x857
 1825 09a1 02       		.uleb128 0x2
 1826 09a2 91       		.byte	0x91
 1827 09a3 6C       		.sleb128 -20
 1828 09a4 23       		.uleb128 0x23
 1829 09a5 E3040000 		.4byte	.LASF142
 1830 09a9 C4090000 		.4byte	0x9c4
 1831 09ad 05       		.uleb128 0x5
 1832 09ae 03       		.byte	0x3
 1833 09af 00000000 		.4byte	__func__.6644
 1834 09b3 00       		.byte	0
 1835 09b4 15       		.uleb128 0x15
 1836 09b5 7C070000 		.4byte	0x77c
 1837 09b9 C4090000 		.4byte	0x9c4
 1838 09bd 16       		.uleb128 0x16
 1839 09be B0040000 		.4byte	0x4b0
 1840 09c2 0A       		.byte	0xa
 1841 09c3 00       		.byte	0
 1842 09c4 19       		.uleb128 0x19
 1843 09c5 B4090000 		.4byte	0x9b4
 1844 09c9 26       		.uleb128 0x26
 1845 09ca F6050000 		.4byte	.LASF144
 1846 09ce 01       		.byte	0x1
 1847 09cf 0B01     		.2byte	0x10b
 1848 09d1 28000000 		.4byte	0x28
 1849 09d5 00000000 		.4byte	.LFB244
 1850 09d9 70000000 		.4byte	.LFE244-.LFB244
 1851 09dd 01       		.uleb128 0x1
 1852 09de 9C       		.byte	0x9c
 1853 09df 2B0A0000 		.4byte	0xa2b
 1854 09e3 27       		.uleb128 0x27
 1855 09e4 F2000000 		.4byte	.LASF139
 1856 09e8 01       		.byte	0x1
 1857 09e9 0B01     		.2byte	0x10b
 1858 09eb 57080000 		.4byte	0x857
 1859 09ef 02       		.uleb128 0x2
 1860 09f0 91       		.byte	0x91
 1861 09f1 64       		.sleb128 -28
 1862 09f2 27       		.uleb128 0x27
 1863 09f3 4B060000 		.4byte	.LASF145
 1864 09f7 01       		.byte	0x1
 1865 09f8 0B01     		.2byte	0x10b
 1866 09fa 2B0A0000 		.4byte	0xa2b
 1867 09fe 02       		.uleb128 0x2
 1868 09ff 91       		.byte	0x91
 1869 0a00 60       		.sleb128 -32
 1870 0a01 28       		.uleb128 0x28
ARM GAS  /tmp/ccYdJoxU.s 			page 34


 1871 0a02 717000   		.ascii	"qp\000"
 1872 0a05 01       		.byte	0x1
 1873 0a06 0C01     		.2byte	0x10c
 1874 0a08 51080000 		.4byte	0x851
 1875 0a0c 02       		.uleb128 0x2
 1876 0a0d 91       		.byte	0x91
 1877 0a0e 74       		.sleb128 -12
 1878 0a0f 28       		.uleb128 0x28
 1879 0a10 6E00     		.ascii	"n\000"
 1880 0a12 01       		.byte	0x1
 1881 0a13 0D01     		.2byte	0x10d
 1882 0a15 28000000 		.4byte	0x28
 1883 0a19 02       		.uleb128 0x2
 1884 0a1a 91       		.byte	0x91
 1885 0a1b 70       		.sleb128 -16
 1886 0a1c 28       		.uleb128 0x28
 1887 0a1d 737A00   		.ascii	"sz\000"
 1888 0a20 01       		.byte	0x1
 1889 0a21 0D01     		.2byte	0x10d
 1890 0a23 28000000 		.4byte	0x28
 1891 0a27 02       		.uleb128 0x2
 1892 0a28 91       		.byte	0x91
 1893 0a29 6C       		.sleb128 -20
 1894 0a2a 00       		.byte	0
 1895 0a2b 0A       		.uleb128 0xa
 1896 0a2c 04       		.byte	0x4
 1897 0a2d 28000000 		.4byte	0x28
 1898 0a31 25       		.uleb128 0x25
 1899 0a32 60050000 		.4byte	.LASF146
 1900 0a36 01       		.byte	0x1
 1901 0a37 4C       		.byte	0x4c
 1902 0a38 D5070000 		.4byte	0x7d5
 1903 0a3c 05       		.uleb128 0x5
 1904 0a3d 03       		.byte	0x3
 1905 0a3e 00000000 		.4byte	default_heap
 1906 0a42 29       		.uleb128 0x29
 1907 0a43 E5000000 		.4byte	.LASF147
 1908 0a47 11       		.byte	0x11
 1909 0a48 FA06     		.2byte	0x6fa
 1910 0a4a CA000000 		.4byte	0xca
 1911 0a4e 2A       		.uleb128 0x2a
 1912 0a4f 636800   		.ascii	"ch\000"
 1913 0a52 07       		.byte	0x7
 1914 0a53 0902     		.2byte	0x209
 1915 0a55 38040000 		.4byte	0x438
 1916 0a59 00       		.byte	0
 1917              		.section	.debug_abbrev,"",%progbits
 1918              	.Ldebug_abbrev0:
 1919 0000 01       		.uleb128 0x1
 1920 0001 11       		.uleb128 0x11
 1921 0002 01       		.byte	0x1
 1922 0003 25       		.uleb128 0x25
 1923 0004 0E       		.uleb128 0xe
 1924 0005 13       		.uleb128 0x13
 1925 0006 0B       		.uleb128 0xb
 1926 0007 03       		.uleb128 0x3
 1927 0008 0E       		.uleb128 0xe
ARM GAS  /tmp/ccYdJoxU.s 			page 35


 1928 0009 55       		.uleb128 0x55
 1929 000a 17       		.uleb128 0x17
 1930 000b 11       		.uleb128 0x11
 1931 000c 01       		.uleb128 0x1
 1932 000d 10       		.uleb128 0x10
 1933 000e 17       		.uleb128 0x17
 1934 000f 00       		.byte	0
 1935 0010 00       		.byte	0
 1936 0011 02       		.uleb128 0x2
 1937 0012 24       		.uleb128 0x24
 1938 0013 00       		.byte	0
 1939 0014 0B       		.uleb128 0xb
 1940 0015 0B       		.uleb128 0xb
 1941 0016 3E       		.uleb128 0x3e
 1942 0017 0B       		.uleb128 0xb
 1943 0018 03       		.uleb128 0x3
 1944 0019 08       		.uleb128 0x8
 1945 001a 00       		.byte	0
 1946 001b 00       		.byte	0
 1947 001c 03       		.uleb128 0x3
 1948 001d 16       		.uleb128 0x16
 1949 001e 00       		.byte	0
 1950 001f 03       		.uleb128 0x3
 1951 0020 0E       		.uleb128 0xe
 1952 0021 3A       		.uleb128 0x3a
 1953 0022 0B       		.uleb128 0xb
 1954 0023 3B       		.uleb128 0x3b
 1955 0024 0B       		.uleb128 0xb
 1956 0025 49       		.uleb128 0x49
 1957 0026 13       		.uleb128 0x13
 1958 0027 00       		.byte	0
 1959 0028 00       		.byte	0
 1960 0029 04       		.uleb128 0x4
 1961 002a 24       		.uleb128 0x24
 1962 002b 00       		.byte	0
 1963 002c 0B       		.uleb128 0xb
 1964 002d 0B       		.uleb128 0xb
 1965 002e 3E       		.uleb128 0x3e
 1966 002f 0B       		.uleb128 0xb
 1967 0030 03       		.uleb128 0x3
 1968 0031 0E       		.uleb128 0xe
 1969 0032 00       		.byte	0
 1970 0033 00       		.byte	0
 1971 0034 05       		.uleb128 0x5
 1972 0035 35       		.uleb128 0x35
 1973 0036 00       		.byte	0
 1974 0037 49       		.uleb128 0x49
 1975 0038 13       		.uleb128 0x13
 1976 0039 00       		.byte	0
 1977 003a 00       		.byte	0
 1978 003b 06       		.uleb128 0x6
 1979 003c 13       		.uleb128 0x13
 1980 003d 01       		.byte	0x1
 1981 003e 03       		.uleb128 0x3
 1982 003f 0E       		.uleb128 0xe
 1983 0040 0B       		.uleb128 0xb
 1984 0041 0B       		.uleb128 0xb
ARM GAS  /tmp/ccYdJoxU.s 			page 36


 1985 0042 3A       		.uleb128 0x3a
 1986 0043 0B       		.uleb128 0xb
 1987 0044 3B       		.uleb128 0x3b
 1988 0045 0B       		.uleb128 0xb
 1989 0046 01       		.uleb128 0x1
 1990 0047 13       		.uleb128 0x13
 1991 0048 00       		.byte	0
 1992 0049 00       		.byte	0
 1993 004a 07       		.uleb128 0x7
 1994 004b 0D       		.uleb128 0xd
 1995 004c 00       		.byte	0
 1996 004d 03       		.uleb128 0x3
 1997 004e 0E       		.uleb128 0xe
 1998 004f 3A       		.uleb128 0x3a
 1999 0050 0B       		.uleb128 0xb
 2000 0051 3B       		.uleb128 0x3b
 2001 0052 0B       		.uleb128 0xb
 2002 0053 49       		.uleb128 0x49
 2003 0054 13       		.uleb128 0x13
 2004 0055 38       		.uleb128 0x38
 2005 0056 0B       		.uleb128 0xb
 2006 0057 00       		.byte	0
 2007 0058 00       		.byte	0
 2008 0059 08       		.uleb128 0x8
 2009 005a 0D       		.uleb128 0xd
 2010 005b 00       		.byte	0
 2011 005c 03       		.uleb128 0x3
 2012 005d 08       		.uleb128 0x8
 2013 005e 3A       		.uleb128 0x3a
 2014 005f 0B       		.uleb128 0xb
 2015 0060 3B       		.uleb128 0x3b
 2016 0061 05       		.uleb128 0x5
 2017 0062 49       		.uleb128 0x49
 2018 0063 13       		.uleb128 0x13
 2019 0064 38       		.uleb128 0x38
 2020 0065 0B       		.uleb128 0xb
 2021 0066 00       		.byte	0
 2022 0067 00       		.byte	0
 2023 0068 09       		.uleb128 0x9
 2024 0069 0D       		.uleb128 0xd
 2025 006a 00       		.byte	0
 2026 006b 03       		.uleb128 0x3
 2027 006c 0E       		.uleb128 0xe
 2028 006d 3A       		.uleb128 0x3a
 2029 006e 0B       		.uleb128 0xb
 2030 006f 3B       		.uleb128 0x3b
 2031 0070 05       		.uleb128 0x5
 2032 0071 49       		.uleb128 0x49
 2033 0072 13       		.uleb128 0x13
 2034 0073 38       		.uleb128 0x38
 2035 0074 0B       		.uleb128 0xb
 2036 0075 00       		.byte	0
 2037 0076 00       		.byte	0
 2038 0077 0A       		.uleb128 0xa
 2039 0078 0F       		.uleb128 0xf
 2040 0079 00       		.byte	0
 2041 007a 0B       		.uleb128 0xb
ARM GAS  /tmp/ccYdJoxU.s 			page 37


 2042 007b 0B       		.uleb128 0xb
 2043 007c 49       		.uleb128 0x49
 2044 007d 13       		.uleb128 0x13
 2045 007e 00       		.byte	0
 2046 007f 00       		.byte	0
 2047 0080 0B       		.uleb128 0xb
 2048 0081 13       		.uleb128 0x13
 2049 0082 01       		.byte	0x1
 2050 0083 03       		.uleb128 0x3
 2051 0084 0E       		.uleb128 0xe
 2052 0085 0B       		.uleb128 0xb
 2053 0086 0B       		.uleb128 0xb
 2054 0087 3A       		.uleb128 0x3a
 2055 0088 0B       		.uleb128 0xb
 2056 0089 3B       		.uleb128 0x3b
 2057 008a 05       		.uleb128 0x5
 2058 008b 01       		.uleb128 0x1
 2059 008c 13       		.uleb128 0x13
 2060 008d 00       		.byte	0
 2061 008e 00       		.byte	0
 2062 008f 0C       		.uleb128 0xc
 2063 0090 15       		.uleb128 0x15
 2064 0091 01       		.byte	0x1
 2065 0092 27       		.uleb128 0x27
 2066 0093 19       		.uleb128 0x19
 2067 0094 01       		.uleb128 0x1
 2068 0095 13       		.uleb128 0x13
 2069 0096 00       		.byte	0
 2070 0097 00       		.byte	0
 2071 0098 0D       		.uleb128 0xd
 2072 0099 05       		.uleb128 0x5
 2073 009a 00       		.byte	0
 2074 009b 49       		.uleb128 0x49
 2075 009c 13       		.uleb128 0x13
 2076 009d 00       		.byte	0
 2077 009e 00       		.byte	0
 2078 009f 0E       		.uleb128 0xe
 2079 00a0 0F       		.uleb128 0xf
 2080 00a1 00       		.byte	0
 2081 00a2 0B       		.uleb128 0xb
 2082 00a3 0B       		.uleb128 0xb
 2083 00a4 00       		.byte	0
 2084 00a5 00       		.byte	0
 2085 00a6 0F       		.uleb128 0xf
 2086 00a7 13       		.uleb128 0x13
 2087 00a8 01       		.byte	0x1
 2088 00a9 03       		.uleb128 0x3
 2089 00aa 0E       		.uleb128 0xe
 2090 00ab 0B       		.uleb128 0xb
 2091 00ac 05       		.uleb128 0x5
 2092 00ad 3A       		.uleb128 0x3a
 2093 00ae 0B       		.uleb128 0xb
 2094 00af 3B       		.uleb128 0x3b
 2095 00b0 05       		.uleb128 0x5
 2096 00b1 01       		.uleb128 0x1
 2097 00b2 13       		.uleb128 0x13
 2098 00b3 00       		.byte	0
ARM GAS  /tmp/ccYdJoxU.s 			page 38


 2099 00b4 00       		.byte	0
 2100 00b5 10       		.uleb128 0x10
 2101 00b6 0D       		.uleb128 0xd
 2102 00b7 00       		.byte	0
 2103 00b8 03       		.uleb128 0x3
 2104 00b9 0E       		.uleb128 0xe
 2105 00ba 3A       		.uleb128 0x3a
 2106 00bb 0B       		.uleb128 0xb
 2107 00bc 3B       		.uleb128 0x3b
 2108 00bd 05       		.uleb128 0x5
 2109 00be 49       		.uleb128 0x49
 2110 00bf 13       		.uleb128 0x13
 2111 00c0 38       		.uleb128 0x38
 2112 00c1 05       		.uleb128 0x5
 2113 00c2 00       		.byte	0
 2114 00c3 00       		.byte	0
 2115 00c4 11       		.uleb128 0x11
 2116 00c5 0D       		.uleb128 0xd
 2117 00c6 00       		.byte	0
 2118 00c7 03       		.uleb128 0x3
 2119 00c8 08       		.uleb128 0x8
 2120 00c9 3A       		.uleb128 0x3a
 2121 00ca 0B       		.uleb128 0xb
 2122 00cb 3B       		.uleb128 0x3b
 2123 00cc 05       		.uleb128 0x5
 2124 00cd 49       		.uleb128 0x49
 2125 00ce 13       		.uleb128 0x13
 2126 00cf 38       		.uleb128 0x38
 2127 00d0 05       		.uleb128 0x5
 2128 00d1 00       		.byte	0
 2129 00d2 00       		.byte	0
 2130 00d3 12       		.uleb128 0x12
 2131 00d4 0D       		.uleb128 0xd
 2132 00d5 00       		.byte	0
 2133 00d6 03       		.uleb128 0x3
 2134 00d7 08       		.uleb128 0x8
 2135 00d8 3A       		.uleb128 0x3a
 2136 00d9 0B       		.uleb128 0xb
 2137 00da 3B       		.uleb128 0x3b
 2138 00db 0B       		.uleb128 0xb
 2139 00dc 49       		.uleb128 0x49
 2140 00dd 13       		.uleb128 0x13
 2141 00de 38       		.uleb128 0x38
 2142 00df 0B       		.uleb128 0xb
 2143 00e0 00       		.byte	0
 2144 00e1 00       		.byte	0
 2145 00e2 13       		.uleb128 0x13
 2146 00e3 13       		.uleb128 0x13
 2147 00e4 01       		.byte	0x1
 2148 00e5 0B       		.uleb128 0xb
 2149 00e6 0B       		.uleb128 0xb
 2150 00e7 3A       		.uleb128 0x3a
 2151 00e8 0B       		.uleb128 0xb
 2152 00e9 3B       		.uleb128 0x3b
 2153 00ea 0B       		.uleb128 0xb
 2154 00eb 01       		.uleb128 0x1
 2155 00ec 13       		.uleb128 0x13
ARM GAS  /tmp/ccYdJoxU.s 			page 39


 2156 00ed 00       		.byte	0
 2157 00ee 00       		.byte	0
 2158 00ef 14       		.uleb128 0x14
 2159 00f0 13       		.uleb128 0x13
 2160 00f1 01       		.byte	0x1
 2161 00f2 0B       		.uleb128 0xb
 2162 00f3 05       		.uleb128 0x5
 2163 00f4 3A       		.uleb128 0x3a
 2164 00f5 0B       		.uleb128 0xb
 2165 00f6 3B       		.uleb128 0x3b
 2166 00f7 0B       		.uleb128 0xb
 2167 00f8 01       		.uleb128 0x1
 2168 00f9 13       		.uleb128 0x13
 2169 00fa 00       		.byte	0
 2170 00fb 00       		.byte	0
 2171 00fc 15       		.uleb128 0x15
 2172 00fd 01       		.uleb128 0x1
 2173 00fe 01       		.byte	0x1
 2174 00ff 49       		.uleb128 0x49
 2175 0100 13       		.uleb128 0x13
 2176 0101 01       		.uleb128 0x1
 2177 0102 13       		.uleb128 0x13
 2178 0103 00       		.byte	0
 2179 0104 00       		.byte	0
 2180 0105 16       		.uleb128 0x16
 2181 0106 21       		.uleb128 0x21
 2182 0107 00       		.byte	0
 2183 0108 49       		.uleb128 0x49
 2184 0109 13       		.uleb128 0x13
 2185 010a 2F       		.uleb128 0x2f
 2186 010b 0B       		.uleb128 0xb
 2187 010c 00       		.byte	0
 2188 010d 00       		.byte	0
 2189 010e 17       		.uleb128 0x17
 2190 010f 17       		.uleb128 0x17
 2191 0110 01       		.byte	0x1
 2192 0111 0B       		.uleb128 0xb
 2193 0112 0B       		.uleb128 0xb
 2194 0113 3A       		.uleb128 0x3a
 2195 0114 0B       		.uleb128 0xb
 2196 0115 3B       		.uleb128 0x3b
 2197 0116 0B       		.uleb128 0xb
 2198 0117 01       		.uleb128 0x1
 2199 0118 13       		.uleb128 0x13
 2200 0119 00       		.byte	0
 2201 011a 00       		.byte	0
 2202 011b 18       		.uleb128 0x18
 2203 011c 0D       		.uleb128 0xd
 2204 011d 00       		.byte	0
 2205 011e 03       		.uleb128 0x3
 2206 011f 0E       		.uleb128 0xe
 2207 0120 3A       		.uleb128 0x3a
 2208 0121 0B       		.uleb128 0xb
 2209 0122 3B       		.uleb128 0x3b
 2210 0123 05       		.uleb128 0x5
 2211 0124 49       		.uleb128 0x49
 2212 0125 13       		.uleb128 0x13
ARM GAS  /tmp/ccYdJoxU.s 			page 40


 2213 0126 00       		.byte	0
 2214 0127 00       		.byte	0
 2215 0128 19       		.uleb128 0x19
 2216 0129 26       		.uleb128 0x26
 2217 012a 00       		.byte	0
 2218 012b 49       		.uleb128 0x49
 2219 012c 13       		.uleb128 0x13
 2220 012d 00       		.byte	0
 2221 012e 00       		.byte	0
 2222 012f 1A       		.uleb128 0x1a
 2223 0130 15       		.uleb128 0x15
 2224 0131 01       		.byte	0x1
 2225 0132 27       		.uleb128 0x27
 2226 0133 19       		.uleb128 0x19
 2227 0134 49       		.uleb128 0x49
 2228 0135 13       		.uleb128 0x13
 2229 0136 01       		.uleb128 0x1
 2230 0137 13       		.uleb128 0x13
 2231 0138 00       		.byte	0
 2232 0139 00       		.byte	0
 2233 013a 1B       		.uleb128 0x1b
 2234 013b 0D       		.uleb128 0xd
 2235 013c 00       		.byte	0
 2236 013d 03       		.uleb128 0x3
 2237 013e 0E       		.uleb128 0xe
 2238 013f 3A       		.uleb128 0x3a
 2239 0140 0B       		.uleb128 0xb
 2240 0141 3B       		.uleb128 0x3b
 2241 0142 0B       		.uleb128 0xb
 2242 0143 49       		.uleb128 0x49
 2243 0144 13       		.uleb128 0x13
 2244 0145 00       		.byte	0
 2245 0146 00       		.byte	0
 2246 0147 1C       		.uleb128 0x1c
 2247 0148 17       		.uleb128 0x17
 2248 0149 01       		.byte	0x1
 2249 014a 03       		.uleb128 0x3
 2250 014b 0E       		.uleb128 0xe
 2251 014c 0B       		.uleb128 0xb
 2252 014d 0B       		.uleb128 0xb
 2253 014e 3A       		.uleb128 0x3a
 2254 014f 0B       		.uleb128 0xb
 2255 0150 3B       		.uleb128 0x3b
 2256 0151 0B       		.uleb128 0xb
 2257 0152 01       		.uleb128 0x1
 2258 0153 13       		.uleb128 0x13
 2259 0154 00       		.byte	0
 2260 0155 00       		.byte	0
 2261 0156 1D       		.uleb128 0x1d
 2262 0157 0D       		.uleb128 0xd
 2263 0158 00       		.byte	0
 2264 0159 03       		.uleb128 0x3
 2265 015a 08       		.uleb128 0x8
 2266 015b 3A       		.uleb128 0x3a
 2267 015c 0B       		.uleb128 0xb
 2268 015d 3B       		.uleb128 0x3b
 2269 015e 0B       		.uleb128 0xb
ARM GAS  /tmp/ccYdJoxU.s 			page 41


 2270 015f 49       		.uleb128 0x49
 2271 0160 13       		.uleb128 0x13
 2272 0161 00       		.byte	0
 2273 0162 00       		.byte	0
 2274 0163 1E       		.uleb128 0x1e
 2275 0164 2E       		.uleb128 0x2e
 2276 0165 00       		.byte	0
 2277 0166 3F       		.uleb128 0x3f
 2278 0167 19       		.uleb128 0x19
 2279 0168 03       		.uleb128 0x3
 2280 0169 0E       		.uleb128 0xe
 2281 016a 3A       		.uleb128 0x3a
 2282 016b 0B       		.uleb128 0xb
 2283 016c 3B       		.uleb128 0x3b
 2284 016d 0B       		.uleb128 0xb
 2285 016e 27       		.uleb128 0x27
 2286 016f 19       		.uleb128 0x19
 2287 0170 11       		.uleb128 0x11
 2288 0171 01       		.uleb128 0x1
 2289 0172 12       		.uleb128 0x12
 2290 0173 06       		.uleb128 0x6
 2291 0174 40       		.uleb128 0x40
 2292 0175 18       		.uleb128 0x18
 2293 0176 9642     		.uleb128 0x2116
 2294 0178 19       		.uleb128 0x19
 2295 0179 00       		.byte	0
 2296 017a 00       		.byte	0
 2297 017b 1F       		.uleb128 0x1f
 2298 017c 2E       		.uleb128 0x2e
 2299 017d 01       		.byte	0x1
 2300 017e 3F       		.uleb128 0x3f
 2301 017f 19       		.uleb128 0x19
 2302 0180 03       		.uleb128 0x3
 2303 0181 0E       		.uleb128 0xe
 2304 0182 3A       		.uleb128 0x3a
 2305 0183 0B       		.uleb128 0xb
 2306 0184 3B       		.uleb128 0x3b
 2307 0185 0B       		.uleb128 0xb
 2308 0186 27       		.uleb128 0x27
 2309 0187 19       		.uleb128 0x19
 2310 0188 11       		.uleb128 0x11
 2311 0189 01       		.uleb128 0x1
 2312 018a 12       		.uleb128 0x12
 2313 018b 06       		.uleb128 0x6
 2314 018c 40       		.uleb128 0x40
 2315 018d 18       		.uleb128 0x18
 2316 018e 9642     		.uleb128 0x2116
 2317 0190 19       		.uleb128 0x19
 2318 0191 01       		.uleb128 0x1
 2319 0192 13       		.uleb128 0x13
 2320 0193 00       		.byte	0
 2321 0194 00       		.byte	0
 2322 0195 20       		.uleb128 0x20
 2323 0196 05       		.uleb128 0x5
 2324 0197 00       		.byte	0
 2325 0198 03       		.uleb128 0x3
 2326 0199 0E       		.uleb128 0xe
ARM GAS  /tmp/ccYdJoxU.s 			page 42


 2327 019a 3A       		.uleb128 0x3a
 2328 019b 0B       		.uleb128 0xb
 2329 019c 3B       		.uleb128 0x3b
 2330 019d 0B       		.uleb128 0xb
 2331 019e 49       		.uleb128 0x49
 2332 019f 13       		.uleb128 0x13
 2333 01a0 02       		.uleb128 0x2
 2334 01a1 18       		.uleb128 0x18
 2335 01a2 00       		.byte	0
 2336 01a3 00       		.byte	0
 2337 01a4 21       		.uleb128 0x21
 2338 01a5 05       		.uleb128 0x5
 2339 01a6 00       		.byte	0
 2340 01a7 03       		.uleb128 0x3
 2341 01a8 08       		.uleb128 0x8
 2342 01a9 3A       		.uleb128 0x3a
 2343 01aa 0B       		.uleb128 0xb
 2344 01ab 3B       		.uleb128 0x3b
 2345 01ac 0B       		.uleb128 0xb
 2346 01ad 49       		.uleb128 0x49
 2347 01ae 13       		.uleb128 0x13
 2348 01af 02       		.uleb128 0x2
 2349 01b0 18       		.uleb128 0x18
 2350 01b1 00       		.byte	0
 2351 01b2 00       		.byte	0
 2352 01b3 22       		.uleb128 0x22
 2353 01b4 34       		.uleb128 0x34
 2354 01b5 00       		.byte	0
 2355 01b6 03       		.uleb128 0x3
 2356 01b7 08       		.uleb128 0x8
 2357 01b8 3A       		.uleb128 0x3a
 2358 01b9 0B       		.uleb128 0xb
 2359 01ba 3B       		.uleb128 0x3b
 2360 01bb 0B       		.uleb128 0xb
 2361 01bc 49       		.uleb128 0x49
 2362 01bd 13       		.uleb128 0x13
 2363 01be 02       		.uleb128 0x2
 2364 01bf 18       		.uleb128 0x18
 2365 01c0 00       		.byte	0
 2366 01c1 00       		.byte	0
 2367 01c2 23       		.uleb128 0x23
 2368 01c3 34       		.uleb128 0x34
 2369 01c4 00       		.byte	0
 2370 01c5 03       		.uleb128 0x3
 2371 01c6 0E       		.uleb128 0xe
 2372 01c7 49       		.uleb128 0x49
 2373 01c8 13       		.uleb128 0x13
 2374 01c9 34       		.uleb128 0x34
 2375 01ca 19       		.uleb128 0x19
 2376 01cb 02       		.uleb128 0x2
 2377 01cc 18       		.uleb128 0x18
 2378 01cd 00       		.byte	0
 2379 01ce 00       		.byte	0
 2380 01cf 24       		.uleb128 0x24
 2381 01d0 2E       		.uleb128 0x2e
 2382 01d1 01       		.byte	0x1
 2383 01d2 3F       		.uleb128 0x3f
ARM GAS  /tmp/ccYdJoxU.s 			page 43


 2384 01d3 19       		.uleb128 0x19
 2385 01d4 03       		.uleb128 0x3
 2386 01d5 0E       		.uleb128 0xe
 2387 01d6 3A       		.uleb128 0x3a
 2388 01d7 0B       		.uleb128 0xb
 2389 01d8 3B       		.uleb128 0x3b
 2390 01d9 0B       		.uleb128 0xb
 2391 01da 27       		.uleb128 0x27
 2392 01db 19       		.uleb128 0x19
 2393 01dc 49       		.uleb128 0x49
 2394 01dd 13       		.uleb128 0x13
 2395 01de 11       		.uleb128 0x11
 2396 01df 01       		.uleb128 0x1
 2397 01e0 12       		.uleb128 0x12
 2398 01e1 06       		.uleb128 0x6
 2399 01e2 40       		.uleb128 0x40
 2400 01e3 18       		.uleb128 0x18
 2401 01e4 9642     		.uleb128 0x2116
 2402 01e6 19       		.uleb128 0x19
 2403 01e7 01       		.uleb128 0x1
 2404 01e8 13       		.uleb128 0x13
 2405 01e9 00       		.byte	0
 2406 01ea 00       		.byte	0
 2407 01eb 25       		.uleb128 0x25
 2408 01ec 34       		.uleb128 0x34
 2409 01ed 00       		.byte	0
 2410 01ee 03       		.uleb128 0x3
 2411 01ef 0E       		.uleb128 0xe
 2412 01f0 3A       		.uleb128 0x3a
 2413 01f1 0B       		.uleb128 0xb
 2414 01f2 3B       		.uleb128 0x3b
 2415 01f3 0B       		.uleb128 0xb
 2416 01f4 49       		.uleb128 0x49
 2417 01f5 13       		.uleb128 0x13
 2418 01f6 02       		.uleb128 0x2
 2419 01f7 18       		.uleb128 0x18
 2420 01f8 00       		.byte	0
 2421 01f9 00       		.byte	0
 2422 01fa 26       		.uleb128 0x26
 2423 01fb 2E       		.uleb128 0x2e
 2424 01fc 01       		.byte	0x1
 2425 01fd 3F       		.uleb128 0x3f
 2426 01fe 19       		.uleb128 0x19
 2427 01ff 03       		.uleb128 0x3
 2428 0200 0E       		.uleb128 0xe
 2429 0201 3A       		.uleb128 0x3a
 2430 0202 0B       		.uleb128 0xb
 2431 0203 3B       		.uleb128 0x3b
 2432 0204 05       		.uleb128 0x5
 2433 0205 27       		.uleb128 0x27
 2434 0206 19       		.uleb128 0x19
 2435 0207 49       		.uleb128 0x49
 2436 0208 13       		.uleb128 0x13
 2437 0209 11       		.uleb128 0x11
 2438 020a 01       		.uleb128 0x1
 2439 020b 12       		.uleb128 0x12
 2440 020c 06       		.uleb128 0x6
ARM GAS  /tmp/ccYdJoxU.s 			page 44


 2441 020d 40       		.uleb128 0x40
 2442 020e 18       		.uleb128 0x18
 2443 020f 9642     		.uleb128 0x2116
 2444 0211 19       		.uleb128 0x19
 2445 0212 01       		.uleb128 0x1
 2446 0213 13       		.uleb128 0x13
 2447 0214 00       		.byte	0
 2448 0215 00       		.byte	0
 2449 0216 27       		.uleb128 0x27
 2450 0217 05       		.uleb128 0x5
 2451 0218 00       		.byte	0
 2452 0219 03       		.uleb128 0x3
 2453 021a 0E       		.uleb128 0xe
 2454 021b 3A       		.uleb128 0x3a
 2455 021c 0B       		.uleb128 0xb
 2456 021d 3B       		.uleb128 0x3b
 2457 021e 05       		.uleb128 0x5
 2458 021f 49       		.uleb128 0x49
 2459 0220 13       		.uleb128 0x13
 2460 0221 02       		.uleb128 0x2
 2461 0222 18       		.uleb128 0x18
 2462 0223 00       		.byte	0
 2463 0224 00       		.byte	0
 2464 0225 28       		.uleb128 0x28
 2465 0226 34       		.uleb128 0x34
 2466 0227 00       		.byte	0
 2467 0228 03       		.uleb128 0x3
 2468 0229 08       		.uleb128 0x8
 2469 022a 3A       		.uleb128 0x3a
 2470 022b 0B       		.uleb128 0xb
 2471 022c 3B       		.uleb128 0x3b
 2472 022d 05       		.uleb128 0x5
 2473 022e 49       		.uleb128 0x49
 2474 022f 13       		.uleb128 0x13
 2475 0230 02       		.uleb128 0x2
 2476 0231 18       		.uleb128 0x18
 2477 0232 00       		.byte	0
 2478 0233 00       		.byte	0
 2479 0234 29       		.uleb128 0x29
 2480 0235 34       		.uleb128 0x34
 2481 0236 00       		.byte	0
 2482 0237 03       		.uleb128 0x3
 2483 0238 0E       		.uleb128 0xe
 2484 0239 3A       		.uleb128 0x3a
 2485 023a 0B       		.uleb128 0xb
 2486 023b 3B       		.uleb128 0x3b
 2487 023c 05       		.uleb128 0x5
 2488 023d 49       		.uleb128 0x49
 2489 023e 13       		.uleb128 0x13
 2490 023f 3F       		.uleb128 0x3f
 2491 0240 19       		.uleb128 0x19
 2492 0241 3C       		.uleb128 0x3c
 2493 0242 19       		.uleb128 0x19
 2494 0243 00       		.byte	0
 2495 0244 00       		.byte	0
 2496 0245 2A       		.uleb128 0x2a
 2497 0246 34       		.uleb128 0x34
ARM GAS  /tmp/ccYdJoxU.s 			page 45


 2498 0247 00       		.byte	0
 2499 0248 03       		.uleb128 0x3
 2500 0249 08       		.uleb128 0x8
 2501 024a 3A       		.uleb128 0x3a
 2502 024b 0B       		.uleb128 0xb
 2503 024c 3B       		.uleb128 0x3b
 2504 024d 05       		.uleb128 0x5
 2505 024e 49       		.uleb128 0x49
 2506 024f 13       		.uleb128 0x13
 2507 0250 3F       		.uleb128 0x3f
 2508 0251 19       		.uleb128 0x19
 2509 0252 3C       		.uleb128 0x3c
 2510 0253 19       		.uleb128 0x19
 2511 0254 00       		.byte	0
 2512 0255 00       		.byte	0
 2513 0256 00       		.byte	0
 2514              		.section	.debug_aranges,"",%progbits
 2515 0000 3C000000 		.4byte	0x3c
 2516 0004 0200     		.2byte	0x2
 2517 0006 00000000 		.4byte	.Ldebug_info0
 2518 000a 04       		.byte	0x4
 2519 000b 00       		.byte	0
 2520 000c 0000     		.2byte	0
 2521 000e 0000     		.2byte	0
 2522 0010 00000000 		.4byte	.LFB240
 2523 0014 28000000 		.4byte	.LFE240-.LFB240
 2524 0018 00000000 		.4byte	.LFB241
 2525 001c 60000000 		.4byte	.LFE241-.LFB241
 2526 0020 00000000 		.4byte	.LFB242
 2527 0024 F0000000 		.4byte	.LFE242-.LFB242
 2528 0028 00000000 		.4byte	.LFB243
 2529 002c FC000000 		.4byte	.LFE243-.LFB243
 2530 0030 00000000 		.4byte	.LFB244
 2531 0034 70000000 		.4byte	.LFE244-.LFB244
 2532 0038 00000000 		.4byte	0
 2533 003c 00000000 		.4byte	0
 2534              		.section	.debug_ranges,"",%progbits
 2535              	.Ldebug_ranges0:
 2536 0000 00000000 		.4byte	.LFB240
 2537 0004 28000000 		.4byte	.LFE240
 2538 0008 00000000 		.4byte	.LFB241
 2539 000c 60000000 		.4byte	.LFE241
 2540 0010 00000000 		.4byte	.LFB242
 2541 0014 F0000000 		.4byte	.LFE242
 2542 0018 00000000 		.4byte	.LFB243
 2543 001c FC000000 		.4byte	.LFE243
 2544 0020 00000000 		.4byte	.LFB244
 2545 0024 70000000 		.4byte	.LFE244
 2546 0028 00000000 		.4byte	0
 2547 002c 00000000 		.4byte	0
 2548              		.section	.debug_line,"",%progbits
 2549              	.Ldebug_line0:
 2550 0000 E4020000 		.section	.debug_str,"MS",%progbits,1
 2550      02000502 
 2550      00000201 
 2550      FB0E0D00 
 2550      01010101 
ARM GAS  /tmp/ccYdJoxU.s 			page 46


 2551              	.LASF55:
 2552 0000 72656164 		.ascii	"ready_list_t\000"
 2552      795F6C69 
 2552      73745F74 
 2552      00
 2553              	.LASF92:
 2554 000d 73655F74 		.ascii	"se_time\000"
 2554      696D6500 
 2555              	.LASF2:
 2556 0015 73697A65 		.ascii	"size_t\000"
 2556      5F7400
 2557              	.LASF135:
 2558 001c 6E657874 		.ascii	"next\000"
 2558      00
 2559              	.LASF113:
 2560 0021 7264796D 		.ascii	"rdymsg\000"
 2560      736700
 2561              	.LASF17:
 2562 0028 75696E74 		.ascii	"uint64_t\000"
 2562      36345F74 
 2562      00
 2563              	.LASF85:
 2564 0031 6B65726E 		.ascii	"kernel_stats\000"
 2564      656C5F73 
 2564      74617473 
 2564      00
 2565              	.LASF3:
 2566 003e 5F5F7569 		.ascii	"__uint8_t\000"
 2566      6E74385F 
 2566      7400
 2567              	.LASF91:
 2568 0048 706F7274 		.ascii	"port_intctx\000"
 2568      5F696E74 
 2568      63747800 
 2569              	.LASF54:
 2570 0054 63685F74 		.ascii	"ch_threads_queue\000"
 2570      68726561 
 2570      64735F71 
 2570      75657565 
 2570      00
 2571              	.LASF74:
 2572 0065 73797374 		.ascii	"system_debug_t\000"
 2572      656D5F64 
 2572      65627567 
 2572      5F7400
 2573              	.LASF104:
 2574 0074 776F7273 		.ascii	"worst\000"
 2574      7400
 2575              	.LASF107:
 2576 007a 74696D65 		.ascii	"time_measurement_t\000"
 2576      5F6D6561 
 2576      73757265 
 2576      6D656E74 
 2576      5F7400
 2577              	.LASF13:
 2578 008d 6C6F6E67 		.ascii	"long long unsigned int\000"
 2578      206C6F6E 
ARM GAS  /tmp/ccYdJoxU.s 			page 47


 2578      6720756E 
 2578      7369676E 
 2578      65642069 
 2579              	.LASF100:
 2580 00a4 63685F74 		.ascii	"ch_trace_buffer_t\000"
 2580      72616365 
 2580      5F627566 
 2580      6665725F 
 2580      7400
 2581              	.LASF95:
 2582 00b6 73655F73 		.ascii	"se_state\000"
 2582      74617465 
 2582      00
 2583              	.LASF114:
 2584 00bf 65786974 		.ascii	"exitcode\000"
 2584      636F6465 
 2584      00
 2585              	.LASF133:
 2586 00c8 685F6672 		.ascii	"h_free\000"
 2586      656500
 2587              	.LASF71:
 2588 00cf 76697274 		.ascii	"virtual_timers_list_t\000"
 2588      75616C5F 
 2588      74696D65 
 2588      72735F6C 
 2588      6973745F 
 2589              	.LASF147:
 2590 00e5 49544D5F 		.ascii	"ITM_RxBuffer\000"
 2590      52784275 
 2590      66666572 
 2590      00
 2591              	.LASF139:
 2592 00f2 68656170 		.ascii	"heapp\000"
 2592      7000
 2593              	.LASF137:
 2594 00f8 616C6967 		.ascii	"align\000"
 2594      6E00
 2595              	.LASF19:
 2596 00fe 72747469 		.ascii	"rttime_t\000"
 2596      6D655F74 
 2596      00
 2597              	.LASF32:
 2598 0107 705F7072 		.ascii	"p_prio\000"
 2598      696F00
 2599              	.LASF11:
 2600 010e 6C6F6E67 		.ascii	"long long int\000"
 2600      206C6F6E 
 2600      6720696E 
 2600      7400
 2601              	.LASF1:
 2602 011c 7369676E 		.ascii	"signed char\000"
 2602      65642063 
 2602      68617200 
 2603              	.LASF134:
 2604 0128 685F6D74 		.ascii	"h_mtx\000"
 2604      7800
 2605              	.LASF47:
ARM GAS  /tmp/ccYdJoxU.s 			page 48


 2606 012e 705F6D70 		.ascii	"p_mpool\000"
 2606      6F6F6C00 
 2607              	.LASF124:
 2608 0136 6D5F7175 		.ascii	"m_queue\000"
 2608      65756500 
 2609              	.LASF141:
 2610 013e 63684865 		.ascii	"chHeapFree\000"
 2610      61704672 
 2610      656500
 2611              	.LASF83:
 2612 0149 76746C69 		.ascii	"vtlist\000"
 2612      737400
 2613              	.LASF116:
 2614 0150 77747472 		.ascii	"wttrp\000"
 2614      7000
 2615              	.LASF81:
 2616 0156 63685F73 		.ascii	"ch_system\000"
 2616      79737465 
 2616      6D00
 2617              	.LASF8:
 2618 0160 6C6F6E67 		.ascii	"long int\000"
 2618      20696E74 
 2618      00
 2619              	.LASF21:
 2620 0169 74737461 		.ascii	"tstate_t\000"
 2620      74655F74 
 2620      00
 2621              	.LASF130:
 2622 0172 6D656D6F 		.ascii	"memory_heap_t\000"
 2622      72795F68 
 2622      6561705F 
 2622      7400
 2623              	.LASF93:
 2624 0180 73655F74 		.ascii	"se_tp\000"
 2624      7000
 2625              	.LASF148:
 2626 0186 474E5520 		.ascii	"GNU C 4.8.4 20141219 (release) -mcpu=cortex-m4 -mno"
 2626      4320342E 
 2626      382E3420 
 2626      32303134 
 2626      31323139 
 2627 01b9 2D746875 		.ascii	"-thumb-interwork -mthumb -ggdb -O0 -fomit-frame-poi"
 2627      6D622D69 
 2627      6E746572 
 2627      776F726B 
 2627      202D6D74 
 2628 01ec 6E746572 		.ascii	"nter -falign-functions=16 -ffunction-sections -fdat"
 2628      202D6661 
 2628      6C69676E 
 2628      2D66756E 
 2628      6374696F 
 2629 021f 612D7365 		.ascii	"a-sections -fno-common\000"
 2629      6374696F 
 2629      6E73202D 
 2629      666E6F2D 
 2629      636F6D6D 
 2630              	.LASF34:
ARM GAS  /tmp/ccYdJoxU.s 			page 49


 2631 0236 705F6E65 		.ascii	"p_newer\000"
 2631      77657200 
 2632              	.LASF121:
 2633 023e 735F7175 		.ascii	"s_queue\000"
 2633      65756500 
 2634              	.LASF97:
 2635 0246 74625F73 		.ascii	"tb_size\000"
 2635      697A6500 
 2636              	.LASF60:
 2637 024e 725F6E65 		.ascii	"r_newer\000"
 2637      77657200 
 2638              	.LASF88:
 2639 0256 72656761 		.ascii	"regarm_t\000"
 2639      726D5F74 
 2639      00
 2640              	.LASF67:
 2641 025f 76745F70 		.ascii	"vt_prev\000"
 2641      72657600 
 2642              	.LASF75:
 2643 0267 63685F73 		.ascii	"ch_system_debug\000"
 2643      79737465 
 2643      6D5F6465 
 2643      62756700 
 2644              	.LASF128:
 2645 0277 6D757465 		.ascii	"mutex_t\000"
 2645      785F7400 
 2646              	.LASF78:
 2647 027f 6C6F636B 		.ascii	"lock_cnt\000"
 2647      5F636E74 
 2647      00
 2648              	.LASF86:
 2649 0288 69646C65 		.ascii	"idle_thread_wa\000"
 2649      5F746872 
 2649      6561645F 
 2649      776100
 2650              	.LASF26:
 2651 0297 636E745F 		.ascii	"cnt_t\000"
 2651      7400
 2652              	.LASF37:
 2653 029d 705F7374 		.ascii	"p_stklimit\000"
 2653      6B6C696D 
 2653      697400
 2654              	.LASF0:
 2655 02a8 756E7369 		.ascii	"unsigned int\000"
 2655      676E6564 
 2655      20696E74 
 2655      00
 2656              	.LASF66:
 2657 02b5 76745F6E 		.ascii	"vt_next\000"
 2657      65787400 
 2658              	.LASF117:
 2659 02bd 77747365 		.ascii	"wtsemp\000"
 2659      6D7000
 2660              	.LASF42:
 2661 02c4 705F6D73 		.ascii	"p_msgqueue\000"
 2661      67717565 
 2661      756500
ARM GAS  /tmp/ccYdJoxU.s 			page 50


 2662              	.LASF108:
 2663 02cf 6E5F6972 		.ascii	"n_irq\000"
 2663      7100
 2664              	.LASF122:
 2665 02d5 735F636E 		.ascii	"s_cnt\000"
 2665      7400
 2666              	.LASF6:
 2667 02db 73686F72 		.ascii	"short unsigned int\000"
 2667      7420756E 
 2667      7369676E 
 2667      65642069 
 2667      6E7400
 2668              	.LASF112:
 2669 02ee 6B65726E 		.ascii	"kernel_stats_t\000"
 2669      656C5F73 
 2669      74617473 
 2669      5F7400
 2670              	.LASF51:
 2671 02fd 63685F74 		.ascii	"ch_thread\000"
 2671      68726561 
 2671      6400
 2672              	.LASF84:
 2673 0307 6D61696E 		.ascii	"mainthread\000"
 2673      74687265 
 2673      616400
 2674              	.LASF24:
 2675 0312 6D73675F 		.ascii	"msg_t\000"
 2675      7400
 2676              	.LASF105:
 2677 0318 6C617374 		.ascii	"last\000"
 2677      00
 2678              	.LASF27:
 2679 031d 75636E74 		.ascii	"ucnt_t\000"
 2679      5F7400
 2680              	.LASF80:
 2681 0324 63685F73 		.ascii	"ch_system_t\000"
 2681      79737465 
 2681      6D5F7400 
 2682              	.LASF20:
 2683 0330 746D6F64 		.ascii	"tmode_t\000"
 2683      655F7400 
 2684              	.LASF111:
 2685 0338 6D5F6372 		.ascii	"m_crit_isr\000"
 2685      69745F69 
 2685      737200
 2686              	.LASF56:
 2687 0343 63685F72 		.ascii	"ch_ready_list\000"
 2687      65616479 
 2687      5F6C6973 
 2687      7400
 2688              	.LASF25:
 2689 0351 6576656E 		.ascii	"eventmask_t\000"
 2689      746D6173 
 2689      6B5F7400 
 2690              	.LASF149:
 2691 035d 2F686F6D 		.ascii	"/home/efe/ChibiOS/os/rt/src/chheap.c\000"
 2691      652F6566 
ARM GAS  /tmp/ccYdJoxU.s 			page 51


 2691      652F4368 
 2691      6962694F 
 2691      532F6F73 
 2692              	.LASF7:
 2693 0382 5F5F696E 		.ascii	"__int32_t\000"
 2693      7433325F 
 2693      7400
 2694              	.LASF89:
 2695 038c 73746B61 		.ascii	"stkalign_t\000"
 2695      6C69676E 
 2695      5F7400
 2696              	.LASF140:
 2697 0397 63684865 		.ascii	"chHeapObjectInit\000"
 2697      61704F62 
 2697      6A656374 
 2697      496E6974 
 2697      00
 2698              	.LASF41:
 2699 03a8 705F7761 		.ascii	"p_waiting\000"
 2699      6974696E 
 2699      6700
 2700              	.LASF87:
 2701 03b2 73697A65 		.ascii	"sizetype\000"
 2701      74797065 
 2701      00
 2702              	.LASF49:
 2703 03bb 74687265 		.ascii	"thread_reference_t\000"
 2703      61645F72 
 2703      65666572 
 2703      656E6365 
 2703      5F7400
 2704              	.LASF72:
 2705 03ce 63685F76 		.ascii	"ch_virtual_timers_list\000"
 2705      69727475 
 2705      616C5F74 
 2705      696D6572 
 2705      735F6C69 
 2706              	.LASF98:
 2707 03e5 74625F70 		.ascii	"tb_ptr\000"
 2707      747200
 2708              	.LASF96:
 2709 03ec 63685F73 		.ascii	"ch_swc_event_t\000"
 2709      77635F65 
 2709      76656E74 
 2709      5F7400
 2710              	.LASF73:
 2711 03fb 76745F6C 		.ascii	"vt_lasttime\000"
 2711      61737474 
 2711      696D6500 
 2712              	.LASF35:
 2713 0407 705F6F6C 		.ascii	"p_older\000"
 2713      64657200 
 2714              	.LASF59:
 2715 040f 725F6374 		.ascii	"r_ctx\000"
 2715      7800
 2716              	.LASF102:
 2717 0415 746D5F63 		.ascii	"tm_calibration_t\000"
ARM GAS  /tmp/ccYdJoxU.s 			page 52


 2717      616C6962 
 2717      72617469 
 2717      6F6E5F74 
 2717      00
 2718              	.LASF62:
 2719 0426 725F6375 		.ascii	"r_current\000"
 2719      7272656E 
 2719      7400
 2720              	.LASF61:
 2721 0430 725F6F6C 		.ascii	"r_older\000"
 2721      64657200 
 2722              	.LASF12:
 2723 0438 5F5F7569 		.ascii	"__uint64_t\000"
 2723      6E743634 
 2723      5F7400
 2724              	.LASF106:
 2725 0443 63756D75 		.ascii	"cumulative\000"
 2725      6C617469 
 2725      766500
 2726              	.LASF22:
 2727 044e 74726566 		.ascii	"trefs_t\000"
 2727      735F7400 
 2728              	.LASF99:
 2729 0456 74625F62 		.ascii	"tb_buffer\000"
 2729      75666665 
 2729      7200
 2730              	.LASF64:
 2731 0460 76697274 		.ascii	"virtual_timer_t\000"
 2731      75616C5F 
 2731      74696D65 
 2731      725F7400 
 2732              	.LASF31:
 2733 0470 705F7072 		.ascii	"p_prev\000"
 2733      657600
 2734              	.LASF23:
 2735 0477 74707269 		.ascii	"tprio_t\000"
 2735      6F5F7400 
 2736              	.LASF109:
 2737 047f 6E5F6374 		.ascii	"n_ctxswc\000"
 2737      78737763 
 2737      00
 2738              	.LASF15:
 2739 0488 696E7433 		.ascii	"int32_t\000"
 2739      325F7400 
 2740              	.LASF4:
 2741 0490 756E7369 		.ascii	"unsigned char\000"
 2741      676E6564 
 2741      20636861 
 2741      7200
 2742              	.LASF150:
 2743 049e 68656170 		.ascii	"heap_header\000"
 2743      5F686561 
 2743      64657200 
 2744              	.LASF45:
 2745 04aa 705F6D74 		.ascii	"p_mtxlist\000"
 2745      786C6973 
 2745      7400
ARM GAS  /tmp/ccYdJoxU.s 			page 53


 2746              	.LASF5:
 2747 04b4 73686F72 		.ascii	"short int\000"
 2747      7420696E 
 2747      7400
 2748              	.LASF38:
 2749 04be 705F7374 		.ascii	"p_state\000"
 2749      61746500 
 2750              	.LASF58:
 2751 04c6 725F7072 		.ascii	"r_prio\000"
 2751      696F00
 2752              	.LASF119:
 2753 04cd 65776D61 		.ascii	"ewmask\000"
 2753      736B00
 2754              	.LASF30:
 2755 04d4 705F6E65 		.ascii	"p_next\000"
 2755      787400
 2756              	.LASF39:
 2757 04db 705F666C 		.ascii	"p_flags\000"
 2757      61677300 
 2758              	.LASF142:
 2759 04e3 5F5F6675 		.ascii	"__func__\000"
 2759      6E635F5F 
 2759      00
 2760              	.LASF48:
 2761 04ec 705F7374 		.ascii	"p_stats\000"
 2761      61747300 
 2762              	.LASF143:
 2763 04f4 63684865 		.ascii	"chHeapAlloc\000"
 2763      6170416C 
 2763      6C6F6300 
 2764              	.LASF120:
 2765 0500 63685F73 		.ascii	"ch_semaphore\000"
 2765      656D6170 
 2765      686F7265 
 2765      00
 2766              	.LASF44:
 2767 050d 705F6570 		.ascii	"p_epending\000"
 2767      656E6469 
 2767      6E6700
 2768              	.LASF16:
 2769 0518 75696E74 		.ascii	"uint32_t\000"
 2769      33325F74 
 2769      00
 2770              	.LASF118:
 2771 0521 77746D74 		.ascii	"wtmtxp\000"
 2771      787000
 2772              	.LASF57:
 2773 0528 725F7175 		.ascii	"r_queue\000"
 2773      65756500 
 2774              	.LASF68:
 2775 0530 76745F64 		.ascii	"vt_delta\000"
 2775      656C7461 
 2775      00
 2776              	.LASF52:
 2777 0539 63685F74 		.ascii	"ch_threads_list\000"
 2777      68726561 
 2777      64735F6C 
ARM GAS  /tmp/ccYdJoxU.s 			page 54


 2777      69737400 
 2778              	.LASF136:
 2779 0549 68656170 		.ascii	"heap\000"
 2779      00
 2780              	.LASF10:
 2781 054e 6C6F6E67 		.ascii	"long unsigned int\000"
 2781      20756E73 
 2781      69676E65 
 2781      6420696E 
 2781      7400
 2782              	.LASF146:
 2783 0560 64656661 		.ascii	"default_heap\000"
 2783      756C745F 
 2783      68656170 
 2783      00
 2784              	.LASF127:
 2785 056d 63686172 		.ascii	"char\000"
 2785      00
 2786              	.LASF29:
 2787 0572 74687265 		.ascii	"thread_t\000"
 2787      61645F74 
 2787      00
 2788              	.LASF103:
 2789 057b 62657374 		.ascii	"best\000"
 2789      00
 2790              	.LASF126:
 2791 0580 6D5F6E65 		.ascii	"m_next\000"
 2791      787400
 2792              	.LASF28:
 2793 0587 73797374 		.ascii	"systime_t\000"
 2793      696D655F 
 2793      7400
 2794              	.LASF46:
 2795 0591 705F7265 		.ascii	"p_realprio\000"
 2795      616C7072 
 2795      696F00
 2796              	.LASF63:
 2797 059c 76746675 		.ascii	"vtfunc_t\000"
 2797      6E635F74 
 2797      00
 2798              	.LASF9:
 2799 05a5 5F5F7569 		.ascii	"__uint32_t\000"
 2799      6E743332 
 2799      5F7400
 2800              	.LASF76:
 2801 05b0 70616E69 		.ascii	"panic_msg\000"
 2801      635F6D73 
 2801      6700
 2802              	.LASF101:
 2803 05ba 6F666673 		.ascii	"offset\000"
 2803      657400
 2804              	.LASF90:
 2805 05c1 636F6E74 		.ascii	"context\000"
 2805      65787400 
 2806              	.LASF65:
 2807 05c9 63685F76 		.ascii	"ch_virtual_timer\000"
 2807      69727475 
ARM GAS  /tmp/ccYdJoxU.s 			page 55


 2807      616C5F74 
 2807      696D6572 
 2807      00
 2808              	.LASF18:
 2809 05da 7274636E 		.ascii	"rtcnt_t\000"
 2809      745F7400 
 2810              	.LASF129:
 2811 05e2 6D656D67 		.ascii	"memgetfunc_t\000"
 2811      65746675 
 2811      6E635F74 
 2811      00
 2812              	.LASF70:
 2813 05ef 76745F70 		.ascii	"vt_par\000"
 2813      617200
 2814              	.LASF144:
 2815 05f6 63684865 		.ascii	"chHeapStatus\000"
 2815      61705374 
 2815      61747573 
 2815      00
 2816              	.LASF53:
 2817 0603 74687265 		.ascii	"threads_queue_t\000"
 2817      6164735F 
 2817      71756575 
 2817      655F7400 
 2818              	.LASF123:
 2819 0613 63685F6D 		.ascii	"ch_mutex\000"
 2819      75746578 
 2819      00
 2820              	.LASF40:
 2821 061c 705F7265 		.ascii	"p_refs\000"
 2821      667300
 2822              	.LASF77:
 2823 0623 6973725F 		.ascii	"isr_cnt\000"
 2823      636E7400 
 2824              	.LASF82:
 2825 062b 726C6973 		.ascii	"rlist\000"
 2825      7400
 2826              	.LASF14:
 2827 0631 75696E74 		.ascii	"uint8_t\000"
 2827      385F7400 
 2828              	.LASF132:
 2829 0639 685F7072 		.ascii	"h_provider\000"
 2829      6F766964 
 2829      657200
 2830              	.LASF115:
 2831 0644 77746F62 		.ascii	"wtobjp\000"
 2831      6A7000
 2832              	.LASF145:
 2833 064b 73697A65 		.ascii	"sizep\000"
 2833      7000
 2834              	.LASF36:
 2835 0651 705F6E61 		.ascii	"p_name\000"
 2835      6D6500
 2836              	.LASF138:
 2837 0658 73697A65 		.ascii	"size\000"
 2837      00
 2838              	.LASF50:
ARM GAS  /tmp/ccYdJoxU.s 			page 56


 2839 065d 74687265 		.ascii	"threads_list_t\000"
 2839      6164735F 
 2839      6C697374 
 2839      5F7400
 2840              	.LASF79:
 2841 066c 74726163 		.ascii	"trace_buffer\000"
 2841      655F6275 
 2841      66666572 
 2841      00
 2842              	.LASF151:
 2843 0679 5F686561 		.ascii	"_heap_init\000"
 2843      705F696E 
 2843      697400
 2844              	.LASF43:
 2845 0684 705F6D73 		.ascii	"p_msg\000"
 2845      6700
 2846              	.LASF110:
 2847 068a 6D5F6372 		.ascii	"m_crit_thd\000"
 2847      69745F74 
 2847      686400
 2848              	.LASF125:
 2849 0695 6D5F6F77 		.ascii	"m_owner\000"
 2849      6E657200 
 2850              	.LASF94:
 2851 069d 73655F77 		.ascii	"se_wtobjp\000"
 2851      746F626A 
 2851      7000
 2852              	.LASF33:
 2853 06a7 705F6374 		.ascii	"p_ctx\000"
 2853      7800
 2854              	.LASF69:
 2855 06ad 76745F66 		.ascii	"vt_func\000"
 2855      756E6300 
 2856              	.LASF131:
 2857 06b5 6D656D6F 		.ascii	"memory_heap\000"
 2857      72795F68 
 2857      65617000 
 2858              		.ident	"GCC: (4.8.4-1+11-1) 4.8.4 20141219 (release)"
ARM GAS  /tmp/ccYdJoxU.s 			page 57


DEFINED SYMBOLS
                            *ABS*:0000000000000000 chheap.c
     /tmp/ccYdJoxU.s:19     .bss.default_heap:0000000000000000 $d
     /tmp/ccYdJoxU.s:22     .bss.default_heap:0000000000000000 default_heap
     /tmp/ccYdJoxU.s:25     .text._heap_init:0000000000000000 $t
     /tmp/ccYdJoxU.s:31     .text._heap_init:0000000000000000 _heap_init
     /tmp/ccYdJoxU.s:62     .text._heap_init:000000000000001c $d
     /tmp/ccYdJoxU.s:69     .text.chHeapObjectInit:0000000000000000 $t
     /tmp/ccYdJoxU.s:75     .text.chHeapObjectInit:0000000000000000 chHeapObjectInit
     /tmp/ccYdJoxU.s:140    .text.chHeapObjectInit:000000000000005c $d
     /tmp/ccYdJoxU.s:592    .rodata.__func__.6627:0000000000000000 __func__.6627
     /tmp/ccYdJoxU.s:145    .text.chHeapAlloc:0000000000000000 $t
     /tmp/ccYdJoxU.s:151    .text.chHeapAlloc:0000000000000000 chHeapAlloc
     /tmp/ccYdJoxU.s:313    .text.chHeapAlloc:00000000000000ec $d
     /tmp/ccYdJoxU.s:318    .text.chHeapFree:0000000000000000 $t
     /tmp/ccYdJoxU.s:324    .text.chHeapFree:0000000000000000 chHeapFree
     /tmp/ccYdJoxU.s:489    .text.chHeapFree:00000000000000f8 $d
     /tmp/ccYdJoxU.s:598    .rodata.__func__.6644:0000000000000000 __func__.6644
     /tmp/ccYdJoxU.s:494    .text.chHeapStatus:0000000000000000 $t
     /tmp/ccYdJoxU.s:500    .text.chHeapStatus:0000000000000000 chHeapStatus
     /tmp/ccYdJoxU.s:584    .text.chHeapStatus:000000000000006c $d
     /tmp/ccYdJoxU.s:589    .rodata.__func__.6627:0000000000000000 $d
     /tmp/ccYdJoxU.s:595    .rodata.__func__.6644:0000000000000000 $d
                     .debug_frame:0000000000000010 $d
     /tmp/ccYdJoxU.s:68     .text._heap_init:0000000000000028 $t
     /tmp/ccYdJoxU.s:493    .text.chHeapFree:00000000000000fc $t

UNDEFINED SYMBOLS
chMtxObjectInit
chCoreAlloc
chSysHalt
chMtxLock
chMtxUnlock
