ARM GAS  /tmp/ccdBduvo.s 			page 1


   1              		.syntax unified
   2              		.cpu cortex-m4
   3              		.fpu softvfp
   4              		.eabi_attribute 20, 1
   5              		.eabi_attribute 21, 1
   6              		.eabi_attribute 23, 3
   7              		.eabi_attribute 24, 1
   8              		.eabi_attribute 25, 1
   9              		.eabi_attribute 26, 1
  10              		.eabi_attribute 30, 6
  11              		.eabi_attribute 34, 1
  12              		.eabi_attribute 18, 4
  13              		.thumb
  14              		.file	"chmboxes.c"
  15              		.text
  16              	.Ltext0:
  17              		.cfi_sections	.debug_frame
  18              		.section	.text.port_lock,"ax",%progbits
  19              		.align	2
  20              		.p2align 4,,15
  21              		.thumb
  22              		.thumb_func
  23              		.type	port_lock, %function
  24              	port_lock:
  25              	.LFB127:
  26              		.file 1 "/home/efe/ChibiOS/os/rt/ports/ARMCMx/chcore_v7m.h"
  27              		.loc 1 456 0
  28              		.cfi_startproc
  29              		@ args = 0, pretend = 0, frame = 8
  30              		@ frame_needed = 0, uses_anonymous_args = 0
  31              		@ link register save eliminated.
  32 0000 82B0     		sub	sp, sp, #8
  33              		.cfi_def_cfa_offset 8
  34 0002 2023     		movs	r3, #32
  35 0004 0193     		str	r3, [sp, #4]
  36              	.LBB6:
  37              	.LBB7:
  38              		.file 2 "/home/efe/ChibiOS/os/ext/CMSIS/include/core_cmFunc.h"
  39              		.loc 2 548 0
  40 0006 019B     		ldr	r3, [sp, #4]
  41              	@ 548 "/home/efe/ChibiOS/os/ext/CMSIS/include/core_cmFunc.h" 1
  42 0008 83F31188 		MSR basepri, r3
  43              	@ 0 "" 2
  44              		.thumb
  45              	.LBE7:
  46              	.LBE6:
  47              		.loc 1 463 0
  48 000c 02B0     		add	sp, sp, #8
  49              		@ sp needed
  50 000e 7047     		bx	lr
  51              		.cfi_endproc
  52              	.LFE127:
  53              		.size	port_lock, .-port_lock
  54              		.section	.text.port_unlock,"ax",%progbits
  55              		.align	2
  56              		.p2align 4,,15
  57              		.thumb
ARM GAS  /tmp/ccdBduvo.s 			page 2


  58              		.thumb_func
  59              		.type	port_unlock, %function
  60              	port_unlock:
  61              	.LFB128:
  62              		.loc 1 470 0
  63              		.cfi_startproc
  64              		@ args = 0, pretend = 0, frame = 8
  65              		@ frame_needed = 0, uses_anonymous_args = 0
  66              		@ link register save eliminated.
  67 0000 82B0     		sub	sp, sp, #8
  68              		.cfi_def_cfa_offset 8
  69 0002 0023     		movs	r3, #0
  70 0004 0193     		str	r3, [sp, #4]
  71              	.LBB8:
  72              	.LBB9:
  73              		.loc 2 548 0
  74 0006 019B     		ldr	r3, [sp, #4]
  75              	@ 548 "/home/efe/ChibiOS/os/ext/CMSIS/include/core_cmFunc.h" 1
  76 0008 83F31188 		MSR basepri, r3
  77              	@ 0 "" 2
  78              		.thumb
  79              	.LBE9:
  80              	.LBE8:
  81              		.loc 1 477 0
  82 000c 02B0     		add	sp, sp, #8
  83              		@ sp needed
  84 000e 7047     		bx	lr
  85              		.cfi_endproc
  86              	.LFE128:
  87              		.size	port_unlock, .-port_unlock
  88              		.section	.text.chSysLock,"ax",%progbits
  89              		.align	2
  90              		.p2align 4,,15
  91              		.thumb
  92              		.thumb_func
  93              		.type	chSysLock, %function
  94              	chSysLock:
  95              	.LFB167:
  96              		.file 3 "/home/efe/ChibiOS/os/rt/include/chsys.h"
  97              		.loc 3 346 0
  98              		.cfi_startproc
  99              		@ args = 0, pretend = 0, frame = 0
 100              		@ frame_needed = 0, uses_anonymous_args = 0
 101 0000 08B5     		push	{r3, lr}
 102              		.cfi_def_cfa_offset 8
 103              		.cfi_offset 3, -8
 104              		.cfi_offset 14, -4
 105              		.loc 3 348 0
 106 0002 FFF7FEFF 		bl	port_lock
 107              		.loc 3 349 0
 108 0006 FFF7FEFF 		bl	_stats_start_measure_crit_thd
 109              		.loc 3 350 0
 110 000a FFF7FEFF 		bl	_dbg_check_lock
 111              		.loc 3 351 0
 112 000e 08BD     		pop	{r3, pc}
 113              		.cfi_endproc
 114              	.LFE167:
ARM GAS  /tmp/ccdBduvo.s 			page 3


 115              		.size	chSysLock, .-chSysLock
 116              		.section	.text.chSysUnlock,"ax",%progbits
 117              		.align	2
 118              		.p2align 4,,15
 119              		.thumb
 120              		.thumb_func
 121              		.type	chSysUnlock, %function
 122              	chSysUnlock:
 123              	.LFB168:
 124              		.loc 3 358 0
 125              		.cfi_startproc
 126              		@ args = 0, pretend = 0, frame = 0
 127              		@ frame_needed = 0, uses_anonymous_args = 0
 128 0000 08B5     		push	{r3, lr}
 129              		.cfi_def_cfa_offset 8
 130              		.cfi_offset 3, -8
 131              		.cfi_offset 14, -4
 132              		.loc 3 360 0
 133 0002 FFF7FEFF 		bl	_dbg_check_unlock
 134              		.loc 3 361 0
 135 0006 FFF7FEFF 		bl	_stats_stop_measure_crit_thd
 136              		.loc 3 367 0
 137 000a 094B     		ldr	r3, .L6
 138 000c 1A68     		ldr	r2, [r3]
 139 000e 084B     		ldr	r3, .L6
 140 0010 9A42     		cmp	r2, r3
 141 0012 0AD0     		beq	.L5
 142              		.loc 3 367 0 is_stmt 0 discriminator 1
 143 0014 064B     		ldr	r3, .L6
 144 0016 9B69     		ldr	r3, [r3, #24]
 145 0018 9A68     		ldr	r2, [r3, #8]
 146 001a 054B     		ldr	r3, .L6
 147 001c 1B68     		ldr	r3, [r3]
 148 001e 9B68     		ldr	r3, [r3, #8]
 149 0020 9A42     		cmp	r2, r3
 150 0022 02D2     		bcs	.L5
 151 0024 0348     		ldr	r0, .L6+4
 152 0026 FFF7FEFF 		bl	chSysHalt
 153              	.L5:
 154              		.loc 3 371 0 is_stmt 1
 155 002a FFF7FEFF 		bl	port_unlock
 156              		.loc 3 372 0
 157 002e 08BD     		pop	{r3, pc}
 158              	.L7:
 159              		.align	2
 160              	.L6:
 161 0030 00000000 		.word	ch
 162 0034 00000000 		.word	__func__.5925
 163              		.cfi_endproc
 164              	.LFE168:
 165              		.size	chSysUnlock, .-chSysUnlock
 166 0038 AFF30080 		.section	.text.chSemFastWaitI,"ax",%progbits
 166      AFF30080 
 167              		.align	2
 168              		.p2align 4,,15
 169              		.thumb
 170              		.thumb_func
ARM GAS  /tmp/ccdBduvo.s 			page 4


 171              		.type	chSemFastWaitI, %function
 172              	chSemFastWaitI:
 173              	.LFB200:
 174              		.file 4 "/home/efe/ChibiOS/os/rt/include/chsem.h"
 175              		.loc 4 118 0
 176              		.cfi_startproc
 177              		@ args = 0, pretend = 0, frame = 8
 178              		@ frame_needed = 0, uses_anonymous_args = 0
 179 0000 00B5     		push	{lr}
 180              		.cfi_def_cfa_offset 4
 181              		.cfi_offset 14, -4
 182 0002 83B0     		sub	sp, sp, #12
 183              		.cfi_def_cfa_offset 16
 184 0004 0190     		str	r0, [sp, #4]
 185              		.loc 4 120 0
 186 0006 FFF7FEFF 		bl	chDbgCheckClassI
 187              		.loc 4 122 0
 188 000a 019B     		ldr	r3, [sp, #4]
 189 000c 9B68     		ldr	r3, [r3, #8]
 190 000e 5A1E     		subs	r2, r3, #1
 191 0010 019B     		ldr	r3, [sp, #4]
 192 0012 9A60     		str	r2, [r3, #8]
 193              		.loc 4 123 0
 194 0014 03B0     		add	sp, sp, #12
 195              		@ sp needed
 196 0016 5DF804FB 		ldr	pc, [sp], #4
 197              		.cfi_endproc
 198              	.LFE200:
 199              		.size	chSemFastWaitI, .-chSemFastWaitI
 200 001a 00BFAFF3 		.section	.text.chSemGetCounterI,"ax",%progbits
 200      0080
 201              		.align	2
 202              		.p2align 4,,15
 203              		.thumb
 204              		.thumb_func
 205              		.type	chSemGetCounterI, %function
 206              	chSemGetCounterI:
 207              	.LFB202:
 208              		.loc 4 149 0
 209              		.cfi_startproc
 210              		@ args = 0, pretend = 0, frame = 8
 211              		@ frame_needed = 0, uses_anonymous_args = 0
 212 0000 00B5     		push	{lr}
 213              		.cfi_def_cfa_offset 4
 214              		.cfi_offset 14, -4
 215 0002 83B0     		sub	sp, sp, #12
 216              		.cfi_def_cfa_offset 16
 217 0004 0190     		str	r0, [sp, #4]
 218              		.loc 4 151 0
 219 0006 FFF7FEFF 		bl	chDbgCheckClassI
 220              		.loc 4 153 0
 221 000a 019B     		ldr	r3, [sp, #4]
 222 000c 9B68     		ldr	r3, [r3, #8]
 223              		.loc 4 154 0
 224 000e 1846     		mov	r0, r3
 225 0010 03B0     		add	sp, sp, #12
 226              		@ sp needed
ARM GAS  /tmp/ccdBduvo.s 			page 5


 227 0012 5DF804FB 		ldr	pc, [sp], #4
 228              		.cfi_endproc
 229              	.LFE202:
 230              		.size	chSemGetCounterI, .-chSemGetCounterI
 231 0016 00BFAFF3 		.section	.text.chMBObjectInit,"ax",%progbits
 231      0080AFF3 
 231      0080
 232              		.align	2
 233              		.p2align 4,,15
 234              		.global	chMBObjectInit
 235              		.thumb
 236              		.thumb_func
 237              		.type	chMBObjectInit, %function
 238              	chMBObjectInit:
 239              	.LFB240:
 240              		.file 5 "/home/efe/ChibiOS/os/rt/src/chmboxes.c"
 241              		.loc 5 86 0
 242              		.cfi_startproc
 243              		@ args = 0, pretend = 0, frame = 16
 244              		@ frame_needed = 0, uses_anonymous_args = 0
 245 0000 00B5     		push	{lr}
 246              		.cfi_def_cfa_offset 4
 247              		.cfi_offset 14, -4
 248 0002 85B0     		sub	sp, sp, #20
 249              		.cfi_def_cfa_offset 24
 250 0004 0390     		str	r0, [sp, #12]
 251 0006 0291     		str	r1, [sp, #8]
 252 0008 0192     		str	r2, [sp, #4]
 253              		.loc 5 88 0
 254 000a 039B     		ldr	r3, [sp, #12]
 255 000c 002B     		cmp	r3, #0
 256 000e 05D0     		beq	.L12
 257              		.loc 5 88 0 is_stmt 0 discriminator 2
 258 0010 029B     		ldr	r3, [sp, #8]
 259 0012 002B     		cmp	r3, #0
 260 0014 02D0     		beq	.L12
 261              		.loc 5 88 0 discriminator 1
 262 0016 019B     		ldr	r3, [sp, #4]
 263 0018 002B     		cmp	r3, #0
 264 001a 02DC     		bgt	.L13
 265              	.L12:
 266 001c 1048     		ldr	r0, .L14
 267 001e FFF7FEFF 		bl	chSysHalt
 268              	.L13:
 269              		.loc 5 90 0 is_stmt 1
 270 0022 039B     		ldr	r3, [sp, #12]
 271 0024 029A     		ldr	r2, [sp, #8]
 272 0026 1A60     		str	r2, [r3]
 273              		.loc 5 91 0
 274 0028 039B     		ldr	r3, [sp, #12]
 275 002a 029A     		ldr	r2, [sp, #8]
 276 002c DA60     		str	r2, [r3, #12]
 277              		.loc 5 92 0
 278 002e 039B     		ldr	r3, [sp, #12]
 279 0030 029A     		ldr	r2, [sp, #8]
 280 0032 9A60     		str	r2, [r3, #8]
 281              		.loc 5 93 0
ARM GAS  /tmp/ccdBduvo.s 			page 6


 282 0034 019B     		ldr	r3, [sp, #4]
 283 0036 9B00     		lsls	r3, r3, #2
 284 0038 029A     		ldr	r2, [sp, #8]
 285 003a 1A44     		add	r2, r2, r3
 286 003c 039B     		ldr	r3, [sp, #12]
 287 003e 5A60     		str	r2, [r3, #4]
 288              		.loc 5 94 0
 289 0040 039B     		ldr	r3, [sp, #12]
 290 0042 1C33     		adds	r3, r3, #28
 291 0044 1846     		mov	r0, r3
 292 0046 0199     		ldr	r1, [sp, #4]
 293 0048 FFF7FEFF 		bl	chSemObjectInit
 294              		.loc 5 95 0
 295 004c 039B     		ldr	r3, [sp, #12]
 296 004e 1033     		adds	r3, r3, #16
 297 0050 1846     		mov	r0, r3
 298 0052 0021     		movs	r1, #0
 299 0054 FFF7FEFF 		bl	chSemObjectInit
 300              		.loc 5 96 0
 301 0058 05B0     		add	sp, sp, #20
 302              		@ sp needed
 303 005a 5DF804FB 		ldr	pc, [sp], #4
 304              	.L15:
 305 005e 00BF     		.align	2
 306              	.L14:
 307 0060 00000000 		.word	__func__.6622
 308              		.cfi_endproc
 309              	.LFE240:
 310              		.size	chMBObjectInit, .-chMBObjectInit
 311 0064 AFF30080 		.section	.text.chMBReset,"ax",%progbits
 311      AFF30080 
 311      AFF30080 
 312              		.align	2
 313              		.p2align 4,,15
 314              		.global	chMBReset
 315              		.thumb
 316              		.thumb_func
 317              		.type	chMBReset, %function
 318              	chMBReset:
 319              	.LFB241:
 320              		.loc 5 107 0
 321              		.cfi_startproc
 322              		@ args = 0, pretend = 0, frame = 8
 323              		@ frame_needed = 0, uses_anonymous_args = 0
 324 0000 00B5     		push	{lr}
 325              		.cfi_def_cfa_offset 4
 326              		.cfi_offset 14, -4
 327 0002 83B0     		sub	sp, sp, #12
 328              		.cfi_def_cfa_offset 16
 329 0004 0190     		str	r0, [sp, #4]
 330              		.loc 5 109 0
 331 0006 FFF7FEFF 		bl	chSysLock
 332              		.loc 5 110 0
 333 000a 0198     		ldr	r0, [sp, #4]
 334 000c FFF7FEFF 		bl	chMBResetI
 335              		.loc 5 111 0
 336 0010 FFF7FEFF 		bl	chSchRescheduleS
ARM GAS  /tmp/ccdBduvo.s 			page 7


 337              		.loc 5 112 0
 338 0014 FFF7FEFF 		bl	chSysUnlock
 339              		.loc 5 113 0
 340 0018 03B0     		add	sp, sp, #12
 341              		@ sp needed
 342 001a 5DF804FB 		ldr	pc, [sp], #4
 343              		.cfi_endproc
 344              	.LFE241:
 345              		.size	chMBReset, .-chMBReset
 346 001e 00BF     		.section	.text.chMBResetI,"ax",%progbits
 347              		.align	2
 348              		.p2align 4,,15
 349              		.global	chMBResetI
 350              		.thumb
 351              		.thumb_func
 352              		.type	chMBResetI, %function
 353              	chMBResetI:
 354              	.LFB242:
 355              		.loc 5 124 0
 356              		.cfi_startproc
 357              		@ args = 0, pretend = 0, frame = 8
 358              		@ frame_needed = 0, uses_anonymous_args = 0
 359 0000 00B5     		push	{lr}
 360              		.cfi_def_cfa_offset 4
 361              		.cfi_offset 14, -4
 362 0002 83B0     		sub	sp, sp, #12
 363              		.cfi_def_cfa_offset 16
 364 0004 0190     		str	r0, [sp, #4]
 365              		.loc 5 126 0
 366 0006 FFF7FEFF 		bl	chDbgCheckClassI
 367              		.loc 5 127 0
 368 000a 019B     		ldr	r3, [sp, #4]
 369 000c 002B     		cmp	r3, #0
 370 000e 02D1     		bne	.L18
 371              		.loc 5 127 0 is_stmt 0 discriminator 1
 372 0010 1048     		ldr	r0, .L19
 373 0012 FFF7FEFF 		bl	chSysHalt
 374              	.L18:
 375              		.loc 5 129 0 is_stmt 1
 376 0016 019B     		ldr	r3, [sp, #4]
 377 0018 1A68     		ldr	r2, [r3]
 378 001a 019B     		ldr	r3, [sp, #4]
 379 001c 9A60     		str	r2, [r3, #8]
 380              		.loc 5 130 0
 381 001e 019B     		ldr	r3, [sp, #4]
 382 0020 1A68     		ldr	r2, [r3]
 383 0022 019B     		ldr	r3, [sp, #4]
 384 0024 DA60     		str	r2, [r3, #12]
 385              		.loc 5 131 0
 386 0026 019B     		ldr	r3, [sp, #4]
 387 0028 03F11C02 		add	r2, r3, #28
 388 002c 019B     		ldr	r3, [sp, #4]
 389 002e 5B68     		ldr	r3, [r3, #4]
 390 0030 1946     		mov	r1, r3
 391 0032 019B     		ldr	r3, [sp, #4]
 392 0034 1B68     		ldr	r3, [r3]
 393 0036 CB1A     		subs	r3, r1, r3
ARM GAS  /tmp/ccdBduvo.s 			page 8


 394 0038 9B10     		asrs	r3, r3, #2
 395 003a 1046     		mov	r0, r2
 396 003c 1946     		mov	r1, r3
 397 003e FFF7FEFF 		bl	chSemResetI
 398              		.loc 5 132 0
 399 0042 019B     		ldr	r3, [sp, #4]
 400 0044 1033     		adds	r3, r3, #16
 401 0046 1846     		mov	r0, r3
 402 0048 0021     		movs	r1, #0
 403 004a FFF7FEFF 		bl	chSemResetI
 404              		.loc 5 133 0
 405 004e 03B0     		add	sp, sp, #12
 406              		@ sp needed
 407 0050 5DF804FB 		ldr	pc, [sp], #4
 408              	.L20:
 409              		.align	2
 410              	.L19:
 411 0054 00000000 		.word	__func__.6629
 412              		.cfi_endproc
 413              	.LFE242:
 414              		.size	chMBResetI, .-chMBResetI
 415 0058 AFF30080 		.section	.text.chMBPost,"ax",%progbits
 415      AFF30080 
 416              		.align	2
 417              		.p2align 4,,15
 418              		.global	chMBPost
 419              		.thumb
 420              		.thumb_func
 421              		.type	chMBPost, %function
 422              	chMBPost:
 423              	.LFB243:
 424              		.loc 5 154 0
 425              		.cfi_startproc
 426              		@ args = 0, pretend = 0, frame = 24
 427              		@ frame_needed = 0, uses_anonymous_args = 0
 428 0000 00B5     		push	{lr}
 429              		.cfi_def_cfa_offset 4
 430              		.cfi_offset 14, -4
 431 0002 87B0     		sub	sp, sp, #28
 432              		.cfi_def_cfa_offset 32
 433 0004 0390     		str	r0, [sp, #12]
 434 0006 0291     		str	r1, [sp, #8]
 435 0008 0192     		str	r2, [sp, #4]
 436              		.loc 5 157 0
 437 000a FFF7FEFF 		bl	chSysLock
 438              		.loc 5 158 0
 439 000e 0398     		ldr	r0, [sp, #12]
 440 0010 0299     		ldr	r1, [sp, #8]
 441 0012 019A     		ldr	r2, [sp, #4]
 442 0014 FFF7FEFF 		bl	chMBPostS
 443 0018 0590     		str	r0, [sp, #20]
 444              		.loc 5 159 0
 445 001a FFF7FEFF 		bl	chSysUnlock
 446              		.loc 5 161 0
 447 001e 059B     		ldr	r3, [sp, #20]
 448              		.loc 5 162 0
 449 0020 1846     		mov	r0, r3
ARM GAS  /tmp/ccdBduvo.s 			page 9


 450 0022 07B0     		add	sp, sp, #28
 451              		@ sp needed
 452 0024 5DF804FB 		ldr	pc, [sp], #4
 453              		.cfi_endproc
 454              	.LFE243:
 455              		.size	chMBPost, .-chMBPost
 456 0028 AFF30080 		.section	.text.chMBPostS,"ax",%progbits
 456      AFF30080 
 457              		.align	2
 458              		.p2align 4,,15
 459              		.global	chMBPostS
 460              		.thumb
 461              		.thumb_func
 462              		.type	chMBPostS, %function
 463              	chMBPostS:
 464              	.LFB244:
 465              		.loc 5 183 0
 466              		.cfi_startproc
 467              		@ args = 0, pretend = 0, frame = 24
 468              		@ frame_needed = 0, uses_anonymous_args = 0
 469 0000 00B5     		push	{lr}
 470              		.cfi_def_cfa_offset 4
 471              		.cfi_offset 14, -4
 472 0002 87B0     		sub	sp, sp, #28
 473              		.cfi_def_cfa_offset 32
 474 0004 0390     		str	r0, [sp, #12]
 475 0006 0291     		str	r1, [sp, #8]
 476 0008 0192     		str	r2, [sp, #4]
 477              		.loc 5 186 0
 478 000a FFF7FEFF 		bl	chDbgCheckClassS
 479              		.loc 5 187 0
 480 000e 039B     		ldr	r3, [sp, #12]
 481 0010 002B     		cmp	r3, #0
 482 0012 02D1     		bne	.L24
 483              		.loc 5 187 0 is_stmt 0 discriminator 1
 484 0014 1448     		ldr	r0, .L28
 485 0016 FFF7FEFF 		bl	chSysHalt
 486              	.L24:
 487              		.loc 5 189 0 is_stmt 1
 488 001a 039B     		ldr	r3, [sp, #12]
 489 001c 1C33     		adds	r3, r3, #28
 490 001e 1846     		mov	r0, r3
 491 0020 0199     		ldr	r1, [sp, #4]
 492 0022 FFF7FEFF 		bl	chSemWaitTimeoutS
 493 0026 0590     		str	r0, [sp, #20]
 494              		.loc 5 190 0
 495 0028 059B     		ldr	r3, [sp, #20]
 496 002a 002B     		cmp	r3, #0
 497 002c 17D1     		bne	.L25
 498              		.loc 5 191 0
 499 002e 039B     		ldr	r3, [sp, #12]
 500 0030 9B68     		ldr	r3, [r3, #8]
 501 0032 191D     		adds	r1, r3, #4
 502 0034 039A     		ldr	r2, [sp, #12]
 503 0036 9160     		str	r1, [r2, #8]
 504 0038 029A     		ldr	r2, [sp, #8]
 505 003a 1A60     		str	r2, [r3]
ARM GAS  /tmp/ccdBduvo.s 			page 10


 506              		.loc 5 192 0
 507 003c 039B     		ldr	r3, [sp, #12]
 508 003e 9A68     		ldr	r2, [r3, #8]
 509 0040 039B     		ldr	r3, [sp, #12]
 510 0042 5B68     		ldr	r3, [r3, #4]
 511 0044 9A42     		cmp	r2, r3
 512 0046 03D3     		bcc	.L26
 513              		.loc 5 193 0
 514 0048 039B     		ldr	r3, [sp, #12]
 515 004a 1A68     		ldr	r2, [r3]
 516 004c 039B     		ldr	r3, [sp, #12]
 517 004e 9A60     		str	r2, [r3, #8]
 518              	.L26:
 519              		.loc 5 195 0
 520 0050 039B     		ldr	r3, [sp, #12]
 521 0052 1033     		adds	r3, r3, #16
 522 0054 1846     		mov	r0, r3
 523 0056 FFF7FEFF 		bl	chSemSignalI
 524              		.loc 5 196 0
 525 005a FFF7FEFF 		bl	chSchRescheduleS
 526              	.L25:
 527              		.loc 5 199 0
 528 005e 059B     		ldr	r3, [sp, #20]
 529              		.loc 5 200 0
 530 0060 1846     		mov	r0, r3
 531 0062 07B0     		add	sp, sp, #28
 532              		@ sp needed
 533 0064 5DF804FB 		ldr	pc, [sp], #4
 534              	.L29:
 535              		.align	2
 536              	.L28:
 537 0068 00000000 		.word	__func__.6642
 538              		.cfi_endproc
 539              	.LFE244:
 540              		.size	chMBPostS, .-chMBPostS
 541 006c AFF30080 		.section	.text.chMBPostI,"ax",%progbits
 542              		.align	2
 543              		.p2align 4,,15
 544              		.global	chMBPostI
 545              		.thumb
 546              		.thumb_func
 547              		.type	chMBPostI, %function
 548              	chMBPostI:
 549              	.LFB245:
 550              		.loc 5 216 0
 551              		.cfi_startproc
 552              		@ args = 0, pretend = 0, frame = 8
 553              		@ frame_needed = 0, uses_anonymous_args = 0
 554 0000 00B5     		push	{lr}
 555              		.cfi_def_cfa_offset 4
 556              		.cfi_offset 14, -4
 557 0002 83B0     		sub	sp, sp, #12
 558              		.cfi_def_cfa_offset 16
 559 0004 0190     		str	r0, [sp, #4]
 560 0006 0091     		str	r1, [sp]
 561              		.loc 5 218 0
 562 0008 FFF7FEFF 		bl	chDbgCheckClassI
ARM GAS  /tmp/ccdBduvo.s 			page 11


 563              		.loc 5 219 0
 564 000c 019B     		ldr	r3, [sp, #4]
 565 000e 002B     		cmp	r3, #0
 566 0010 02D1     		bne	.L31
 567              		.loc 5 219 0 is_stmt 0 discriminator 1
 568 0012 1748     		ldr	r0, .L35
 569 0014 FFF7FEFF 		bl	chSysHalt
 570              	.L31:
 571              		.loc 5 221 0 is_stmt 1
 572 0018 019B     		ldr	r3, [sp, #4]
 573 001a 1C33     		adds	r3, r3, #28
 574 001c 1846     		mov	r0, r3
 575 001e FFF7FEFF 		bl	chSemGetCounterI
 576 0022 0346     		mov	r3, r0
 577 0024 002B     		cmp	r3, #0
 578 0026 02DC     		bgt	.L32
 579              		.loc 5 222 0
 580 0028 4FF0FF33 		mov	r3, #-1
 581 002c 1BE0     		b	.L33
 582              	.L32:
 583              		.loc 5 225 0
 584 002e 019B     		ldr	r3, [sp, #4]
 585 0030 1C33     		adds	r3, r3, #28
 586 0032 1846     		mov	r0, r3
 587 0034 FFF7FEFF 		bl	chSemFastWaitI
 588              		.loc 5 226 0
 589 0038 019B     		ldr	r3, [sp, #4]
 590 003a 9B68     		ldr	r3, [r3, #8]
 591 003c 191D     		adds	r1, r3, #4
 592 003e 019A     		ldr	r2, [sp, #4]
 593 0040 9160     		str	r1, [r2, #8]
 594 0042 009A     		ldr	r2, [sp]
 595 0044 1A60     		str	r2, [r3]
 596              		.loc 5 227 0
 597 0046 019B     		ldr	r3, [sp, #4]
 598 0048 9A68     		ldr	r2, [r3, #8]
 599 004a 019B     		ldr	r3, [sp, #4]
 600 004c 5B68     		ldr	r3, [r3, #4]
 601 004e 9A42     		cmp	r2, r3
 602 0050 03D3     		bcc	.L34
 603              		.loc 5 228 0
 604 0052 019B     		ldr	r3, [sp, #4]
 605 0054 1A68     		ldr	r2, [r3]
 606 0056 019B     		ldr	r3, [sp, #4]
 607 0058 9A60     		str	r2, [r3, #8]
 608              	.L34:
 609              		.loc 5 230 0
 610 005a 019B     		ldr	r3, [sp, #4]
 611 005c 1033     		adds	r3, r3, #16
 612 005e 1846     		mov	r0, r3
 613 0060 FFF7FEFF 		bl	chSemSignalI
 614              		.loc 5 232 0
 615 0064 0023     		movs	r3, #0
 616              	.L33:
 617              		.loc 5 233 0
 618 0066 1846     		mov	r0, r3
 619 0068 03B0     		add	sp, sp, #12
ARM GAS  /tmp/ccdBduvo.s 			page 12


 620              		@ sp needed
 621 006a 5DF804FB 		ldr	pc, [sp], #4
 622              	.L36:
 623 006e 00BF     		.align	2
 624              	.L35:
 625 0070 00000000 		.word	__func__.6647
 626              		.cfi_endproc
 627              	.LFE245:
 628              		.size	chMBPostI, .-chMBPostI
 629 0074 AFF30080 		.section	.text.chMBPostAhead,"ax",%progbits
 629      AFF30080 
 629      AFF30080 
 630              		.align	2
 631              		.p2align 4,,15
 632              		.global	chMBPostAhead
 633              		.thumb
 634              		.thumb_func
 635              		.type	chMBPostAhead, %function
 636              	chMBPostAhead:
 637              	.LFB246:
 638              		.loc 5 254 0
 639              		.cfi_startproc
 640              		@ args = 0, pretend = 0, frame = 24
 641              		@ frame_needed = 0, uses_anonymous_args = 0
 642 0000 00B5     		push	{lr}
 643              		.cfi_def_cfa_offset 4
 644              		.cfi_offset 14, -4
 645 0002 87B0     		sub	sp, sp, #28
 646              		.cfi_def_cfa_offset 32
 647 0004 0390     		str	r0, [sp, #12]
 648 0006 0291     		str	r1, [sp, #8]
 649 0008 0192     		str	r2, [sp, #4]
 650              		.loc 5 257 0
 651 000a FFF7FEFF 		bl	chSysLock
 652              		.loc 5 258 0
 653 000e 0398     		ldr	r0, [sp, #12]
 654 0010 0299     		ldr	r1, [sp, #8]
 655 0012 019A     		ldr	r2, [sp, #4]
 656 0014 FFF7FEFF 		bl	chMBPostAheadS
 657 0018 0590     		str	r0, [sp, #20]
 658              		.loc 5 259 0
 659 001a FFF7FEFF 		bl	chSysUnlock
 660              		.loc 5 261 0
 661 001e 059B     		ldr	r3, [sp, #20]
 662              		.loc 5 262 0
 663 0020 1846     		mov	r0, r3
 664 0022 07B0     		add	sp, sp, #28
 665              		@ sp needed
 666 0024 5DF804FB 		ldr	pc, [sp], #4
 667              		.cfi_endproc
 668              	.LFE246:
 669              		.size	chMBPostAhead, .-chMBPostAhead
 670 0028 AFF30080 		.section	.text.chMBPostAheadS,"ax",%progbits
 670      AFF30080 
 671              		.align	2
 672              		.p2align 4,,15
 673              		.global	chMBPostAheadS
ARM GAS  /tmp/ccdBduvo.s 			page 13


 674              		.thumb
 675              		.thumb_func
 676              		.type	chMBPostAheadS, %function
 677              	chMBPostAheadS:
 678              	.LFB247:
 679              		.loc 5 283 0
 680              		.cfi_startproc
 681              		@ args = 0, pretend = 0, frame = 24
 682              		@ frame_needed = 0, uses_anonymous_args = 0
 683 0000 00B5     		push	{lr}
 684              		.cfi_def_cfa_offset 4
 685              		.cfi_offset 14, -4
 686 0002 87B0     		sub	sp, sp, #28
 687              		.cfi_def_cfa_offset 32
 688 0004 0390     		str	r0, [sp, #12]
 689 0006 0291     		str	r1, [sp, #8]
 690 0008 0192     		str	r2, [sp, #4]
 691              		.loc 5 286 0
 692 000a FFF7FEFF 		bl	chDbgCheckClassS
 693              		.loc 5 287 0
 694 000e 039B     		ldr	r3, [sp, #12]
 695 0010 002B     		cmp	r3, #0
 696 0012 02D1     		bne	.L40
 697              		.loc 5 287 0 is_stmt 0 discriminator 1
 698 0014 1648     		ldr	r0, .L44
 699 0016 FFF7FEFF 		bl	chSysHalt
 700              	.L40:
 701              		.loc 5 289 0 is_stmt 1
 702 001a 039B     		ldr	r3, [sp, #12]
 703 001c 1C33     		adds	r3, r3, #28
 704 001e 1846     		mov	r0, r3
 705 0020 0199     		ldr	r1, [sp, #4]
 706 0022 FFF7FEFF 		bl	chSemWaitTimeoutS
 707 0026 0590     		str	r0, [sp, #20]
 708              		.loc 5 290 0
 709 0028 059B     		ldr	r3, [sp, #20]
 710 002a 002B     		cmp	r3, #0
 711 002c 1AD1     		bne	.L41
 712              		.loc 5 291 0
 713 002e 039B     		ldr	r3, [sp, #12]
 714 0030 DB68     		ldr	r3, [r3, #12]
 715 0032 1A1F     		subs	r2, r3, #4
 716 0034 039B     		ldr	r3, [sp, #12]
 717 0036 DA60     		str	r2, [r3, #12]
 718 0038 039B     		ldr	r3, [sp, #12]
 719 003a DA68     		ldr	r2, [r3, #12]
 720 003c 039B     		ldr	r3, [sp, #12]
 721 003e 1B68     		ldr	r3, [r3]
 722 0040 9A42     		cmp	r2, r3
 723 0042 04D2     		bcs	.L42
 724              		.loc 5 292 0
 725 0044 039B     		ldr	r3, [sp, #12]
 726 0046 5B68     		ldr	r3, [r3, #4]
 727 0048 1A1F     		subs	r2, r3, #4
 728 004a 039B     		ldr	r3, [sp, #12]
 729 004c DA60     		str	r2, [r3, #12]
 730              	.L42:
ARM GAS  /tmp/ccdBduvo.s 			page 14


 731              		.loc 5 294 0
 732 004e 039B     		ldr	r3, [sp, #12]
 733 0050 DB68     		ldr	r3, [r3, #12]
 734 0052 029A     		ldr	r2, [sp, #8]
 735 0054 1A60     		str	r2, [r3]
 736              		.loc 5 295 0
 737 0056 039B     		ldr	r3, [sp, #12]
 738 0058 1033     		adds	r3, r3, #16
 739 005a 1846     		mov	r0, r3
 740 005c FFF7FEFF 		bl	chSemSignalI
 741              		.loc 5 296 0
 742 0060 FFF7FEFF 		bl	chSchRescheduleS
 743              	.L41:
 744              		.loc 5 299 0
 745 0064 059B     		ldr	r3, [sp, #20]
 746              		.loc 5 300 0
 747 0066 1846     		mov	r0, r3
 748 0068 07B0     		add	sp, sp, #28
 749              		@ sp needed
 750 006a 5DF804FB 		ldr	pc, [sp], #4
 751              	.L45:
 752 006e 00BF     		.align	2
 753              	.L44:
 754 0070 00000000 		.word	__func__.6660
 755              		.cfi_endproc
 756              	.LFE247:
 757              		.size	chMBPostAheadS, .-chMBPostAheadS
 758 0074 AFF30080 		.section	.text.chMBPostAheadI,"ax",%progbits
 758      AFF30080 
 758      AFF30080 
 759              		.align	2
 760              		.p2align 4,,15
 761              		.global	chMBPostAheadI
 762              		.thumb
 763              		.thumb_func
 764              		.type	chMBPostAheadI, %function
 765              	chMBPostAheadI:
 766              	.LFB248:
 767              		.loc 5 316 0
 768              		.cfi_startproc
 769              		@ args = 0, pretend = 0, frame = 8
 770              		@ frame_needed = 0, uses_anonymous_args = 0
 771 0000 00B5     		push	{lr}
 772              		.cfi_def_cfa_offset 4
 773              		.cfi_offset 14, -4
 774 0002 83B0     		sub	sp, sp, #12
 775              		.cfi_def_cfa_offset 16
 776 0004 0190     		str	r0, [sp, #4]
 777 0006 0091     		str	r1, [sp]
 778              		.loc 5 318 0
 779 0008 FFF7FEFF 		bl	chDbgCheckClassI
 780              		.loc 5 319 0
 781 000c 019B     		ldr	r3, [sp, #4]
 782 000e 002B     		cmp	r3, #0
 783 0010 02D1     		bne	.L47
 784              		.loc 5 319 0 is_stmt 0 discriminator 1
 785 0012 1848     		ldr	r0, .L51
ARM GAS  /tmp/ccdBduvo.s 			page 15


 786 0014 FFF7FEFF 		bl	chSysHalt
 787              	.L47:
 788              		.loc 5 321 0 is_stmt 1
 789 0018 019B     		ldr	r3, [sp, #4]
 790 001a 1C33     		adds	r3, r3, #28
 791 001c 1846     		mov	r0, r3
 792 001e FFF7FEFF 		bl	chSemGetCounterI
 793 0022 0346     		mov	r3, r0
 794 0024 002B     		cmp	r3, #0
 795 0026 02DC     		bgt	.L48
 796              		.loc 5 322 0
 797 0028 4FF0FF33 		mov	r3, #-1
 798 002c 1EE0     		b	.L49
 799              	.L48:
 800              		.loc 5 324 0
 801 002e 019B     		ldr	r3, [sp, #4]
 802 0030 1C33     		adds	r3, r3, #28
 803 0032 1846     		mov	r0, r3
 804 0034 FFF7FEFF 		bl	chSemFastWaitI
 805              		.loc 5 325 0
 806 0038 019B     		ldr	r3, [sp, #4]
 807 003a DB68     		ldr	r3, [r3, #12]
 808 003c 1A1F     		subs	r2, r3, #4
 809 003e 019B     		ldr	r3, [sp, #4]
 810 0040 DA60     		str	r2, [r3, #12]
 811 0042 019B     		ldr	r3, [sp, #4]
 812 0044 DA68     		ldr	r2, [r3, #12]
 813 0046 019B     		ldr	r3, [sp, #4]
 814 0048 1B68     		ldr	r3, [r3]
 815 004a 9A42     		cmp	r2, r3
 816 004c 04D2     		bcs	.L50
 817              		.loc 5 326 0
 818 004e 019B     		ldr	r3, [sp, #4]
 819 0050 5B68     		ldr	r3, [r3, #4]
 820 0052 1A1F     		subs	r2, r3, #4
 821 0054 019B     		ldr	r3, [sp, #4]
 822 0056 DA60     		str	r2, [r3, #12]
 823              	.L50:
 824              		.loc 5 328 0
 825 0058 019B     		ldr	r3, [sp, #4]
 826 005a DB68     		ldr	r3, [r3, #12]
 827 005c 009A     		ldr	r2, [sp]
 828 005e 1A60     		str	r2, [r3]
 829              		.loc 5 329 0
 830 0060 019B     		ldr	r3, [sp, #4]
 831 0062 1033     		adds	r3, r3, #16
 832 0064 1846     		mov	r0, r3
 833 0066 FFF7FEFF 		bl	chSemSignalI
 834              		.loc 5 331 0
 835 006a 0023     		movs	r3, #0
 836              	.L49:
 837              		.loc 5 332 0
 838 006c 1846     		mov	r0, r3
 839 006e 03B0     		add	sp, sp, #12
 840              		@ sp needed
 841 0070 5DF804FB 		ldr	pc, [sp], #4
 842              	.L52:
ARM GAS  /tmp/ccdBduvo.s 			page 16


 843              		.align	2
 844              	.L51:
 845 0074 00000000 		.word	__func__.6665
 846              		.cfi_endproc
 847              	.LFE248:
 848              		.size	chMBPostAheadI, .-chMBPostAheadI
 849 0078 AFF30080 		.section	.text.chMBFetch,"ax",%progbits
 849      AFF30080 
 850              		.align	2
 851              		.p2align 4,,15
 852              		.global	chMBFetch
 853              		.thumb
 854              		.thumb_func
 855              		.type	chMBFetch, %function
 856              	chMBFetch:
 857              	.LFB249:
 858              		.loc 5 353 0
 859              		.cfi_startproc
 860              		@ args = 0, pretend = 0, frame = 24
 861              		@ frame_needed = 0, uses_anonymous_args = 0
 862 0000 00B5     		push	{lr}
 863              		.cfi_def_cfa_offset 4
 864              		.cfi_offset 14, -4
 865 0002 87B0     		sub	sp, sp, #28
 866              		.cfi_def_cfa_offset 32
 867 0004 0390     		str	r0, [sp, #12]
 868 0006 0291     		str	r1, [sp, #8]
 869 0008 0192     		str	r2, [sp, #4]
 870              		.loc 5 356 0
 871 000a FFF7FEFF 		bl	chSysLock
 872              		.loc 5 357 0
 873 000e 0398     		ldr	r0, [sp, #12]
 874 0010 0299     		ldr	r1, [sp, #8]
 875 0012 019A     		ldr	r2, [sp, #4]
 876 0014 FFF7FEFF 		bl	chMBFetchS
 877 0018 0590     		str	r0, [sp, #20]
 878              		.loc 5 358 0
 879 001a FFF7FEFF 		bl	chSysUnlock
 880              		.loc 5 360 0
 881 001e 059B     		ldr	r3, [sp, #20]
 882              		.loc 5 361 0
 883 0020 1846     		mov	r0, r3
 884 0022 07B0     		add	sp, sp, #28
 885              		@ sp needed
 886 0024 5DF804FB 		ldr	pc, [sp], #4
 887              		.cfi_endproc
 888              	.LFE249:
 889              		.size	chMBFetch, .-chMBFetch
 890 0028 AFF30080 		.section	.text.chMBFetchS,"ax",%progbits
 890      AFF30080 
 891              		.align	2
 892              		.p2align 4,,15
 893              		.global	chMBFetchS
 894              		.thumb
 895              		.thumb_func
 896              		.type	chMBFetchS, %function
 897              	chMBFetchS:
ARM GAS  /tmp/ccdBduvo.s 			page 17


 898              	.LFB250:
 899              		.loc 5 382 0
 900              		.cfi_startproc
 901              		@ args = 0, pretend = 0, frame = 24
 902              		@ frame_needed = 0, uses_anonymous_args = 0
 903 0000 00B5     		push	{lr}
 904              		.cfi_def_cfa_offset 4
 905              		.cfi_offset 14, -4
 906 0002 87B0     		sub	sp, sp, #28
 907              		.cfi_def_cfa_offset 32
 908 0004 0390     		str	r0, [sp, #12]
 909 0006 0291     		str	r1, [sp, #8]
 910 0008 0192     		str	r2, [sp, #4]
 911              		.loc 5 385 0
 912 000a FFF7FEFF 		bl	chDbgCheckClassS
 913              		.loc 5 386 0
 914 000e 039B     		ldr	r3, [sp, #12]
 915 0010 002B     		cmp	r3, #0
 916 0012 02D0     		beq	.L56
 917              		.loc 5 386 0 is_stmt 0 discriminator 2
 918 0014 029B     		ldr	r3, [sp, #8]
 919 0016 002B     		cmp	r3, #0
 920 0018 02D1     		bne	.L57
 921              	.L56:
 922              		.loc 5 386 0 discriminator 1
 923 001a 1548     		ldr	r0, .L61
 924 001c FFF7FEFF 		bl	chSysHalt
 925              	.L57:
 926              		.loc 5 388 0 is_stmt 1
 927 0020 039B     		ldr	r3, [sp, #12]
 928 0022 1033     		adds	r3, r3, #16
 929 0024 1846     		mov	r0, r3
 930 0026 0199     		ldr	r1, [sp, #4]
 931 0028 FFF7FEFF 		bl	chSemWaitTimeoutS
 932 002c 0590     		str	r0, [sp, #20]
 933              		.loc 5 389 0
 934 002e 059B     		ldr	r3, [sp, #20]
 935 0030 002B     		cmp	r3, #0
 936 0032 18D1     		bne	.L58
 937              		.loc 5 390 0
 938 0034 039B     		ldr	r3, [sp, #12]
 939 0036 DB68     		ldr	r3, [r3, #12]
 940 0038 191D     		adds	r1, r3, #4
 941 003a 039A     		ldr	r2, [sp, #12]
 942 003c D160     		str	r1, [r2, #12]
 943 003e 1A68     		ldr	r2, [r3]
 944 0040 029B     		ldr	r3, [sp, #8]
 945 0042 1A60     		str	r2, [r3]
 946              		.loc 5 391 0
 947 0044 039B     		ldr	r3, [sp, #12]
 948 0046 DA68     		ldr	r2, [r3, #12]
 949 0048 039B     		ldr	r3, [sp, #12]
 950 004a 5B68     		ldr	r3, [r3, #4]
 951 004c 9A42     		cmp	r2, r3
 952 004e 03D3     		bcc	.L59
 953              		.loc 5 392 0
 954 0050 039B     		ldr	r3, [sp, #12]
ARM GAS  /tmp/ccdBduvo.s 			page 18


 955 0052 1A68     		ldr	r2, [r3]
 956 0054 039B     		ldr	r3, [sp, #12]
 957 0056 DA60     		str	r2, [r3, #12]
 958              	.L59:
 959              		.loc 5 394 0
 960 0058 039B     		ldr	r3, [sp, #12]
 961 005a 1C33     		adds	r3, r3, #28
 962 005c 1846     		mov	r0, r3
 963 005e FFF7FEFF 		bl	chSemSignalI
 964              		.loc 5 395 0
 965 0062 FFF7FEFF 		bl	chSchRescheduleS
 966              	.L58:
 967              		.loc 5 398 0
 968 0066 059B     		ldr	r3, [sp, #20]
 969              		.loc 5 399 0
 970 0068 1846     		mov	r0, r3
 971 006a 07B0     		add	sp, sp, #28
 972              		@ sp needed
 973 006c 5DF804FB 		ldr	pc, [sp], #4
 974              	.L62:
 975              		.align	2
 976              	.L61:
 977 0070 00000000 		.word	__func__.6678
 978              		.cfi_endproc
 979              	.LFE250:
 980              		.size	chMBFetchS, .-chMBFetchS
 981 0074 AFF30080 		.section	.text.chMBFetchI,"ax",%progbits
 981      AFF30080 
 981      AFF30080 
 982              		.align	2
 983              		.p2align 4,,15
 984              		.global	chMBFetchI
 985              		.thumb
 986              		.thumb_func
 987              		.type	chMBFetchI, %function
 988              	chMBFetchI:
 989              	.LFB251:
 990              		.loc 5 415 0
 991              		.cfi_startproc
 992              		@ args = 0, pretend = 0, frame = 8
 993              		@ frame_needed = 0, uses_anonymous_args = 0
 994 0000 00B5     		push	{lr}
 995              		.cfi_def_cfa_offset 4
 996              		.cfi_offset 14, -4
 997 0002 83B0     		sub	sp, sp, #12
 998              		.cfi_def_cfa_offset 16
 999 0004 0190     		str	r0, [sp, #4]
 1000 0006 0091     		str	r1, [sp]
 1001              		.loc 5 417 0
 1002 0008 FFF7FEFF 		bl	chDbgCheckClassI
 1003              		.loc 5 418 0
 1004 000c 019B     		ldr	r3, [sp, #4]
 1005 000e 002B     		cmp	r3, #0
 1006 0010 02D0     		beq	.L64
 1007              		.loc 5 418 0 is_stmt 0 discriminator 2
 1008 0012 009B     		ldr	r3, [sp]
 1009 0014 002B     		cmp	r3, #0
ARM GAS  /tmp/ccdBduvo.s 			page 19


 1010 0016 02D1     		bne	.L65
 1011              	.L64:
 1012              		.loc 5 418 0 discriminator 1
 1013 0018 1748     		ldr	r0, .L69
 1014 001a FFF7FEFF 		bl	chSysHalt
 1015              	.L65:
 1016              		.loc 5 420 0 is_stmt 1
 1017 001e 019B     		ldr	r3, [sp, #4]
 1018 0020 1033     		adds	r3, r3, #16
 1019 0022 1846     		mov	r0, r3
 1020 0024 FFF7FEFF 		bl	chSemGetCounterI
 1021 0028 0346     		mov	r3, r0
 1022 002a 002B     		cmp	r3, #0
 1023 002c 02DC     		bgt	.L66
 1024              		.loc 5 421 0
 1025 002e 4FF0FF33 		mov	r3, #-1
 1026 0032 1CE0     		b	.L67
 1027              	.L66:
 1028              		.loc 5 423 0
 1029 0034 019B     		ldr	r3, [sp, #4]
 1030 0036 1033     		adds	r3, r3, #16
 1031 0038 1846     		mov	r0, r3
 1032 003a FFF7FEFF 		bl	chSemFastWaitI
 1033              		.loc 5 424 0
 1034 003e 019B     		ldr	r3, [sp, #4]
 1035 0040 DB68     		ldr	r3, [r3, #12]
 1036 0042 191D     		adds	r1, r3, #4
 1037 0044 019A     		ldr	r2, [sp, #4]
 1038 0046 D160     		str	r1, [r2, #12]
 1039 0048 1A68     		ldr	r2, [r3]
 1040 004a 009B     		ldr	r3, [sp]
 1041 004c 1A60     		str	r2, [r3]
 1042              		.loc 5 425 0
 1043 004e 019B     		ldr	r3, [sp, #4]
 1044 0050 DA68     		ldr	r2, [r3, #12]
 1045 0052 019B     		ldr	r3, [sp, #4]
 1046 0054 5B68     		ldr	r3, [r3, #4]
 1047 0056 9A42     		cmp	r2, r3
 1048 0058 03D3     		bcc	.L68
 1049              		.loc 5 426 0
 1050 005a 019B     		ldr	r3, [sp, #4]
 1051 005c 1A68     		ldr	r2, [r3]
 1052 005e 019B     		ldr	r3, [sp, #4]
 1053 0060 DA60     		str	r2, [r3, #12]
 1054              	.L68:
 1055              		.loc 5 428 0
 1056 0062 019B     		ldr	r3, [sp, #4]
 1057 0064 1C33     		adds	r3, r3, #28
 1058 0066 1846     		mov	r0, r3
 1059 0068 FFF7FEFF 		bl	chSemSignalI
 1060              		.loc 5 430 0
 1061 006c 0023     		movs	r3, #0
 1062              	.L67:
 1063              		.loc 5 431 0
 1064 006e 1846     		mov	r0, r3
 1065 0070 03B0     		add	sp, sp, #12
 1066              		@ sp needed
ARM GAS  /tmp/ccdBduvo.s 			page 20


 1067 0072 5DF804FB 		ldr	pc, [sp], #4
 1068              	.L70:
 1069 0076 00BF     		.align	2
 1070              	.L69:
 1071 0078 00000000 		.word	__func__.6683
 1072              		.cfi_endproc
 1073              	.LFE251:
 1074              		.size	chMBFetchI, .-chMBFetchI
 1075 007c AFF30080 		.section	.rodata.__func__.6622,"a",%progbits
 1076              		.align	2
 1077              		.type	__func__.6622, %object
 1078              		.size	__func__.6622, 15
 1079              	__func__.6622:
 1080 0000 63684D42 		.ascii	"chMBObjectInit\000"
 1080      4F626A65 
 1080      6374496E 
 1080      697400
 1081 000f 00       		.section	.rodata.__func__.5925,"a",%progbits
 1082              		.align	2
 1083              		.type	__func__.5925, %object
 1084              		.size	__func__.5925, 12
 1085              	__func__.5925:
 1086 0000 63685379 		.ascii	"chSysUnlock\000"
 1086      73556E6C 
 1086      6F636B00 
 1087              		.section	.rodata.__func__.6629,"a",%progbits
 1088              		.align	2
 1089              		.type	__func__.6629, %object
 1090              		.size	__func__.6629, 11
 1091              	__func__.6629:
 1092 0000 63684D42 		.ascii	"chMBResetI\000"
 1092      52657365 
 1092      744900
 1093 000b 00       		.section	.rodata.__func__.6642,"a",%progbits
 1094              		.align	2
 1095              		.type	__func__.6642, %object
 1096              		.size	__func__.6642, 10
 1097              	__func__.6642:
 1098 0000 63684D42 		.ascii	"chMBPostS\000"
 1098      506F7374 
 1098      5300
 1099 000a 0000     		.section	.rodata.__func__.6647,"a",%progbits
 1100              		.align	2
 1101              		.type	__func__.6647, %object
 1102              		.size	__func__.6647, 10
 1103              	__func__.6647:
 1104 0000 63684D42 		.ascii	"chMBPostI\000"
 1104      506F7374 
 1104      4900
 1105 000a 0000     		.section	.rodata.__func__.6660,"a",%progbits
 1106              		.align	2
 1107              		.type	__func__.6660, %object
 1108              		.size	__func__.6660, 15
 1109              	__func__.6660:
 1110 0000 63684D42 		.ascii	"chMBPostAheadS\000"
 1110      506F7374 
 1110      41686561 
ARM GAS  /tmp/ccdBduvo.s 			page 21


 1110      645300
 1111 000f 00       		.section	.rodata.__func__.6665,"a",%progbits
 1112              		.align	2
 1113              		.type	__func__.6665, %object
 1114              		.size	__func__.6665, 15
 1115              	__func__.6665:
 1116 0000 63684D42 		.ascii	"chMBPostAheadI\000"
 1116      506F7374 
 1116      41686561 
 1116      644900
 1117 000f 00       		.section	.rodata.__func__.6678,"a",%progbits
 1118              		.align	2
 1119              		.type	__func__.6678, %object
 1120              		.size	__func__.6678, 11
 1121              	__func__.6678:
 1122 0000 63684D42 		.ascii	"chMBFetchS\000"
 1122      46657463 
 1122      685300
 1123 000b 00       		.section	.rodata.__func__.6683,"a",%progbits
 1124              		.align	2
 1125              		.type	__func__.6683, %object
 1126              		.size	__func__.6683, 11
 1127              	__func__.6683:
 1128 0000 63684D42 		.ascii	"chMBFetchI\000"
 1128      46657463 
 1128      684900
 1129 000b 00       		.text
 1130              	.Letext0:
 1131              		.file 6 "/usr/include/newlib/machine/_default_types.h"
 1132              		.file 7 "/usr/include/newlib/stdint.h"
 1133              		.file 8 "/home/efe/ChibiOS/os/rt/ports/ARMCMx/compilers/GCC/chtypes.h"
 1134              		.file 9 "/home/efe/ChibiOS/os/rt/include/chsystypes.h"
 1135              		.file 10 "/home/efe/ChibiOS/os/rt/include/chschd.h"
 1136              		.file 11 "/home/efe/ChibiOS/os/rt/ports/ARMCMx/chcore.h"
 1137              		.file 12 "/home/efe/ChibiOS/os/rt/include/chdebug.h"
 1138              		.file 13 "/home/efe/ChibiOS/os/rt/include/chtm.h"
 1139              		.file 14 "/home/efe/ChibiOS/os/rt/include/chstats.h"
 1140              		.file 15 "/home/efe/ChibiOS/os/rt/include/chmtx.h"
 1141              		.file 16 "/home/efe/ChibiOS/os/rt/include/chmboxes.h"
 1142              		.file 17 "/home/efe/ChibiOS/os/ext/CMSIS/include/core_cm4.h"