ARM GAS  /tmp/ccJrf82H.s 			page 1


   1              		.syntax unified
   2              		.cpu cortex-m4
   3              		.fpu softvfp
   4              		.eabi_attribute 20, 1
   5              		.eabi_attribute 21, 1
   6              		.eabi_attribute 23, 3
   7              		.eabi_attribute 24, 1
   8              		.eabi_attribute 25, 1
   9              		.eabi_attribute 26, 1
  10              		.eabi_attribute 30, 6
  11              		.eabi_attribute 34, 1
  12              		.eabi_attribute 18, 4
  13              		.thumb
  14              		.file	"chmempools.c"
  15              		.text
  16              	.Ltext0:
  17              		.cfi_sections	.debug_frame
  18              		.section	.text.port_lock,"ax",%progbits
  19              		.align	2
  20              		.p2align 4,,15
  21              		.thumb
  22              		.thumb_func
  23              		.type	port_lock, %function
  24              	port_lock:
  25              	.LFB127:
  26              		.file 1 "/home/efe/ChibiOS/os/rt/ports/ARMCMx/chcore_v7m.h"
  27              		.loc 1 456 0
  28              		.cfi_startproc
  29              		@ args = 0, pretend = 0, frame = 8
  30              		@ frame_needed = 0, uses_anonymous_args = 0
  31              		@ link register save eliminated.
  32 0000 82B0     		sub	sp, sp, #8
  33              		.cfi_def_cfa_offset 8
  34 0002 2023     		movs	r3, #32
  35 0004 0193     		str	r3, [sp, #4]
  36              	.LBB6:
  37              	.LBB7:
  38              		.file 2 "/home/efe/ChibiOS/os/ext/CMSIS/include/core_cmFunc.h"
  39              		.loc 2 548 0
  40 0006 019B     		ldr	r3, [sp, #4]
  41              	@ 548 "/home/efe/ChibiOS/os/ext/CMSIS/include/core_cmFunc.h" 1
  42 0008 83F31188 		MSR basepri, r3
  43              	@ 0 "" 2
  44              		.thumb
  45              	.LBE7:
  46              	.LBE6:
  47              		.loc 1 463 0
  48 000c 02B0     		add	sp, sp, #8
  49              		@ sp needed
  50 000e 7047     		bx	lr
  51              		.cfi_endproc
  52              	.LFE127:
  53              		.size	port_lock, .-port_lock
  54              		.section	.text.port_unlock,"ax",%progbits
  55              		.align	2
  56              		.p2align 4,,15
  57              		.thumb
ARM GAS  /tmp/ccJrf82H.s 			page 2


  58              		.thumb_func
  59              		.type	port_unlock, %function
  60              	port_unlock:
  61              	.LFB128:
  62              		.loc 1 470 0
  63              		.cfi_startproc
  64              		@ args = 0, pretend = 0, frame = 8
  65              		@ frame_needed = 0, uses_anonymous_args = 0
  66              		@ link register save eliminated.
  67 0000 82B0     		sub	sp, sp, #8
  68              		.cfi_def_cfa_offset 8
  69 0002 0023     		movs	r3, #0
  70 0004 0193     		str	r3, [sp, #4]
  71              	.LBB8:
  72              	.LBB9:
  73              		.loc 2 548 0
  74 0006 019B     		ldr	r3, [sp, #4]
  75              	@ 548 "/home/efe/ChibiOS/os/ext/CMSIS/include/core_cmFunc.h" 1
  76 0008 83F31188 		MSR basepri, r3
  77              	@ 0 "" 2
  78              		.thumb
  79              	.LBE9:
  80              	.LBE8:
  81              		.loc 1 477 0
  82 000c 02B0     		add	sp, sp, #8
  83              		@ sp needed
  84 000e 7047     		bx	lr
  85              		.cfi_endproc
  86              	.LFE128:
  87              		.size	port_unlock, .-port_unlock
  88              		.section	.text.chSysLock,"ax",%progbits
  89              		.align	2
  90              		.p2align 4,,15
  91              		.thumb
  92              		.thumb_func
  93              		.type	chSysLock, %function
  94              	chSysLock:
  95              	.LFB167:
  96              		.file 3 "/home/efe/ChibiOS/os/rt/include/chsys.h"
  97              		.loc 3 346 0
  98              		.cfi_startproc
  99              		@ args = 0, pretend = 0, frame = 0
 100              		@ frame_needed = 0, uses_anonymous_args = 0
 101 0000 08B5     		push	{r3, lr}
 102              		.cfi_def_cfa_offset 8
 103              		.cfi_offset 3, -8
 104              		.cfi_offset 14, -4
 105              		.loc 3 348 0
 106 0002 FFF7FEFF 		bl	port_lock
 107              		.loc 3 349 0
 108 0006 FFF7FEFF 		bl	_stats_start_measure_crit_thd
 109              		.loc 3 350 0
 110 000a FFF7FEFF 		bl	_dbg_check_lock
 111              		.loc 3 351 0
 112 000e 08BD     		pop	{r3, pc}
 113              		.cfi_endproc
 114              	.LFE167:
ARM GAS  /tmp/ccJrf82H.s 			page 3


 115              		.size	chSysLock, .-chSysLock
 116              		.section	.text.chSysUnlock,"ax",%progbits
 117              		.align	2
 118              		.p2align 4,,15
 119              		.thumb
 120              		.thumb_func
 121              		.type	chSysUnlock, %function
 122              	chSysUnlock:
 123              	.LFB168:
 124              		.loc 3 358 0
 125              		.cfi_startproc
 126              		@ args = 0, pretend = 0, frame = 0
 127              		@ frame_needed = 0, uses_anonymous_args = 0
 128 0000 08B5     		push	{r3, lr}
 129              		.cfi_def_cfa_offset 8
 130              		.cfi_offset 3, -8
 131              		.cfi_offset 14, -4
 132              		.loc 3 360 0
 133 0002 FFF7FEFF 		bl	_dbg_check_unlock
 134              		.loc 3 361 0
 135 0006 FFF7FEFF 		bl	_stats_stop_measure_crit_thd
 136              		.loc 3 367 0
 137 000a 094B     		ldr	r3, .L6
 138 000c 1A68     		ldr	r2, [r3]
 139 000e 084B     		ldr	r3, .L6
 140 0010 9A42     		cmp	r2, r3
 141 0012 0AD0     		beq	.L5
 142              		.loc 3 367 0 is_stmt 0 discriminator 1
 143 0014 064B     		ldr	r3, .L6
 144 0016 9B69     		ldr	r3, [r3, #24]
 145 0018 9A68     		ldr	r2, [r3, #8]
 146 001a 054B     		ldr	r3, .L6
 147 001c 1B68     		ldr	r3, [r3]
 148 001e 9B68     		ldr	r3, [r3, #8]
 149 0020 9A42     		cmp	r2, r3
 150 0022 02D2     		bcs	.L5
 151 0024 0348     		ldr	r0, .L6+4
 152 0026 FFF7FEFF 		bl	chSysHalt
 153              	.L5:
 154              		.loc 3 371 0 is_stmt 1
 155 002a FFF7FEFF 		bl	port_unlock
 156              		.loc 3 372 0
 157 002e 08BD     		pop	{r3, pc}
 158              	.L7:
 159              		.align	2
 160              	.L6:
 161 0030 00000000 		.word	ch
 162 0034 00000000 		.word	__func__.5925
 163              		.cfi_endproc
 164              	.LFE168:
 165              		.size	chSysUnlock, .-chSysUnlock
 166 0038 AFF30080 		.section	.text.chPoolAdd,"ax",%progbits
 166      AFF30080 
 167              		.align	2
 168              		.p2align 4,,15
 169              		.thumb
 170              		.thumb_func
ARM GAS  /tmp/ccJrf82H.s 			page 4


 171              		.type	chPoolAdd, %function
 172              	chPoolAdd:
 173              	.LFB228:
 174              		.file 4 "/home/efe/ChibiOS/os/rt/include/chmempools.h"
 175              		.loc 4 137 0
 176              		.cfi_startproc
 177              		@ args = 0, pretend = 0, frame = 8
 178              		@ frame_needed = 0, uses_anonymous_args = 0
 179 0000 00B5     		push	{lr}
 180              		.cfi_def_cfa_offset 4
 181              		.cfi_offset 14, -4
 182 0002 83B0     		sub	sp, sp, #12
 183              		.cfi_def_cfa_offset 16
 184 0004 0190     		str	r0, [sp, #4]
 185 0006 0091     		str	r1, [sp]
 186              		.loc 4 139 0
 187 0008 0198     		ldr	r0, [sp, #4]
 188 000a 0099     		ldr	r1, [sp]
 189 000c FFF7FEFF 		bl	chPoolFree
 190              		.loc 4 140 0
 191 0010 03B0     		add	sp, sp, #12
 192              		@ sp needed
 193 0012 5DF804FB 		ldr	pc, [sp], #4
 194              		.cfi_endproc
 195              	.LFE228:
 196              		.size	chPoolAdd, .-chPoolAdd
 197 0016 00BFAFF3 		.section	.text.chPoolObjectInit,"ax",%progbits
 197      0080AFF3 
 197      0080
 198              		.align	2
 199              		.p2align 4,,15
 200              		.global	chPoolObjectInit
 201              		.thumb
 202              		.thumb_func
 203              		.type	chPoolObjectInit, %function
 204              	chPoolObjectInit:
 205              	.LFB240:
 206              		.file 5 "/home/efe/ChibiOS/os/rt/src/chmempools.c"
 207              		.loc 5 75 0
 208              		.cfi_startproc
 209              		@ args = 0, pretend = 0, frame = 16
 210              		@ frame_needed = 0, uses_anonymous_args = 0
 211 0000 00B5     		push	{lr}
 212              		.cfi_def_cfa_offset 4
 213              		.cfi_offset 14, -4
 214 0002 85B0     		sub	sp, sp, #20
 215              		.cfi_def_cfa_offset 24
 216 0004 0390     		str	r0, [sp, #12]
 217 0006 0291     		str	r1, [sp, #8]
 218 0008 0192     		str	r2, [sp, #4]
 219              		.loc 5 77 0
 220 000a 039B     		ldr	r3, [sp, #12]
 221 000c 002B     		cmp	r3, #0
 222 000e 02D0     		beq	.L10
 223              		.loc 5 77 0 is_stmt 0 discriminator 2
 224 0010 029B     		ldr	r3, [sp, #8]
 225 0012 032B     		cmp	r3, #3
ARM GAS  /tmp/ccJrf82H.s 			page 5


 226 0014 02D8     		bhi	.L11
 227              	.L10:
 228              		.loc 5 77 0 discriminator 1
 229 0016 0748     		ldr	r0, .L12
 230 0018 FFF7FEFF 		bl	chSysHalt
 231              	.L11:
 232              		.loc 5 79 0 is_stmt 1
 233 001c 039B     		ldr	r3, [sp, #12]
 234 001e 0022     		movs	r2, #0
 235 0020 1A60     		str	r2, [r3]
 236              		.loc 5 80 0
 237 0022 039B     		ldr	r3, [sp, #12]
 238 0024 029A     		ldr	r2, [sp, #8]
 239 0026 5A60     		str	r2, [r3, #4]
 240              		.loc 5 81 0
 241 0028 039B     		ldr	r3, [sp, #12]
 242 002a 019A     		ldr	r2, [sp, #4]
 243 002c 9A60     		str	r2, [r3, #8]
 244              		.loc 5 82 0
 245 002e 05B0     		add	sp, sp, #20
 246              		@ sp needed
 247 0030 5DF804FB 		ldr	pc, [sp], #4
 248              	.L13:
 249              		.align	2
 250              	.L12:
 251 0034 00000000 		.word	__func__.6622
 252              		.cfi_endproc
 253              	.LFE240:
 254              		.size	chPoolObjectInit, .-chPoolObjectInit
 255 0038 AFF30080 		.section	.text.chPoolLoadArray,"ax",%progbits
 255      AFF30080 
 256              		.align	2
 257              		.p2align 4,,15
 258              		.global	chPoolLoadArray
 259              		.thumb
 260              		.thumb_func
 261              		.type	chPoolLoadArray, %function
 262              	chPoolLoadArray:
 263              	.LFB241:
 264              		.loc 5 97 0
 265              		.cfi_startproc
 266              		@ args = 0, pretend = 0, frame = 16
 267              		@ frame_needed = 0, uses_anonymous_args = 0
 268 0000 00B5     		push	{lr}
 269              		.cfi_def_cfa_offset 4
 270              		.cfi_offset 14, -4
 271 0002 85B0     		sub	sp, sp, #20
 272              		.cfi_def_cfa_offset 24
 273 0004 0390     		str	r0, [sp, #12]
 274 0006 0291     		str	r1, [sp, #8]
 275 0008 0192     		str	r2, [sp, #4]
 276              		.loc 5 99 0
 277 000a 039B     		ldr	r3, [sp, #12]
 278 000c 002B     		cmp	r3, #0
 279 000e 02D0     		beq	.L15
 280              		.loc 5 99 0 is_stmt 0 discriminator 2
 281 0010 019B     		ldr	r3, [sp, #4]
ARM GAS  /tmp/ccJrf82H.s 			page 6


 282 0012 002B     		cmp	r3, #0
 283 0014 03D1     		bne	.L16
 284              	.L15:
 285              		.loc 5 99 0 discriminator 1
 286 0016 0B48     		ldr	r0, .L19
 287 0018 FFF7FEFF 		bl	chSysHalt
 288              		.loc 5 101 0 is_stmt 1 discriminator 1
 289 001c 0CE0     		b	.L17
 290              	.L16:
 291              		.loc 5 101 0 is_stmt 0
 292 001e 0BE0     		b	.L17
 293              	.L18:
 294              		.loc 5 102 0 is_stmt 1
 295 0020 0398     		ldr	r0, [sp, #12]
 296 0022 0299     		ldr	r1, [sp, #8]
 297 0024 FFF7FEFF 		bl	chPoolAdd
 298              		.loc 5 104 0
 299 0028 039B     		ldr	r3, [sp, #12]
 300 002a 5B68     		ldr	r3, [r3, #4]
 301 002c 029A     		ldr	r2, [sp, #8]
 302 002e 1344     		add	r3, r3, r2
 303 0030 0293     		str	r3, [sp, #8]
 304              		.loc 5 106 0
 305 0032 019B     		ldr	r3, [sp, #4]
 306 0034 013B     		subs	r3, r3, #1
 307 0036 0193     		str	r3, [sp, #4]
 308              	.L17:
 309              		.loc 5 101 0 discriminator 1
 310 0038 019B     		ldr	r3, [sp, #4]
 311 003a 002B     		cmp	r3, #0
 312 003c F0D1     		bne	.L18
 313              		.loc 5 108 0
 314 003e 05B0     		add	sp, sp, #20
 315              		@ sp needed
 316 0040 5DF804FB 		ldr	pc, [sp], #4
 317              	.L20:
 318              		.align	2
 319              	.L19:
 320 0044 00000000 		.word	__func__.6628
 321              		.cfi_endproc
 322              	.LFE241:
 323              		.size	chPoolLoadArray, .-chPoolLoadArray
 324 0048 AFF30080 		.section	.text.chPoolAllocI,"ax",%progbits
 324      AFF30080 
 325              		.align	2
 326              		.p2align 4,,15
 327              		.global	chPoolAllocI
 328              		.thumb
 329              		.thumb_func
 330              		.type	chPoolAllocI, %function
 331              	chPoolAllocI:
 332              	.LFB242:
 333              		.loc 5 120 0
 334              		.cfi_startproc
 335              		@ args = 0, pretend = 0, frame = 16
 336              		@ frame_needed = 0, uses_anonymous_args = 0
 337 0000 00B5     		push	{lr}
ARM GAS  /tmp/ccJrf82H.s 			page 7


 338              		.cfi_def_cfa_offset 4
 339              		.cfi_offset 14, -4
 340 0002 85B0     		sub	sp, sp, #20
 341              		.cfi_def_cfa_offset 24
 342 0004 0190     		str	r0, [sp, #4]
 343              		.loc 5 123 0
 344 0006 FFF7FEFF 		bl	chDbgCheckClassI
 345              		.loc 5 124 0
 346 000a 019B     		ldr	r3, [sp, #4]
 347 000c 002B     		cmp	r3, #0
 348 000e 02D1     		bne	.L22
 349              		.loc 5 124 0 is_stmt 0 discriminator 1
 350 0010 0F48     		ldr	r0, .L26
 351 0012 FFF7FEFF 		bl	chSysHalt
 352              	.L22:
 353              		.loc 5 126 0 is_stmt 1
 354 0016 019B     		ldr	r3, [sp, #4]
 355 0018 1B68     		ldr	r3, [r3]
 356 001a 0393     		str	r3, [sp, #12]
 357              		.loc 5 128 0
 358 001c 039B     		ldr	r3, [sp, #12]
 359 001e 002B     		cmp	r3, #0
 360 0020 05D0     		beq	.L23
 361              		.loc 5 129 0
 362 0022 019B     		ldr	r3, [sp, #4]
 363 0024 1B68     		ldr	r3, [r3]
 364 0026 1A68     		ldr	r2, [r3]
 365 0028 019B     		ldr	r3, [sp, #4]
 366 002a 1A60     		str	r2, [r3]
 367 002c 0AE0     		b	.L24
 368              	.L23:
 369              		.loc 5 131 0
 370 002e 019B     		ldr	r3, [sp, #4]
 371 0030 9B68     		ldr	r3, [r3, #8]
 372 0032 002B     		cmp	r3, #0
 373 0034 06D0     		beq	.L24
 374              		.loc 5 132 0
 375 0036 019B     		ldr	r3, [sp, #4]
 376 0038 9B68     		ldr	r3, [r3, #8]
 377 003a 019A     		ldr	r2, [sp, #4]
 378 003c 5268     		ldr	r2, [r2, #4]
 379 003e 1046     		mov	r0, r2
 380 0040 9847     		blx	r3
 381 0042 0390     		str	r0, [sp, #12]
 382              	.L24:
 383              		.loc 5 136 0
 384 0044 039B     		ldr	r3, [sp, #12]
 385              		.loc 5 137 0
 386 0046 1846     		mov	r0, r3
 387 0048 05B0     		add	sp, sp, #20
 388              		@ sp needed
 389 004a 5DF804FB 		ldr	pc, [sp], #4
 390              	.L27:
 391 004e 00BF     		.align	2
 392              	.L26:
 393 0050 00000000 		.word	__func__.6636
 394              		.cfi_endproc
ARM GAS  /tmp/ccJrf82H.s 			page 8


 395              	.LFE242:
 396              		.size	chPoolAllocI, .-chPoolAllocI
 397 0054 AFF30080 		.section	.text.chPoolAlloc,"ax",%progbits
 397      AFF30080 
 397      AFF30080 
 398              		.align	2
 399              		.p2align 4,,15
 400              		.global	chPoolAlloc
 401              		.thumb
 402              		.thumb_func
 403              		.type	chPoolAlloc, %function
 404              	chPoolAlloc:
 405              	.LFB243:
 406              		.loc 5 149 0
 407              		.cfi_startproc
 408              		@ args = 0, pretend = 0, frame = 16
 409              		@ frame_needed = 0, uses_anonymous_args = 0
 410 0000 00B5     		push	{lr}
 411              		.cfi_def_cfa_offset 4
 412              		.cfi_offset 14, -4
 413 0002 85B0     		sub	sp, sp, #20
 414              		.cfi_def_cfa_offset 24
 415 0004 0190     		str	r0, [sp, #4]
 416              		.loc 5 152 0
 417 0006 FFF7FEFF 		bl	chSysLock
 418              		.loc 5 153 0
 419 000a 0198     		ldr	r0, [sp, #4]
 420 000c FFF7FEFF 		bl	chPoolAllocI
 421 0010 0390     		str	r0, [sp, #12]
 422              		.loc 5 154 0
 423 0012 FFF7FEFF 		bl	chSysUnlock
 424              		.loc 5 156 0
 425 0016 039B     		ldr	r3, [sp, #12]
 426              		.loc 5 157 0
 427 0018 1846     		mov	r0, r3
 428 001a 05B0     		add	sp, sp, #20
 429              		@ sp needed
 430 001c 5DF804FB 		ldr	pc, [sp], #4
 431              		.cfi_endproc
 432              	.LFE243:
 433              		.size	chPoolAlloc, .-chPoolAlloc
 434              		.section	.text.chPoolFreeI,"ax",%progbits
 435              		.align	2
 436              		.p2align 4,,15
 437              		.global	chPoolFreeI
 438              		.thumb
 439              		.thumb_func
 440              		.type	chPoolFreeI, %function
 441              	chPoolFreeI:
 442              	.LFB244:
 443              		.loc 5 171 0
 444              		.cfi_startproc
 445              		@ args = 0, pretend = 0, frame = 16
 446              		@ frame_needed = 0, uses_anonymous_args = 0
 447 0000 00B5     		push	{lr}
 448              		.cfi_def_cfa_offset 4
 449              		.cfi_offset 14, -4
ARM GAS  /tmp/ccJrf82H.s 			page 9


 450 0002 85B0     		sub	sp, sp, #20
 451              		.cfi_def_cfa_offset 24
 452 0004 0190     		str	r0, [sp, #4]
 453 0006 0091     		str	r1, [sp]
 454              		.loc 5 172 0
 455 0008 009B     		ldr	r3, [sp]
 456 000a 0393     		str	r3, [sp, #12]
 457              		.loc 5 174 0
 458 000c FFF7FEFF 		bl	chDbgCheckClassI
 459              		.loc 5 175 0
 460 0010 019B     		ldr	r3, [sp, #4]
 461 0012 002B     		cmp	r3, #0
 462 0014 02D0     		beq	.L31
 463              		.loc 5 175 0 is_stmt 0 discriminator 2
 464 0016 009B     		ldr	r3, [sp]
 465 0018 002B     		cmp	r3, #0
 466 001a 02D1     		bne	.L32
 467              	.L31:
 468              		.loc 5 175 0 discriminator 1
 469 001c 0648     		ldr	r0, .L33
 470 001e FFF7FEFF 		bl	chSysHalt
 471              	.L32:
 472              		.loc 5 177 0 is_stmt 1
 473 0022 019B     		ldr	r3, [sp, #4]
 474 0024 1A68     		ldr	r2, [r3]
 475 0026 039B     		ldr	r3, [sp, #12]
 476 0028 1A60     		str	r2, [r3]
 477              		.loc 5 178 0
 478 002a 019B     		ldr	r3, [sp, #4]
 479 002c 039A     		ldr	r2, [sp, #12]
 480 002e 1A60     		str	r2, [r3]
 481              		.loc 5 179 0
 482 0030 05B0     		add	sp, sp, #20
 483              		@ sp needed
 484 0032 5DF804FB 		ldr	pc, [sp], #4
 485              	.L34:
 486 0036 00BF     		.align	2
 487              	.L33:
 488 0038 00000000 		.word	__func__.6646
 489              		.cfi_endproc
 490              	.LFE244:
 491              		.size	chPoolFreeI, .-chPoolFreeI
 492 003c AFF30080 		.section	.text.chPoolFree,"ax",%progbits
 493              		.align	2
 494              		.p2align 4,,15
 495              		.global	chPoolFree
 496              		.thumb
 497              		.thumb_func
 498              		.type	chPoolFree, %function
 499              	chPoolFree:
 500              	.LFB245:
 501              		.loc 5 193 0
 502              		.cfi_startproc
 503              		@ args = 0, pretend = 0, frame = 8
 504              		@ frame_needed = 0, uses_anonymous_args = 0
 505 0000 00B5     		push	{lr}
 506              		.cfi_def_cfa_offset 4
ARM GAS  /tmp/ccJrf82H.s 			page 10


 507              		.cfi_offset 14, -4
 508 0002 83B0     		sub	sp, sp, #12
 509              		.cfi_def_cfa_offset 16
 510 0004 0190     		str	r0, [sp, #4]
 511 0006 0091     		str	r1, [sp]
 512              		.loc 5 195 0
 513 0008 FFF7FEFF 		bl	chSysLock
 514              		.loc 5 196 0
 515 000c 0198     		ldr	r0, [sp, #4]
 516 000e 0099     		ldr	r1, [sp]
 517 0010 FFF7FEFF 		bl	chPoolFreeI
 518              		.loc 5 197 0
 519 0014 FFF7FEFF 		bl	chSysUnlock
 520              		.loc 5 198 0
 521 0018 03B0     		add	sp, sp, #12
 522              		@ sp needed
 523 001a 5DF804FB 		ldr	pc, [sp], #4
 524              		.cfi_endproc
 525              	.LFE245:
 526              		.size	chPoolFree, .-chPoolFree
 527 001e 00BF     		.section	.rodata.__func__.6622,"a",%progbits
 528              		.align	2
 529              		.type	__func__.6622, %object
 530              		.size	__func__.6622, 17
 531              	__func__.6622:
 532 0000 6368506F 		.ascii	"chPoolObjectInit\000"
 532      6F6C4F62 
 532      6A656374 
 532      496E6974 
 532      00
 533 0011 000000   		.section	.rodata.__func__.6628,"a",%progbits
 534              		.align	2
 535              		.type	__func__.6628, %object
 536              		.size	__func__.6628, 16
 537              	__func__.6628:
 538 0000 6368506F 		.ascii	"chPoolLoadArray\000"
 538      6F6C4C6F 
 538      61644172 
 538      72617900 
 539              		.section	.rodata.__func__.6636,"a",%progbits
 540              		.align	2
 541              		.type	__func__.6636, %object
 542              		.size	__func__.6636, 13
 543              	__func__.6636:
 544 0000 6368506F 		.ascii	"chPoolAllocI\000"
 544      6F6C416C 
 544      6C6F6349 
 544      00
 545 000d 000000   		.section	.rodata.__func__.5925,"a",%progbits
 546              		.align	2
 547              		.type	__func__.5925, %object
 548              		.size	__func__.5925, 12
 549              	__func__.5925:
 550 0000 63685379 		.ascii	"chSysUnlock\000"
 550      73556E6C 
 550      6F636B00 
 551              		.section	.rodata.__func__.6646,"a",%progbits
ARM GAS  /tmp/ccJrf82H.s 			page 11


 552              		.align	2
 553              		.type	__func__.6646, %object
 554              		.size	__func__.6646, 12
 555              	__func__.6646:
 556 0000 6368506F 		.ascii	"chPoolFreeI\000"
 556      6F6C4672 
 556      65654900 
 557              		.text
 558              	.Letext0:
 559              		.file 6 "/usr/lib/gcc/arm-none-eabi/4.8/include/stddef.h"
 560              		.file 7 "/usr/include/newlib/machine/_default_types.h"
 561              		.file 8 "/usr/include/newlib/stdint.h"
 562              		.file 9 "/home/efe/ChibiOS/os/rt/ports/ARMCMx/compilers/GCC/chtypes.h"
 563              		.file 10 "/home/efe/ChibiOS/os/rt/include/chsystypes.h"
 564              		.file 11 "/home/efe/ChibiOS/os/rt/include/chschd.h"
 565              		.file 12 "/home/efe/ChibiOS/os/rt/ports/ARMCMx/chcore.h"
 566              		.file 13 "/home/efe/ChibiOS/os/rt/include/chdebug.h"
 567              		.file 14 "/home/efe/ChibiOS/os/rt/include/chtm.h"
 568              		.file 15 "/home/efe/ChibiOS/os/rt/include/chstats.h"
 569              		.file 16 "/home/efe/ChibiOS/os/rt/include/chsem.h"
 570              		.file 17 "/home/efe/ChibiOS/os/rt/include/chmtx.h"
 571              		.file 18 "/home/efe/ChibiOS/os/rt/include/chmemcore.h"
 572              		.file 19 "/home/efe/ChibiOS/os/ext/CMSIS/include/core_cm4.h"