ARM GAS  /tmp/ccJrf82H.s 			page 1


   1              		.syntax unified
   2              		.cpu cortex-m4
   3              		.fpu softvfp
   4              		.eabi_attribute 20, 1
   5              		.eabi_attribute 21, 1
   6              		.eabi_attribute 23, 3
   7              		.eabi_attribute 24, 1
   8              		.eabi_attribute 25, 1
   9              		.eabi_attribute 26, 1
  10              		.eabi_attribute 30, 6
  11              		.eabi_attribute 34, 1
  12              		.eabi_attribute 18, 4
  13              		.thumb
  14              		.file	"chmempools.c"
  15              		.text
  16              	.Ltext0:
  17              		.cfi_sections	.debug_frame
  18              		.section	.text.port_lock,"ax",%progbits
  19              		.align	2
  20              		.p2align 4,,15
  21              		.thumb
  22              		.thumb_func
  23              		.type	port_lock, %function
  24              	port_lock:
  25              	.LFB127:
  26              		.file 1 "/home/efe/ChibiOS/os/rt/ports/ARMCMx/chcore_v7m.h"
  27              		.loc 1 456 0
  28              		.cfi_startproc
  29              		@ args = 0, pretend = 0, frame = 8
  30              		@ frame_needed = 0, uses_anonymous_args = 0
  31              		@ link register save eliminated.
  32 0000 82B0     		sub	sp, sp, #8
  33              		.cfi_def_cfa_offset 8
  34 0002 2023     		movs	r3, #32
  35 0004 0193     		str	r3, [sp, #4]
  36              	.LBB6:
  37              	.LBB7:
  38              		.file 2 "/home/efe/ChibiOS/os/ext/CMSIS/include/core_cmFunc.h"
  39              		.loc 2 548 0
  40 0006 019B     		ldr	r3, [sp, #4]
  41              	@ 548 "/home/efe/ChibiOS/os/ext/CMSIS/include/core_cmFunc.h" 1
  42 0008 83F31188 		MSR basepri, r3
  43              	@ 0 "" 2
  44              		.thumb
  45              	.LBE7:
  46              	.LBE6:
  47              		.loc 1 463 0
  48 000c 02B0     		add	sp, sp, #8
  49              		@ sp needed
  50 000e 7047     		bx	lr
  51              		.cfi_endproc
  52              	.LFE127:
  53              		.size	port_lock, .-port_lock
  54              		.section	.text.port_unlock,"ax",%progbits
  55              		.align	2
  56              		.p2align 4,,15
  57              		.thumb
ARM GAS  /tmp/ccJrf82H.s 			page 2


  58              		.thumb_func
  59              		.type	port_unlock, %function
  60              	port_unlock:
  61              	.LFB128:
  62              		.loc 1 470 0
  63              		.cfi_startproc
  64              		@ args = 0, pretend = 0, frame = 8
  65              		@ frame_needed = 0, uses_anonymous_args = 0
  66              		@ link register save eliminated.
  67 0000 82B0     		sub	sp, sp, #8
  68              		.cfi_def_cfa_offset 8
  69 0002 0023     		movs	r3, #0
  70 0004 0193     		str	r3, [sp, #4]
  71              	.LBB8:
  72              	.LBB9:
  73              		.loc 2 548 0
  74 0006 019B     		ldr	r3, [sp, #4]
  75              	@ 548 "/home/efe/ChibiOS/os/ext/CMSIS/include/core_cmFunc.h" 1
  76 0008 83F31188 		MSR basepri, r3
  77              	@ 0 "" 2
  78              		.thumb
  79              	.LBE9:
  80              	.LBE8:
  81              		.loc 1 477 0
  82 000c 02B0     		add	sp, sp, #8
  83              		@ sp needed
  84 000e 7047     		bx	lr
  85              		.cfi_endproc
  86              	.LFE128:
  87              		.size	port_unlock, .-port_unlock
  88              		.section	.text.chSysLock,"ax",%progbits
  89              		.align	2
  90              		.p2align 4,,15
  91              		.thumb
  92              		.thumb_func
  93              		.type	chSysLock, %function
  94              	chSysLock:
  95              	.LFB167:
  96              		.file 3 "/home/efe/ChibiOS/os/rt/include/chsys.h"
  97              		.loc 3 346 0
  98              		.cfi_startproc
  99              		@ args = 0, pretend = 0, frame = 0
 100              		@ frame_needed = 0, uses_anonymous_args = 0
 101 0000 08B5     		push	{r3, lr}
 102              		.cfi_def_cfa_offset 8
 103              		.cfi_offset 3, -8
 104              		.cfi_offset 14, -4
 105              		.loc 3 348 0
 106 0002 FFF7FEFF 		bl	port_lock
 107              		.loc 3 349 0
 108 0006 FFF7FEFF 		bl	_stats_start_measure_crit_thd
 109              		.loc 3 350 0
 110 000a FFF7FEFF 		bl	_dbg_check_lock
 111              		.loc 3 351 0
 112 000e 08BD     		pop	{r3, pc}
 113              		.cfi_endproc
 114              	.LFE167:
ARM GAS  /tmp/ccJrf82H.s 			page 3


 115              		.size	chSysLock, .-chSysLock
 116              		.section	.text.chSysUnlock,"ax",%progbits
 117              		.align	2
 118              		.p2align 4,,15
 119              		.thumb
 120              		.thumb_func
 121              		.type	chSysUnlock, %function
 122              	chSysUnlock:
 123              	.LFB168:
 124              		.loc 3 358 0
 125              		.cfi_startproc
 126              		@ args = 0, pretend = 0, frame = 0
 127              		@ frame_needed = 0, uses_anonymous_args = 0
 128 0000 08B5     		push	{r3, lr}
 129              		.cfi_def_cfa_offset 8
 130              		.cfi_offset 3, -8
 131              		.cfi_offset 14, -4
 132              		.loc 3 360 0
 133 0002 FFF7FEFF 		bl	_dbg_check_unlock
 134              		.loc 3 361 0
 135 0006 FFF7FEFF 		bl	_stats_stop_measure_crit_thd
 136              		.loc 3 367 0
 137 000a 094B     		ldr	r3, .L6
 138 000c 1A68     		ldr	r2, [r3]
 139 000e 084B     		ldr	r3, .L6
 140 0010 9A42     		cmp	r2, r3
 141 0012 0AD0     		beq	.L5
 142              		.loc 3 367 0 is_stmt 0 discriminator 1
 143 0014 064B     		ldr	r3, .L6
 144 0016 9B69     		ldr	r3, [r3, #24]
 145 0018 9A68     		ldr	r2, [r3, #8]
 146 001a 054B     		ldr	r3, .L6
 147 001c 1B68     		ldr	r3, [r3]
 148 001e 9B68     		ldr	r3, [r3, #8]
 149 0020 9A42     		cmp	r2, r3
 150 0022 02D2     		bcs	.L5
 151 0024 0348     		ldr	r0, .L6+4
 152 0026 FFF7FEFF 		bl	chSysHalt
 153              	.L5:
 154              		.loc 3 371 0 is_stmt 1
 155 002a FFF7FEFF 		bl	port_unlock
 156              		.loc 3 372 0
 157 002e 08BD     		pop	{r3, pc}
 158              	.L7:
 159              		.align	2
 160              	.L6:
 161 0030 00000000 		.word	ch
 162 0034 00000000 		.word	__func__.5925
 163              		.cfi_endproc
 164              	.LFE168:
 165              		.size	chSysUnlock, .-chSysUnlock
 166 0038 AFF30080 		.section	.text.chPoolAdd,"ax",%progbits
 166      AFF30080 
 167              		.align	2
 168              		.p2align 4,,15
 169              		.thumb
 170              		.thumb_func
ARM GAS  /tmp/ccJrf82H.s 			page 4


 171              		.type	chPoolAdd, %function
 172              	chPoolAdd:
 173              	.LFB228:
 174              		.file 4 "/home/efe/ChibiOS/os/rt/include/chmempools.h"
 175              		.loc 4 137 0
 176              		.cfi_startproc
 177              		@ args = 0, pretend = 0, frame = 8
 178              		@ frame_needed = 0, uses_anonymous_args = 0
 179 0000 00B5     		push	{lr}
 180              		.cfi_def_cfa_offset 4
 181              		.cfi_offset 14, -4
 182 0002 83B0     		sub	sp, sp, #12
 183              		.cfi_def_cfa_offset 16
 184 0004 0190     		str	r0, [sp, #4]
 185 0006 0091     		str	r1, [sp]
 186              		.loc 4 139 0
 187 0008 0198     		ldr	r0, [sp, #4]
 188 000a 0099     		ldr	r1, [sp]
 189 000c FFF7FEFF 		bl	chPoolFree
 190              		.loc 4 140 0
 191 0010 03B0     		add	sp, sp, #12
 192              		@ sp needed
 193 0012 5DF804FB 		ldr	pc, [sp], #4
 194              		.cfi_endproc
 195              	.LFE228:
 196              		.size	chPoolAdd, .-chPoolAdd
 197 0016 00BFAFF3 		.section	.text.chPoolObjectInit,"ax",%progbits
 197      0080AFF3 
 197      0080
 198              		.align	2
 199              		.p2align 4,,15
 200              		.global	chPoolObjectInit
 201              		.thumb
 202              		.thumb_func
 203              		.type	chPoolObjectInit, %function
 204              	chPoolObjectInit:
 205              	.LFB240:
 206              		.file 5 "/home/efe/ChibiOS/os/rt/src/chmempools.c"
 207              		.loc 5 75 0
 208              		.cfi_startproc
 209              		@ args = 0, pretend = 0, frame = 16
 210              		@ frame_needed = 0, uses_anonymous_args = 0
 211 0000 00B5     		push	{lr}
 212              		.cfi_def_cfa_offset 4
 213              		.cfi_offset 14, -4
 214 0002 85B0     		sub	sp, sp, #20
 215              		.cfi_def_cfa_offset 24
 216 0004 0390     		str	r0, [sp, #12]
 217 0006 0291     		str	r1, [sp, #8]
 218 0008 0192     		str	r2, [sp, #4]
 219              		.loc 5 77 0
 220 000a 039B     		ldr	r3, [sp, #12]
 221 000c 002B     		cmp	r3, #0
 222 000e 02D0     		beq	.L10
 223              		.loc 5 77 0 is_stmt 0 discriminator 2
 224 0010 029B     		ldr	r3, [sp, #8]
 225 0012 032B     		cmp	r3, #3
ARM GAS  /tmp/ccJrf82H.s 			page 5


 226 0014 02D8     		bhi	.L11
 227              	.L10:
 228              		.loc 5 77 0 discriminator 1
 229 0016 0748     		ldr	r0, .L12
 230 0018 FFF7FEFF 		bl	chSysHalt
 231              	.L11:
 232              		.loc 5 79 0 is_stmt 1
 233 001c 039B     		ldr	r3, [sp, #12]
 234 001e 0022     		movs	r2, #0
 235 0020 1A60     		str	r2, [r3]
 236              		.loc 5 80 0
 237 0022 039B     		ldr	r3, [sp, #12]
 238 0024 029A     		ldr	r2, [sp, #8]
 239 0026 5A60     		str	r2, [r3, #4]
 240              		.loc 5 81 0
 241 0028 039B     		ldr	r3, [sp, #12]
 242 002a 019A     		ldr	r2, [sp, #4]
 243 002c 9A60     		str	r2, [r3, #8]
 244              		.loc 5 82 0
 245 002e 05B0     		add	sp, sp, #20
 246              		@ sp needed
 247 0030 5DF804FB 		ldr	pc, [sp], #4
 248              	.L13:
 249              		.align	2
 250              	.L12:
 251 0034 00000000 		.word	__func__.6622
 252              		.cfi_endproc
 253              	.LFE240:
 254              		.size	chPoolObjectInit, .-chPoolObjectInit
 255 0038 AFF30080 		.section	.text.chPoolLoadArray,"ax",%progbits
 255      AFF30080 
 256              		.align	2
 257              		.p2align 4,,15
 258              		.global	chPoolLoadArray
 259              		.thumb
 260              		.thumb_func
 261              		.type	chPoolLoadArray, %function
 262              	chPoolLoadArray:
 263              	.LFB241:
 264              		.loc 5 97 0
 265              		.cfi_startproc
 266              		@ args = 0, pretend = 0, frame = 16
 267              		@ frame_needed = 0, uses_anonymous_args = 0
 268 0000 00B5     		push	{lr}
 269              		.cfi_def_cfa_offset 4
 270              		.cfi_offset 14, -4
 271 0002 85B0     		sub	sp, sp, #20
 272              		.cfi_def_cfa_offset 24
 273 0004 0390     		str	r0, [sp, #12]
 274 0006 0291     		str	r1, [sp, #8]
 275 0008 0192     		str	r2, [sp, #4]
 276              		.loc 5 99 0
 277 000a 039B     		ldr	r3, [sp, #12]
 278 000c 002B     		cmp	r3, #0
 279 000e 02D0     		beq	.L15
 280              		.loc 5 99 0 is_stmt 0 discriminator 2
 281 0010 019B     		ldr	r3, [sp, #4]
ARM GAS  /tmp/ccJrf82H.s 			page 6


 282 0012 002B     		cmp	r3, #0
 283 0014 03D1     		bne	.L16
 284              	.L15:
 285              		.loc 5 99 0 discriminator 1
 286 0016 0B48     		ldr	r0, .L19
 287 0018 FFF7FEFF 		bl	chSysHalt
 288              		.loc 5 101 0 is_stmt 1 discriminator 1
 289 001c 0CE0     		b	.L17
 290              	.L16:
 291              		.loc 5 101 0 is_stmt 0
 292 001e 0BE0     		b	.L17
 293              	.L18:
 294              		.loc 5 102 0 is_stmt 1
 295 0020 0398     		ldr	r0, [sp, #12]
 296 0022 0299     		ldr	r1, [sp, #8]
 297 0024 FFF7FEFF 		bl	chPoolAdd
 298              		.loc 5 104 0
 299 0028 039B     		ldr	r3, [sp, #12]
 300 002a 5B68     		ldr	r3, [r3, #4]
 301 002c 029A     		ldr	r2, [sp, #8]
 302 002e 1344     		add	r3, r3, r2
 303 0030 0293     		str	r3, [sp, #8]
 304              		.loc 5 106 0
 305 0032 019B     		ldr	r3, [sp, #4]
 306 0034 013B     		subs	r3, r3, #1
 307 0036 0193     		str	r3, [sp, #4]
 308              	.L17:
 309              		.loc 5 101 0 discriminator 1
 310 0038 019B     		ldr	r3, [sp, #4]
 311 003a 002B     		cmp	r3, #0
 312 003c F0D1     		bne	.L18
 313              		.loc 5 108 0
 314 003e 05B0     		add	sp, sp, #20
 315              		@ sp needed
 316 0040 5DF804FB 		ldr	pc, [sp], #4
 317              	.L20:
 318              		.align	2
 319              	.L19:
 320 0044 00000000 		.word	__func__.6628
 321              		.cfi_endproc
 322              	.LFE241:
 323              		.size	chPoolLoadArray, .-chPoolLoadArray
 324 0048 AFF30080 		.section	.text.chPoolAllocI,"ax",%progbits
 324      AFF30080 
 325              		.align	2
 326              		.p2align 4,,15
 327              		.global	chPoolAllocI
 328              		.thumb
 329              		.thumb_func
 330              		.type	chPoolAllocI, %function
 331              	chPoolAllocI:
 332              	.LFB242:
 333              		.loc 5 120 0
 334              		.cfi_startproc
 335              		@ args = 0, pretend = 0, frame = 16
 336              		@ frame_needed = 0, uses_anonymous_args = 0
 337 0000 00B5     		push	{lr}
ARM GAS  /tmp/ccJrf82H.s 			page 7


 338              		.cfi_def_cfa_offset 4
 339              		.cfi_offset 14, -4
 340 0002 85B0     		sub	sp, sp, #20
 341              		.cfi_def_cfa_offset 24
 342 0004 0190     		str	r0, [sp, #4]
 343              		.loc 5 123 0
 344 0006 FFF7FEFF 		bl	chDbgCheckClassI
 345              		.loc 5 124 0
 346 000a 019B     		ldr	r3, [sp, #4]
 347 000c 002B     		cmp	r3, #0
 348 000e 02D1     		bne	.L22
 349              		.loc 5 124 0 is_stmt 0 discriminator 1
 350 0010 0F48     		ldr	r0, .L26
 351 0012 FFF7FEFF 		bl	chSysHalt
 352              	.L22:
 353              		.loc 5 126 0 is_stmt 1
 354 0016 019B     		ldr	r3, [sp, #4]
 355 0018 1B68     		ldr	r3, [r3]
 356 001a 0393     		str	r3, [sp, #12]
 357              		.loc 5 128 0
 358 001c 039B     		ldr	r3, [sp, #12]
 359 001e 002B     		cmp	r3, #0
 360 0020 05D0     		beq	.L23
 361              		.loc 5 129 0
 362 0022 019B     		ldr	r3, [sp, #4]
 363 0024 1B68     		ldr	r3, [r3]
 364 0026 1A68     		ldr	r2, [r3]
 365 0028 019B     		ldr	r3, [sp, #4]
 366 002a 1A60     		str	r2, [r3]
 367 002c 0AE0     		b	.L24
 368              	.L23:
 369              		.loc 5 131 0
 370 002e 019B     		ldr	r3, [sp, #4]
 371 0030 9B68     		ldr	r3, [r3, #8]
 372 0032 002B     		cmp	r3, #0
 373 0034 06D0     		beq	.L24
 374              		.loc 5 132 0
 375 0036 019B     		ldr	r3, [sp, #4]
 376 0038 9B68     		ldr	r3, [r3, #8]
 377 003a 019A     		ldr	r2, [sp, #4]
 378 003c 5268     		ldr	r2, [r2, #4]
 379 003e 1046     		mov	r0, r2
 380 0040 9847     		blx	r3
 381 0042 0390     		str	r0, [sp, #12]
 382              	.L24:
 383              		.loc 5 136 0
 384 0044 039B     		ldr	r3, [sp, #12]
 385              		.loc 5 137 0
 386 0046 1846     		mov	r0, r3
 387 0048 05B0     		add	sp, sp, #20
 388              		@ sp needed
 389 004a 5DF804FB 		ldr	pc, [sp], #4
 390              	.L27:
 391 004e 00BF     		.align	2
 392              	.L26:
 393 0050 00000000 		.word	__func__.6636
 394              		.cfi_endproc
ARM GAS  /tmp/ccJrf82H.s 			page 8


 395              	.LFE242:
 396              		.size	chPoolAllocI, .-chPoolAllocI
 397 0054 AFF30080 		.section	.text.chPoolAlloc,"ax",%progbits
 397      AFF30080 
 397      AFF30080 
 398              		.align	2
 399              		.p2align 4,,15
 400              		.global	chPoolAlloc
 401              		.thumb
 402              		.thumb_func
 403              		.type	chPoolAlloc, %function
 404              	chPoolAlloc:
 405              	.LFB243:
 406              		.loc 5 149 0
 407              		.cfi_startproc
 408              		@ args = 0, pretend = 0, frame = 16
 409              		@ frame_needed = 0, uses_anonymous_args = 0
 410 0000 00B5     		push	{lr}
 411              		.cfi_def_cfa_offset 4
 412              		.cfi_offset 14, -4
 413 0002 85B0     		sub	sp, sp, #20
 414              		.cfi_def_cfa_offset 24
 415 0004 0190     		str	r0, [sp, #4]
 416              		.loc 5 152 0
 417 0006 FFF7FEFF 		bl	chSysLock
 418              		.loc 5 153 0
 419 000a 0198     		ldr	r0, [sp, #4]
 420 000c FFF7FEFF 		bl	chPoolAllocI
 421 0010 0390     		str	r0, [sp, #12]
 422              		.loc 5 154 0
 423 0012 FFF7FEFF 		bl	chSysUnlock
 424              		.loc 5 156 0
 425 0016 039B     		ldr	r3, [sp, #12]
 426              		.loc 5 157 0
 427 0018 1846     		mov	r0, r3
 428 001a 05B0     		add	sp, sp, #20
 429              		@ sp needed
 430 001c 5DF804FB 		ldr	pc, [sp], #4
 431              		.cfi_endproc
 432              	.LFE243:
 433              		.size	chPoolAlloc, .-chPoolAlloc
 434              		.section	.text.chPoolFreeI,"ax",%progbits
 435              		.align	2
 436              		.p2align 4,,15
 437              		.global	chPoolFreeI
 438              		.thumb
 439              		.thumb_func
 440              		.type	chPoolFreeI, %function
 441              	chPoolFreeI:
 442              	.LFB244:
 443              		.loc 5 171 0
 444              		.cfi_startproc
 445              		@ args = 0, pretend = 0, frame = 16
 446              		@ frame_needed = 0, uses_anonymous_args = 0
 447 0000 00B5     		push	{lr}
 448              		.cfi_def_cfa_offset 4
 449              		.cfi_offset 14, -4
ARM GAS  /tmp/ccJrf82H.s 			page 9


 450 0002 85B0     		sub	sp, sp, #20
 451              		.cfi_def_cfa_offset 24
 452 0004 0190     		str	r0, [sp, #4]
 453 0006 0091     		str	r1, [sp]
 454              		.loc 5 172 0
 455 0008 009B     		ldr	r3, [sp]
 456 000a 0393     		str	r3, [sp, #12]
 457              		.loc 5 174 0
 458 000c FFF7FEFF 		bl	chDbgCheckClassI
 459              		.loc 5 175 0
 460 0010 019B     		ldr	r3, [sp, #4]
 461 0012 002B     		cmp	r3, #0
 462 0014 02D0     		beq	.L31
 463              		.loc 5 175 0 is_stmt 0 discriminator 2
 464 0016 009B     		ldr	r3, [sp]
 465 0018 002B     		cmp	r3, #0
 466 001a 02D1     		bne	.L32
 467              	.L31:
 468              		.loc 5 175 0 discriminator 1
 469 001c 0648     		ldr	r0, .L33
 470 001e FFF7FEFF 		bl	chSysHalt
 471              	.L32:
 472              		.loc 5 177 0 is_stmt 1
 473 0022 019B     		ldr	r3, [sp, #4]
 474 0024 1A68     		ldr	r2, [r3]
 475 0026 039B     		ldr	r3, [sp, #12]
 476 0028 1A60     		str	r2, [r3]
 477              		.loc 5 178 0
 478 002a 019B     		ldr	r3, [sp, #4]
 479 002c 039A     		ldr	r2, [sp, #12]
 480 002e 1A60     		str	r2, [r3]
 481              		.loc 5 179 0
 482 0030 05B0     		add	sp, sp, #20
 483              		@ sp needed
 484 0032 5DF804FB 		ldr	pc, [sp], #4
 485              	.L34:
 486 0036 00BF     		.align	2
 487              	.L33:
 488 0038 00000000 		.word	__func__.6646
 489              		.cfi_endproc
 490              	.LFE244:
 491              		.size	chPoolFreeI, .-chPoolFreeI
 492 003c AFF30080 		.section	.text.chPoolFree,"ax",%progbits
 493              		.align	2
 494              		.p2align 4,,15
 495              		.global	chPoolFree
 496              		.thumb
 497              		.thumb_func
 498              		.type	chPoolFree, %function
 499              	chPoolFree:
 500              	.LFB245:
 501              		.loc 5 193 0
 502              		.cfi_startproc
 503              		@ args = 0, pretend = 0, frame = 8
 504              		@ frame_needed = 0, uses_anonymous_args = 0
 505 0000 00B5     		push	{lr}
 506              		.cfi_def_cfa_offset 4
ARM GAS  /tmp/ccJrf82H.s 			page 10


 507              		.cfi_offset 14, -4
 508 0002 83B0     		sub	sp, sp, #12
 509              		.cfi_def_cfa_offset 16
 510 0004 0190     		str	r0, [sp, #4]
 511 0006 0091     		str	r1, [sp]
 512              		.loc 5 195 0
 513 0008 FFF7FEFF 		bl	chSysLock
 514              		.loc 5 196 0
 515 000c 0198     		ldr	r0, [sp, #4]
 516 000e 0099     		ldr	r1, [sp]
 517 0010 FFF7FEFF 		bl	chPoolFreeI
 518              		.loc 5 197 0
 519 0014 FFF7FEFF 		bl	chSysUnlock
 520              		.loc 5 198 0
 521 0018 03B0     		add	sp, sp, #12
 522              		@ sp needed
 523 001a 5DF804FB 		ldr	pc, [sp], #4
 524              		.cfi_endproc
 525              	.LFE245:
 526              		.size	chPoolFree, .-chPoolFree
 527 001e 00BF     		.section	.rodata.__func__.6622,"a",%progbits
 528              		.align	2
 529              		.type	__func__.6622, %object
 530              		.size	__func__.6622, 17
 531              	__func__.6622:
 532 0000 6368506F 		.ascii	"chPoolObjectInit\000"
 532      6F6C4F62 
 532      6A656374 
 532      496E6974 
 532      00
 533 0011 000000   		.section	.rodata.__func__.6628,"a",%progbits
 534              		.align	2
 535              		.type	__func__.6628, %object
 536              		.size	__func__.6628, 16
 537              	__func__.6628:
 538 0000 6368506F 		.ascii	"chPoolLoadArray\000"
 538      6F6C4C6F 
 538      61644172 
 538      72617900 
 539              		.section	.rodata.__func__.6636,"a",%progbits
 540              		.align	2
 541              		.type	__func__.6636, %object
 542              		.size	__func__.6636, 13
 543              	__func__.6636:
 544 0000 6368506F 		.ascii	"chPoolAllocI\000"
 544      6F6C416C 
 544      6C6F6349 
 544      00
 545 000d 000000   		.section	.rodata.__func__.5925,"a",%progbits
 546              		.align	2
 547              		.type	__func__.5925, %object
 548              		.size	__func__.5925, 12
 549              	__func__.5925:
 550 0000 63685379 		.ascii	"chSysUnlock\000"
 550      73556E6C 
 550      6F636B00 
 551              		.section	.rodata.__func__.6646,"a",%progbits
ARM GAS  /tmp/ccJrf82H.s 			page 11


 552              		.align	2
 553              		.type	__func__.6646, %object
 554              		.size	__func__.6646, 12
 555              	__func__.6646:
 556 0000 6368506F 		.ascii	"chPoolFreeI\000"
 556      6F6C4672 
 556      65654900 
 557              		.text
 558              	.Letext0:
 559              		.file 6 "/usr/lib/gcc/arm-none-eabi/4.8/include/stddef.h"
 560              		.file 7 "/usr/include/newlib/machine/_default_types.h"
 561              		.file 8 "/usr/include/newlib/stdint.h"
 562              		.file 9 "/home/efe/ChibiOS/os/rt/ports/ARMCMx/compilers/GCC/chtypes.h"
 563              		.file 10 "/home/efe/ChibiOS/os/rt/include/chsystypes.h"
 564              		.file 11 "/home/efe/ChibiOS/os/rt/include/chschd.h"
 565              		.file 12 "/home/efe/ChibiOS/os/rt/ports/ARMCMx/chcore.h"
 566              		.file 13 "/home/efe/ChibiOS/os/rt/include/chdebug.h"
 567              		.file 14 "/home/efe/ChibiOS/os/rt/include/chtm.h"
 568              		.file 15 "/home/efe/ChibiOS/os/rt/include/chstats.h"
 569              		.file 16 "/home/efe/ChibiOS/os/rt/include/chsem.h"
 570              		.file 17 "/home/efe/ChibiOS/os/rt/include/chmtx.h"
 571              		.file 18 "/home/efe/ChibiOS/os/rt/include/chmemcore.h"
 572              		.file 19 "/home/efe/ChibiOS/os/ext/CMSIS/include/core_cm4.h"
 573              		.section	.debug_info,"",%progbits
 574              	.Ldebug_info0:
 575 0000 120B0000 		.4byte	0xb12
 576 0004 0400     		.2byte	0x4
 577 0006 00000000 		.4byte	.Ldebug_abbrev0
 578 000a 04       		.byte	0x4
 579 000b 01       		.uleb128 0x1
 580 000c 80010000 		.4byte	.LASF151
 581 0010 01       		.byte	0x1
 582 0011 CB060000 		.4byte	.LASF152
 583 0015 00000000 		.4byte	.Ldebug_ranges0+0
 584 0019 00000000 		.4byte	0
 585 001d 00000000 		.4byte	.Ldebug_line0
 586 0021 02       		.uleb128 0x2
 587 0022 04       		.byte	0x4
 588 0023 05       		.byte	0x5
 589 0024 696E7400 		.ascii	"int\000"
 590 0028 03       		.uleb128 0x3
 591 0029 1C000000 		.4byte	.LASF2
 592 002d 06       		.byte	0x6
 593 002e D4       		.byte	0xd4
 594 002f 33000000 		.4byte	0x33
 595 0033 04       		.uleb128 0x4
 596 0034 04       		.byte	0x4
 597 0035 07       		.byte	0x7
 598 0036 B4020000 		.4byte	.LASF0
 599 003a 04       		.uleb128 0x4
 600 003b 01       		.byte	0x1
 601 003c 06       		.byte	0x6
 602 003d 29010000 		.4byte	.LASF1
 603 0041 03       		.uleb128 0x3
 604 0042 40000000 		.4byte	.LASF3
 605 0046 07       		.byte	0x7
 606 0047 1D       		.byte	0x1d
ARM GAS  /tmp/ccJrf82H.s 			page 12


 607 0048 4C000000 		.4byte	0x4c
 608 004c 04       		.uleb128 0x4
 609 004d 01       		.byte	0x1
 610 004e 08       		.byte	0x8
 611 004f 99040000 		.4byte	.LASF4
 612 0053 04       		.uleb128 0x4
 613 0054 02       		.byte	0x2
 614 0055 05       		.byte	0x5
 615 0056 B1040000 		.4byte	.LASF5
 616 005a 04       		.uleb128 0x4
 617 005b 02       		.byte	0x2
 618 005c 07       		.byte	0x7
 619 005d F5020000 		.4byte	.LASF6
 620 0061 03       		.uleb128 0x3
 621 0062 87030000 		.4byte	.LASF7
 622 0066 07       		.byte	0x7
 623 0067 3F       		.byte	0x3f
 624 0068 6C000000 		.4byte	0x6c
 625 006c 04       		.uleb128 0x4
 626 006d 04       		.byte	0x4
 627 006e 05       		.byte	0x5
 628 006f 68010000 		.4byte	.LASF8
 629 0073 03       		.uleb128 0x3
 630 0074 A8050000 		.4byte	.LASF9
 631 0078 07       		.byte	0x7
 632 0079 41       		.byte	0x41
 633 007a 7E000000 		.4byte	0x7e
 634 007e 04       		.uleb128 0x4
 635 007f 04       		.byte	0x4
 636 0080 07       		.byte	0x7
 637 0081 52050000 		.4byte	.LASF10
 638 0085 04       		.uleb128 0x4
 639 0086 08       		.byte	0x8
 640 0087 05       		.byte	0x5
 641 0088 1B010000 		.4byte	.LASF11
 642 008c 03       		.uleb128 0x3
 643 008d 41040000 		.4byte	.LASF12
 644 0091 07       		.byte	0x7
 645 0092 5B       		.byte	0x5b
 646 0093 97000000 		.4byte	0x97
 647 0097 04       		.uleb128 0x4
 648 0098 08       		.byte	0x8
 649 0099 07       		.byte	0x7
 650 009a A2000000 		.4byte	.LASF13
 651 009e 03       		.uleb128 0x3
 652 009f 3E060000 		.4byte	.LASF14
 653 00a3 08       		.byte	0x8
 654 00a4 2A       		.byte	0x2a
 655 00a5 41000000 		.4byte	0x41
 656 00a9 03       		.uleb128 0x3
 657 00aa 91040000 		.4byte	.LASF15
 658 00ae 08       		.byte	0x8
 659 00af 41       		.byte	0x41
 660 00b0 61000000 		.4byte	0x61
 661 00b4 03       		.uleb128 0x3
 662 00b5 21050000 		.4byte	.LASF16
 663 00b9 08       		.byte	0x8
ARM GAS  /tmp/ccJrf82H.s 			page 13


 664 00ba 42       		.byte	0x42
 665 00bb 73000000 		.4byte	0x73
 666 00bf 03       		.uleb128 0x3
 667 00c0 2A000000 		.4byte	.LASF17
 668 00c4 08       		.byte	0x8
 669 00c5 4E       		.byte	0x4e
 670 00c6 8C000000 		.4byte	0x8c
 671 00ca 05       		.uleb128 0x5
 672 00cb A9000000 		.4byte	0xa9
 673 00cf 03       		.uleb128 0x3
 674 00d0 F1050000 		.4byte	.LASF18
 675 00d4 09       		.byte	0x9
 676 00d5 45       		.byte	0x45
 677 00d6 B4000000 		.4byte	0xb4
 678 00da 03       		.uleb128 0x3
 679 00db 0B010000 		.4byte	.LASF19
 680 00df 09       		.byte	0x9
 681 00e0 46       		.byte	0x46
 682 00e1 BF000000 		.4byte	0xbf
 683 00e5 03       		.uleb128 0x3
 684 00e6 49030000 		.4byte	.LASF20
 685 00ea 09       		.byte	0x9
 686 00eb 48       		.byte	0x48
 687 00ec 9E000000 		.4byte	0x9e
 688 00f0 03       		.uleb128 0x3
 689 00f1 71010000 		.4byte	.LASF21
 690 00f5 09       		.byte	0x9
 691 00f6 49       		.byte	0x49
 692 00f7 9E000000 		.4byte	0x9e
 693 00fb 03       		.uleb128 0x3
 694 00fc 57040000 		.4byte	.LASF22
 695 0100 09       		.byte	0x9
 696 0101 4A       		.byte	0x4a
 697 0102 9E000000 		.4byte	0x9e
 698 0106 03       		.uleb128 0x3
 699 0107 80040000 		.4byte	.LASF23
 700 010b 09       		.byte	0x9
 701 010c 4C       		.byte	0x4c
 702 010d B4000000 		.4byte	0xb4
 703 0111 03       		.uleb128 0x3
 704 0112 21030000 		.4byte	.LASF24
 705 0116 09       		.byte	0x9
 706 0117 4D       		.byte	0x4d
 707 0118 A9000000 		.4byte	0xa9
 708 011c 03       		.uleb128 0x3
 709 011d 7B030000 		.4byte	.LASF25
 710 0121 09       		.byte	0x9
 711 0122 4F       		.byte	0x4f
 712 0123 B4000000 		.4byte	0xb4
 713 0127 03       		.uleb128 0x3
 714 0128 A3020000 		.4byte	.LASF26
 715 012c 09       		.byte	0x9
 716 012d 51       		.byte	0x51
 717 012e A9000000 		.4byte	0xa9
 718 0132 03       		.uleb128 0x3
 719 0133 2C030000 		.4byte	.LASF27
 720 0137 09       		.byte	0x9
ARM GAS  /tmp/ccJrf82H.s 			page 14


 721 0138 52       		.byte	0x52
 722 0139 B4000000 		.4byte	0xb4
 723 013d 03       		.uleb128 0x3
 724 013e 8A050000 		.4byte	.LASF28
 725 0142 0A       		.byte	0xa
 726 0143 33       		.byte	0x33
 727 0144 B4000000 		.4byte	0xb4
 728 0148 03       		.uleb128 0x3
 729 0149 75050000 		.4byte	.LASF29
 730 014d 0A       		.byte	0xa
 731 014e 3F       		.byte	0x3f
 732 014f 53010000 		.4byte	0x153
 733 0153 06       		.uleb128 0x6
 734 0154 17030000 		.4byte	.LASF51
 735 0158 60       		.byte	0x60
 736 0159 0B       		.byte	0xb
 737 015a C2       		.byte	0xc2
 738 015b 59020000 		.4byte	0x259
 739 015f 07       		.uleb128 0x7
 740 0160 D1040000 		.4byte	.LASF30
 741 0164 0B       		.byte	0xb
 742 0165 C3       		.byte	0xc3
 743 0166 64020000 		.4byte	0x264
 744 016a 00       		.byte	0
 745 016b 07       		.uleb128 0x7
 746 016c 79040000 		.4byte	.LASF31
 747 0170 0B       		.byte	0xb
 748 0171 C5       		.byte	0xc5
 749 0172 64020000 		.4byte	0x264
 750 0176 04       		.byte	0x4
 751 0177 07       		.uleb128 0x7
 752 0178 14010000 		.4byte	.LASF32
 753 017c 0B       		.byte	0xb
 754 017d C7       		.byte	0xc7
 755 017e 06010000 		.4byte	0x106
 756 0182 08       		.byte	0x8
 757 0183 07       		.uleb128 0x7
 758 0184 FE060000 		.4byte	.LASF33
 759 0188 0B       		.byte	0xb
 760 0189 C8       		.byte	0xc8
 761 018a CD040000 		.4byte	0x4cd
 762 018e 0C       		.byte	0xc
 763 018f 07       		.uleb128 0x7
 764 0190 30020000 		.4byte	.LASF34
 765 0194 0B       		.byte	0xb
 766 0195 CA       		.byte	0xca
 767 0196 64020000 		.4byte	0x264
 768 019a 10       		.byte	0x10
 769 019b 07       		.uleb128 0x7
 770 019c 01040000 		.4byte	.LASF35
 771 01a0 0B       		.byte	0xb
 772 01a1 CB       		.byte	0xcb
 773 01a2 64020000 		.4byte	0x264
 774 01a6 14       		.byte	0x14
 775 01a7 07       		.uleb128 0x7
 776 01a8 6C060000 		.4byte	.LASF36
 777 01ac 0B       		.byte	0xb
ARM GAS  /tmp/ccJrf82H.s 			page 15


 778 01ad D2       		.byte	0xd2
 779 01ae 71070000 		.4byte	0x771
 780 01b2 18       		.byte	0x18
 781 01b3 07       		.uleb128 0x7
 782 01b4 A9020000 		.4byte	.LASF37
 783 01b8 0B       		.byte	0xb
 784 01b9 D8       		.byte	0xd8
 785 01ba 83070000 		.4byte	0x783
 786 01be 1C       		.byte	0x1c
 787 01bf 07       		.uleb128 0x7
 788 01c0 BB040000 		.4byte	.LASF38
 789 01c4 0B       		.byte	0xb
 790 01c5 DD       		.byte	0xdd
 791 01c6 F0000000 		.4byte	0xf0
 792 01ca 20       		.byte	0x20
 793 01cb 07       		.uleb128 0x7
 794 01cc 94060000 		.4byte	.LASF39
 795 01d0 0B       		.byte	0xb
 796 01d1 E1       		.byte	0xe1
 797 01d2 E5000000 		.4byte	0xe5
 798 01d6 21       		.byte	0x21
 799 01d7 07       		.uleb128 0x7
 800 01d8 29060000 		.4byte	.LASF40
 801 01dc 0B       		.byte	0xb
 802 01dd E6       		.byte	0xe6
 803 01de FB000000 		.4byte	0xfb
 804 01e2 22       		.byte	0x22
 805 01e3 08       		.uleb128 0x8
 806 01e4 705F7500 		.ascii	"p_u\000"
 807 01e8 0B       		.byte	0xb
 808 01e9 3101     		.2byte	0x131
 809 01eb AC060000 		.4byte	0x6ac
 810 01ef 24       		.byte	0x24
 811 01f0 09       		.uleb128 0x9
 812 01f1 9C030000 		.4byte	.LASF41
 813 01f5 0B       		.byte	0xb
 814 01f6 3601     		.2byte	0x136
 815 01f8 6A020000 		.4byte	0x26a
 816 01fc 28       		.byte	0x28
 817 01fd 09       		.uleb128 0x9
 818 01fe D0020000 		.4byte	.LASF42
 819 0202 0B       		.byte	0xb
 820 0203 3C01     		.2byte	0x13c
 821 0205 8E020000 		.4byte	0x28e
 822 0209 2C       		.byte	0x2c
 823 020a 09       		.uleb128 0x9
 824 020b EB050000 		.4byte	.LASF43
 825 020f 0B       		.byte	0xb
 826 0210 4001     		.2byte	0x140
 827 0212 11010000 		.4byte	0x111
 828 0216 34       		.byte	0x34
 829 0217 09       		.uleb128 0x9
 830 0218 16050000 		.4byte	.LASF44
 831 021c 0B       		.byte	0xb
 832 021d 4601     		.2byte	0x146
 833 021f 1C010000 		.4byte	0x11c
 834 0223 38       		.byte	0x38
ARM GAS  /tmp/ccJrf82H.s 			page 16


 835 0224 09       		.uleb128 0x9
 836 0225 A7040000 		.4byte	.LASF45
 837 0229 0B       		.byte	0xb
 838 022a 4D01     		.2byte	0x14d
 839 022c 6B070000 		.4byte	0x76b
 840 0230 3C       		.byte	0x3c
 841 0231 09       		.uleb128 0x9
 842 0232 94050000 		.4byte	.LASF46
 843 0236 0B       		.byte	0xb
 844 0237 5101     		.2byte	0x151
 845 0239 06010000 		.4byte	0x106
 846 023d 40       		.byte	0x40
 847 023e 09       		.uleb128 0x9
 848 023f 35010000 		.4byte	.LASF47
 849 0243 0B       		.byte	0xb
 850 0244 5801     		.2byte	0x158
 851 0246 41030000 		.4byte	0x341
 852 024a 44       		.byte	0x44
 853 024b 09       		.uleb128 0x9
 854 024c E1040000 		.4byte	.LASF48
 855 0250 0B       		.byte	0xb
 856 0251 5E01     		.2byte	0x15e
 857 0253 5D060000 		.4byte	0x65d
 858 0257 48       		.byte	0x48
 859 0258 00       		.byte	0
 860 0259 03       		.uleb128 0x3
 861 025a AF030000 		.4byte	.LASF49
 862 025e 0A       		.byte	0xa
 863 025f 44       		.byte	0x44
 864 0260 64020000 		.4byte	0x264
 865 0264 0A       		.uleb128 0xa
 866 0265 04       		.byte	0x4
 867 0266 48010000 		.4byte	0x148
 868 026a 03       		.uleb128 0x3
 869 026b 78060000 		.4byte	.LASF50
 870 026f 0A       		.byte	0xa
 871 0270 49       		.byte	0x49
 872 0271 75020000 		.4byte	0x275
 873 0275 06       		.uleb128 0x6
 874 0276 42050000 		.4byte	.LASF52
 875 027a 04       		.byte	0x4
 876 027b 0B       		.byte	0xb
 877 027c B0       		.byte	0xb0
 878 027d 8E020000 		.4byte	0x28e
 879 0281 07       		.uleb128 0x7
 880 0282 D1040000 		.4byte	.LASF30
 881 0286 0B       		.byte	0xb
 882 0287 B1       		.byte	0xb1
 883 0288 64020000 		.4byte	0x264
 884 028c 00       		.byte	0
 885 028d 00       		.byte	0
 886 028e 03       		.uleb128 0x3
 887 028f 0D060000 		.4byte	.LASF53
 888 0293 0A       		.byte	0xa
 889 0294 50       		.byte	0x50
 890 0295 99020000 		.4byte	0x299
 891 0299 06       		.uleb128 0x6
ARM GAS  /tmp/ccJrf82H.s 			page 17


 892 029a 56000000 		.4byte	.LASF54
 893 029e 08       		.byte	0x8
 894 029f 0B       		.byte	0xb
 895 02a0 B7       		.byte	0xb7
 896 02a1 BE020000 		.4byte	0x2be
 897 02a5 07       		.uleb128 0x7
 898 02a6 D1040000 		.4byte	.LASF30
 899 02aa 0B       		.byte	0xb
 900 02ab B8       		.byte	0xb8
 901 02ac 64020000 		.4byte	0x264
 902 02b0 00       		.byte	0
 903 02b1 07       		.uleb128 0x7
 904 02b2 79040000 		.4byte	.LASF31
 905 02b6 0B       		.byte	0xb
 906 02b7 B9       		.byte	0xb9
 907 02b8 64020000 		.4byte	0x264
 908 02bc 04       		.byte	0x4
 909 02bd 00       		.byte	0
 910 02be 03       		.uleb128 0x3
 911 02bf 07000000 		.4byte	.LASF55
 912 02c3 0A       		.byte	0xa
 913 02c4 57       		.byte	0x57
 914 02c5 C9020000 		.4byte	0x2c9
 915 02c9 0B       		.uleb128 0xb
 916 02ca 6D030000 		.4byte	.LASF56
 917 02ce 1C       		.byte	0x1c
 918 02cf 0B       		.byte	0xb
 919 02d0 9001     		.2byte	0x190
 920 02d2 25030000 		.4byte	0x325
 921 02d6 09       		.uleb128 0x9
 922 02d7 31050000 		.4byte	.LASF57
 923 02db 0B       		.byte	0xb
 924 02dc 9101     		.2byte	0x191
 925 02de 8E020000 		.4byte	0x28e
 926 02e2 00       		.byte	0
 927 02e3 09       		.uleb128 0x9
 928 02e4 C3040000 		.4byte	.LASF58
 929 02e8 0B       		.byte	0xb
 930 02e9 9201     		.2byte	0x192
 931 02eb 06010000 		.4byte	0x106
 932 02ef 08       		.byte	0x8
 933 02f0 09       		.uleb128 0x9
 934 02f1 09040000 		.4byte	.LASF59
 935 02f5 0B       		.byte	0xb
 936 02f6 9401     		.2byte	0x194
 937 02f8 CD040000 		.4byte	0x4cd
 938 02fc 0C       		.byte	0xc
 939 02fd 09       		.uleb128 0x9
 940 02fe 48020000 		.4byte	.LASF60
 941 0302 0B       		.byte	0xb
 942 0303 9701     		.2byte	0x197
 943 0305 64020000 		.4byte	0x264
 944 0309 10       		.byte	0x10
 945 030a 09       		.uleb128 0x9
 946 030b 39040000 		.4byte	.LASF61
 947 030f 0B       		.byte	0xb
 948 0310 9801     		.2byte	0x198
ARM GAS  /tmp/ccJrf82H.s 			page 18


 949 0312 64020000 		.4byte	0x264
 950 0316 14       		.byte	0x14
 951 0317 09       		.uleb128 0x9
 952 0318 2F040000 		.4byte	.LASF62
 953 031c 0B       		.byte	0xb
 954 031d 9B01     		.2byte	0x19b
 955 031f 64020000 		.4byte	0x264
 956 0323 18       		.byte	0x18
 957 0324 00       		.byte	0
 958 0325 03       		.uleb128 0x3
 959 0326 9F050000 		.4byte	.LASF63
 960 032a 0A       		.byte	0xa
 961 032b 5C       		.byte	0x5c
 962 032c 30030000 		.4byte	0x330
 963 0330 0A       		.uleb128 0xa
 964 0331 04       		.byte	0x4
 965 0332 36030000 		.4byte	0x336
 966 0336 0C       		.uleb128 0xc
 967 0337 41030000 		.4byte	0x341
 968 033b 0D       		.uleb128 0xd
 969 033c 41030000 		.4byte	0x341
 970 0340 00       		.byte	0
 971 0341 0E       		.uleb128 0xe
 972 0342 04       		.byte	0x4
 973 0343 03       		.uleb128 0x3
 974 0344 69040000 		.4byte	.LASF64
 975 0348 0A       		.byte	0xa
 976 0349 61       		.byte	0x61
 977 034a 4E030000 		.4byte	0x34e
 978 034e 0B       		.uleb128 0xb
 979 034f F8040000 		.4byte	.LASF65
 980 0353 14       		.byte	0x14
 981 0354 0B       		.byte	0xb
 982 0355 6B01     		.2byte	0x16b
 983 0357 9D030000 		.4byte	0x39d
 984 035b 09       		.uleb128 0x9
 985 035c C1020000 		.4byte	.LASF66
 986 0360 0B       		.byte	0xb
 987 0361 6C01     		.2byte	0x16c
 988 0363 89070000 		.4byte	0x789
 989 0367 00       		.byte	0
 990 0368 09       		.uleb128 0x9
 991 0369 65020000 		.4byte	.LASF67
 992 036d 0B       		.byte	0xb
 993 036e 6D01     		.2byte	0x16d
 994 0370 89070000 		.4byte	0x789
 995 0374 04       		.byte	0x4
 996 0375 09       		.uleb128 0x9
 997 0376 39050000 		.4byte	.LASF68
 998 037a 0B       		.byte	0xb
 999 037b 6E01     		.2byte	0x16e
 1000 037d 3D010000 		.4byte	0x13d
 1001 0381 08       		.byte	0x8
 1002 0382 09       		.uleb128 0x9
 1003 0383 04070000 		.4byte	.LASF69
 1004 0387 0B       		.byte	0xb
 1005 0388 6F01     		.2byte	0x16f
ARM GAS  /tmp/ccJrf82H.s 			page 19


 1006 038a 25030000 		.4byte	0x325
 1007 038e 0C       		.byte	0xc
 1008 038f 09       		.uleb128 0x9
 1009 0390 06060000 		.4byte	.LASF70
 1010 0394 0B       		.byte	0xb
 1011 0395 7101     		.2byte	0x171
 1012 0397 41030000 		.4byte	0x341
 1013 039b 10       		.byte	0x10
 1014 039c 00       		.byte	0
 1015 039d 03       		.uleb128 0x3
 1016 039e E8000000 		.4byte	.LASF71
 1017 03a2 0A       		.byte	0xa
 1018 03a3 66       		.byte	0x66
 1019 03a4 A8030000 		.4byte	0x3a8
 1020 03a8 0B       		.uleb128 0xb
 1021 03a9 C2030000 		.4byte	.LASF72
 1022 03ad 10       		.byte	0x10
 1023 03ae 0B       		.byte	0xb
 1024 03af 7B01     		.2byte	0x17b
 1025 03b1 EA030000 		.4byte	0x3ea
 1026 03b5 09       		.uleb128 0x9
 1027 03b6 C1020000 		.4byte	.LASF66
 1028 03ba 0B       		.byte	0xb
 1029 03bb 7C01     		.2byte	0x17c
 1030 03bd 89070000 		.4byte	0x789
 1031 03c1 00       		.byte	0
 1032 03c2 09       		.uleb128 0x9
 1033 03c3 65020000 		.4byte	.LASF67
 1034 03c7 0B       		.byte	0xb
 1035 03c8 7E01     		.2byte	0x17e
 1036 03ca 89070000 		.4byte	0x789
 1037 03ce 04       		.byte	0x4
 1038 03cf 09       		.uleb128 0x9
 1039 03d0 39050000 		.4byte	.LASF68
 1040 03d4 0B       		.byte	0xb
 1041 03d5 8001     		.2byte	0x180
 1042 03d7 3D010000 		.4byte	0x13d
 1043 03db 08       		.byte	0x8
 1044 03dc 09       		.uleb128 0x9
 1045 03dd F5030000 		.4byte	.LASF73
 1046 03e1 0B       		.byte	0xb
 1047 03e2 8801     		.2byte	0x188
 1048 03e4 3D010000 		.4byte	0x13d
 1049 03e8 0C       		.byte	0xc
 1050 03e9 00       		.byte	0
 1051 03ea 03       		.uleb128 0x3
 1052 03eb 67000000 		.4byte	.LASF74
 1053 03ef 0A       		.byte	0xa
 1054 03f0 6B       		.byte	0x6b
 1055 03f1 F5030000 		.4byte	0x3f5
 1056 03f5 0F       		.uleb128 0xf
 1057 03f6 6D020000 		.4byte	.LASF75
 1058 03fa 1404     		.2byte	0x414
 1059 03fc 0B       		.byte	0xb
 1060 03fd A201     		.2byte	0x1a2
 1061 03ff 38040000 		.4byte	0x438
 1062 0403 09       		.uleb128 0x9
ARM GAS  /tmp/ccJrf82H.s 			page 20


 1063 0404 C1050000 		.4byte	.LASF76
 1064 0408 0B       		.byte	0xb
 1065 0409 AA01     		.2byte	0x1aa
 1066 040b 8F070000 		.4byte	0x78f
 1067 040f 00       		.byte	0
 1068 0410 09       		.uleb128 0x9
 1069 0411 30060000 		.4byte	.LASF77
 1070 0415 0B       		.byte	0xb
 1071 0416 AF01     		.2byte	0x1af
 1072 0418 27010000 		.4byte	0x127
 1073 041c 04       		.byte	0x4
 1074 041d 09       		.uleb128 0x9
 1075 041e 8B020000 		.4byte	.LASF78
 1076 0422 0B       		.byte	0xb
 1077 0423 B301     		.2byte	0x1b3
 1078 0425 27010000 		.4byte	0x127
 1079 0429 08       		.byte	0x8
 1080 042a 09       		.uleb128 0x9
 1081 042b 87060000 		.4byte	.LASF79
 1082 042f 0B       		.byte	0xb
 1083 0430 B901     		.2byte	0x1b9
 1084 0432 EF050000 		.4byte	0x5ef
 1085 0436 0C       		.byte	0xc
 1086 0437 00       		.byte	0
 1087 0438 03       		.uleb128 0x3
 1088 0439 33030000 		.4byte	.LASF80
 1089 043d 0A       		.byte	0xa
 1090 043e 70       		.byte	0x70
 1091 043f 43040000 		.4byte	0x443
 1092 0443 0F       		.uleb128 0xf
 1093 0444 5E010000 		.4byte	.LASF81
 1094 0448 D805     		.2byte	0x5d8
 1095 044a 0B       		.byte	0xb
 1096 044b C201     		.2byte	0x1c2
 1097 044d B0040000 		.4byte	0x4b0
 1098 0451 09       		.uleb128 0x9
 1099 0452 38060000 		.4byte	.LASF82
 1100 0456 0B       		.byte	0xb
 1101 0457 C601     		.2byte	0x1c6
 1102 0459 BE020000 		.4byte	0x2be
 1103 045d 00       		.byte	0
 1104 045e 09       		.uleb128 0x9
 1105 045f 45010000 		.4byte	.LASF83
 1106 0463 0B       		.byte	0xb
 1107 0464 CA01     		.2byte	0x1ca
 1108 0466 9D030000 		.4byte	0x39d
 1109 046a 1C       		.byte	0x1c
 1110 046b 08       		.uleb128 0x8
 1111 046c 64626700 		.ascii	"dbg\000"
 1112 0470 0B       		.byte	0xb
 1113 0471 CE01     		.2byte	0x1ce
 1114 0473 EA030000 		.4byte	0x3ea
 1115 0477 2C       		.byte	0x2c
 1116 0478 10       		.uleb128 0x10
 1117 0479 DD000000 		.4byte	.LASF84
 1118 047d 0B       		.byte	0xb
 1119 047e D201     		.2byte	0x1d2
ARM GAS  /tmp/ccJrf82H.s 			page 21


 1120 0480 48010000 		.4byte	0x148
 1121 0484 4004     		.2byte	0x440
 1122 0486 11       		.uleb128 0x11
 1123 0487 746D00   		.ascii	"tm\000"
 1124 048a 0B       		.byte	0xb
 1125 048b D701     		.2byte	0x1d7
 1126 048d 0F060000 		.4byte	0x60f
 1127 0491 A004     		.2byte	0x4a0
 1128 0493 10       		.uleb128 0x10
 1129 0494 33000000 		.4byte	.LASF85
 1130 0498 0B       		.byte	0xb
 1131 0499 DD01     		.2byte	0x1dd
 1132 049b A1060000 		.4byte	0x6a1
 1133 049f A804     		.2byte	0x4a8
 1134 04a1 10       		.uleb128 0x10
 1135 04a2 94020000 		.4byte	.LASF86
 1136 04a6 0B       		.byte	0xb
 1137 04a7 E301     		.2byte	0x1e3
 1138 04a9 94070000 		.4byte	0x794
 1139 04ad E004     		.2byte	0x4e0
 1140 04af 00       		.byte	0
 1141 04b0 04       		.uleb128 0x4
 1142 04b1 04       		.byte	0x4
 1143 04b2 07       		.byte	0x7
 1144 04b3 A6030000 		.4byte	.LASF87
 1145 04b7 03       		.uleb128 0x3
 1146 04b8 5C020000 		.4byte	.LASF88
 1147 04bc 0C       		.byte	0xc
 1148 04bd 65       		.byte	0x65
 1149 04be 41030000 		.4byte	0x341
 1150 04c2 03       		.uleb128 0x3
 1151 04c3 91030000 		.4byte	.LASF89
 1152 04c7 0C       		.byte	0xc
 1153 04c8 6D       		.byte	0x6d
 1154 04c9 BF000000 		.4byte	0xbf
 1155 04cd 06       		.uleb128 0x6
 1156 04ce E3050000 		.4byte	.LASF90
 1157 04d2 04       		.byte	0x4
 1158 04d3 0C       		.byte	0xc
 1159 04d4 89       		.byte	0x89
 1160 04d5 E6040000 		.4byte	0x4e6
 1161 04d9 12       		.uleb128 0x12
 1162 04da 72313300 		.ascii	"r13\000"
 1163 04de 0C       		.byte	0xc
 1164 04df 8A       		.byte	0x8a
 1165 04e0 61050000 		.4byte	0x561
 1166 04e4 00       		.byte	0
 1167 04e5 00       		.byte	0
 1168 04e6 06       		.uleb128 0x6
 1169 04e7 4A000000 		.4byte	.LASF91
 1170 04eb 24       		.byte	0x24
 1171 04ec 01       		.byte	0x1
 1172 04ed FD       		.byte	0xfd
 1173 04ee 61050000 		.4byte	0x561
 1174 04f2 08       		.uleb128 0x8
 1175 04f3 723400   		.ascii	"r4\000"
 1176 04f6 01       		.byte	0x1
ARM GAS  /tmp/ccJrf82H.s 			page 22


 1177 04f7 1001     		.2byte	0x110
 1178 04f9 B7040000 		.4byte	0x4b7
 1179 04fd 00       		.byte	0
 1180 04fe 08       		.uleb128 0x8
 1181 04ff 723500   		.ascii	"r5\000"
 1182 0502 01       		.byte	0x1
 1183 0503 1101     		.2byte	0x111
 1184 0505 B7040000 		.4byte	0x4b7
 1185 0509 04       		.byte	0x4
 1186 050a 08       		.uleb128 0x8
 1187 050b 723600   		.ascii	"r6\000"
 1188 050e 01       		.byte	0x1
 1189 050f 1201     		.2byte	0x112
 1190 0511 B7040000 		.4byte	0x4b7
 1191 0515 08       		.byte	0x8
 1192 0516 08       		.uleb128 0x8
 1193 0517 723700   		.ascii	"r7\000"
 1194 051a 01       		.byte	0x1
 1195 051b 1301     		.2byte	0x113
 1196 051d B7040000 		.4byte	0x4b7
 1197 0521 0C       		.byte	0xc
 1198 0522 08       		.uleb128 0x8
 1199 0523 723800   		.ascii	"r8\000"
 1200 0526 01       		.byte	0x1
 1201 0527 1401     		.2byte	0x114
 1202 0529 B7040000 		.4byte	0x4b7
 1203 052d 10       		.byte	0x10
 1204 052e 08       		.uleb128 0x8
 1205 052f 723900   		.ascii	"r9\000"
 1206 0532 01       		.byte	0x1
 1207 0533 1501     		.2byte	0x115
 1208 0535 B7040000 		.4byte	0x4b7
 1209 0539 14       		.byte	0x14
 1210 053a 08       		.uleb128 0x8
 1211 053b 72313000 		.ascii	"r10\000"
 1212 053f 01       		.byte	0x1
 1213 0540 1601     		.2byte	0x116
 1214 0542 B7040000 		.4byte	0x4b7
 1215 0546 18       		.byte	0x18
 1216 0547 08       		.uleb128 0x8
 1217 0548 72313100 		.ascii	"r11\000"
 1218 054c 01       		.byte	0x1
 1219 054d 1701     		.2byte	0x117
 1220 054f B7040000 		.4byte	0x4b7
 1221 0553 1C       		.byte	0x1c
 1222 0554 08       		.uleb128 0x8
 1223 0555 6C7200   		.ascii	"lr\000"
 1224 0558 01       		.byte	0x1
 1225 0559 1801     		.2byte	0x118
 1226 055b B7040000 		.4byte	0x4b7
 1227 055f 20       		.byte	0x20
 1228 0560 00       		.byte	0
 1229 0561 0A       		.uleb128 0xa
 1230 0562 04       		.byte	0x4
 1231 0563 E6040000 		.4byte	0x4e6
 1232 0567 13       		.uleb128 0x13
 1233 0568 10       		.byte	0x10
ARM GAS  /tmp/ccJrf82H.s 			page 23


 1234 0569 0D       		.byte	0xd
 1235 056a 51       		.byte	0x51
 1236 056b A0050000 		.4byte	0x5a0
 1237 056f 07       		.uleb128 0x7
 1238 0570 14000000 		.4byte	.LASF92
 1239 0574 0D       		.byte	0xd
 1240 0575 55       		.byte	0x55
 1241 0576 3D010000 		.4byte	0x13d
 1242 057a 00       		.byte	0
 1243 057b 07       		.uleb128 0x7
 1244 057c 7A010000 		.4byte	.LASF93
 1245 0580 0D       		.byte	0xd
 1246 0581 59       		.byte	0x59
 1247 0582 64020000 		.4byte	0x264
 1248 0586 04       		.byte	0x4
 1249 0587 07       		.uleb128 0x7
 1250 0588 F4060000 		.4byte	.LASF94
 1251 058c 0D       		.byte	0xd
 1252 058d 5D       		.byte	0x5d
 1253 058e 41030000 		.4byte	0x341
 1254 0592 08       		.byte	0x8
 1255 0593 07       		.uleb128 0x7
 1256 0594 CB000000 		.4byte	.LASF95
 1257 0598 0D       		.byte	0xd
 1258 0599 61       		.byte	0x61
 1259 059a 9E000000 		.4byte	0x9e
 1260 059e 0C       		.byte	0xc
 1261 059f 00       		.byte	0
 1262 05a0 03       		.uleb128 0x3
 1263 05a1 E6030000 		.4byte	.LASF96
 1264 05a5 0D       		.byte	0xd
 1265 05a6 62       		.byte	0x62
 1266 05a7 67050000 		.4byte	0x567
 1267 05ab 14       		.uleb128 0x14
 1268 05ac 0804     		.2byte	0x408
 1269 05ae 0D       		.byte	0xd
 1270 05af 67       		.byte	0x67
 1271 05b0 D9050000 		.4byte	0x5d9
 1272 05b4 07       		.uleb128 0x7
 1273 05b5 40020000 		.4byte	.LASF97
 1274 05b9 0D       		.byte	0xd
 1275 05ba 6B       		.byte	0x6b
 1276 05bb 33000000 		.4byte	0x33
 1277 05bf 00       		.byte	0
 1278 05c0 07       		.uleb128 0x7
 1279 05c1 00000000 		.4byte	.LASF98
 1280 05c5 0D       		.byte	0xd
 1281 05c6 6F       		.byte	0x6f
 1282 05c7 D9050000 		.4byte	0x5d9
 1283 05cb 04       		.byte	0x4
 1284 05cc 07       		.uleb128 0x7
 1285 05cd 5F040000 		.4byte	.LASF99
 1286 05d1 0D       		.byte	0xd
 1287 05d2 73       		.byte	0x73
 1288 05d3 DF050000 		.4byte	0x5df
 1289 05d7 08       		.byte	0x8
 1290 05d8 00       		.byte	0
ARM GAS  /tmp/ccJrf82H.s 			page 24


 1291 05d9 0A       		.uleb128 0xa
 1292 05da 04       		.byte	0x4
 1293 05db A0050000 		.4byte	0x5a0
 1294 05df 15       		.uleb128 0x15
 1295 05e0 A0050000 		.4byte	0x5a0
 1296 05e4 EF050000 		.4byte	0x5ef
 1297 05e8 16       		.uleb128 0x16
 1298 05e9 B0040000 		.4byte	0x4b0
 1299 05ed 3F       		.byte	0x3f
 1300 05ee 00       		.byte	0
 1301 05ef 03       		.uleb128 0x3
 1302 05f0 B9000000 		.4byte	.LASF100
 1303 05f4 0D       		.byte	0xd
 1304 05f5 74       		.byte	0x74
 1305 05f6 AB050000 		.4byte	0x5ab
 1306 05fa 13       		.uleb128 0x13
 1307 05fb 04       		.byte	0x4
 1308 05fc 0E       		.byte	0xe
 1309 05fd 38       		.byte	0x38
 1310 05fe 0F060000 		.4byte	0x60f
 1311 0602 07       		.uleb128 0x7
 1312 0603 CB050000 		.4byte	.LASF101
 1313 0607 0E       		.byte	0xe
 1314 0608 3C       		.byte	0x3c
 1315 0609 CF000000 		.4byte	0xcf
 1316 060d 00       		.byte	0
 1317 060e 00       		.byte	0
 1318 060f 03       		.uleb128 0x3
 1319 0610 1E040000 		.4byte	.LASF102
 1320 0614 0E       		.byte	0xe
 1321 0615 3D       		.byte	0x3d
 1322 0616 FA050000 		.4byte	0x5fa
 1323 061a 13       		.uleb128 0x13
 1324 061b 18       		.byte	0x18
 1325 061c 0E       		.byte	0xe
 1326 061d 48       		.byte	0x48
 1327 061e 5D060000 		.4byte	0x65d
 1328 0622 07       		.uleb128 0x7
 1329 0623 7E050000 		.4byte	.LASF103
 1330 0627 0E       		.byte	0xe
 1331 0628 49       		.byte	0x49
 1332 0629 CF000000 		.4byte	0xcf
 1333 062d 00       		.byte	0
 1334 062e 07       		.uleb128 0x7
 1335 062f 89000000 		.4byte	.LASF104
 1336 0633 0E       		.byte	0xe
 1337 0634 4A       		.byte	0x4a
 1338 0635 CF000000 		.4byte	0xcf
 1339 0639 04       		.byte	0x4
 1340 063a 07       		.uleb128 0x7
 1341 063b 27030000 		.4byte	.LASF105
 1342 063f 0E       		.byte	0xe
 1343 0640 4B       		.byte	0x4b
 1344 0641 CF000000 		.4byte	0xcf
 1345 0645 08       		.byte	0x8
 1346 0646 12       		.uleb128 0x12
 1347 0647 6E00     		.ascii	"n\000"
ARM GAS  /tmp/ccJrf82H.s 			page 25


 1348 0649 0E       		.byte	0xe
 1349 064a 4C       		.byte	0x4c
 1350 064b 32010000 		.4byte	0x132
 1351 064f 0C       		.byte	0xc
 1352 0650 07       		.uleb128 0x7
 1353 0651 4C040000 		.4byte	.LASF106
 1354 0655 0E       		.byte	0xe
 1355 0656 4D       		.byte	0x4d
 1356 0657 DA000000 		.4byte	0xda
 1357 065b 10       		.byte	0x10
 1358 065c 00       		.byte	0
 1359 065d 03       		.uleb128 0x3
 1360 065e 8F000000 		.4byte	.LASF107
 1361 0662 0E       		.byte	0xe
 1362 0663 4E       		.byte	0x4e
 1363 0664 1A060000 		.4byte	0x61a
 1364 0668 13       		.uleb128 0x13
 1365 0669 38       		.byte	0x38
 1366 066a 0F       		.byte	0xf
 1367 066b 38       		.byte	0x38
 1368 066c A1060000 		.4byte	0x6a1
 1369 0670 07       		.uleb128 0x7
 1370 0671 E9020000 		.4byte	.LASF108
 1371 0675 0F       		.byte	0xf
 1372 0676 39       		.byte	0x39
 1373 0677 32010000 		.4byte	0x132
 1374 067b 00       		.byte	0
 1375 067c 07       		.uleb128 0x7
 1376 067d 88040000 		.4byte	.LASF109
 1377 0681 0F       		.byte	0xf
 1378 0682 3A       		.byte	0x3a
 1379 0683 32010000 		.4byte	0x132
 1380 0687 04       		.byte	0x4
 1381 0688 07       		.uleb128 0x7
 1382 0689 B8060000 		.4byte	.LASF110
 1383 068d 0F       		.byte	0xf
 1384 068e 3B       		.byte	0x3b
 1385 068f 5D060000 		.4byte	0x65d
 1386 0693 08       		.byte	0x8
 1387 0694 07       		.uleb128 0x7
 1388 0695 62030000 		.4byte	.LASF111
 1389 0699 0F       		.byte	0xf
 1390 069a 3D       		.byte	0x3d
 1391 069b 5D060000 		.4byte	0x65d
 1392 069f 20       		.byte	0x20
 1393 06a0 00       		.byte	0
 1394 06a1 03       		.uleb128 0x3
 1395 06a2 08030000 		.4byte	.LASF112
 1396 06a6 0F       		.byte	0xf
 1397 06a7 3F       		.byte	0x3f
 1398 06a8 68060000 		.4byte	0x668
 1399 06ac 17       		.uleb128 0x17
 1400 06ad 04       		.byte	0x4
 1401 06ae 0B       		.byte	0xb
 1402 06af FA       		.byte	0xfa
 1403 06b0 09070000 		.4byte	0x709
 1404 06b4 18       		.uleb128 0x18
ARM GAS  /tmp/ccJrf82H.s 			page 26


 1405 06b5 23000000 		.4byte	.LASF113
 1406 06b9 0B       		.byte	0xb
 1407 06ba 0101     		.2byte	0x101
 1408 06bc 11010000 		.4byte	0x111
 1409 06c0 18       		.uleb128 0x18
 1410 06c1 D4000000 		.4byte	.LASF114
 1411 06c5 0B       		.byte	0xb
 1412 06c6 0801     		.2byte	0x108
 1413 06c8 11010000 		.4byte	0x111
 1414 06cc 18       		.uleb128 0x18
 1415 06cd 5D060000 		.4byte	.LASF115
 1416 06d1 0B       		.byte	0xb
 1417 06d2 0F01     		.2byte	0x10f
 1418 06d4 41030000 		.4byte	0x341
 1419 06d8 18       		.uleb128 0x18
 1420 06d9 58010000 		.4byte	.LASF116
 1421 06dd 0B       		.byte	0xb
 1422 06de 1601     		.2byte	0x116
 1423 06e0 09070000 		.4byte	0x709
 1424 06e4 18       		.uleb128 0x18
 1425 06e5 C9020000 		.4byte	.LASF117
 1426 06e9 0B       		.byte	0xb
 1427 06ea 1E01     		.2byte	0x11e
 1428 06ec 34070000 		.4byte	0x734
 1429 06f0 18       		.uleb128 0x18
 1430 06f1 2A050000 		.4byte	.LASF118
 1431 06f5 0B       		.byte	0xb
 1432 06f6 2701     		.2byte	0x127
 1433 06f8 6B070000 		.4byte	0x76b
 1434 06fc 18       		.uleb128 0x18
 1435 06fd CA040000 		.4byte	.LASF119
 1436 0701 0B       		.byte	0xb
 1437 0702 2F01     		.2byte	0x12f
 1438 0704 1C010000 		.4byte	0x11c
 1439 0708 00       		.byte	0
 1440 0709 0A       		.uleb128 0xa
 1441 070a 04       		.byte	0x4
 1442 070b 59020000 		.4byte	0x259
 1443 070f 06       		.uleb128 0x6
 1444 0710 09050000 		.4byte	.LASF120
 1445 0714 0C       		.byte	0xc
 1446 0715 10       		.byte	0x10
 1447 0716 34       		.byte	0x34
 1448 0717 34070000 		.4byte	0x734
 1449 071b 07       		.uleb128 0x7
 1450 071c 38020000 		.4byte	.LASF121
 1451 0720 10       		.byte	0x10
 1452 0721 35       		.byte	0x35
 1453 0722 8E020000 		.4byte	0x28e
 1454 0726 00       		.byte	0
 1455 0727 07       		.uleb128 0x7
 1456 0728 EF020000 		.4byte	.LASF122
 1457 072c 10       		.byte	0x10
 1458 072d 37       		.byte	0x37
 1459 072e 27010000 		.4byte	0x127
 1460 0732 08       		.byte	0x8
 1461 0733 00       		.byte	0
ARM GAS  /tmp/ccJrf82H.s 			page 27


 1462 0734 0A       		.uleb128 0xa
 1463 0735 04       		.byte	0x4
 1464 0736 0F070000 		.4byte	0x70f
 1465 073a 06       		.uleb128 0x6
 1466 073b D2050000 		.4byte	.LASF123
 1467 073f 10       		.byte	0x10
 1468 0740 11       		.byte	0x11
 1469 0741 39       		.byte	0x39
 1470 0742 6B070000 		.4byte	0x76b
 1471 0746 07       		.uleb128 0x7
 1472 0747 3D010000 		.4byte	.LASF124
 1473 074b 11       		.byte	0x11
 1474 074c 3A       		.byte	0x3a
 1475 074d 8E020000 		.4byte	0x28e
 1476 0751 00       		.byte	0
 1477 0752 07       		.uleb128 0x7
 1478 0753 C3060000 		.4byte	.LASF125
 1479 0757 11       		.byte	0x11
 1480 0758 3C       		.byte	0x3c
 1481 0759 64020000 		.4byte	0x264
 1482 075d 08       		.byte	0x8
 1483 075e 07       		.uleb128 0x7
 1484 075f 83050000 		.4byte	.LASF126
 1485 0763 11       		.byte	0x11
 1486 0764 3E       		.byte	0x3e
 1487 0765 AF070000 		.4byte	0x7af
 1488 0769 0C       		.byte	0xc
 1489 076a 00       		.byte	0
 1490 076b 0A       		.uleb128 0xa
 1491 076c 04       		.byte	0x4
 1492 076d 3A070000 		.4byte	0x73a
 1493 0771 0A       		.uleb128 0xa
 1494 0772 04       		.byte	0x4
 1495 0773 77070000 		.4byte	0x777
 1496 0777 19       		.uleb128 0x19
 1497 0778 7C070000 		.4byte	0x77c
 1498 077c 04       		.uleb128 0x4
 1499 077d 01       		.byte	0x1
 1500 077e 08       		.byte	0x8
 1501 077f 64050000 		.4byte	.LASF127
 1502 0783 0A       		.uleb128 0xa
 1503 0784 04       		.byte	0x4
 1504 0785 C2040000 		.4byte	0x4c2
 1505 0789 0A       		.uleb128 0xa
 1506 078a 04       		.byte	0x4
 1507 078b 43030000 		.4byte	0x343
 1508 078f 05       		.uleb128 0x5
 1509 0790 71070000 		.4byte	0x771
 1510 0794 15       		.uleb128 0x15
 1511 0795 C2040000 		.4byte	0x4c2
 1512 0799 A4070000 		.4byte	0x7a4
 1513 079d 16       		.uleb128 0x16
 1514 079e B0040000 		.4byte	0x4b0
 1515 07a2 1E       		.byte	0x1e
 1516 07a3 00       		.byte	0
 1517 07a4 03       		.uleb128 0x3
 1518 07a5 7D020000 		.4byte	.LASF128
ARM GAS  /tmp/ccJrf82H.s 			page 28


 1519 07a9 11       		.byte	0x11
 1520 07aa 34       		.byte	0x34
 1521 07ab 3A070000 		.4byte	0x73a
 1522 07af 0A       		.uleb128 0xa
 1523 07b0 04       		.byte	0x4
 1524 07b1 A4070000 		.4byte	0x7a4
 1525 07b5 03       		.uleb128 0x3
 1526 07b6 F9050000 		.4byte	.LASF129
 1527 07ba 12       		.byte	0x12
 1528 07bb 36       		.byte	0x36
 1529 07bc C0070000 		.4byte	0x7c0
 1530 07c0 0A       		.uleb128 0xa
 1531 07c1 04       		.byte	0x4
 1532 07c2 C6070000 		.4byte	0x7c6
 1533 07c6 1A       		.uleb128 0x1a
 1534 07c7 41030000 		.4byte	0x341
 1535 07cb D5070000 		.4byte	0x7d5
 1536 07cf 0D       		.uleb128 0xd
 1537 07d0 28000000 		.4byte	0x28
 1538 07d4 00       		.byte	0
 1539 07d5 06       		.uleb128 0x6
 1540 07d6 1D060000 		.4byte	.LASF130
 1541 07da 04       		.byte	0x4
 1542 07db 04       		.byte	0x4
 1543 07dc 38       		.byte	0x38
 1544 07dd EE070000 		.4byte	0x7ee
 1545 07e1 07       		.uleb128 0x7
 1546 07e2 64060000 		.4byte	.LASF131
 1547 07e6 04       		.byte	0x4
 1548 07e7 39       		.byte	0x39
 1549 07e8 EE070000 		.4byte	0x7ee
 1550 07ec 00       		.byte	0
 1551 07ed 00       		.byte	0
 1552 07ee 0A       		.uleb128 0xa
 1553 07ef 04       		.byte	0x4
 1554 07f0 D5070000 		.4byte	0x7d5
 1555 07f4 13       		.uleb128 0x13
 1556 07f5 0C       		.byte	0xc
 1557 07f6 04       		.byte	0x4
 1558 07f7 40       		.byte	0x40
 1559 07f8 21080000 		.4byte	0x821
 1560 07fc 07       		.uleb128 0x7
 1561 07fd DB050000 		.4byte	.LASF132
 1562 0801 04       		.byte	0x4
 1563 0802 41       		.byte	0x41
 1564 0803 EE070000 		.4byte	0x7ee
 1565 0807 00       		.byte	0
 1566 0808 07       		.uleb128 0x7
 1567 0809 0F040000 		.4byte	.LASF133
 1568 080d 04       		.byte	0x4
 1569 080e 42       		.byte	0x42
 1570 080f 28000000 		.4byte	0x28
 1571 0813 04       		.byte	0x4
 1572 0814 07       		.uleb128 0x7
 1573 0815 50020000 		.4byte	.LASF134
 1574 0819 04       		.byte	0x4
 1575 081a 44       		.byte	0x44
ARM GAS  /tmp/ccJrf82H.s 			page 29


 1576 081b B5070000 		.4byte	0x7b5
 1577 081f 08       		.byte	0x8
 1578 0820 00       		.byte	0
 1579 0821 03       		.uleb128 0x3
 1580 0822 DB020000 		.4byte	.LASF135
 1581 0826 04       		.byte	0x4
 1582 0827 46       		.byte	0x46
 1583 0828 F4070000 		.4byte	0x7f4
 1584 082c 1B       		.uleb128 0x1b
 1585 082d B3050000 		.4byte	.LASF153
 1586 0831 02       		.byte	0x2
 1587 0832 2202     		.2byte	0x222
 1588 0834 03       		.byte	0x3
 1589 0835 46080000 		.4byte	0x846
 1590 0839 1C       		.uleb128 0x1c
 1591 083a 85020000 		.4byte	.LASF154
 1592 083e 02       		.byte	0x2
 1593 083f 2202     		.2byte	0x222
 1594 0841 B4000000 		.4byte	0xb4
 1595 0845 00       		.byte	0
 1596 0846 1D       		.uleb128 0x1d
 1597 0847 7F000000 		.4byte	.LASF136
 1598 084b 01       		.byte	0x1
 1599 084c C801     		.2byte	0x1c8
 1600 084e 00000000 		.4byte	.LFB127
 1601 0852 10000000 		.4byte	.LFE127-.LFB127
 1602 0856 01       		.uleb128 0x1
 1603 0857 9C       		.byte	0x9c
 1604 0858 76080000 		.4byte	0x876
 1605 085c 1E       		.uleb128 0x1e
 1606 085d 2C080000 		.4byte	0x82c
 1607 0861 06000000 		.4byte	.LBB6
 1608 0865 06000000 		.4byte	.LBE6-.LBB6
 1609 0869 01       		.byte	0x1
 1610 086a CB01     		.2byte	0x1cb
 1611 086c 1F       		.uleb128 0x1f
 1612 086d 39080000 		.4byte	0x839
 1613 0871 02       		.uleb128 0x2
 1614 0872 91       		.byte	0x91
 1615 0873 7C       		.sleb128 -4
 1616 0874 00       		.byte	0
 1617 0875 00       		.byte	0
 1618 0876 1D       		.uleb128 0x1d
 1619 0877 4C010000 		.4byte	.LASF137
 1620 087b 01       		.byte	0x1
 1621 087c D601     		.2byte	0x1d6
 1622 087e 00000000 		.4byte	.LFB128
 1623 0882 10000000 		.4byte	.LFE128-.LFB128
 1624 0886 01       		.uleb128 0x1
 1625 0887 9C       		.byte	0x9c
 1626 0888 A6080000 		.4byte	0x8a6
 1627 088c 1E       		.uleb128 0x1e
 1628 088d 2C080000 		.4byte	0x82c
 1629 0891 06000000 		.4byte	.LBB8
 1630 0895 06000000 		.4byte	.LBE8-.LBB8
 1631 0899 01       		.byte	0x1
 1632 089a D901     		.2byte	0x1d9
ARM GAS  /tmp/ccJrf82H.s 			page 30


 1633 089c 1F       		.uleb128 0x1f
 1634 089d 39080000 		.4byte	0x839
 1635 08a1 02       		.uleb128 0x2
 1636 08a2 91       		.byte	0x91
 1637 08a3 7C       		.sleb128 -4
 1638 08a4 00       		.byte	0
 1639 08a5 00       		.byte	0
 1640 08a6 20       		.uleb128 0x20
 1641 08a7 E9040000 		.4byte	.LASF155
 1642 08ab 03       		.byte	0x3
 1643 08ac 5A01     		.2byte	0x15a
 1644 08ae 00000000 		.4byte	.LFB167
 1645 08b2 10000000 		.4byte	.LFE167-.LFB167
 1646 08b6 01       		.uleb128 0x1
 1647 08b7 9C       		.byte	0x9c
 1648 08b8 21       		.uleb128 0x21
 1649 08b9 9C060000 		.4byte	.LASF138
 1650 08bd 03       		.byte	0x3
 1651 08be 6601     		.2byte	0x166
 1652 08c0 00000000 		.4byte	.LFB168
 1653 08c4 38000000 		.4byte	.LFE168-.LFB168
 1654 08c8 01       		.uleb128 0x1
 1655 08c9 9C       		.byte	0x9c
 1656 08ca DE080000 		.4byte	0x8de
 1657 08ce 22       		.uleb128 0x22
 1658 08cf D8040000 		.4byte	.LASF143
 1659 08d3 EE080000 		.4byte	0x8ee
 1660 08d7 05       		.uleb128 0x5
 1661 08d8 03       		.byte	0x3
 1662 08d9 00000000 		.4byte	__func__.5925
 1663 08dd 00       		.byte	0
 1664 08de 15       		.uleb128 0x15
 1665 08df 7C070000 		.4byte	0x77c
 1666 08e3 EE080000 		.4byte	0x8ee
 1667 08e7 16       		.uleb128 0x16
 1668 08e8 B0040000 		.4byte	0x4b0
 1669 08ec 0B       		.byte	0xb
 1670 08ed 00       		.byte	0
 1671 08ee 19       		.uleb128 0x19
 1672 08ef DE080000 		.4byte	0x8de
 1673 08f3 23       		.uleb128 0x23
 1674 08f4 3F030000 		.4byte	.LASF139
 1675 08f8 04       		.byte	0x4
 1676 08f9 89       		.byte	0x89
 1677 08fa 00000000 		.4byte	.LFB228
 1678 08fe 16000000 		.4byte	.LFE228-.LFB228
 1679 0902 01       		.uleb128 0x1
 1680 0903 9C       		.byte	0x9c
 1681 0904 24090000 		.4byte	0x924
 1682 0908 24       		.uleb128 0x24
 1683 0909 6D7000   		.ascii	"mp\000"
 1684 090c 04       		.byte	0x4
 1685 090d 89       		.byte	0x89
 1686 090e 24090000 		.4byte	0x924
 1687 0912 02       		.uleb128 0x2
 1688 0913 91       		.byte	0x91
 1689 0914 74       		.sleb128 -12
ARM GAS  /tmp/ccJrf82H.s 			page 31


 1690 0915 25       		.uleb128 0x25
 1691 0916 F3040000 		.4byte	.LASF140
 1692 091a 04       		.byte	0x4
 1693 091b 89       		.byte	0x89
 1694 091c 41030000 		.4byte	0x341
 1695 0920 02       		.uleb128 0x2
 1696 0921 91       		.byte	0x91
 1697 0922 70       		.sleb128 -16
 1698 0923 00       		.byte	0
 1699 0924 0A       		.uleb128 0xa
 1700 0925 04       		.byte	0x4
 1701 0926 21080000 		.4byte	0x821
 1702 092a 26       		.uleb128 0x26
 1703 092b 51030000 		.4byte	.LASF144
 1704 092f 05       		.byte	0x5
 1705 0930 4B       		.byte	0x4b
 1706 0931 00000000 		.4byte	.LFB240
 1707 0935 38000000 		.4byte	.LFE240-.LFB240
 1708 0939 01       		.uleb128 0x1
 1709 093a 9C       		.byte	0x9c
 1710 093b 78090000 		.4byte	0x978
 1711 093f 24       		.uleb128 0x24
 1712 0940 6D7000   		.ascii	"mp\000"
 1713 0943 05       		.byte	0x5
 1714 0944 4B       		.byte	0x4b
 1715 0945 24090000 		.4byte	0x924
 1716 0949 02       		.uleb128 0x2
 1717 094a 91       		.byte	0x91
 1718 094b 74       		.sleb128 -12
 1719 094c 25       		.uleb128 0x25
 1720 094d 73060000 		.4byte	.LASF141
 1721 0951 05       		.byte	0x5
 1722 0952 4B       		.byte	0x4b
 1723 0953 28000000 		.4byte	0x28
 1724 0957 02       		.uleb128 0x2
 1725 0958 91       		.byte	0x91
 1726 0959 70       		.sleb128 -16
 1727 095a 25       		.uleb128 0x25
 1728 095b 76000000 		.4byte	.LASF142
 1729 095f 05       		.byte	0x5
 1730 0960 4B       		.byte	0x4b
 1731 0961 B5070000 		.4byte	0x7b5
 1732 0965 02       		.uleb128 0x2
 1733 0966 91       		.byte	0x91
 1734 0967 6C       		.sleb128 -20
 1735 0968 22       		.uleb128 0x22
 1736 0969 D8040000 		.4byte	.LASF143
 1737 096d 88090000 		.4byte	0x988
 1738 0971 05       		.uleb128 0x5
 1739 0972 03       		.byte	0x3
 1740 0973 00000000 		.4byte	__func__.6622
 1741 0977 00       		.byte	0
 1742 0978 15       		.uleb128 0x15
 1743 0979 7C070000 		.4byte	0x77c
 1744 097d 88090000 		.4byte	0x988
 1745 0981 16       		.uleb128 0x16
 1746 0982 B0040000 		.4byte	0x4b0
ARM GAS  /tmp/ccJrf82H.s 			page 32


 1747 0986 10       		.byte	0x10
 1748 0987 00       		.byte	0
 1749 0988 19       		.uleb128 0x19
 1750 0989 78090000 		.4byte	0x978
 1751 098d 26       		.uleb128 0x26
 1752 098e A8060000 		.4byte	.LASF145
 1753 0992 05       		.byte	0x5
 1754 0993 61       		.byte	0x61
 1755 0994 00000000 		.4byte	.LFB241
 1756 0998 48000000 		.4byte	.LFE241-.LFB241
 1757 099c 01       		.uleb128 0x1
 1758 099d 9C       		.byte	0x9c
 1759 099e D7090000 		.4byte	0x9d7
 1760 09a2 24       		.uleb128 0x24
 1761 09a3 6D7000   		.ascii	"mp\000"
 1762 09a6 05       		.byte	0x5
 1763 09a7 61       		.byte	0x61
 1764 09a8 24090000 		.4byte	0x924
 1765 09ac 02       		.uleb128 0x2
 1766 09ad 91       		.byte	0x91
 1767 09ae 74       		.sleb128 -12
 1768 09af 24       		.uleb128 0x24
 1769 09b0 7000     		.ascii	"p\000"
 1770 09b2 05       		.byte	0x5
 1771 09b3 61       		.byte	0x61
 1772 09b4 41030000 		.4byte	0x341
 1773 09b8 02       		.uleb128 0x2
 1774 09b9 91       		.byte	0x91
 1775 09ba 70       		.sleb128 -16
 1776 09bb 24       		.uleb128 0x24
 1777 09bc 6E00     		.ascii	"n\000"
 1778 09be 05       		.byte	0x5
 1779 09bf 61       		.byte	0x61
 1780 09c0 28000000 		.4byte	0x28
 1781 09c4 02       		.uleb128 0x2
 1782 09c5 91       		.byte	0x91
 1783 09c6 6C       		.sleb128 -20
 1784 09c7 22       		.uleb128 0x22
 1785 09c8 D8040000 		.4byte	.LASF143
 1786 09cc E7090000 		.4byte	0x9e7
 1787 09d0 05       		.uleb128 0x5
 1788 09d1 03       		.byte	0x3
 1789 09d2 00000000 		.4byte	__func__.6628
 1790 09d6 00       		.byte	0
 1791 09d7 15       		.uleb128 0x15
 1792 09d8 7C070000 		.4byte	0x77c
 1793 09dc E7090000 		.4byte	0x9e7
 1794 09e0 16       		.uleb128 0x16
 1795 09e1 B0040000 		.4byte	0x4b0
 1796 09e5 0F       		.byte	0xf
 1797 09e6 00       		.byte	0
 1798 09e7 19       		.uleb128 0x19
 1799 09e8 D7090000 		.4byte	0x9d7
 1800 09ec 27       		.uleb128 0x27
 1801 09ed D9030000 		.4byte	.LASF146
 1802 09f1 05       		.byte	0x5
 1803 09f2 78       		.byte	0x78
ARM GAS  /tmp/ccJrf82H.s 			page 33


 1804 09f3 41030000 		.4byte	0x341
 1805 09f7 00000000 		.4byte	.LFB242
 1806 09fb 54000000 		.4byte	.LFE242-.LFB242
 1807 09ff 01       		.uleb128 0x1
 1808 0a00 9C       		.byte	0x9c
 1809 0a01 300A0000 		.4byte	0xa30
 1810 0a05 24       		.uleb128 0x24
 1811 0a06 6D7000   		.ascii	"mp\000"
 1812 0a09 05       		.byte	0x5
 1813 0a0a 78       		.byte	0x78
 1814 0a0b 24090000 		.4byte	0x924
 1815 0a0f 02       		.uleb128 0x2
 1816 0a10 91       		.byte	0x91
 1817 0a11 6C       		.sleb128 -20
 1818 0a12 28       		.uleb128 0x28
 1819 0a13 F3040000 		.4byte	.LASF140
 1820 0a17 05       		.byte	0x5
 1821 0a18 79       		.byte	0x79
 1822 0a19 41030000 		.4byte	0x341
 1823 0a1d 02       		.uleb128 0x2
 1824 0a1e 91       		.byte	0x91
 1825 0a1f 74       		.sleb128 -12
 1826 0a20 22       		.uleb128 0x22
 1827 0a21 D8040000 		.4byte	.LASF143
 1828 0a25 400A0000 		.4byte	0xa40
 1829 0a29 05       		.uleb128 0x5
 1830 0a2a 03       		.byte	0x3
 1831 0a2b 00000000 		.4byte	__func__.6636
 1832 0a2f 00       		.byte	0
 1833 0a30 15       		.uleb128 0x15
 1834 0a31 7C070000 		.4byte	0x77c
 1835 0a35 400A0000 		.4byte	0xa40
 1836 0a39 16       		.uleb128 0x16
 1837 0a3a B0040000 		.4byte	0x4b0
 1838 0a3e 0C       		.byte	0xc
 1839 0a3f 00       		.byte	0
 1840 0a40 19       		.uleb128 0x19
 1841 0a41 300A0000 		.4byte	0xa30
 1842 0a45 27       		.uleb128 0x27
 1843 0a46 46060000 		.4byte	.LASF147
 1844 0a4a 05       		.byte	0x5
 1845 0a4b 95       		.byte	0x95
 1846 0a4c 41030000 		.4byte	0x341
 1847 0a50 00000000 		.4byte	.LFB243
 1848 0a54 20000000 		.4byte	.LFE243-.LFB243
 1849 0a58 01       		.uleb128 0x1
 1850 0a59 9C       		.byte	0x9c
 1851 0a5a 7A0A0000 		.4byte	0xa7a
 1852 0a5e 24       		.uleb128 0x24
 1853 0a5f 6D7000   		.ascii	"mp\000"
 1854 0a62 05       		.byte	0x5
 1855 0a63 95       		.byte	0x95
 1856 0a64 24090000 		.4byte	0x924
 1857 0a68 02       		.uleb128 0x2
 1858 0a69 91       		.byte	0x91
 1859 0a6a 6C       		.sleb128 -20
 1860 0a6b 28       		.uleb128 0x28
ARM GAS  /tmp/ccJrf82H.s 			page 34


 1861 0a6c F3040000 		.4byte	.LASF140
 1862 0a70 05       		.byte	0x5
 1863 0a71 96       		.byte	0x96
 1864 0a72 41030000 		.4byte	0x341
 1865 0a76 02       		.uleb128 0x2
 1866 0a77 91       		.byte	0x91
 1867 0a78 74       		.sleb128 -12
 1868 0a79 00       		.byte	0
 1869 0a7a 26       		.uleb128 0x26
 1870 0a7b 69050000 		.4byte	.LASF148
 1871 0a7f 05       		.byte	0x5
 1872 0a80 AB       		.byte	0xab
 1873 0a81 00000000 		.4byte	.LFB244
 1874 0a85 3C000000 		.4byte	.LFE244-.LFB244
 1875 0a89 01       		.uleb128 0x1
 1876 0a8a 9C       		.byte	0x9c
 1877 0a8b C80A0000 		.4byte	0xac8
 1878 0a8f 24       		.uleb128 0x24
 1879 0a90 6D7000   		.ascii	"mp\000"
 1880 0a93 05       		.byte	0x5
 1881 0a94 AB       		.byte	0xab
 1882 0a95 24090000 		.4byte	0x924
 1883 0a99 02       		.uleb128 0x2
 1884 0a9a 91       		.byte	0x91
 1885 0a9b 6C       		.sleb128 -20
 1886 0a9c 25       		.uleb128 0x25
 1887 0a9d F3040000 		.4byte	.LASF140
 1888 0aa1 05       		.byte	0x5
 1889 0aa2 AB       		.byte	0xab
 1890 0aa3 41030000 		.4byte	0x341
 1891 0aa7 02       		.uleb128 0x2
 1892 0aa8 91       		.byte	0x91
 1893 0aa9 68       		.sleb128 -24
 1894 0aaa 29       		.uleb128 0x29
 1895 0aab 70687000 		.ascii	"php\000"
 1896 0aaf 05       		.byte	0x5
 1897 0ab0 AC       		.byte	0xac
 1898 0ab1 EE070000 		.4byte	0x7ee
 1899 0ab5 02       		.uleb128 0x2
 1900 0ab6 91       		.byte	0x91
 1901 0ab7 74       		.sleb128 -12
 1902 0ab8 22       		.uleb128 0x22
 1903 0ab9 D8040000 		.4byte	.LASF143
 1904 0abd C80A0000 		.4byte	0xac8
 1905 0ac1 05       		.uleb128 0x5
 1906 0ac2 03       		.byte	0x3
 1907 0ac3 00000000 		.4byte	__func__.6646
 1908 0ac7 00       		.byte	0
 1909 0ac8 19       		.uleb128 0x19
 1910 0ac9 DE080000 		.4byte	0x8de
 1911 0acd 26       		.uleb128 0x26
 1912 0ace 52060000 		.4byte	.LASF149
 1913 0ad2 05       		.byte	0x5
 1914 0ad3 C1       		.byte	0xc1
 1915 0ad4 00000000 		.4byte	.LFB245
 1916 0ad8 1E000000 		.4byte	.LFE245-.LFB245
 1917 0adc 01       		.uleb128 0x1
ARM GAS  /tmp/ccJrf82H.s 			page 35


 1918 0add 9C       		.byte	0x9c
 1919 0ade FE0A0000 		.4byte	0xafe
 1920 0ae2 24       		.uleb128 0x24
 1921 0ae3 6D7000   		.ascii	"mp\000"
 1922 0ae6 05       		.byte	0x5
 1923 0ae7 C1       		.byte	0xc1
 1924 0ae8 24090000 		.4byte	0x924
 1925 0aec 02       		.uleb128 0x2
 1926 0aed 91       		.byte	0x91
 1927 0aee 74       		.sleb128 -12
 1928 0aef 25       		.uleb128 0x25
 1929 0af0 F3040000 		.4byte	.LASF140
 1930 0af4 05       		.byte	0x5
 1931 0af5 C1       		.byte	0xc1
 1932 0af6 41030000 		.4byte	0x341
 1933 0afa 02       		.uleb128 0x2
 1934 0afb 91       		.byte	0x91
 1935 0afc 70       		.sleb128 -16
 1936 0afd 00       		.byte	0
 1937 0afe 2A       		.uleb128 0x2a
 1938 0aff FE000000 		.4byte	.LASF150
 1939 0b03 13       		.byte	0x13
 1940 0b04 FA06     		.2byte	0x6fa
 1941 0b06 CA000000 		.4byte	0xca
 1942 0b0a 2B       		.uleb128 0x2b
 1943 0b0b 636800   		.ascii	"ch\000"
 1944 0b0e 0B       		.byte	0xb
 1945 0b0f 0902     		.2byte	0x209
 1946 0b11 38040000 		.4byte	0x438
 1947 0b15 00       		.byte	0
 1948              		.section	.debug_abbrev,"",%progbits
 1949              	.Ldebug_abbrev0:
 1950 0000 01       		.uleb128 0x1
 1951 0001 11       		.uleb128 0x11
 1952 0002 01       		.byte	0x1
 1953 0003 25       		.uleb128 0x25
 1954 0004 0E       		.uleb128 0xe
 1955 0005 13       		.uleb128 0x13
 1956 0006 0B       		.uleb128 0xb
 1957 0007 03       		.uleb128 0x3
 1958 0008 0E       		.uleb128 0xe
 1959 0009 55       		.uleb128 0x55
 1960 000a 17       		.uleb128 0x17
 1961 000b 11       		.uleb128 0x11
 1962 000c 01       		.uleb128 0x1
 1963 000d 10       		.uleb128 0x10
 1964 000e 17       		.uleb128 0x17
 1965 000f 00       		.byte	0
 1966 0010 00       		.byte	0
 1967 0011 02       		.uleb128 0x2
 1968 0012 24       		.uleb128 0x24
 1969 0013 00       		.byte	0
 1970 0014 0B       		.uleb128 0xb
 1971 0015 0B       		.uleb128 0xb
 1972 0016 3E       		.uleb128 0x3e
 1973 0017 0B       		.uleb128 0xb
 1974 0018 03       		.uleb128 0x3
ARM GAS  /tmp/ccJrf82H.s 			page 36


 1975 0019 08       		.uleb128 0x8
 1976 001a 00       		.byte	0
 1977 001b 00       		.byte	0
 1978 001c 03       		.uleb128 0x3
 1979 001d 16       		.uleb128 0x16
 1980 001e 00       		.byte	0
 1981 001f 03       		.uleb128 0x3
 1982 0020 0E       		.uleb128 0xe
 1983 0021 3A       		.uleb128 0x3a
 1984 0022 0B       		.uleb128 0xb
 1985 0023 3B       		.uleb128 0x3b
 1986 0024 0B       		.uleb128 0xb
 1987 0025 49       		.uleb128 0x49
 1988 0026 13       		.uleb128 0x13
 1989 0027 00       		.byte	0
 1990 0028 00       		.byte	0
 1991 0029 04       		.uleb128 0x4
 1992 002a 24       		.uleb128 0x24
 1993 002b 00       		.byte	0
 1994 002c 0B       		.uleb128 0xb
 1995 002d 0B       		.uleb128 0xb
 1996 002e 3E       		.uleb128 0x3e
 1997 002f 0B       		.uleb128 0xb
 1998 0030 03       		.uleb128 0x3
 1999 0031 0E       		.uleb128 0xe
 2000 0032 00       		.byte	0
 2001 0033 00       		.byte	0
 2002 0034 05       		.uleb128 0x5
 2003 0035 35       		.uleb128 0x35
 2004 0036 00       		.byte	0
 2005 0037 49       		.uleb128 0x49
 2006 0038 13       		.uleb128 0x13
 2007 0039 00       		.byte	0
 2008 003a 00       		.byte	0
 2009 003b 06       		.uleb128 0x6
 2010 003c 13       		.uleb128 0x13
 2011 003d 01       		.byte	0x1
 2012 003e 03       		.uleb128 0x3
 2013 003f 0E       		.uleb128 0xe
 2014 0040 0B       		.uleb128 0xb
 2015 0041 0B       		.uleb128 0xb
 2016 0042 3A       		.uleb128 0x3a
 2017 0043 0B       		.uleb128 0xb
 2018 0044 3B       		.uleb128 0x3b
 2019 0045 0B       		.uleb128 0xb
 2020 0046 01       		.uleb128 0x1
 2021 0047 13       		.uleb128 0x13
 2022 0048 00       		.byte	0
 2023 0049 00       		.byte	0
 2024 004a 07       		.uleb128 0x7
 2025 004b 0D       		.uleb128 0xd
 2026 004c 00       		.byte	0
 2027 004d 03       		.uleb128 0x3
 2028 004e 0E       		.uleb128 0xe
 2029 004f 3A       		.uleb128 0x3a
 2030 0050 0B       		.uleb128 0xb
 2031 0051 3B       		.uleb128 0x3b
ARM GAS  /tmp/ccJrf82H.s 			page 37


 2032 0052 0B       		.uleb128 0xb
 2033 0053 49       		.uleb128 0x49
 2034 0054 13       		.uleb128 0x13
 2035 0055 38       		.uleb128 0x38
 2036 0056 0B       		.uleb128 0xb
 2037 0057 00       		.byte	0
 2038 0058 00       		.byte	0
 2039 0059 08       		.uleb128 0x8
 2040 005a 0D       		.uleb128 0xd
 2041 005b 00       		.byte	0
 2042 005c 03       		.uleb128 0x3
 2043 005d 08       		.uleb128 0x8
 2044 005e 3A       		.uleb128 0x3a
 2045 005f 0B       		.uleb128 0xb
 2046 0060 3B       		.uleb128 0x3b
 2047 0061 05       		.uleb128 0x5
 2048 0062 49       		.uleb128 0x49
 2049 0063 13       		.uleb128 0x13
 2050 0064 38       		.uleb128 0x38
 2051 0065 0B       		.uleb128 0xb
 2052 0066 00       		.byte	0
 2053 0067 00       		.byte	0
 2054 0068 09       		.uleb128 0x9
 2055 0069 0D       		.uleb128 0xd
 2056 006a 00       		.byte	0
 2057 006b 03       		.uleb128 0x3
 2058 006c 0E       		.uleb128 0xe
 2059 006d 3A       		.uleb128 0x3a
 2060 006e 0B       		.uleb128 0xb
 2061 006f 3B       		.uleb128 0x3b
 2062 0070 05       		.uleb128 0x5
 2063 0071 49       		.uleb128 0x49
 2064 0072 13       		.uleb128 0x13
 2065 0073 38       		.uleb128 0x38
 2066 0074 0B       		.uleb128 0xb
 2067 0075 00       		.byte	0
 2068 0076 00       		.byte	0
 2069 0077 0A       		.uleb128 0xa
 2070 0078 0F       		.uleb128 0xf
 2071 0079 00       		.byte	0
 2072 007a 0B       		.uleb128 0xb
 2073 007b 0B       		.uleb128 0xb
 2074 007c 49       		.uleb128 0x49
 2075 007d 13       		.uleb128 0x13
 2076 007e 00       		.byte	0
 2077 007f 00       		.byte	0
 2078 0080 0B       		.uleb128 0xb
 2079 0081 13       		.uleb128 0x13
 2080 0082 01       		.byte	0x1
 2081 0083 03       		.uleb128 0x3
 2082 0084 0E       		.uleb128 0xe
 2083 0085 0B       		.uleb128 0xb
 2084 0086 0B       		.uleb128 0xb
 2085 0087 3A       		.uleb128 0x3a
 2086 0088 0B       		.uleb128 0xb
 2087 0089 3B       		.uleb128 0x3b
 2088 008a 05       		.uleb128 0x5
ARM GAS  /tmp/ccJrf82H.s 			page 38


 2089 008b 01       		.uleb128 0x1
 2090 008c 13       		.uleb128 0x13
 2091 008d 00       		.byte	0
 2092 008e 00       		.byte	0
 2093 008f 0C       		.uleb128 0xc
 2094 0090 15       		.uleb128 0x15
 2095 0091 01       		.byte	0x1
 2096 0092 27       		.uleb128 0x27
 2097 0093 19       		.uleb128 0x19
 2098 0094 01       		.uleb128 0x1
 2099 0095 13       		.uleb128 0x13
 2100 0096 00       		.byte	0
 2101 0097 00       		.byte	0
 2102 0098 0D       		.uleb128 0xd
 2103 0099 05       		.uleb128 0x5
 2104 009a 00       		.byte	0
 2105 009b 49       		.uleb128 0x49
 2106 009c 13       		.uleb128 0x13
 2107 009d 00       		.byte	0
 2108 009e 00       		.byte	0
 2109 009f 0E       		.uleb128 0xe
 2110 00a0 0F       		.uleb128 0xf
 2111 00a1 00       		.byte	0
 2112 00a2 0B       		.uleb128 0xb
 2113 00a3 0B       		.uleb128 0xb
 2114 00a4 00       		.byte	0
 2115 00a5 00       		.byte	0
 2116 00a6 0F       		.uleb128 0xf
 2117 00a7 13       		.uleb128 0x13
 2118 00a8 01       		.byte	0x1
 2119 00a9 03       		.uleb128 0x3
 2120 00aa 0E       		.uleb128 0xe
 2121 00ab 0B       		.uleb128 0xb
 2122 00ac 05       		.uleb128 0x5
 2123 00ad 3A       		.uleb128 0x3a
 2124 00ae 0B       		.uleb128 0xb
 2125 00af 3B       		.uleb128 0x3b
 2126 00b0 05       		.uleb128 0x5
 2127 00b1 01       		.uleb128 0x1
 2128 00b2 13       		.uleb128 0x13
 2129 00b3 00       		.byte	0
 2130 00b4 00       		.byte	0
 2131 00b5 10       		.uleb128 0x10
 2132 00b6 0D       		.uleb128 0xd
 2133 00b7 00       		.byte	0
 2134 00b8 03       		.uleb128 0x3
 2135 00b9 0E       		.uleb128 0xe
 2136 00ba 3A       		.uleb128 0x3a
 2137 00bb 0B       		.uleb128 0xb
 2138 00bc 3B       		.uleb128 0x3b
 2139 00bd 05       		.uleb128 0x5
 2140 00be 49       		.uleb128 0x49
 2141 00bf 13       		.uleb128 0x13
 2142 00c0 38       		.uleb128 0x38
 2143 00c1 05       		.uleb128 0x5
 2144 00c2 00       		.byte	0
 2145 00c3 00       		.byte	0
ARM GAS  /tmp/ccJrf82H.s 			page 39


 2146 00c4 11       		.uleb128 0x11
 2147 00c5 0D       		.uleb128 0xd
 2148 00c6 00       		.byte	0
 2149 00c7 03       		.uleb128 0x3
 2150 00c8 08       		.uleb128 0x8
 2151 00c9 3A       		.uleb128 0x3a
 2152 00ca 0B       		.uleb128 0xb
 2153 00cb 3B       		.uleb128 0x3b
 2154 00cc 05       		.uleb128 0x5
 2155 00cd 49       		.uleb128 0x49
 2156 00ce 13       		.uleb128 0x13
 2157 00cf 38       		.uleb128 0x38
 2158 00d0 05       		.uleb128 0x5
 2159 00d1 00       		.byte	0
 2160 00d2 00       		.byte	0
 2161 00d3 12       		.uleb128 0x12
 2162 00d4 0D       		.uleb128 0xd
 2163 00d5 00       		.byte	0
 2164 00d6 03       		.uleb128 0x3
 2165 00d7 08       		.uleb128 0x8
 2166 00d8 3A       		.uleb128 0x3a
 2167 00d9 0B       		.uleb128 0xb
 2168 00da 3B       		.uleb128 0x3b
 2169 00db 0B       		.uleb128 0xb
 2170 00dc 49       		.uleb128 0x49
 2171 00dd 13       		.uleb128 0x13
 2172 00de 38       		.uleb128 0x38
 2173 00df 0B       		.uleb128 0xb
 2174 00e0 00       		.byte	0
 2175 00e1 00       		.byte	0
 2176 00e2 13       		.uleb128 0x13
 2177 00e3 13       		.uleb128 0x13
 2178 00e4 01       		.byte	0x1
 2179 00e5 0B       		.uleb128 0xb
 2180 00e6 0B       		.uleb128 0xb
 2181 00e7 3A       		.uleb128 0x3a
 2182 00e8 0B       		.uleb128 0xb
 2183 00e9 3B       		.uleb128 0x3b
 2184 00ea 0B       		.uleb128 0xb
 2185 00eb 01       		.uleb128 0x1
 2186 00ec 13       		.uleb128 0x13
 2187 00ed 00       		.byte	0
 2188 00ee 00       		.byte	0
 2189 00ef 14       		.uleb128 0x14
 2190 00f0 13       		.uleb128 0x13
 2191 00f1 01       		.byte	0x1
 2192 00f2 0B       		.uleb128 0xb
 2193 00f3 05       		.uleb128 0x5
 2194 00f4 3A       		.uleb128 0x3a
 2195 00f5 0B       		.uleb128 0xb
 2196 00f6 3B       		.uleb128 0x3b
 2197 00f7 0B       		.uleb128 0xb
 2198 00f8 01       		.uleb128 0x1
 2199 00f9 13       		.uleb128 0x13
 2200 00fa 00       		.byte	0
 2201 00fb 00       		.byte	0
 2202 00fc 15       		.uleb128 0x15
ARM GAS  /tmp/ccJrf82H.s 			page 40


 2203 00fd 01       		.uleb128 0x1
 2204 00fe 01       		.byte	0x1
 2205 00ff 49       		.uleb128 0x49
 2206 0100 13       		.uleb128 0x13
 2207 0101 01       		.uleb128 0x1
 2208 0102 13       		.uleb128 0x13
 2209 0103 00       		.byte	0
 2210 0104 00       		.byte	0
 2211 0105 16       		.uleb128 0x16
 2212 0106 21       		.uleb128 0x21
 2213 0107 00       		.byte	0
 2214 0108 49       		.uleb128 0x49
 2215 0109 13       		.uleb128 0x13
 2216 010a 2F       		.uleb128 0x2f
 2217 010b 0B       		.uleb128 0xb
 2218 010c 00       		.byte	0
 2219 010d 00       		.byte	0
 2220 010e 17       		.uleb128 0x17
 2221 010f 17       		.uleb128 0x17
 2222 0110 01       		.byte	0x1
 2223 0111 0B       		.uleb128 0xb
 2224 0112 0B       		.uleb128 0xb
 2225 0113 3A       		.uleb128 0x3a
 2226 0114 0B       		.uleb128 0xb
 2227 0115 3B       		.uleb128 0x3b
 2228 0116 0B       		.uleb128 0xb
 2229 0117 01       		.uleb128 0x1
 2230 0118 13       		.uleb128 0x13
 2231 0119 00       		.byte	0
 2232 011a 00       		.byte	0
 2233 011b 18       		.uleb128 0x18
 2234 011c 0D       		.uleb128 0xd
 2235 011d 00       		.byte	0
 2236 011e 03       		.uleb128 0x3
 2237 011f 0E       		.uleb128 0xe
 2238 0120 3A       		.uleb128 0x3a
 2239 0121 0B       		.uleb128 0xb
 2240 0122 3B       		.uleb128 0x3b
 2241 0123 05       		.uleb128 0x5
 2242 0124 49       		.uleb128 0x49
 2243 0125 13       		.uleb128 0x13
 2244 0126 00       		.byte	0
 2245 0127 00       		.byte	0
 2246 0128 19       		.uleb128 0x19
 2247 0129 26       		.uleb128 0x26
 2248 012a 00       		.byte	0
 2249 012b 49       		.uleb128 0x49
 2250 012c 13       		.uleb128 0x13
 2251 012d 00       		.byte	0
 2252 012e 00       		.byte	0
 2253 012f 1A       		.uleb128 0x1a
 2254 0130 15       		.uleb128 0x15
 2255 0131 01       		.byte	0x1
 2256 0132 27       		.uleb128 0x27
 2257 0133 19       		.uleb128 0x19
 2258 0134 49       		.uleb128 0x49
 2259 0135 13       		.uleb128 0x13
ARM GAS  /tmp/ccJrf82H.s 			page 41


 2260 0136 01       		.uleb128 0x1
 2261 0137 13       		.uleb128 0x13
 2262 0138 00       		.byte	0
 2263 0139 00       		.byte	0
 2264 013a 1B       		.uleb128 0x1b
 2265 013b 2E       		.uleb128 0x2e
 2266 013c 01       		.byte	0x1
 2267 013d 03       		.uleb128 0x3
 2268 013e 0E       		.uleb128 0xe
 2269 013f 3A       		.uleb128 0x3a
 2270 0140 0B       		.uleb128 0xb
 2271 0141 3B       		.uleb128 0x3b
 2272 0142 05       		.uleb128 0x5
 2273 0143 27       		.uleb128 0x27
 2274 0144 19       		.uleb128 0x19
 2275 0145 20       		.uleb128 0x20
 2276 0146 0B       		.uleb128 0xb
 2277 0147 01       		.uleb128 0x1
 2278 0148 13       		.uleb128 0x13
 2279 0149 00       		.byte	0
 2280 014a 00       		.byte	0
 2281 014b 1C       		.uleb128 0x1c
 2282 014c 05       		.uleb128 0x5
 2283 014d 00       		.byte	0
 2284 014e 03       		.uleb128 0x3
 2285 014f 0E       		.uleb128 0xe
 2286 0150 3A       		.uleb128 0x3a
 2287 0151 0B       		.uleb128 0xb
 2288 0152 3B       		.uleb128 0x3b
 2289 0153 05       		.uleb128 0x5
 2290 0154 49       		.uleb128 0x49
 2291 0155 13       		.uleb128 0x13
 2292 0156 00       		.byte	0
 2293 0157 00       		.byte	0
 2294 0158 1D       		.uleb128 0x1d
 2295 0159 2E       		.uleb128 0x2e
 2296 015a 01       		.byte	0x1
 2297 015b 03       		.uleb128 0x3
 2298 015c 0E       		.uleb128 0xe
 2299 015d 3A       		.uleb128 0x3a
 2300 015e 0B       		.uleb128 0xb
 2301 015f 3B       		.uleb128 0x3b
 2302 0160 05       		.uleb128 0x5
 2303 0161 27       		.uleb128 0x27
 2304 0162 19       		.uleb128 0x19
 2305 0163 11       		.uleb128 0x11
 2306 0164 01       		.uleb128 0x1
 2307 0165 12       		.uleb128 0x12
 2308 0166 06       		.uleb128 0x6
 2309 0167 40       		.uleb128 0x40
 2310 0168 18       		.uleb128 0x18
 2311 0169 9742     		.uleb128 0x2117
 2312 016b 19       		.uleb128 0x19
 2313 016c 01       		.uleb128 0x1
 2314 016d 13       		.uleb128 0x13
 2315 016e 00       		.byte	0
 2316 016f 00       		.byte	0
ARM GAS  /tmp/ccJrf82H.s 			page 42


 2317 0170 1E       		.uleb128 0x1e
 2318 0171 1D       		.uleb128 0x1d
 2319 0172 01       		.byte	0x1
 2320 0173 31       		.uleb128 0x31
 2321 0174 13       		.uleb128 0x13
 2322 0175 11       		.uleb128 0x11
 2323 0176 01       		.uleb128 0x1
 2324 0177 12       		.uleb128 0x12
 2325 0178 06       		.uleb128 0x6
 2326 0179 58       		.uleb128 0x58
 2327 017a 0B       		.uleb128 0xb
 2328 017b 59       		.uleb128 0x59
 2329 017c 05       		.uleb128 0x5
 2330 017d 00       		.byte	0
 2331 017e 00       		.byte	0
 2332 017f 1F       		.uleb128 0x1f
 2333 0180 05       		.uleb128 0x5
 2334 0181 00       		.byte	0
 2335 0182 31       		.uleb128 0x31
 2336 0183 13       		.uleb128 0x13
 2337 0184 02       		.uleb128 0x2
 2338 0185 18       		.uleb128 0x18
 2339 0186 00       		.byte	0
 2340 0187 00       		.byte	0
 2341 0188 20       		.uleb128 0x20
 2342 0189 2E       		.uleb128 0x2e
 2343 018a 00       		.byte	0
 2344 018b 03       		.uleb128 0x3
 2345 018c 0E       		.uleb128 0xe
 2346 018d 3A       		.uleb128 0x3a
 2347 018e 0B       		.uleb128 0xb
 2348 018f 3B       		.uleb128 0x3b
 2349 0190 05       		.uleb128 0x5
 2350 0191 27       		.uleb128 0x27
 2351 0192 19       		.uleb128 0x19
 2352 0193 11       		.uleb128 0x11
 2353 0194 01       		.uleb128 0x1
 2354 0195 12       		.uleb128 0x12
 2355 0196 06       		.uleb128 0x6
 2356 0197 40       		.uleb128 0x40
 2357 0198 18       		.uleb128 0x18
 2358 0199 9642     		.uleb128 0x2116
 2359 019b 19       		.uleb128 0x19
 2360 019c 00       		.byte	0
 2361 019d 00       		.byte	0
 2362 019e 21       		.uleb128 0x21
 2363 019f 2E       		.uleb128 0x2e
 2364 01a0 01       		.byte	0x1
 2365 01a1 03       		.uleb128 0x3
 2366 01a2 0E       		.uleb128 0xe
 2367 01a3 3A       		.uleb128 0x3a
 2368 01a4 0B       		.uleb128 0xb
 2369 01a5 3B       		.uleb128 0x3b
 2370 01a6 05       		.uleb128 0x5
 2371 01a7 27       		.uleb128 0x27
 2372 01a8 19       		.uleb128 0x19
 2373 01a9 11       		.uleb128 0x11
ARM GAS  /tmp/ccJrf82H.s 			page 43


 2374 01aa 01       		.uleb128 0x1
 2375 01ab 12       		.uleb128 0x12
 2376 01ac 06       		.uleb128 0x6
 2377 01ad 40       		.uleb128 0x40
 2378 01ae 18       		.uleb128 0x18
 2379 01af 9642     		.uleb128 0x2116
 2380 01b1 19       		.uleb128 0x19
 2381 01b2 01       		.uleb128 0x1
 2382 01b3 13       		.uleb128 0x13
 2383 01b4 00       		.byte	0
 2384 01b5 00       		.byte	0
 2385 01b6 22       		.uleb128 0x22
 2386 01b7 34       		.uleb128 0x34
 2387 01b8 00       		.byte	0
 2388 01b9 03       		.uleb128 0x3
 2389 01ba 0E       		.uleb128 0xe
 2390 01bb 49       		.uleb128 0x49
 2391 01bc 13       		.uleb128 0x13
 2392 01bd 34       		.uleb128 0x34
 2393 01be 19       		.uleb128 0x19
 2394 01bf 02       		.uleb128 0x2
 2395 01c0 18       		.uleb128 0x18
 2396 01c1 00       		.byte	0
 2397 01c2 00       		.byte	0
 2398 01c3 23       		.uleb128 0x23
 2399 01c4 2E       		.uleb128 0x2e
 2400 01c5 01       		.byte	0x1
 2401 01c6 03       		.uleb128 0x3
 2402 01c7 0E       		.uleb128 0xe
 2403 01c8 3A       		.uleb128 0x3a
 2404 01c9 0B       		.uleb128 0xb
 2405 01ca 3B       		.uleb128 0x3b
 2406 01cb 0B       		.uleb128 0xb
 2407 01cc 27       		.uleb128 0x27
 2408 01cd 19       		.uleb128 0x19
 2409 01ce 11       		.uleb128 0x11
 2410 01cf 01       		.uleb128 0x1
 2411 01d0 12       		.uleb128 0x12
 2412 01d1 06       		.uleb128 0x6
 2413 01d2 40       		.uleb128 0x40
 2414 01d3 18       		.uleb128 0x18
 2415 01d4 9642     		.uleb128 0x2116
 2416 01d6 19       		.uleb128 0x19
 2417 01d7 01       		.uleb128 0x1
 2418 01d8 13       		.uleb128 0x13
 2419 01d9 00       		.byte	0
 2420 01da 00       		.byte	0
 2421 01db 24       		.uleb128 0x24
 2422 01dc 05       		.uleb128 0x5
 2423 01dd 00       		.byte	0
 2424 01de 03       		.uleb128 0x3
 2425 01df 08       		.uleb128 0x8
 2426 01e0 3A       		.uleb128 0x3a
 2427 01e1 0B       		.uleb128 0xb
 2428 01e2 3B       		.uleb128 0x3b
 2429 01e3 0B       		.uleb128 0xb
 2430 01e4 49       		.uleb128 0x49
ARM GAS  /tmp/ccJrf82H.s 			page 44


 2431 01e5 13       		.uleb128 0x13
 2432 01e6 02       		.uleb128 0x2
 2433 01e7 18       		.uleb128 0x18
 2434 01e8 00       		.byte	0
 2435 01e9 00       		.byte	0
 2436 01ea 25       		.uleb128 0x25
 2437 01eb 05       		.uleb128 0x5
 2438 01ec 00       		.byte	0
 2439 01ed 03       		.uleb128 0x3
 2440 01ee 0E       		.uleb128 0xe
 2441 01ef 3A       		.uleb128 0x3a
 2442 01f0 0B       		.uleb128 0xb
 2443 01f1 3B       		.uleb128 0x3b
 2444 01f2 0B       		.uleb128 0xb
 2445 01f3 49       		.uleb128 0x49
 2446 01f4 13       		.uleb128 0x13
 2447 01f5 02       		.uleb128 0x2
 2448 01f6 18       		.uleb128 0x18
 2449 01f7 00       		.byte	0
 2450 01f8 00       		.byte	0
 2451 01f9 26       		.uleb128 0x26
 2452 01fa 2E       		.uleb128 0x2e
 2453 01fb 01       		.byte	0x1
 2454 01fc 3F       		.uleb128 0x3f
 2455 01fd 19       		.uleb128 0x19
 2456 01fe 03       		.uleb128 0x3
 2457 01ff 0E       		.uleb128 0xe
 2458 0200 3A       		.uleb128 0x3a
 2459 0201 0B       		.uleb128 0xb
 2460 0202 3B       		.uleb128 0x3b
 2461 0203 0B       		.uleb128 0xb
 2462 0204 27       		.uleb128 0x27
 2463 0205 19       		.uleb128 0x19
 2464 0206 11       		.uleb128 0x11
 2465 0207 01       		.uleb128 0x1
 2466 0208 12       		.uleb128 0x12
 2467 0209 06       		.uleb128 0x6
 2468 020a 40       		.uleb128 0x40
 2469 020b 18       		.uleb128 0x18
 2470 020c 9642     		.uleb128 0x2116
 2471 020e 19       		.uleb128 0x19
 2472 020f 01       		.uleb128 0x1
 2473 0210 13       		.uleb128 0x13
 2474 0211 00       		.byte	0
 2475 0212 00       		.byte	0
 2476 0213 27       		.uleb128 0x27
 2477 0214 2E       		.uleb128 0x2e
 2478 0215 01       		.byte	0x1
 2479 0216 3F       		.uleb128 0x3f
 2480 0217 19       		.uleb128 0x19
 2481 0218 03       		.uleb128 0x3
 2482 0219 0E       		.uleb128 0xe
 2483 021a 3A       		.uleb128 0x3a
 2484 021b 0B       		.uleb128 0xb
 2485 021c 3B       		.uleb128 0x3b
 2486 021d 0B       		.uleb128 0xb
 2487 021e 27       		.uleb128 0x27
ARM GAS  /tmp/ccJrf82H.s 			page 45


 2488 021f 19       		.uleb128 0x19
 2489 0220 49       		.uleb128 0x49
 2490 0221 13       		.uleb128 0x13
 2491 0222 11       		.uleb128 0x11
 2492 0223 01       		.uleb128 0x1
 2493 0224 12       		.uleb128 0x12
 2494 0225 06       		.uleb128 0x6
 2495 0226 40       		.uleb128 0x40
 2496 0227 18       		.uleb128 0x18
 2497 0228 9642     		.uleb128 0x2116
 2498 022a 19       		.uleb128 0x19
 2499 022b 01       		.uleb128 0x1
 2500 022c 13       		.uleb128 0x13
 2501 022d 00       		.byte	0
 2502 022e 00       		.byte	0
 2503 022f 28       		.uleb128 0x28
 2504 0230 34       		.uleb128 0x34
 2505 0231 00       		.byte	0
 2506 0232 03       		.uleb128 0x3
 2507 0233 0E       		.uleb128 0xe
 2508 0234 3A       		.uleb128 0x3a
 2509 0235 0B       		.uleb128 0xb
 2510 0236 3B       		.uleb128 0x3b
 2511 0237 0B       		.uleb128 0xb
 2512 0238 49       		.uleb128 0x49
 2513 0239 13       		.uleb128 0x13
 2514 023a 02       		.uleb128 0x2
 2515 023b 18       		.uleb128 0x18
 2516 023c 00       		.byte	0
 2517 023d 00       		.byte	0
 2518 023e 29       		.uleb128 0x29
 2519 023f 34       		.uleb128 0x34
 2520 0240 00       		.byte	0
 2521 0241 03       		.uleb128 0x3
 2522 0242 08       		.uleb128 0x8
 2523 0243 3A       		.uleb128 0x3a
 2524 0244 0B       		.uleb128 0xb
 2525 0245 3B       		.uleb128 0x3b
 2526 0246 0B       		.uleb128 0xb
 2527 0247 49       		.uleb128 0x49
 2528 0248 13       		.uleb128 0x13
 2529 0249 02       		.uleb128 0x2
 2530 024a 18       		.uleb128 0x18
 2531 024b 00       		.byte	0
 2532 024c 00       		.byte	0
 2533 024d 2A       		.uleb128 0x2a
 2534 024e 34       		.uleb128 0x34
 2535 024f 00       		.byte	0
 2536 0250 03       		.uleb128 0x3
 2537 0251 0E       		.uleb128 0xe
 2538 0252 3A       		.uleb128 0x3a
 2539 0253 0B       		.uleb128 0xb
 2540 0254 3B       		.uleb128 0x3b
 2541 0255 05       		.uleb128 0x5
 2542 0256 49       		.uleb128 0x49
 2543 0257 13       		.uleb128 0x13
 2544 0258 3F       		.uleb128 0x3f
ARM GAS  /tmp/ccJrf82H.s 			page 46


 2545 0259 19       		.uleb128 0x19
 2546 025a 3C       		.uleb128 0x3c
 2547 025b 19       		.uleb128 0x19
 2548 025c 00       		.byte	0
 2549 025d 00       		.byte	0
 2550 025e 2B       		.uleb128 0x2b
 2551 025f 34       		.uleb128 0x34
 2552 0260 00       		.byte	0
 2553 0261 03       		.uleb128 0x3
 2554 0262 08       		.uleb128 0x8
 2555 0263 3A       		.uleb128 0x3a
 2556 0264 0B       		.uleb128 0xb
 2557 0265 3B       		.uleb128 0x3b
 2558 0266 05       		.uleb128 0x5
 2559 0267 49       		.uleb128 0x49
 2560 0268 13       		.uleb128 0x13
 2561 0269 3F       		.uleb128 0x3f
 2562 026a 19       		.uleb128 0x19
 2563 026b 3C       		.uleb128 0x3c
 2564 026c 19       		.uleb128 0x19
 2565 026d 00       		.byte	0
 2566 026e 00       		.byte	0
 2567 026f 00       		.byte	0
 2568              		.section	.debug_aranges,"",%progbits
 2569 0000 6C000000 		.4byte	0x6c
 2570 0004 0200     		.2byte	0x2
 2571 0006 00000000 		.4byte	.Ldebug_info0
 2572 000a 04       		.byte	0x4
 2573 000b 00       		.byte	0
 2574 000c 0000     		.2byte	0
 2575 000e 0000     		.2byte	0
 2576 0010 00000000 		.4byte	.LFB127
 2577 0014 10000000 		.4byte	.LFE127-.LFB127
 2578 0018 00000000 		.4byte	.LFB128
 2579 001c 10000000 		.4byte	.LFE128-.LFB128
 2580 0020 00000000 		.4byte	.LFB167
 2581 0024 10000000 		.4byte	.LFE167-.LFB167
 2582 0028 00000000 		.4byte	.LFB168
 2583 002c 38000000 		.4byte	.LFE168-.LFB168
 2584 0030 00000000 		.4byte	.LFB228
 2585 0034 16000000 		.4byte	.LFE228-.LFB228
 2586 0038 00000000 		.4byte	.LFB240
 2587 003c 38000000 		.4byte	.LFE240-.LFB240
 2588 0040 00000000 		.4byte	.LFB241
 2589 0044 48000000 		.4byte	.LFE241-.LFB241
 2590 0048 00000000 		.4byte	.LFB242
 2591 004c 54000000 		.4byte	.LFE242-.LFB242
 2592 0050 00000000 		.4byte	.LFB243
 2593 0054 20000000 		.4byte	.LFE243-.LFB243
 2594 0058 00000000 		.4byte	.LFB244
 2595 005c 3C000000 		.4byte	.LFE244-.LFB244
 2596 0060 00000000 		.4byte	.LFB245
 2597 0064 1E000000 		.4byte	.LFE245-.LFB245
 2598 0068 00000000 		.4byte	0
 2599 006c 00000000 		.4byte	0
 2600              		.section	.debug_ranges,"",%progbits
 2601              	.Ldebug_ranges0:
ARM GAS  /tmp/ccJrf82H.s 			page 47


 2602 0000 00000000 		.4byte	.LFB127
 2603 0004 10000000 		.4byte	.LFE127
 2604 0008 00000000 		.4byte	.LFB128
 2605 000c 10000000 		.4byte	.LFE128
 2606 0010 00000000 		.4byte	.LFB167
 2607 0014 10000000 		.4byte	.LFE167
 2608 0018 00000000 		.4byte	.LFB168
 2609 001c 38000000 		.4byte	.LFE168
 2610 0020 00000000 		.4byte	.LFB228
 2611 0024 16000000 		.4byte	.LFE228
 2612 0028 00000000 		.4byte	.LFB240
 2613 002c 38000000 		.4byte	.LFE240
 2614 0030 00000000 		.4byte	.LFB241
 2615 0034 48000000 		.4byte	.LFE241
 2616 0038 00000000 		.4byte	.LFB242
 2617 003c 54000000 		.4byte	.LFE242
 2618 0040 00000000 		.4byte	.LFB243
 2619 0044 20000000 		.4byte	.LFE243
 2620 0048 00000000 		.4byte	.LFB244
 2621 004c 3C000000 		.4byte	.LFE244
 2622 0050 00000000 		.4byte	.LFB245
 2623 0054 1E000000 		.4byte	.LFE245
 2624 0058 00000000 		.4byte	0
 2625 005c 00000000 		.4byte	0
 2626              		.section	.debug_line,"",%progbits
 2627              	.Ldebug_line0:
 2628 0000 75030000 		.section	.debug_str,"MS",%progbits,1
 2628      02002902 
 2628      00000201 
 2628      FB0E0D00 
 2628      01010101 
 2629              	.LASF98:
 2630 0000 74625F70 		.ascii	"tb_ptr\000"
 2630      747200
 2631              	.LASF55:
 2632 0007 72656164 		.ascii	"ready_list_t\000"
 2632      795F6C69 
 2632      73745F74 
 2632      00
 2633              	.LASF92:
 2634 0014 73655F74 		.ascii	"se_time\000"
 2634      696D6500 
 2635              	.LASF2:
 2636 001c 73697A65 		.ascii	"size_t\000"
 2636      5F7400
 2637              	.LASF113:
 2638 0023 7264796D 		.ascii	"rdymsg\000"
 2638      736700
 2639              	.LASF17:
 2640 002a 75696E74 		.ascii	"uint64_t\000"
 2640      36345F74 
 2640      00
 2641              	.LASF85:
 2642 0033 6B65726E 		.ascii	"kernel_stats\000"
 2642      656C5F73 
 2642      74617473 
 2642      00
ARM GAS  /tmp/ccJrf82H.s 			page 48


 2643              	.LASF3:
 2644 0040 5F5F7569 		.ascii	"__uint8_t\000"
 2644      6E74385F 
 2644      7400
 2645              	.LASF91:
 2646 004a 706F7274 		.ascii	"port_intctx\000"
 2646      5F696E74 
 2646      63747800 
 2647              	.LASF54:
 2648 0056 63685F74 		.ascii	"ch_threads_queue\000"
 2648      68726561 
 2648      64735F71 
 2648      75657565 
 2648      00
 2649              	.LASF74:
 2650 0067 73797374 		.ascii	"system_debug_t\000"
 2650      656D5F64 
 2650      65627567 
 2650      5F7400
 2651              	.LASF142:
 2652 0076 70726F76 		.ascii	"provider\000"
 2652      69646572 
 2652      00
 2653              	.LASF136:
 2654 007f 706F7274 		.ascii	"port_lock\000"
 2654      5F6C6F63 
 2654      6B00
 2655              	.LASF104:
 2656 0089 776F7273 		.ascii	"worst\000"
 2656      7400
 2657              	.LASF107:
 2658 008f 74696D65 		.ascii	"time_measurement_t\000"
 2658      5F6D6561 
 2658      73757265 
 2658      6D656E74 
 2658      5F7400
 2659              	.LASF13:
 2660 00a2 6C6F6E67 		.ascii	"long long unsigned int\000"
 2660      206C6F6E 
 2660      6720756E 
 2660      7369676E 
 2660      65642069 
 2661              	.LASF100:
 2662 00b9 63685F74 		.ascii	"ch_trace_buffer_t\000"
 2662      72616365 
 2662      5F627566 
 2662      6665725F 
 2662      7400
 2663              	.LASF95:
 2664 00cb 73655F73 		.ascii	"se_state\000"
 2664      74617465 
 2664      00
 2665              	.LASF114:
 2666 00d4 65786974 		.ascii	"exitcode\000"
 2666      636F6465 
 2666      00
 2667              	.LASF84:
ARM GAS  /tmp/ccJrf82H.s 			page 49


 2668 00dd 6D61696E 		.ascii	"mainthread\000"
 2668      74687265 
 2668      616400
 2669              	.LASF71:
 2670 00e8 76697274 		.ascii	"virtual_timers_list_t\000"
 2670      75616C5F 
 2670      74696D65 
 2670      72735F6C 
 2670      6973745F 
 2671              	.LASF150:
 2672 00fe 49544D5F 		.ascii	"ITM_RxBuffer\000"
 2672      52784275 
 2672      66666572 
 2672      00
 2673              	.LASF19:
 2674 010b 72747469 		.ascii	"rttime_t\000"
 2674      6D655F74 
 2674      00
 2675              	.LASF32:
 2676 0114 705F7072 		.ascii	"p_prio\000"
 2676      696F00
 2677              	.LASF11:
 2678 011b 6C6F6E67 		.ascii	"long long int\000"
 2678      206C6F6E 
 2678      6720696E 
 2678      7400
 2679              	.LASF1:
 2680 0129 7369676E 		.ascii	"signed char\000"
 2680      65642063 
 2680      68617200 
 2681              	.LASF47:
 2682 0135 705F6D70 		.ascii	"p_mpool\000"
 2682      6F6F6C00 
 2683              	.LASF124:
 2684 013d 6D5F7175 		.ascii	"m_queue\000"
 2684      65756500 
 2685              	.LASF83:
 2686 0145 76746C69 		.ascii	"vtlist\000"
 2686      737400
 2687              	.LASF137:
 2688 014c 706F7274 		.ascii	"port_unlock\000"
 2688      5F756E6C 
 2688      6F636B00 
 2689              	.LASF116:
 2690 0158 77747472 		.ascii	"wttrp\000"
 2690      7000
 2691              	.LASF81:
 2692 015e 63685F73 		.ascii	"ch_system\000"
 2692      79737465 
 2692      6D00
 2693              	.LASF8:
 2694 0168 6C6F6E67 		.ascii	"long int\000"
 2694      20696E74 
 2694      00
 2695              	.LASF21:
 2696 0171 74737461 		.ascii	"tstate_t\000"
 2696      74655F74 
ARM GAS  /tmp/ccJrf82H.s 			page 50


 2696      00
 2697              	.LASF93:
 2698 017a 73655F74 		.ascii	"se_tp\000"
 2698      7000
 2699              	.LASF151:
 2700 0180 474E5520 		.ascii	"GNU C 4.8.4 20141219 (release) -mcpu=cortex-m4 -mno"
 2700      4320342E 
 2700      382E3420 
 2700      32303134 
 2700      31323139 
 2701 01b3 2D746875 		.ascii	"-thumb-interwork -mthumb -ggdb -O0 -fomit-frame-poi"
 2701      6D622D69 
 2701      6E746572 
 2701      776F726B 
 2701      202D6D74 
 2702 01e6 6E746572 		.ascii	"nter -falign-functions=16 -ffunction-sections -fdat"
 2702      202D6661 
 2702      6C69676E 
 2702      2D66756E 
 2702      6374696F 
 2703 0219 612D7365 		.ascii	"a-sections -fno-common\000"
 2703      6374696F 
 2703      6E73202D 
 2703      666E6F2D 
 2703      636F6D6D 
 2704              	.LASF34:
 2705 0230 705F6E65 		.ascii	"p_newer\000"
 2705      77657200 
 2706              	.LASF121:
 2707 0238 735F7175 		.ascii	"s_queue\000"
 2707      65756500 
 2708              	.LASF97:
 2709 0240 74625F73 		.ascii	"tb_size\000"
 2709      697A6500 
 2710              	.LASF60:
 2711 0248 725F6E65 		.ascii	"r_newer\000"
 2711      77657200 
 2712              	.LASF134:
 2713 0250 6D705F70 		.ascii	"mp_provider\000"
 2713      726F7669 
 2713      64657200 
 2714              	.LASF88:
 2715 025c 72656761 		.ascii	"regarm_t\000"
 2715      726D5F74 
 2715      00
 2716              	.LASF67:
 2717 0265 76745F70 		.ascii	"vt_prev\000"
 2717      72657600 
 2718              	.LASF75:
 2719 026d 63685F73 		.ascii	"ch_system_debug\000"
 2719      79737465 
 2719      6D5F6465 
 2719      62756700 
 2720              	.LASF128:
 2721 027d 6D757465 		.ascii	"mutex_t\000"
 2721      785F7400 
 2722              	.LASF154:
ARM GAS  /tmp/ccJrf82H.s 			page 51


 2723 0285 76616C75 		.ascii	"value\000"
 2723      6500
 2724              	.LASF78:
 2725 028b 6C6F636B 		.ascii	"lock_cnt\000"
 2725      5F636E74 
 2725      00
 2726              	.LASF86:
 2727 0294 69646C65 		.ascii	"idle_thread_wa\000"
 2727      5F746872 
 2727      6561645F 
 2727      776100
 2728              	.LASF26:
 2729 02a3 636E745F 		.ascii	"cnt_t\000"
 2729      7400
 2730              	.LASF37:
 2731 02a9 705F7374 		.ascii	"p_stklimit\000"
 2731      6B6C696D 
 2731      697400
 2732              	.LASF0:
 2733 02b4 756E7369 		.ascii	"unsigned int\000"
 2733      676E6564 
 2733      20696E74 
 2733      00
 2734              	.LASF66:
 2735 02c1 76745F6E 		.ascii	"vt_next\000"
 2735      65787400 
 2736              	.LASF117:
 2737 02c9 77747365 		.ascii	"wtsemp\000"
 2737      6D7000
 2738              	.LASF42:
 2739 02d0 705F6D73 		.ascii	"p_msgqueue\000"
 2739      67717565 
 2739      756500
 2740              	.LASF135:
 2741 02db 6D656D6F 		.ascii	"memory_pool_t\000"
 2741      72795F70 
 2741      6F6F6C5F 
 2741      7400
 2742              	.LASF108:
 2743 02e9 6E5F6972 		.ascii	"n_irq\000"
 2743      7100
 2744              	.LASF122:
 2745 02ef 735F636E 		.ascii	"s_cnt\000"
 2745      7400
 2746              	.LASF6:
 2747 02f5 73686F72 		.ascii	"short unsigned int\000"
 2747      7420756E 
 2747      7369676E 
 2747      65642069 
 2747      6E7400
 2748              	.LASF112:
 2749 0308 6B65726E 		.ascii	"kernel_stats_t\000"
 2749      656C5F73 
 2749      74617473 
 2749      5F7400
 2750              	.LASF51:
 2751 0317 63685F74 		.ascii	"ch_thread\000"
ARM GAS  /tmp/ccJrf82H.s 			page 52


 2751      68726561 
 2751      6400
 2752              	.LASF24:
 2753 0321 6D73675F 		.ascii	"msg_t\000"
 2753      7400
 2754              	.LASF105:
 2755 0327 6C617374 		.ascii	"last\000"
 2755      00
 2756              	.LASF27:
 2757 032c 75636E74 		.ascii	"ucnt_t\000"
 2757      5F7400
 2758              	.LASF80:
 2759 0333 63685F73 		.ascii	"ch_system_t\000"
 2759      79737465 
 2759      6D5F7400 
 2760              	.LASF139:
 2761 033f 6368506F 		.ascii	"chPoolAdd\000"
 2761      6F6C4164 
 2761      6400
 2762              	.LASF20:
 2763 0349 746D6F64 		.ascii	"tmode_t\000"
 2763      655F7400 
 2764              	.LASF144:
 2765 0351 6368506F 		.ascii	"chPoolObjectInit\000"
 2765      6F6C4F62 
 2765      6A656374 
 2765      496E6974 
 2765      00
 2766              	.LASF111:
 2767 0362 6D5F6372 		.ascii	"m_crit_isr\000"
 2767      69745F69 
 2767      737200
 2768              	.LASF56:
 2769 036d 63685F72 		.ascii	"ch_ready_list\000"
 2769      65616479 
 2769      5F6C6973 
 2769      7400
 2770              	.LASF25:
 2771 037b 6576656E 		.ascii	"eventmask_t\000"
 2771      746D6173 
 2771      6B5F7400 
 2772              	.LASF7:
 2773 0387 5F5F696E 		.ascii	"__int32_t\000"
 2773      7433325F 
 2773      7400
 2774              	.LASF89:
 2775 0391 73746B61 		.ascii	"stkalign_t\000"
 2775      6C69676E 
 2775      5F7400
 2776              	.LASF41:
 2777 039c 705F7761 		.ascii	"p_waiting\000"
 2777      6974696E 
 2777      6700
 2778              	.LASF87:
 2779 03a6 73697A65 		.ascii	"sizetype\000"
 2779      74797065 
 2779      00
ARM GAS  /tmp/ccJrf82H.s 			page 53


 2780              	.LASF49:
 2781 03af 74687265 		.ascii	"thread_reference_t\000"
 2781      61645F72 
 2781      65666572 
 2781      656E6365 
 2781      5F7400
 2782              	.LASF72:
 2783 03c2 63685F76 		.ascii	"ch_virtual_timers_list\000"
 2783      69727475 
 2783      616C5F74 
 2783      696D6572 
 2783      735F6C69 
 2784              	.LASF146:
 2785 03d9 6368506F 		.ascii	"chPoolAllocI\000"
 2785      6F6C416C 
 2785      6C6F6349 
 2785      00
 2786              	.LASF96:
 2787 03e6 63685F73 		.ascii	"ch_swc_event_t\000"
 2787      77635F65 
 2787      76656E74 
 2787      5F7400
 2788              	.LASF73:
 2789 03f5 76745F6C 		.ascii	"vt_lasttime\000"
 2789      61737474 
 2789      696D6500 
 2790              	.LASF35:
 2791 0401 705F6F6C 		.ascii	"p_older\000"
 2791      64657200 
 2792              	.LASF59:
 2793 0409 725F6374 		.ascii	"r_ctx\000"
 2793      7800
 2794              	.LASF133:
 2795 040f 6D705F6F 		.ascii	"mp_object_size\000"
 2795      626A6563 
 2795      745F7369 
 2795      7A6500
 2796              	.LASF102:
 2797 041e 746D5F63 		.ascii	"tm_calibration_t\000"
 2797      616C6962 
 2797      72617469 
 2797      6F6E5F74 
 2797      00
 2798              	.LASF62:
 2799 042f 725F6375 		.ascii	"r_current\000"
 2799      7272656E 
 2799      7400
 2800              	.LASF61:
 2801 0439 725F6F6C 		.ascii	"r_older\000"
 2801      64657200 
 2802              	.LASF12:
 2803 0441 5F5F7569 		.ascii	"__uint64_t\000"
 2803      6E743634 
 2803      5F7400
 2804              	.LASF106:
 2805 044c 63756D75 		.ascii	"cumulative\000"
 2805      6C617469 
ARM GAS  /tmp/ccJrf82H.s 			page 54


 2805      766500
 2806              	.LASF22:
 2807 0457 74726566 		.ascii	"trefs_t\000"
 2807      735F7400 
 2808              	.LASF99:
 2809 045f 74625F62 		.ascii	"tb_buffer\000"
 2809      75666665 
 2809      7200
 2810              	.LASF64:
 2811 0469 76697274 		.ascii	"virtual_timer_t\000"
 2811      75616C5F 
 2811      74696D65 
 2811      725F7400 
 2812              	.LASF31:
 2813 0479 705F7072 		.ascii	"p_prev\000"
 2813      657600
 2814              	.LASF23:
 2815 0480 74707269 		.ascii	"tprio_t\000"
 2815      6F5F7400 
 2816              	.LASF109:
 2817 0488 6E5F6374 		.ascii	"n_ctxswc\000"
 2817      78737763 
 2817      00
 2818              	.LASF15:
 2819 0491 696E7433 		.ascii	"int32_t\000"
 2819      325F7400 
 2820              	.LASF4:
 2821 0499 756E7369 		.ascii	"unsigned char\000"
 2821      676E6564 
 2821      20636861 
 2821      7200
 2822              	.LASF45:
 2823 04a7 705F6D74 		.ascii	"p_mtxlist\000"
 2823      786C6973 
 2823      7400
 2824              	.LASF5:
 2825 04b1 73686F72 		.ascii	"short int\000"
 2825      7420696E 
 2825      7400
 2826              	.LASF38:
 2827 04bb 705F7374 		.ascii	"p_state\000"
 2827      61746500 
 2828              	.LASF58:
 2829 04c3 725F7072 		.ascii	"r_prio\000"
 2829      696F00
 2830              	.LASF119:
 2831 04ca 65776D61 		.ascii	"ewmask\000"
 2831      736B00
 2832              	.LASF30:
 2833 04d1 705F6E65 		.ascii	"p_next\000"
 2833      787400
 2834              	.LASF143:
 2835 04d8 5F5F6675 		.ascii	"__func__\000"
 2835      6E635F5F 
 2835      00
 2836              	.LASF48:
 2837 04e1 705F7374 		.ascii	"p_stats\000"
ARM GAS  /tmp/ccJrf82H.s 			page 55


 2837      61747300 
 2838              	.LASF155:
 2839 04e9 63685379 		.ascii	"chSysLock\000"
 2839      734C6F63 
 2839      6B00
 2840              	.LASF140:
 2841 04f3 6F626A70 		.ascii	"objp\000"
 2841      00
 2842              	.LASF65:
 2843 04f8 63685F76 		.ascii	"ch_virtual_timer\000"
 2843      69727475 
 2843      616C5F74 
 2843      696D6572 
 2843      00
 2844              	.LASF120:
 2845 0509 63685F73 		.ascii	"ch_semaphore\000"
 2845      656D6170 
 2845      686F7265 
 2845      00
 2846              	.LASF44:
 2847 0516 705F6570 		.ascii	"p_epending\000"
 2847      656E6469 
 2847      6E6700
 2848              	.LASF16:
 2849 0521 75696E74 		.ascii	"uint32_t\000"
 2849      33325F74 
 2849      00
 2850              	.LASF118:
 2851 052a 77746D74 		.ascii	"wtmtxp\000"
 2851      787000
 2852              	.LASF57:
 2853 0531 725F7175 		.ascii	"r_queue\000"
 2853      65756500 
 2854              	.LASF68:
 2855 0539 76745F64 		.ascii	"vt_delta\000"
 2855      656C7461 
 2855      00
 2856              	.LASF52:
 2857 0542 63685F74 		.ascii	"ch_threads_list\000"
 2857      68726561 
 2857      64735F6C 
 2857      69737400 
 2858              	.LASF10:
 2859 0552 6C6F6E67 		.ascii	"long unsigned int\000"
 2859      20756E73 
 2859      69676E65 
 2859      6420696E 
 2859      7400
 2860              	.LASF127:
 2861 0564 63686172 		.ascii	"char\000"
 2861      00
 2862              	.LASF148:
 2863 0569 6368506F 		.ascii	"chPoolFreeI\000"
 2863      6F6C4672 
 2863      65654900 
 2864              	.LASF29:
 2865 0575 74687265 		.ascii	"thread_t\000"
ARM GAS  /tmp/ccJrf82H.s 			page 56


 2865      61645F74 
 2865      00
 2866              	.LASF103:
 2867 057e 62657374 		.ascii	"best\000"
 2867      00
 2868              	.LASF126:
 2869 0583 6D5F6E65 		.ascii	"m_next\000"
 2869      787400
 2870              	.LASF28:
 2871 058a 73797374 		.ascii	"systime_t\000"
 2871      696D655F 
 2871      7400
 2872              	.LASF46:
 2873 0594 705F7265 		.ascii	"p_realprio\000"
 2873      616C7072 
 2873      696F00
 2874              	.LASF63:
 2875 059f 76746675 		.ascii	"vtfunc_t\000"
 2875      6E635F74 
 2875      00
 2876              	.LASF9:
 2877 05a8 5F5F7569 		.ascii	"__uint32_t\000"
 2877      6E743332 
 2877      5F7400
 2878              	.LASF153:
 2879 05b3 5F5F7365 		.ascii	"__set_BASEPRI\000"
 2879      745F4241 
 2879      53455052 
 2879      4900
 2880              	.LASF76:
 2881 05c1 70616E69 		.ascii	"panic_msg\000"
 2881      635F6D73 
 2881      6700
 2882              	.LASF101:
 2883 05cb 6F666673 		.ascii	"offset\000"
 2883      657400
 2884              	.LASF123:
 2885 05d2 63685F6D 		.ascii	"ch_mutex\000"
 2885      75746578 
 2885      00
 2886              	.LASF132:
 2887 05db 6D705F6E 		.ascii	"mp_next\000"
 2887      65787400 
 2888              	.LASF90:
 2889 05e3 636F6E74 		.ascii	"context\000"
 2889      65787400 
 2890              	.LASF43:
 2891 05eb 705F6D73 		.ascii	"p_msg\000"
 2891      6700
 2892              	.LASF18:
 2893 05f1 7274636E 		.ascii	"rtcnt_t\000"
 2893      745F7400 
 2894              	.LASF129:
 2895 05f9 6D656D67 		.ascii	"memgetfunc_t\000"
 2895      65746675 
 2895      6E635F74 
 2895      00
ARM GAS  /tmp/ccJrf82H.s 			page 57


 2896              	.LASF70:
 2897 0606 76745F70 		.ascii	"vt_par\000"
 2897      617200
 2898              	.LASF53:
 2899 060d 74687265 		.ascii	"threads_queue_t\000"
 2899      6164735F 
 2899      71756575 
 2899      655F7400 
 2900              	.LASF130:
 2901 061d 706F6F6C 		.ascii	"pool_header\000"
 2901      5F686561 
 2901      64657200 
 2902              	.LASF40:
 2903 0629 705F7265 		.ascii	"p_refs\000"
 2903      667300
 2904              	.LASF77:
 2905 0630 6973725F 		.ascii	"isr_cnt\000"
 2905      636E7400 
 2906              	.LASF82:
 2907 0638 726C6973 		.ascii	"rlist\000"
 2907      7400
 2908              	.LASF14:
 2909 063e 75696E74 		.ascii	"uint8_t\000"
 2909      385F7400 
 2910              	.LASF147:
 2911 0646 6368506F 		.ascii	"chPoolAlloc\000"
 2911      6F6C416C 
 2911      6C6F6300 
 2912              	.LASF149:
 2913 0652 6368506F 		.ascii	"chPoolFree\000"
 2913      6F6C4672 
 2913      656500
 2914              	.LASF115:
 2915 065d 77746F62 		.ascii	"wtobjp\000"
 2915      6A7000
 2916              	.LASF131:
 2917 0664 70685F6E 		.ascii	"ph_next\000"
 2917      65787400 
 2918              	.LASF36:
 2919 066c 705F6E61 		.ascii	"p_name\000"
 2919      6D6500
 2920              	.LASF141:
 2921 0673 73697A65 		.ascii	"size\000"
 2921      00
 2922              	.LASF50:
 2923 0678 74687265 		.ascii	"threads_list_t\000"
 2923      6164735F 
 2923      6C697374 
 2923      5F7400
 2924              	.LASF79:
 2925 0687 74726163 		.ascii	"trace_buffer\000"
 2925      655F6275 
 2925      66666572 
 2925      00
 2926              	.LASF39:
 2927 0694 705F666C 		.ascii	"p_flags\000"
 2927      61677300 
ARM GAS  /tmp/ccJrf82H.s 			page 58


 2928              	.LASF138:
 2929 069c 63685379 		.ascii	"chSysUnlock\000"
 2929      73556E6C 
 2929      6F636B00 
 2930              	.LASF145:
 2931 06a8 6368506F 		.ascii	"chPoolLoadArray\000"
 2931      6F6C4C6F 
 2931      61644172 
 2931      72617900 
 2932              	.LASF110:
 2933 06b8 6D5F6372 		.ascii	"m_crit_thd\000"
 2933      69745F74 
 2933      686400
 2934              	.LASF125:
 2935 06c3 6D5F6F77 		.ascii	"m_owner\000"
 2935      6E657200 
 2936              	.LASF152:
 2937 06cb 2F686F6D 		.ascii	"/home/efe/ChibiOS/os/rt/src/chmempools.c\000"
 2937      652F6566 
 2937      652F4368 
 2937      6962694F 
 2937      532F6F73 
 2938              	.LASF94:
 2939 06f4 73655F77 		.ascii	"se_wtobjp\000"
 2939      746F626A 
 2939      7000
 2940              	.LASF33:
 2941 06fe 705F6374 		.ascii	"p_ctx\000"
 2941      7800
 2942              	.LASF69:
 2943 0704 76745F66 		.ascii	"vt_func\000"
 2943      756E6300 
 2944              		.ident	"GCC: (4.8.4-1+11-1) 4.8.4 20141219 (release)"
ARM GAS  /tmp/ccJrf82H.s 			page 59


DEFINED SYMBOLS
                            *ABS*:0000000000000000 chmempools.c
     /tmp/ccJrf82H.s:19     .text.port_lock:0000000000000000 $t
     /tmp/ccJrf82H.s:24     .text.port_lock:0000000000000000 port_lock
     /tmp/ccJrf82H.s:55     .text.port_unlock:0000000000000000 $t
     /tmp/ccJrf82H.s:60     .text.port_unlock:0000000000000000 port_unlock
     /tmp/ccJrf82H.s:89     .text.chSysLock:0000000000000000 $t
     /tmp/ccJrf82H.s:94     .text.chSysLock:0000000000000000 chSysLock
     /tmp/ccJrf82H.s:117    .text.chSysUnlock:0000000000000000 $t
     /tmp/ccJrf82H.s:122    .text.chSysUnlock:0000000000000000 chSysUnlock
     /tmp/ccJrf82H.s:161    .text.chSysUnlock:0000000000000030 $d
     /tmp/ccJrf82H.s:549    .rodata.__func__.5925:0000000000000000 __func__.5925
     /tmp/ccJrf82H.s:167    .text.chPoolAdd:0000000000000000 $t
     /tmp/ccJrf82H.s:172    .text.chPoolAdd:0000000000000000 chPoolAdd
     /tmp/ccJrf82H.s:499    .text.chPoolFree:0000000000000000 chPoolFree
     /tmp/ccJrf82H.s:198    .text.chPoolObjectInit:0000000000000000 $t
     /tmp/ccJrf82H.s:204    .text.chPoolObjectInit:0000000000000000 chPoolObjectInit
     /tmp/ccJrf82H.s:251    .text.chPoolObjectInit:0000000000000034 $d
     /tmp/ccJrf82H.s:531    .rodata.__func__.6622:0000000000000000 __func__.6622
     /tmp/ccJrf82H.s:256    .text.chPoolLoadArray:0000000000000000 $t
     /tmp/ccJrf82H.s:262    .text.chPoolLoadArray:0000000000000000 chPoolLoadArray
     /tmp/ccJrf82H.s:320    .text.chPoolLoadArray:0000000000000044 $d
     /tmp/ccJrf82H.s:537    .rodata.__func__.6628:0000000000000000 __func__.6628
     /tmp/ccJrf82H.s:325    .text.chPoolAllocI:0000000000000000 $t
     /tmp/ccJrf82H.s:331    .text.chPoolAllocI:0000000000000000 chPoolAllocI
     /tmp/ccJrf82H.s:393    .text.chPoolAllocI:0000000000000050 $d
     /tmp/ccJrf82H.s:543    .rodata.__func__.6636:0000000000000000 __func__.6636
     /tmp/ccJrf82H.s:398    .text.chPoolAlloc:0000000000000000 $t
     /tmp/ccJrf82H.s:404    .text.chPoolAlloc:0000000000000000 chPoolAlloc
     /tmp/ccJrf82H.s:435    .text.chPoolFreeI:0000000000000000 $t
     /tmp/ccJrf82H.s:441    .text.chPoolFreeI:0000000000000000 chPoolFreeI
     /tmp/ccJrf82H.s:488    .text.chPoolFreeI:0000000000000038 $d
     /tmp/ccJrf82H.s:555    .rodata.__func__.6646:0000000000000000 __func__.6646
     /tmp/ccJrf82H.s:493    .text.chPoolFree:0000000000000000 $t
     /tmp/ccJrf82H.s:528    .rodata.__func__.6622:0000000000000000 $d
     /tmp/ccJrf82H.s:534    .rodata.__func__.6628:0000000000000000 $d
     /tmp/ccJrf82H.s:540    .rodata.__func__.6636:0000000000000000 $d
     /tmp/ccJrf82H.s:546    .rodata.__func__.5925:0000000000000000 $d
     /tmp/ccJrf82H.s:552    .rodata.__func__.6646:0000000000000000 $d
                     .debug_frame:0000000000000010 $d
     /tmp/ccJrf82H.s:166    .text.chSysUnlock:0000000000000038 $t
     /tmp/ccJrf82H.s:255    .text.chPoolObjectInit:0000000000000038 $t
     /tmp/ccJrf82H.s:324    .text.chPoolLoadArray:0000000000000048 $t
     /tmp/ccJrf82H.s:397    .text.chPoolAllocI:0000000000000054 $t
     /tmp/ccJrf82H.s:492    .text.chPoolFreeI:000000000000003c $t

UNDEFINED SYMBOLS
_stats_start_measure_crit_thd
_dbg_check_lock
_dbg_check_unlock
_stats_stop_measure_crit_thd
chSysHalt
ch
chDbgCheckClassI
