ARM GAS  /tmp/cc1COs80.s 			page 1


   1              		.syntax unified
   2              		.cpu cortex-m4
   3              		.fpu softvfp
   4              		.eabi_attribute 20, 1
   5              		.eabi_attribute 21, 1
   6              		.eabi_attribute 23, 3
   7              		.eabi_attribute 24, 1
   8              		.eabi_attribute 25, 1
   9              		.eabi_attribute 26, 1
  10              		.eabi_attribute 30, 6
  11              		.eabi_attribute 34, 1
  12              		.eabi_attribute 18, 4
  13              		.thumb
  14              		.file	"chmsg.c"
  15              		.text
  16              	.Ltext0:
  17              		.cfi_sections	.debug_frame
  18              		.section	.text.port_lock,"ax",%progbits
  19              		.align	2
  20              		.p2align 4,,15
  21              		.thumb
  22              		.thumb_func
  23              		.type	port_lock, %function
  24              	port_lock:
  25              	.LFB127:
  26              		.file 1 "/home/efe/ChibiOS/os/rt/ports/ARMCMx/chcore_v7m.h"
  27              		.loc 1 456 0
  28              		.cfi_startproc
  29              		@ args = 0, pretend = 0, frame = 8
  30              		@ frame_needed = 0, uses_anonymous_args = 0
  31              		@ link register save eliminated.
  32 0000 82B0     		sub	sp, sp, #8
  33              		.cfi_def_cfa_offset 8
  34 0002 2023     		movs	r3, #32
  35 0004 0193     		str	r3, [sp, #4]
  36              	.LBB6:
  37              	.LBB7:
  38              		.file 2 "/home/efe/ChibiOS/os/ext/CMSIS/include/core_cmFunc.h"
  39              		.loc 2 548 0
  40 0006 019B     		ldr	r3, [sp, #4]
  41              	@ 548 "/home/efe/ChibiOS/os/ext/CMSIS/include/core_cmFunc.h" 1
  42 0008 83F31188 		MSR basepri, r3
  43              	@ 0 "" 2
  44              		.thumb
  45              	.LBE7:
  46              	.LBE6:
  47              		.loc 1 463 0
  48 000c 02B0     		add	sp, sp, #8
  49              		@ sp needed
  50 000e 7047     		bx	lr
  51              		.cfi_endproc
  52              	.LFE127:
  53              		.size	port_lock, .-port_lock
  54              		.section	.text.port_unlock,"ax",%progbits
  55              		.align	2
  56              		.p2align 4,,15
  57              		.thumb
ARM GAS  /tmp/cc1COs80.s 			page 2


  58              		.thumb_func
  59              		.type	port_unlock, %function
  60              	port_unlock:
  61              	.LFB128:
  62              		.loc 1 470 0
  63              		.cfi_startproc
  64              		@ args = 0, pretend = 0, frame = 8
  65              		@ frame_needed = 0, uses_anonymous_args = 0
  66              		@ link register save eliminated.
  67 0000 82B0     		sub	sp, sp, #8
  68              		.cfi_def_cfa_offset 8
  69 0002 0023     		movs	r3, #0
  70 0004 0193     		str	r3, [sp, #4]
  71              	.LBB8:
  72              	.LBB9:
  73              		.loc 2 548 0
  74 0006 019B     		ldr	r3, [sp, #4]
  75              	@ 548 "/home/efe/ChibiOS/os/ext/CMSIS/include/core_cmFunc.h" 1
  76 0008 83F31188 		MSR basepri, r3
  77              	@ 0 "" 2
  78              		.thumb
  79              	.LBE9:
  80              	.LBE8:
  81              		.loc 1 477 0
  82 000c 02B0     		add	sp, sp, #8
  83              		@ sp needed
  84 000e 7047     		bx	lr
  85              		.cfi_endproc
  86              	.LFE128:
  87              		.size	port_unlock, .-port_unlock
  88              		.section	.text.queue_insert,"ax",%progbits
  89              		.align	2
  90              		.p2align 4,,15
  91              		.thumb
  92              		.thumb_func
  93              		.type	queue_insert, %function
  94              	queue_insert:
  95              	.LFB156:
  96              		.file 3 "/home/efe/ChibiOS/os/rt/include/chschd.h"
  97              		.loc 3 663 0
  98              		.cfi_startproc
  99              		@ args = 0, pretend = 0, frame = 8
 100              		@ frame_needed = 0, uses_anonymous_args = 0
 101              		@ link register save eliminated.
 102 0000 82B0     		sub	sp, sp, #8
 103              		.cfi_def_cfa_offset 8
 104 0002 0190     		str	r0, [sp, #4]
 105 0004 0091     		str	r1, [sp]
 106              		.loc 3 665 0
 107 0006 019B     		ldr	r3, [sp, #4]
 108 0008 009A     		ldr	r2, [sp]
 109 000a 1A60     		str	r2, [r3]
 110              		.loc 3 666 0
 111 000c 009B     		ldr	r3, [sp]
 112 000e 5A68     		ldr	r2, [r3, #4]
 113 0010 019B     		ldr	r3, [sp, #4]
 114 0012 5A60     		str	r2, [r3, #4]
ARM GAS  /tmp/cc1COs80.s 			page 3


 115              		.loc 3 667 0
 116 0014 019B     		ldr	r3, [sp, #4]
 117 0016 5B68     		ldr	r3, [r3, #4]
 118 0018 019A     		ldr	r2, [sp, #4]
 119 001a 1A60     		str	r2, [r3]
 120              		.loc 3 668 0
 121 001c 009B     		ldr	r3, [sp]
 122 001e 019A     		ldr	r2, [sp, #4]
 123 0020 5A60     		str	r2, [r3, #4]
 124              		.loc 3 669 0
 125 0022 02B0     		add	sp, sp, #8
 126              		@ sp needed
 127 0024 7047     		bx	lr
 128              		.cfi_endproc
 129              	.LFE156:
 130              		.size	queue_insert, .-queue_insert
 131 0026 00BFAFF3 		.section	.text.queue_fifo_remove,"ax",%progbits
 131      0080AFF3 
 131      0080
 132              		.align	2
 133              		.p2align 4,,15
 134              		.thumb
 135              		.thumb_func
 136              		.type	queue_fifo_remove, %function
 137              	queue_fifo_remove:
 138              	.LFB157:
 139              		.loc 3 671 0
 140              		.cfi_startproc
 141              		@ args = 0, pretend = 0, frame = 16
 142              		@ frame_needed = 0, uses_anonymous_args = 0
 143              		@ link register save eliminated.
 144 0000 84B0     		sub	sp, sp, #16
 145              		.cfi_def_cfa_offset 16
 146 0002 0190     		str	r0, [sp, #4]
 147              		.loc 3 672 0
 148 0004 019B     		ldr	r3, [sp, #4]
 149 0006 1B68     		ldr	r3, [r3]
 150 0008 0393     		str	r3, [sp, #12]
 151              		.loc 3 674 0
 152 000a 039B     		ldr	r3, [sp, #12]
 153 000c 1A68     		ldr	r2, [r3]
 154 000e 019B     		ldr	r3, [sp, #4]
 155 0010 1A60     		str	r2, [r3]
 156              		.loc 3 675 0
 157 0012 019B     		ldr	r3, [sp, #4]
 158 0014 1B68     		ldr	r3, [r3]
 159 0016 019A     		ldr	r2, [sp, #4]
 160 0018 5A60     		str	r2, [r3, #4]
 161              		.loc 3 677 0
 162 001a 039B     		ldr	r3, [sp, #12]
 163              		.loc 3 678 0
 164 001c 1846     		mov	r0, r3
 165 001e 04B0     		add	sp, sp, #16
 166              		@ sp needed
 167 0020 7047     		bx	lr
 168              		.cfi_endproc
 169              	.LFE157:
ARM GAS  /tmp/cc1COs80.s 			page 4


 170              		.size	queue_fifo_remove, .-queue_fifo_remove
 171 0022 00BFAFF3 		.section	.text.chSysLock,"ax",%progbits
 171      0080AFF3 
 171      0080AFF3 
 171      0080
 172              		.align	2
 173              		.p2align 4,,15
 174              		.thumb
 175              		.thumb_func
 176              		.type	chSysLock, %function
 177              	chSysLock:
 178              	.LFB167:
 179              		.file 4 "/home/efe/ChibiOS/os/rt/include/chsys.h"
 180              		.loc 4 346 0
 181              		.cfi_startproc
 182              		@ args = 0, pretend = 0, frame = 0
 183              		@ frame_needed = 0, uses_anonymous_args = 0
 184 0000 08B5     		push	{r3, lr}
 185              		.cfi_def_cfa_offset 8
 186              		.cfi_offset 3, -8
 187              		.cfi_offset 14, -4
 188              		.loc 4 348 0
 189 0002 FFF7FEFF 		bl	port_lock
 190              		.loc 4 349 0
 191 0006 FFF7FEFF 		bl	_stats_start_measure_crit_thd
 192              		.loc 4 350 0
 193 000a FFF7FEFF 		bl	_dbg_check_lock
 194              		.loc 4 351 0
 195 000e 08BD     		pop	{r3, pc}
 196              		.cfi_endproc
 197              	.LFE167:
 198              		.size	chSysLock, .-chSysLock
 199              		.section	.text.chSysUnlock,"ax",%progbits
 200              		.align	2
 201              		.p2align 4,,15
 202              		.thumb
 203              		.thumb_func
 204              		.type	chSysUnlock, %function
 205              	chSysUnlock:
 206              	.LFB168:
 207              		.loc 4 358 0
 208              		.cfi_startproc
 209              		@ args = 0, pretend = 0, frame = 0
 210              		@ frame_needed = 0, uses_anonymous_args = 0
 211 0000 08B5     		push	{r3, lr}
 212              		.cfi_def_cfa_offset 8
 213              		.cfi_offset 3, -8
 214              		.cfi_offset 14, -4
 215              		.loc 4 360 0
 216 0002 FFF7FEFF 		bl	_dbg_check_unlock
 217              		.loc 4 361 0
 218 0006 FFF7FEFF 		bl	_stats_stop_measure_crit_thd
 219              		.loc 4 367 0
 220 000a 094B     		ldr	r3, .L9
 221 000c 1A68     		ldr	r2, [r3]
 222 000e 084B     		ldr	r3, .L9
 223 0010 9A42     		cmp	r2, r3
ARM GAS  /tmp/cc1COs80.s 			page 5


 224 0012 0AD0     		beq	.L8
 225              		.loc 4 367 0 is_stmt 0 discriminator 1
 226 0014 064B     		ldr	r3, .L9
 227 0016 9B69     		ldr	r3, [r3, #24]
 228 0018 9A68     		ldr	r2, [r3, #8]
 229 001a 054B     		ldr	r3, .L9
 230 001c 1B68     		ldr	r3, [r3]
 231 001e 9B68     		ldr	r3, [r3, #8]
 232 0020 9A42     		cmp	r2, r3
 233 0022 02D2     		bcs	.L8
 234 0024 0348     		ldr	r0, .L9+4
 235 0026 FFF7FEFF 		bl	chSysHalt
 236              	.L8:
 237              		.loc 4 371 0 is_stmt 1
 238 002a FFF7FEFF 		bl	port_unlock
 239              		.loc 4 372 0
 240 002e 08BD     		pop	{r3, pc}
 241              	.L10:
 242              		.align	2
 243              	.L9:
 244 0030 00000000 		.word	ch
 245 0034 00000000 		.word	__func__.5925
 246              		.cfi_endproc
 247              	.LFE168:
 248              		.size	chSysUnlock, .-chSysUnlock
 249 0038 AFF30080 		.section	.text.chMsgIsPendingI,"ax",%progbits
 249      AFF30080 
 250              		.align	2
 251              		.p2align 4,,15
 252              		.thumb
 253              		.thumb_func
 254              		.type	chMsgIsPendingI, %function
 255              	chMsgIsPendingI:
 256              	.LFB221:
 257              		.file 5 "/home/efe/ChibiOS/os/rt/include/chmsg.h"
 258              		.loc 5 79 0
 259              		.cfi_startproc
 260              		@ args = 0, pretend = 0, frame = 8
 261              		@ frame_needed = 0, uses_anonymous_args = 0
 262 0000 00B5     		push	{lr}
 263              		.cfi_def_cfa_offset 4
 264              		.cfi_offset 14, -4
 265 0002 83B0     		sub	sp, sp, #12
 266              		.cfi_def_cfa_offset 16
 267 0004 0190     		str	r0, [sp, #4]
 268              		.loc 5 81 0
 269 0006 FFF7FEFF 		bl	chDbgCheckClassI
 270              		.loc 5 83 0
 271 000a 019B     		ldr	r3, [sp, #4]
 272 000c DA6A     		ldr	r2, [r3, #44]
 273 000e 019B     		ldr	r3, [sp, #4]
 274 0010 2C33     		adds	r3, r3, #44
 275 0012 9A42     		cmp	r2, r3
 276 0014 0CBF     		ite	eq
 277 0016 0023     		moveq	r3, #0
 278 0018 0123     		movne	r3, #1
 279 001a DBB2     		uxtb	r3, r3
ARM GAS  /tmp/cc1COs80.s 			page 6


 280              		.loc 5 84 0
 281 001c 1846     		mov	r0, r3
 282 001e 03B0     		add	sp, sp, #12
 283              		@ sp needed
 284 0020 5DF804FB 		ldr	pc, [sp], #4
 285              		.cfi_endproc
 286              	.LFE221:
 287              		.size	chMsgIsPendingI, .-chMsgIsPendingI
 288 0024 AFF30080 		.section	.text.chMsgReleaseS,"ax",%progbits
 288      AFF30080 
 288      AFF30080 
 289              		.align	2
 290              		.p2align 4,,15
 291              		.thumb
 292              		.thumb_func
 293              		.type	chMsgReleaseS, %function
 294              	chMsgReleaseS:
 295              	.LFB223:
 296              		.loc 5 111 0
 297              		.cfi_startproc
 298              		@ args = 0, pretend = 0, frame = 8
 299              		@ frame_needed = 0, uses_anonymous_args = 0
 300 0000 00B5     		push	{lr}
 301              		.cfi_def_cfa_offset 4
 302              		.cfi_offset 14, -4
 303 0002 83B0     		sub	sp, sp, #12
 304              		.cfi_def_cfa_offset 16
 305 0004 0190     		str	r0, [sp, #4]
 306 0006 0091     		str	r1, [sp]
 307              		.loc 5 113 0
 308 0008 FFF7FEFF 		bl	chDbgCheckClassS
 309              		.loc 5 115 0
 310 000c 0198     		ldr	r0, [sp, #4]
 311 000e 0099     		ldr	r1, [sp]
 312 0010 FFF7FEFF 		bl	chSchWakeupS
 313              		.loc 5 116 0
 314 0014 03B0     		add	sp, sp, #12
 315              		@ sp needed
 316 0016 5DF804FB 		ldr	pc, [sp], #4
 317              		.cfi_endproc
 318              	.LFE223:
 319              		.size	chMsgReleaseS, .-chMsgReleaseS
 320 001a 00BFAFF3 		.section	.text.chMsgSend,"ax",%progbits
 320      0080
 321              		.align	2
 322              		.p2align 4,,15
 323              		.global	chMsgSend
 324              		.thumb
 325              		.thumb_func
 326              		.type	chMsgSend, %function
 327              	chMsgSend:
 328              	.LFB240:
 329              		.file 6 "/home/efe/ChibiOS/os/rt/src/chmsg.c"
 330              		.loc 6 87 0
 331              		.cfi_startproc
 332              		@ args = 0, pretend = 0, frame = 16
 333              		@ frame_needed = 0, uses_anonymous_args = 0
ARM GAS  /tmp/cc1COs80.s 			page 7


 334 0000 00B5     		push	{lr}
 335              		.cfi_def_cfa_offset 4
 336              		.cfi_offset 14, -4
 337 0002 85B0     		sub	sp, sp, #20
 338              		.cfi_def_cfa_offset 24
 339 0004 0190     		str	r0, [sp, #4]
 340 0006 0091     		str	r1, [sp]
 341              		.loc 6 88 0
 342 0008 164B     		ldr	r3, .L18
 343 000a 9B69     		ldr	r3, [r3, #24]
 344 000c 0393     		str	r3, [sp, #12]
 345              		.loc 6 90 0
 346 000e 019B     		ldr	r3, [sp, #4]
 347 0010 002B     		cmp	r3, #0
 348 0012 02D1     		bne	.L15
 349              		.loc 6 90 0 is_stmt 0 discriminator 1
 350 0014 1448     		ldr	r0, .L18+4
 351 0016 FFF7FEFF 		bl	chSysHalt
 352              	.L15:
 353              		.loc 6 92 0 is_stmt 1
 354 001a FFF7FEFF 		bl	chSysLock
 355              		.loc 6 93 0
 356 001e 039B     		ldr	r3, [sp, #12]
 357 0020 009A     		ldr	r2, [sp]
 358 0022 5A63     		str	r2, [r3, #52]
 359              		.loc 6 94 0
 360 0024 019B     		ldr	r3, [sp, #4]
 361 0026 03F12C02 		add	r2, r3, #44
 362 002a 039B     		ldr	r3, [sp, #12]
 363 002c 5A62     		str	r2, [r3, #36]
 364              		.loc 6 95 0
 365 002e 019B     		ldr	r3, [sp, #4]
 366 0030 2C33     		adds	r3, r3, #44
 367 0032 0398     		ldr	r0, [sp, #12]
 368 0034 1946     		mov	r1, r3
 369 0036 FFF7FEFF 		bl	queue_insert
 370              		.loc 6 96 0
 371 003a 019B     		ldr	r3, [sp, #4]
 372 003c 93F82030 		ldrb	r3, [r3, #32]	@ zero_extendqisi2
 373 0040 0E2B     		cmp	r3, #14
 374 0042 02D1     		bne	.L16
 375              		.loc 6 97 0
 376 0044 0198     		ldr	r0, [sp, #4]
 377 0046 FFF7FEFF 		bl	chSchReadyI
 378              	.L16:
 379              		.loc 6 99 0
 380 004a 0C20     		movs	r0, #12
 381 004c FFF7FEFF 		bl	chSchGoSleepS
 382              		.loc 6 100 0
 383 0050 039B     		ldr	r3, [sp, #12]
 384 0052 5B6A     		ldr	r3, [r3, #36]
 385 0054 0093     		str	r3, [sp]
 386              		.loc 6 101 0
 387 0056 FFF7FEFF 		bl	chSysUnlock
 388              		.loc 6 103 0
 389 005a 009B     		ldr	r3, [sp]
 390              		.loc 6 104 0
ARM GAS  /tmp/cc1COs80.s 			page 8


 391 005c 1846     		mov	r0, r3
 392 005e 05B0     		add	sp, sp, #20
 393              		@ sp needed
 394 0060 5DF804FB 		ldr	pc, [sp], #4
 395              	.L19:
 396              		.align	2
 397              	.L18:
 398 0064 00000000 		.word	ch
 399 0068 00000000 		.word	__func__.6622
 400              		.cfi_endproc
 401              	.LFE240:
 402              		.size	chMsgSend, .-chMsgSend
 403 006c AFF30080 		.section	.text.chMsgWait,"ax",%progbits
 404              		.align	2
 405              		.p2align 4,,15
 406              		.global	chMsgWait
 407              		.thumb
 408              		.thumb_func
 409              		.type	chMsgWait, %function
 410              	chMsgWait:
 411              	.LFB241:
 412              		.loc 6 120 0
 413              		.cfi_startproc
 414              		@ args = 0, pretend = 0, frame = 8
 415              		@ frame_needed = 0, uses_anonymous_args = 0
 416 0000 00B5     		push	{lr}
 417              		.cfi_def_cfa_offset 4
 418              		.cfi_offset 14, -4
 419 0002 83B0     		sub	sp, sp, #12
 420              		.cfi_def_cfa_offset 16
 421              		.loc 6 123 0
 422 0004 FFF7FEFF 		bl	chSysLock
 423              		.loc 6 124 0
 424 0008 0F4B     		ldr	r3, .L23
 425 000a 9B69     		ldr	r3, [r3, #24]
 426 000c 1846     		mov	r0, r3
 427 000e FFF7FEFF 		bl	chMsgIsPendingI
 428 0012 0346     		mov	r3, r0
 429 0014 83F00103 		eor	r3, r3, #1
 430 0018 DBB2     		uxtb	r3, r3
 431 001a 002B     		cmp	r3, #0
 432 001c 02D0     		beq	.L21
 433              		.loc 6 125 0
 434 001e 0E20     		movs	r0, #14
 435 0020 FFF7FEFF 		bl	chSchGoSleepS
 436              	.L21:
 437              		.loc 6 127 0
 438 0024 084B     		ldr	r3, .L23
 439 0026 9B69     		ldr	r3, [r3, #24]
 440 0028 2C33     		adds	r3, r3, #44
 441 002a 1846     		mov	r0, r3
 442 002c FFF7FEFF 		bl	queue_fifo_remove
 443 0030 0190     		str	r0, [sp, #4]
 444              		.loc 6 128 0
 445 0032 019B     		ldr	r3, [sp, #4]
 446 0034 0D22     		movs	r2, #13
 447 0036 83F82020 		strb	r2, [r3, #32]
ARM GAS  /tmp/cc1COs80.s 			page 9


 448              		.loc 6 129 0
 449 003a FFF7FEFF 		bl	chSysUnlock
 450              		.loc 6 131 0
 451 003e 019B     		ldr	r3, [sp, #4]
 452              		.loc 6 132 0
 453 0040 1846     		mov	r0, r3
 454 0042 03B0     		add	sp, sp, #12
 455              		@ sp needed
 456 0044 5DF804FB 		ldr	pc, [sp], #4
 457              	.L24:
 458              		.align	2
 459              	.L23:
 460 0048 00000000 		.word	ch
 461              		.cfi_endproc
 462              	.LFE241:
 463              		.size	chMsgWait, .-chMsgWait
 464 004c AFF30080 		.section	.text.chMsgRelease,"ax",%progbits
 465              		.align	2
 466              		.p2align 4,,15
 467              		.global	chMsgRelease
 468              		.thumb
 469              		.thumb_func
 470              		.type	chMsgRelease, %function
 471              	chMsgRelease:
 472              	.LFB242:
 473              		.loc 6 144 0
 474              		.cfi_startproc
 475              		@ args = 0, pretend = 0, frame = 8
 476              		@ frame_needed = 0, uses_anonymous_args = 0
 477 0000 00B5     		push	{lr}
 478              		.cfi_def_cfa_offset 4
 479              		.cfi_offset 14, -4
 480 0002 83B0     		sub	sp, sp, #12
 481              		.cfi_def_cfa_offset 16
 482 0004 0190     		str	r0, [sp, #4]
 483 0006 0091     		str	r1, [sp]
 484              		.loc 6 146 0
 485 0008 FFF7FEFF 		bl	chSysLock
 486              		.loc 6 147 0
 487 000c 019B     		ldr	r3, [sp, #4]
 488 000e 93F82030 		ldrb	r3, [r3, #32]	@ zero_extendqisi2
 489 0012 0D2B     		cmp	r3, #13
 490 0014 02D0     		beq	.L26
 491              		.loc 6 147 0 is_stmt 0 discriminator 1
 492 0016 0648     		ldr	r0, .L27
 493 0018 FFF7FEFF 		bl	chSysHalt
 494              	.L26:
 495              		.loc 6 148 0 is_stmt 1
 496 001c 0198     		ldr	r0, [sp, #4]
 497 001e 0099     		ldr	r1, [sp]
 498 0020 FFF7FEFF 		bl	chMsgReleaseS
 499              		.loc 6 149 0
 500 0024 FFF7FEFF 		bl	chSysUnlock
 501              		.loc 6 150 0
 502 0028 03B0     		add	sp, sp, #12
 503              		@ sp needed
 504 002a 5DF804FB 		ldr	pc, [sp], #4
ARM GAS  /tmp/cc1COs80.s 			page 10


 505              	.L28:
 506 002e 00BF     		.align	2
 507              	.L27:
 508 0030 00000000 		.word	__func__.6631
 509              		.cfi_endproc
 510              	.LFE242:
 511              		.size	chMsgRelease, .-chMsgRelease
 512 0034 AFF30080 		.section	.rodata.__func__.6622,"a",%progbits
 512      AFF30080 
 512      AFF30080 
 513              		.align	2
 514              		.type	__func__.6622, %object
 515              		.size	__func__.6622, 10
 516              	__func__.6622:
 517 0000 63684D73 		.ascii	"chMsgSend\000"
 517      6753656E 
 517      6400
 518 000a 0000     		.section	.rodata.__func__.5925,"a",%progbits
 519              		.align	2
 520              		.type	__func__.5925, %object
 521              		.size	__func__.5925, 12
 522              	__func__.5925:
 523 0000 63685379 		.ascii	"chSysUnlock\000"
 523      73556E6C 
 523      6F636B00 
 524              		.section	.rodata.__func__.6631,"a",%progbits
 525              		.align	2
 526              		.type	__func__.6631, %object
 527              		.size	__func__.6631, 13
 528              	__func__.6631:
 529 0000 63684D73 		.ascii	"chMsgRelease\000"
 529      6752656C 
 529      65617365 
 529      00
 530 000d 000000   		.text
 531              	.Letext0:
 532              		.file 7 "/usr/include/newlib/machine/_default_types.h"
 533              		.file 8 "/usr/include/newlib/stdint.h"
 534              		.file 9 "/home/efe/ChibiOS/os/rt/ports/ARMCMx/compilers/GCC/chtypes.h"
 535              		.file 10 "/home/efe/ChibiOS/os/rt/include/chsystypes.h"
 536              		.file 11 "/home/efe/ChibiOS/os/rt/ports/ARMCMx/chcore.h"
 537              		.file 12 "/home/efe/ChibiOS/os/rt/include/chdebug.h"
 538              		.file 13 "/home/efe/ChibiOS/os/rt/include/chtm.h"
 539              		.file 14 "/home/efe/ChibiOS/os/rt/include/chstats.h"
 540              		.file 15 "/home/efe/ChibiOS/os/rt/include/chsem.h"
 541              		.file 16 "/home/efe/ChibiOS/os/rt/include/chmtx.h"
 542              		.file 17 "/home/efe/ChibiOS/os/ext/CMSIS/include/core_cm4.h"