ARM GAS  /tmp/cc1COs80.s 			page 1


   1              		.syntax unified
   2              		.cpu cortex-m4
   3              		.fpu softvfp
   4              		.eabi_attribute 20, 1
   5              		.eabi_attribute 21, 1
   6              		.eabi_attribute 23, 3
   7              		.eabi_attribute 24, 1
   8              		.eabi_attribute 25, 1
   9              		.eabi_attribute 26, 1
  10              		.eabi_attribute 30, 6
  11              		.eabi_attribute 34, 1
  12              		.eabi_attribute 18, 4
  13              		.thumb
  14              		.file	"chmsg.c"
  15              		.text
  16              	.Ltext0:
  17              		.cfi_sections	.debug_frame
  18              		.section	.text.port_lock,"ax",%progbits
  19              		.align	2
  20              		.p2align 4,,15
  21              		.thumb
  22              		.thumb_func
  23              		.type	port_lock, %function
  24              	port_lock:
  25              	.LFB127:
  26              		.file 1 "/home/efe/ChibiOS/os/rt/ports/ARMCMx/chcore_v7m.h"
  27              		.loc 1 456 0
  28              		.cfi_startproc
  29              		@ args = 0, pretend = 0, frame = 8
  30              		@ frame_needed = 0, uses_anonymous_args = 0
  31              		@ link register save eliminated.
  32 0000 82B0     		sub	sp, sp, #8
  33              		.cfi_def_cfa_offset 8
  34 0002 2023     		movs	r3, #32
  35 0004 0193     		str	r3, [sp, #4]
  36              	.LBB6:
  37              	.LBB7:
  38              		.file 2 "/home/efe/ChibiOS/os/ext/CMSIS/include/core_cmFunc.h"
  39              		.loc 2 548 0
  40 0006 019B     		ldr	r3, [sp, #4]
  41              	@ 548 "/home/efe/ChibiOS/os/ext/CMSIS/include/core_cmFunc.h" 1
  42 0008 83F31188 		MSR basepri, r3
  43              	@ 0 "" 2
  44              		.thumb
  45              	.LBE7:
  46              	.LBE6:
  47              		.loc 1 463 0
  48 000c 02B0     		add	sp, sp, #8
  49              		@ sp needed
  50 000e 7047     		bx	lr
  51              		.cfi_endproc
  52              	.LFE127:
  53              		.size	port_lock, .-port_lock
  54              		.section	.text.port_unlock,"ax",%progbits
  55              		.align	2
  56              		.p2align 4,,15
  57              		.thumb
ARM GAS  /tmp/cc1COs80.s 			page 2


  58              		.thumb_func
  59              		.type	port_unlock, %function
  60              	port_unlock:
  61              	.LFB128:
  62              		.loc 1 470 0
  63              		.cfi_startproc
  64              		@ args = 0, pretend = 0, frame = 8
  65              		@ frame_needed = 0, uses_anonymous_args = 0
  66              		@ link register save eliminated.
  67 0000 82B0     		sub	sp, sp, #8
  68              		.cfi_def_cfa_offset 8
  69 0002 0023     		movs	r3, #0
  70 0004 0193     		str	r3, [sp, #4]
  71              	.LBB8:
  72              	.LBB9:
  73              		.loc 2 548 0
  74 0006 019B     		ldr	r3, [sp, #4]
  75              	@ 548 "/home/efe/ChibiOS/os/ext/CMSIS/include/core_cmFunc.h" 1
  76 0008 83F31188 		MSR basepri, r3
  77              	@ 0 "" 2
  78              		.thumb
  79              	.LBE9:
  80              	.LBE8:
  81              		.loc 1 477 0
  82 000c 02B0     		add	sp, sp, #8
  83              		@ sp needed
  84 000e 7047     		bx	lr
  85              		.cfi_endproc
  86              	.LFE128:
  87              		.size	port_unlock, .-port_unlock
  88              		.section	.text.queue_insert,"ax",%progbits
  89              		.align	2
  90              		.p2align 4,,15
  91              		.thumb
  92              		.thumb_func
  93              		.type	queue_insert, %function
  94              	queue_insert:
  95              	.LFB156:
  96              		.file 3 "/home/efe/ChibiOS/os/rt/include/chschd.h"
  97              		.loc 3 663 0
  98              		.cfi_startproc
  99              		@ args = 0, pretend = 0, frame = 8
 100              		@ frame_needed = 0, uses_anonymous_args = 0
 101              		@ link register save eliminated.
 102 0000 82B0     		sub	sp, sp, #8
 103              		.cfi_def_cfa_offset 8
 104 0002 0190     		str	r0, [sp, #4]
 105 0004 0091     		str	r1, [sp]
 106              		.loc 3 665 0
 107 0006 019B     		ldr	r3, [sp, #4]
 108 0008 009A     		ldr	r2, [sp]
 109 000a 1A60     		str	r2, [r3]
 110              		.loc 3 666 0
 111 000c 009B     		ldr	r3, [sp]
 112 000e 5A68     		ldr	r2, [r3, #4]
 113 0010 019B     		ldr	r3, [sp, #4]
 114 0012 5A60     		str	r2, [r3, #4]
ARM GAS  /tmp/cc1COs80.s 			page 3


 115              		.loc 3 667 0
 116 0014 019B     		ldr	r3, [sp, #4]
 117 0016 5B68     		ldr	r3, [r3, #4]
 118 0018 019A     		ldr	r2, [sp, #4]
 119 001a 1A60     		str	r2, [r3]
 120              		.loc 3 668 0
 121 001c 009B     		ldr	r3, [sp]
 122 001e 019A     		ldr	r2, [sp, #4]
 123 0020 5A60     		str	r2, [r3, #4]
 124              		.loc 3 669 0
 125 0022 02B0     		add	sp, sp, #8
 126              		@ sp needed
 127 0024 7047     		bx	lr
 128              		.cfi_endproc
 129              	.LFE156:
 130              		.size	queue_insert, .-queue_insert
 131 0026 00BFAFF3 		.section	.text.queue_fifo_remove,"ax",%progbits
 131      0080AFF3 
 131      0080
 132              		.align	2
 133              		.p2align 4,,15
 134              		.thumb
 135              		.thumb_func
 136              		.type	queue_fifo_remove, %function
 137              	queue_fifo_remove:
 138              	.LFB157:
 139              		.loc 3 671 0
 140              		.cfi_startproc
 141              		@ args = 0, pretend = 0, frame = 16
 142              		@ frame_needed = 0, uses_anonymous_args = 0
 143              		@ link register save eliminated.
 144 0000 84B0     		sub	sp, sp, #16
 145              		.cfi_def_cfa_offset 16
 146 0002 0190     		str	r0, [sp, #4]
 147              		.loc 3 672 0
 148 0004 019B     		ldr	r3, [sp, #4]
 149 0006 1B68     		ldr	r3, [r3]
 150 0008 0393     		str	r3, [sp, #12]
 151              		.loc 3 674 0
 152 000a 039B     		ldr	r3, [sp, #12]
 153 000c 1A68     		ldr	r2, [r3]
 154 000e 019B     		ldr	r3, [sp, #4]
 155 0010 1A60     		str	r2, [r3]
 156              		.loc 3 675 0
 157 0012 019B     		ldr	r3, [sp, #4]
 158 0014 1B68     		ldr	r3, [r3]
 159 0016 019A     		ldr	r2, [sp, #4]
 160 0018 5A60     		str	r2, [r3, #4]
 161              		.loc 3 677 0
 162 001a 039B     		ldr	r3, [sp, #12]
 163              		.loc 3 678 0
 164 001c 1846     		mov	r0, r3
 165 001e 04B0     		add	sp, sp, #16
 166              		@ sp needed
 167 0020 7047     		bx	lr
 168              		.cfi_endproc
 169              	.LFE157:
ARM GAS  /tmp/cc1COs80.s 			page 4


 170              		.size	queue_fifo_remove, .-queue_fifo_remove
 171 0022 00BFAFF3 		.section	.text.chSysLock,"ax",%progbits
 171      0080AFF3 
 171      0080AFF3 
 171      0080
 172              		.align	2
 173              		.p2align 4,,15
 174              		.thumb
 175              		.thumb_func
 176              		.type	chSysLock, %function
 177              	chSysLock:
 178              	.LFB167:
 179              		.file 4 "/home/efe/ChibiOS/os/rt/include/chsys.h"
 180              		.loc 4 346 0
 181              		.cfi_startproc
 182              		@ args = 0, pretend = 0, frame = 0
 183              		@ frame_needed = 0, uses_anonymous_args = 0
 184 0000 08B5     		push	{r3, lr}
 185              		.cfi_def_cfa_offset 8
 186              		.cfi_offset 3, -8
 187              		.cfi_offset 14, -4
 188              		.loc 4 348 0
 189 0002 FFF7FEFF 		bl	port_lock
 190              		.loc 4 349 0
 191 0006 FFF7FEFF 		bl	_stats_start_measure_crit_thd
 192              		.loc 4 350 0
 193 000a FFF7FEFF 		bl	_dbg_check_lock
 194              		.loc 4 351 0
 195 000e 08BD     		pop	{r3, pc}
 196              		.cfi_endproc
 197              	.LFE167:
 198              		.size	chSysLock, .-chSysLock
 199              		.section	.text.chSysUnlock,"ax",%progbits
 200              		.align	2
 201              		.p2align 4,,15
 202              		.thumb
 203              		.thumb_func
 204              		.type	chSysUnlock, %function
 205              	chSysUnlock:
 206              	.LFB168:
 207              		.loc 4 358 0
 208              		.cfi_startproc
 209              		@ args = 0, pretend = 0, frame = 0
 210              		@ frame_needed = 0, uses_anonymous_args = 0
 211 0000 08B5     		push	{r3, lr}
 212              		.cfi_def_cfa_offset 8
 213              		.cfi_offset 3, -8
 214              		.cfi_offset 14, -4
 215              		.loc 4 360 0
 216 0002 FFF7FEFF 		bl	_dbg_check_unlock
 217              		.loc 4 361 0
 218 0006 FFF7FEFF 		bl	_stats_stop_measure_crit_thd
 219              		.loc 4 367 0
 220 000a 094B     		ldr	r3, .L9
 221 000c 1A68     		ldr	r2, [r3]
 222 000e 084B     		ldr	r3, .L9
 223 0010 9A42     		cmp	r2, r3
ARM GAS  /tmp/cc1COs80.s 			page 5


 224 0012 0AD0     		beq	.L8
 225              		.loc 4 367 0 is_stmt 0 discriminator 1
 226 0014 064B     		ldr	r3, .L9
 227 0016 9B69     		ldr	r3, [r3, #24]
 228 0018 9A68     		ldr	r2, [r3, #8]
 229 001a 054B     		ldr	r3, .L9
 230 001c 1B68     		ldr	r3, [r3]
 231 001e 9B68     		ldr	r3, [r3, #8]
 232 0020 9A42     		cmp	r2, r3
 233 0022 02D2     		bcs	.L8
 234 0024 0348     		ldr	r0, .L9+4
 235 0026 FFF7FEFF 		bl	chSysHalt
 236              	.L8:
 237              		.loc 4 371 0 is_stmt 1
 238 002a FFF7FEFF 		bl	port_unlock
 239              		.loc 4 372 0
 240 002e 08BD     		pop	{r3, pc}
 241              	.L10:
 242              		.align	2
 243              	.L9:
 244 0030 00000000 		.word	ch
 245 0034 00000000 		.word	__func__.5925
 246              		.cfi_endproc
 247              	.LFE168:
 248              		.size	chSysUnlock, .-chSysUnlock
 249 0038 AFF30080 		.section	.text.chMsgIsPendingI,"ax",%progbits
 249      AFF30080 
 250              		.align	2
 251              		.p2align 4,,15
 252              		.thumb
 253              		.thumb_func
 254              		.type	chMsgIsPendingI, %function
 255              	chMsgIsPendingI:
 256              	.LFB221:
 257              		.file 5 "/home/efe/ChibiOS/os/rt/include/chmsg.h"
 258              		.loc 5 79 0
 259              		.cfi_startproc
 260              		@ args = 0, pretend = 0, frame = 8
 261              		@ frame_needed = 0, uses_anonymous_args = 0
 262 0000 00B5     		push	{lr}
 263              		.cfi_def_cfa_offset 4
 264              		.cfi_offset 14, -4
 265 0002 83B0     		sub	sp, sp, #12
 266              		.cfi_def_cfa_offset 16
 267 0004 0190     		str	r0, [sp, #4]
 268              		.loc 5 81 0
 269 0006 FFF7FEFF 		bl	chDbgCheckClassI
 270              		.loc 5 83 0
 271 000a 019B     		ldr	r3, [sp, #4]
 272 000c DA6A     		ldr	r2, [r3, #44]
 273 000e 019B     		ldr	r3, [sp, #4]
 274 0010 2C33     		adds	r3, r3, #44
 275 0012 9A42     		cmp	r2, r3
 276 0014 0CBF     		ite	eq
 277 0016 0023     		moveq	r3, #0
 278 0018 0123     		movne	r3, #1
 279 001a DBB2     		uxtb	r3, r3
ARM GAS  /tmp/cc1COs80.s 			page 6


 280              		.loc 5 84 0
 281 001c 1846     		mov	r0, r3
 282 001e 03B0     		add	sp, sp, #12
 283              		@ sp needed
 284 0020 5DF804FB 		ldr	pc, [sp], #4
 285              		.cfi_endproc
 286              	.LFE221:
 287              		.size	chMsgIsPendingI, .-chMsgIsPendingI
 288 0024 AFF30080 		.section	.text.chMsgReleaseS,"ax",%progbits
 288      AFF30080 
 288      AFF30080 
 289              		.align	2
 290              		.p2align 4,,15
 291              		.thumb
 292              		.thumb_func
 293              		.type	chMsgReleaseS, %function
 294              	chMsgReleaseS:
 295              	.LFB223:
 296              		.loc 5 111 0
 297              		.cfi_startproc
 298              		@ args = 0, pretend = 0, frame = 8
 299              		@ frame_needed = 0, uses_anonymous_args = 0
 300 0000 00B5     		push	{lr}
 301              		.cfi_def_cfa_offset 4
 302              		.cfi_offset 14, -4
 303 0002 83B0     		sub	sp, sp, #12
 304              		.cfi_def_cfa_offset 16
 305 0004 0190     		str	r0, [sp, #4]
 306 0006 0091     		str	r1, [sp]
 307              		.loc 5 113 0
 308 0008 FFF7FEFF 		bl	chDbgCheckClassS
 309              		.loc 5 115 0
 310 000c 0198     		ldr	r0, [sp, #4]
 311 000e 0099     		ldr	r1, [sp]
 312 0010 FFF7FEFF 		bl	chSchWakeupS
 313              		.loc 5 116 0
 314 0014 03B0     		add	sp, sp, #12
 315              		@ sp needed
 316 0016 5DF804FB 		ldr	pc, [sp], #4
 317              		.cfi_endproc
 318              	.LFE223:
 319              		.size	chMsgReleaseS, .-chMsgReleaseS
 320 001a 00BFAFF3 		.section	.text.chMsgSend,"ax",%progbits
 320      0080
 321              		.align	2
 322              		.p2align 4,,15
 323              		.global	chMsgSend
 324              		.thumb
 325              		.thumb_func
 326              		.type	chMsgSend, %function
 327              	chMsgSend:
 328              	.LFB240:
 329              		.file 6 "/home/efe/ChibiOS/os/rt/src/chmsg.c"
 330              		.loc 6 87 0
 331              		.cfi_startproc
 332              		@ args = 0, pretend = 0, frame = 16
 333              		@ frame_needed = 0, uses_anonymous_args = 0
ARM GAS  /tmp/cc1COs80.s 			page 7


 334 0000 00B5     		push	{lr}
 335              		.cfi_def_cfa_offset 4
 336              		.cfi_offset 14, -4
 337 0002 85B0     		sub	sp, sp, #20
 338              		.cfi_def_cfa_offset 24
 339 0004 0190     		str	r0, [sp, #4]
 340 0006 0091     		str	r1, [sp]
 341              		.loc 6 88 0
 342 0008 164B     		ldr	r3, .L18
 343 000a 9B69     		ldr	r3, [r3, #24]
 344 000c 0393     		str	r3, [sp, #12]
 345              		.loc 6 90 0
 346 000e 019B     		ldr	r3, [sp, #4]
 347 0010 002B     		cmp	r3, #0
 348 0012 02D1     		bne	.L15
 349              		.loc 6 90 0 is_stmt 0 discriminator 1
 350 0014 1448     		ldr	r0, .L18+4
 351 0016 FFF7FEFF 		bl	chSysHalt
 352              	.L15:
 353              		.loc 6 92 0 is_stmt 1
 354 001a FFF7FEFF 		bl	chSysLock
 355              		.loc 6 93 0
 356 001e 039B     		ldr	r3, [sp, #12]
 357 0020 009A     		ldr	r2, [sp]
 358 0022 5A63     		str	r2, [r3, #52]
 359              		.loc 6 94 0
 360 0024 019B     		ldr	r3, [sp, #4]
 361 0026 03F12C02 		add	r2, r3, #44
 362 002a 039B     		ldr	r3, [sp, #12]
 363 002c 5A62     		str	r2, [r3, #36]
 364              		.loc 6 95 0
 365 002e 019B     		ldr	r3, [sp, #4]
 366 0030 2C33     		adds	r3, r3, #44
 367 0032 0398     		ldr	r0, [sp, #12]
 368 0034 1946     		mov	r1, r3
 369 0036 FFF7FEFF 		bl	queue_insert
 370              		.loc 6 96 0
 371 003a 019B     		ldr	r3, [sp, #4]
 372 003c 93F82030 		ldrb	r3, [r3, #32]	@ zero_extendqisi2
 373 0040 0E2B     		cmp	r3, #14
 374 0042 02D1     		bne	.L16
 375              		.loc 6 97 0
 376 0044 0198     		ldr	r0, [sp, #4]
 377 0046 FFF7FEFF 		bl	chSchReadyI
 378              	.L16:
 379              		.loc 6 99 0
 380 004a 0C20     		movs	r0, #12
 381 004c FFF7FEFF 		bl	chSchGoSleepS
 382              		.loc 6 100 0
 383 0050 039B     		ldr	r3, [sp, #12]
 384 0052 5B6A     		ldr	r3, [r3, #36]
 385 0054 0093     		str	r3, [sp]
 386              		.loc 6 101 0
 387 0056 FFF7FEFF 		bl	chSysUnlock
 388              		.loc 6 103 0
 389 005a 009B     		ldr	r3, [sp]
 390              		.loc 6 104 0
ARM GAS  /tmp/cc1COs80.s 			page 8


 391 005c 1846     		mov	r0, r3
 392 005e 05B0     		add	sp, sp, #20
 393              		@ sp needed
 394 0060 5DF804FB 		ldr	pc, [sp], #4
 395              	.L19:
 396              		.align	2
 397              	.L18:
 398 0064 00000000 		.word	ch
 399 0068 00000000 		.word	__func__.6622
 400              		.cfi_endproc
 401              	.LFE240:
 402              		.size	chMsgSend, .-chMsgSend
 403 006c AFF30080 		.section	.text.chMsgWait,"ax",%progbits
 404              		.align	2
 405              		.p2align 4,,15
 406              		.global	chMsgWait
 407              		.thumb
 408              		.thumb_func
 409              		.type	chMsgWait, %function
 410              	chMsgWait:
 411              	.LFB241:
 412              		.loc 6 120 0
 413              		.cfi_startproc
 414              		@ args = 0, pretend = 0, frame = 8
 415              		@ frame_needed = 0, uses_anonymous_args = 0
 416 0000 00B5     		push	{lr}
 417              		.cfi_def_cfa_offset 4
 418              		.cfi_offset 14, -4
 419 0002 83B0     		sub	sp, sp, #12
 420              		.cfi_def_cfa_offset 16
 421              		.loc 6 123 0
 422 0004 FFF7FEFF 		bl	chSysLock
 423              		.loc 6 124 0
 424 0008 0F4B     		ldr	r3, .L23
 425 000a 9B69     		ldr	r3, [r3, #24]
 426 000c 1846     		mov	r0, r3
 427 000e FFF7FEFF 		bl	chMsgIsPendingI
 428 0012 0346     		mov	r3, r0
 429 0014 83F00103 		eor	r3, r3, #1
 430 0018 DBB2     		uxtb	r3, r3
 431 001a 002B     		cmp	r3, #0
 432 001c 02D0     		beq	.L21
 433              		.loc 6 125 0
 434 001e 0E20     		movs	r0, #14
 435 0020 FFF7FEFF 		bl	chSchGoSleepS
 436              	.L21:
 437              		.loc 6 127 0
 438 0024 084B     		ldr	r3, .L23
 439 0026 9B69     		ldr	r3, [r3, #24]
 440 0028 2C33     		adds	r3, r3, #44
 441 002a 1846     		mov	r0, r3
 442 002c FFF7FEFF 		bl	queue_fifo_remove
 443 0030 0190     		str	r0, [sp, #4]
 444              		.loc 6 128 0
 445 0032 019B     		ldr	r3, [sp, #4]
 446 0034 0D22     		movs	r2, #13
 447 0036 83F82020 		strb	r2, [r3, #32]
ARM GAS  /tmp/cc1COs80.s 			page 9


 448              		.loc 6 129 0
 449 003a FFF7FEFF 		bl	chSysUnlock
 450              		.loc 6 131 0
 451 003e 019B     		ldr	r3, [sp, #4]
 452              		.loc 6 132 0
 453 0040 1846     		mov	r0, r3
 454 0042 03B0     		add	sp, sp, #12
 455              		@ sp needed
 456 0044 5DF804FB 		ldr	pc, [sp], #4
 457              	.L24:
 458              		.align	2
 459              	.L23:
 460 0048 00000000 		.word	ch
 461              		.cfi_endproc
 462              	.LFE241:
 463              		.size	chMsgWait, .-chMsgWait
 464 004c AFF30080 		.section	.text.chMsgRelease,"ax",%progbits
 465              		.align	2
 466              		.p2align 4,,15
 467              		.global	chMsgRelease
 468              		.thumb
 469              		.thumb_func
 470              		.type	chMsgRelease, %function
 471              	chMsgRelease:
 472              	.LFB242:
 473              		.loc 6 144 0
 474              		.cfi_startproc
 475              		@ args = 0, pretend = 0, frame = 8
 476              		@ frame_needed = 0, uses_anonymous_args = 0
 477 0000 00B5     		push	{lr}
 478              		.cfi_def_cfa_offset 4
 479              		.cfi_offset 14, -4
 480 0002 83B0     		sub	sp, sp, #12
 481              		.cfi_def_cfa_offset 16
 482 0004 0190     		str	r0, [sp, #4]
 483 0006 0091     		str	r1, [sp]
 484              		.loc 6 146 0
 485 0008 FFF7FEFF 		bl	chSysLock
 486              		.loc 6 147 0
 487 000c 019B     		ldr	r3, [sp, #4]
 488 000e 93F82030 		ldrb	r3, [r3, #32]	@ zero_extendqisi2
 489 0012 0D2B     		cmp	r3, #13
 490 0014 02D0     		beq	.L26
 491              		.loc 6 147 0 is_stmt 0 discriminator 1
 492 0016 0648     		ldr	r0, .L27
 493 0018 FFF7FEFF 		bl	chSysHalt
 494              	.L26:
 495              		.loc 6 148 0 is_stmt 1
 496 001c 0198     		ldr	r0, [sp, #4]
 497 001e 0099     		ldr	r1, [sp]
 498 0020 FFF7FEFF 		bl	chMsgReleaseS
 499              		.loc 6 149 0
 500 0024 FFF7FEFF 		bl	chSysUnlock
 501              		.loc 6 150 0
 502 0028 03B0     		add	sp, sp, #12
 503              		@ sp needed
 504 002a 5DF804FB 		ldr	pc, [sp], #4
ARM GAS  /tmp/cc1COs80.s 			page 10


 505              	.L28:
 506 002e 00BF     		.align	2
 507              	.L27:
 508 0030 00000000 		.word	__func__.6631
 509              		.cfi_endproc
 510              	.LFE242:
 511              		.size	chMsgRelease, .-chMsgRelease
 512 0034 AFF30080 		.section	.rodata.__func__.6622,"a",%progbits
 512      AFF30080 
 512      AFF30080 
 513              		.align	2
 514              		.type	__func__.6622, %object
 515              		.size	__func__.6622, 10
 516              	__func__.6622:
 517 0000 63684D73 		.ascii	"chMsgSend\000"
 517      6753656E 
 517      6400
 518 000a 0000     		.section	.rodata.__func__.5925,"a",%progbits
 519              		.align	2
 520              		.type	__func__.5925, %object
 521              		.size	__func__.5925, 12
 522              	__func__.5925:
 523 0000 63685379 		.ascii	"chSysUnlock\000"
 523      73556E6C 
 523      6F636B00 
 524              		.section	.rodata.__func__.6631,"a",%progbits
 525              		.align	2
 526              		.type	__func__.6631, %object
 527              		.size	__func__.6631, 13
 528              	__func__.6631:
 529 0000 63684D73 		.ascii	"chMsgRelease\000"
 529      6752656C 
 529      65617365 
 529      00
 530 000d 000000   		.text
 531              	.Letext0:
 532              		.file 7 "/usr/include/newlib/machine/_default_types.h"
 533              		.file 8 "/usr/include/newlib/stdint.h"
 534              		.file 9 "/home/efe/ChibiOS/os/rt/ports/ARMCMx/compilers/GCC/chtypes.h"
 535              		.file 10 "/home/efe/ChibiOS/os/rt/include/chsystypes.h"
 536              		.file 11 "/home/efe/ChibiOS/os/rt/ports/ARMCMx/chcore.h"
 537              		.file 12 "/home/efe/ChibiOS/os/rt/include/chdebug.h"
 538              		.file 13 "/home/efe/ChibiOS/os/rt/include/chtm.h"
 539              		.file 14 "/home/efe/ChibiOS/os/rt/include/chstats.h"
 540              		.file 15 "/home/efe/ChibiOS/os/rt/include/chsem.h"
 541              		.file 16 "/home/efe/ChibiOS/os/rt/include/chmtx.h"
 542              		.file 17 "/home/efe/ChibiOS/os/ext/CMSIS/include/core_cm4.h"
 543              		.section	.debug_info,"",%progbits
 544              	.Ldebug_info0:
 545 0000 390A0000 		.4byte	0xa39
 546 0004 0400     		.2byte	0x4
 547 0006 00000000 		.4byte	.Ldebug_abbrev0
 548 000a 04       		.byte	0x4
 549 000b 01       		.uleb128 0x1
 550 000c BB010000 		.4byte	.LASF140
 551 0010 01       		.byte	0x1
 552 0011 27000000 		.4byte	.LASF141
ARM GAS  /tmp/cc1COs80.s 			page 11


 553 0015 00000000 		.4byte	.Ldebug_ranges0+0
 554 0019 00000000 		.4byte	0
 555 001d 00000000 		.4byte	.Ldebug_line0
 556 0021 02       		.uleb128 0x2
 557 0022 04       		.byte	0x4
 558 0023 05       		.byte	0x5
 559 0024 696E7400 		.ascii	"int\000"
 560 0028 03       		.uleb128 0x3
 561 0029 04       		.byte	0x4
 562 002a 07       		.byte	0x7
 563 002b E3020000 		.4byte	.LASF0
 564 002f 03       		.uleb128 0x3
 565 0030 01       		.byte	0x1
 566 0031 06       		.byte	0x6
 567 0032 48010000 		.4byte	.LASF1
 568 0036 04       		.uleb128 0x4
 569 0037 68000000 		.4byte	.LASF5
 570 003b 07       		.byte	0x7
 571 003c 1D       		.byte	0x1d
 572 003d 41000000 		.4byte	0x41
 573 0041 03       		.uleb128 0x3
 574 0042 01       		.byte	0x1
 575 0043 08       		.byte	0x8
 576 0044 90040000 		.4byte	.LASF2
 577 0048 03       		.uleb128 0x3
 578 0049 02       		.byte	0x2
 579 004a 05       		.byte	0x5
 580 004b A8040000 		.4byte	.LASF3
 581 004f 03       		.uleb128 0x3
 582 0050 02       		.byte	0x2
 583 0051 07       		.byte	0x7
 584 0052 16030000 		.4byte	.LASF4
 585 0056 04       		.uleb128 0x4
 586 0057 8D030000 		.4byte	.LASF6
 587 005b 07       		.byte	0x7
 588 005c 3F       		.byte	0x3f
 589 005d 61000000 		.4byte	0x61
 590 0061 03       		.uleb128 0x3
 591 0062 04       		.byte	0x4
 592 0063 05       		.byte	0x5
 593 0064 89010000 		.4byte	.LASF7
 594 0068 04       		.uleb128 0x4
 595 0069 AE050000 		.4byte	.LASF8
 596 006d 07       		.byte	0x7
 597 006e 41       		.byte	0x41
 598 006f 73000000 		.4byte	0x73
 599 0073 03       		.uleb128 0x3
 600 0074 04       		.byte	0x4
 601 0075 07       		.byte	0x7
 602 0076 59050000 		.4byte	.LASF9
 603 007a 03       		.uleb128 0x3
 604 007b 08       		.byte	0x8
 605 007c 05       		.byte	0x5
 606 007d 3A010000 		.4byte	.LASF10
 607 0081 04       		.uleb128 0x4
 608 0082 32040000 		.4byte	.LASF11
 609 0086 07       		.byte	0x7
ARM GAS  /tmp/cc1COs80.s 			page 12


 610 0087 5B       		.byte	0x5b
 611 0088 8C000000 		.4byte	0x8c
 612 008c 03       		.uleb128 0x3
 613 008d 08       		.byte	0x8
 614 008e 07       		.byte	0x7
 615 008f C1000000 		.4byte	.LASF12
 616 0093 04       		.uleb128 0x4
 617 0094 27060000 		.4byte	.LASF13
 618 0098 08       		.byte	0x8
 619 0099 2A       		.byte	0x2a
 620 009a 36000000 		.4byte	0x36
 621 009e 04       		.uleb128 0x4
 622 009f 88040000 		.4byte	.LASF14
 623 00a3 08       		.byte	0x8
 624 00a4 41       		.byte	0x41
 625 00a5 56000000 		.4byte	0x56
 626 00a9 04       		.uleb128 0x4
 627 00aa 28050000 		.4byte	.LASF15
 628 00ae 08       		.byte	0x8
 629 00af 42       		.byte	0x42
 630 00b0 68000000 		.4byte	0x68
 631 00b4 04       		.uleb128 0x4
 632 00b5 52000000 		.4byte	.LASF16
 633 00b9 08       		.byte	0x8
 634 00ba 4E       		.byte	0x4e
 635 00bb 81000000 		.4byte	0x81
 636 00bf 05       		.uleb128 0x5
 637 00c0 9E000000 		.4byte	0x9e
 638 00c4 04       		.uleb128 0x4
 639 00c5 E0050000 		.4byte	.LASF17
 640 00c9 09       		.byte	0x9
 641 00ca 45       		.byte	0x45
 642 00cb A9000000 		.4byte	0xa9
 643 00cf 04       		.uleb128 0x4
 644 00d0 2A010000 		.4byte	.LASF18
 645 00d4 09       		.byte	0x9
 646 00d5 46       		.byte	0x46
 647 00d6 B4000000 		.4byte	0xb4
 648 00da 04       		.uleb128 0x4
 649 00db 60030000 		.4byte	.LASF19
 650 00df 09       		.byte	0x9
 651 00e0 48       		.byte	0x48
 652 00e1 93000000 		.4byte	0x93
 653 00e5 04       		.uleb128 0x4
 654 00e6 9C010000 		.4byte	.LASF20
 655 00ea 09       		.byte	0x9
 656 00eb 49       		.byte	0x49
 657 00ec 93000000 		.4byte	0x93
 658 00f0 04       		.uleb128 0x4
 659 00f1 48040000 		.4byte	.LASF21
 660 00f5 09       		.byte	0x9
 661 00f6 4A       		.byte	0x4a
 662 00f7 93000000 		.4byte	0x93
 663 00fb 04       		.uleb128 0x4
 664 00fc 71040000 		.4byte	.LASF22
 665 0100 09       		.byte	0x9
 666 0101 4C       		.byte	0x4c
ARM GAS  /tmp/cc1COs80.s 			page 13


 667 0102 A9000000 		.4byte	0xa9
 668 0106 04       		.uleb128 0x4
 669 0107 42030000 		.4byte	.LASF23
 670 010b 09       		.byte	0x9
 671 010c 4D       		.byte	0x4d
 672 010d 9E000000 		.4byte	0x9e
 673 0111 04       		.uleb128 0x4
 674 0112 81030000 		.4byte	.LASF24
 675 0116 09       		.byte	0x9
 676 0117 4F       		.byte	0x4f
 677 0118 A9000000 		.4byte	0xa9
 678 011c 04       		.uleb128 0x4
 679 011d D2020000 		.4byte	.LASF25
 680 0121 09       		.byte	0x9
 681 0122 51       		.byte	0x51
 682 0123 9E000000 		.4byte	0x9e
 683 0127 04       		.uleb128 0x4
 684 0128 4D030000 		.4byte	.LASF26
 685 012c 09       		.byte	0x9
 686 012d 52       		.byte	0x52
 687 012e A9000000 		.4byte	0xa9
 688 0132 04       		.uleb128 0x4
 689 0133 90050000 		.4byte	.LASF27
 690 0137 0A       		.byte	0xa
 691 0138 33       		.byte	0x33
 692 0139 A9000000 		.4byte	0xa9
 693 013d 04       		.uleb128 0x4
 694 013e 70050000 		.4byte	.LASF28
 695 0142 0A       		.byte	0xa
 696 0143 3F       		.byte	0x3f
 697 0144 48010000 		.4byte	0x148
 698 0148 06       		.uleb128 0x6
 699 0149 38030000 		.4byte	.LASF50
 700 014d 60       		.byte	0x60
 701 014e 03       		.byte	0x3
 702 014f C2       		.byte	0xc2
 703 0150 4E020000 		.4byte	0x24e
 704 0154 07       		.uleb128 0x7
 705 0155 C8040000 		.4byte	.LASF29
 706 0159 03       		.byte	0x3
 707 015a C3       		.byte	0xc3
 708 015b 59020000 		.4byte	0x259
 709 015f 00       		.byte	0
 710 0160 07       		.uleb128 0x7
 711 0161 6A040000 		.4byte	.LASF30
 712 0165 03       		.byte	0x3
 713 0166 C5       		.byte	0xc5
 714 0167 59020000 		.4byte	0x259
 715 016b 04       		.byte	0x4
 716 016c 07       		.uleb128 0x7
 717 016d 33010000 		.4byte	.LASF31
 718 0171 03       		.byte	0x3
 719 0172 C7       		.byte	0xc7
 720 0173 FB000000 		.4byte	0xfb
 721 0177 08       		.byte	0x8
 722 0178 07       		.uleb128 0x7
 723 0179 96060000 		.4byte	.LASF32
ARM GAS  /tmp/cc1COs80.s 			page 14


 724 017d 03       		.byte	0x3
 725 017e C8       		.byte	0xc8
 726 017f C2040000 		.4byte	0x4c2
 727 0183 0C       		.byte	0xc
 728 0184 07       		.uleb128 0x7
 729 0185 6B020000 		.4byte	.LASF33
 730 0189 03       		.byte	0x3
 731 018a CA       		.byte	0xca
 732 018b 59020000 		.4byte	0x259
 733 018f 10       		.byte	0x10
 734 0190 07       		.uleb128 0x7
 735 0191 FA030000 		.4byte	.LASF34
 736 0195 03       		.byte	0x3
 737 0196 CB       		.byte	0xcb
 738 0197 59020000 		.4byte	0x259
 739 019b 14       		.byte	0x14
 740 019c 07       		.uleb128 0x7
 741 019d 36060000 		.4byte	.LASF35
 742 01a1 03       		.byte	0x3
 743 01a2 D2       		.byte	0xd2
 744 01a3 66070000 		.4byte	0x766
 745 01a7 18       		.byte	0x18
 746 01a8 07       		.uleb128 0x7
 747 01a9 D8020000 		.4byte	.LASF36
 748 01ad 03       		.byte	0x3
 749 01ae D8       		.byte	0xd8
 750 01af 78070000 		.4byte	0x778
 751 01b3 1C       		.byte	0x1c
 752 01b4 07       		.uleb128 0x7
 753 01b5 B2040000 		.4byte	.LASF37
 754 01b9 03       		.byte	0x3
 755 01ba DD       		.byte	0xdd
 756 01bb E5000000 		.4byte	0xe5
 757 01bf 20       		.byte	0x20
 758 01c0 07       		.uleb128 0x7
 759 01c1 CF040000 		.4byte	.LASF38
 760 01c5 03       		.byte	0x3
 761 01c6 E1       		.byte	0xe1
 762 01c7 DA000000 		.4byte	0xda
 763 01cb 21       		.byte	0x21
 764 01cc 07       		.uleb128 0x7
 765 01cd 12060000 		.4byte	.LASF39
 766 01d1 03       		.byte	0x3
 767 01d2 E6       		.byte	0xe6
 768 01d3 F0000000 		.4byte	0xf0
 769 01d7 22       		.byte	0x22
 770 01d8 08       		.uleb128 0x8
 771 01d9 705F7500 		.ascii	"p_u\000"
 772 01dd 03       		.byte	0x3
 773 01de 3101     		.2byte	0x131
 774 01e0 A1060000 		.4byte	0x6a1
 775 01e4 24       		.byte	0x24
 776 01e5 09       		.uleb128 0x9
 777 01e6 A2030000 		.4byte	.LASF40
 778 01ea 03       		.byte	0x3
 779 01eb 3601     		.2byte	0x136
 780 01ed 5F020000 		.4byte	0x25f
ARM GAS  /tmp/cc1COs80.s 			page 15


 781 01f1 28       		.byte	0x28
 782 01f2 09       		.uleb128 0x9
 783 01f3 FF020000 		.4byte	.LASF41
 784 01f7 03       		.byte	0x3
 785 01f8 3C01     		.2byte	0x13c
 786 01fa 83020000 		.4byte	0x283
 787 01fe 2C       		.byte	0x2c
 788 01ff 09       		.uleb128 0x9
 789 0200 65060000 		.4byte	.LASF42
 790 0204 03       		.byte	0x3
 791 0205 4001     		.2byte	0x140
 792 0207 06010000 		.4byte	0x106
 793 020b 34       		.byte	0x34
 794 020c 09       		.uleb128 0x9
 795 020d 1D050000 		.4byte	.LASF43
 796 0211 03       		.byte	0x3
 797 0212 4601     		.2byte	0x146
 798 0214 11010000 		.4byte	0x111
 799 0218 38       		.byte	0x38
 800 0219 09       		.uleb128 0x9
 801 021a 9E040000 		.4byte	.LASF44
 802 021e 03       		.byte	0x3
 803 021f 4D01     		.2byte	0x14d
 804 0221 60070000 		.4byte	0x760
 805 0225 3C       		.byte	0x3c
 806 0226 09       		.uleb128 0x9
 807 0227 9A050000 		.4byte	.LASF45
 808 022b 03       		.byte	0x3
 809 022c 5101     		.2byte	0x151
 810 022e FB000000 		.4byte	0xfb
 811 0232 40       		.byte	0x40
 812 0233 09       		.uleb128 0x9
 813 0234 5C010000 		.4byte	.LASF46
 814 0238 03       		.byte	0x3
 815 0239 5801     		.2byte	0x158
 816 023b 36030000 		.4byte	0x336
 817 023f 44       		.byte	0x44
 818 0240 09       		.uleb128 0x9
 819 0241 E0040000 		.4byte	.LASF47
 820 0245 03       		.byte	0x3
 821 0246 5E01     		.2byte	0x15e
 822 0248 52060000 		.4byte	0x652
 823 024c 48       		.byte	0x48
 824 024d 00       		.byte	0
 825 024e 04       		.uleb128 0x4
 826 024f B5030000 		.4byte	.LASF48
 827 0253 0A       		.byte	0xa
 828 0254 44       		.byte	0x44
 829 0255 59020000 		.4byte	0x259
 830 0259 0A       		.uleb128 0xa
 831 025a 04       		.byte	0x4
 832 025b 3D010000 		.4byte	0x13d
 833 025f 04       		.uleb128 0x4
 834 0260 3D060000 		.4byte	.LASF49
 835 0264 0A       		.byte	0xa
 836 0265 49       		.byte	0x49
 837 0266 6A020000 		.4byte	0x26a
ARM GAS  /tmp/cc1COs80.s 			page 16


 838 026a 06       		.uleb128 0x6
 839 026b 49050000 		.4byte	.LASF51
 840 026f 04       		.byte	0x4
 841 0270 03       		.byte	0x3
 842 0271 B0       		.byte	0xb0
 843 0272 83020000 		.4byte	0x283
 844 0276 07       		.uleb128 0x7
 845 0277 C8040000 		.4byte	.LASF29
 846 027b 03       		.byte	0x3
 847 027c B1       		.byte	0xb1
 848 027d 59020000 		.4byte	0x259
 849 0281 00       		.byte	0
 850 0282 00       		.byte	0
 851 0283 04       		.uleb128 0x4
 852 0284 F9050000 		.4byte	.LASF52
 853 0288 0A       		.byte	0xa
 854 0289 50       		.byte	0x50
 855 028a 8E020000 		.4byte	0x28e
 856 028e 06       		.uleb128 0x6
 857 028f 7E000000 		.4byte	.LASF53
 858 0293 08       		.byte	0x8
 859 0294 03       		.byte	0x3
 860 0295 B7       		.byte	0xb7
 861 0296 B3020000 		.4byte	0x2b3
 862 029a 07       		.uleb128 0x7
 863 029b C8040000 		.4byte	.LASF29
 864 029f 03       		.byte	0x3
 865 02a0 B8       		.byte	0xb8
 866 02a1 59020000 		.4byte	0x259
 867 02a5 00       		.byte	0
 868 02a6 07       		.uleb128 0x7
 869 02a7 6A040000 		.4byte	.LASF30
 870 02ab 03       		.byte	0x3
 871 02ac B9       		.byte	0xb9
 872 02ad 59020000 		.4byte	0x259
 873 02b1 04       		.byte	0x4
 874 02b2 00       		.byte	0
 875 02b3 04       		.uleb128 0x4
 876 02b4 07000000 		.4byte	.LASF54
 877 02b8 0A       		.byte	0xa
 878 02b9 57       		.byte	0x57
 879 02ba BE020000 		.4byte	0x2be
 880 02be 0B       		.uleb128 0xb
 881 02bf 73030000 		.4byte	.LASF55
 882 02c3 1C       		.byte	0x1c
 883 02c4 03       		.byte	0x3
 884 02c5 9001     		.2byte	0x190
 885 02c7 1A030000 		.4byte	0x31a
 886 02cb 09       		.uleb128 0x9
 887 02cc 38050000 		.4byte	.LASF56
 888 02d0 03       		.byte	0x3
 889 02d1 9101     		.2byte	0x191
 890 02d3 83020000 		.4byte	0x283
 891 02d7 00       		.byte	0
 892 02d8 09       		.uleb128 0x9
 893 02d9 BA040000 		.4byte	.LASF57
 894 02dd 03       		.byte	0x3
ARM GAS  /tmp/cc1COs80.s 			page 17


 895 02de 9201     		.2byte	0x192
 896 02e0 FB000000 		.4byte	0xfb
 897 02e4 08       		.byte	0x8
 898 02e5 09       		.uleb128 0x9
 899 02e6 02040000 		.4byte	.LASF58
 900 02ea 03       		.byte	0x3
 901 02eb 9401     		.2byte	0x194
 902 02ed C2040000 		.4byte	0x4c2
 903 02f1 0C       		.byte	0xc
 904 02f2 09       		.uleb128 0x9
 905 02f3 83020000 		.4byte	.LASF59
 906 02f7 03       		.byte	0x3
 907 02f8 9701     		.2byte	0x197
 908 02fa 59020000 		.4byte	0x259
 909 02fe 10       		.byte	0x10
 910 02ff 09       		.uleb128 0x9
 911 0300 2A040000 		.4byte	.LASF60
 912 0304 03       		.byte	0x3
 913 0305 9801     		.2byte	0x198
 914 0307 59020000 		.4byte	0x259
 915 030b 14       		.byte	0x14
 916 030c 09       		.uleb128 0x9
 917 030d 20040000 		.4byte	.LASF61
 918 0311 03       		.byte	0x3
 919 0312 9B01     		.2byte	0x19b
 920 0314 59020000 		.4byte	0x259
 921 0318 18       		.byte	0x18
 922 0319 00       		.byte	0
 923 031a 04       		.uleb128 0x4
 924 031b A5050000 		.4byte	.LASF62
 925 031f 0A       		.byte	0xa
 926 0320 5C       		.byte	0x5c
 927 0321 25030000 		.4byte	0x325
 928 0325 0A       		.uleb128 0xa
 929 0326 04       		.byte	0x4
 930 0327 2B030000 		.4byte	0x32b
 931 032b 0C       		.uleb128 0xc
 932 032c 36030000 		.4byte	0x336
 933 0330 0D       		.uleb128 0xd
 934 0331 36030000 		.4byte	0x336
 935 0335 00       		.byte	0
 936 0336 0E       		.uleb128 0xe
 937 0337 04       		.byte	0x4
 938 0338 04       		.uleb128 0x4
 939 0339 5A040000 		.4byte	.LASF63
 940 033d 0A       		.byte	0xa
 941 033e 61       		.byte	0x61
 942 033f 43030000 		.4byte	0x343
 943 0343 0B       		.uleb128 0xb
 944 0344 F2040000 		.4byte	.LASF64
 945 0348 14       		.byte	0x14
 946 0349 03       		.byte	0x3
 947 034a 6B01     		.2byte	0x16b
 948 034c 92030000 		.4byte	0x392
 949 0350 09       		.uleb128 0x9
 950 0351 F0020000 		.4byte	.LASF65
 951 0355 03       		.byte	0x3
ARM GAS  /tmp/cc1COs80.s 			page 18


 952 0356 6C01     		.2byte	0x16c
 953 0358 7E070000 		.4byte	0x77e
 954 035c 00       		.byte	0
 955 035d 09       		.uleb128 0x9
 956 035e 94020000 		.4byte	.LASF66
 957 0362 03       		.byte	0x3
 958 0363 6D01     		.2byte	0x16d
 959 0365 7E070000 		.4byte	0x77e
 960 0369 04       		.byte	0x4
 961 036a 09       		.uleb128 0x9
 962 036b 40050000 		.4byte	.LASF67
 963 036f 03       		.byte	0x3
 964 0370 6E01     		.2byte	0x16e
 965 0372 32010000 		.4byte	0x132
 966 0376 08       		.byte	0x8
 967 0377 09       		.uleb128 0x9
 968 0378 9C060000 		.4byte	.LASF68
 969 037c 03       		.byte	0x3
 970 037d 6F01     		.2byte	0x16f
 971 037f 1A030000 		.4byte	0x31a
 972 0383 0C       		.byte	0xc
 973 0384 09       		.uleb128 0x9
 974 0385 E8050000 		.4byte	.LASF69
 975 0389 03       		.byte	0x3
 976 038a 7101     		.2byte	0x171
 977 038c 36030000 		.4byte	0x336
 978 0390 10       		.byte	0x10
 979 0391 00       		.byte	0
 980 0392 04       		.uleb128 0x4
 981 0393 07010000 		.4byte	.LASF70
 982 0397 0A       		.byte	0xa
 983 0398 66       		.byte	0x66
 984 0399 9D030000 		.4byte	0x39d
 985 039d 0B       		.uleb128 0xb
 986 039e C8030000 		.4byte	.LASF71
 987 03a2 10       		.byte	0x10
 988 03a3 03       		.byte	0x3
 989 03a4 7B01     		.2byte	0x17b
 990 03a6 DF030000 		.4byte	0x3df
 991 03aa 09       		.uleb128 0x9
 992 03ab F0020000 		.4byte	.LASF65
 993 03af 03       		.byte	0x3
 994 03b0 7C01     		.2byte	0x17c
 995 03b2 7E070000 		.4byte	0x77e
 996 03b6 00       		.byte	0
 997 03b7 09       		.uleb128 0x9
 998 03b8 94020000 		.4byte	.LASF66
 999 03bc 03       		.byte	0x3
 1000 03bd 7E01     		.2byte	0x17e
 1001 03bf 7E070000 		.4byte	0x77e
 1002 03c3 04       		.byte	0x4
 1003 03c4 09       		.uleb128 0x9
 1004 03c5 40050000 		.4byte	.LASF67
 1005 03c9 03       		.byte	0x3
 1006 03ca 8001     		.2byte	0x180
 1007 03cc 32010000 		.4byte	0x132
 1008 03d0 08       		.byte	0x8
ARM GAS  /tmp/cc1COs80.s 			page 19


 1009 03d1 09       		.uleb128 0x9
 1010 03d2 EE030000 		.4byte	.LASF72
 1011 03d6 03       		.byte	0x3
 1012 03d7 8801     		.2byte	0x188
 1013 03d9 32010000 		.4byte	0x132
 1014 03dd 0C       		.byte	0xc
 1015 03de 00       		.byte	0
 1016 03df 04       		.uleb128 0x4
 1017 03e0 8F000000 		.4byte	.LASF73
 1018 03e4 0A       		.byte	0xa
 1019 03e5 6B       		.byte	0x6b
 1020 03e6 EA030000 		.4byte	0x3ea
 1021 03ea 0F       		.uleb128 0xf
 1022 03eb 9C020000 		.4byte	.LASF74
 1023 03ef 1404     		.2byte	0x414
 1024 03f1 03       		.byte	0x3
 1025 03f2 A201     		.2byte	0x1a2
 1026 03f4 2D040000 		.4byte	0x42d
 1027 03f8 09       		.uleb128 0x9
 1028 03f9 C7050000 		.4byte	.LASF75
 1029 03fd 03       		.byte	0x3
 1030 03fe AA01     		.2byte	0x1aa
 1031 0400 84070000 		.4byte	0x784
 1032 0404 00       		.byte	0
 1033 0405 09       		.uleb128 0x9
 1034 0406 19060000 		.4byte	.LASF76
 1035 040a 03       		.byte	0x3
 1036 040b AF01     		.2byte	0x1af
 1037 040d 1C010000 		.4byte	0x11c
 1038 0411 04       		.byte	0x4
 1039 0412 09       		.uleb128 0x9
 1040 0413 BA020000 		.4byte	.LASF77
 1041 0417 03       		.byte	0x3
 1042 0418 B301     		.2byte	0x1b3
 1043 041a 1C010000 		.4byte	0x11c
 1044 041e 08       		.byte	0x8
 1045 041f 09       		.uleb128 0x9
 1046 0420 4C060000 		.4byte	.LASF78
 1047 0424 03       		.byte	0x3
 1048 0425 B901     		.2byte	0x1b9
 1049 0427 E4050000 		.4byte	0x5e4
 1050 042b 0C       		.byte	0xc
 1051 042c 00       		.byte	0
 1052 042d 04       		.uleb128 0x4
 1053 042e 54030000 		.4byte	.LASF79
 1054 0432 0A       		.byte	0xa
 1055 0433 70       		.byte	0x70
 1056 0434 38040000 		.4byte	0x438
 1057 0438 0F       		.uleb128 0xf
 1058 0439 7F010000 		.4byte	.LASF80
 1059 043d D805     		.2byte	0x5d8
 1060 043f 03       		.byte	0x3
 1061 0440 C201     		.2byte	0x1c2
 1062 0442 A5040000 		.4byte	0x4a5
 1063 0446 09       		.uleb128 0x9
 1064 0447 21060000 		.4byte	.LASF81
 1065 044b 03       		.byte	0x3
ARM GAS  /tmp/cc1COs80.s 			page 20


 1066 044c C601     		.2byte	0x1c6
 1067 044e B3020000 		.4byte	0x2b3
 1068 0452 00       		.byte	0
 1069 0453 09       		.uleb128 0x9
 1070 0454 6C010000 		.4byte	.LASF82
 1071 0458 03       		.byte	0x3
 1072 0459 CA01     		.2byte	0x1ca
 1073 045b 92030000 		.4byte	0x392
 1074 045f 1C       		.byte	0x1c
 1075 0460 08       		.uleb128 0x8
 1076 0461 64626700 		.ascii	"dbg\000"
 1077 0465 03       		.byte	0x3
 1078 0466 CE01     		.2byte	0x1ce
 1079 0468 DF030000 		.4byte	0x3df
 1080 046c 2C       		.byte	0x2c
 1081 046d 10       		.uleb128 0x10
 1082 046e FC000000 		.4byte	.LASF83
 1083 0472 03       		.byte	0x3
 1084 0473 D201     		.2byte	0x1d2
 1085 0475 3D010000 		.4byte	0x13d
 1086 0479 4004     		.2byte	0x440
 1087 047b 11       		.uleb128 0x11
 1088 047c 746D00   		.ascii	"tm\000"
 1089 047f 03       		.byte	0x3
 1090 0480 D701     		.2byte	0x1d7
 1091 0482 04060000 		.4byte	0x604
 1092 0486 A004     		.2byte	0x4a0
 1093 0488 10       		.uleb128 0x10
 1094 0489 5B000000 		.4byte	.LASF84
 1095 048d 03       		.byte	0x3
 1096 048e DD01     		.2byte	0x1dd
 1097 0490 96060000 		.4byte	0x696
 1098 0494 A804     		.2byte	0x4a8
 1099 0496 10       		.uleb128 0x10
 1100 0497 C3020000 		.4byte	.LASF85
 1101 049b 03       		.byte	0x3
 1102 049c E301     		.2byte	0x1e3
 1103 049e 89070000 		.4byte	0x789
 1104 04a2 E004     		.2byte	0x4e0
 1105 04a4 00       		.byte	0
 1106 04a5 03       		.uleb128 0x3
 1107 04a6 04       		.byte	0x4
 1108 04a7 07       		.byte	0x7
 1109 04a8 AC030000 		.4byte	.LASF86
 1110 04ac 04       		.uleb128 0x4
 1111 04ad 8B020000 		.4byte	.LASF87
 1112 04b1 0B       		.byte	0xb
 1113 04b2 65       		.byte	0x65
 1114 04b3 36030000 		.4byte	0x336
 1115 04b7 04       		.uleb128 0x4
 1116 04b8 97030000 		.4byte	.LASF88
 1117 04bc 0B       		.byte	0xb
 1118 04bd 6D       		.byte	0x6d
 1119 04be B4000000 		.4byte	0xb4
 1120 04c2 06       		.uleb128 0x6
 1121 04c3 D8050000 		.4byte	.LASF89
 1122 04c7 04       		.byte	0x4
ARM GAS  /tmp/cc1COs80.s 			page 21


 1123 04c8 0B       		.byte	0xb
 1124 04c9 89       		.byte	0x89
 1125 04ca DB040000 		.4byte	0x4db
 1126 04ce 12       		.uleb128 0x12
 1127 04cf 72313300 		.ascii	"r13\000"
 1128 04d3 0B       		.byte	0xb
 1129 04d4 8A       		.byte	0x8a
 1130 04d5 56050000 		.4byte	0x556
 1131 04d9 00       		.byte	0
 1132 04da 00       		.byte	0
 1133 04db 06       		.uleb128 0x6
 1134 04dc 72000000 		.4byte	.LASF90
 1135 04e0 24       		.byte	0x24
 1136 04e1 01       		.byte	0x1
 1137 04e2 FD       		.byte	0xfd
 1138 04e3 56050000 		.4byte	0x556
 1139 04e7 08       		.uleb128 0x8
 1140 04e8 723400   		.ascii	"r4\000"
 1141 04eb 01       		.byte	0x1
 1142 04ec 1001     		.2byte	0x110
 1143 04ee AC040000 		.4byte	0x4ac
 1144 04f2 00       		.byte	0
 1145 04f3 08       		.uleb128 0x8
 1146 04f4 723500   		.ascii	"r5\000"
 1147 04f7 01       		.byte	0x1
 1148 04f8 1101     		.2byte	0x111
 1149 04fa AC040000 		.4byte	0x4ac
 1150 04fe 04       		.byte	0x4
 1151 04ff 08       		.uleb128 0x8
 1152 0500 723600   		.ascii	"r6\000"
 1153 0503 01       		.byte	0x1
 1154 0504 1201     		.2byte	0x112
 1155 0506 AC040000 		.4byte	0x4ac
 1156 050a 08       		.byte	0x8
 1157 050b 08       		.uleb128 0x8
 1158 050c 723700   		.ascii	"r7\000"
 1159 050f 01       		.byte	0x1
 1160 0510 1301     		.2byte	0x113
 1161 0512 AC040000 		.4byte	0x4ac
 1162 0516 0C       		.byte	0xc
 1163 0517 08       		.uleb128 0x8
 1164 0518 723800   		.ascii	"r8\000"
 1165 051b 01       		.byte	0x1
 1166 051c 1401     		.2byte	0x114
 1167 051e AC040000 		.4byte	0x4ac
 1168 0522 10       		.byte	0x10
 1169 0523 08       		.uleb128 0x8
 1170 0524 723900   		.ascii	"r9\000"
 1171 0527 01       		.byte	0x1
 1172 0528 1501     		.2byte	0x115
 1173 052a AC040000 		.4byte	0x4ac
 1174 052e 14       		.byte	0x14
 1175 052f 08       		.uleb128 0x8
 1176 0530 72313000 		.ascii	"r10\000"
 1177 0534 01       		.byte	0x1
 1178 0535 1601     		.2byte	0x116
 1179 0537 AC040000 		.4byte	0x4ac
ARM GAS  /tmp/cc1COs80.s 			page 22


 1180 053b 18       		.byte	0x18
 1181 053c 08       		.uleb128 0x8
 1182 053d 72313100 		.ascii	"r11\000"
 1183 0541 01       		.byte	0x1
 1184 0542 1701     		.2byte	0x117
 1185 0544 AC040000 		.4byte	0x4ac
 1186 0548 1C       		.byte	0x1c
 1187 0549 08       		.uleb128 0x8
 1188 054a 6C7200   		.ascii	"lr\000"
 1189 054d 01       		.byte	0x1
 1190 054e 1801     		.2byte	0x118
 1191 0550 AC040000 		.4byte	0x4ac
 1192 0554 20       		.byte	0x20
 1193 0555 00       		.byte	0
 1194 0556 0A       		.uleb128 0xa
 1195 0557 04       		.byte	0x4
 1196 0558 DB040000 		.4byte	0x4db
 1197 055c 13       		.uleb128 0x13
 1198 055d 10       		.byte	0x10
 1199 055e 0C       		.byte	0xc
 1200 055f 51       		.byte	0x51
 1201 0560 95050000 		.4byte	0x595
 1202 0564 07       		.uleb128 0x7
 1203 0565 54010000 		.4byte	.LASF91
 1204 0569 0C       		.byte	0xc
 1205 056a 55       		.byte	0x55
 1206 056b 32010000 		.4byte	0x132
 1207 056f 00       		.byte	0
 1208 0570 07       		.uleb128 0x7
 1209 0571 A5010000 		.4byte	.LASF92
 1210 0575 0C       		.byte	0xc
 1211 0576 59       		.byte	0x59
 1212 0577 59020000 		.4byte	0x259
 1213 057b 04       		.byte	0x4
 1214 057c 07       		.uleb128 0x7
 1215 057d 8C060000 		.4byte	.LASF93
 1216 0581 0C       		.byte	0xc
 1217 0582 5D       		.byte	0x5d
 1218 0583 36030000 		.4byte	0x336
 1219 0587 08       		.byte	0x8
 1220 0588 07       		.uleb128 0x7
 1221 0589 EA000000 		.4byte	.LASF94
 1222 058d 0C       		.byte	0xc
 1223 058e 61       		.byte	0x61
 1224 058f 93000000 		.4byte	0x93
 1225 0593 0C       		.byte	0xc
 1226 0594 00       		.byte	0
 1227 0595 04       		.uleb128 0x4
 1228 0596 DF030000 		.4byte	.LASF95
 1229 059a 0C       		.byte	0xc
 1230 059b 62       		.byte	0x62
 1231 059c 5C050000 		.4byte	0x55c
 1232 05a0 14       		.uleb128 0x14
 1233 05a1 0804     		.2byte	0x408
 1234 05a3 0C       		.byte	0xc
 1235 05a4 67       		.byte	0x67
 1236 05a5 CE050000 		.4byte	0x5ce
ARM GAS  /tmp/cc1COs80.s 			page 23


 1237 05a9 07       		.uleb128 0x7
 1238 05aa 7B020000 		.4byte	.LASF96
 1239 05ae 0C       		.byte	0xc
 1240 05af 6B       		.byte	0x6b
 1241 05b0 28000000 		.4byte	0x28
 1242 05b4 00       		.byte	0
 1243 05b5 07       		.uleb128 0x7
 1244 05b6 00000000 		.4byte	.LASF97
 1245 05ba 0C       		.byte	0xc
 1246 05bb 6F       		.byte	0x6f
 1247 05bc CE050000 		.4byte	0x5ce
 1248 05c0 04       		.byte	0x4
 1249 05c1 07       		.uleb128 0x7
 1250 05c2 50040000 		.4byte	.LASF98
 1251 05c6 0C       		.byte	0xc
 1252 05c7 73       		.byte	0x73
 1253 05c8 D4050000 		.4byte	0x5d4
 1254 05cc 08       		.byte	0x8
 1255 05cd 00       		.byte	0
 1256 05ce 0A       		.uleb128 0xa
 1257 05cf 04       		.byte	0x4
 1258 05d0 95050000 		.4byte	0x595
 1259 05d4 15       		.uleb128 0x15
 1260 05d5 95050000 		.4byte	0x595
 1261 05d9 E4050000 		.4byte	0x5e4
 1262 05dd 16       		.uleb128 0x16
 1263 05de A5040000 		.4byte	0x4a5
 1264 05e2 3F       		.byte	0x3f
 1265 05e3 00       		.byte	0
 1266 05e4 04       		.uleb128 0x4
 1267 05e5 D8000000 		.4byte	.LASF99
 1268 05e9 0C       		.byte	0xc
 1269 05ea 74       		.byte	0x74
 1270 05eb A0050000 		.4byte	0x5a0
 1271 05ef 13       		.uleb128 0x13
 1272 05f0 04       		.byte	0x4
 1273 05f1 0D       		.byte	0xd
 1274 05f2 38       		.byte	0x38
 1275 05f3 04060000 		.4byte	0x604
 1276 05f7 07       		.uleb128 0x7
 1277 05f8 D1050000 		.4byte	.LASF100
 1278 05fc 0D       		.byte	0xd
 1279 05fd 3C       		.byte	0x3c
 1280 05fe C4000000 		.4byte	0xc4
 1281 0602 00       		.byte	0
 1282 0603 00       		.byte	0
 1283 0604 04       		.uleb128 0x4
 1284 0605 08040000 		.4byte	.LASF101
 1285 0609 0D       		.byte	0xd
 1286 060a 3D       		.byte	0x3d
 1287 060b EF050000 		.4byte	0x5ef
 1288 060f 13       		.uleb128 0x13
 1289 0610 18       		.byte	0x18
 1290 0611 0D       		.byte	0xd
 1291 0612 48       		.byte	0x48
 1292 0613 52060000 		.4byte	0x652
 1293 0617 07       		.uleb128 0x7
ARM GAS  /tmp/cc1COs80.s 			page 24


 1294 0618 79050000 		.4byte	.LASF102
 1295 061c 0D       		.byte	0xd
 1296 061d 49       		.byte	0x49
 1297 061e C4000000 		.4byte	0xc4
 1298 0622 00       		.byte	0
 1299 0623 07       		.uleb128 0x7
 1300 0624 A8000000 		.4byte	.LASF103
 1301 0628 0D       		.byte	0xd
 1302 0629 4A       		.byte	0x4a
 1303 062a C4000000 		.4byte	0xc4
 1304 062e 04       		.byte	0x4
 1305 062f 07       		.uleb128 0x7
 1306 0630 48030000 		.4byte	.LASF104
 1307 0634 0D       		.byte	0xd
 1308 0635 4B       		.byte	0x4b
 1309 0636 C4000000 		.4byte	0xc4
 1310 063a 08       		.byte	0x8
 1311 063b 12       		.uleb128 0x12
 1312 063c 6E00     		.ascii	"n\000"
 1313 063e 0D       		.byte	0xd
 1314 063f 4C       		.byte	0x4c
 1315 0640 27010000 		.4byte	0x127
 1316 0644 0C       		.byte	0xc
 1317 0645 07       		.uleb128 0x7
 1318 0646 3D040000 		.4byte	.LASF105
 1319 064a 0D       		.byte	0xd
 1320 064b 4D       		.byte	0x4d
 1321 064c CF000000 		.4byte	0xcf
 1322 0650 10       		.byte	0x10
 1323 0651 00       		.byte	0
 1324 0652 04       		.uleb128 0x4
 1325 0653 AE000000 		.4byte	.LASF106
 1326 0657 0D       		.byte	0xd
 1327 0658 4E       		.byte	0x4e
 1328 0659 0F060000 		.4byte	0x60f
 1329 065d 13       		.uleb128 0x13
 1330 065e 38       		.byte	0x38
 1331 065f 0E       		.byte	0xe
 1332 0660 38       		.byte	0x38
 1333 0661 96060000 		.4byte	0x696
 1334 0665 07       		.uleb128 0x7
 1335 0666 0A030000 		.4byte	.LASF107
 1336 066a 0E       		.byte	0xe
 1337 066b 39       		.byte	0x39
 1338 066c 27010000 		.4byte	0x127
 1339 0670 00       		.byte	0
 1340 0671 07       		.uleb128 0x7
 1341 0672 79040000 		.4byte	.LASF108
 1342 0676 0E       		.byte	0xe
 1343 0677 3A       		.byte	0x3a
 1344 0678 27010000 		.4byte	0x127
 1345 067c 04       		.byte	0x4
 1346 067d 07       		.uleb128 0x7
 1347 067e 79060000 		.4byte	.LASF109
 1348 0682 0E       		.byte	0xe
 1349 0683 3B       		.byte	0x3b
 1350 0684 52060000 		.4byte	0x652
ARM GAS  /tmp/cc1COs80.s 			page 25


 1351 0688 08       		.byte	0x8
 1352 0689 07       		.uleb128 0x7
 1353 068a 68030000 		.4byte	.LASF110
 1354 068e 0E       		.byte	0xe
 1355 068f 3D       		.byte	0x3d
 1356 0690 52060000 		.4byte	0x652
 1357 0694 20       		.byte	0x20
 1358 0695 00       		.byte	0
 1359 0696 04       		.uleb128 0x4
 1360 0697 29030000 		.4byte	.LASF111
 1361 069b 0E       		.byte	0xe
 1362 069c 3F       		.byte	0x3f
 1363 069d 5D060000 		.4byte	0x65d
 1364 06a1 17       		.uleb128 0x17
 1365 06a2 04       		.byte	0x4
 1366 06a3 03       		.byte	0x3
 1367 06a4 FA       		.byte	0xfa
 1368 06a5 FE060000 		.4byte	0x6fe
 1369 06a9 18       		.uleb128 0x18
 1370 06aa 4B000000 		.4byte	.LASF112
 1371 06ae 03       		.byte	0x3
 1372 06af 0101     		.2byte	0x101
 1373 06b1 06010000 		.4byte	0x106
 1374 06b5 18       		.uleb128 0x18
 1375 06b6 F3000000 		.4byte	.LASF113
 1376 06ba 03       		.byte	0x3
 1377 06bb 0801     		.2byte	0x108
 1378 06bd 06010000 		.4byte	0x106
 1379 06c1 18       		.uleb128 0x18
 1380 06c2 2F060000 		.4byte	.LASF114
 1381 06c6 03       		.byte	0x3
 1382 06c7 0F01     		.2byte	0x10f
 1383 06c9 36030000 		.4byte	0x336
 1384 06cd 18       		.uleb128 0x18
 1385 06ce 21000000 		.4byte	.LASF115
 1386 06d2 03       		.byte	0x3
 1387 06d3 1601     		.2byte	0x116
 1388 06d5 FE060000 		.4byte	0x6fe
 1389 06d9 18       		.uleb128 0x18
 1390 06da F8020000 		.4byte	.LASF116
 1391 06de 03       		.byte	0x3
 1392 06df 1E01     		.2byte	0x11e
 1393 06e1 29070000 		.4byte	0x729
 1394 06e5 18       		.uleb128 0x18
 1395 06e6 31050000 		.4byte	.LASF117
 1396 06ea 03       		.byte	0x3
 1397 06eb 2701     		.2byte	0x127
 1398 06ed 60070000 		.4byte	0x760
 1399 06f1 18       		.uleb128 0x18
 1400 06f2 C1040000 		.4byte	.LASF118
 1401 06f6 03       		.byte	0x3
 1402 06f7 2F01     		.2byte	0x12f
 1403 06f9 11010000 		.4byte	0x111
 1404 06fd 00       		.byte	0
 1405 06fe 0A       		.uleb128 0xa
 1406 06ff 04       		.byte	0x4
 1407 0700 4E020000 		.4byte	0x24e
ARM GAS  /tmp/cc1COs80.s 			page 26


 1408 0704 06       		.uleb128 0x6
 1409 0705 10050000 		.4byte	.LASF119
 1410 0709 0C       		.byte	0xc
 1411 070a 0F       		.byte	0xf
 1412 070b 34       		.byte	0x34
 1413 070c 29070000 		.4byte	0x729
 1414 0710 07       		.uleb128 0x7
 1415 0711 73020000 		.4byte	.LASF120
 1416 0715 0F       		.byte	0xf
 1417 0716 35       		.byte	0x35
 1418 0717 83020000 		.4byte	0x283
 1419 071b 00       		.byte	0
 1420 071c 07       		.uleb128 0x7
 1421 071d 10030000 		.4byte	.LASF121
 1422 0721 0F       		.byte	0xf
 1423 0722 37       		.byte	0x37
 1424 0723 1C010000 		.4byte	0x11c
 1425 0727 08       		.byte	0x8
 1426 0728 00       		.byte	0
 1427 0729 0A       		.uleb128 0xa
 1428 072a 04       		.byte	0x4
 1429 072b 04070000 		.4byte	0x704
 1430 072f 06       		.uleb128 0x6
 1431 0730 09060000 		.4byte	.LASF122
 1432 0734 10       		.byte	0x10
 1433 0735 10       		.byte	0x10
 1434 0736 39       		.byte	0x39
 1435 0737 60070000 		.4byte	0x760
 1436 073b 07       		.uleb128 0x7
 1437 073c 64010000 		.4byte	.LASF123
 1438 0740 10       		.byte	0x10
 1439 0741 3A       		.byte	0x3a
 1440 0742 83020000 		.4byte	0x283
 1441 0746 00       		.byte	0
 1442 0747 07       		.uleb128 0x7
 1443 0748 84060000 		.4byte	.LASF124
 1444 074c 10       		.byte	0x10
 1445 074d 3C       		.byte	0x3c
 1446 074e 59020000 		.4byte	0x259
 1447 0752 08       		.byte	0x8
 1448 0753 07       		.uleb128 0x7
 1449 0754 19040000 		.4byte	.LASF125
 1450 0758 10       		.byte	0x10
 1451 0759 3E       		.byte	0x3e
 1452 075a A4070000 		.4byte	0x7a4
 1453 075e 0C       		.byte	0xc
 1454 075f 00       		.byte	0
 1455 0760 0A       		.uleb128 0xa
 1456 0761 04       		.byte	0x4
 1457 0762 2F070000 		.4byte	0x72f
 1458 0766 0A       		.uleb128 0xa
 1459 0767 04       		.byte	0x4
 1460 0768 6C070000 		.4byte	0x76c
 1461 076c 19       		.uleb128 0x19
 1462 076d 71070000 		.4byte	0x771
 1463 0771 03       		.uleb128 0x3
 1464 0772 01       		.byte	0x1
ARM GAS  /tmp/cc1COs80.s 			page 27


 1465 0773 08       		.byte	0x8
 1466 0774 6B050000 		.4byte	.LASF126
 1467 0778 0A       		.uleb128 0xa
 1468 0779 04       		.byte	0x4
 1469 077a B7040000 		.4byte	0x4b7
 1470 077e 0A       		.uleb128 0xa
 1471 077f 04       		.byte	0x4
 1472 0780 38030000 		.4byte	0x338
 1473 0784 05       		.uleb128 0x5
 1474 0785 66070000 		.4byte	0x766
 1475 0789 15       		.uleb128 0x15
 1476 078a B7040000 		.4byte	0x4b7
 1477 078e 99070000 		.4byte	0x799
 1478 0792 16       		.uleb128 0x16
 1479 0793 A5040000 		.4byte	0x4a5
 1480 0797 1E       		.byte	0x1e
 1481 0798 00       		.byte	0
 1482 0799 04       		.uleb128 0x4
 1483 079a AC020000 		.4byte	.LASF127
 1484 079e 10       		.byte	0x10
 1485 079f 34       		.byte	0x34
 1486 07a0 2F070000 		.4byte	0x72f
 1487 07a4 0A       		.uleb128 0xa
 1488 07a5 04       		.byte	0x4
 1489 07a6 99070000 		.4byte	0x799
 1490 07aa 1A       		.uleb128 0x1a
 1491 07ab B9050000 		.4byte	.LASF142
 1492 07af 02       		.byte	0x2
 1493 07b0 2202     		.2byte	0x222
 1494 07b2 03       		.byte	0x3
 1495 07b3 C4070000 		.4byte	0x7c4
 1496 07b7 1B       		.uleb128 0x1b
 1497 07b8 B4020000 		.4byte	.LASF143
 1498 07bc 02       		.byte	0x2
 1499 07bd 2202     		.2byte	0x222
 1500 07bf A9000000 		.4byte	0xa9
 1501 07c3 00       		.byte	0
 1502 07c4 1C       		.uleb128 0x1c
 1503 07c5 9E000000 		.4byte	.LASF128
 1504 07c9 01       		.byte	0x1
 1505 07ca C801     		.2byte	0x1c8
 1506 07cc 00000000 		.4byte	.LFB127
 1507 07d0 10000000 		.4byte	.LFE127-.LFB127
 1508 07d4 01       		.uleb128 0x1
 1509 07d5 9C       		.byte	0x9c
 1510 07d6 F4070000 		.4byte	0x7f4
 1511 07da 1D       		.uleb128 0x1d
 1512 07db AA070000 		.4byte	0x7aa
 1513 07df 06000000 		.4byte	.LBB6
 1514 07e3 06000000 		.4byte	.LBE6-.LBB6
 1515 07e7 01       		.byte	0x1
 1516 07e8 CB01     		.2byte	0x1cb
 1517 07ea 1E       		.uleb128 0x1e
 1518 07eb B7070000 		.4byte	0x7b7
 1519 07ef 02       		.uleb128 0x2
 1520 07f0 91       		.byte	0x91
 1521 07f1 7C       		.sleb128 -4
ARM GAS  /tmp/cc1COs80.s 			page 28


 1522 07f2 00       		.byte	0
 1523 07f3 00       		.byte	0
 1524 07f4 1C       		.uleb128 0x1c
 1525 07f5 73010000 		.4byte	.LASF129
 1526 07f9 01       		.byte	0x1
 1527 07fa D601     		.2byte	0x1d6
 1528 07fc 00000000 		.4byte	.LFB128
 1529 0800 10000000 		.4byte	.LFE128-.LFB128
 1530 0804 01       		.uleb128 0x1
 1531 0805 9C       		.byte	0x9c
 1532 0806 24080000 		.4byte	0x824
 1533 080a 1D       		.uleb128 0x1d
 1534 080b AA070000 		.4byte	0x7aa
 1535 080f 06000000 		.4byte	.LBB8
 1536 0813 06000000 		.4byte	.LBE8-.LBB8
 1537 0817 01       		.byte	0x1
 1538 0818 D901     		.2byte	0x1d9
 1539 081a 1E       		.uleb128 0x1e
 1540 081b B7070000 		.4byte	0x7b7
 1541 081f 02       		.uleb128 0x2
 1542 0820 91       		.byte	0x91
 1543 0821 7C       		.sleb128 -4
 1544 0822 00       		.byte	0
 1545 0823 00       		.byte	0
 1546 0824 1C       		.uleb128 0x1c
 1547 0825 14000000 		.4byte	.LASF130
 1548 0829 03       		.byte	0x3
 1549 082a 9702     		.2byte	0x297
 1550 082c 00000000 		.4byte	.LFB156
 1551 0830 26000000 		.4byte	.LFE156-.LFB156
 1552 0834 01       		.uleb128 0x1
 1553 0835 9C       		.byte	0x9c
 1554 0836 58080000 		.4byte	0x858
 1555 083a 1F       		.uleb128 0x1f
 1556 083b 747000   		.ascii	"tp\000"
 1557 083e 03       		.byte	0x3
 1558 083f 9702     		.2byte	0x297
 1559 0841 59020000 		.4byte	0x259
 1560 0845 02       		.uleb128 0x2
 1561 0846 91       		.byte	0x91
 1562 0847 7C       		.sleb128 -4
 1563 0848 1F       		.uleb128 0x1f
 1564 0849 74717000 		.ascii	"tqp\000"
 1565 084d 03       		.byte	0x3
 1566 084e 9702     		.2byte	0x297
 1567 0850 58080000 		.4byte	0x858
 1568 0854 02       		.uleb128 0x2
 1569 0855 91       		.byte	0x91
 1570 0856 78       		.sleb128 -8
 1571 0857 00       		.byte	0
 1572 0858 0A       		.uleb128 0xa
 1573 0859 04       		.byte	0x4
 1574 085a 83020000 		.4byte	0x283
 1575 085e 20       		.uleb128 0x20
 1576 085f 7E050000 		.4byte	.LASF132
 1577 0863 03       		.byte	0x3
 1578 0864 9F02     		.2byte	0x29f
ARM GAS  /tmp/cc1COs80.s 			page 29


 1579 0866 59020000 		.4byte	0x259
 1580 086a 00000000 		.4byte	.LFB157
 1581 086e 22000000 		.4byte	.LFE157-.LFB157
 1582 0872 01       		.uleb128 0x1
 1583 0873 9C       		.byte	0x9c
 1584 0874 96080000 		.4byte	0x896
 1585 0878 1F       		.uleb128 0x1f
 1586 0879 74717000 		.ascii	"tqp\000"
 1587 087d 03       		.byte	0x3
 1588 087e 9F02     		.2byte	0x29f
 1589 0880 58080000 		.4byte	0x858
 1590 0884 02       		.uleb128 0x2
 1591 0885 91       		.byte	0x91
 1592 0886 74       		.sleb128 -12
 1593 0887 21       		.uleb128 0x21
 1594 0888 747000   		.ascii	"tp\000"
 1595 088b 03       		.byte	0x3
 1596 088c A002     		.2byte	0x2a0
 1597 088e 59020000 		.4byte	0x259
 1598 0892 02       		.uleb128 0x2
 1599 0893 91       		.byte	0x91
 1600 0894 7C       		.sleb128 -4
 1601 0895 00       		.byte	0
 1602 0896 22       		.uleb128 0x22
 1603 0897 E8040000 		.4byte	.LASF144
 1604 089b 04       		.byte	0x4
 1605 089c 5A01     		.2byte	0x15a
 1606 089e 00000000 		.4byte	.LFB167
 1607 08a2 10000000 		.4byte	.LFE167-.LFB167
 1608 08a6 01       		.uleb128 0x1
 1609 08a7 9C       		.byte	0x9c
 1610 08a8 23       		.uleb128 0x23
 1611 08a9 59060000 		.4byte	.LASF131
 1612 08ad 04       		.byte	0x4
 1613 08ae 6601     		.2byte	0x166
 1614 08b0 00000000 		.4byte	.LFB168
 1615 08b4 38000000 		.4byte	.LFE168-.LFB168
 1616 08b8 01       		.uleb128 0x1
 1617 08b9 9C       		.byte	0x9c
 1618 08ba CE080000 		.4byte	0x8ce
 1619 08be 24       		.uleb128 0x24
 1620 08bf D7040000 		.4byte	.LASF136
 1621 08c3 DE080000 		.4byte	0x8de
 1622 08c7 05       		.uleb128 0x5
 1623 08c8 03       		.byte	0x3
 1624 08c9 00000000 		.4byte	__func__.5925
 1625 08cd 00       		.byte	0
 1626 08ce 15       		.uleb128 0x15
 1627 08cf 71070000 		.4byte	0x771
 1628 08d3 DE080000 		.4byte	0x8de
 1629 08d7 16       		.uleb128 0x16
 1630 08d8 A5040000 		.4byte	0x4a5
 1631 08dc 0B       		.byte	0xb
 1632 08dd 00       		.byte	0
 1633 08de 19       		.uleb128 0x19
 1634 08df CE080000 		.4byte	0x8ce
 1635 08e3 25       		.uleb128 0x25
ARM GAS  /tmp/cc1COs80.s 			page 30


 1636 08e4 AB010000 		.4byte	.LASF133
 1637 08e8 05       		.byte	0x5
 1638 08e9 4F       		.byte	0x4f
 1639 08ea 0A090000 		.4byte	0x90a
 1640 08ee 00000000 		.4byte	.LFB221
 1641 08f2 24000000 		.4byte	.LFE221-.LFB221
 1642 08f6 01       		.uleb128 0x1
 1643 08f7 9C       		.byte	0x9c
 1644 08f8 0A090000 		.4byte	0x90a
 1645 08fc 26       		.uleb128 0x26
 1646 08fd 747000   		.ascii	"tp\000"
 1647 0900 05       		.byte	0x5
 1648 0901 4F       		.byte	0x4f
 1649 0902 59020000 		.4byte	0x259
 1650 0906 02       		.uleb128 0x2
 1651 0907 91       		.byte	0x91
 1652 0908 74       		.sleb128 -12
 1653 0909 00       		.byte	0
 1654 090a 03       		.uleb128 0x3
 1655 090b 01       		.byte	0x1
 1656 090c 02       		.byte	0x2
 1657 090d 82040000 		.4byte	.LASF134
 1658 0911 27       		.uleb128 0x27
 1659 0912 6B060000 		.4byte	.LASF135
 1660 0916 05       		.byte	0x5
 1661 0917 6F       		.byte	0x6f
 1662 0918 00000000 		.4byte	.LFB223
 1663 091c 1A000000 		.4byte	.LFE223-.LFB223
 1664 0920 01       		.uleb128 0x1
 1665 0921 9C       		.byte	0x9c
 1666 0922 42090000 		.4byte	0x942
 1667 0926 26       		.uleb128 0x26
 1668 0927 747000   		.ascii	"tp\000"
 1669 092a 05       		.byte	0x5
 1670 092b 6F       		.byte	0x6f
 1671 092c 59020000 		.4byte	0x259
 1672 0930 02       		.uleb128 0x2
 1673 0931 91       		.byte	0x91
 1674 0932 74       		.sleb128 -12
 1675 0933 26       		.uleb128 0x26
 1676 0934 6D736700 		.ascii	"msg\000"
 1677 0938 05       		.byte	0x5
 1678 0939 6F       		.byte	0x6f
 1679 093a 06010000 		.4byte	0x106
 1680 093e 02       		.uleb128 0x2
 1681 093f 91       		.byte	0x91
 1682 0940 70       		.sleb128 -16
 1683 0941 00       		.byte	0
 1684 0942 28       		.uleb128 0x28
 1685 0943 92010000 		.4byte	.LASF137
 1686 0947 06       		.byte	0x6
 1687 0948 57       		.byte	0x57
 1688 0949 06010000 		.4byte	0x106
 1689 094d 00000000 		.4byte	.LFB240
 1690 0951 6C000000 		.4byte	.LFE240-.LFB240
 1691 0955 01       		.uleb128 0x1
 1692 0956 9C       		.byte	0x9c
ARM GAS  /tmp/cc1COs80.s 			page 31


 1693 0957 94090000 		.4byte	0x994
 1694 095b 26       		.uleb128 0x26
 1695 095c 747000   		.ascii	"tp\000"
 1696 095f 06       		.byte	0x6
 1697 0960 57       		.byte	0x57
 1698 0961 59020000 		.4byte	0x259
 1699 0965 02       		.uleb128 0x2
 1700 0966 91       		.byte	0x91
 1701 0967 6C       		.sleb128 -20
 1702 0968 26       		.uleb128 0x26
 1703 0969 6D736700 		.ascii	"msg\000"
 1704 096d 06       		.byte	0x6
 1705 096e 57       		.byte	0x57
 1706 096f 06010000 		.4byte	0x106
 1707 0973 02       		.uleb128 0x2
 1708 0974 91       		.byte	0x91
 1709 0975 68       		.sleb128 -24
 1710 0976 29       		.uleb128 0x29
 1711 0977 63747000 		.ascii	"ctp\000"
 1712 097b 06       		.byte	0x6
 1713 097c 58       		.byte	0x58
 1714 097d 59020000 		.4byte	0x259
 1715 0981 02       		.uleb128 0x2
 1716 0982 91       		.byte	0x91
 1717 0983 74       		.sleb128 -12
 1718 0984 24       		.uleb128 0x24
 1719 0985 D7040000 		.4byte	.LASF136
 1720 0989 A4090000 		.4byte	0x9a4
 1721 098d 05       		.uleb128 0x5
 1722 098e 03       		.byte	0x3
 1723 098f 00000000 		.4byte	__func__.6622
 1724 0993 00       		.byte	0
 1725 0994 15       		.uleb128 0x15
 1726 0995 71070000 		.4byte	0x771
 1727 0999 A4090000 		.4byte	0x9a4
 1728 099d 16       		.uleb128 0x16
 1729 099e A5040000 		.4byte	0x4a5
 1730 09a2 09       		.byte	0x9
 1731 09a3 00       		.byte	0
 1732 09a4 19       		.uleb128 0x19
 1733 09a5 94090000 		.4byte	0x994
 1734 09a9 28       		.uleb128 0x28
 1735 09aa EF050000 		.4byte	.LASF138
 1736 09ae 06       		.byte	0x6
 1737 09af 78       		.byte	0x78
 1738 09b0 59020000 		.4byte	0x259
 1739 09b4 00000000 		.4byte	.LFB241
 1740 09b8 4C000000 		.4byte	.LFE241-.LFB241
 1741 09bc 01       		.uleb128 0x1
 1742 09bd 9C       		.byte	0x9c
 1743 09be D0090000 		.4byte	0x9d0
 1744 09c2 29       		.uleb128 0x29
 1745 09c3 747000   		.ascii	"tp\000"
 1746 09c6 06       		.byte	0x6
 1747 09c7 79       		.byte	0x79
 1748 09c8 59020000 		.4byte	0x259
 1749 09cc 02       		.uleb128 0x2
ARM GAS  /tmp/cc1COs80.s 			page 32


 1750 09cd 91       		.byte	0x91
 1751 09ce 74       		.sleb128 -12
 1752 09cf 00       		.byte	0
 1753 09d0 2A       		.uleb128 0x2a
 1754 09d1 03050000 		.4byte	.LASF145
 1755 09d5 06       		.byte	0x6
 1756 09d6 90       		.byte	0x90
 1757 09d7 00000000 		.4byte	.LFB242
 1758 09db 34000000 		.4byte	.LFE242-.LFB242
 1759 09df 01       		.uleb128 0x1
 1760 09e0 9C       		.byte	0x9c
 1761 09e1 100A0000 		.4byte	0xa10
 1762 09e5 26       		.uleb128 0x26
 1763 09e6 747000   		.ascii	"tp\000"
 1764 09e9 06       		.byte	0x6
 1765 09ea 90       		.byte	0x90
 1766 09eb 59020000 		.4byte	0x259
 1767 09ef 02       		.uleb128 0x2
 1768 09f0 91       		.byte	0x91
 1769 09f1 74       		.sleb128 -12
 1770 09f2 26       		.uleb128 0x26
 1771 09f3 6D736700 		.ascii	"msg\000"
 1772 09f7 06       		.byte	0x6
 1773 09f8 90       		.byte	0x90
 1774 09f9 06010000 		.4byte	0x106
 1775 09fd 02       		.uleb128 0x2
 1776 09fe 91       		.byte	0x91
 1777 09ff 70       		.sleb128 -16
 1778 0a00 24       		.uleb128 0x24
 1779 0a01 D7040000 		.4byte	.LASF136
 1780 0a05 200A0000 		.4byte	0xa20
 1781 0a09 05       		.uleb128 0x5
 1782 0a0a 03       		.byte	0x3
 1783 0a0b 00000000 		.4byte	__func__.6631
 1784 0a0f 00       		.byte	0
 1785 0a10 15       		.uleb128 0x15
 1786 0a11 71070000 		.4byte	0x771
 1787 0a15 200A0000 		.4byte	0xa20
 1788 0a19 16       		.uleb128 0x16
 1789 0a1a A5040000 		.4byte	0x4a5
 1790 0a1e 0C       		.byte	0xc
 1791 0a1f 00       		.byte	0
 1792 0a20 19       		.uleb128 0x19
 1793 0a21 100A0000 		.4byte	0xa10
 1794 0a25 2B       		.uleb128 0x2b
 1795 0a26 1D010000 		.4byte	.LASF139
 1796 0a2a 11       		.byte	0x11
 1797 0a2b FA06     		.2byte	0x6fa
 1798 0a2d BF000000 		.4byte	0xbf
 1799 0a31 2C       		.uleb128 0x2c
 1800 0a32 636800   		.ascii	"ch\000"
 1801 0a35 03       		.byte	0x3
 1802 0a36 0902     		.2byte	0x209
 1803 0a38 2D040000 		.4byte	0x42d
 1804 0a3c 00       		.byte	0
 1805              		.section	.debug_abbrev,"",%progbits
 1806              	.Ldebug_abbrev0:
ARM GAS  /tmp/cc1COs80.s 			page 33


 1807 0000 01       		.uleb128 0x1
 1808 0001 11       		.uleb128 0x11
 1809 0002 01       		.byte	0x1
 1810 0003 25       		.uleb128 0x25
 1811 0004 0E       		.uleb128 0xe
 1812 0005 13       		.uleb128 0x13
 1813 0006 0B       		.uleb128 0xb
 1814 0007 03       		.uleb128 0x3
 1815 0008 0E       		.uleb128 0xe
 1816 0009 55       		.uleb128 0x55
 1817 000a 17       		.uleb128 0x17
 1818 000b 11       		.uleb128 0x11
 1819 000c 01       		.uleb128 0x1
 1820 000d 10       		.uleb128 0x10
 1821 000e 17       		.uleb128 0x17
 1822 000f 00       		.byte	0
 1823 0010 00       		.byte	0
 1824 0011 02       		.uleb128 0x2
 1825 0012 24       		.uleb128 0x24
 1826 0013 00       		.byte	0
 1827 0014 0B       		.uleb128 0xb
 1828 0015 0B       		.uleb128 0xb
 1829 0016 3E       		.uleb128 0x3e
 1830 0017 0B       		.uleb128 0xb
 1831 0018 03       		.uleb128 0x3
 1832 0019 08       		.uleb128 0x8
 1833 001a 00       		.byte	0
 1834 001b 00       		.byte	0
 1835 001c 03       		.uleb128 0x3
 1836 001d 24       		.uleb128 0x24
 1837 001e 00       		.byte	0
 1838 001f 0B       		.uleb128 0xb
 1839 0020 0B       		.uleb128 0xb
 1840 0021 3E       		.uleb128 0x3e
 1841 0022 0B       		.uleb128 0xb
 1842 0023 03       		.uleb128 0x3
 1843 0024 0E       		.uleb128 0xe
 1844 0025 00       		.byte	0
 1845 0026 00       		.byte	0
 1846 0027 04       		.uleb128 0x4
 1847 0028 16       		.uleb128 0x16
 1848 0029 00       		.byte	0
 1849 002a 03       		.uleb128 0x3
 1850 002b 0E       		.uleb128 0xe
 1851 002c 3A       		.uleb128 0x3a
 1852 002d 0B       		.uleb128 0xb
 1853 002e 3B       		.uleb128 0x3b
 1854 002f 0B       		.uleb128 0xb
 1855 0030 49       		.uleb128 0x49
 1856 0031 13       		.uleb128 0x13
 1857 0032 00       		.byte	0
 1858 0033 00       		.byte	0
 1859 0034 05       		.uleb128 0x5
 1860 0035 35       		.uleb128 0x35
 1861 0036 00       		.byte	0
 1862 0037 49       		.uleb128 0x49
 1863 0038 13       		.uleb128 0x13
ARM GAS  /tmp/cc1COs80.s 			page 34


 1864 0039 00       		.byte	0
 1865 003a 00       		.byte	0
 1866 003b 06       		.uleb128 0x6
 1867 003c 13       		.uleb128 0x13
 1868 003d 01       		.byte	0x1
 1869 003e 03       		.uleb128 0x3
 1870 003f 0E       		.uleb128 0xe
 1871 0040 0B       		.uleb128 0xb
 1872 0041 0B       		.uleb128 0xb
 1873 0042 3A       		.uleb128 0x3a
 1874 0043 0B       		.uleb128 0xb
 1875 0044 3B       		.uleb128 0x3b
 1876 0045 0B       		.uleb128 0xb
 1877 0046 01       		.uleb128 0x1
 1878 0047 13       		.uleb128 0x13
 1879 0048 00       		.byte	0
 1880 0049 00       		.byte	0
 1881 004a 07       		.uleb128 0x7
 1882 004b 0D       		.uleb128 0xd
 1883 004c 00       		.byte	0
 1884 004d 03       		.uleb128 0x3
 1885 004e 0E       		.uleb128 0xe
 1886 004f 3A       		.uleb128 0x3a
 1887 0050 0B       		.uleb128 0xb
 1888 0051 3B       		.uleb128 0x3b
 1889 0052 0B       		.uleb128 0xb
 1890 0053 49       		.uleb128 0x49
 1891 0054 13       		.uleb128 0x13
 1892 0055 38       		.uleb128 0x38
 1893 0056 0B       		.uleb128 0xb
 1894 0057 00       		.byte	0
 1895 0058 00       		.byte	0
 1896 0059 08       		.uleb128 0x8
 1897 005a 0D       		.uleb128 0xd
 1898 005b 00       		.byte	0
 1899 005c 03       		.uleb128 0x3
 1900 005d 08       		.uleb128 0x8
 1901 005e 3A       		.uleb128 0x3a
 1902 005f 0B       		.uleb128 0xb
 1903 0060 3B       		.uleb128 0x3b
 1904 0061 05       		.uleb128 0x5
 1905 0062 49       		.uleb128 0x49
 1906 0063 13       		.uleb128 0x13
 1907 0064 38       		.uleb128 0x38
 1908 0065 0B       		.uleb128 0xb
 1909 0066 00       		.byte	0
 1910 0067 00       		.byte	0
 1911 0068 09       		.uleb128 0x9
 1912 0069 0D       		.uleb128 0xd
 1913 006a 00       		.byte	0
 1914 006b 03       		.uleb128 0x3
 1915 006c 0E       		.uleb128 0xe
 1916 006d 3A       		.uleb128 0x3a
 1917 006e 0B       		.uleb128 0xb
 1918 006f 3B       		.uleb128 0x3b
 1919 0070 05       		.uleb128 0x5
 1920 0071 49       		.uleb128 0x49
ARM GAS  /tmp/cc1COs80.s 			page 35


 1921 0072 13       		.uleb128 0x13
 1922 0073 38       		.uleb128 0x38
 1923 0074 0B       		.uleb128 0xb
 1924 0075 00       		.byte	0
 1925 0076 00       		.byte	0
 1926 0077 0A       		.uleb128 0xa
 1927 0078 0F       		.uleb128 0xf
 1928 0079 00       		.byte	0
 1929 007a 0B       		.uleb128 0xb
 1930 007b 0B       		.uleb128 0xb
 1931 007c 49       		.uleb128 0x49
 1932 007d 13       		.uleb128 0x13
 1933 007e 00       		.byte	0
 1934 007f 00       		.byte	0
 1935 0080 0B       		.uleb128 0xb
 1936 0081 13       		.uleb128 0x13
 1937 0082 01       		.byte	0x1
 1938 0083 03       		.uleb128 0x3
 1939 0084 0E       		.uleb128 0xe
 1940 0085 0B       		.uleb128 0xb
 1941 0086 0B       		.uleb128 0xb
 1942 0087 3A       		.uleb128 0x3a
 1943 0088 0B       		.uleb128 0xb
 1944 0089 3B       		.uleb128 0x3b
 1945 008a 05       		.uleb128 0x5
 1946 008b 01       		.uleb128 0x1
 1947 008c 13       		.uleb128 0x13
 1948 008d 00       		.byte	0
 1949 008e 00       		.byte	0
 1950 008f 0C       		.uleb128 0xc
 1951 0090 15       		.uleb128 0x15
 1952 0091 01       		.byte	0x1
 1953 0092 27       		.uleb128 0x27
 1954 0093 19       		.uleb128 0x19
 1955 0094 01       		.uleb128 0x1
 1956 0095 13       		.uleb128 0x13
 1957 0096 00       		.byte	0
 1958 0097 00       		.byte	0
 1959 0098 0D       		.uleb128 0xd
 1960 0099 05       		.uleb128 0x5
 1961 009a 00       		.byte	0
 1962 009b 49       		.uleb128 0x49
 1963 009c 13       		.uleb128 0x13
 1964 009d 00       		.byte	0
 1965 009e 00       		.byte	0
 1966 009f 0E       		.uleb128 0xe
 1967 00a0 0F       		.uleb128 0xf
 1968 00a1 00       		.byte	0
 1969 00a2 0B       		.uleb128 0xb
 1970 00a3 0B       		.uleb128 0xb
 1971 00a4 00       		.byte	0
 1972 00a5 00       		.byte	0
 1973 00a6 0F       		.uleb128 0xf
 1974 00a7 13       		.uleb128 0x13
 1975 00a8 01       		.byte	0x1
 1976 00a9 03       		.uleb128 0x3
 1977 00aa 0E       		.uleb128 0xe
ARM GAS  /tmp/cc1COs80.s 			page 36


 1978 00ab 0B       		.uleb128 0xb
 1979 00ac 05       		.uleb128 0x5
 1980 00ad 3A       		.uleb128 0x3a
 1981 00ae 0B       		.uleb128 0xb
 1982 00af 3B       		.uleb128 0x3b
 1983 00b0 05       		.uleb128 0x5
 1984 00b1 01       		.uleb128 0x1
 1985 00b2 13       		.uleb128 0x13
 1986 00b3 00       		.byte	0
 1987 00b4 00       		.byte	0
 1988 00b5 10       		.uleb128 0x10
 1989 00b6 0D       		.uleb128 0xd
 1990 00b7 00       		.byte	0
 1991 00b8 03       		.uleb128 0x3
 1992 00b9 0E       		.uleb128 0xe
 1993 00ba 3A       		.uleb128 0x3a
 1994 00bb 0B       		.uleb128 0xb
 1995 00bc 3B       		.uleb128 0x3b
 1996 00bd 05       		.uleb128 0x5
 1997 00be 49       		.uleb128 0x49
 1998 00bf 13       		.uleb128 0x13
 1999 00c0 38       		.uleb128 0x38
 2000 00c1 05       		.uleb128 0x5
 2001 00c2 00       		.byte	0
 2002 00c3 00       		.byte	0
 2003 00c4 11       		.uleb128 0x11
 2004 00c5 0D       		.uleb128 0xd
 2005 00c6 00       		.byte	0
 2006 00c7 03       		.uleb128 0x3
 2007 00c8 08       		.uleb128 0x8
 2008 00c9 3A       		.uleb128 0x3a
 2009 00ca 0B       		.uleb128 0xb
 2010 00cb 3B       		.uleb128 0x3b
 2011 00cc 05       		.uleb128 0x5
 2012 00cd 49       		.uleb128 0x49
 2013 00ce 13       		.uleb128 0x13
 2014 00cf 38       		.uleb128 0x38
 2015 00d0 05       		.uleb128 0x5
 2016 00d1 00       		.byte	0
 2017 00d2 00       		.byte	0
 2018 00d3 12       		.uleb128 0x12
 2019 00d4 0D       		.uleb128 0xd
 2020 00d5 00       		.byte	0
 2021 00d6 03       		.uleb128 0x3
 2022 00d7 08       		.uleb128 0x8
 2023 00d8 3A       		.uleb128 0x3a
 2024 00d9 0B       		.uleb128 0xb
 2025 00da 3B       		.uleb128 0x3b
 2026 00db 0B       		.uleb128 0xb
 2027 00dc 49       		.uleb128 0x49
 2028 00dd 13       		.uleb128 0x13
 2029 00de 38       		.uleb128 0x38
 2030 00df 0B       		.uleb128 0xb
 2031 00e0 00       		.byte	0
 2032 00e1 00       		.byte	0
 2033 00e2 13       		.uleb128 0x13
 2034 00e3 13       		.uleb128 0x13
ARM GAS  /tmp/cc1COs80.s 			page 37


 2035 00e4 01       		.byte	0x1
 2036 00e5 0B       		.uleb128 0xb
 2037 00e6 0B       		.uleb128 0xb
 2038 00e7 3A       		.uleb128 0x3a
 2039 00e8 0B       		.uleb128 0xb
 2040 00e9 3B       		.uleb128 0x3b
 2041 00ea 0B       		.uleb128 0xb
 2042 00eb 01       		.uleb128 0x1
 2043 00ec 13       		.uleb128 0x13
 2044 00ed 00       		.byte	0
 2045 00ee 00       		.byte	0
 2046 00ef 14       		.uleb128 0x14
 2047 00f0 13       		.uleb128 0x13
 2048 00f1 01       		.byte	0x1
 2049 00f2 0B       		.uleb128 0xb
 2050 00f3 05       		.uleb128 0x5
 2051 00f4 3A       		.uleb128 0x3a
 2052 00f5 0B       		.uleb128 0xb
 2053 00f6 3B       		.uleb128 0x3b
 2054 00f7 0B       		.uleb128 0xb
 2055 00f8 01       		.uleb128 0x1
 2056 00f9 13       		.uleb128 0x13
 2057 00fa 00       		.byte	0
 2058 00fb 00       		.byte	0
 2059 00fc 15       		.uleb128 0x15
 2060 00fd 01       		.uleb128 0x1
 2061 00fe 01       		.byte	0x1
 2062 00ff 49       		.uleb128 0x49
 2063 0100 13       		.uleb128 0x13
 2064 0101 01       		.uleb128 0x1
 2065 0102 13       		.uleb128 0x13
 2066 0103 00       		.byte	0
 2067 0104 00       		.byte	0
 2068 0105 16       		.uleb128 0x16
 2069 0106 21       		.uleb128 0x21
 2070 0107 00       		.byte	0
 2071 0108 49       		.uleb128 0x49
 2072 0109 13       		.uleb128 0x13
 2073 010a 2F       		.uleb128 0x2f
 2074 010b 0B       		.uleb128 0xb
 2075 010c 00       		.byte	0
 2076 010d 00       		.byte	0
 2077 010e 17       		.uleb128 0x17
 2078 010f 17       		.uleb128 0x17
 2079 0110 01       		.byte	0x1
 2080 0111 0B       		.uleb128 0xb
 2081 0112 0B       		.uleb128 0xb
 2082 0113 3A       		.uleb128 0x3a
 2083 0114 0B       		.uleb128 0xb
 2084 0115 3B       		.uleb128 0x3b
 2085 0116 0B       		.uleb128 0xb
 2086 0117 01       		.uleb128 0x1
 2087 0118 13       		.uleb128 0x13
 2088 0119 00       		.byte	0
 2089 011a 00       		.byte	0
 2090 011b 18       		.uleb128 0x18
 2091 011c 0D       		.uleb128 0xd
ARM GAS  /tmp/cc1COs80.s 			page 38


 2092 011d 00       		.byte	0
 2093 011e 03       		.uleb128 0x3
 2094 011f 0E       		.uleb128 0xe
 2095 0120 3A       		.uleb128 0x3a
 2096 0121 0B       		.uleb128 0xb
 2097 0122 3B       		.uleb128 0x3b
 2098 0123 05       		.uleb128 0x5
 2099 0124 49       		.uleb128 0x49
 2100 0125 13       		.uleb128 0x13
 2101 0126 00       		.byte	0
 2102 0127 00       		.byte	0
 2103 0128 19       		.uleb128 0x19
 2104 0129 26       		.uleb128 0x26
 2105 012a 00       		.byte	0
 2106 012b 49       		.uleb128 0x49
 2107 012c 13       		.uleb128 0x13
 2108 012d 00       		.byte	0
 2109 012e 00       		.byte	0
 2110 012f 1A       		.uleb128 0x1a
 2111 0130 2E       		.uleb128 0x2e
 2112 0131 01       		.byte	0x1
 2113 0132 03       		.uleb128 0x3
 2114 0133 0E       		.uleb128 0xe
 2115 0134 3A       		.uleb128 0x3a
 2116 0135 0B       		.uleb128 0xb
 2117 0136 3B       		.uleb128 0x3b
 2118 0137 05       		.uleb128 0x5
 2119 0138 27       		.uleb128 0x27
 2120 0139 19       		.uleb128 0x19
 2121 013a 20       		.uleb128 0x20
 2122 013b 0B       		.uleb128 0xb
 2123 013c 01       		.uleb128 0x1
 2124 013d 13       		.uleb128 0x13
 2125 013e 00       		.byte	0
 2126 013f 00       		.byte	0
 2127 0140 1B       		.uleb128 0x1b
 2128 0141 05       		.uleb128 0x5
 2129 0142 00       		.byte	0
 2130 0143 03       		.uleb128 0x3
 2131 0144 0E       		.uleb128 0xe
 2132 0145 3A       		.uleb128 0x3a
 2133 0146 0B       		.uleb128 0xb
 2134 0147 3B       		.uleb128 0x3b
 2135 0148 05       		.uleb128 0x5
 2136 0149 49       		.uleb128 0x49
 2137 014a 13       		.uleb128 0x13
 2138 014b 00       		.byte	0
 2139 014c 00       		.byte	0
 2140 014d 1C       		.uleb128 0x1c
 2141 014e 2E       		.uleb128 0x2e
 2142 014f 01       		.byte	0x1
 2143 0150 03       		.uleb128 0x3
 2144 0151 0E       		.uleb128 0xe
 2145 0152 3A       		.uleb128 0x3a
 2146 0153 0B       		.uleb128 0xb
 2147 0154 3B       		.uleb128 0x3b
 2148 0155 05       		.uleb128 0x5
ARM GAS  /tmp/cc1COs80.s 			page 39


 2149 0156 27       		.uleb128 0x27
 2150 0157 19       		.uleb128 0x19
 2151 0158 11       		.uleb128 0x11
 2152 0159 01       		.uleb128 0x1
 2153 015a 12       		.uleb128 0x12
 2154 015b 06       		.uleb128 0x6
 2155 015c 40       		.uleb128 0x40
 2156 015d 18       		.uleb128 0x18
 2157 015e 9742     		.uleb128 0x2117
 2158 0160 19       		.uleb128 0x19
 2159 0161 01       		.uleb128 0x1
 2160 0162 13       		.uleb128 0x13
 2161 0163 00       		.byte	0
 2162 0164 00       		.byte	0
 2163 0165 1D       		.uleb128 0x1d
 2164 0166 1D       		.uleb128 0x1d
 2165 0167 01       		.byte	0x1
 2166 0168 31       		.uleb128 0x31
 2167 0169 13       		.uleb128 0x13
 2168 016a 11       		.uleb128 0x11
 2169 016b 01       		.uleb128 0x1
 2170 016c 12       		.uleb128 0x12
 2171 016d 06       		.uleb128 0x6
 2172 016e 58       		.uleb128 0x58
 2173 016f 0B       		.uleb128 0xb
 2174 0170 59       		.uleb128 0x59
 2175 0171 05       		.uleb128 0x5
 2176 0172 00       		.byte	0
 2177 0173 00       		.byte	0
 2178 0174 1E       		.uleb128 0x1e
 2179 0175 05       		.uleb128 0x5
 2180 0176 00       		.byte	0
 2181 0177 31       		.uleb128 0x31
 2182 0178 13       		.uleb128 0x13
 2183 0179 02       		.uleb128 0x2
 2184 017a 18       		.uleb128 0x18
 2185 017b 00       		.byte	0
 2186 017c 00       		.byte	0
 2187 017d 1F       		.uleb128 0x1f
 2188 017e 05       		.uleb128 0x5
 2189 017f 00       		.byte	0
 2190 0180 03       		.uleb128 0x3
 2191 0181 08       		.uleb128 0x8
 2192 0182 3A       		.uleb128 0x3a
 2193 0183 0B       		.uleb128 0xb
 2194 0184 3B       		.uleb128 0x3b
 2195 0185 05       		.uleb128 0x5
 2196 0186 49       		.uleb128 0x49
 2197 0187 13       		.uleb128 0x13
 2198 0188 02       		.uleb128 0x2
 2199 0189 18       		.uleb128 0x18
 2200 018a 00       		.byte	0
 2201 018b 00       		.byte	0
 2202 018c 20       		.uleb128 0x20
 2203 018d 2E       		.uleb128 0x2e
 2204 018e 01       		.byte	0x1
 2205 018f 03       		.uleb128 0x3
ARM GAS  /tmp/cc1COs80.s 			page 40


 2206 0190 0E       		.uleb128 0xe
 2207 0191 3A       		.uleb128 0x3a
 2208 0192 0B       		.uleb128 0xb
 2209 0193 3B       		.uleb128 0x3b
 2210 0194 05       		.uleb128 0x5
 2211 0195 27       		.uleb128 0x27
 2212 0196 19       		.uleb128 0x19
 2213 0197 49       		.uleb128 0x49
 2214 0198 13       		.uleb128 0x13
 2215 0199 11       		.uleb128 0x11
 2216 019a 01       		.uleb128 0x1
 2217 019b 12       		.uleb128 0x12
 2218 019c 06       		.uleb128 0x6
 2219 019d 40       		.uleb128 0x40
 2220 019e 18       		.uleb128 0x18
 2221 019f 9742     		.uleb128 0x2117
 2222 01a1 19       		.uleb128 0x19
 2223 01a2 01       		.uleb128 0x1
 2224 01a3 13       		.uleb128 0x13
 2225 01a4 00       		.byte	0
 2226 01a5 00       		.byte	0
 2227 01a6 21       		.uleb128 0x21
 2228 01a7 34       		.uleb128 0x34
 2229 01a8 00       		.byte	0
 2230 01a9 03       		.uleb128 0x3
 2231 01aa 08       		.uleb128 0x8
 2232 01ab 3A       		.uleb128 0x3a
 2233 01ac 0B       		.uleb128 0xb
 2234 01ad 3B       		.uleb128 0x3b
 2235 01ae 05       		.uleb128 0x5
 2236 01af 49       		.uleb128 0x49
 2237 01b0 13       		.uleb128 0x13
 2238 01b1 02       		.uleb128 0x2
 2239 01b2 18       		.uleb128 0x18
 2240 01b3 00       		.byte	0
 2241 01b4 00       		.byte	0
 2242 01b5 22       		.uleb128 0x22
 2243 01b6 2E       		.uleb128 0x2e
 2244 01b7 00       		.byte	0
 2245 01b8 03       		.uleb128 0x3
 2246 01b9 0E       		.uleb128 0xe
 2247 01ba 3A       		.uleb128 0x3a
 2248 01bb 0B       		.uleb128 0xb
 2249 01bc 3B       		.uleb128 0x3b
 2250 01bd 05       		.uleb128 0x5
 2251 01be 27       		.uleb128 0x27
 2252 01bf 19       		.uleb128 0x19
 2253 01c0 11       		.uleb128 0x11
 2254 01c1 01       		.uleb128 0x1
 2255 01c2 12       		.uleb128 0x12
 2256 01c3 06       		.uleb128 0x6
 2257 01c4 40       		.uleb128 0x40
 2258 01c5 18       		.uleb128 0x18
 2259 01c6 9642     		.uleb128 0x2116
 2260 01c8 19       		.uleb128 0x19
 2261 01c9 00       		.byte	0
 2262 01ca 00       		.byte	0
ARM GAS  /tmp/cc1COs80.s 			page 41


 2263 01cb 23       		.uleb128 0x23
 2264 01cc 2E       		.uleb128 0x2e
 2265 01cd 01       		.byte	0x1
 2266 01ce 03       		.uleb128 0x3
 2267 01cf 0E       		.uleb128 0xe
 2268 01d0 3A       		.uleb128 0x3a
 2269 01d1 0B       		.uleb128 0xb
 2270 01d2 3B       		.uleb128 0x3b
 2271 01d3 05       		.uleb128 0x5
 2272 01d4 27       		.uleb128 0x27
 2273 01d5 19       		.uleb128 0x19
 2274 01d6 11       		.uleb128 0x11
 2275 01d7 01       		.uleb128 0x1
 2276 01d8 12       		.uleb128 0x12
 2277 01d9 06       		.uleb128 0x6
 2278 01da 40       		.uleb128 0x40
 2279 01db 18       		.uleb128 0x18
 2280 01dc 9642     		.uleb128 0x2116
 2281 01de 19       		.uleb128 0x19
 2282 01df 01       		.uleb128 0x1
 2283 01e0 13       		.uleb128 0x13
 2284 01e1 00       		.byte	0
 2285 01e2 00       		.byte	0
 2286 01e3 24       		.uleb128 0x24
 2287 01e4 34       		.uleb128 0x34
 2288 01e5 00       		.byte	0
 2289 01e6 03       		.uleb128 0x3
 2290 01e7 0E       		.uleb128 0xe
 2291 01e8 49       		.uleb128 0x49
 2292 01e9 13       		.uleb128 0x13
 2293 01ea 34       		.uleb128 0x34
 2294 01eb 19       		.uleb128 0x19
 2295 01ec 02       		.uleb128 0x2
 2296 01ed 18       		.uleb128 0x18
 2297 01ee 00       		.byte	0
 2298 01ef 00       		.byte	0
 2299 01f0 25       		.uleb128 0x25
 2300 01f1 2E       		.uleb128 0x2e
 2301 01f2 01       		.byte	0x1
 2302 01f3 03       		.uleb128 0x3
 2303 01f4 0E       		.uleb128 0xe
 2304 01f5 3A       		.uleb128 0x3a
 2305 01f6 0B       		.uleb128 0xb
 2306 01f7 3B       		.uleb128 0x3b
 2307 01f8 0B       		.uleb128 0xb
 2308 01f9 27       		.uleb128 0x27
 2309 01fa 19       		.uleb128 0x19
 2310 01fb 49       		.uleb128 0x49
 2311 01fc 13       		.uleb128 0x13
 2312 01fd 11       		.uleb128 0x11
 2313 01fe 01       		.uleb128 0x1
 2314 01ff 12       		.uleb128 0x12
 2315 0200 06       		.uleb128 0x6
 2316 0201 40       		.uleb128 0x40
 2317 0202 18       		.uleb128 0x18
 2318 0203 9642     		.uleb128 0x2116
 2319 0205 19       		.uleb128 0x19
ARM GAS  /tmp/cc1COs80.s 			page 42


 2320 0206 01       		.uleb128 0x1
 2321 0207 13       		.uleb128 0x13
 2322 0208 00       		.byte	0
 2323 0209 00       		.byte	0
 2324 020a 26       		.uleb128 0x26
 2325 020b 05       		.uleb128 0x5
 2326 020c 00       		.byte	0
 2327 020d 03       		.uleb128 0x3
 2328 020e 08       		.uleb128 0x8
 2329 020f 3A       		.uleb128 0x3a
 2330 0210 0B       		.uleb128 0xb
 2331 0211 3B       		.uleb128 0x3b
 2332 0212 0B       		.uleb128 0xb
 2333 0213 49       		.uleb128 0x49
 2334 0214 13       		.uleb128 0x13
 2335 0215 02       		.uleb128 0x2
 2336 0216 18       		.uleb128 0x18
 2337 0217 00       		.byte	0
 2338 0218 00       		.byte	0
 2339 0219 27       		.uleb128 0x27
 2340 021a 2E       		.uleb128 0x2e
 2341 021b 01       		.byte	0x1
 2342 021c 03       		.uleb128 0x3
 2343 021d 0E       		.uleb128 0xe
 2344 021e 3A       		.uleb128 0x3a
 2345 021f 0B       		.uleb128 0xb
 2346 0220 3B       		.uleb128 0x3b
 2347 0221 0B       		.uleb128 0xb
 2348 0222 27       		.uleb128 0x27
 2349 0223 19       		.uleb128 0x19
 2350 0224 11       		.uleb128 0x11
 2351 0225 01       		.uleb128 0x1
 2352 0226 12       		.uleb128 0x12
 2353 0227 06       		.uleb128 0x6
 2354 0228 40       		.uleb128 0x40
 2355 0229 18       		.uleb128 0x18
 2356 022a 9642     		.uleb128 0x2116
 2357 022c 19       		.uleb128 0x19
 2358 022d 01       		.uleb128 0x1
 2359 022e 13       		.uleb128 0x13
 2360 022f 00       		.byte	0
 2361 0230 00       		.byte	0
 2362 0231 28       		.uleb128 0x28
 2363 0232 2E       		.uleb128 0x2e
 2364 0233 01       		.byte	0x1
 2365 0234 3F       		.uleb128 0x3f
 2366 0235 19       		.uleb128 0x19
 2367 0236 03       		.uleb128 0x3
 2368 0237 0E       		.uleb128 0xe
 2369 0238 3A       		.uleb128 0x3a
 2370 0239 0B       		.uleb128 0xb
 2371 023a 3B       		.uleb128 0x3b
 2372 023b 0B       		.uleb128 0xb
 2373 023c 27       		.uleb128 0x27
 2374 023d 19       		.uleb128 0x19
 2375 023e 49       		.uleb128 0x49
 2376 023f 13       		.uleb128 0x13
ARM GAS  /tmp/cc1COs80.s 			page 43


 2377 0240 11       		.uleb128 0x11
 2378 0241 01       		.uleb128 0x1
 2379 0242 12       		.uleb128 0x12
 2380 0243 06       		.uleb128 0x6
 2381 0244 40       		.uleb128 0x40
 2382 0245 18       		.uleb128 0x18
 2383 0246 9642     		.uleb128 0x2116
 2384 0248 19       		.uleb128 0x19
 2385 0249 01       		.uleb128 0x1
 2386 024a 13       		.uleb128 0x13
 2387 024b 00       		.byte	0
 2388 024c 00       		.byte	0
 2389 024d 29       		.uleb128 0x29
 2390 024e 34       		.uleb128 0x34
 2391 024f 00       		.byte	0
 2392 0250 03       		.uleb128 0x3
 2393 0251 08       		.uleb128 0x8
 2394 0252 3A       		.uleb128 0x3a
 2395 0253 0B       		.uleb128 0xb
 2396 0254 3B       		.uleb128 0x3b
 2397 0255 0B       		.uleb128 0xb
 2398 0256 49       		.uleb128 0x49
 2399 0257 13       		.uleb128 0x13
 2400 0258 02       		.uleb128 0x2
 2401 0259 18       		.uleb128 0x18
 2402 025a 00       		.byte	0
 2403 025b 00       		.byte	0
 2404 025c 2A       		.uleb128 0x2a
 2405 025d 2E       		.uleb128 0x2e
 2406 025e 01       		.byte	0x1
 2407 025f 3F       		.uleb128 0x3f
 2408 0260 19       		.uleb128 0x19
 2409 0261 03       		.uleb128 0x3
 2410 0262 0E       		.uleb128 0xe
 2411 0263 3A       		.uleb128 0x3a
 2412 0264 0B       		.uleb128 0xb
 2413 0265 3B       		.uleb128 0x3b
 2414 0266 0B       		.uleb128 0xb
 2415 0267 27       		.uleb128 0x27
 2416 0268 19       		.uleb128 0x19
 2417 0269 11       		.uleb128 0x11
 2418 026a 01       		.uleb128 0x1
 2419 026b 12       		.uleb128 0x12
 2420 026c 06       		.uleb128 0x6
 2421 026d 40       		.uleb128 0x40
 2422 026e 18       		.uleb128 0x18
 2423 026f 9642     		.uleb128 0x2116
 2424 0271 19       		.uleb128 0x19
 2425 0272 01       		.uleb128 0x1
 2426 0273 13       		.uleb128 0x13
 2427 0274 00       		.byte	0
 2428 0275 00       		.byte	0
 2429 0276 2B       		.uleb128 0x2b
 2430 0277 34       		.uleb128 0x34
 2431 0278 00       		.byte	0
 2432 0279 03       		.uleb128 0x3
 2433 027a 0E       		.uleb128 0xe
ARM GAS  /tmp/cc1COs80.s 			page 44


 2434 027b 3A       		.uleb128 0x3a
 2435 027c 0B       		.uleb128 0xb
 2436 027d 3B       		.uleb128 0x3b
 2437 027e 05       		.uleb128 0x5
 2438 027f 49       		.uleb128 0x49
 2439 0280 13       		.uleb128 0x13
 2440 0281 3F       		.uleb128 0x3f
 2441 0282 19       		.uleb128 0x19
 2442 0283 3C       		.uleb128 0x3c
 2443 0284 19       		.uleb128 0x19
 2444 0285 00       		.byte	0
 2445 0286 00       		.byte	0
 2446 0287 2C       		.uleb128 0x2c
 2447 0288 34       		.uleb128 0x34
 2448 0289 00       		.byte	0
 2449 028a 03       		.uleb128 0x3
 2450 028b 08       		.uleb128 0x8
 2451 028c 3A       		.uleb128 0x3a
 2452 028d 0B       		.uleb128 0xb
 2453 028e 3B       		.uleb128 0x3b
 2454 028f 05       		.uleb128 0x5
 2455 0290 49       		.uleb128 0x49
 2456 0291 13       		.uleb128 0x13
 2457 0292 3F       		.uleb128 0x3f
 2458 0293 19       		.uleb128 0x19
 2459 0294 3C       		.uleb128 0x3c
 2460 0295 19       		.uleb128 0x19
 2461 0296 00       		.byte	0
 2462 0297 00       		.byte	0
 2463 0298 00       		.byte	0
 2464              		.section	.debug_aranges,"",%progbits
 2465 0000 6C000000 		.4byte	0x6c
 2466 0004 0200     		.2byte	0x2
 2467 0006 00000000 		.4byte	.Ldebug_info0
 2468 000a 04       		.byte	0x4
 2469 000b 00       		.byte	0
 2470 000c 0000     		.2byte	0
 2471 000e 0000     		.2byte	0
 2472 0010 00000000 		.4byte	.LFB127
 2473 0014 10000000 		.4byte	.LFE127-.LFB127
 2474 0018 00000000 		.4byte	.LFB128
 2475 001c 10000000 		.4byte	.LFE128-.LFB128
 2476 0020 00000000 		.4byte	.LFB156
 2477 0024 26000000 		.4byte	.LFE156-.LFB156
 2478 0028 00000000 		.4byte	.LFB157
 2479 002c 22000000 		.4byte	.LFE157-.LFB157
 2480 0030 00000000 		.4byte	.LFB167
 2481 0034 10000000 		.4byte	.LFE167-.LFB167
 2482 0038 00000000 		.4byte	.LFB168
 2483 003c 38000000 		.4byte	.LFE168-.LFB168
 2484 0040 00000000 		.4byte	.LFB221
 2485 0044 24000000 		.4byte	.LFE221-.LFB221
 2486 0048 00000000 		.4byte	.LFB223
 2487 004c 1A000000 		.4byte	.LFE223-.LFB223
 2488 0050 00000000 		.4byte	.LFB240
 2489 0054 6C000000 		.4byte	.LFE240-.LFB240
 2490 0058 00000000 		.4byte	.LFB241
ARM GAS  /tmp/cc1COs80.s 			page 45


 2491 005c 4C000000 		.4byte	.LFE241-.LFB241
 2492 0060 00000000 		.4byte	.LFB242
 2493 0064 34000000 		.4byte	.LFE242-.LFB242
 2494 0068 00000000 		.4byte	0
 2495 006c 00000000 		.4byte	0
 2496              		.section	.debug_ranges,"",%progbits
 2497              	.Ldebug_ranges0:
 2498 0000 00000000 		.4byte	.LFB127
 2499 0004 10000000 		.4byte	.LFE127
 2500 0008 00000000 		.4byte	.LFB128
 2501 000c 10000000 		.4byte	.LFE128
 2502 0010 00000000 		.4byte	.LFB156
 2503 0014 26000000 		.4byte	.LFE156
 2504 0018 00000000 		.4byte	.LFB157
 2505 001c 22000000 		.4byte	.LFE157
 2506 0020 00000000 		.4byte	.LFB167
 2507 0024 10000000 		.4byte	.LFE167
 2508 0028 00000000 		.4byte	.LFB168
 2509 002c 38000000 		.4byte	.LFE168
 2510 0030 00000000 		.4byte	.LFB221
 2511 0034 24000000 		.4byte	.LFE221
 2512 0038 00000000 		.4byte	.LFB223
 2513 003c 1A000000 		.4byte	.LFE223
 2514 0040 00000000 		.4byte	.LFB240
 2515 0044 6C000000 		.4byte	.LFE240
 2516 0048 00000000 		.4byte	.LFB241
 2517 004c 4C000000 		.4byte	.LFE241
 2518 0050 00000000 		.4byte	.LFB242
 2519 0054 34000000 		.4byte	.LFE242
 2520 0058 00000000 		.4byte	0
 2521 005c 00000000 		.4byte	0
 2522              		.section	.debug_line,"",%progbits
 2523              	.Ldebug_line0:
 2524 0000 05030000 		.section	.debug_str,"MS",%progbits,1
 2524      0200DD01 
 2524      00000201 
 2524      FB0E0D00 
 2524      01010101 
 2525              	.LASF97:
 2526 0000 74625F70 		.ascii	"tb_ptr\000"
 2526      747200
 2527              	.LASF54:
 2528 0007 72656164 		.ascii	"ready_list_t\000"
 2528      795F6C69 
 2528      73745F74 
 2528      00
 2529              	.LASF130:
 2530 0014 71756575 		.ascii	"queue_insert\000"
 2530      655F696E 
 2530      73657274 
 2530      00
 2531              	.LASF115:
 2532 0021 77747472 		.ascii	"wttrp\000"
 2532      7000
 2533              	.LASF141:
 2534 0027 2F686F6D 		.ascii	"/home/efe/ChibiOS/os/rt/src/chmsg.c\000"
 2534      652F6566 
ARM GAS  /tmp/cc1COs80.s 			page 46


 2534      652F4368 
 2534      6962694F 
 2534      532F6F73 
 2535              	.LASF112:
 2536 004b 7264796D 		.ascii	"rdymsg\000"
 2536      736700
 2537              	.LASF16:
 2538 0052 75696E74 		.ascii	"uint64_t\000"
 2538      36345F74 
 2538      00
 2539              	.LASF84:
 2540 005b 6B65726E 		.ascii	"kernel_stats\000"
 2540      656C5F73 
 2540      74617473 
 2540      00
 2541              	.LASF5:
 2542 0068 5F5F7569 		.ascii	"__uint8_t\000"
 2542      6E74385F 
 2542      7400
 2543              	.LASF90:
 2544 0072 706F7274 		.ascii	"port_intctx\000"
 2544      5F696E74 
 2544      63747800 
 2545              	.LASF53:
 2546 007e 63685F74 		.ascii	"ch_threads_queue\000"
 2546      68726561 
 2546      64735F71 
 2546      75657565 
 2546      00
 2547              	.LASF73:
 2548 008f 73797374 		.ascii	"system_debug_t\000"
 2548      656D5F64 
 2548      65627567 
 2548      5F7400
 2549              	.LASF128:
 2550 009e 706F7274 		.ascii	"port_lock\000"
 2550      5F6C6F63 
 2550      6B00
 2551              	.LASF103:
 2552 00a8 776F7273 		.ascii	"worst\000"
 2552      7400
 2553              	.LASF106:
 2554 00ae 74696D65 		.ascii	"time_measurement_t\000"
 2554      5F6D6561 
 2554      73757265 
 2554      6D656E74 
 2554      5F7400
 2555              	.LASF12:
 2556 00c1 6C6F6E67 		.ascii	"long long unsigned int\000"
 2556      206C6F6E 
 2556      6720756E 
 2556      7369676E 
 2556      65642069 
 2557              	.LASF99:
 2558 00d8 63685F74 		.ascii	"ch_trace_buffer_t\000"
 2558      72616365 
 2558      5F627566 
ARM GAS  /tmp/cc1COs80.s 			page 47


 2558      6665725F 
 2558      7400
 2559              	.LASF94:
 2560 00ea 73655F73 		.ascii	"se_state\000"
 2560      74617465 
 2560      00
 2561              	.LASF113:
 2562 00f3 65786974 		.ascii	"exitcode\000"
 2562      636F6465 
 2562      00
 2563              	.LASF83:
 2564 00fc 6D61696E 		.ascii	"mainthread\000"
 2564      74687265 
 2564      616400
 2565              	.LASF70:
 2566 0107 76697274 		.ascii	"virtual_timers_list_t\000"
 2566      75616C5F 
 2566      74696D65 
 2566      72735F6C 
 2566      6973745F 
 2567              	.LASF139:
 2568 011d 49544D5F 		.ascii	"ITM_RxBuffer\000"
 2568      52784275 
 2568      66666572 
 2568      00
 2569              	.LASF18:
 2570 012a 72747469 		.ascii	"rttime_t\000"
 2570      6D655F74 
 2570      00
 2571              	.LASF31:
 2572 0133 705F7072 		.ascii	"p_prio\000"
 2572      696F00
 2573              	.LASF10:
 2574 013a 6C6F6E67 		.ascii	"long long int\000"
 2574      206C6F6E 
 2574      6720696E 
 2574      7400
 2575              	.LASF1:
 2576 0148 7369676E 		.ascii	"signed char\000"
 2576      65642063 
 2576      68617200 
 2577              	.LASF91:
 2578 0154 73655F74 		.ascii	"se_time\000"
 2578      696D6500 
 2579              	.LASF46:
 2580 015c 705F6D70 		.ascii	"p_mpool\000"
 2580      6F6F6C00 
 2581              	.LASF123:
 2582 0164 6D5F7175 		.ascii	"m_queue\000"
 2582      65756500 
 2583              	.LASF82:
 2584 016c 76746C69 		.ascii	"vtlist\000"
 2584      737400
 2585              	.LASF129:
 2586 0173 706F7274 		.ascii	"port_unlock\000"
 2586      5F756E6C 
 2586      6F636B00 
ARM GAS  /tmp/cc1COs80.s 			page 48


 2587              	.LASF80:
 2588 017f 63685F73 		.ascii	"ch_system\000"
 2588      79737465 
 2588      6D00
 2589              	.LASF7:
 2590 0189 6C6F6E67 		.ascii	"long int\000"
 2590      20696E74 
 2590      00
 2591              	.LASF137:
 2592 0192 63684D73 		.ascii	"chMsgSend\000"
 2592      6753656E 
 2592      6400
 2593              	.LASF20:
 2594 019c 74737461 		.ascii	"tstate_t\000"
 2594      74655F74 
 2594      00
 2595              	.LASF92:
 2596 01a5 73655F74 		.ascii	"se_tp\000"
 2596      7000
 2597              	.LASF133:
 2598 01ab 63684D73 		.ascii	"chMsgIsPendingI\000"
 2598      67497350 
 2598      656E6469 
 2598      6E674900 
 2599              	.LASF140:
 2600 01bb 474E5520 		.ascii	"GNU C 4.8.4 20141219 (release) -mcpu=cortex-m4 -mno"
 2600      4320342E 
 2600      382E3420 
 2600      32303134 
 2600      31323139 
 2601 01ee 2D746875 		.ascii	"-thumb-interwork -mthumb -ggdb -O0 -fomit-frame-poi"
 2601      6D622D69 
 2601      6E746572 
 2601      776F726B 
 2601      202D6D74 
 2602 0221 6E746572 		.ascii	"nter -falign-functions=16 -ffunction-sections -fdat"
 2602      202D6661 
 2602      6C69676E 
 2602      2D66756E 
 2602      6374696F 
 2603 0254 612D7365 		.ascii	"a-sections -fno-common\000"
 2603      6374696F 
 2603      6E73202D 
 2603      666E6F2D 
 2603      636F6D6D 
 2604              	.LASF33:
 2605 026b 705F6E65 		.ascii	"p_newer\000"
 2605      77657200 
 2606              	.LASF120:
 2607 0273 735F7175 		.ascii	"s_queue\000"
 2607      65756500 
 2608              	.LASF96:
 2609 027b 74625F73 		.ascii	"tb_size\000"
 2609      697A6500 
 2610              	.LASF59:
 2611 0283 725F6E65 		.ascii	"r_newer\000"
 2611      77657200 
ARM GAS  /tmp/cc1COs80.s 			page 49


 2612              	.LASF87:
 2613 028b 72656761 		.ascii	"regarm_t\000"
 2613      726D5F74 
 2613      00
 2614              	.LASF66:
 2615 0294 76745F70 		.ascii	"vt_prev\000"
 2615      72657600 
 2616              	.LASF74:
 2617 029c 63685F73 		.ascii	"ch_system_debug\000"
 2617      79737465 
 2617      6D5F6465 
 2617      62756700 
 2618              	.LASF127:
 2619 02ac 6D757465 		.ascii	"mutex_t\000"
 2619      785F7400 
 2620              	.LASF143:
 2621 02b4 76616C75 		.ascii	"value\000"
 2621      6500
 2622              	.LASF77:
 2623 02ba 6C6F636B 		.ascii	"lock_cnt\000"
 2623      5F636E74 
 2623      00
 2624              	.LASF85:
 2625 02c3 69646C65 		.ascii	"idle_thread_wa\000"
 2625      5F746872 
 2625      6561645F 
 2625      776100
 2626              	.LASF25:
 2627 02d2 636E745F 		.ascii	"cnt_t\000"
 2627      7400
 2628              	.LASF36:
 2629 02d8 705F7374 		.ascii	"p_stklimit\000"
 2629      6B6C696D 
 2629      697400
 2630              	.LASF0:
 2631 02e3 756E7369 		.ascii	"unsigned int\000"
 2631      676E6564 
 2631      20696E74 
 2631      00
 2632              	.LASF65:
 2633 02f0 76745F6E 		.ascii	"vt_next\000"
 2633      65787400 
 2634              	.LASF116:
 2635 02f8 77747365 		.ascii	"wtsemp\000"
 2635      6D7000
 2636              	.LASF41:
 2637 02ff 705F6D73 		.ascii	"p_msgqueue\000"
 2637      67717565 
 2637      756500
 2638              	.LASF107:
 2639 030a 6E5F6972 		.ascii	"n_irq\000"
 2639      7100
 2640              	.LASF121:
 2641 0310 735F636E 		.ascii	"s_cnt\000"
 2641      7400
 2642              	.LASF4:
 2643 0316 73686F72 		.ascii	"short unsigned int\000"
ARM GAS  /tmp/cc1COs80.s 			page 50


 2643      7420756E 
 2643      7369676E 
 2643      65642069 
 2643      6E7400
 2644              	.LASF111:
 2645 0329 6B65726E 		.ascii	"kernel_stats_t\000"
 2645      656C5F73 
 2645      74617473 
 2645      5F7400
 2646              	.LASF50:
 2647 0338 63685F74 		.ascii	"ch_thread\000"
 2647      68726561 
 2647      6400
 2648              	.LASF23:
 2649 0342 6D73675F 		.ascii	"msg_t\000"
 2649      7400
 2650              	.LASF104:
 2651 0348 6C617374 		.ascii	"last\000"
 2651      00
 2652              	.LASF26:
 2653 034d 75636E74 		.ascii	"ucnt_t\000"
 2653      5F7400
 2654              	.LASF79:
 2655 0354 63685F73 		.ascii	"ch_system_t\000"
 2655      79737465 
 2655      6D5F7400 
 2656              	.LASF19:
 2657 0360 746D6F64 		.ascii	"tmode_t\000"
 2657      655F7400 
 2658              	.LASF110:
 2659 0368 6D5F6372 		.ascii	"m_crit_isr\000"
 2659      69745F69 
 2659      737200
 2660              	.LASF55:
 2661 0373 63685F72 		.ascii	"ch_ready_list\000"
 2661      65616479 
 2661      5F6C6973 
 2661      7400
 2662              	.LASF24:
 2663 0381 6576656E 		.ascii	"eventmask_t\000"
 2663      746D6173 
 2663      6B5F7400 
 2664              	.LASF6:
 2665 038d 5F5F696E 		.ascii	"__int32_t\000"
 2665      7433325F 
 2665      7400
 2666              	.LASF88:
 2667 0397 73746B61 		.ascii	"stkalign_t\000"
 2667      6C69676E 
 2667      5F7400
 2668              	.LASF40:
 2669 03a2 705F7761 		.ascii	"p_waiting\000"
 2669      6974696E 
 2669      6700
 2670              	.LASF86:
 2671 03ac 73697A65 		.ascii	"sizetype\000"
 2671      74797065 
ARM GAS  /tmp/cc1COs80.s 			page 51


 2671      00
 2672              	.LASF48:
 2673 03b5 74687265 		.ascii	"thread_reference_t\000"
 2673      61645F72 
 2673      65666572 
 2673      656E6365 
 2673      5F7400
 2674              	.LASF71:
 2675 03c8 63685F76 		.ascii	"ch_virtual_timers_list\000"
 2675      69727475 
 2675      616C5F74 
 2675      696D6572 
 2675      735F6C69 
 2676              	.LASF95:
 2677 03df 63685F73 		.ascii	"ch_swc_event_t\000"
 2677      77635F65 
 2677      76656E74 
 2677      5F7400
 2678              	.LASF72:
 2679 03ee 76745F6C 		.ascii	"vt_lasttime\000"
 2679      61737474 
 2679      696D6500 
 2680              	.LASF34:
 2681 03fa 705F6F6C 		.ascii	"p_older\000"
 2681      64657200 
 2682              	.LASF58:
 2683 0402 725F6374 		.ascii	"r_ctx\000"
 2683      7800
 2684              	.LASF101:
 2685 0408 746D5F63 		.ascii	"tm_calibration_t\000"
 2685      616C6962 
 2685      72617469 
 2685      6F6E5F74 
 2685      00
 2686              	.LASF125:
 2687 0419 6D5F6E65 		.ascii	"m_next\000"
 2687      787400
 2688              	.LASF61:
 2689 0420 725F6375 		.ascii	"r_current\000"
 2689      7272656E 
 2689      7400
 2690              	.LASF60:
 2691 042a 725F6F6C 		.ascii	"r_older\000"
 2691      64657200 
 2692              	.LASF11:
 2693 0432 5F5F7569 		.ascii	"__uint64_t\000"
 2693      6E743634 
 2693      5F7400
 2694              	.LASF105:
 2695 043d 63756D75 		.ascii	"cumulative\000"
 2695      6C617469 
 2695      766500
 2696              	.LASF21:
 2697 0448 74726566 		.ascii	"trefs_t\000"
 2697      735F7400 
 2698              	.LASF98:
 2699 0450 74625F62 		.ascii	"tb_buffer\000"
ARM GAS  /tmp/cc1COs80.s 			page 52


 2699      75666665 
 2699      7200
 2700              	.LASF63:
 2701 045a 76697274 		.ascii	"virtual_timer_t\000"
 2701      75616C5F 
 2701      74696D65 
 2701      725F7400 
 2702              	.LASF30:
 2703 046a 705F7072 		.ascii	"p_prev\000"
 2703      657600
 2704              	.LASF22:
 2705 0471 74707269 		.ascii	"tprio_t\000"
 2705      6F5F7400 
 2706              	.LASF108:
 2707 0479 6E5F6374 		.ascii	"n_ctxswc\000"
 2707      78737763 
 2707      00
 2708              	.LASF134:
 2709 0482 5F426F6F 		.ascii	"_Bool\000"
 2709      6C00
 2710              	.LASF14:
 2711 0488 696E7433 		.ascii	"int32_t\000"
 2711      325F7400 
 2712              	.LASF2:
 2713 0490 756E7369 		.ascii	"unsigned char\000"
 2713      676E6564 
 2713      20636861 
 2713      7200
 2714              	.LASF44:
 2715 049e 705F6D74 		.ascii	"p_mtxlist\000"
 2715      786C6973 
 2715      7400
 2716              	.LASF3:
 2717 04a8 73686F72 		.ascii	"short int\000"
 2717      7420696E 
 2717      7400
 2718              	.LASF37:
 2719 04b2 705F7374 		.ascii	"p_state\000"
 2719      61746500 
 2720              	.LASF57:
 2721 04ba 725F7072 		.ascii	"r_prio\000"
 2721      696F00
 2722              	.LASF118:
 2723 04c1 65776D61 		.ascii	"ewmask\000"
 2723      736B00
 2724              	.LASF29:
 2725 04c8 705F6E65 		.ascii	"p_next\000"
 2725      787400
 2726              	.LASF38:
 2727 04cf 705F666C 		.ascii	"p_flags\000"
 2727      61677300 
 2728              	.LASF136:
 2729 04d7 5F5F6675 		.ascii	"__func__\000"
 2729      6E635F5F 
 2729      00
 2730              	.LASF47:
 2731 04e0 705F7374 		.ascii	"p_stats\000"
ARM GAS  /tmp/cc1COs80.s 			page 53


 2731      61747300 
 2732              	.LASF144:
 2733 04e8 63685379 		.ascii	"chSysLock\000"
 2733      734C6F63 
 2733      6B00
 2734              	.LASF64:
 2735 04f2 63685F76 		.ascii	"ch_virtual_timer\000"
 2735      69727475 
 2735      616C5F74 
 2735      696D6572 
 2735      00
 2736              	.LASF145:
 2737 0503 63684D73 		.ascii	"chMsgRelease\000"
 2737      6752656C 
 2737      65617365 
 2737      00
 2738              	.LASF119:
 2739 0510 63685F73 		.ascii	"ch_semaphore\000"
 2739      656D6170 
 2739      686F7265 
 2739      00
 2740              	.LASF43:
 2741 051d 705F6570 		.ascii	"p_epending\000"
 2741      656E6469 
 2741      6E6700
 2742              	.LASF15:
 2743 0528 75696E74 		.ascii	"uint32_t\000"
 2743      33325F74 
 2743      00
 2744              	.LASF117:
 2745 0531 77746D74 		.ascii	"wtmtxp\000"
 2745      787000
 2746              	.LASF56:
 2747 0538 725F7175 		.ascii	"r_queue\000"
 2747      65756500 
 2748              	.LASF67:
 2749 0540 76745F64 		.ascii	"vt_delta\000"
 2749      656C7461 
 2749      00
 2750              	.LASF51:
 2751 0549 63685F74 		.ascii	"ch_threads_list\000"
 2751      68726561 
 2751      64735F6C 
 2751      69737400 
 2752              	.LASF9:
 2753 0559 6C6F6E67 		.ascii	"long unsigned int\000"
 2753      20756E73 
 2753      69676E65 
 2753      6420696E 
 2753      7400
 2754              	.LASF126:
 2755 056b 63686172 		.ascii	"char\000"
 2755      00
 2756              	.LASF28:
 2757 0570 74687265 		.ascii	"thread_t\000"
 2757      61645F74 
 2757      00
ARM GAS  /tmp/cc1COs80.s 			page 54


 2758              	.LASF102:
 2759 0579 62657374 		.ascii	"best\000"
 2759      00
 2760              	.LASF132:
 2761 057e 71756575 		.ascii	"queue_fifo_remove\000"
 2761      655F6669 
 2761      666F5F72 
 2761      656D6F76 
 2761      6500
 2762              	.LASF27:
 2763 0590 73797374 		.ascii	"systime_t\000"
 2763      696D655F 
 2763      7400
 2764              	.LASF45:
 2765 059a 705F7265 		.ascii	"p_realprio\000"
 2765      616C7072 
 2765      696F00
 2766              	.LASF62:
 2767 05a5 76746675 		.ascii	"vtfunc_t\000"
 2767      6E635F74 
 2767      00
 2768              	.LASF8:
 2769 05ae 5F5F7569 		.ascii	"__uint32_t\000"
 2769      6E743332 
 2769      5F7400
 2770              	.LASF142:
 2771 05b9 5F5F7365 		.ascii	"__set_BASEPRI\000"
 2771      745F4241 
 2771      53455052 
 2771      4900
 2772              	.LASF75:
 2773 05c7 70616E69 		.ascii	"panic_msg\000"
 2773      635F6D73 
 2773      6700
 2774              	.LASF100:
 2775 05d1 6F666673 		.ascii	"offset\000"
 2775      657400
 2776              	.LASF89:
 2777 05d8 636F6E74 		.ascii	"context\000"
 2777      65787400 
 2778              	.LASF17:
 2779 05e0 7274636E 		.ascii	"rtcnt_t\000"
 2779      745F7400 
 2780              	.LASF69:
 2781 05e8 76745F70 		.ascii	"vt_par\000"
 2781      617200
 2782              	.LASF138:
 2783 05ef 63684D73 		.ascii	"chMsgWait\000"
 2783      67576169 
 2783      7400
 2784              	.LASF52:
 2785 05f9 74687265 		.ascii	"threads_queue_t\000"
 2785      6164735F 
 2785      71756575 
 2785      655F7400 
 2786              	.LASF122:
 2787 0609 63685F6D 		.ascii	"ch_mutex\000"
ARM GAS  /tmp/cc1COs80.s 			page 55


 2787      75746578 
 2787      00
 2788              	.LASF39:
 2789 0612 705F7265 		.ascii	"p_refs\000"
 2789      667300
 2790              	.LASF76:
 2791 0619 6973725F 		.ascii	"isr_cnt\000"
 2791      636E7400 
 2792              	.LASF81:
 2793 0621 726C6973 		.ascii	"rlist\000"
 2793      7400
 2794              	.LASF13:
 2795 0627 75696E74 		.ascii	"uint8_t\000"
 2795      385F7400 
 2796              	.LASF114:
 2797 062f 77746F62 		.ascii	"wtobjp\000"
 2797      6A7000
 2798              	.LASF35:
 2799 0636 705F6E61 		.ascii	"p_name\000"
 2799      6D6500
 2800              	.LASF49:
 2801 063d 74687265 		.ascii	"threads_list_t\000"
 2801      6164735F 
 2801      6C697374 
 2801      5F7400
 2802              	.LASF78:
 2803 064c 74726163 		.ascii	"trace_buffer\000"
 2803      655F6275 
 2803      66666572 
 2803      00
 2804              	.LASF131:
 2805 0659 63685379 		.ascii	"chSysUnlock\000"
 2805      73556E6C 
 2805      6F636B00 
 2806              	.LASF42:
 2807 0665 705F6D73 		.ascii	"p_msg\000"
 2807      6700
 2808              	.LASF135:
 2809 066b 63684D73 		.ascii	"chMsgReleaseS\000"
 2809      6752656C 
 2809      65617365 
 2809      5300
 2810              	.LASF109:
 2811 0679 6D5F6372 		.ascii	"m_crit_thd\000"
 2811      69745F74 
 2811      686400
 2812              	.LASF124:
 2813 0684 6D5F6F77 		.ascii	"m_owner\000"
 2813      6E657200 
 2814              	.LASF93:
 2815 068c 73655F77 		.ascii	"se_wtobjp\000"
 2815      746F626A 
 2815      7000
 2816              	.LASF32:
 2817 0696 705F6374 		.ascii	"p_ctx\000"
 2817      7800
 2818              	.LASF68:
ARM GAS  /tmp/cc1COs80.s 			page 56


 2819 069c 76745F66 		.ascii	"vt_func\000"
 2819      756E6300 
 2820              		.ident	"GCC: (4.8.4-1+11-1) 4.8.4 20141219 (release)"
ARM GAS  /tmp/cc1COs80.s 			page 57


DEFINED SYMBOLS
                            *ABS*:0000000000000000 chmsg.c
     /tmp/cc1COs80.s:19     .text.port_lock:0000000000000000 $t
     /tmp/cc1COs80.s:24     .text.port_lock:0000000000000000 port_lock
     /tmp/cc1COs80.s:55     .text.port_unlock:0000000000000000 $t
     /tmp/cc1COs80.s:60     .text.port_unlock:0000000000000000 port_unlock
     /tmp/cc1COs80.s:89     .text.queue_insert:0000000000000000 $t
     /tmp/cc1COs80.s:94     .text.queue_insert:0000000000000000 queue_insert
     /tmp/cc1COs80.s:132    .text.queue_fifo_remove:0000000000000000 $t
     /tmp/cc1COs80.s:137    .text.queue_fifo_remove:0000000000000000 queue_fifo_remove
     /tmp/cc1COs80.s:172    .text.chSysLock:0000000000000000 $t
     /tmp/cc1COs80.s:177    .text.chSysLock:0000000000000000 chSysLock
     /tmp/cc1COs80.s:200    .text.chSysUnlock:0000000000000000 $t
     /tmp/cc1COs80.s:205    .text.chSysUnlock:0000000000000000 chSysUnlock
     /tmp/cc1COs80.s:244    .text.chSysUnlock:0000000000000030 $d
     /tmp/cc1COs80.s:522    .rodata.__func__.5925:0000000000000000 __func__.5925
     /tmp/cc1COs80.s:250    .text.chMsgIsPendingI:0000000000000000 $t
     /tmp/cc1COs80.s:255    .text.chMsgIsPendingI:0000000000000000 chMsgIsPendingI
     /tmp/cc1COs80.s:289    .text.chMsgReleaseS:0000000000000000 $t
     /tmp/cc1COs80.s:294    .text.chMsgReleaseS:0000000000000000 chMsgReleaseS
     /tmp/cc1COs80.s:321    .text.chMsgSend:0000000000000000 $t
     /tmp/cc1COs80.s:327    .text.chMsgSend:0000000000000000 chMsgSend
     /tmp/cc1COs80.s:398    .text.chMsgSend:0000000000000064 $d
     /tmp/cc1COs80.s:516    .rodata.__func__.6622:0000000000000000 __func__.6622
     /tmp/cc1COs80.s:404    .text.chMsgWait:0000000000000000 $t
     /tmp/cc1COs80.s:410    .text.chMsgWait:0000000000000000 chMsgWait
     /tmp/cc1COs80.s:460    .text.chMsgWait:0000000000000048 $d
     /tmp/cc1COs80.s:465    .text.chMsgRelease:0000000000000000 $t
     /tmp/cc1COs80.s:471    .text.chMsgRelease:0000000000000000 chMsgRelease
     /tmp/cc1COs80.s:508    .text.chMsgRelease:0000000000000030 $d
     /tmp/cc1COs80.s:528    .rodata.__func__.6631:0000000000000000 __func__.6631
     /tmp/cc1COs80.s:513    .rodata.__func__.6622:0000000000000000 $d
     /tmp/cc1COs80.s:519    .rodata.__func__.5925:0000000000000000 $d
     /tmp/cc1COs80.s:525    .rodata.__func__.6631:0000000000000000 $d
                     .debug_frame:0000000000000010 $d
     /tmp/cc1COs80.s:249    .text.chSysUnlock:0000000000000038 $t
     /tmp/cc1COs80.s:403    .text.chMsgSend:000000000000006c $t
     /tmp/cc1COs80.s:464    .text.chMsgWait:000000000000004c $t
     /tmp/cc1COs80.s:512    .text.chMsgRelease:0000000000000034 $t

UNDEFINED SYMBOLS
_stats_start_measure_crit_thd
_dbg_check_lock
_dbg_check_unlock
_stats_stop_measure_crit_thd
chSysHalt
ch
chDbgCheckClassI
chDbgCheckClassS
chSchWakeupS
chSchReadyI
chSchGoSleepS
