ARM GAS  /tmp/ccJpMOgj.s 			page 1


   1              		.syntax unified
   2              		.cpu cortex-m4
   3              		.fpu softvfp
   4              		.eabi_attribute 20, 1
   5              		.eabi_attribute 21, 1
   6              		.eabi_attribute 23, 3
   7              		.eabi_attribute 24, 1
   8              		.eabi_attribute 25, 1
   9              		.eabi_attribute 26, 1
  10              		.eabi_attribute 30, 6
  11              		.eabi_attribute 34, 1
  12              		.eabi_attribute 18, 4
  13              		.thumb
  14              		.file	"chmtx.c"
  15              		.text
  16              	.Ltext0:
  17              		.cfi_sections	.debug_frame
  18              		.section	.text.port_lock,"ax",%progbits
  19              		.align	2
  20              		.p2align 4,,15
  21              		.thumb
  22              		.thumb_func
  23              		.type	port_lock, %function
  24              	port_lock:
  25              	.LFB127:
  26              		.file 1 "/home/efe/ChibiOS/os/rt/ports/ARMCMx/chcore_v7m.h"
  27              		.loc 1 456 0
  28              		.cfi_startproc
  29              		@ args = 0, pretend = 0, frame = 8
  30              		@ frame_needed = 0, uses_anonymous_args = 0
  31              		@ link register save eliminated.
  32 0000 82B0     		sub	sp, sp, #8
  33              		.cfi_def_cfa_offset 8
  34 0002 2023     		movs	r3, #32
  35 0004 0193     		str	r3, [sp, #4]
  36              	.LBB6:
  37              	.LBB7:
  38              		.file 2 "/home/efe/ChibiOS/os/ext/CMSIS/include/core_cmFunc.h"
  39              		.loc 2 548 0
  40 0006 019B     		ldr	r3, [sp, #4]
  41              	@ 548 "/home/efe/ChibiOS/os/ext/CMSIS/include/core_cmFunc.h" 1
  42 0008 83F31188 		MSR basepri, r3
  43              	@ 0 "" 2
  44              		.thumb
  45              	.LBE7:
  46              	.LBE6:
  47              		.loc 1 463 0
  48 000c 02B0     		add	sp, sp, #8
  49              		@ sp needed
  50 000e 7047     		bx	lr
  51              		.cfi_endproc
  52              	.LFE127:
  53              		.size	port_lock, .-port_lock
  54              		.section	.text.port_unlock,"ax",%progbits
  55              		.align	2
  56              		.p2align 4,,15
  57              		.thumb
ARM GAS  /tmp/ccJpMOgj.s 			page 2


  58              		.thumb_func
  59              		.type	port_unlock, %function
  60              	port_unlock:
  61              	.LFB128:
  62              		.loc 1 470 0
  63              		.cfi_startproc
  64              		@ args = 0, pretend = 0, frame = 8
  65              		@ frame_needed = 0, uses_anonymous_args = 0
  66              		@ link register save eliminated.
  67 0000 82B0     		sub	sp, sp, #8
  68              		.cfi_def_cfa_offset 8
  69 0002 0023     		movs	r3, #0
  70 0004 0193     		str	r3, [sp, #4]
  71              	.LBB8:
  72              	.LBB9:
  73              		.loc 2 548 0
  74 0006 019B     		ldr	r3, [sp, #4]
  75              	@ 548 "/home/efe/ChibiOS/os/ext/CMSIS/include/core_cmFunc.h" 1
  76 0008 83F31188 		MSR basepri, r3
  77              	@ 0 "" 2
  78              		.thumb
  79              	.LBE9:
  80              	.LBE8:
  81              		.loc 1 477 0
  82 000c 02B0     		add	sp, sp, #8
  83              		@ sp needed
  84 000e 7047     		bx	lr
  85              		.cfi_endproc
  86              	.LFE128:
  87              		.size	port_unlock, .-port_unlock
  88              		.section	.text.queue_init,"ax",%progbits
  89              		.align	2
  90              		.p2align 4,,15
  91              		.thumb
  92              		.thumb_func
  93              		.type	queue_init, %function
  94              	queue_init:
  95              	.LFB150:
  96              		.file 3 "/home/efe/ChibiOS/os/rt/include/chschd.h"
  97              		.loc 3 602 0
  98              		.cfi_startproc
  99              		@ args = 0, pretend = 0, frame = 8
 100              		@ frame_needed = 0, uses_anonymous_args = 0
 101              		@ link register save eliminated.
 102 0000 82B0     		sub	sp, sp, #8
 103              		.cfi_def_cfa_offset 8
 104 0002 0190     		str	r0, [sp, #4]
 105              		.loc 3 604 0
 106 0004 019B     		ldr	r3, [sp, #4]
 107 0006 019A     		ldr	r2, [sp, #4]
 108 0008 1A60     		str	r2, [r3]
 109              		.loc 3 605 0
 110 000a 019B     		ldr	r3, [sp, #4]
 111 000c 019A     		ldr	r2, [sp, #4]
 112 000e 5A60     		str	r2, [r3, #4]
 113              		.loc 3 606 0
 114 0010 02B0     		add	sp, sp, #8
ARM GAS  /tmp/ccJpMOgj.s 			page 3


 115              		@ sp needed
 116 0012 7047     		bx	lr
 117              		.cfi_endproc
 118              	.LFE150:
 119              		.size	queue_init, .-queue_init
 120 0014 AFF30080 		.section	.text.queue_notempty,"ax",%progbits
 120      AFF30080 
 120      AFF30080 
 121              		.align	2
 122              		.p2align 4,,15
 123              		.thumb
 124              		.thumb_func
 125              		.type	queue_notempty, %function
 126              	queue_notempty:
 127              	.LFB152:
 128              		.loc 3 629 0
 129              		.cfi_startproc
 130              		@ args = 0, pretend = 0, frame = 8
 131              		@ frame_needed = 0, uses_anonymous_args = 0
 132              		@ link register save eliminated.
 133 0000 82B0     		sub	sp, sp, #8
 134              		.cfi_def_cfa_offset 8
 135 0002 0190     		str	r0, [sp, #4]
 136              		.loc 3 631 0
 137 0004 019B     		ldr	r3, [sp, #4]
 138 0006 1A68     		ldr	r2, [r3]
 139 0008 019B     		ldr	r3, [sp, #4]
 140 000a 9A42     		cmp	r2, r3
 141 000c 0CBF     		ite	eq
 142 000e 0023     		moveq	r3, #0
 143 0010 0123     		movne	r3, #1
 144 0012 DBB2     		uxtb	r3, r3
 145              		.loc 3 632 0
 146 0014 1846     		mov	r0, r3
 147 0016 02B0     		add	sp, sp, #8
 148              		@ sp needed
 149 0018 7047     		bx	lr
 150              		.cfi_endproc
 151              	.LFE152:
 152              		.size	queue_notempty, .-queue_notempty
 153 001a 00BFAFF3 		.section	.text.queue_prio_insert,"ax",%progbits
 153      0080
 154              		.align	2
 155              		.p2align 4,,15
 156              		.thumb
 157              		.thumb_func
 158              		.type	queue_prio_insert, %function
 159              	queue_prio_insert:
 160              	.LFB155:
 161              		.loc 3 651 0
 162              		.cfi_startproc
 163              		@ args = 0, pretend = 0, frame = 16
 164              		@ frame_needed = 0, uses_anonymous_args = 0
 165              		@ link register save eliminated.
 166 0000 84B0     		sub	sp, sp, #16
 167              		.cfi_def_cfa_offset 16
 168 0002 0190     		str	r0, [sp, #4]
ARM GAS  /tmp/ccJpMOgj.s 			page 4


 169 0004 0091     		str	r1, [sp]
 170              		.loc 3 653 0
 171 0006 009B     		ldr	r3, [sp]
 172 0008 0393     		str	r3, [sp, #12]
 173              	.L8:
 174              		.loc 3 655 0 discriminator 1
 175 000a 039B     		ldr	r3, [sp, #12]
 176 000c 1B68     		ldr	r3, [r3]
 177 000e 0393     		str	r3, [sp, #12]
 178              		.loc 3 656 0 discriminator 1
 179 0010 039A     		ldr	r2, [sp, #12]
 180 0012 009B     		ldr	r3, [sp]
 181 0014 9A42     		cmp	r2, r3
 182 0016 05D0     		beq	.L7
 183 0018 039B     		ldr	r3, [sp, #12]
 184 001a 9A68     		ldr	r2, [r3, #8]
 185 001c 019B     		ldr	r3, [sp, #4]
 186 001e 9B68     		ldr	r3, [r3, #8]
 187 0020 9A42     		cmp	r2, r3
 188 0022 F2D2     		bcs	.L8
 189              	.L7:
 190              		.loc 3 657 0
 191 0024 019B     		ldr	r3, [sp, #4]
 192 0026 039A     		ldr	r2, [sp, #12]
 193 0028 1A60     		str	r2, [r3]
 194              		.loc 3 658 0
 195 002a 039B     		ldr	r3, [sp, #12]
 196 002c 5A68     		ldr	r2, [r3, #4]
 197 002e 019B     		ldr	r3, [sp, #4]
 198 0030 5A60     		str	r2, [r3, #4]
 199              		.loc 3 659 0
 200 0032 019B     		ldr	r3, [sp, #4]
 201 0034 5B68     		ldr	r3, [r3, #4]
 202 0036 019A     		ldr	r2, [sp, #4]
 203 0038 1A60     		str	r2, [r3]
 204              		.loc 3 660 0
 205 003a 039B     		ldr	r3, [sp, #12]
 206 003c 019A     		ldr	r2, [sp, #4]
 207 003e 5A60     		str	r2, [r3, #4]
 208              		.loc 3 661 0
 209 0040 04B0     		add	sp, sp, #16
 210              		@ sp needed
 211 0042 7047     		bx	lr
 212              		.cfi_endproc
 213              	.LFE155:
 214              		.size	queue_prio_insert, .-queue_prio_insert
 215 0044 AFF30080 		.section	.text.queue_fifo_remove,"ax",%progbits
 215      AFF30080 
 215      AFF30080 
 216              		.align	2
 217              		.p2align 4,,15
 218              		.thumb
 219              		.thumb_func
 220              		.type	queue_fifo_remove, %function
 221              	queue_fifo_remove:
 222              	.LFB157:
 223              		.loc 3 671 0
ARM GAS  /tmp/ccJpMOgj.s 			page 5


 224              		.cfi_startproc
 225              		@ args = 0, pretend = 0, frame = 16
 226              		@ frame_needed = 0, uses_anonymous_args = 0
 227              		@ link register save eliminated.
 228 0000 84B0     		sub	sp, sp, #16
 229              		.cfi_def_cfa_offset 16
 230 0002 0190     		str	r0, [sp, #4]
 231              		.loc 3 672 0
 232 0004 019B     		ldr	r3, [sp, #4]
 233 0006 1B68     		ldr	r3, [r3]
 234 0008 0393     		str	r3, [sp, #12]
 235              		.loc 3 674 0
 236 000a 039B     		ldr	r3, [sp, #12]
 237 000c 1A68     		ldr	r2, [r3]
 238 000e 019B     		ldr	r3, [sp, #4]
 239 0010 1A60     		str	r2, [r3]
 240              		.loc 3 675 0
 241 0012 019B     		ldr	r3, [sp, #4]
 242 0014 1B68     		ldr	r3, [r3]
 243 0016 019A     		ldr	r2, [sp, #4]
 244 0018 5A60     		str	r2, [r3, #4]
 245              		.loc 3 677 0
 246 001a 039B     		ldr	r3, [sp, #12]
 247              		.loc 3 678 0
 248 001c 1846     		mov	r0, r3
 249 001e 04B0     		add	sp, sp, #16
 250              		@ sp needed
 251 0020 7047     		bx	lr
 252              		.cfi_endproc
 253              	.LFE157:
 254              		.size	queue_fifo_remove, .-queue_fifo_remove
 255 0022 00BFAFF3 		.section	.text.queue_dequeue,"ax",%progbits
 255      0080AFF3 
 255      0080AFF3 
 255      0080
 256              		.align	2
 257              		.p2align 4,,15
 258              		.thumb
 259              		.thumb_func
 260              		.type	queue_dequeue, %function
 261              	queue_dequeue:
 262              	.LFB159:
 263              		.loc 3 689 0
 264              		.cfi_startproc
 265              		@ args = 0, pretend = 0, frame = 8
 266              		@ frame_needed = 0, uses_anonymous_args = 0
 267              		@ link register save eliminated.
 268 0000 82B0     		sub	sp, sp, #8
 269              		.cfi_def_cfa_offset 8
 270 0002 0190     		str	r0, [sp, #4]
 271              		.loc 3 691 0
 272 0004 019B     		ldr	r3, [sp, #4]
 273 0006 5B68     		ldr	r3, [r3, #4]
 274 0008 019A     		ldr	r2, [sp, #4]
 275 000a 1268     		ldr	r2, [r2]
 276 000c 1A60     		str	r2, [r3]
 277              		.loc 3 692 0
ARM GAS  /tmp/ccJpMOgj.s 			page 6


 278 000e 019B     		ldr	r3, [sp, #4]
 279 0010 1B68     		ldr	r3, [r3]
 280 0012 019A     		ldr	r2, [sp, #4]
 281 0014 5268     		ldr	r2, [r2, #4]
 282 0016 5A60     		str	r2, [r3, #4]
 283              		.loc 3 694 0
 284 0018 019B     		ldr	r3, [sp, #4]
 285              		.loc 3 695 0
 286 001a 1846     		mov	r0, r3
 287 001c 02B0     		add	sp, sp, #8
 288              		@ sp needed
 289 001e 7047     		bx	lr
 290              		.cfi_endproc
 291              	.LFE159:
 292              		.size	queue_dequeue, .-queue_dequeue
 293              		.section	.text.chSysLock,"ax",%progbits
 294              		.align	2
 295              		.p2align 4,,15
 296              		.thumb
 297              		.thumb_func
 298              		.type	chSysLock, %function
 299              	chSysLock:
 300              	.LFB167:
 301              		.file 4 "/home/efe/ChibiOS/os/rt/include/chsys.h"
 302              		.loc 4 346 0
 303              		.cfi_startproc
 304              		@ args = 0, pretend = 0, frame = 0
 305              		@ frame_needed = 0, uses_anonymous_args = 0
 306 0000 08B5     		push	{r3, lr}
 307              		.cfi_def_cfa_offset 8
 308              		.cfi_offset 3, -8
 309              		.cfi_offset 14, -4
 310              		.loc 4 348 0
 311 0002 FFF7FEFF 		bl	port_lock
 312              		.loc 4 349 0
 313 0006 FFF7FEFF 		bl	_stats_start_measure_crit_thd
 314              		.loc 4 350 0
 315 000a FFF7FEFF 		bl	_dbg_check_lock
 316              		.loc 4 351 0
 317 000e 08BD     		pop	{r3, pc}
 318              		.cfi_endproc
 319              	.LFE167:
 320              		.size	chSysLock, .-chSysLock
 321              		.section	.text.chSysUnlock,"ax",%progbits
 322              		.align	2
 323              		.p2align 4,,15
 324              		.thumb
 325              		.thumb_func
 326              		.type	chSysUnlock, %function
 327              	chSysUnlock:
 328              	.LFB168:
 329              		.loc 4 358 0
 330              		.cfi_startproc
 331              		@ args = 0, pretend = 0, frame = 0
 332              		@ frame_needed = 0, uses_anonymous_args = 0
 333 0000 08B5     		push	{r3, lr}
 334              		.cfi_def_cfa_offset 8
ARM GAS  /tmp/ccJpMOgj.s 			page 7


 335              		.cfi_offset 3, -8
 336              		.cfi_offset 14, -4
 337              		.loc 4 360 0
 338 0002 FFF7FEFF 		bl	_dbg_check_unlock
 339              		.loc 4 361 0
 340 0006 FFF7FEFF 		bl	_stats_stop_measure_crit_thd
 341              		.loc 4 367 0
 342 000a 094B     		ldr	r3, .L16
 343 000c 1A68     		ldr	r2, [r3]
 344 000e 084B     		ldr	r3, .L16
 345 0010 9A42     		cmp	r2, r3
 346 0012 0AD0     		beq	.L15
 347              		.loc 4 367 0 is_stmt 0 discriminator 1
 348 0014 064B     		ldr	r3, .L16
 349 0016 9B69     		ldr	r3, [r3, #24]
 350 0018 9A68     		ldr	r2, [r3, #8]
 351 001a 054B     		ldr	r3, .L16
 352 001c 1B68     		ldr	r3, [r3]
 353 001e 9B68     		ldr	r3, [r3, #8]
 354 0020 9A42     		cmp	r2, r3
 355 0022 02D2     		bcs	.L15
 356 0024 0348     		ldr	r0, .L16+4
 357 0026 FFF7FEFF 		bl	chSysHalt
 358              	.L15:
 359              		.loc 4 371 0 is_stmt 1
 360 002a FFF7FEFF 		bl	port_unlock
 361              		.loc 4 372 0
 362 002e 08BD     		pop	{r3, pc}
 363              	.L17:
 364              		.align	2
 365              	.L16:
 366 0030 00000000 		.word	ch
 367 0034 00000000 		.word	__func__.5925
 368              		.cfi_endproc
 369              	.LFE168:
 370              		.size	chSysUnlock, .-chSysUnlock
 371 0038 AFF30080 		.section	.text.chMtxQueueNotEmptyS,"ax",%progbits
 371      AFF30080 
 372              		.align	2
 373              		.p2align 4,,15
 374              		.thumb
 375              		.thumb_func
 376              		.type	chMtxQueueNotEmptyS, %function
 377              	chMtxQueueNotEmptyS:
 378              	.LFB213:
 379              		.file 5 "/home/efe/ChibiOS/os/rt/include/chmtx.h"
 380              		.loc 5 129 0
 381              		.cfi_startproc
 382              		@ args = 0, pretend = 0, frame = 8
 383              		@ frame_needed = 0, uses_anonymous_args = 0
 384 0000 00B5     		push	{lr}
 385              		.cfi_def_cfa_offset 4
 386              		.cfi_offset 14, -4
 387 0002 83B0     		sub	sp, sp, #12
 388              		.cfi_def_cfa_offset 16
 389 0004 0190     		str	r0, [sp, #4]
 390              		.loc 5 131 0
ARM GAS  /tmp/ccJpMOgj.s 			page 8


 391 0006 FFF7FEFF 		bl	chDbgCheckClassS
 392              		.loc 5 133 0
 393 000a 019B     		ldr	r3, [sp, #4]
 394 000c 1846     		mov	r0, r3
 395 000e FFF7FEFF 		bl	queue_notempty
 396 0012 0346     		mov	r3, r0
 397              		.loc 5 134 0
 398 0014 1846     		mov	r0, r3
 399 0016 03B0     		add	sp, sp, #12
 400              		@ sp needed
 401 0018 5DF804FB 		ldr	pc, [sp], #4
 402              		.cfi_endproc
 403              	.LFE213:
 404              		.size	chMtxQueueNotEmptyS, .-chMtxQueueNotEmptyS
 405 001c AFF30080 		.section	.text.chMtxObjectInit,"ax",%progbits
 406              		.align	2
 407              		.p2align 4,,15
 408              		.global	chMtxObjectInit
 409              		.thumb
 410              		.thumb_func
 411              		.type	chMtxObjectInit, %function
 412              	chMtxObjectInit:
 413              	.LFB240:
 414              		.file 6 "/home/efe/ChibiOS/os/rt/src/chmtx.c"
 415              		.loc 6 103 0
 416              		.cfi_startproc
 417              		@ args = 0, pretend = 0, frame = 8
 418              		@ frame_needed = 0, uses_anonymous_args = 0
 419 0000 00B5     		push	{lr}
 420              		.cfi_def_cfa_offset 4
 421              		.cfi_offset 14, -4
 422 0002 83B0     		sub	sp, sp, #12
 423              		.cfi_def_cfa_offset 16
 424 0004 0190     		str	r0, [sp, #4]
 425              		.loc 6 105 0
 426 0006 019B     		ldr	r3, [sp, #4]
 427 0008 002B     		cmp	r3, #0
 428 000a 02D1     		bne	.L21
 429              		.loc 6 105 0 is_stmt 0 discriminator 1
 430 000c 0648     		ldr	r0, .L22
 431 000e FFF7FEFF 		bl	chSysHalt
 432              	.L21:
 433              		.loc 6 107 0 is_stmt 1
 434 0012 019B     		ldr	r3, [sp, #4]
 435 0014 1846     		mov	r0, r3
 436 0016 FFF7FEFF 		bl	queue_init
 437              		.loc 6 108 0
 438 001a 019B     		ldr	r3, [sp, #4]
 439 001c 0022     		movs	r2, #0
 440 001e 9A60     		str	r2, [r3, #8]
 441              		.loc 6 112 0
 442 0020 03B0     		add	sp, sp, #12
 443              		@ sp needed
 444 0022 5DF804FB 		ldr	pc, [sp], #4
 445              	.L23:
 446 0026 00BF     		.align	2
 447              	.L22:
ARM GAS  /tmp/ccJpMOgj.s 			page 9


 448 0028 00000000 		.word	__func__.6620
 449              		.cfi_endproc
 450              	.LFE240:
 451              		.size	chMtxObjectInit, .-chMtxObjectInit
 452 002c AFF30080 		.section	.text.chMtxLock,"ax",%progbits
 453              		.align	2
 454              		.p2align 4,,15
 455              		.global	chMtxLock
 456              		.thumb
 457              		.thumb_func
 458              		.type	chMtxLock, %function
 459              	chMtxLock:
 460              	.LFB241:
 461              		.loc 6 123 0
 462              		.cfi_startproc
 463              		@ args = 0, pretend = 0, frame = 8
 464              		@ frame_needed = 0, uses_anonymous_args = 0
 465 0000 00B5     		push	{lr}
 466              		.cfi_def_cfa_offset 4
 467              		.cfi_offset 14, -4
 468 0002 83B0     		sub	sp, sp, #12
 469              		.cfi_def_cfa_offset 16
 470 0004 0190     		str	r0, [sp, #4]
 471              		.loc 6 125 0
 472 0006 FFF7FEFF 		bl	chSysLock
 473              		.loc 6 126 0
 474 000a 0198     		ldr	r0, [sp, #4]
 475 000c FFF7FEFF 		bl	chMtxLockS
 476              		.loc 6 127 0
 477 0010 FFF7FEFF 		bl	chSysUnlock
 478              		.loc 6 128 0
 479 0014 03B0     		add	sp, sp, #12
 480              		@ sp needed
 481 0016 5DF804FB 		ldr	pc, [sp], #4
 482              		.cfi_endproc
 483              	.LFE241:
 484              		.size	chMtxLock, .-chMtxLock
 485 001a 00BFAFF3 		.section	.text.chMtxLockS,"ax",%progbits
 485      0080
 486              		.align	2
 487              		.p2align 4,,15
 488              		.global	chMtxLockS
 489              		.thumb
 490              		.thumb_func
 491              		.type	chMtxLockS, %function
 492              	chMtxLockS:
 493              	.LFB242:
 494              		.loc 6 139 0
 495              		.cfi_startproc
 496              		@ args = 0, pretend = 0, frame = 16
 497              		@ frame_needed = 0, uses_anonymous_args = 0
 498 0000 00B5     		push	{lr}
 499              		.cfi_def_cfa_offset 4
 500              		.cfi_offset 14, -4
 501 0002 85B0     		sub	sp, sp, #20
 502              		.cfi_def_cfa_offset 24
 503 0004 0190     		str	r0, [sp, #4]
ARM GAS  /tmp/ccJpMOgj.s 			page 10


 504              		.loc 6 140 0
 505 0006 3C4B     		ldr	r3, .L40
 506 0008 9B69     		ldr	r3, [r3, #24]
 507 000a 0293     		str	r3, [sp, #8]
 508              		.loc 6 142 0
 509 000c FFF7FEFF 		bl	chDbgCheckClassS
 510              		.loc 6 143 0
 511 0010 019B     		ldr	r3, [sp, #4]
 512 0012 002B     		cmp	r3, #0
 513 0014 02D1     		bne	.L26
 514              		.loc 6 143 0 is_stmt 0 discriminator 1
 515 0016 3948     		ldr	r0, .L40+4
 516 0018 FFF7FEFF 		bl	chSysHalt
 517              	.L26:
 518              		.loc 6 146 0 is_stmt 1
 519 001c 019B     		ldr	r3, [sp, #4]
 520 001e 9B68     		ldr	r3, [r3, #8]
 521 0020 002B     		cmp	r3, #0
 522 0022 5BD0     		beq	.L27
 523              	.LBB10:
 524              		.loc 6 161 0
 525 0024 019B     		ldr	r3, [sp, #4]
 526 0026 9B68     		ldr	r3, [r3, #8]
 527 0028 0393     		str	r3, [sp, #12]
 528              		.loc 6 165 0
 529 002a 34E0     		b	.L28
 530              	.L35:
 531              		.loc 6 167 0
 532 002c 029B     		ldr	r3, [sp, #8]
 533 002e 9A68     		ldr	r2, [r3, #8]
 534 0030 039B     		ldr	r3, [sp, #12]
 535 0032 9A60     		str	r2, [r3, #8]
 536              		.loc 6 170 0
 537 0034 039B     		ldr	r3, [sp, #12]
 538 0036 93F82030 		ldrb	r3, [r3, #32]	@ zero_extendqisi2
 539 003a 062B     		cmp	r3, #6
 540 003c 04D0     		beq	.L30
 541 003e 072B     		cmp	r3, #7
 542 0040 11D0     		beq	.L31
 543 0042 002B     		cmp	r3, #0
 544 0044 1AD0     		beq	.L32
 545              		.loc 6 206 0
 546 0046 25E0     		b	.L33
 547              	.L30:
 548              		.loc 6 173 0
 549 0048 0398     		ldr	r0, [sp, #12]
 550 004a FFF7FEFF 		bl	queue_dequeue
 551 004e 0246     		mov	r2, r0
 552 0050 039B     		ldr	r3, [sp, #12]
 553 0052 5B6A     		ldr	r3, [r3, #36]
 554 0054 1046     		mov	r0, r2
 555 0056 1946     		mov	r1, r3
 556 0058 FFF7FEFF 		bl	queue_prio_insert
 557              		.loc 6 174 0
 558 005c 039B     		ldr	r3, [sp, #12]
 559 005e 5B6A     		ldr	r3, [r3, #36]
 560 0060 9B68     		ldr	r3, [r3, #8]
ARM GAS  /tmp/ccJpMOgj.s 			page 11


 561 0062 0393     		str	r3, [sp, #12]
 562              		.loc 6 176 0
 563 0064 17E0     		b	.L28
 564              	.L31:
 565              		.loc 6 193 0
 566 0066 0398     		ldr	r0, [sp, #12]
 567 0068 FFF7FEFF 		bl	queue_dequeue
 568 006c 0246     		mov	r2, r0
 569 006e 039B     		ldr	r3, [sp, #12]
 570 0070 5B6A     		ldr	r3, [r3, #36]
 571 0072 1046     		mov	r0, r2
 572 0074 1946     		mov	r1, r3
 573 0076 FFF7FEFF 		bl	queue_prio_insert
 574              		.loc 6 194 0
 575 007a 0BE0     		b	.L33
 576              	.L32:
 577              		.loc 6 199 0
 578 007c 039B     		ldr	r3, [sp, #12]
 579 007e 0122     		movs	r2, #1
 580 0080 83F82020 		strb	r2, [r3, #32]
 581              		.loc 6 202 0
 582 0084 0398     		ldr	r0, [sp, #12]
 583 0086 FFF7FEFF 		bl	queue_dequeue
 584 008a 0346     		mov	r3, r0
 585 008c 1846     		mov	r0, r3
 586 008e FFF7FEFF 		bl	chSchReadyI
 587              		.loc 6 203 0
 588 0092 00BF     		nop
 589              	.L33:
 590              		.loc 6 208 0
 591 0094 05E0     		b	.L34
 592              	.L28:
 593              		.loc 6 165 0 discriminator 1
 594 0096 039B     		ldr	r3, [sp, #12]
 595 0098 9A68     		ldr	r2, [r3, #8]
 596 009a 029B     		ldr	r3, [sp, #8]
 597 009c 9B68     		ldr	r3, [r3, #8]
 598 009e 9A42     		cmp	r2, r3
 599 00a0 C4D3     		bcc	.L35
 600              	.L34:
 601              		.loc 6 212 0
 602 00a2 019B     		ldr	r3, [sp, #4]
 603 00a4 0298     		ldr	r0, [sp, #8]
 604 00a6 1946     		mov	r1, r3
 605 00a8 FFF7FEFF 		bl	queue_prio_insert
 606              		.loc 6 213 0
 607 00ac 029B     		ldr	r3, [sp, #8]
 608 00ae 019A     		ldr	r2, [sp, #4]
 609 00b0 5A62     		str	r2, [r3, #36]
 610              		.loc 6 214 0
 611 00b2 0620     		movs	r0, #6
 612 00b4 FFF7FEFF 		bl	chSchGoSleepS
 613              		.loc 6 218 0
 614 00b8 019B     		ldr	r3, [sp, #4]
 615 00ba 9A68     		ldr	r2, [r3, #8]
 616 00bc 029B     		ldr	r3, [sp, #8]
 617 00be 9A42     		cmp	r2, r3
ARM GAS  /tmp/ccJpMOgj.s 			page 12


 618 00c0 02D0     		beq	.L39
 619              		.loc 6 218 0 is_stmt 0 discriminator 1
 620 00c2 0E48     		ldr	r0, .L40+4
 621 00c4 FFF7FEFF 		bl	chSysHalt
 622              	.L39:
 623              		.loc 6 219 0 is_stmt 1 discriminator 1
 624 00c8 029B     		ldr	r3, [sp, #8]
 625 00ca DA6B     		ldr	r2, [r3, #60]
 626 00cc 019B     		ldr	r3, [sp, #4]
 627 00ce 9A42     		cmp	r2, r3
 628 00d0 03D0     		beq	.L37
 629 00d2 0A48     		ldr	r0, .L40+4
 630 00d4 FFF7FEFF 		bl	chSysHalt
 631              	.LBE10:
 632 00d8 0AE0     		b	.L25
 633              	.L37:
 634 00da 09E0     		b	.L25
 635              	.L27:
 636              		.loc 6 232 0
 637 00dc 019B     		ldr	r3, [sp, #4]
 638 00de 029A     		ldr	r2, [sp, #8]
 639 00e0 9A60     		str	r2, [r3, #8]
 640              		.loc 6 233 0
 641 00e2 029B     		ldr	r3, [sp, #8]
 642 00e4 DA6B     		ldr	r2, [r3, #60]
 643 00e6 019B     		ldr	r3, [sp, #4]
 644 00e8 DA60     		str	r2, [r3, #12]
 645              		.loc 6 234 0
 646 00ea 029B     		ldr	r3, [sp, #8]
 647 00ec 019A     		ldr	r2, [sp, #4]
 648 00ee DA63     		str	r2, [r3, #60]
 649              	.L25:
 650              		.loc 6 236 0
 651 00f0 05B0     		add	sp, sp, #20
 652              		@ sp needed
 653 00f2 5DF804FB 		ldr	pc, [sp], #4
 654              	.L41:
 655 00f6 00BF     		.align	2
 656              	.L40:
 657 00f8 00000000 		.word	ch
 658 00fc 00000000 		.word	__func__.6628
 659              		.cfi_endproc
 660              	.LFE242:
 661              		.size	chMtxLockS, .-chMtxLockS
 662              		.section	.text.chMtxTryLock,"ax",%progbits
 663              		.align	2
 664              		.p2align 4,,15
 665              		.global	chMtxTryLock
 666              		.thumb
 667              		.thumb_func
 668              		.type	chMtxTryLock, %function
 669              	chMtxTryLock:
 670              	.LFB243:
 671              		.loc 6 255 0
 672              		.cfi_startproc
 673              		@ args = 0, pretend = 0, frame = 16
 674              		@ frame_needed = 0, uses_anonymous_args = 0
ARM GAS  /tmp/ccJpMOgj.s 			page 13


 675 0000 00B5     		push	{lr}
 676              		.cfi_def_cfa_offset 4
 677              		.cfi_offset 14, -4
 678 0002 85B0     		sub	sp, sp, #20
 679              		.cfi_def_cfa_offset 24
 680 0004 0190     		str	r0, [sp, #4]
 681              		.loc 6 258 0
 682 0006 FFF7FEFF 		bl	chSysLock
 683              		.loc 6 259 0
 684 000a 0198     		ldr	r0, [sp, #4]
 685 000c FFF7FEFF 		bl	chMtxTryLockS
 686 0010 0346     		mov	r3, r0
 687 0012 8DF80F30 		strb	r3, [sp, #15]
 688              		.loc 6 260 0
 689 0016 FFF7FEFF 		bl	chSysUnlock
 690              		.loc 6 262 0
 691 001a 9DF80F30 		ldrb	r3, [sp, #15]	@ zero_extendqisi2
 692              		.loc 6 263 0
 693 001e 1846     		mov	r0, r3
 694 0020 05B0     		add	sp, sp, #20
 695              		@ sp needed
 696 0022 5DF804FB 		ldr	pc, [sp], #4
 697              		.cfi_endproc
 698              	.LFE243:
 699              		.size	chMtxTryLock, .-chMtxTryLock
 700 0026 00BFAFF3 		.section	.text.chMtxTryLockS,"ax",%progbits
 700      0080AFF3 
 700      0080
 701              		.align	2
 702              		.p2align 4,,15
 703              		.global	chMtxTryLockS
 704              		.thumb
 705              		.thumb_func
 706              		.type	chMtxTryLockS, %function
 707              	chMtxTryLockS:
 708              	.LFB244:
 709              		.loc 6 282 0
 710              		.cfi_startproc
 711              		@ args = 0, pretend = 0, frame = 8
 712              		@ frame_needed = 0, uses_anonymous_args = 0
 713 0000 00B5     		push	{lr}
 714              		.cfi_def_cfa_offset 4
 715              		.cfi_offset 14, -4
 716 0002 83B0     		sub	sp, sp, #12
 717              		.cfi_def_cfa_offset 16
 718 0004 0190     		str	r0, [sp, #4]
 719              		.loc 6 284 0
 720 0006 FFF7FEFF 		bl	chDbgCheckClassS
 721              		.loc 6 285 0
 722 000a 019B     		ldr	r3, [sp, #4]
 723 000c 002B     		cmp	r3, #0
 724 000e 02D1     		bne	.L45
 725              		.loc 6 285 0 is_stmt 0 discriminator 1
 726 0010 0D48     		ldr	r0, .L48
 727 0012 FFF7FEFF 		bl	chSysHalt
 728              	.L45:
 729              		.loc 6 287 0 is_stmt 1
ARM GAS  /tmp/ccJpMOgj.s 			page 14


 730 0016 019B     		ldr	r3, [sp, #4]
 731 0018 9B68     		ldr	r3, [r3, #8]
 732 001a 002B     		cmp	r3, #0
 733 001c 01D0     		beq	.L46
 734              		.loc 6 297 0
 735 001e 0023     		movs	r3, #0
 736 0020 0DE0     		b	.L47
 737              	.L46:
 738              		.loc 6 305 0
 739 0022 0A4B     		ldr	r3, .L48+4
 740 0024 9A69     		ldr	r2, [r3, #24]
 741 0026 019B     		ldr	r3, [sp, #4]
 742 0028 9A60     		str	r2, [r3, #8]
 743              		.loc 6 306 0
 744 002a 084B     		ldr	r3, .L48+4
 745 002c 9B69     		ldr	r3, [r3, #24]
 746 002e DA6B     		ldr	r2, [r3, #60]
 747 0030 019B     		ldr	r3, [sp, #4]
 748 0032 DA60     		str	r2, [r3, #12]
 749              		.loc 6 307 0
 750 0034 054B     		ldr	r3, .L48+4
 751 0036 9B69     		ldr	r3, [r3, #24]
 752 0038 019A     		ldr	r2, [sp, #4]
 753 003a DA63     		str	r2, [r3, #60]
 754              		.loc 6 308 0
 755 003c 0123     		movs	r3, #1
 756              	.L47:
 757              		.loc 6 309 0
 758 003e 1846     		mov	r0, r3
 759 0040 03B0     		add	sp, sp, #12
 760              		@ sp needed
 761 0042 5DF804FB 		ldr	pc, [sp], #4
 762              	.L49:
 763 0046 00BF     		.align	2
 764              	.L48:
 765 0048 00000000 		.word	__func__.6645
 766 004c 00000000 		.word	ch
 767              		.cfi_endproc
 768              	.LFE244:
 769              		.size	chMtxTryLockS, .-chMtxTryLockS
 770              		.section	.text.chMtxUnlock,"ax",%progbits
 771              		.align	2
 772              		.p2align 4,,15
 773              		.global	chMtxUnlock
 774              		.thumb
 775              		.thumb_func
 776              		.type	chMtxUnlock, %function
 777              	chMtxUnlock:
 778              	.LFB245:
 779              		.loc 6 323 0
 780              		.cfi_startproc
 781              		@ args = 0, pretend = 0, frame = 24
 782              		@ frame_needed = 0, uses_anonymous_args = 0
 783 0000 00B5     		push	{lr}
 784              		.cfi_def_cfa_offset 4
 785              		.cfi_offset 14, -4
 786 0002 87B0     		sub	sp, sp, #28
ARM GAS  /tmp/ccJpMOgj.s 			page 15


 787              		.cfi_def_cfa_offset 32
 788 0004 0190     		str	r0, [sp, #4]
 789              		.loc 6 324 0
 790 0006 354B     		ldr	r3, .L62
 791 0008 9B69     		ldr	r3, [r3, #24]
 792 000a 0393     		str	r3, [sp, #12]
 793              		.loc 6 327 0
 794 000c 019B     		ldr	r3, [sp, #4]
 795 000e 002B     		cmp	r3, #0
 796 0010 02D1     		bne	.L51
 797              		.loc 6 327 0 is_stmt 0 discriminator 1
 798 0012 3348     		ldr	r0, .L62+4
 799 0014 FFF7FEFF 		bl	chSysHalt
 800              	.L51:
 801              		.loc 6 329 0 is_stmt 1
 802 0018 FFF7FEFF 		bl	chSysLock
 803              		.loc 6 331 0
 804 001c 039B     		ldr	r3, [sp, #12]
 805 001e DB6B     		ldr	r3, [r3, #60]
 806 0020 002B     		cmp	r3, #0
 807 0022 02D1     		bne	.L60
 808              		.loc 6 331 0 is_stmt 0 discriminator 1
 809 0024 2E48     		ldr	r0, .L62+4
 810 0026 FFF7FEFF 		bl	chSysHalt
 811              	.L60:
 812              		.loc 6 332 0 is_stmt 1 discriminator 1
 813 002a 039B     		ldr	r3, [sp, #12]
 814 002c DB6B     		ldr	r3, [r3, #60]
 815 002e 9A68     		ldr	r2, [r3, #8]
 816 0030 039B     		ldr	r3, [sp, #12]
 817 0032 9A42     		cmp	r2, r3
 818 0034 02D0     		beq	.L61
 819 0036 2A48     		ldr	r0, .L62+4
 820 0038 FFF7FEFF 		bl	chSysHalt
 821              	.L61:
 822              		.loc 6 339 0 discriminator 1
 823 003c 039B     		ldr	r3, [sp, #12]
 824 003e DA6B     		ldr	r2, [r3, #60]
 825 0040 019B     		ldr	r3, [sp, #4]
 826 0042 9A42     		cmp	r2, r3
 827 0044 02D0     		beq	.L54
 828 0046 2648     		ldr	r0, .L62+4
 829 0048 FFF7FEFF 		bl	chSysHalt
 830              	.L54:
 831              		.loc 6 344 0
 832 004c 019B     		ldr	r3, [sp, #4]
 833 004e DA68     		ldr	r2, [r3, #12]
 834 0050 039B     		ldr	r3, [sp, #12]
 835 0052 DA63     		str	r2, [r3, #60]
 836              		.loc 6 347 0
 837 0054 0198     		ldr	r0, [sp, #4]
 838 0056 FFF7FEFF 		bl	chMtxQueueNotEmptyS
 839 005a 0346     		mov	r3, r0
 840 005c 002B     		cmp	r3, #0
 841 005e 34D0     		beq	.L55
 842              	.LBB11:
 843              		.loc 6 352 0
ARM GAS  /tmp/ccJpMOgj.s 			page 16


 844 0060 039B     		ldr	r3, [sp, #12]
 845 0062 1B6C     		ldr	r3, [r3, #64]
 846 0064 0493     		str	r3, [sp, #16]
 847              		.loc 6 353 0
 848 0066 039B     		ldr	r3, [sp, #12]
 849 0068 DB6B     		ldr	r3, [r3, #60]
 850 006a 0593     		str	r3, [sp, #20]
 851              		.loc 6 354 0
 852 006c 12E0     		b	.L56
 853              	.L58:
 854              		.loc 6 358 0
 855 006e 0598     		ldr	r0, [sp, #20]
 856 0070 FFF7FEFF 		bl	chMtxQueueNotEmptyS
 857 0074 0346     		mov	r3, r0
 858 0076 002B     		cmp	r3, #0
 859 0078 09D0     		beq	.L57
 860              		.loc 6 359 0 discriminator 1
 861 007a 059B     		ldr	r3, [sp, #20]
 862 007c 1B68     		ldr	r3, [r3]
 863 007e 9A68     		ldr	r2, [r3, #8]
 864              		.loc 6 358 0 discriminator 1
 865 0080 049B     		ldr	r3, [sp, #16]
 866 0082 9A42     		cmp	r2, r3
 867 0084 03D9     		bls	.L57
 868              		.loc 6 360 0
 869 0086 059B     		ldr	r3, [sp, #20]
 870 0088 1B68     		ldr	r3, [r3]
 871 008a 9B68     		ldr	r3, [r3, #8]
 872 008c 0493     		str	r3, [sp, #16]
 873              	.L57:
 874              		.loc 6 362 0
 875 008e 059B     		ldr	r3, [sp, #20]
 876 0090 DB68     		ldr	r3, [r3, #12]
 877 0092 0593     		str	r3, [sp, #20]
 878              	.L56:
 879              		.loc 6 354 0 discriminator 1
 880 0094 059B     		ldr	r3, [sp, #20]
 881 0096 002B     		cmp	r3, #0
 882 0098 E9D1     		bne	.L58
 883              		.loc 6 367 0
 884 009a 039B     		ldr	r3, [sp, #12]
 885 009c 049A     		ldr	r2, [sp, #16]
 886 009e 9A60     		str	r2, [r3, #8]
 887              		.loc 6 374 0
 888 00a0 019B     		ldr	r3, [sp, #4]
 889 00a2 1846     		mov	r0, r3
 890 00a4 FFF7FEFF 		bl	queue_fifo_remove
 891 00a8 0290     		str	r0, [sp, #8]
 892              		.loc 6 375 0
 893 00aa 019B     		ldr	r3, [sp, #4]
 894 00ac 029A     		ldr	r2, [sp, #8]
 895 00ae 9A60     		str	r2, [r3, #8]
 896              		.loc 6 376 0
 897 00b0 029B     		ldr	r3, [sp, #8]
 898 00b2 DA6B     		ldr	r2, [r3, #60]
 899 00b4 019B     		ldr	r3, [sp, #4]
 900 00b6 DA60     		str	r2, [r3, #12]
ARM GAS  /tmp/ccJpMOgj.s 			page 17


 901              		.loc 6 377 0
 902 00b8 029B     		ldr	r3, [sp, #8]
 903 00ba 019A     		ldr	r2, [sp, #4]
 904 00bc DA63     		str	r2, [r3, #60]
 905              		.loc 6 383 0
 906 00be 0298     		ldr	r0, [sp, #8]
 907 00c0 FFF7FEFF 		bl	chSchReadyI
 908              		.loc 6 384 0
 909 00c4 FFF7FEFF 		bl	chSchRescheduleS
 910              	.LBE11:
 911 00c8 02E0     		b	.L59
 912              	.L55:
 913              		.loc 6 387 0
 914 00ca 019B     		ldr	r3, [sp, #4]
 915 00cc 0022     		movs	r2, #0
 916 00ce 9A60     		str	r2, [r3, #8]
 917              	.L59:
 918              		.loc 6 393 0
 919 00d0 FFF7FEFF 		bl	chSysUnlock
 920              		.loc 6 394 0
 921 00d4 07B0     		add	sp, sp, #28
 922              		@ sp needed
 923 00d6 5DF804FB 		ldr	pc, [sp], #4
 924              	.L63:
 925 00da 00BF     		.align	2
 926              	.L62:
 927 00dc 00000000 		.word	ch
 928 00e0 00000000 		.word	__func__.6651
 929              		.cfi_endproc
 930              	.LFE245:
 931              		.size	chMtxUnlock, .-chMtxUnlock
 932 00e4 AFF30080 		.section	.text.chMtxUnlockS,"ax",%progbits
 932      AFF30080 
 932      AFF30080 
 933              		.align	2
 934              		.p2align 4,,15
 935              		.global	chMtxUnlockS
 936              		.thumb
 937              		.thumb_func
 938              		.type	chMtxUnlockS, %function
 939              	chMtxUnlockS:
 940              	.LFB246:
 941              		.loc 6 410 0
 942              		.cfi_startproc
 943              		@ args = 0, pretend = 0, frame = 24
 944              		@ frame_needed = 0, uses_anonymous_args = 0
 945 0000 00B5     		push	{lr}
 946              		.cfi_def_cfa_offset 4
 947              		.cfi_offset 14, -4
 948 0002 87B0     		sub	sp, sp, #28
 949              		.cfi_def_cfa_offset 32
 950 0004 0190     		str	r0, [sp, #4]
 951              		.loc 6 411 0
 952 0006 334B     		ldr	r3, .L77
 953 0008 9B69     		ldr	r3, [r3, #24]
 954 000a 0393     		str	r3, [sp, #12]
 955              		.loc 6 414 0
ARM GAS  /tmp/ccJpMOgj.s 			page 18


 956 000c FFF7FEFF 		bl	chDbgCheckClassS
 957              		.loc 6 415 0
 958 0010 019B     		ldr	r3, [sp, #4]
 959 0012 002B     		cmp	r3, #0
 960 0014 02D1     		bne	.L74
 961              		.loc 6 415 0 is_stmt 0 discriminator 1
 962 0016 3048     		ldr	r0, .L77+4
 963 0018 FFF7FEFF 		bl	chSysHalt
 964              	.L74:
 965              		.loc 6 417 0 is_stmt 1 discriminator 1
 966 001c 039B     		ldr	r3, [sp, #12]
 967 001e DB6B     		ldr	r3, [r3, #60]
 968 0020 002B     		cmp	r3, #0
 969 0022 02D1     		bne	.L75
 970 0024 2C48     		ldr	r0, .L77+4
 971 0026 FFF7FEFF 		bl	chSysHalt
 972              	.L75:
 973              		.loc 6 418 0 discriminator 1
 974 002a 039B     		ldr	r3, [sp, #12]
 975 002c DB6B     		ldr	r3, [r3, #60]
 976 002e 9A68     		ldr	r2, [r3, #8]
 977 0030 039B     		ldr	r3, [sp, #12]
 978 0032 9A42     		cmp	r2, r3
 979 0034 02D0     		beq	.L76
 980 0036 2848     		ldr	r0, .L77+4
 981 0038 FFF7FEFF 		bl	chSysHalt
 982              	.L76:
 983              		.loc 6 425 0 discriminator 1
 984 003c 039B     		ldr	r3, [sp, #12]
 985 003e DA6B     		ldr	r2, [r3, #60]
 986 0040 019B     		ldr	r3, [sp, #4]
 987 0042 9A42     		cmp	r2, r3
 988 0044 02D0     		beq	.L68
 989 0046 2448     		ldr	r0, .L77+4
 990 0048 FFF7FEFF 		bl	chSysHalt
 991              	.L68:
 992              		.loc 6 430 0
 993 004c 019B     		ldr	r3, [sp, #4]
 994 004e DA68     		ldr	r2, [r3, #12]
 995 0050 039B     		ldr	r3, [sp, #12]
 996 0052 DA63     		str	r2, [r3, #60]
 997              		.loc 6 433 0
 998 0054 0198     		ldr	r0, [sp, #4]
 999 0056 FFF7FEFF 		bl	chMtxQueueNotEmptyS
 1000 005a 0346     		mov	r3, r0
 1001 005c 002B     		cmp	r3, #0
 1002 005e 32D0     		beq	.L69
 1003              	.LBB12:
 1004              		.loc 6 438 0
 1005 0060 039B     		ldr	r3, [sp, #12]
 1006 0062 1B6C     		ldr	r3, [r3, #64]
 1007 0064 0493     		str	r3, [sp, #16]
 1008              		.loc 6 439 0
 1009 0066 039B     		ldr	r3, [sp, #12]
 1010 0068 DB6B     		ldr	r3, [r3, #60]
 1011 006a 0593     		str	r3, [sp, #20]
 1012              		.loc 6 440 0
ARM GAS  /tmp/ccJpMOgj.s 			page 19


 1013 006c 12E0     		b	.L70
 1014              	.L72:
 1015              		.loc 6 444 0
 1016 006e 0598     		ldr	r0, [sp, #20]
 1017 0070 FFF7FEFF 		bl	chMtxQueueNotEmptyS
 1018 0074 0346     		mov	r3, r0
 1019 0076 002B     		cmp	r3, #0
 1020 0078 09D0     		beq	.L71
 1021              		.loc 6 445 0 discriminator 1
 1022 007a 059B     		ldr	r3, [sp, #20]
 1023 007c 1B68     		ldr	r3, [r3]
 1024 007e 9A68     		ldr	r2, [r3, #8]
 1025              		.loc 6 444 0 discriminator 1
 1026 0080 049B     		ldr	r3, [sp, #16]
 1027 0082 9A42     		cmp	r2, r3
 1028 0084 03D9     		bls	.L71
 1029              		.loc 6 446 0
 1030 0086 059B     		ldr	r3, [sp, #20]
 1031 0088 1B68     		ldr	r3, [r3]
 1032 008a 9B68     		ldr	r3, [r3, #8]
 1033 008c 0493     		str	r3, [sp, #16]
 1034              	.L71:
 1035              		.loc 6 448 0
 1036 008e 059B     		ldr	r3, [sp, #20]
 1037 0090 DB68     		ldr	r3, [r3, #12]
 1038 0092 0593     		str	r3, [sp, #20]
 1039              	.L70:
 1040              		.loc 6 440 0 discriminator 1
 1041 0094 059B     		ldr	r3, [sp, #20]
 1042 0096 002B     		cmp	r3, #0
 1043 0098 E9D1     		bne	.L72
 1044              		.loc 6 453 0
 1045 009a 039B     		ldr	r3, [sp, #12]
 1046 009c 049A     		ldr	r2, [sp, #16]
 1047 009e 9A60     		str	r2, [r3, #8]
 1048              		.loc 6 460 0
 1049 00a0 019B     		ldr	r3, [sp, #4]
 1050 00a2 1846     		mov	r0, r3
 1051 00a4 FFF7FEFF 		bl	queue_fifo_remove
 1052 00a8 0290     		str	r0, [sp, #8]
 1053              		.loc 6 461 0
 1054 00aa 019B     		ldr	r3, [sp, #4]
 1055 00ac 029A     		ldr	r2, [sp, #8]
 1056 00ae 9A60     		str	r2, [r3, #8]
 1057              		.loc 6 462 0
 1058 00b0 029B     		ldr	r3, [sp, #8]
 1059 00b2 DA6B     		ldr	r2, [r3, #60]
 1060 00b4 019B     		ldr	r3, [sp, #4]
 1061 00b6 DA60     		str	r2, [r3, #12]
 1062              		.loc 6 463 0
 1063 00b8 029B     		ldr	r3, [sp, #8]
 1064 00ba 019A     		ldr	r2, [sp, #4]
 1065 00bc DA63     		str	r2, [r3, #60]
 1066              		.loc 6 464 0
 1067 00be 0298     		ldr	r0, [sp, #8]
 1068 00c0 FFF7FEFF 		bl	chSchReadyI
 1069              	.LBE12:
ARM GAS  /tmp/ccJpMOgj.s 			page 20


 1070 00c4 02E0     		b	.L64
 1071              	.L69:
 1072              		.loc 6 467 0
 1073 00c6 019B     		ldr	r3, [sp, #4]
 1074 00c8 0022     		movs	r2, #0
 1075 00ca 9A60     		str	r2, [r3, #8]
 1076              	.L64:
 1077              		.loc 6 472 0
 1078 00cc 07B0     		add	sp, sp, #28
 1079              		@ sp needed
 1080 00ce 5DF804FB 		ldr	pc, [sp], #4
 1081              	.L78:
 1082 00d2 00BF     		.align	2
 1083              	.L77:
 1084 00d4 00000000 		.word	ch
 1085 00d8 00000000 		.word	__func__.6662
 1086              		.cfi_endproc
 1087              	.LFE246:
 1088              		.size	chMtxUnlockS, .-chMtxUnlockS
 1089 00dc AFF30080 		.section	.text.chMtxUnlockAll,"ax",%progbits
 1090              		.align	2
 1091              		.p2align 4,,15
 1092              		.global	chMtxUnlockAll
 1093              		.thumb
 1094              		.thumb_func
 1095              		.type	chMtxUnlockAll, %function
 1096              	chMtxUnlockAll:
 1097              	.LFB247:
 1098              		.loc 6 485 0
 1099              		.cfi_startproc
 1100              		@ args = 0, pretend = 0, frame = 16
 1101              		@ frame_needed = 0, uses_anonymous_args = 0
 1102 0000 00B5     		push	{lr}
 1103              		.cfi_def_cfa_offset 4
 1104              		.cfi_offset 14, -4
 1105 0002 85B0     		sub	sp, sp, #20
 1106              		.cfi_def_cfa_offset 24
 1107              		.loc 6 486 0
 1108 0004 1D4B     		ldr	r3, .L84
 1109 0006 9B69     		ldr	r3, [r3, #24]
 1110 0008 0393     		str	r3, [sp, #12]
 1111              		.loc 6 488 0
 1112 000a FFF7FEFF 		bl	chSysLock
 1113              		.loc 6 489 0
 1114 000e 039B     		ldr	r3, [sp, #12]
 1115 0010 DB6B     		ldr	r3, [r3, #60]
 1116 0012 002B     		cmp	r3, #0
 1117 0014 2CD0     		beq	.L80
 1118              	.L83:
 1119              	.LBB13:
 1120              		.loc 6 491 0
 1121 0016 039B     		ldr	r3, [sp, #12]
 1122 0018 DB6B     		ldr	r3, [r3, #60]
 1123 001a 0293     		str	r3, [sp, #8]
 1124              		.loc 6 492 0
 1125 001c 029B     		ldr	r3, [sp, #8]
 1126 001e DA68     		ldr	r2, [r3, #12]
ARM GAS  /tmp/ccJpMOgj.s 			page 21


 1127 0020 039B     		ldr	r3, [sp, #12]
 1128 0022 DA63     		str	r2, [r3, #60]
 1129              		.loc 6 493 0
 1130 0024 0298     		ldr	r0, [sp, #8]
 1131 0026 FFF7FEFF 		bl	chMtxQueueNotEmptyS
 1132 002a 0346     		mov	r3, r0
 1133 002c 002B     		cmp	r3, #0
 1134 002e 12D0     		beq	.L81
 1135              	.LBB14:
 1136              		.loc 6 497 0
 1137 0030 029B     		ldr	r3, [sp, #8]
 1138 0032 1846     		mov	r0, r3
 1139 0034 FFF7FEFF 		bl	queue_fifo_remove
 1140 0038 0190     		str	r0, [sp, #4]
 1141              		.loc 6 498 0
 1142 003a 029B     		ldr	r3, [sp, #8]
 1143 003c 019A     		ldr	r2, [sp, #4]
 1144 003e 9A60     		str	r2, [r3, #8]
 1145              		.loc 6 499 0
 1146 0040 019B     		ldr	r3, [sp, #4]
 1147 0042 DA6B     		ldr	r2, [r3, #60]
 1148 0044 029B     		ldr	r3, [sp, #8]
 1149 0046 DA60     		str	r2, [r3, #12]
 1150              		.loc 6 500 0
 1151 0048 019B     		ldr	r3, [sp, #4]
 1152 004a 029A     		ldr	r2, [sp, #8]
 1153 004c DA63     		str	r2, [r3, #60]
 1154              		.loc 6 501 0
 1155 004e 0198     		ldr	r0, [sp, #4]
 1156 0050 FFF7FEFF 		bl	chSchReadyI
 1157              	.LBE14:
 1158 0054 02E0     		b	.L82
 1159              	.L81:
 1160              		.loc 6 507 0
 1161 0056 029B     		ldr	r3, [sp, #8]
 1162 0058 0022     		movs	r2, #0
 1163 005a 9A60     		str	r2, [r3, #8]
 1164              	.L82:
 1165              	.LBE13:
 1166              		.loc 6 509 0
 1167 005c 039B     		ldr	r3, [sp, #12]
 1168 005e DB6B     		ldr	r3, [r3, #60]
 1169 0060 002B     		cmp	r3, #0
 1170 0062 D8D1     		bne	.L83
 1171              		.loc 6 510 0
 1172 0064 039B     		ldr	r3, [sp, #12]
 1173 0066 1A6C     		ldr	r2, [r3, #64]
 1174 0068 039B     		ldr	r3, [sp, #12]
 1175 006a 9A60     		str	r2, [r3, #8]
 1176              		.loc 6 511 0
 1177 006c FFF7FEFF 		bl	chSchRescheduleS
 1178              	.L80:
 1179              		.loc 6 513 0
 1180 0070 FFF7FEFF 		bl	chSysUnlock
 1181              		.loc 6 514 0
 1182 0074 05B0     		add	sp, sp, #20
 1183              		@ sp needed
ARM GAS  /tmp/ccJpMOgj.s 			page 22


 1184 0076 5DF804FB 		ldr	pc, [sp], #4
 1185              	.L85:
 1186 007a 00BF     		.align	2
 1187              	.L84:
 1188 007c 00000000 		.word	ch
 1189              		.cfi_endproc
 1190              	.LFE247:
 1191              		.size	chMtxUnlockAll, .-chMtxUnlockAll
 1192              		.section	.rodata.__func__.6620,"a",%progbits
 1193              		.align	2
 1194              		.type	__func__.6620, %object
 1195              		.size	__func__.6620, 16
 1196              	__func__.6620:
 1197 0000 63684D74 		.ascii	"chMtxObjectInit\000"
 1197      784F626A 
 1197      65637449 
 1197      6E697400 
 1198              		.section	.rodata.__func__.5925,"a",%progbits
 1199              		.align	2
 1200              		.type	__func__.5925, %object
 1201              		.size	__func__.5925, 12
 1202              	__func__.5925:
 1203 0000 63685379 		.ascii	"chSysUnlock\000"
 1203      73556E6C 
 1203      6F636B00 
 1204              		.section	.rodata.__func__.6628,"a",%progbits
 1205              		.align	2
 1206              		.type	__func__.6628, %object
 1207              		.size	__func__.6628, 11
 1208              	__func__.6628:
 1209 0000 63684D74 		.ascii	"chMtxLockS\000"
 1209      784C6F63 
 1209      6B5300
 1210 000b 00       		.section	.rodata.__func__.6645,"a",%progbits
 1211              		.align	2
 1212              		.type	__func__.6645, %object
 1213              		.size	__func__.6645, 14
 1214              	__func__.6645:
 1215 0000 63684D74 		.ascii	"chMtxTryLockS\000"
 1215      78547279 
 1215      4C6F636B 
 1215      5300
 1216 000e 0000     		.section	.rodata.__func__.6651,"a",%progbits
 1217              		.align	2
 1218              		.type	__func__.6651, %object
 1219              		.size	__func__.6651, 12
 1220              	__func__.6651:
 1221 0000 63684D74 		.ascii	"chMtxUnlock\000"
 1221      78556E6C 
 1221      6F636B00 
 1222              		.section	.rodata.__func__.6662,"a",%progbits
 1223              		.align	2
 1224              		.type	__func__.6662, %object
 1225              		.size	__func__.6662, 13
 1226              	__func__.6662:
 1227 0000 63684D74 		.ascii	"chMtxUnlockS\000"
 1227      78556E6C 
ARM GAS  /tmp/ccJpMOgj.s 			page 23


 1227      6F636B53 
 1227      00
 1228 000d 000000   		.text
 1229              	.Letext0:
 1230              		.file 7 "/usr/include/newlib/machine/_default_types.h"
 1231              		.file 8 "/usr/include/newlib/stdint.h"
 1232              		.file 9 "/home/efe/ChibiOS/os/rt/ports/ARMCMx/compilers/GCC/chtypes.h"
 1233              		.file 10 "/home/efe/ChibiOS/os/rt/include/chsystypes.h"
 1234              		.file 11 "/home/efe/ChibiOS/os/rt/ports/ARMCMx/chcore.h"
 1235              		.file 12 "/home/efe/ChibiOS/os/rt/include/chdebug.h"
 1236              		.file 13 "/home/efe/ChibiOS/os/rt/include/chtm.h"
 1237              		.file 14 "/home/efe/ChibiOS/os/rt/include/chstats.h"
 1238              		.file 15 "/home/efe/ChibiOS/os/rt/include/chsem.h"
 1239              		.file 16 "/home/efe/ChibiOS/os/ext/CMSIS/include/core_cm4.h"