ARM GAS  /tmp/ccBNsr2r.s 			page 1


   1              		.syntax unified
   2              		.cpu cortex-m4
   3              		.fpu softvfp
   4              		.eabi_attribute 20, 1
   5              		.eabi_attribute 21, 1
   6              		.eabi_attribute 23, 3
   7              		.eabi_attribute 24, 1
   8              		.eabi_attribute 25, 1
   9              		.eabi_attribute 26, 1
  10              		.eabi_attribute 30, 6
  11              		.eabi_attribute 34, 1
  12              		.eabi_attribute 18, 4
  13              		.thumb
  14              		.file	"chqueues.c"
  15              		.text
  16              	.Ltext0:
  17              		.cfi_sections	.debug_frame
  18              		.section	.text.port_lock,"ax",%progbits
  19              		.align	2
  20              		.p2align 4,,15
  21              		.thumb
  22              		.thumb_func
  23              		.type	port_lock, %function
  24              	port_lock:
  25              	.LFB127:
  26              		.file 1 "/home/efe/ChibiOS/os/rt/ports/ARMCMx/chcore_v7m.h"
  27              		.loc 1 456 0
  28              		.cfi_startproc
  29              		@ args = 0, pretend = 0, frame = 8
  30              		@ frame_needed = 0, uses_anonymous_args = 0
  31              		@ link register save eliminated.
  32 0000 82B0     		sub	sp, sp, #8
  33              		.cfi_def_cfa_offset 8
  34 0002 2023     		movs	r3, #32
  35 0004 0193     		str	r3, [sp, #4]
  36              	.LBB6:
  37              	.LBB7:
  38              		.file 2 "/home/efe/ChibiOS/os/ext/CMSIS/include/core_cmFunc.h"
  39              		.loc 2 548 0
  40 0006 019B     		ldr	r3, [sp, #4]
  41              	@ 548 "/home/efe/ChibiOS/os/ext/CMSIS/include/core_cmFunc.h" 1
  42 0008 83F31188 		MSR basepri, r3
  43              	@ 0 "" 2
  44              		.thumb
  45              	.LBE7:
  46              	.LBE6:
  47              		.loc 1 463 0
  48 000c 02B0     		add	sp, sp, #8
  49              		@ sp needed
  50 000e 7047     		bx	lr
  51              		.cfi_endproc
  52              	.LFE127:
  53              		.size	port_lock, .-port_lock
  54              		.section	.text.port_unlock,"ax",%progbits
  55              		.align	2
  56              		.p2align 4,,15
  57              		.thumb
ARM GAS  /tmp/ccBNsr2r.s 			page 2


  58              		.thumb_func
  59              		.type	port_unlock, %function
  60              	port_unlock:
  61              	.LFB128:
  62              		.loc 1 470 0
  63              		.cfi_startproc
  64              		@ args = 0, pretend = 0, frame = 8
  65              		@ frame_needed = 0, uses_anonymous_args = 0
  66              		@ link register save eliminated.
  67 0000 82B0     		sub	sp, sp, #8
  68              		.cfi_def_cfa_offset 8
  69 0002 0023     		movs	r3, #0
  70 0004 0193     		str	r3, [sp, #4]
  71              	.LBB8:
  72              	.LBB9:
  73              		.loc 2 548 0
  74 0006 019B     		ldr	r3, [sp, #4]
  75              	@ 548 "/home/efe/ChibiOS/os/ext/CMSIS/include/core_cmFunc.h" 1
  76 0008 83F31188 		MSR basepri, r3
  77              	@ 0 "" 2
  78              		.thumb
  79              	.LBE9:
  80              	.LBE8:
  81              		.loc 1 477 0
  82 000c 02B0     		add	sp, sp, #8
  83              		@ sp needed
  84 000e 7047     		bx	lr
  85              		.cfi_endproc
  86              	.LFE128:
  87              		.size	port_unlock, .-port_unlock
  88              		.section	.text.queue_init,"ax",%progbits
  89              		.align	2
  90              		.p2align 4,,15
  91              		.thumb
  92              		.thumb_func
  93              		.type	queue_init, %function
  94              	queue_init:
  95              	.LFB150:
  96              		.file 3 "/home/efe/ChibiOS/os/rt/include/chschd.h"
  97              		.loc 3 602 0
  98              		.cfi_startproc
  99              		@ args = 0, pretend = 0, frame = 8
 100              		@ frame_needed = 0, uses_anonymous_args = 0
 101              		@ link register save eliminated.
 102 0000 82B0     		sub	sp, sp, #8
 103              		.cfi_def_cfa_offset 8
 104 0002 0190     		str	r0, [sp, #4]
 105              		.loc 3 604 0
 106 0004 019B     		ldr	r3, [sp, #4]
 107 0006 019A     		ldr	r2, [sp, #4]
 108 0008 1A60     		str	r2, [r3]
 109              		.loc 3 605 0
 110 000a 019B     		ldr	r3, [sp, #4]
 111 000c 019A     		ldr	r2, [sp, #4]
 112 000e 5A60     		str	r2, [r3, #4]
 113              		.loc 3 606 0
 114 0010 02B0     		add	sp, sp, #8
ARM GAS  /tmp/ccBNsr2r.s 			page 3


 115              		@ sp needed
 116 0012 7047     		bx	lr
 117              		.cfi_endproc
 118              	.LFE150:
 119              		.size	queue_init, .-queue_init
 120 0014 AFF30080 		.section	.text.chSysLock,"ax",%progbits
 120      AFF30080 
 120      AFF30080 
 121              		.align	2
 122              		.p2align 4,,15
 123              		.thumb
 124              		.thumb_func
 125              		.type	chSysLock, %function
 126              	chSysLock:
 127              	.LFB167:
 128              		.file 4 "/home/efe/ChibiOS/os/rt/include/chsys.h"
 129              		.loc 4 346 0
 130              		.cfi_startproc
 131              		@ args = 0, pretend = 0, frame = 0
 132              		@ frame_needed = 0, uses_anonymous_args = 0
 133 0000 08B5     		push	{r3, lr}
 134              		.cfi_def_cfa_offset 8
 135              		.cfi_offset 3, -8
 136              		.cfi_offset 14, -4
 137              		.loc 4 348 0
 138 0002 FFF7FEFF 		bl	port_lock
 139              		.loc 4 349 0
 140 0006 FFF7FEFF 		bl	_stats_start_measure_crit_thd
 141              		.loc 4 350 0
 142 000a FFF7FEFF 		bl	_dbg_check_lock
 143              		.loc 4 351 0
 144 000e 08BD     		pop	{r3, pc}
 145              		.cfi_endproc
 146              	.LFE167:
 147              		.size	chSysLock, .-chSysLock
 148              		.section	.text.chSysUnlock,"ax",%progbits
 149              		.align	2
 150              		.p2align 4,,15
 151              		.thumb
 152              		.thumb_func
 153              		.type	chSysUnlock, %function
 154              	chSysUnlock:
 155              	.LFB168:
 156              		.loc 4 358 0
 157              		.cfi_startproc
 158              		@ args = 0, pretend = 0, frame = 0
 159              		@ frame_needed = 0, uses_anonymous_args = 0
 160 0000 08B5     		push	{r3, lr}
 161              		.cfi_def_cfa_offset 8
 162              		.cfi_offset 3, -8
 163              		.cfi_offset 14, -4
 164              		.loc 4 360 0
 165 0002 FFF7FEFF 		bl	_dbg_check_unlock
 166              		.loc 4 361 0
 167 0006 FFF7FEFF 		bl	_stats_stop_measure_crit_thd
 168              		.loc 4 367 0
 169 000a 094B     		ldr	r3, .L7
ARM GAS  /tmp/ccBNsr2r.s 			page 4


 170 000c 1A68     		ldr	r2, [r3]
 171 000e 084B     		ldr	r3, .L7
 172 0010 9A42     		cmp	r2, r3
 173 0012 0AD0     		beq	.L6
 174              		.loc 4 367 0 is_stmt 0 discriminator 1
 175 0014 064B     		ldr	r3, .L7
 176 0016 9B69     		ldr	r3, [r3, #24]
 177 0018 9A68     		ldr	r2, [r3, #8]
 178 001a 054B     		ldr	r3, .L7
 179 001c 1B68     		ldr	r3, [r3]
 180 001e 9B68     		ldr	r3, [r3, #8]
 181 0020 9A42     		cmp	r2, r3
 182 0022 02D2     		bcs	.L6
 183 0024 0348     		ldr	r0, .L7+4
 184 0026 FFF7FEFF 		bl	chSysHalt
 185              	.L6:
 186              		.loc 4 371 0 is_stmt 1
 187 002a FFF7FEFF 		bl	port_unlock
 188              		.loc 4 372 0
 189 002e 08BD     		pop	{r3, pc}
 190              	.L8:
 191              		.align	2
 192              	.L7:
 193 0030 00000000 		.word	ch
 194 0034 00000000 		.word	__func__.5925
 195              		.cfi_endproc
 196              	.LFE168:
 197              		.size	chSysUnlock, .-chSysUnlock
 198 0038 AFF30080 		.section	.text.chThdQueueObjectInit,"ax",%progbits
 198      AFF30080 
 199              		.align	2
 200              		.p2align 4,,15
 201              		.thumb
 202              		.thumb_func
 203              		.type	chThdQueueObjectInit, %function
 204              	chThdQueueObjectInit:
 205              	.LFB194:
 206              		.file 5 "/home/efe/ChibiOS/os/rt/include/chthreads.h"
 207              		.loc 5 278 0
 208              		.cfi_startproc
 209              		@ args = 0, pretend = 0, frame = 8
 210              		@ frame_needed = 0, uses_anonymous_args = 0
 211 0000 00B5     		push	{lr}
 212              		.cfi_def_cfa_offset 4
 213              		.cfi_offset 14, -4
 214 0002 83B0     		sub	sp, sp, #12
 215              		.cfi_def_cfa_offset 16
 216 0004 0190     		str	r0, [sp, #4]
 217              		.loc 5 280 0
 218 0006 0198     		ldr	r0, [sp, #4]
 219 0008 FFF7FEFF 		bl	queue_init
 220              		.loc 5 281 0
 221 000c 03B0     		add	sp, sp, #12
 222              		@ sp needed
 223 000e 5DF804FB 		ldr	pc, [sp], #4
 224              		.cfi_endproc
 225              	.LFE194:
ARM GAS  /tmp/ccBNsr2r.s 			page 5


 226              		.size	chThdQueueObjectInit, .-chThdQueueObjectInit
 227 0012 00BFAFF3 		.section	.text.chIQIsEmptyI,"ax",%progbits
 227      0080AFF3 
 227      0080AFF3 
 227      0080
 228              		.align	2
 229              		.p2align 4,,15
 230              		.thumb
 231              		.thumb_func
 232              		.type	chIQIsEmptyI, %function
 233              	chIQIsEmptyI:
 234              	.LFB232:
 235              		.file 6 "/home/efe/ChibiOS/os/rt/include/chqueues.h"
 236              		.loc 6 303 0
 237              		.cfi_startproc
 238              		@ args = 0, pretend = 0, frame = 8
 239              		@ frame_needed = 0, uses_anonymous_args = 0
 240 0000 00B5     		push	{lr}
 241              		.cfi_def_cfa_offset 4
 242              		.cfi_offset 14, -4
 243 0002 83B0     		sub	sp, sp, #12
 244              		.cfi_def_cfa_offset 16
 245 0004 0190     		str	r0, [sp, #4]
 246              		.loc 6 305 0
 247 0006 FFF7FEFF 		bl	chDbgCheckClassI
 248              		.loc 6 307 0
 249 000a 019B     		ldr	r3, [sp, #4]
 250 000c 9B68     		ldr	r3, [r3, #8]
 251 000e 002B     		cmp	r3, #0
 252 0010 14BF     		ite	ne
 253 0012 0023     		movne	r3, #0
 254 0014 0123     		moveq	r3, #1
 255 0016 DBB2     		uxtb	r3, r3
 256              		.loc 6 308 0
 257 0018 1846     		mov	r0, r3
 258 001a 03B0     		add	sp, sp, #12
 259              		@ sp needed
 260 001c 5DF804FB 		ldr	pc, [sp], #4
 261              		.cfi_endproc
 262              	.LFE232:
 263              		.size	chIQIsEmptyI, .-chIQIsEmptyI
 264              		.section	.text.chIQIsFullI,"ax",%progbits
 265              		.align	2
 266              		.p2align 4,,15
 267              		.thumb
 268              		.thumb_func
 269              		.type	chIQIsFullI, %function
 270              	chIQIsFullI:
 271              	.LFB233:
 272              		.loc 6 320 0
 273              		.cfi_startproc
 274              		@ args = 0, pretend = 0, frame = 8
 275              		@ frame_needed = 0, uses_anonymous_args = 0
 276 0000 00B5     		push	{lr}
 277              		.cfi_def_cfa_offset 4
 278              		.cfi_offset 14, -4
 279 0002 83B0     		sub	sp, sp, #12
ARM GAS  /tmp/ccBNsr2r.s 			page 6


 280              		.cfi_def_cfa_offset 16
 281 0004 0190     		str	r0, [sp, #4]
 282              		.loc 6 322 0
 283 0006 FFF7FEFF 		bl	chDbgCheckClassI
 284              		.loc 6 324 0
 285 000a 019B     		ldr	r3, [sp, #4]
 286 000c 5A69     		ldr	r2, [r3, #20]
 287 000e 019B     		ldr	r3, [sp, #4]
 288 0010 9B69     		ldr	r3, [r3, #24]
 289 0012 9A42     		cmp	r2, r3
 290 0014 05D1     		bne	.L13
 291              		.loc 6 324 0 is_stmt 0 discriminator 1
 292 0016 019B     		ldr	r3, [sp, #4]
 293 0018 9B68     		ldr	r3, [r3, #8]
 294 001a 002B     		cmp	r3, #0
 295 001c 01D0     		beq	.L13
 296              		.loc 6 324 0 discriminator 3
 297 001e 0123     		movs	r3, #1
 298 0020 00E0     		b	.L14
 299              	.L13:
 300              		.loc 6 324 0 discriminator 2
 301 0022 0023     		movs	r3, #0
 302              	.L14:
 303              		.loc 6 324 0 discriminator 4
 304 0024 03F00103 		and	r3, r3, #1
 305 0028 DBB2     		uxtb	r3, r3
 306              		.loc 6 325 0 is_stmt 1 discriminator 4
 307 002a 1846     		mov	r0, r3
 308 002c 03B0     		add	sp, sp, #12
 309              		@ sp needed
 310 002e 5DF804FB 		ldr	pc, [sp], #4
 311              		.cfi_endproc
 312              	.LFE233:
 313              		.size	chIQIsFullI, .-chIQIsFullI
 314 0032 00BFAFF3 		.section	.text.chOQIsEmptyI,"ax",%progbits
 314      0080AFF3 
 314      0080AFF3 
 314      0080
 315              		.align	2
 316              		.p2align 4,,15
 317              		.thumb
 318              		.thumb_func
 319              		.type	chOQIsEmptyI, %function
 320              	chOQIsEmptyI:
 321              	.LFB237:
 322              		.loc 6 386 0
 323              		.cfi_startproc
 324              		@ args = 0, pretend = 0, frame = 8
 325              		@ frame_needed = 0, uses_anonymous_args = 0
 326 0000 00B5     		push	{lr}
 327              		.cfi_def_cfa_offset 4
 328              		.cfi_offset 14, -4
 329 0002 83B0     		sub	sp, sp, #12
 330              		.cfi_def_cfa_offset 16
 331 0004 0190     		str	r0, [sp, #4]
 332              		.loc 6 388 0
 333 0006 FFF7FEFF 		bl	chDbgCheckClassI
ARM GAS  /tmp/ccBNsr2r.s 			page 7


 334              		.loc 6 390 0
 335 000a 019B     		ldr	r3, [sp, #4]
 336 000c 5A69     		ldr	r2, [r3, #20]
 337 000e 019B     		ldr	r3, [sp, #4]
 338 0010 9B69     		ldr	r3, [r3, #24]
 339 0012 9A42     		cmp	r2, r3
 340 0014 05D1     		bne	.L17
 341              		.loc 6 390 0 is_stmt 0 discriminator 1
 342 0016 019B     		ldr	r3, [sp, #4]
 343 0018 9B68     		ldr	r3, [r3, #8]
 344 001a 002B     		cmp	r3, #0
 345 001c 01D0     		beq	.L17
 346              		.loc 6 390 0 discriminator 3
 347 001e 0123     		movs	r3, #1
 348 0020 00E0     		b	.L18
 349              	.L17:
 350              		.loc 6 390 0 discriminator 2
 351 0022 0023     		movs	r3, #0
 352              	.L18:
 353              		.loc 6 390 0 discriminator 4
 354 0024 03F00103 		and	r3, r3, #1
 355 0028 DBB2     		uxtb	r3, r3
 356              		.loc 6 391 0 is_stmt 1 discriminator 4
 357 002a 1846     		mov	r0, r3
 358 002c 03B0     		add	sp, sp, #12
 359              		@ sp needed
 360 002e 5DF804FB 		ldr	pc, [sp], #4
 361              		.cfi_endproc
 362              	.LFE237:
 363              		.size	chOQIsEmptyI, .-chOQIsEmptyI
 364 0032 00BFAFF3 		.section	.text.chOQIsFullI,"ax",%progbits
 364      0080AFF3 
 364      0080AFF3 
 364      0080
 365              		.align	2
 366              		.p2align 4,,15
 367              		.thumb
 368              		.thumb_func
 369              		.type	chOQIsFullI, %function
 370              	chOQIsFullI:
 371              	.LFB238:
 372              		.loc 6 403 0
 373              		.cfi_startproc
 374              		@ args = 0, pretend = 0, frame = 8
 375              		@ frame_needed = 0, uses_anonymous_args = 0
 376 0000 00B5     		push	{lr}
 377              		.cfi_def_cfa_offset 4
 378              		.cfi_offset 14, -4
 379 0002 83B0     		sub	sp, sp, #12
 380              		.cfi_def_cfa_offset 16
 381 0004 0190     		str	r0, [sp, #4]
 382              		.loc 6 405 0
 383 0006 FFF7FEFF 		bl	chDbgCheckClassI
 384              		.loc 6 407 0
 385 000a 019B     		ldr	r3, [sp, #4]
 386 000c 9B68     		ldr	r3, [r3, #8]
 387 000e 002B     		cmp	r3, #0
ARM GAS  /tmp/ccBNsr2r.s 			page 8


 388 0010 14BF     		ite	ne
 389 0012 0023     		movne	r3, #0
 390 0014 0123     		moveq	r3, #1
 391 0016 DBB2     		uxtb	r3, r3
 392              		.loc 6 408 0
 393 0018 1846     		mov	r0, r3
 394 001a 03B0     		add	sp, sp, #12
 395              		@ sp needed
 396 001c 5DF804FB 		ldr	pc, [sp], #4
 397              		.cfi_endproc
 398              	.LFE238:
 399              		.size	chOQIsFullI, .-chOQIsFullI
 400              		.section	.text.chIQObjectInit,"ax",%progbits
 401              		.align	2
 402              		.p2align 4,,15
 403              		.global	chIQObjectInit
 404              		.thumb
 405              		.thumb_func
 406              		.type	chIQObjectInit, %function
 407              	chIQObjectInit:
 408              	.LFB240:
 409              		.file 7 "/home/efe/ChibiOS/os/rt/src/chqueues.c"
 410              		.loc 7 88 0
 411              		.cfi_startproc
 412              		@ args = 4, pretend = 0, frame = 16
 413              		@ frame_needed = 0, uses_anonymous_args = 0
 414 0000 00B5     		push	{lr}
 415              		.cfi_def_cfa_offset 4
 416              		.cfi_offset 14, -4
 417 0002 85B0     		sub	sp, sp, #20
 418              		.cfi_def_cfa_offset 24
 419 0004 0390     		str	r0, [sp, #12]
 420 0006 0291     		str	r1, [sp, #8]
 421 0008 0192     		str	r2, [sp, #4]
 422 000a 0093     		str	r3, [sp]
 423              		.loc 7 90 0
 424 000c 039B     		ldr	r3, [sp, #12]
 425 000e 1846     		mov	r0, r3
 426 0010 FFF7FEFF 		bl	chThdQueueObjectInit
 427              		.loc 7 91 0
 428 0014 039B     		ldr	r3, [sp, #12]
 429 0016 0022     		movs	r2, #0
 430 0018 9A60     		str	r2, [r3, #8]
 431              		.loc 7 92 0
 432 001a 039B     		ldr	r3, [sp, #12]
 433 001c 029A     		ldr	r2, [sp, #8]
 434 001e DA60     		str	r2, [r3, #12]
 435              		.loc 7 93 0
 436 0020 039B     		ldr	r3, [sp, #12]
 437 0022 029A     		ldr	r2, [sp, #8]
 438 0024 9A61     		str	r2, [r3, #24]
 439              		.loc 7 94 0
 440 0026 039B     		ldr	r3, [sp, #12]
 441 0028 029A     		ldr	r2, [sp, #8]
 442 002a 5A61     		str	r2, [r3, #20]
 443              		.loc 7 95 0
 444 002c 029A     		ldr	r2, [sp, #8]
ARM GAS  /tmp/ccBNsr2r.s 			page 9


 445 002e 019B     		ldr	r3, [sp, #4]
 446 0030 1A44     		add	r2, r2, r3
 447 0032 039B     		ldr	r3, [sp, #12]
 448 0034 1A61     		str	r2, [r3, #16]
 449              		.loc 7 96 0
 450 0036 039B     		ldr	r3, [sp, #12]
 451 0038 009A     		ldr	r2, [sp]
 452 003a DA61     		str	r2, [r3, #28]
 453              		.loc 7 97 0
 454 003c 039B     		ldr	r3, [sp, #12]
 455 003e 069A     		ldr	r2, [sp, #24]
 456 0040 1A62     		str	r2, [r3, #32]
 457              		.loc 7 98 0
 458 0042 05B0     		add	sp, sp, #20
 459              		@ sp needed
 460 0044 5DF804FB 		ldr	pc, [sp], #4
 461              		.cfi_endproc
 462              	.LFE240:
 463              		.size	chIQObjectInit, .-chIQObjectInit
 464 0048 AFF30080 		.section	.text.chIQResetI,"ax",%progbits
 464      AFF30080 
 465              		.align	2
 466              		.p2align 4,,15
 467              		.global	chIQResetI
 468              		.thumb
 469              		.thumb_func
 470              		.type	chIQResetI, %function
 471              	chIQResetI:
 472              	.LFB241:
 473              		.loc 7 111 0
 474              		.cfi_startproc
 475              		@ args = 0, pretend = 0, frame = 8
 476              		@ frame_needed = 0, uses_anonymous_args = 0
 477 0000 00B5     		push	{lr}
 478              		.cfi_def_cfa_offset 4
 479              		.cfi_offset 14, -4
 480 0002 83B0     		sub	sp, sp, #12
 481              		.cfi_def_cfa_offset 16
 482 0004 0190     		str	r0, [sp, #4]
 483              		.loc 7 113 0
 484 0006 FFF7FEFF 		bl	chDbgCheckClassI
 485              		.loc 7 115 0
 486 000a 019B     		ldr	r3, [sp, #4]
 487 000c DA68     		ldr	r2, [r3, #12]
 488 000e 019B     		ldr	r3, [sp, #4]
 489 0010 9A61     		str	r2, [r3, #24]
 490              		.loc 7 116 0
 491 0012 019B     		ldr	r3, [sp, #4]
 492 0014 DA68     		ldr	r2, [r3, #12]
 493 0016 019B     		ldr	r3, [sp, #4]
 494 0018 5A61     		str	r2, [r3, #20]
 495              		.loc 7 117 0
 496 001a 019B     		ldr	r3, [sp, #4]
 497 001c 0022     		movs	r2, #0
 498 001e 9A60     		str	r2, [r3, #8]
 499              		.loc 7 118 0
 500 0020 019B     		ldr	r3, [sp, #4]
ARM GAS  /tmp/ccBNsr2r.s 			page 10


 501 0022 1846     		mov	r0, r3
 502 0024 6FF00101 		mvn	r1, #1
 503 0028 FFF7FEFF 		bl	chThdDequeueAllI
 504              		.loc 7 119 0
 505 002c 03B0     		add	sp, sp, #12
 506              		@ sp needed
 507 002e 5DF804FB 		ldr	pc, [sp], #4
 508              		.cfi_endproc
 509              	.LFE241:
 510              		.size	chIQResetI, .-chIQResetI
 511 0032 00BFAFF3 		.section	.text.chIQPutI,"ax",%progbits
 511      0080AFF3 
 511      0080AFF3 
 511      0080
 512              		.align	2
 513              		.p2align 4,,15
 514              		.global	chIQPutI
 515              		.thumb
 516              		.thumb_func
 517              		.type	chIQPutI, %function
 518              	chIQPutI:
 519              	.LFB242:
 520              		.loc 7 134 0
 521              		.cfi_startproc
 522              		@ args = 0, pretend = 0, frame = 8
 523              		@ frame_needed = 0, uses_anonymous_args = 0
 524 0000 00B5     		push	{lr}
 525              		.cfi_def_cfa_offset 4
 526              		.cfi_offset 14, -4
 527 0002 83B0     		sub	sp, sp, #12
 528              		.cfi_def_cfa_offset 16
 529 0004 0190     		str	r0, [sp, #4]
 530 0006 0B46     		mov	r3, r1
 531 0008 8DF80330 		strb	r3, [sp, #3]
 532              		.loc 7 136 0
 533 000c FFF7FEFF 		bl	chDbgCheckClassI
 534              		.loc 7 138 0
 535 0010 0198     		ldr	r0, [sp, #4]
 536 0012 FFF7FEFF 		bl	chIQIsFullI
 537 0016 0346     		mov	r3, r0
 538 0018 002B     		cmp	r3, #0
 539 001a 02D0     		beq	.L25
 540              		.loc 7 139 0
 541 001c 6FF00303 		mvn	r3, #3
 542 0020 1CE0     		b	.L26
 543              	.L25:
 544              		.loc 7 142 0
 545 0022 019B     		ldr	r3, [sp, #4]
 546 0024 9B68     		ldr	r3, [r3, #8]
 547 0026 5A1C     		adds	r2, r3, #1
 548 0028 019B     		ldr	r3, [sp, #4]
 549 002a 9A60     		str	r2, [r3, #8]
 550              		.loc 7 143 0
 551 002c 019B     		ldr	r3, [sp, #4]
 552 002e 5B69     		ldr	r3, [r3, #20]
 553 0030 591C     		adds	r1, r3, #1
 554 0032 019A     		ldr	r2, [sp, #4]
ARM GAS  /tmp/ccBNsr2r.s 			page 11


 555 0034 5161     		str	r1, [r2, #20]
 556 0036 9DF80320 		ldrb	r2, [sp, #3]
 557 003a 1A70     		strb	r2, [r3]
 558              		.loc 7 144 0
 559 003c 019B     		ldr	r3, [sp, #4]
 560 003e 5A69     		ldr	r2, [r3, #20]
 561 0040 019B     		ldr	r3, [sp, #4]
 562 0042 1B69     		ldr	r3, [r3, #16]
 563 0044 9A42     		cmp	r2, r3
 564 0046 03D3     		bcc	.L27
 565              		.loc 7 145 0
 566 0048 019B     		ldr	r3, [sp, #4]
 567 004a DA68     		ldr	r2, [r3, #12]
 568 004c 019B     		ldr	r3, [sp, #4]
 569 004e 5A61     		str	r2, [r3, #20]
 570              	.L27:
 571              		.loc 7 148 0
 572 0050 019B     		ldr	r3, [sp, #4]
 573 0052 1846     		mov	r0, r3
 574 0054 0021     		movs	r1, #0
 575 0056 FFF7FEFF 		bl	chThdDequeueNextI
 576              		.loc 7 150 0
 577 005a 0023     		movs	r3, #0
 578              	.L26:
 579              		.loc 7 151 0
 580 005c 1846     		mov	r0, r3
 581 005e 03B0     		add	sp, sp, #12
 582              		@ sp needed
 583 0060 5DF804FB 		ldr	pc, [sp], #4
 584              		.cfi_endproc
 585              	.LFE242:
 586              		.size	chIQPutI, .-chIQPutI
 587 0064 AFF30080 		.section	.text.chIQGetTimeout,"ax",%progbits
 587      AFF30080 
 587      AFF30080 
 588              		.align	2
 589              		.p2align 4,,15
 590              		.global	chIQGetTimeout
 591              		.thumb
 592              		.thumb_func
 593              		.type	chIQGetTimeout, %function
 594              	chIQGetTimeout:
 595              	.LFB243:
 596              		.loc 7 173 0
 597              		.cfi_startproc
 598              		@ args = 0, pretend = 0, frame = 16
 599              		@ frame_needed = 0, uses_anonymous_args = 0
 600 0000 00B5     		push	{lr}
 601              		.cfi_def_cfa_offset 4
 602              		.cfi_offset 14, -4
 603 0002 85B0     		sub	sp, sp, #20
 604              		.cfi_def_cfa_offset 24
 605 0004 0190     		str	r0, [sp, #4]
 606 0006 0091     		str	r1, [sp]
 607              		.loc 7 176 0
 608 0008 FFF7FEFF 		bl	chSysLock
 609              		.loc 7 177 0
ARM GAS  /tmp/ccBNsr2r.s 			page 12


 610 000c 019B     		ldr	r3, [sp, #4]
 611 000e DB69     		ldr	r3, [r3, #28]
 612 0010 002B     		cmp	r3, #0
 613 0012 04D0     		beq	.L29
 614              		.loc 7 178 0
 615 0014 019B     		ldr	r3, [sp, #4]
 616 0016 DB69     		ldr	r3, [r3, #28]
 617 0018 0198     		ldr	r0, [sp, #4]
 618 001a 9847     		blx	r3
 619              		.loc 7 181 0
 620 001c 0DE0     		b	.L30
 621              	.L29:
 622 001e 0CE0     		b	.L30
 623              	.L32:
 624              	.LBB10:
 625              		.loc 7 182 0
 626 0020 019B     		ldr	r3, [sp, #4]
 627 0022 1846     		mov	r0, r3
 628 0024 0099     		ldr	r1, [sp]
 629 0026 FFF7FEFF 		bl	chThdEnqueueTimeoutS
 630 002a 0390     		str	r0, [sp, #12]
 631              		.loc 7 183 0
 632 002c 039B     		ldr	r3, [sp, #12]
 633 002e 002B     		cmp	r3, #0
 634 0030 03DA     		bge	.L30
 635              		.loc 7 184 0
 636 0032 FFF7FEFF 		bl	chSysUnlock
 637              		.loc 7 185 0
 638 0036 039B     		ldr	r3, [sp, #12]
 639 0038 20E0     		b	.L31
 640              	.L30:
 641              	.LBE10:
 642              		.loc 7 181 0 discriminator 1
 643 003a 0198     		ldr	r0, [sp, #4]
 644 003c FFF7FEFF 		bl	chIQIsEmptyI
 645 0040 0346     		mov	r3, r0
 646 0042 002B     		cmp	r3, #0
 647 0044 ECD1     		bne	.L32
 648              		.loc 7 189 0
 649 0046 019B     		ldr	r3, [sp, #4]
 650 0048 9B68     		ldr	r3, [r3, #8]
 651 004a 5A1E     		subs	r2, r3, #1
 652 004c 019B     		ldr	r3, [sp, #4]
 653 004e 9A60     		str	r2, [r3, #8]
 654              		.loc 7 190 0
 655 0050 019B     		ldr	r3, [sp, #4]
 656 0052 9B69     		ldr	r3, [r3, #24]
 657 0054 591C     		adds	r1, r3, #1
 658 0056 019A     		ldr	r2, [sp, #4]
 659 0058 9161     		str	r1, [r2, #24]
 660 005a 1B78     		ldrb	r3, [r3]
 661 005c 8DF80B30 		strb	r3, [sp, #11]
 662              		.loc 7 191 0
 663 0060 019B     		ldr	r3, [sp, #4]
 664 0062 9A69     		ldr	r2, [r3, #24]
 665 0064 019B     		ldr	r3, [sp, #4]
 666 0066 1B69     		ldr	r3, [r3, #16]
ARM GAS  /tmp/ccBNsr2r.s 			page 13


 667 0068 9A42     		cmp	r2, r3
 668 006a 03D3     		bcc	.L33
 669              		.loc 7 192 0
 670 006c 019B     		ldr	r3, [sp, #4]
 671 006e DA68     		ldr	r2, [r3, #12]
 672 0070 019B     		ldr	r3, [sp, #4]
 673 0072 9A61     		str	r2, [r3, #24]
 674              	.L33:
 675              		.loc 7 194 0
 676 0074 FFF7FEFF 		bl	chSysUnlock
 677              		.loc 7 196 0
 678 0078 9DF80B30 		ldrb	r3, [sp, #11]	@ zero_extendqisi2
 679              	.L31:
 680              		.loc 7 197 0
 681 007c 1846     		mov	r0, r3
 682 007e 05B0     		add	sp, sp, #20
 683              		@ sp needed
 684 0080 5DF804FB 		ldr	pc, [sp], #4
 685              		.cfi_endproc
 686              	.LFE243:
 687              		.size	chIQGetTimeout, .-chIQGetTimeout
 688 0084 AFF30080 		.section	.text.chIQReadTimeout,"ax",%progbits
 688      AFF30080 
 688      AFF30080 
 689              		.align	2
 690              		.p2align 4,,15
 691              		.global	chIQReadTimeout
 692              		.thumb
 693              		.thumb_func
 694              		.type	chIQReadTimeout, %function
 695              	chIQReadTimeout:
 696              	.LFB244:
 697              		.loc 7 224 0
 698              		.cfi_startproc
 699              		@ args = 0, pretend = 0, frame = 24
 700              		@ frame_needed = 0, uses_anonymous_args = 0
 701 0000 00B5     		push	{lr}
 702              		.cfi_def_cfa_offset 4
 703              		.cfi_offset 14, -4
 704 0002 87B0     		sub	sp, sp, #28
 705              		.cfi_def_cfa_offset 32
 706 0004 0390     		str	r0, [sp, #12]
 707 0006 0291     		str	r1, [sp, #8]
 708 0008 0192     		str	r2, [sp, #4]
 709 000a 0093     		str	r3, [sp]
 710              		.loc 7 225 0
 711 000c 039B     		ldr	r3, [sp, #12]
 712 000e DB69     		ldr	r3, [r3, #28]
 713 0010 0493     		str	r3, [sp, #16]
 714              		.loc 7 226 0
 715 0012 0023     		movs	r3, #0
 716 0014 0593     		str	r3, [sp, #20]
 717              		.loc 7 228 0
 718 0016 019B     		ldr	r3, [sp, #4]
 719 0018 002B     		cmp	r3, #0
 720 001a 02D1     		bne	.L35
 721              		.loc 7 228 0 is_stmt 0 discriminator 1
ARM GAS  /tmp/ccBNsr2r.s 			page 14


 722 001c 2548     		ldr	r0, .L43
 723 001e FFF7FEFF 		bl	chSysHalt
 724              	.L35:
 725              		.loc 7 230 0 is_stmt 1
 726 0022 FFF7FEFF 		bl	chSysLock
 727              	.L42:
 728              		.loc 7 232 0
 729 0026 049B     		ldr	r3, [sp, #16]
 730 0028 002B     		cmp	r3, #0
 731 002a 03D0     		beq	.L36
 732              		.loc 7 233 0
 733 002c 049B     		ldr	r3, [sp, #16]
 734 002e 0398     		ldr	r0, [sp, #12]
 735 0030 9847     		blx	r3
 736              		.loc 7 236 0
 737 0032 0CE0     		b	.L37
 738              	.L36:
 739 0034 0BE0     		b	.L37
 740              	.L39:
 741              		.loc 7 237 0
 742 0036 039B     		ldr	r3, [sp, #12]
 743 0038 1846     		mov	r0, r3
 744 003a 0099     		ldr	r1, [sp]
 745 003c FFF7FEFF 		bl	chThdEnqueueTimeoutS
 746 0040 0346     		mov	r3, r0
 747 0042 002B     		cmp	r3, #0
 748 0044 03D0     		beq	.L37
 749              		.loc 7 238 0
 750 0046 FFF7FEFF 		bl	chSysUnlock
 751              		.loc 7 239 0
 752 004a 059B     		ldr	r3, [sp, #20]
 753 004c 2EE0     		b	.L38
 754              	.L37:
 755              		.loc 7 236 0 discriminator 1
 756 004e 0398     		ldr	r0, [sp, #12]
 757 0050 FFF7FEFF 		bl	chIQIsEmptyI
 758 0054 0346     		mov	r3, r0
 759 0056 002B     		cmp	r3, #0
 760 0058 EDD1     		bne	.L39
 761              		.loc 7 243 0
 762 005a 039B     		ldr	r3, [sp, #12]
 763 005c 9B68     		ldr	r3, [r3, #8]
 764 005e 5A1E     		subs	r2, r3, #1
 765 0060 039B     		ldr	r3, [sp, #12]
 766 0062 9A60     		str	r2, [r3, #8]
 767              		.loc 7 244 0
 768 0064 029B     		ldr	r3, [sp, #8]
 769 0066 5A1C     		adds	r2, r3, #1
 770 0068 0292     		str	r2, [sp, #8]
 771 006a 039A     		ldr	r2, [sp, #12]
 772 006c 9269     		ldr	r2, [r2, #24]
 773 006e 501C     		adds	r0, r2, #1
 774 0070 0399     		ldr	r1, [sp, #12]
 775 0072 8861     		str	r0, [r1, #24]
 776 0074 1278     		ldrb	r2, [r2]	@ zero_extendqisi2
 777 0076 1A70     		strb	r2, [r3]
 778              		.loc 7 245 0
ARM GAS  /tmp/ccBNsr2r.s 			page 15


 779 0078 039B     		ldr	r3, [sp, #12]
 780 007a 9A69     		ldr	r2, [r3, #24]
 781 007c 039B     		ldr	r3, [sp, #12]
 782 007e 1B69     		ldr	r3, [r3, #16]
 783 0080 9A42     		cmp	r2, r3
 784 0082 03D3     		bcc	.L40
 785              		.loc 7 246 0
 786 0084 039B     		ldr	r3, [sp, #12]
 787 0086 DA68     		ldr	r2, [r3, #12]
 788 0088 039B     		ldr	r3, [sp, #12]
 789 008a 9A61     		str	r2, [r3, #24]
 790              	.L40:
 791              		.loc 7 248 0
 792 008c FFF7FEFF 		bl	chSysUnlock
 793              		.loc 7 250 0
 794 0090 059B     		ldr	r3, [sp, #20]
 795 0092 0133     		adds	r3, r3, #1
 796 0094 0593     		str	r3, [sp, #20]
 797              		.loc 7 251 0
 798 0096 019B     		ldr	r3, [sp, #4]
 799 0098 013B     		subs	r3, r3, #1
 800 009a 0193     		str	r3, [sp, #4]
 801 009c 019B     		ldr	r3, [sp, #4]
 802 009e 002B     		cmp	r3, #0
 803 00a0 01D1     		bne	.L41
 804              		.loc 7 252 0
 805 00a2 059B     		ldr	r3, [sp, #20]
 806 00a4 02E0     		b	.L38
 807              	.L41:
 808              		.loc 7 255 0
 809 00a6 FFF7FEFF 		bl	chSysLock
 810              		.loc 7 256 0
 811 00aa BCE7     		b	.L42
 812              	.L38:
 813              		.loc 7 257 0
 814 00ac 1846     		mov	r0, r3
 815 00ae 07B0     		add	sp, sp, #28
 816              		@ sp needed
 817 00b0 5DF804FB 		ldr	pc, [sp], #4
 818              	.L44:
 819              		.align	2
 820              	.L43:
 821 00b4 00000000 		.word	__func__.6648
 822              		.cfi_endproc
 823              	.LFE244:
 824              		.size	chIQReadTimeout, .-chIQReadTimeout
 825 00b8 AFF30080 		.section	.text.chOQObjectInit,"ax",%progbits
 825      AFF30080 
 826              		.align	2
 827              		.p2align 4,,15
 828              		.global	chOQObjectInit
 829              		.thumb
 830              		.thumb_func
 831              		.type	chOQObjectInit, %function
 832              	chOQObjectInit:
 833              	.LFB245:
 834              		.loc 7 276 0
ARM GAS  /tmp/ccBNsr2r.s 			page 16


 835              		.cfi_startproc
 836              		@ args = 4, pretend = 0, frame = 16
 837              		@ frame_needed = 0, uses_anonymous_args = 0
 838 0000 00B5     		push	{lr}
 839              		.cfi_def_cfa_offset 4
 840              		.cfi_offset 14, -4
 841 0002 85B0     		sub	sp, sp, #20
 842              		.cfi_def_cfa_offset 24
 843 0004 0390     		str	r0, [sp, #12]
 844 0006 0291     		str	r1, [sp, #8]
 845 0008 0192     		str	r2, [sp, #4]
 846 000a 0093     		str	r3, [sp]
 847              		.loc 7 278 0
 848 000c 039B     		ldr	r3, [sp, #12]
 849 000e 1846     		mov	r0, r3
 850 0010 FFF7FEFF 		bl	chThdQueueObjectInit
 851              		.loc 7 279 0
 852 0014 039B     		ldr	r3, [sp, #12]
 853 0016 019A     		ldr	r2, [sp, #4]
 854 0018 9A60     		str	r2, [r3, #8]
 855              		.loc 7 280 0
 856 001a 039B     		ldr	r3, [sp, #12]
 857 001c 029A     		ldr	r2, [sp, #8]
 858 001e DA60     		str	r2, [r3, #12]
 859              		.loc 7 281 0
 860 0020 039B     		ldr	r3, [sp, #12]
 861 0022 029A     		ldr	r2, [sp, #8]
 862 0024 9A61     		str	r2, [r3, #24]
 863              		.loc 7 282 0
 864 0026 039B     		ldr	r3, [sp, #12]
 865 0028 029A     		ldr	r2, [sp, #8]
 866 002a 5A61     		str	r2, [r3, #20]
 867              		.loc 7 283 0
 868 002c 029A     		ldr	r2, [sp, #8]
 869 002e 019B     		ldr	r3, [sp, #4]
 870 0030 1A44     		add	r2, r2, r3
 871 0032 039B     		ldr	r3, [sp, #12]
 872 0034 1A61     		str	r2, [r3, #16]
 873              		.loc 7 284 0
 874 0036 039B     		ldr	r3, [sp, #12]
 875 0038 009A     		ldr	r2, [sp]
 876 003a DA61     		str	r2, [r3, #28]
 877              		.loc 7 285 0
 878 003c 039B     		ldr	r3, [sp, #12]
 879 003e 069A     		ldr	r2, [sp, #24]
 880 0040 1A62     		str	r2, [r3, #32]
 881              		.loc 7 286 0
 882 0042 05B0     		add	sp, sp, #20
 883              		@ sp needed
 884 0044 5DF804FB 		ldr	pc, [sp], #4
 885              		.cfi_endproc
 886              	.LFE245:
 887              		.size	chOQObjectInit, .-chOQObjectInit
 888 0048 AFF30080 		.section	.text.chOQResetI,"ax",%progbits
 888      AFF30080 
 889              		.align	2
 890              		.p2align 4,,15
ARM GAS  /tmp/ccBNsr2r.s 			page 17


 891              		.global	chOQResetI
 892              		.thumb
 893              		.thumb_func
 894              		.type	chOQResetI, %function
 895              	chOQResetI:
 896              	.LFB246:
 897              		.loc 7 299 0
 898              		.cfi_startproc
 899              		@ args = 0, pretend = 0, frame = 8
 900              		@ frame_needed = 0, uses_anonymous_args = 0
 901 0000 00B5     		push	{lr}
 902              		.cfi_def_cfa_offset 4
 903              		.cfi_offset 14, -4
 904 0002 83B0     		sub	sp, sp, #12
 905              		.cfi_def_cfa_offset 16
 906 0004 0190     		str	r0, [sp, #4]
 907              		.loc 7 301 0
 908 0006 FFF7FEFF 		bl	chDbgCheckClassI
 909              		.loc 7 303 0
 910 000a 019B     		ldr	r3, [sp, #4]
 911 000c DA68     		ldr	r2, [r3, #12]
 912 000e 019B     		ldr	r3, [sp, #4]
 913 0010 9A61     		str	r2, [r3, #24]
 914              		.loc 7 304 0
 915 0012 019B     		ldr	r3, [sp, #4]
 916 0014 DA68     		ldr	r2, [r3, #12]
 917 0016 019B     		ldr	r3, [sp, #4]
 918 0018 5A61     		str	r2, [r3, #20]
 919              		.loc 7 305 0
 920 001a 019B     		ldr	r3, [sp, #4]
 921 001c 1B69     		ldr	r3, [r3, #16]
 922 001e 1A46     		mov	r2, r3
 923 0020 019B     		ldr	r3, [sp, #4]
 924 0022 DB68     		ldr	r3, [r3, #12]
 925 0024 D31A     		subs	r3, r2, r3
 926 0026 1A46     		mov	r2, r3
 927 0028 019B     		ldr	r3, [sp, #4]
 928 002a 9A60     		str	r2, [r3, #8]
 929              		.loc 7 306 0
 930 002c 019B     		ldr	r3, [sp, #4]
 931 002e 1846     		mov	r0, r3
 932 0030 6FF00101 		mvn	r1, #1
 933 0034 FFF7FEFF 		bl	chThdDequeueAllI
 934              		.loc 7 307 0
 935 0038 03B0     		add	sp, sp, #12
 936              		@ sp needed
 937 003a 5DF804FB 		ldr	pc, [sp], #4
 938              		.cfi_endproc
 939              	.LFE246:
 940              		.size	chOQResetI, .-chOQResetI
 941 003e 00BF     		.section	.text.chOQPutTimeout,"ax",%progbits
 942              		.align	2
 943              		.p2align 4,,15
 944              		.global	chOQPutTimeout
 945              		.thumb
 946              		.thumb_func
 947              		.type	chOQPutTimeout, %function
ARM GAS  /tmp/ccBNsr2r.s 			page 18


 948              	chOQPutTimeout:
 949              	.LFB247:
 950              		.loc 7 331 0
 951              		.cfi_startproc
 952              		@ args = 0, pretend = 0, frame = 24
 953              		@ frame_needed = 0, uses_anonymous_args = 0
 954 0000 00B5     		push	{lr}
 955              		.cfi_def_cfa_offset 4
 956              		.cfi_offset 14, -4
 957 0002 87B0     		sub	sp, sp, #28
 958              		.cfi_def_cfa_offset 32
 959 0004 0390     		str	r0, [sp, #12]
 960 0006 0B46     		mov	r3, r1
 961 0008 0192     		str	r2, [sp, #4]
 962 000a 8DF80B30 		strb	r3, [sp, #11]
 963              		.loc 7 333 0
 964 000e FFF7FEFF 		bl	chSysLock
 965              		.loc 7 334 0
 966 0012 0CE0     		b	.L48
 967              	.L50:
 968              	.LBB11:
 969              		.loc 7 335 0
 970 0014 039B     		ldr	r3, [sp, #12]
 971 0016 1846     		mov	r0, r3
 972 0018 0199     		ldr	r1, [sp, #4]
 973 001a FFF7FEFF 		bl	chThdEnqueueTimeoutS
 974 001e 0590     		str	r0, [sp, #20]
 975              		.loc 7 336 0
 976 0020 059B     		ldr	r3, [sp, #20]
 977 0022 002B     		cmp	r3, #0
 978 0024 03DA     		bge	.L48
 979              		.loc 7 337 0
 980 0026 FFF7FEFF 		bl	chSysUnlock
 981              		.loc 7 338 0
 982 002a 059B     		ldr	r3, [sp, #20]
 983 002c 27E0     		b	.L49
 984              	.L48:
 985              	.LBE11:
 986              		.loc 7 334 0 discriminator 1
 987 002e 0398     		ldr	r0, [sp, #12]
 988 0030 FFF7FEFF 		bl	chOQIsFullI
 989 0034 0346     		mov	r3, r0
 990 0036 002B     		cmp	r3, #0
 991 0038 ECD1     		bne	.L50
 992              		.loc 7 342 0
 993 003a 039B     		ldr	r3, [sp, #12]
 994 003c 9B68     		ldr	r3, [r3, #8]
 995 003e 5A1E     		subs	r2, r3, #1
 996 0040 039B     		ldr	r3, [sp, #12]
 997 0042 9A60     		str	r2, [r3, #8]
 998              		.loc 7 343 0
 999 0044 039B     		ldr	r3, [sp, #12]
 1000 0046 5B69     		ldr	r3, [r3, #20]
 1001 0048 591C     		adds	r1, r3, #1
 1002 004a 039A     		ldr	r2, [sp, #12]
 1003 004c 5161     		str	r1, [r2, #20]
 1004 004e 9DF80B20 		ldrb	r2, [sp, #11]
ARM GAS  /tmp/ccBNsr2r.s 			page 19


 1005 0052 1A70     		strb	r2, [r3]
 1006              		.loc 7 344 0
 1007 0054 039B     		ldr	r3, [sp, #12]
 1008 0056 5A69     		ldr	r2, [r3, #20]
 1009 0058 039B     		ldr	r3, [sp, #12]
 1010 005a 1B69     		ldr	r3, [r3, #16]
 1011 005c 9A42     		cmp	r2, r3
 1012 005e 03D3     		bcc	.L51
 1013              		.loc 7 345 0
 1014 0060 039B     		ldr	r3, [sp, #12]
 1015 0062 DA68     		ldr	r2, [r3, #12]
 1016 0064 039B     		ldr	r3, [sp, #12]
 1017 0066 5A61     		str	r2, [r3, #20]
 1018              	.L51:
 1019              		.loc 7 348 0
 1020 0068 039B     		ldr	r3, [sp, #12]
 1021 006a DB69     		ldr	r3, [r3, #28]
 1022 006c 002B     		cmp	r3, #0
 1023 006e 03D0     		beq	.L52
 1024              		.loc 7 349 0
 1025 0070 039B     		ldr	r3, [sp, #12]
 1026 0072 DB69     		ldr	r3, [r3, #28]
 1027 0074 0398     		ldr	r0, [sp, #12]
 1028 0076 9847     		blx	r3
 1029              	.L52:
 1030              		.loc 7 351 0
 1031 0078 FFF7FEFF 		bl	chSysUnlock
 1032              		.loc 7 353 0
 1033 007c 0023     		movs	r3, #0
 1034              	.L49:
 1035              		.loc 7 354 0
 1036 007e 1846     		mov	r0, r3
 1037 0080 07B0     		add	sp, sp, #28
 1038              		@ sp needed
 1039 0082 5DF804FB 		ldr	pc, [sp], #4
 1040              		.cfi_endproc
 1041              	.LFE247:
 1042              		.size	chOQPutTimeout, .-chOQPutTimeout
 1043 0086 00BFAFF3 		.section	.text.chOQGetI,"ax",%progbits
 1043      0080AFF3 
 1043      0080
 1044              		.align	2
 1045              		.p2align 4,,15
 1046              		.global	chOQGetI
 1047              		.thumb
 1048              		.thumb_func
 1049              		.type	chOQGetI, %function
 1050              	chOQGetI:
 1051              	.LFB248:
 1052              		.loc 7 366 0
 1053              		.cfi_startproc
 1054              		@ args = 0, pretend = 0, frame = 16
 1055              		@ frame_needed = 0, uses_anonymous_args = 0
 1056 0000 00B5     		push	{lr}
 1057              		.cfi_def_cfa_offset 4
 1058              		.cfi_offset 14, -4
 1059 0002 85B0     		sub	sp, sp, #20
ARM GAS  /tmp/ccBNsr2r.s 			page 20


 1060              		.cfi_def_cfa_offset 24
 1061 0004 0190     		str	r0, [sp, #4]
 1062              		.loc 7 369 0
 1063 0006 FFF7FEFF 		bl	chDbgCheckClassI
 1064              		.loc 7 371 0
 1065 000a 0198     		ldr	r0, [sp, #4]
 1066 000c FFF7FEFF 		bl	chOQIsEmptyI
 1067 0010 0346     		mov	r3, r0
 1068 0012 002B     		cmp	r3, #0
 1069 0014 02D0     		beq	.L54
 1070              		.loc 7 372 0
 1071 0016 6FF00203 		mvn	r3, #2
 1072 001a 1DE0     		b	.L55
 1073              	.L54:
 1074              		.loc 7 375 0
 1075 001c 019B     		ldr	r3, [sp, #4]
 1076 001e 9B68     		ldr	r3, [r3, #8]
 1077 0020 5A1C     		adds	r2, r3, #1
 1078 0022 019B     		ldr	r3, [sp, #4]
 1079 0024 9A60     		str	r2, [r3, #8]
 1080              		.loc 7 376 0
 1081 0026 019B     		ldr	r3, [sp, #4]
 1082 0028 9B69     		ldr	r3, [r3, #24]
 1083 002a 591C     		adds	r1, r3, #1
 1084 002c 019A     		ldr	r2, [sp, #4]
 1085 002e 9161     		str	r1, [r2, #24]
 1086 0030 1B78     		ldrb	r3, [r3]
 1087 0032 8DF80F30 		strb	r3, [sp, #15]
 1088              		.loc 7 377 0
 1089 0036 019B     		ldr	r3, [sp, #4]
 1090 0038 9A69     		ldr	r2, [r3, #24]
 1091 003a 019B     		ldr	r3, [sp, #4]
 1092 003c 1B69     		ldr	r3, [r3, #16]
 1093 003e 9A42     		cmp	r2, r3
 1094 0040 03D3     		bcc	.L56
 1095              		.loc 7 378 0
 1096 0042 019B     		ldr	r3, [sp, #4]
 1097 0044 DA68     		ldr	r2, [r3, #12]
 1098 0046 019B     		ldr	r3, [sp, #4]
 1099 0048 9A61     		str	r2, [r3, #24]
 1100              	.L56:
 1101              		.loc 7 381 0
 1102 004a 019B     		ldr	r3, [sp, #4]
 1103 004c 1846     		mov	r0, r3
 1104 004e 0021     		movs	r1, #0
 1105 0050 FFF7FEFF 		bl	chThdDequeueNextI
 1106              		.loc 7 383 0
 1107 0054 9DF80F30 		ldrb	r3, [sp, #15]	@ zero_extendqisi2
 1108              	.L55:
 1109              		.loc 7 384 0
 1110 0058 1846     		mov	r0, r3
 1111 005a 05B0     		add	sp, sp, #20
 1112              		@ sp needed
 1113 005c 5DF804FB 		ldr	pc, [sp], #4
 1114              		.cfi_endproc
 1115              	.LFE248:
 1116              		.size	chOQGetI, .-chOQGetI
ARM GAS  /tmp/ccBNsr2r.s 			page 21


 1117              		.section	.text.chOQWriteTimeout,"ax",%progbits
 1118              		.align	2
 1119              		.p2align 4,,15
 1120              		.global	chOQWriteTimeout
 1121              		.thumb
 1122              		.thumb_func
 1123              		.type	chOQWriteTimeout, %function
 1124              	chOQWriteTimeout:
 1125              	.LFB249:
 1126              		.loc 7 411 0
 1127              		.cfi_startproc
 1128              		@ args = 0, pretend = 0, frame = 24
 1129              		@ frame_needed = 0, uses_anonymous_args = 0
 1130 0000 00B5     		push	{lr}
 1131              		.cfi_def_cfa_offset 4
 1132              		.cfi_offset 14, -4
 1133 0002 87B0     		sub	sp, sp, #28
 1134              		.cfi_def_cfa_offset 32
 1135 0004 0390     		str	r0, [sp, #12]
 1136 0006 0291     		str	r1, [sp, #8]
 1137 0008 0192     		str	r2, [sp, #4]
 1138 000a 0093     		str	r3, [sp]
 1139              		.loc 7 412 0
 1140 000c 039B     		ldr	r3, [sp, #12]
 1141 000e DB69     		ldr	r3, [r3, #28]
 1142 0010 0493     		str	r3, [sp, #16]
 1143              		.loc 7 413 0
 1144 0012 0023     		movs	r3, #0
 1145 0014 0593     		str	r3, [sp, #20]
 1146              		.loc 7 415 0
 1147 0016 019B     		ldr	r3, [sp, #4]
 1148 0018 002B     		cmp	r3, #0
 1149 001a 02D1     		bne	.L58
 1150              		.loc 7 415 0 is_stmt 0 discriminator 1
 1151 001c 2548     		ldr	r0, .L66
 1152 001e FFF7FEFF 		bl	chSysHalt
 1153              	.L58:
 1154              		.loc 7 417 0 is_stmt 1
 1155 0022 FFF7FEFF 		bl	chSysLock
 1156              		.loc 7 419 0
 1157 0026 0BE0     		b	.L59
 1158              	.L61:
 1159              		.loc 7 420 0
 1160 0028 039B     		ldr	r3, [sp, #12]
 1161 002a 1846     		mov	r0, r3
 1162 002c 0099     		ldr	r1, [sp]
 1163 002e FFF7FEFF 		bl	chThdEnqueueTimeoutS
 1164 0032 0346     		mov	r3, r0
 1165 0034 002B     		cmp	r3, #0
 1166 0036 03D0     		beq	.L59
 1167              		.loc 7 421 0
 1168 0038 FFF7FEFF 		bl	chSysUnlock
 1169              		.loc 7 422 0
 1170 003c 059B     		ldr	r3, [sp, #20]
 1171 003e 35E0     		b	.L60
 1172              	.L59:
 1173              		.loc 7 419 0 discriminator 1
ARM GAS  /tmp/ccBNsr2r.s 			page 22


 1174 0040 0398     		ldr	r0, [sp, #12]
 1175 0042 FFF7FEFF 		bl	chOQIsFullI
 1176 0046 0346     		mov	r3, r0
 1177 0048 002B     		cmp	r3, #0
 1178 004a EDD1     		bne	.L61
 1179              		.loc 7 426 0
 1180 004c 039B     		ldr	r3, [sp, #12]
 1181 004e 9B68     		ldr	r3, [r3, #8]
 1182 0050 5A1E     		subs	r2, r3, #1
 1183 0052 039B     		ldr	r3, [sp, #12]
 1184 0054 9A60     		str	r2, [r3, #8]
 1185              		.loc 7 427 0
 1186 0056 039B     		ldr	r3, [sp, #12]
 1187 0058 5B69     		ldr	r3, [r3, #20]
 1188 005a 591C     		adds	r1, r3, #1
 1189 005c 039A     		ldr	r2, [sp, #12]
 1190 005e 5161     		str	r1, [r2, #20]
 1191 0060 029A     		ldr	r2, [sp, #8]
 1192 0062 511C     		adds	r1, r2, #1
 1193 0064 0291     		str	r1, [sp, #8]
 1194 0066 1278     		ldrb	r2, [r2]	@ zero_extendqisi2
 1195 0068 1A70     		strb	r2, [r3]
 1196              		.loc 7 428 0
 1197 006a 039B     		ldr	r3, [sp, #12]
 1198 006c 5A69     		ldr	r2, [r3, #20]
 1199 006e 039B     		ldr	r3, [sp, #12]
 1200 0070 1B69     		ldr	r3, [r3, #16]
 1201 0072 9A42     		cmp	r2, r3
 1202 0074 03D3     		bcc	.L62
 1203              		.loc 7 429 0
 1204 0076 039B     		ldr	r3, [sp, #12]
 1205 0078 DA68     		ldr	r2, [r3, #12]
 1206 007a 039B     		ldr	r3, [sp, #12]
 1207 007c 5A61     		str	r2, [r3, #20]
 1208              	.L62:
 1209              		.loc 7 432 0
 1210 007e 049B     		ldr	r3, [sp, #16]
 1211 0080 002B     		cmp	r3, #0
 1212 0082 02D0     		beq	.L63
 1213              		.loc 7 433 0
 1214 0084 049B     		ldr	r3, [sp, #16]
 1215 0086 0398     		ldr	r0, [sp, #12]
 1216 0088 9847     		blx	r3
 1217              	.L63:
 1218              		.loc 7 435 0
 1219 008a FFF7FEFF 		bl	chSysUnlock
 1220              		.loc 7 437 0
 1221 008e 059B     		ldr	r3, [sp, #20]
 1222 0090 0133     		adds	r3, r3, #1
 1223 0092 0593     		str	r3, [sp, #20]
 1224              		.loc 7 438 0
 1225 0094 019B     		ldr	r3, [sp, #4]
 1226 0096 013B     		subs	r3, r3, #1
 1227 0098 0193     		str	r3, [sp, #4]
 1228 009a 019B     		ldr	r3, [sp, #4]
 1229 009c 002B     		cmp	r3, #0
 1230 009e 01D1     		bne	.L64
ARM GAS  /tmp/ccBNsr2r.s 			page 23


 1231              		.loc 7 439 0
 1232 00a0 059B     		ldr	r3, [sp, #20]
 1233 00a2 03E0     		b	.L60
 1234              	.L64:
 1235              		.loc 7 441 0
 1236 00a4 FFF7FEFF 		bl	chSysLock
 1237              		.loc 7 442 0
 1238 00a8 00BF     		nop
 1239              		.loc 7 419 0
 1240 00aa C9E7     		b	.L59
 1241              	.L60:
 1242              		.loc 7 443 0
 1243 00ac 1846     		mov	r0, r3
 1244 00ae 07B0     		add	sp, sp, #28
 1245              		@ sp needed
 1246 00b0 5DF804FB 		ldr	pc, [sp], #4
 1247              	.L67:
 1248              		.align	2
 1249              	.L66:
 1250 00b4 00000000 		.word	__func__.6684
 1251              		.cfi_endproc
 1252              	.LFE249:
 1253              		.size	chOQWriteTimeout, .-chOQWriteTimeout
 1254 00b8 AFF30080 		.section	.rodata.__func__.5925,"a",%progbits
 1254      AFF30080 
 1255              		.align	2
 1256              		.type	__func__.5925, %object
 1257              		.size	__func__.5925, 12
 1258              	__func__.5925:
 1259 0000 63685379 		.ascii	"chSysUnlock\000"
 1259      73556E6C 
 1259      6F636B00 
 1260              		.section	.rodata.__func__.6648,"a",%progbits
 1261              		.align	2
 1262              		.type	__func__.6648, %object
 1263              		.size	__func__.6648, 16
 1264              	__func__.6648:
 1265 0000 63684951 		.ascii	"chIQReadTimeout\000"
 1265      52656164 
 1265      54696D65 
 1265      6F757400 
 1266              		.section	.rodata.__func__.6684,"a",%progbits
 1267              		.align	2
 1268              		.type	__func__.6684, %object
 1269              		.size	__func__.6684, 17
 1270              	__func__.6684:
 1271 0000 63684F51 		.ascii	"chOQWriteTimeout\000"
 1271      57726974 
 1271      6554696D 
 1271      656F7574 
 1271      00
 1272 0011 000000   		.text
 1273              	.Letext0:
 1274              		.file 8 "/usr/lib/gcc/arm-none-eabi/4.8/include/stddef.h"
 1275              		.file 9 "/usr/include/newlib/machine/_default_types.h"
 1276              		.file 10 "/usr/include/newlib/stdint.h"
 1277              		.file 11 "/home/efe/ChibiOS/os/rt/ports/ARMCMx/compilers/GCC/chtypes.h"
ARM GAS  /tmp/ccBNsr2r.s 			page 24


 1278              		.file 12 "/home/efe/ChibiOS/os/rt/include/chsystypes.h"
 1279              		.file 13 "/home/efe/ChibiOS/os/rt/ports/ARMCMx/chcore.h"
 1280              		.file 14 "/home/efe/ChibiOS/os/rt/include/chdebug.h"
 1281              		.file 15 "/home/efe/ChibiOS/os/rt/include/chtm.h"
 1282              		.file 16 "/home/efe/ChibiOS/os/rt/include/chstats.h"
 1283              		.file 17 "/home/efe/ChibiOS/os/rt/include/chsem.h"
 1284              		.file 18 "/home/efe/ChibiOS/os/rt/include/chmtx.h"
 1285              		.file 19 "/home/efe/ChibiOS/os/ext/CMSIS/include/core_cm4.h"