ARM GAS  /tmp/ccBNsr2r.s 			page 1


   1              		.syntax unified
   2              		.cpu cortex-m4
   3              		.fpu softvfp
   4              		.eabi_attribute 20, 1
   5              		.eabi_attribute 21, 1
   6              		.eabi_attribute 23, 3
   7              		.eabi_attribute 24, 1
   8              		.eabi_attribute 25, 1
   9              		.eabi_attribute 26, 1
  10              		.eabi_attribute 30, 6
  11              		.eabi_attribute 34, 1
  12              		.eabi_attribute 18, 4
  13              		.thumb
  14              		.file	"chqueues.c"
  15              		.text
  16              	.Ltext0:
  17              		.cfi_sections	.debug_frame
  18              		.section	.text.port_lock,"ax",%progbits
  19              		.align	2
  20              		.p2align 4,,15
  21              		.thumb
  22              		.thumb_func
  23              		.type	port_lock, %function
  24              	port_lock:
  25              	.LFB127:
  26              		.file 1 "/home/efe/ChibiOS/os/rt/ports/ARMCMx/chcore_v7m.h"
  27              		.loc 1 456 0
  28              		.cfi_startproc
  29              		@ args = 0, pretend = 0, frame = 8
  30              		@ frame_needed = 0, uses_anonymous_args = 0
  31              		@ link register save eliminated.
  32 0000 82B0     		sub	sp, sp, #8
  33              		.cfi_def_cfa_offset 8
  34 0002 2023     		movs	r3, #32
  35 0004 0193     		str	r3, [sp, #4]
  36              	.LBB6:
  37              	.LBB7:
  38              		.file 2 "/home/efe/ChibiOS/os/ext/CMSIS/include/core_cmFunc.h"
  39              		.loc 2 548 0
  40 0006 019B     		ldr	r3, [sp, #4]
  41              	@ 548 "/home/efe/ChibiOS/os/ext/CMSIS/include/core_cmFunc.h" 1
  42 0008 83F31188 		MSR basepri, r3
  43              	@ 0 "" 2
  44              		.thumb
  45              	.LBE7:
  46              	.LBE6:
  47              		.loc 1 463 0
  48 000c 02B0     		add	sp, sp, #8
  49              		@ sp needed
  50 000e 7047     		bx	lr
  51              		.cfi_endproc
  52              	.LFE127:
  53              		.size	port_lock, .-port_lock
  54              		.section	.text.port_unlock,"ax",%progbits
  55              		.align	2
  56              		.p2align 4,,15
  57              		.thumb
ARM GAS  /tmp/ccBNsr2r.s 			page 2


  58              		.thumb_func
  59              		.type	port_unlock, %function
  60              	port_unlock:
  61              	.LFB128:
  62              		.loc 1 470 0
  63              		.cfi_startproc
  64              		@ args = 0, pretend = 0, frame = 8
  65              		@ frame_needed = 0, uses_anonymous_args = 0
  66              		@ link register save eliminated.
  67 0000 82B0     		sub	sp, sp, #8
  68              		.cfi_def_cfa_offset 8
  69 0002 0023     		movs	r3, #0
  70 0004 0193     		str	r3, [sp, #4]
  71              	.LBB8:
  72              	.LBB9:
  73              		.loc 2 548 0
  74 0006 019B     		ldr	r3, [sp, #4]
  75              	@ 548 "/home/efe/ChibiOS/os/ext/CMSIS/include/core_cmFunc.h" 1
  76 0008 83F31188 		MSR basepri, r3
  77              	@ 0 "" 2
  78              		.thumb
  79              	.LBE9:
  80              	.LBE8:
  81              		.loc 1 477 0
  82 000c 02B0     		add	sp, sp, #8
  83              		@ sp needed
  84 000e 7047     		bx	lr
  85              		.cfi_endproc
  86              	.LFE128:
  87              		.size	port_unlock, .-port_unlock
  88              		.section	.text.queue_init,"ax",%progbits
  89              		.align	2
  90              		.p2align 4,,15
  91              		.thumb
  92              		.thumb_func
  93              		.type	queue_init, %function
  94              	queue_init:
  95              	.LFB150:
  96              		.file 3 "/home/efe/ChibiOS/os/rt/include/chschd.h"
  97              		.loc 3 602 0
  98              		.cfi_startproc
  99              		@ args = 0, pretend = 0, frame = 8
 100              		@ frame_needed = 0, uses_anonymous_args = 0
 101              		@ link register save eliminated.
 102 0000 82B0     		sub	sp, sp, #8
 103              		.cfi_def_cfa_offset 8
 104 0002 0190     		str	r0, [sp, #4]
 105              		.loc 3 604 0
 106 0004 019B     		ldr	r3, [sp, #4]
 107 0006 019A     		ldr	r2, [sp, #4]
 108 0008 1A60     		str	r2, [r3]
 109              		.loc 3 605 0
 110 000a 019B     		ldr	r3, [sp, #4]
 111 000c 019A     		ldr	r2, [sp, #4]
 112 000e 5A60     		str	r2, [r3, #4]
 113              		.loc 3 606 0
 114 0010 02B0     		add	sp, sp, #8
ARM GAS  /tmp/ccBNsr2r.s 			page 3


 115              		@ sp needed
 116 0012 7047     		bx	lr
 117              		.cfi_endproc
 118              	.LFE150:
 119              		.size	queue_init, .-queue_init
 120 0014 AFF30080 		.section	.text.chSysLock,"ax",%progbits
 120      AFF30080 
 120      AFF30080 
 121              		.align	2
 122              		.p2align 4,,15
 123              		.thumb
 124              		.thumb_func
 125              		.type	chSysLock, %function
 126              	chSysLock:
 127              	.LFB167:
 128              		.file 4 "/home/efe/ChibiOS/os/rt/include/chsys.h"
 129              		.loc 4 346 0
 130              		.cfi_startproc
 131              		@ args = 0, pretend = 0, frame = 0
 132              		@ frame_needed = 0, uses_anonymous_args = 0
 133 0000 08B5     		push	{r3, lr}
 134              		.cfi_def_cfa_offset 8
 135              		.cfi_offset 3, -8
 136              		.cfi_offset 14, -4
 137              		.loc 4 348 0
 138 0002 FFF7FEFF 		bl	port_lock
 139              		.loc 4 349 0
 140 0006 FFF7FEFF 		bl	_stats_start_measure_crit_thd
 141              		.loc 4 350 0
 142 000a FFF7FEFF 		bl	_dbg_check_lock
 143              		.loc 4 351 0
 144 000e 08BD     		pop	{r3, pc}
 145              		.cfi_endproc
 146              	.LFE167:
 147              		.size	chSysLock, .-chSysLock
 148              		.section	.text.chSysUnlock,"ax",%progbits
 149              		.align	2
 150              		.p2align 4,,15
 151              		.thumb
 152              		.thumb_func
 153              		.type	chSysUnlock, %function
 154              	chSysUnlock:
 155              	.LFB168:
 156              		.loc 4 358 0
 157              		.cfi_startproc
 158              		@ args = 0, pretend = 0, frame = 0
 159              		@ frame_needed = 0, uses_anonymous_args = 0
 160 0000 08B5     		push	{r3, lr}
 161              		.cfi_def_cfa_offset 8
 162              		.cfi_offset 3, -8
 163              		.cfi_offset 14, -4
 164              		.loc 4 360 0
 165 0002 FFF7FEFF 		bl	_dbg_check_unlock
 166              		.loc 4 361 0
 167 0006 FFF7FEFF 		bl	_stats_stop_measure_crit_thd
 168              		.loc 4 367 0
 169 000a 094B     		ldr	r3, .L7
ARM GAS  /tmp/ccBNsr2r.s 			page 4


 170 000c 1A68     		ldr	r2, [r3]
 171 000e 084B     		ldr	r3, .L7
 172 0010 9A42     		cmp	r2, r3
 173 0012 0AD0     		beq	.L6
 174              		.loc 4 367 0 is_stmt 0 discriminator 1
 175 0014 064B     		ldr	r3, .L7
 176 0016 9B69     		ldr	r3, [r3, #24]
 177 0018 9A68     		ldr	r2, [r3, #8]
 178 001a 054B     		ldr	r3, .L7
 179 001c 1B68     		ldr	r3, [r3]
 180 001e 9B68     		ldr	r3, [r3, #8]
 181 0020 9A42     		cmp	r2, r3
 182 0022 02D2     		bcs	.L6
 183 0024 0348     		ldr	r0, .L7+4
 184 0026 FFF7FEFF 		bl	chSysHalt
 185              	.L6:
 186              		.loc 4 371 0 is_stmt 1
 187 002a FFF7FEFF 		bl	port_unlock
 188              		.loc 4 372 0
 189 002e 08BD     		pop	{r3, pc}
 190              	.L8:
 191              		.align	2
 192              	.L7:
 193 0030 00000000 		.word	ch
 194 0034 00000000 		.word	__func__.5925
 195              		.cfi_endproc
 196              	.LFE168:
 197              		.size	chSysUnlock, .-chSysUnlock
 198 0038 AFF30080 		.section	.text.chThdQueueObjectInit,"ax",%progbits
 198      AFF30080 
 199              		.align	2
 200              		.p2align 4,,15
 201              		.thumb
 202              		.thumb_func
 203              		.type	chThdQueueObjectInit, %function
 204              	chThdQueueObjectInit:
 205              	.LFB194:
 206              		.file 5 "/home/efe/ChibiOS/os/rt/include/chthreads.h"
 207              		.loc 5 278 0
 208              		.cfi_startproc
 209              		@ args = 0, pretend = 0, frame = 8
 210              		@ frame_needed = 0, uses_anonymous_args = 0
 211 0000 00B5     		push	{lr}
 212              		.cfi_def_cfa_offset 4
 213              		.cfi_offset 14, -4
 214 0002 83B0     		sub	sp, sp, #12
 215              		.cfi_def_cfa_offset 16
 216 0004 0190     		str	r0, [sp, #4]
 217              		.loc 5 280 0
 218 0006 0198     		ldr	r0, [sp, #4]
 219 0008 FFF7FEFF 		bl	queue_init
 220              		.loc 5 281 0
 221 000c 03B0     		add	sp, sp, #12
 222              		@ sp needed
 223 000e 5DF804FB 		ldr	pc, [sp], #4
 224              		.cfi_endproc
 225              	.LFE194:
ARM GAS  /tmp/ccBNsr2r.s 			page 5


 226              		.size	chThdQueueObjectInit, .-chThdQueueObjectInit
 227 0012 00BFAFF3 		.section	.text.chIQIsEmptyI,"ax",%progbits
 227      0080AFF3 
 227      0080AFF3 
 227      0080
 228              		.align	2
 229              		.p2align 4,,15
 230              		.thumb
 231              		.thumb_func
 232              		.type	chIQIsEmptyI, %function
 233              	chIQIsEmptyI:
 234              	.LFB232:
 235              		.file 6 "/home/efe/ChibiOS/os/rt/include/chqueues.h"
 236              		.loc 6 303 0
 237              		.cfi_startproc
 238              		@ args = 0, pretend = 0, frame = 8
 239              		@ frame_needed = 0, uses_anonymous_args = 0
 240 0000 00B5     		push	{lr}
 241              		.cfi_def_cfa_offset 4
 242              		.cfi_offset 14, -4
 243 0002 83B0     		sub	sp, sp, #12
 244              		.cfi_def_cfa_offset 16
 245 0004 0190     		str	r0, [sp, #4]
 246              		.loc 6 305 0
 247 0006 FFF7FEFF 		bl	chDbgCheckClassI
 248              		.loc 6 307 0
 249 000a 019B     		ldr	r3, [sp, #4]
 250 000c 9B68     		ldr	r3, [r3, #8]
 251 000e 002B     		cmp	r3, #0
 252 0010 14BF     		ite	ne
 253 0012 0023     		movne	r3, #0
 254 0014 0123     		moveq	r3, #1
 255 0016 DBB2     		uxtb	r3, r3
 256              		.loc 6 308 0
 257 0018 1846     		mov	r0, r3
 258 001a 03B0     		add	sp, sp, #12
 259              		@ sp needed
 260 001c 5DF804FB 		ldr	pc, [sp], #4
 261              		.cfi_endproc
 262              	.LFE232:
 263              		.size	chIQIsEmptyI, .-chIQIsEmptyI
 264              		.section	.text.chIQIsFullI,"ax",%progbits
 265              		.align	2
 266              		.p2align 4,,15
 267              		.thumb
 268              		.thumb_func
 269              		.type	chIQIsFullI, %function
 270              	chIQIsFullI:
 271              	.LFB233:
 272              		.loc 6 320 0
 273              		.cfi_startproc
 274              		@ args = 0, pretend = 0, frame = 8
 275              		@ frame_needed = 0, uses_anonymous_args = 0
 276 0000 00B5     		push	{lr}
 277              		.cfi_def_cfa_offset 4
 278              		.cfi_offset 14, -4
 279 0002 83B0     		sub	sp, sp, #12
ARM GAS  /tmp/ccBNsr2r.s 			page 6


 280              		.cfi_def_cfa_offset 16
 281 0004 0190     		str	r0, [sp, #4]
 282              		.loc 6 322 0
 283 0006 FFF7FEFF 		bl	chDbgCheckClassI
 284              		.loc 6 324 0
 285 000a 019B     		ldr	r3, [sp, #4]
 286 000c 5A69     		ldr	r2, [r3, #20]
 287 000e 019B     		ldr	r3, [sp, #4]
 288 0010 9B69     		ldr	r3, [r3, #24]
 289 0012 9A42     		cmp	r2, r3
 290 0014 05D1     		bne	.L13
 291              		.loc 6 324 0 is_stmt 0 discriminator 1
 292 0016 019B     		ldr	r3, [sp, #4]
 293 0018 9B68     		ldr	r3, [r3, #8]
 294 001a 002B     		cmp	r3, #0
 295 001c 01D0     		beq	.L13
 296              		.loc 6 324 0 discriminator 3
 297 001e 0123     		movs	r3, #1
 298 0020 00E0     		b	.L14
 299              	.L13:
 300              		.loc 6 324 0 discriminator 2
 301 0022 0023     		movs	r3, #0
 302              	.L14:
 303              		.loc 6 324 0 discriminator 4
 304 0024 03F00103 		and	r3, r3, #1
 305 0028 DBB2     		uxtb	r3, r3
 306              		.loc 6 325 0 is_stmt 1 discriminator 4
 307 002a 1846     		mov	r0, r3
 308 002c 03B0     		add	sp, sp, #12
 309              		@ sp needed
 310 002e 5DF804FB 		ldr	pc, [sp], #4
 311              		.cfi_endproc
 312              	.LFE233:
 313              		.size	chIQIsFullI, .-chIQIsFullI
 314 0032 00BFAFF3 		.section	.text.chOQIsEmptyI,"ax",%progbits
 314      0080AFF3 
 314      0080AFF3 
 314      0080
 315              		.align	2
 316              		.p2align 4,,15
 317              		.thumb
 318              		.thumb_func
 319              		.type	chOQIsEmptyI, %function
 320              	chOQIsEmptyI:
 321              	.LFB237:
 322              		.loc 6 386 0
 323              		.cfi_startproc
 324              		@ args = 0, pretend = 0, frame = 8
 325              		@ frame_needed = 0, uses_anonymous_args = 0
 326 0000 00B5     		push	{lr}
 327              		.cfi_def_cfa_offset 4
 328              		.cfi_offset 14, -4
 329 0002 83B0     		sub	sp, sp, #12
 330              		.cfi_def_cfa_offset 16
 331 0004 0190     		str	r0, [sp, #4]
 332              		.loc 6 388 0
 333 0006 FFF7FEFF 		bl	chDbgCheckClassI
ARM GAS  /tmp/ccBNsr2r.s 			page 7


 334              		.loc 6 390 0
 335 000a 019B     		ldr	r3, [sp, #4]
 336 000c 5A69     		ldr	r2, [r3, #20]
 337 000e 019B     		ldr	r3, [sp, #4]
 338 0010 9B69     		ldr	r3, [r3, #24]
 339 0012 9A42     		cmp	r2, r3
 340 0014 05D1     		bne	.L17
 341              		.loc 6 390 0 is_stmt 0 discriminator 1
 342 0016 019B     		ldr	r3, [sp, #4]
 343 0018 9B68     		ldr	r3, [r3, #8]
 344 001a 002B     		cmp	r3, #0
 345 001c 01D0     		beq	.L17
 346              		.loc 6 390 0 discriminator 3
 347 001e 0123     		movs	r3, #1
 348 0020 00E0     		b	.L18
 349              	.L17:
 350              		.loc 6 390 0 discriminator 2
 351 0022 0023     		movs	r3, #0
 352              	.L18:
 353              		.loc 6 390 0 discriminator 4
 354 0024 03F00103 		and	r3, r3, #1
 355 0028 DBB2     		uxtb	r3, r3
 356              		.loc 6 391 0 is_stmt 1 discriminator 4
 357 002a 1846     		mov	r0, r3
 358 002c 03B0     		add	sp, sp, #12
 359              		@ sp needed
 360 002e 5DF804FB 		ldr	pc, [sp], #4
 361              		.cfi_endproc
 362              	.LFE237:
 363              		.size	chOQIsEmptyI, .-chOQIsEmptyI
 364 0032 00BFAFF3 		.section	.text.chOQIsFullI,"ax",%progbits
 364      0080AFF3 
 364      0080AFF3 
 364      0080
 365              		.align	2
 366              		.p2align 4,,15
 367              		.thumb
 368              		.thumb_func
 369              		.type	chOQIsFullI, %function
 370              	chOQIsFullI:
 371              	.LFB238:
 372              		.loc 6 403 0
 373              		.cfi_startproc
 374              		@ args = 0, pretend = 0, frame = 8
 375              		@ frame_needed = 0, uses_anonymous_args = 0
 376 0000 00B5     		push	{lr}
 377              		.cfi_def_cfa_offset 4
 378              		.cfi_offset 14, -4
 379 0002 83B0     		sub	sp, sp, #12
 380              		.cfi_def_cfa_offset 16
 381 0004 0190     		str	r0, [sp, #4]
 382              		.loc 6 405 0
 383 0006 FFF7FEFF 		bl	chDbgCheckClassI
 384              		.loc 6 407 0
 385 000a 019B     		ldr	r3, [sp, #4]
 386 000c 9B68     		ldr	r3, [r3, #8]
 387 000e 002B     		cmp	r3, #0
ARM GAS  /tmp/ccBNsr2r.s 			page 8


 388 0010 14BF     		ite	ne
 389 0012 0023     		movne	r3, #0
 390 0014 0123     		moveq	r3, #1
 391 0016 DBB2     		uxtb	r3, r3
 392              		.loc 6 408 0
 393 0018 1846     		mov	r0, r3
 394 001a 03B0     		add	sp, sp, #12
 395              		@ sp needed
 396 001c 5DF804FB 		ldr	pc, [sp], #4
 397              		.cfi_endproc
 398              	.LFE238:
 399              		.size	chOQIsFullI, .-chOQIsFullI
 400              		.section	.text.chIQObjectInit,"ax",%progbits
 401              		.align	2
 402              		.p2align 4,,15
 403              		.global	chIQObjectInit
 404              		.thumb
 405              		.thumb_func
 406              		.type	chIQObjectInit, %function
 407              	chIQObjectInit:
 408              	.LFB240:
 409              		.file 7 "/home/efe/ChibiOS/os/rt/src/chqueues.c"
 410              		.loc 7 88 0
 411              		.cfi_startproc
 412              		@ args = 4, pretend = 0, frame = 16
 413              		@ frame_needed = 0, uses_anonymous_args = 0
 414 0000 00B5     		push	{lr}
 415              		.cfi_def_cfa_offset 4
 416              		.cfi_offset 14, -4
 417 0002 85B0     		sub	sp, sp, #20
 418              		.cfi_def_cfa_offset 24
 419 0004 0390     		str	r0, [sp, #12]
 420 0006 0291     		str	r1, [sp, #8]
 421 0008 0192     		str	r2, [sp, #4]
 422 000a 0093     		str	r3, [sp]
 423              		.loc 7 90 0
 424 000c 039B     		ldr	r3, [sp, #12]
 425 000e 1846     		mov	r0, r3
 426 0010 FFF7FEFF 		bl	chThdQueueObjectInit
 427              		.loc 7 91 0
 428 0014 039B     		ldr	r3, [sp, #12]
 429 0016 0022     		movs	r2, #0
 430 0018 9A60     		str	r2, [r3, #8]
 431              		.loc 7 92 0
 432 001a 039B     		ldr	r3, [sp, #12]
 433 001c 029A     		ldr	r2, [sp, #8]
 434 001e DA60     		str	r2, [r3, #12]
 435              		.loc 7 93 0
 436 0020 039B     		ldr	r3, [sp, #12]
 437 0022 029A     		ldr	r2, [sp, #8]
 438 0024 9A61     		str	r2, [r3, #24]
 439              		.loc 7 94 0
 440 0026 039B     		ldr	r3, [sp, #12]
 441 0028 029A     		ldr	r2, [sp, #8]
 442 002a 5A61     		str	r2, [r3, #20]
 443              		.loc 7 95 0
 444 002c 029A     		ldr	r2, [sp, #8]
ARM GAS  /tmp/ccBNsr2r.s 			page 9


 445 002e 019B     		ldr	r3, [sp, #4]
 446 0030 1A44     		add	r2, r2, r3
 447 0032 039B     		ldr	r3, [sp, #12]
 448 0034 1A61     		str	r2, [r3, #16]
 449              		.loc 7 96 0
 450 0036 039B     		ldr	r3, [sp, #12]
 451 0038 009A     		ldr	r2, [sp]
 452 003a DA61     		str	r2, [r3, #28]
 453              		.loc 7 97 0
 454 003c 039B     		ldr	r3, [sp, #12]
 455 003e 069A     		ldr	r2, [sp, #24]
 456 0040 1A62     		str	r2, [r3, #32]
 457              		.loc 7 98 0
 458 0042 05B0     		add	sp, sp, #20
 459              		@ sp needed
 460 0044 5DF804FB 		ldr	pc, [sp], #4
 461              		.cfi_endproc
 462              	.LFE240:
 463              		.size	chIQObjectInit, .-chIQObjectInit
 464 0048 AFF30080 		.section	.text.chIQResetI,"ax",%progbits
 464      AFF30080 
 465              		.align	2
 466              		.p2align 4,,15
 467              		.global	chIQResetI
 468              		.thumb
 469              		.thumb_func
 470              		.type	chIQResetI, %function
 471              	chIQResetI:
 472              	.LFB241:
 473              		.loc 7 111 0
 474              		.cfi_startproc
 475              		@ args = 0, pretend = 0, frame = 8
 476              		@ frame_needed = 0, uses_anonymous_args = 0
 477 0000 00B5     		push	{lr}
 478              		.cfi_def_cfa_offset 4
 479              		.cfi_offset 14, -4
 480 0002 83B0     		sub	sp, sp, #12
 481              		.cfi_def_cfa_offset 16
 482 0004 0190     		str	r0, [sp, #4]
 483              		.loc 7 113 0
 484 0006 FFF7FEFF 		bl	chDbgCheckClassI
 485              		.loc 7 115 0
 486 000a 019B     		ldr	r3, [sp, #4]
 487 000c DA68     		ldr	r2, [r3, #12]
 488 000e 019B     		ldr	r3, [sp, #4]
 489 0010 9A61     		str	r2, [r3, #24]
 490              		.loc 7 116 0
 491 0012 019B     		ldr	r3, [sp, #4]
 492 0014 DA68     		ldr	r2, [r3, #12]
 493 0016 019B     		ldr	r3, [sp, #4]
 494 0018 5A61     		str	r2, [r3, #20]
 495              		.loc 7 117 0
 496 001a 019B     		ldr	r3, [sp, #4]
 497 001c 0022     		movs	r2, #0
 498 001e 9A60     		str	r2, [r3, #8]
 499              		.loc 7 118 0
 500 0020 019B     		ldr	r3, [sp, #4]
ARM GAS  /tmp/ccBNsr2r.s 			page 10


 501 0022 1846     		mov	r0, r3
 502 0024 6FF00101 		mvn	r1, #1
 503 0028 FFF7FEFF 		bl	chThdDequeueAllI
 504              		.loc 7 119 0
 505 002c 03B0     		add	sp, sp, #12
 506              		@ sp needed
 507 002e 5DF804FB 		ldr	pc, [sp], #4
 508              		.cfi_endproc
 509              	.LFE241:
 510              		.size	chIQResetI, .-chIQResetI
 511 0032 00BFAFF3 		.section	.text.chIQPutI,"ax",%progbits
 511      0080AFF3 
 511      0080AFF3 
 511      0080
 512              		.align	2
 513              		.p2align 4,,15
 514              		.global	chIQPutI
 515              		.thumb
 516              		.thumb_func
 517              		.type	chIQPutI, %function
 518              	chIQPutI:
 519              	.LFB242:
 520              		.loc 7 134 0
 521              		.cfi_startproc
 522              		@ args = 0, pretend = 0, frame = 8
 523              		@ frame_needed = 0, uses_anonymous_args = 0
 524 0000 00B5     		push	{lr}
 525              		.cfi_def_cfa_offset 4
 526              		.cfi_offset 14, -4
 527 0002 83B0     		sub	sp, sp, #12
 528              		.cfi_def_cfa_offset 16
 529 0004 0190     		str	r0, [sp, #4]
 530 0006 0B46     		mov	r3, r1
 531 0008 8DF80330 		strb	r3, [sp, #3]
 532              		.loc 7 136 0
 533 000c FFF7FEFF 		bl	chDbgCheckClassI
 534              		.loc 7 138 0
 535 0010 0198     		ldr	r0, [sp, #4]
 536 0012 FFF7FEFF 		bl	chIQIsFullI
 537 0016 0346     		mov	r3, r0
 538 0018 002B     		cmp	r3, #0
 539 001a 02D0     		beq	.L25
 540              		.loc 7 139 0
 541 001c 6FF00303 		mvn	r3, #3
 542 0020 1CE0     		b	.L26
 543              	.L25:
 544              		.loc 7 142 0
 545 0022 019B     		ldr	r3, [sp, #4]
 546 0024 9B68     		ldr	r3, [r3, #8]
 547 0026 5A1C     		adds	r2, r3, #1
 548 0028 019B     		ldr	r3, [sp, #4]
 549 002a 9A60     		str	r2, [r3, #8]
 550              		.loc 7 143 0
 551 002c 019B     		ldr	r3, [sp, #4]
 552 002e 5B69     		ldr	r3, [r3, #20]
 553 0030 591C     		adds	r1, r3, #1
 554 0032 019A     		ldr	r2, [sp, #4]
ARM GAS  /tmp/ccBNsr2r.s 			page 11


 555 0034 5161     		str	r1, [r2, #20]
 556 0036 9DF80320 		ldrb	r2, [sp, #3]
 557 003a 1A70     		strb	r2, [r3]
 558              		.loc 7 144 0
 559 003c 019B     		ldr	r3, [sp, #4]
 560 003e 5A69     		ldr	r2, [r3, #20]
 561 0040 019B     		ldr	r3, [sp, #4]
 562 0042 1B69     		ldr	r3, [r3, #16]
 563 0044 9A42     		cmp	r2, r3
 564 0046 03D3     		bcc	.L27
 565              		.loc 7 145 0
 566 0048 019B     		ldr	r3, [sp, #4]
 567 004a DA68     		ldr	r2, [r3, #12]
 568 004c 019B     		ldr	r3, [sp, #4]
 569 004e 5A61     		str	r2, [r3, #20]
 570              	.L27:
 571              		.loc 7 148 0
 572 0050 019B     		ldr	r3, [sp, #4]
 573 0052 1846     		mov	r0, r3
 574 0054 0021     		movs	r1, #0
 575 0056 FFF7FEFF 		bl	chThdDequeueNextI
 576              		.loc 7 150 0
 577 005a 0023     		movs	r3, #0
 578              	.L26:
 579              		.loc 7 151 0
 580 005c 1846     		mov	r0, r3
 581 005e 03B0     		add	sp, sp, #12
 582              		@ sp needed
 583 0060 5DF804FB 		ldr	pc, [sp], #4
 584              		.cfi_endproc
 585              	.LFE242:
 586              		.size	chIQPutI, .-chIQPutI
 587 0064 AFF30080 		.section	.text.chIQGetTimeout,"ax",%progbits
 587      AFF30080 
 587      AFF30080 
 588              		.align	2
 589              		.p2align 4,,15
 590              		.global	chIQGetTimeout
 591              		.thumb
 592              		.thumb_func
 593              		.type	chIQGetTimeout, %function
 594              	chIQGetTimeout:
 595              	.LFB243:
 596              		.loc 7 173 0
 597              		.cfi_startproc
 598              		@ args = 0, pretend = 0, frame = 16
 599              		@ frame_needed = 0, uses_anonymous_args = 0
 600 0000 00B5     		push	{lr}
 601              		.cfi_def_cfa_offset 4
 602              		.cfi_offset 14, -4
 603 0002 85B0     		sub	sp, sp, #20
 604              		.cfi_def_cfa_offset 24
 605 0004 0190     		str	r0, [sp, #4]
 606 0006 0091     		str	r1, [sp]
 607              		.loc 7 176 0
 608 0008 FFF7FEFF 		bl	chSysLock
 609              		.loc 7 177 0
ARM GAS  /tmp/ccBNsr2r.s 			page 12


 610 000c 019B     		ldr	r3, [sp, #4]
 611 000e DB69     		ldr	r3, [r3, #28]
 612 0010 002B     		cmp	r3, #0
 613 0012 04D0     		beq	.L29
 614              		.loc 7 178 0
 615 0014 019B     		ldr	r3, [sp, #4]
 616 0016 DB69     		ldr	r3, [r3, #28]
 617 0018 0198     		ldr	r0, [sp, #4]
 618 001a 9847     		blx	r3
 619              		.loc 7 181 0
 620 001c 0DE0     		b	.L30
 621              	.L29:
 622 001e 0CE0     		b	.L30
 623              	.L32:
 624              	.LBB10:
 625              		.loc 7 182 0
 626 0020 019B     		ldr	r3, [sp, #4]
 627 0022 1846     		mov	r0, r3
 628 0024 0099     		ldr	r1, [sp]
 629 0026 FFF7FEFF 		bl	chThdEnqueueTimeoutS
 630 002a 0390     		str	r0, [sp, #12]
 631              		.loc 7 183 0
 632 002c 039B     		ldr	r3, [sp, #12]
 633 002e 002B     		cmp	r3, #0
 634 0030 03DA     		bge	.L30
 635              		.loc 7 184 0
 636 0032 FFF7FEFF 		bl	chSysUnlock
 637              		.loc 7 185 0
 638 0036 039B     		ldr	r3, [sp, #12]
 639 0038 20E0     		b	.L31
 640              	.L30:
 641              	.LBE10:
 642              		.loc 7 181 0 discriminator 1
 643 003a 0198     		ldr	r0, [sp, #4]
 644 003c FFF7FEFF 		bl	chIQIsEmptyI
 645 0040 0346     		mov	r3, r0
 646 0042 002B     		cmp	r3, #0
 647 0044 ECD1     		bne	.L32
 648              		.loc 7 189 0
 649 0046 019B     		ldr	r3, [sp, #4]
 650 0048 9B68     		ldr	r3, [r3, #8]
 651 004a 5A1E     		subs	r2, r3, #1
 652 004c 019B     		ldr	r3, [sp, #4]
 653 004e 9A60     		str	r2, [r3, #8]
 654              		.loc 7 190 0
 655 0050 019B     		ldr	r3, [sp, #4]
 656 0052 9B69     		ldr	r3, [r3, #24]
 657 0054 591C     		adds	r1, r3, #1
 658 0056 019A     		ldr	r2, [sp, #4]
 659 0058 9161     		str	r1, [r2, #24]
 660 005a 1B78     		ldrb	r3, [r3]
 661 005c 8DF80B30 		strb	r3, [sp, #11]
 662              		.loc 7 191 0
 663 0060 019B     		ldr	r3, [sp, #4]
 664 0062 9A69     		ldr	r2, [r3, #24]
 665 0064 019B     		ldr	r3, [sp, #4]
 666 0066 1B69     		ldr	r3, [r3, #16]
ARM GAS  /tmp/ccBNsr2r.s 			page 13


 667 0068 9A42     		cmp	r2, r3
 668 006a 03D3     		bcc	.L33
 669              		.loc 7 192 0
 670 006c 019B     		ldr	r3, [sp, #4]
 671 006e DA68     		ldr	r2, [r3, #12]
 672 0070 019B     		ldr	r3, [sp, #4]
 673 0072 9A61     		str	r2, [r3, #24]
 674              	.L33:
 675              		.loc 7 194 0
 676 0074 FFF7FEFF 		bl	chSysUnlock
 677              		.loc 7 196 0
 678 0078 9DF80B30 		ldrb	r3, [sp, #11]	@ zero_extendqisi2
 679              	.L31:
 680              		.loc 7 197 0
 681 007c 1846     		mov	r0, r3
 682 007e 05B0     		add	sp, sp, #20
 683              		@ sp needed
 684 0080 5DF804FB 		ldr	pc, [sp], #4
 685              		.cfi_endproc
 686              	.LFE243:
 687              		.size	chIQGetTimeout, .-chIQGetTimeout
 688 0084 AFF30080 		.section	.text.chIQReadTimeout,"ax",%progbits
 688      AFF30080 
 688      AFF30080 
 689              		.align	2
 690              		.p2align 4,,15
 691              		.global	chIQReadTimeout
 692              		.thumb
 693              		.thumb_func
 694              		.type	chIQReadTimeout, %function
 695              	chIQReadTimeout:
 696              	.LFB244:
 697              		.loc 7 224 0
 698              		.cfi_startproc
 699              		@ args = 0, pretend = 0, frame = 24
 700              		@ frame_needed = 0, uses_anonymous_args = 0
 701 0000 00B5     		push	{lr}
 702              		.cfi_def_cfa_offset 4
 703              		.cfi_offset 14, -4
 704 0002 87B0     		sub	sp, sp, #28
 705              		.cfi_def_cfa_offset 32
 706 0004 0390     		str	r0, [sp, #12]
 707 0006 0291     		str	r1, [sp, #8]
 708 0008 0192     		str	r2, [sp, #4]
 709 000a 0093     		str	r3, [sp]
 710              		.loc 7 225 0
 711 000c 039B     		ldr	r3, [sp, #12]
 712 000e DB69     		ldr	r3, [r3, #28]
 713 0010 0493     		str	r3, [sp, #16]
 714              		.loc 7 226 0
 715 0012 0023     		movs	r3, #0
 716 0014 0593     		str	r3, [sp, #20]
 717              		.loc 7 228 0
 718 0016 019B     		ldr	r3, [sp, #4]
 719 0018 002B     		cmp	r3, #0
 720 001a 02D1     		bne	.L35
 721              		.loc 7 228 0 is_stmt 0 discriminator 1
ARM GAS  /tmp/ccBNsr2r.s 			page 14


 722 001c 2548     		ldr	r0, .L43
 723 001e FFF7FEFF 		bl	chSysHalt
 724              	.L35:
 725              		.loc 7 230 0 is_stmt 1
 726 0022 FFF7FEFF 		bl	chSysLock
 727              	.L42:
 728              		.loc 7 232 0
 729 0026 049B     		ldr	r3, [sp, #16]
 730 0028 002B     		cmp	r3, #0
 731 002a 03D0     		beq	.L36
 732              		.loc 7 233 0
 733 002c 049B     		ldr	r3, [sp, #16]
 734 002e 0398     		ldr	r0, [sp, #12]
 735 0030 9847     		blx	r3
 736              		.loc 7 236 0
 737 0032 0CE0     		b	.L37
 738              	.L36:
 739 0034 0BE0     		b	.L37
 740              	.L39:
 741              		.loc 7 237 0
 742 0036 039B     		ldr	r3, [sp, #12]
 743 0038 1846     		mov	r0, r3
 744 003a 0099     		ldr	r1, [sp]
 745 003c FFF7FEFF 		bl	chThdEnqueueTimeoutS
 746 0040 0346     		mov	r3, r0
 747 0042 002B     		cmp	r3, #0
 748 0044 03D0     		beq	.L37
 749              		.loc 7 238 0
 750 0046 FFF7FEFF 		bl	chSysUnlock
 751              		.loc 7 239 0
 752 004a 059B     		ldr	r3, [sp, #20]
 753 004c 2EE0     		b	.L38
 754              	.L37:
 755              		.loc 7 236 0 discriminator 1
 756 004e 0398     		ldr	r0, [sp, #12]
 757 0050 FFF7FEFF 		bl	chIQIsEmptyI
 758 0054 0346     		mov	r3, r0
 759 0056 002B     		cmp	r3, #0
 760 0058 EDD1     		bne	.L39
 761              		.loc 7 243 0
 762 005a 039B     		ldr	r3, [sp, #12]
 763 005c 9B68     		ldr	r3, [r3, #8]
 764 005e 5A1E     		subs	r2, r3, #1
 765 0060 039B     		ldr	r3, [sp, #12]
 766 0062 9A60     		str	r2, [r3, #8]
 767              		.loc 7 244 0
 768 0064 029B     		ldr	r3, [sp, #8]
 769 0066 5A1C     		adds	r2, r3, #1
 770 0068 0292     		str	r2, [sp, #8]
 771 006a 039A     		ldr	r2, [sp, #12]
 772 006c 9269     		ldr	r2, [r2, #24]
 773 006e 501C     		adds	r0, r2, #1
 774 0070 0399     		ldr	r1, [sp, #12]
 775 0072 8861     		str	r0, [r1, #24]
 776 0074 1278     		ldrb	r2, [r2]	@ zero_extendqisi2
 777 0076 1A70     		strb	r2, [r3]
 778              		.loc 7 245 0
ARM GAS  /tmp/ccBNsr2r.s 			page 15


 779 0078 039B     		ldr	r3, [sp, #12]
 780 007a 9A69     		ldr	r2, [r3, #24]
 781 007c 039B     		ldr	r3, [sp, #12]
 782 007e 1B69     		ldr	r3, [r3, #16]
 783 0080 9A42     		cmp	r2, r3
 784 0082 03D3     		bcc	.L40
 785              		.loc 7 246 0
 786 0084 039B     		ldr	r3, [sp, #12]
 787 0086 DA68     		ldr	r2, [r3, #12]
 788 0088 039B     		ldr	r3, [sp, #12]
 789 008a 9A61     		str	r2, [r3, #24]
 790              	.L40:
 791              		.loc 7 248 0
 792 008c FFF7FEFF 		bl	chSysUnlock
 793              		.loc 7 250 0
 794 0090 059B     		ldr	r3, [sp, #20]
 795 0092 0133     		adds	r3, r3, #1
 796 0094 0593     		str	r3, [sp, #20]
 797              		.loc 7 251 0
 798 0096 019B     		ldr	r3, [sp, #4]
 799 0098 013B     		subs	r3, r3, #1
 800 009a 0193     		str	r3, [sp, #4]
 801 009c 019B     		ldr	r3, [sp, #4]
 802 009e 002B     		cmp	r3, #0
 803 00a0 01D1     		bne	.L41
 804              		.loc 7 252 0
 805 00a2 059B     		ldr	r3, [sp, #20]
 806 00a4 02E0     		b	.L38
 807              	.L41:
 808              		.loc 7 255 0
 809 00a6 FFF7FEFF 		bl	chSysLock
 810              		.loc 7 256 0
 811 00aa BCE7     		b	.L42
 812              	.L38:
 813              		.loc 7 257 0
 814 00ac 1846     		mov	r0, r3
 815 00ae 07B0     		add	sp, sp, #28
 816              		@ sp needed
 817 00b0 5DF804FB 		ldr	pc, [sp], #4
 818              	.L44:
 819              		.align	2
 820              	.L43:
 821 00b4 00000000 		.word	__func__.6648
 822              		.cfi_endproc
 823              	.LFE244:
 824              		.size	chIQReadTimeout, .-chIQReadTimeout
 825 00b8 AFF30080 		.section	.text.chOQObjectInit,"ax",%progbits
 825      AFF30080 
 826              		.align	2
 827              		.p2align 4,,15
 828              		.global	chOQObjectInit
 829              		.thumb
 830              		.thumb_func
 831              		.type	chOQObjectInit, %function
 832              	chOQObjectInit:
 833              	.LFB245:
 834              		.loc 7 276 0
ARM GAS  /tmp/ccBNsr2r.s 			page 16


 835              		.cfi_startproc
 836              		@ args = 4, pretend = 0, frame = 16
 837              		@ frame_needed = 0, uses_anonymous_args = 0
 838 0000 00B5     		push	{lr}
 839              		.cfi_def_cfa_offset 4
 840              		.cfi_offset 14, -4
 841 0002 85B0     		sub	sp, sp, #20
 842              		.cfi_def_cfa_offset 24
 843 0004 0390     		str	r0, [sp, #12]
 844 0006 0291     		str	r1, [sp, #8]
 845 0008 0192     		str	r2, [sp, #4]
 846 000a 0093     		str	r3, [sp]
 847              		.loc 7 278 0
 848 000c 039B     		ldr	r3, [sp, #12]
 849 000e 1846     		mov	r0, r3
 850 0010 FFF7FEFF 		bl	chThdQueueObjectInit
 851              		.loc 7 279 0
 852 0014 039B     		ldr	r3, [sp, #12]
 853 0016 019A     		ldr	r2, [sp, #4]
 854 0018 9A60     		str	r2, [r3, #8]
 855              		.loc 7 280 0
 856 001a 039B     		ldr	r3, [sp, #12]
 857 001c 029A     		ldr	r2, [sp, #8]
 858 001e DA60     		str	r2, [r3, #12]
 859              		.loc 7 281 0
 860 0020 039B     		ldr	r3, [sp, #12]
 861 0022 029A     		ldr	r2, [sp, #8]
 862 0024 9A61     		str	r2, [r3, #24]
 863              		.loc 7 282 0
 864 0026 039B     		ldr	r3, [sp, #12]
 865 0028 029A     		ldr	r2, [sp, #8]
 866 002a 5A61     		str	r2, [r3, #20]
 867              		.loc 7 283 0
 868 002c 029A     		ldr	r2, [sp, #8]
 869 002e 019B     		ldr	r3, [sp, #4]
 870 0030 1A44     		add	r2, r2, r3
 871 0032 039B     		ldr	r3, [sp, #12]
 872 0034 1A61     		str	r2, [r3, #16]
 873              		.loc 7 284 0
 874 0036 039B     		ldr	r3, [sp, #12]
 875 0038 009A     		ldr	r2, [sp]
 876 003a DA61     		str	r2, [r3, #28]
 877              		.loc 7 285 0
 878 003c 039B     		ldr	r3, [sp, #12]
 879 003e 069A     		ldr	r2, [sp, #24]
 880 0040 1A62     		str	r2, [r3, #32]
 881              		.loc 7 286 0
 882 0042 05B0     		add	sp, sp, #20
 883              		@ sp needed
 884 0044 5DF804FB 		ldr	pc, [sp], #4
 885              		.cfi_endproc
 886              	.LFE245:
 887              		.size	chOQObjectInit, .-chOQObjectInit
 888 0048 AFF30080 		.section	.text.chOQResetI,"ax",%progbits
 888      AFF30080 
 889              		.align	2
 890              		.p2align 4,,15
ARM GAS  /tmp/ccBNsr2r.s 			page 17


 891              		.global	chOQResetI
 892              		.thumb
 893              		.thumb_func
 894              		.type	chOQResetI, %function
 895              	chOQResetI:
 896              	.LFB246:
 897              		.loc 7 299 0
 898              		.cfi_startproc
 899              		@ args = 0, pretend = 0, frame = 8
 900              		@ frame_needed = 0, uses_anonymous_args = 0
 901 0000 00B5     		push	{lr}
 902              		.cfi_def_cfa_offset 4
 903              		.cfi_offset 14, -4
 904 0002 83B0     		sub	sp, sp, #12
 905              		.cfi_def_cfa_offset 16
 906 0004 0190     		str	r0, [sp, #4]
 907              		.loc 7 301 0
 908 0006 FFF7FEFF 		bl	chDbgCheckClassI
 909              		.loc 7 303 0
 910 000a 019B     		ldr	r3, [sp, #4]
 911 000c DA68     		ldr	r2, [r3, #12]
 912 000e 019B     		ldr	r3, [sp, #4]
 913 0010 9A61     		str	r2, [r3, #24]
 914              		.loc 7 304 0
 915 0012 019B     		ldr	r3, [sp, #4]
 916 0014 DA68     		ldr	r2, [r3, #12]
 917 0016 019B     		ldr	r3, [sp, #4]
 918 0018 5A61     		str	r2, [r3, #20]
 919              		.loc 7 305 0
 920 001a 019B     		ldr	r3, [sp, #4]
 921 001c 1B69     		ldr	r3, [r3, #16]
 922 001e 1A46     		mov	r2, r3
 923 0020 019B     		ldr	r3, [sp, #4]
 924 0022 DB68     		ldr	r3, [r3, #12]
 925 0024 D31A     		subs	r3, r2, r3
 926 0026 1A46     		mov	r2, r3
 927 0028 019B     		ldr	r3, [sp, #4]
 928 002a 9A60     		str	r2, [r3, #8]
 929              		.loc 7 306 0
 930 002c 019B     		ldr	r3, [sp, #4]
 931 002e 1846     		mov	r0, r3
 932 0030 6FF00101 		mvn	r1, #1
 933 0034 FFF7FEFF 		bl	chThdDequeueAllI
 934              		.loc 7 307 0
 935 0038 03B0     		add	sp, sp, #12
 936              		@ sp needed
 937 003a 5DF804FB 		ldr	pc, [sp], #4
 938              		.cfi_endproc
 939              	.LFE246:
 940              		.size	chOQResetI, .-chOQResetI
 941 003e 00BF     		.section	.text.chOQPutTimeout,"ax",%progbits
 942              		.align	2
 943              		.p2align 4,,15
 944              		.global	chOQPutTimeout
 945              		.thumb
 946              		.thumb_func
 947              		.type	chOQPutTimeout, %function
ARM GAS  /tmp/ccBNsr2r.s 			page 18


 948              	chOQPutTimeout:
 949              	.LFB247:
 950              		.loc 7 331 0
 951              		.cfi_startproc
 952              		@ args = 0, pretend = 0, frame = 24
 953              		@ frame_needed = 0, uses_anonymous_args = 0
 954 0000 00B5     		push	{lr}
 955              		.cfi_def_cfa_offset 4
 956              		.cfi_offset 14, -4
 957 0002 87B0     		sub	sp, sp, #28
 958              		.cfi_def_cfa_offset 32
 959 0004 0390     		str	r0, [sp, #12]
 960 0006 0B46     		mov	r3, r1
 961 0008 0192     		str	r2, [sp, #4]
 962 000a 8DF80B30 		strb	r3, [sp, #11]
 963              		.loc 7 333 0
 964 000e FFF7FEFF 		bl	chSysLock
 965              		.loc 7 334 0
 966 0012 0CE0     		b	.L48
 967              	.L50:
 968              	.LBB11:
 969              		.loc 7 335 0
 970 0014 039B     		ldr	r3, [sp, #12]
 971 0016 1846     		mov	r0, r3
 972 0018 0199     		ldr	r1, [sp, #4]
 973 001a FFF7FEFF 		bl	chThdEnqueueTimeoutS
 974 001e 0590     		str	r0, [sp, #20]
 975              		.loc 7 336 0
 976 0020 059B     		ldr	r3, [sp, #20]
 977 0022 002B     		cmp	r3, #0
 978 0024 03DA     		bge	.L48
 979              		.loc 7 337 0
 980 0026 FFF7FEFF 		bl	chSysUnlock
 981              		.loc 7 338 0
 982 002a 059B     		ldr	r3, [sp, #20]
 983 002c 27E0     		b	.L49
 984              	.L48:
 985              	.LBE11:
 986              		.loc 7 334 0 discriminator 1
 987 002e 0398     		ldr	r0, [sp, #12]
 988 0030 FFF7FEFF 		bl	chOQIsFullI
 989 0034 0346     		mov	r3, r0
 990 0036 002B     		cmp	r3, #0
 991 0038 ECD1     		bne	.L50
 992              		.loc 7 342 0
 993 003a 039B     		ldr	r3, [sp, #12]
 994 003c 9B68     		ldr	r3, [r3, #8]
 995 003e 5A1E     		subs	r2, r3, #1
 996 0040 039B     		ldr	r3, [sp, #12]
 997 0042 9A60     		str	r2, [r3, #8]
 998              		.loc 7 343 0
 999 0044 039B     		ldr	r3, [sp, #12]
 1000 0046 5B69     		ldr	r3, [r3, #20]
 1001 0048 591C     		adds	r1, r3, #1
 1002 004a 039A     		ldr	r2, [sp, #12]
 1003 004c 5161     		str	r1, [r2, #20]
 1004 004e 9DF80B20 		ldrb	r2, [sp, #11]
ARM GAS  /tmp/ccBNsr2r.s 			page 19


 1005 0052 1A70     		strb	r2, [r3]
 1006              		.loc 7 344 0
 1007 0054 039B     		ldr	r3, [sp, #12]
 1008 0056 5A69     		ldr	r2, [r3, #20]
 1009 0058 039B     		ldr	r3, [sp, #12]
 1010 005a 1B69     		ldr	r3, [r3, #16]
 1011 005c 9A42     		cmp	r2, r3
 1012 005e 03D3     		bcc	.L51
 1013              		.loc 7 345 0
 1014 0060 039B     		ldr	r3, [sp, #12]
 1015 0062 DA68     		ldr	r2, [r3, #12]
 1016 0064 039B     		ldr	r3, [sp, #12]
 1017 0066 5A61     		str	r2, [r3, #20]
 1018              	.L51:
 1019              		.loc 7 348 0
 1020 0068 039B     		ldr	r3, [sp, #12]
 1021 006a DB69     		ldr	r3, [r3, #28]
 1022 006c 002B     		cmp	r3, #0
 1023 006e 03D0     		beq	.L52
 1024              		.loc 7 349 0
 1025 0070 039B     		ldr	r3, [sp, #12]
 1026 0072 DB69     		ldr	r3, [r3, #28]
 1027 0074 0398     		ldr	r0, [sp, #12]
 1028 0076 9847     		blx	r3
 1029              	.L52:
 1030              		.loc 7 351 0
 1031 0078 FFF7FEFF 		bl	chSysUnlock
 1032              		.loc 7 353 0
 1033 007c 0023     		movs	r3, #0
 1034              	.L49:
 1035              		.loc 7 354 0
 1036 007e 1846     		mov	r0, r3
 1037 0080 07B0     		add	sp, sp, #28
 1038              		@ sp needed
 1039 0082 5DF804FB 		ldr	pc, [sp], #4
 1040              		.cfi_endproc
 1041              	.LFE247:
 1042              		.size	chOQPutTimeout, .-chOQPutTimeout
 1043 0086 00BFAFF3 		.section	.text.chOQGetI,"ax",%progbits
 1043      0080AFF3 
 1043      0080
 1044              		.align	2
 1045              		.p2align 4,,15
 1046              		.global	chOQGetI
 1047              		.thumb
 1048              		.thumb_func
 1049              		.type	chOQGetI, %function
 1050              	chOQGetI:
 1051              	.LFB248:
 1052              		.loc 7 366 0
 1053              		.cfi_startproc
 1054              		@ args = 0, pretend = 0, frame = 16
 1055              		@ frame_needed = 0, uses_anonymous_args = 0
 1056 0000 00B5     		push	{lr}
 1057              		.cfi_def_cfa_offset 4
 1058              		.cfi_offset 14, -4
 1059 0002 85B0     		sub	sp, sp, #20
ARM GAS  /tmp/ccBNsr2r.s 			page 20


 1060              		.cfi_def_cfa_offset 24
 1061 0004 0190     		str	r0, [sp, #4]
 1062              		.loc 7 369 0
 1063 0006 FFF7FEFF 		bl	chDbgCheckClassI
 1064              		.loc 7 371 0
 1065 000a 0198     		ldr	r0, [sp, #4]
 1066 000c FFF7FEFF 		bl	chOQIsEmptyI
 1067 0010 0346     		mov	r3, r0
 1068 0012 002B     		cmp	r3, #0
 1069 0014 02D0     		beq	.L54
 1070              		.loc 7 372 0
 1071 0016 6FF00203 		mvn	r3, #2
 1072 001a 1DE0     		b	.L55
 1073              	.L54:
 1074              		.loc 7 375 0
 1075 001c 019B     		ldr	r3, [sp, #4]
 1076 001e 9B68     		ldr	r3, [r3, #8]
 1077 0020 5A1C     		adds	r2, r3, #1
 1078 0022 019B     		ldr	r3, [sp, #4]
 1079 0024 9A60     		str	r2, [r3, #8]
 1080              		.loc 7 376 0
 1081 0026 019B     		ldr	r3, [sp, #4]
 1082 0028 9B69     		ldr	r3, [r3, #24]
 1083 002a 591C     		adds	r1, r3, #1
 1084 002c 019A     		ldr	r2, [sp, #4]
 1085 002e 9161     		str	r1, [r2, #24]
 1086 0030 1B78     		ldrb	r3, [r3]
 1087 0032 8DF80F30 		strb	r3, [sp, #15]
 1088              		.loc 7 377 0
 1089 0036 019B     		ldr	r3, [sp, #4]
 1090 0038 9A69     		ldr	r2, [r3, #24]
 1091 003a 019B     		ldr	r3, [sp, #4]
 1092 003c 1B69     		ldr	r3, [r3, #16]
 1093 003e 9A42     		cmp	r2, r3
 1094 0040 03D3     		bcc	.L56
 1095              		.loc 7 378 0
 1096 0042 019B     		ldr	r3, [sp, #4]
 1097 0044 DA68     		ldr	r2, [r3, #12]
 1098 0046 019B     		ldr	r3, [sp, #4]
 1099 0048 9A61     		str	r2, [r3, #24]
 1100              	.L56:
 1101              		.loc 7 381 0
 1102 004a 019B     		ldr	r3, [sp, #4]
 1103 004c 1846     		mov	r0, r3
 1104 004e 0021     		movs	r1, #0
 1105 0050 FFF7FEFF 		bl	chThdDequeueNextI
 1106              		.loc 7 383 0
 1107 0054 9DF80F30 		ldrb	r3, [sp, #15]	@ zero_extendqisi2
 1108              	.L55:
 1109              		.loc 7 384 0
 1110 0058 1846     		mov	r0, r3
 1111 005a 05B0     		add	sp, sp, #20
 1112              		@ sp needed
 1113 005c 5DF804FB 		ldr	pc, [sp], #4
 1114              		.cfi_endproc
 1115              	.LFE248:
 1116              		.size	chOQGetI, .-chOQGetI
ARM GAS  /tmp/ccBNsr2r.s 			page 21


 1117              		.section	.text.chOQWriteTimeout,"ax",%progbits
 1118              		.align	2
 1119              		.p2align 4,,15
 1120              		.global	chOQWriteTimeout
 1121              		.thumb
 1122              		.thumb_func
 1123              		.type	chOQWriteTimeout, %function
 1124              	chOQWriteTimeout:
 1125              	.LFB249:
 1126              		.loc 7 411 0
 1127              		.cfi_startproc
 1128              		@ args = 0, pretend = 0, frame = 24
 1129              		@ frame_needed = 0, uses_anonymous_args = 0
 1130 0000 00B5     		push	{lr}
 1131              		.cfi_def_cfa_offset 4
 1132              		.cfi_offset 14, -4
 1133 0002 87B0     		sub	sp, sp, #28
 1134              		.cfi_def_cfa_offset 32
 1135 0004 0390     		str	r0, [sp, #12]
 1136 0006 0291     		str	r1, [sp, #8]
 1137 0008 0192     		str	r2, [sp, #4]
 1138 000a 0093     		str	r3, [sp]
 1139              		.loc 7 412 0
 1140 000c 039B     		ldr	r3, [sp, #12]
 1141 000e DB69     		ldr	r3, [r3, #28]
 1142 0010 0493     		str	r3, [sp, #16]
 1143              		.loc 7 413 0
 1144 0012 0023     		movs	r3, #0
 1145 0014 0593     		str	r3, [sp, #20]
 1146              		.loc 7 415 0
 1147 0016 019B     		ldr	r3, [sp, #4]
 1148 0018 002B     		cmp	r3, #0
 1149 001a 02D1     		bne	.L58
 1150              		.loc 7 415 0 is_stmt 0 discriminator 1
 1151 001c 2548     		ldr	r0, .L66
 1152 001e FFF7FEFF 		bl	chSysHalt
 1153              	.L58:
 1154              		.loc 7 417 0 is_stmt 1
 1155 0022 FFF7FEFF 		bl	chSysLock
 1156              		.loc 7 419 0
 1157 0026 0BE0     		b	.L59
 1158              	.L61:
 1159              		.loc 7 420 0
 1160 0028 039B     		ldr	r3, [sp, #12]
 1161 002a 1846     		mov	r0, r3
 1162 002c 0099     		ldr	r1, [sp]
 1163 002e FFF7FEFF 		bl	chThdEnqueueTimeoutS
 1164 0032 0346     		mov	r3, r0
 1165 0034 002B     		cmp	r3, #0
 1166 0036 03D0     		beq	.L59
 1167              		.loc 7 421 0
 1168 0038 FFF7FEFF 		bl	chSysUnlock
 1169              		.loc 7 422 0
 1170 003c 059B     		ldr	r3, [sp, #20]
 1171 003e 35E0     		b	.L60
 1172              	.L59:
 1173              		.loc 7 419 0 discriminator 1
ARM GAS  /tmp/ccBNsr2r.s 			page 22


 1174 0040 0398     		ldr	r0, [sp, #12]
 1175 0042 FFF7FEFF 		bl	chOQIsFullI
 1176 0046 0346     		mov	r3, r0
 1177 0048 002B     		cmp	r3, #0
 1178 004a EDD1     		bne	.L61
 1179              		.loc 7 426 0
 1180 004c 039B     		ldr	r3, [sp, #12]
 1181 004e 9B68     		ldr	r3, [r3, #8]
 1182 0050 5A1E     		subs	r2, r3, #1
 1183 0052 039B     		ldr	r3, [sp, #12]
 1184 0054 9A60     		str	r2, [r3, #8]
 1185              		.loc 7 427 0
 1186 0056 039B     		ldr	r3, [sp, #12]
 1187 0058 5B69     		ldr	r3, [r3, #20]
 1188 005a 591C     		adds	r1, r3, #1
 1189 005c 039A     		ldr	r2, [sp, #12]
 1190 005e 5161     		str	r1, [r2, #20]
 1191 0060 029A     		ldr	r2, [sp, #8]
 1192 0062 511C     		adds	r1, r2, #1
 1193 0064 0291     		str	r1, [sp, #8]
 1194 0066 1278     		ldrb	r2, [r2]	@ zero_extendqisi2
 1195 0068 1A70     		strb	r2, [r3]
 1196              		.loc 7 428 0
 1197 006a 039B     		ldr	r3, [sp, #12]
 1198 006c 5A69     		ldr	r2, [r3, #20]
 1199 006e 039B     		ldr	r3, [sp, #12]
 1200 0070 1B69     		ldr	r3, [r3, #16]
 1201 0072 9A42     		cmp	r2, r3
 1202 0074 03D3     		bcc	.L62
 1203              		.loc 7 429 0
 1204 0076 039B     		ldr	r3, [sp, #12]
 1205 0078 DA68     		ldr	r2, [r3, #12]
 1206 007a 039B     		ldr	r3, [sp, #12]
 1207 007c 5A61     		str	r2, [r3, #20]
 1208              	.L62:
 1209              		.loc 7 432 0
 1210 007e 049B     		ldr	r3, [sp, #16]
 1211 0080 002B     		cmp	r3, #0
 1212 0082 02D0     		beq	.L63
 1213              		.loc 7 433 0
 1214 0084 049B     		ldr	r3, [sp, #16]
 1215 0086 0398     		ldr	r0, [sp, #12]
 1216 0088 9847     		blx	r3
 1217              	.L63:
 1218              		.loc 7 435 0
 1219 008a FFF7FEFF 		bl	chSysUnlock
 1220              		.loc 7 437 0
 1221 008e 059B     		ldr	r3, [sp, #20]
 1222 0090 0133     		adds	r3, r3, #1
 1223 0092 0593     		str	r3, [sp, #20]
 1224              		.loc 7 438 0
 1225 0094 019B     		ldr	r3, [sp, #4]
 1226 0096 013B     		subs	r3, r3, #1
 1227 0098 0193     		str	r3, [sp, #4]
 1228 009a 019B     		ldr	r3, [sp, #4]
 1229 009c 002B     		cmp	r3, #0
 1230 009e 01D1     		bne	.L64
ARM GAS  /tmp/ccBNsr2r.s 			page 23


 1231              		.loc 7 439 0
 1232 00a0 059B     		ldr	r3, [sp, #20]
 1233 00a2 03E0     		b	.L60
 1234              	.L64:
 1235              		.loc 7 441 0
 1236 00a4 FFF7FEFF 		bl	chSysLock
 1237              		.loc 7 442 0
 1238 00a8 00BF     		nop
 1239              		.loc 7 419 0
 1240 00aa C9E7     		b	.L59
 1241              	.L60:
 1242              		.loc 7 443 0
 1243 00ac 1846     		mov	r0, r3
 1244 00ae 07B0     		add	sp, sp, #28
 1245              		@ sp needed
 1246 00b0 5DF804FB 		ldr	pc, [sp], #4
 1247              	.L67:
 1248              		.align	2
 1249              	.L66:
 1250 00b4 00000000 		.word	__func__.6684
 1251              		.cfi_endproc
 1252              	.LFE249:
 1253              		.size	chOQWriteTimeout, .-chOQWriteTimeout
 1254 00b8 AFF30080 		.section	.rodata.__func__.5925,"a",%progbits
 1254      AFF30080 
 1255              		.align	2
 1256              		.type	__func__.5925, %object
 1257              		.size	__func__.5925, 12
 1258              	__func__.5925:
 1259 0000 63685379 		.ascii	"chSysUnlock\000"
 1259      73556E6C 
 1259      6F636B00 
 1260              		.section	.rodata.__func__.6648,"a",%progbits
 1261              		.align	2
 1262              		.type	__func__.6648, %object
 1263              		.size	__func__.6648, 16
 1264              	__func__.6648:
 1265 0000 63684951 		.ascii	"chIQReadTimeout\000"
 1265      52656164 
 1265      54696D65 
 1265      6F757400 
 1266              		.section	.rodata.__func__.6684,"a",%progbits
 1267              		.align	2
 1268              		.type	__func__.6684, %object
 1269              		.size	__func__.6684, 17
 1270              	__func__.6684:
 1271 0000 63684F51 		.ascii	"chOQWriteTimeout\000"
 1271      57726974 
 1271      6554696D 
 1271      656F7574 
 1271      00
 1272 0011 000000   		.text
 1273              	.Letext0:
 1274              		.file 8 "/usr/lib/gcc/arm-none-eabi/4.8/include/stddef.h"
 1275              		.file 9 "/usr/include/newlib/machine/_default_types.h"
 1276              		.file 10 "/usr/include/newlib/stdint.h"
 1277              		.file 11 "/home/efe/ChibiOS/os/rt/ports/ARMCMx/compilers/GCC/chtypes.h"
ARM GAS  /tmp/ccBNsr2r.s 			page 24


 1278              		.file 12 "/home/efe/ChibiOS/os/rt/include/chsystypes.h"
 1279              		.file 13 "/home/efe/ChibiOS/os/rt/ports/ARMCMx/chcore.h"
 1280              		.file 14 "/home/efe/ChibiOS/os/rt/include/chdebug.h"
 1281              		.file 15 "/home/efe/ChibiOS/os/rt/include/chtm.h"
 1282              		.file 16 "/home/efe/ChibiOS/os/rt/include/chstats.h"
 1283              		.file 17 "/home/efe/ChibiOS/os/rt/include/chsem.h"
 1284              		.file 18 "/home/efe/ChibiOS/os/rt/include/chmtx.h"
 1285              		.file 19 "/home/efe/ChibiOS/os/ext/CMSIS/include/core_cm4.h"
 1286              		.section	.debug_info,"",%progbits
 1287              	.Ldebug_info0:
 1288 0000 AE0D0000 		.4byte	0xdae
 1289 0004 0400     		.2byte	0x4
 1290 0006 00000000 		.4byte	.Ldebug_abbrev0
 1291 000a 04       		.byte	0x4
 1292 000b 01       		.uleb128 0x1
 1293 000c F3010000 		.4byte	.LASF169
 1294 0010 01       		.byte	0x1
 1295 0011 F4060000 		.4byte	.LASF170
 1296 0015 00000000 		.4byte	.Ldebug_ranges0+0
 1297 0019 00000000 		.4byte	0
 1298 001d 00000000 		.4byte	.Ldebug_line0
 1299 0021 02       		.uleb128 0x2
 1300 0022 04       		.byte	0x4
 1301 0023 05       		.byte	0x5
 1302 0024 696E7400 		.ascii	"int\000"
 1303 0028 03       		.uleb128 0x3
 1304 0029 28000000 		.4byte	.LASF2
 1305 002d 08       		.byte	0x8
 1306 002e D4       		.byte	0xd4
 1307 002f 33000000 		.4byte	0x33
 1308 0033 04       		.uleb128 0x4
 1309 0034 04       		.byte	0x4
 1310 0035 07       		.byte	0x7
 1311 0036 29030000 		.4byte	.LASF0
 1312 003a 04       		.uleb128 0x4
 1313 003b 01       		.byte	0x1
 1314 003c 06       		.byte	0x6
 1315 003d 6B010000 		.4byte	.LASF1
 1316 0041 03       		.uleb128 0x3
 1317 0042 4C000000 		.4byte	.LASF3
 1318 0046 09       		.byte	0x9
 1319 0047 1D       		.byte	0x1d
 1320 0048 4C000000 		.4byte	0x4c
 1321 004c 04       		.uleb128 0x4
 1322 004d 01       		.byte	0x1
 1323 004e 08       		.byte	0x8
 1324 004f 39050000 		.4byte	.LASF4
 1325 0053 04       		.uleb128 0x4
 1326 0054 02       		.byte	0x2
 1327 0055 05       		.byte	0x5
 1328 0056 67050000 		.4byte	.LASF5
 1329 005a 04       		.uleb128 0x4
 1330 005b 02       		.byte	0x2
 1331 005c 07       		.byte	0x7
 1332 005d 6F030000 		.4byte	.LASF6
 1333 0061 03       		.uleb128 0x3
 1334 0062 E6030000 		.4byte	.LASF7
ARM GAS  /tmp/ccBNsr2r.s 			page 25


 1335 0066 09       		.byte	0x9
 1336 0067 3F       		.byte	0x3f
 1337 0068 6C000000 		.4byte	0x6c
 1338 006c 04       		.uleb128 0x4
 1339 006d 04       		.byte	0x4
 1340 006e 05       		.byte	0x5
 1341 006f C1010000 		.4byte	.LASF8
 1342 0073 03       		.uleb128 0x3
 1343 0074 7B060000 		.4byte	.LASF9
 1344 0078 09       		.byte	0x9
 1345 0079 41       		.byte	0x41
 1346 007a 7E000000 		.4byte	0x7e
 1347 007e 04       		.uleb128 0x4
 1348 007f 04       		.byte	0x4
 1349 0080 07       		.byte	0x7
 1350 0081 24060000 		.4byte	.LASF10
 1351 0085 04       		.uleb128 0x4
 1352 0086 08       		.byte	0x8
 1353 0087 05       		.byte	0x5
 1354 0088 5D010000 		.4byte	.LASF11
 1355 008c 03       		.uleb128 0x3
 1356 008d BD040000 		.4byte	.LASF12
 1357 0091 09       		.byte	0x9
 1358 0092 5B       		.byte	0x5b
 1359 0093 97000000 		.4byte	0x97
 1360 0097 04       		.uleb128 0x4
 1361 0098 08       		.byte	0x8
 1362 0099 07       		.byte	0x7
 1363 009a CF000000 		.4byte	.LASF13
 1364 009e 03       		.uleb128 0x3
 1365 009f 2A070000 		.4byte	.LASF14
 1366 00a3 0A       		.byte	0xa
 1367 00a4 2A       		.byte	0x2a
 1368 00a5 41000000 		.4byte	0x41
 1369 00a9 03       		.uleb128 0x3
 1370 00aa 31050000 		.4byte	.LASF15
 1371 00ae 0A       		.byte	0xa
 1372 00af 41       		.byte	0x41
 1373 00b0 61000000 		.4byte	0x61
 1374 00b4 03       		.uleb128 0x3
 1375 00b5 F3050000 		.4byte	.LASF16
 1376 00b9 0A       		.byte	0xa
 1377 00ba 42       		.byte	0x42
 1378 00bb 73000000 		.4byte	0x73
 1379 00bf 03       		.uleb128 0x3
 1380 00c0 36000000 		.4byte	.LASF17
 1381 00c4 0A       		.byte	0xa
 1382 00c5 4E       		.byte	0x4e
 1383 00c6 8C000000 		.4byte	0x8c
 1384 00ca 05       		.uleb128 0x5
 1385 00cb A9000000 		.4byte	0xa9
 1386 00cf 03       		.uleb128 0x3
 1387 00d0 B8060000 		.4byte	.LASF18
 1388 00d4 0B       		.byte	0xb
 1389 00d5 45       		.byte	0x45
 1390 00d6 B4000000 		.4byte	0xb4
 1391 00da 03       		.uleb128 0x3
ARM GAS  /tmp/ccBNsr2r.s 			page 26


 1392 00db 43010000 		.4byte	.LASF19
 1393 00df 0B       		.byte	0xb
 1394 00e0 46       		.byte	0x46
 1395 00e1 BF000000 		.4byte	0xbf
 1396 00e5 03       		.uleb128 0x3
 1397 00e6 B9030000 		.4byte	.LASF20
 1398 00ea 0B       		.byte	0xb
 1399 00eb 48       		.byte	0x48
 1400 00ec 9E000000 		.4byte	0x9e
 1401 00f0 03       		.uleb128 0x3
 1402 00f1 CA010000 		.4byte	.LASF21
 1403 00f5 0B       		.byte	0xb
 1404 00f6 49       		.byte	0x49
 1405 00f7 9E000000 		.4byte	0x9e
 1406 00fb 03       		.uleb128 0x3
 1407 00fc D3040000 		.4byte	.LASF22
 1408 0100 0B       		.byte	0xb
 1409 0101 4A       		.byte	0x4a
 1410 0102 9E000000 		.4byte	0x9e
 1411 0106 03       		.uleb128 0x3
 1412 0107 12050000 		.4byte	.LASF23
 1413 010b 0B       		.byte	0xb
 1414 010c 4C       		.byte	0x4c
 1415 010d B4000000 		.4byte	0xb4
 1416 0111 03       		.uleb128 0x3
 1417 0112 9B030000 		.4byte	.LASF24
 1418 0116 0B       		.byte	0xb
 1419 0117 4D       		.byte	0x4d
 1420 0118 A9000000 		.4byte	0xa9
 1421 011c 03       		.uleb128 0x3
 1422 011d DA030000 		.4byte	.LASF25
 1423 0121 0B       		.byte	0xb
 1424 0122 4F       		.byte	0x4f
 1425 0123 B4000000 		.4byte	0xb4
 1426 0127 03       		.uleb128 0x3
 1427 0128 18030000 		.4byte	.LASF26
 1428 012c 0B       		.byte	0xb
 1429 012d 51       		.byte	0x51
 1430 012e A9000000 		.4byte	0xa9
 1431 0132 03       		.uleb128 0x3
 1432 0133 A6030000 		.4byte	.LASF27
 1433 0137 0B       		.byte	0xb
 1434 0138 52       		.byte	0x52
 1435 0139 B4000000 		.4byte	0xb4
 1436 013d 03       		.uleb128 0x3
 1437 013e 5D060000 		.4byte	.LASF28
 1438 0142 0C       		.byte	0xc
 1439 0143 33       		.byte	0x33
 1440 0144 B4000000 		.4byte	0xb4
 1441 0148 03       		.uleb128 0x3
 1442 0149 48060000 		.4byte	.LASF29
 1443 014d 0C       		.byte	0xc
 1444 014e 3F       		.byte	0x3f
 1445 014f 53010000 		.4byte	0x153
 1446 0153 06       		.uleb128 0x6
 1447 0154 91030000 		.4byte	.LASF51
 1448 0158 60       		.byte	0x60
ARM GAS  /tmp/ccBNsr2r.s 			page 27


 1449 0159 03       		.byte	0x3
 1450 015a C2       		.byte	0xc2
 1451 015b 59020000 		.4byte	0x259
 1452 015f 07       		.uleb128 0x7
 1453 0160 7F050000 		.4byte	.LASF30
 1454 0164 03       		.byte	0x3
 1455 0165 C3       		.byte	0xc3
 1456 0166 64020000 		.4byte	0x264
 1457 016a 00       		.byte	0
 1458 016b 07       		.uleb128 0x7
 1459 016c FF040000 		.4byte	.LASF31
 1460 0170 03       		.byte	0x3
 1461 0171 C5       		.byte	0xc5
 1462 0172 64020000 		.4byte	0x264
 1463 0176 04       		.byte	0x4
 1464 0177 07       		.uleb128 0x7
 1465 0178 4C010000 		.4byte	.LASF32
 1466 017c 03       		.byte	0x3
 1467 017d C7       		.byte	0xc7
 1468 017e 06010000 		.4byte	0x106
 1469 0182 08       		.byte	0x8
 1470 0183 07       		.uleb128 0x7
 1471 0184 A4070000 		.4byte	.LASF33
 1472 0188 03       		.byte	0x3
 1473 0189 C8       		.byte	0xc8
 1474 018a CD040000 		.4byte	0x4cd
 1475 018e 0C       		.byte	0xc
 1476 018f 07       		.uleb128 0x7
 1477 0190 A3020000 		.4byte	.LASF34
 1478 0194 03       		.byte	0x3
 1479 0195 CA       		.byte	0xca
 1480 0196 64020000 		.4byte	0x264
 1481 019a 10       		.byte	0x10
 1482 019b 07       		.uleb128 0x7
 1483 019c 8C040000 		.4byte	.LASF35
 1484 01a0 03       		.byte	0x3
 1485 01a1 CB       		.byte	0xcb
 1486 01a2 64020000 		.4byte	0x264
 1487 01a6 14       		.byte	0x14
 1488 01a7 07       		.uleb128 0x7
 1489 01a8 39070000 		.4byte	.LASF36
 1490 01ac 03       		.byte	0x3
 1491 01ad D2       		.byte	0xd2
 1492 01ae 71070000 		.4byte	0x771
 1493 01b2 18       		.byte	0x18
 1494 01b3 07       		.uleb128 0x7
 1495 01b4 1E030000 		.4byte	.LASF37
 1496 01b8 03       		.byte	0x3
 1497 01b9 D8       		.byte	0xd8
 1498 01ba 83070000 		.4byte	0x783
 1499 01be 1C       		.byte	0x1c
 1500 01bf 07       		.uleb128 0x7
 1501 01c0 55050000 		.4byte	.LASF38
 1502 01c4 03       		.byte	0x3
 1503 01c5 DD       		.byte	0xdd
 1504 01c6 F0000000 		.4byte	0xf0
 1505 01ca 20       		.byte	0x20
ARM GAS  /tmp/ccBNsr2r.s 			page 28


 1506 01cb 07       		.uleb128 0x7
 1507 01cc 8B050000 		.4byte	.LASF39
 1508 01d0 03       		.byte	0x3
 1509 01d1 E1       		.byte	0xe1
 1510 01d2 E5000000 		.4byte	0xe5
 1511 01d6 21       		.byte	0x21
 1512 01d7 07       		.uleb128 0x7
 1513 01d8 E5060000 		.4byte	.LASF40
 1514 01dc 03       		.byte	0x3
 1515 01dd E6       		.byte	0xe6
 1516 01de FB000000 		.4byte	0xfb
 1517 01e2 22       		.byte	0x22
 1518 01e3 08       		.uleb128 0x8
 1519 01e4 705F7500 		.ascii	"p_u\000"
 1520 01e8 03       		.byte	0x3
 1521 01e9 3101     		.2byte	0x131
 1522 01eb AC060000 		.4byte	0x6ac
 1523 01ef 24       		.byte	0x24
 1524 01f0 09       		.uleb128 0x9
 1525 01f1 21040000 		.4byte	.LASF41
 1526 01f5 03       		.byte	0x3
 1527 01f6 3601     		.2byte	0x136
 1528 01f8 6A020000 		.4byte	0x26a
 1529 01fc 28       		.byte	0x28
 1530 01fd 09       		.uleb128 0x9
 1531 01fe 50030000 		.4byte	.LASF42
 1532 0202 03       		.byte	0x3
 1533 0203 3C01     		.2byte	0x13c
 1534 0205 8E020000 		.4byte	0x28e
 1535 0209 2C       		.byte	0x2c
 1536 020a 09       		.uleb128 0x9
 1537 020b 7A070000 		.4byte	.LASF43
 1538 020f 03       		.byte	0x3
 1539 0210 4001     		.2byte	0x140
 1540 0212 11010000 		.4byte	0x111
 1541 0216 34       		.byte	0x34
 1542 0217 09       		.uleb128 0x9
 1543 0218 DC050000 		.4byte	.LASF44
 1544 021c 03       		.byte	0x3
 1545 021d 4601     		.2byte	0x146
 1546 021f 1C010000 		.4byte	0x11c
 1547 0223 38       		.byte	0x38
 1548 0224 09       		.uleb128 0x9
 1549 0225 5D050000 		.4byte	.LASF45
 1550 0229 03       		.byte	0x3
 1551 022a 4D01     		.2byte	0x14d
 1552 022c 6B070000 		.4byte	0x76b
 1553 0230 3C       		.byte	0x3c
 1554 0231 09       		.uleb128 0x9
 1555 0232 67060000 		.4byte	.LASF46
 1556 0236 03       		.byte	0x3
 1557 0237 5101     		.2byte	0x151
 1558 0239 06010000 		.4byte	0x106
 1559 023d 40       		.byte	0x40
 1560 023e 09       		.uleb128 0x9
 1561 023f 7F010000 		.4byte	.LASF47
 1562 0243 03       		.byte	0x3
ARM GAS  /tmp/ccBNsr2r.s 			page 29


 1563 0244 5801     		.2byte	0x158
 1564 0246 41030000 		.4byte	0x341
 1565 024a 44       		.byte	0x44
 1566 024b 09       		.uleb128 0x9
 1567 024c 9C050000 		.4byte	.LASF48
 1568 0250 03       		.byte	0x3
 1569 0251 5E01     		.2byte	0x15e
 1570 0253 5D060000 		.4byte	0x65d
 1571 0257 48       		.byte	0x48
 1572 0258 00       		.byte	0
 1573 0259 03       		.uleb128 0x3
 1574 025a 3D040000 		.4byte	.LASF49
 1575 025e 0C       		.byte	0xc
 1576 025f 44       		.byte	0x44
 1577 0260 64020000 		.4byte	0x264
 1578 0264 0A       		.uleb128 0xa
 1579 0265 04       		.byte	0x4
 1580 0266 48010000 		.4byte	0x148
 1581 026a 03       		.uleb128 0x3
 1582 026b 52070000 		.4byte	.LASF50
 1583 026f 0C       		.byte	0xc
 1584 0270 49       		.byte	0x49
 1585 0271 75020000 		.4byte	0x275
 1586 0275 06       		.uleb128 0x6
 1587 0276 14060000 		.4byte	.LASF52
 1588 027a 04       		.byte	0x4
 1589 027b 03       		.byte	0x3
 1590 027c B0       		.byte	0xb0
 1591 027d 8E020000 		.4byte	0x28e
 1592 0281 07       		.uleb128 0x7
 1593 0282 7F050000 		.4byte	.LASF30
 1594 0286 03       		.byte	0x3
 1595 0287 B1       		.byte	0xb1
 1596 0288 64020000 		.4byte	0x264
 1597 028c 00       		.byte	0
 1598 028d 00       		.byte	0
 1599 028e 03       		.uleb128 0x3
 1600 028f AE050000 		.4byte	.LASF53
 1601 0293 0C       		.byte	0xc
 1602 0294 50       		.byte	0x50
 1603 0295 99020000 		.4byte	0x299
 1604 0299 06       		.uleb128 0x6
 1605 029a 62000000 		.4byte	.LASF54
 1606 029e 08       		.byte	0x8
 1607 029f 03       		.byte	0x3
 1608 02a0 B7       		.byte	0xb7
 1609 02a1 BE020000 		.4byte	0x2be
 1610 02a5 07       		.uleb128 0x7
 1611 02a6 7F050000 		.4byte	.LASF30
 1612 02aa 03       		.byte	0x3
 1613 02ab B8       		.byte	0xb8
 1614 02ac 64020000 		.4byte	0x264
 1615 02b0 00       		.byte	0
 1616 02b1 07       		.uleb128 0x7
 1617 02b2 FF040000 		.4byte	.LASF31
 1618 02b6 03       		.byte	0x3
 1619 02b7 B9       		.byte	0xb9
ARM GAS  /tmp/ccBNsr2r.s 			page 30


 1620 02b8 64020000 		.4byte	0x264
 1621 02bc 04       		.byte	0x4
 1622 02bd 00       		.byte	0
 1623 02be 03       		.uleb128 0x3
 1624 02bf 16000000 		.4byte	.LASF55
 1625 02c3 0C       		.byte	0xc
 1626 02c4 57       		.byte	0x57
 1627 02c5 C9020000 		.4byte	0x2c9
 1628 02c9 0B       		.uleb128 0xb
 1629 02ca CC030000 		.4byte	.LASF56
 1630 02ce 1C       		.byte	0x1c
 1631 02cf 03       		.byte	0x3
 1632 02d0 9001     		.2byte	0x190
 1633 02d2 25030000 		.4byte	0x325
 1634 02d6 09       		.uleb128 0x9
 1635 02d7 03060000 		.4byte	.LASF57
 1636 02db 03       		.byte	0x3
 1637 02dc 9101     		.2byte	0x191
 1638 02de 8E020000 		.4byte	0x28e
 1639 02e2 00       		.byte	0
 1640 02e3 09       		.uleb128 0x9
 1641 02e4 71050000 		.4byte	.LASF58
 1642 02e8 03       		.byte	0x3
 1643 02e9 9201     		.2byte	0x192
 1644 02eb 06010000 		.4byte	0x106
 1645 02ef 08       		.byte	0x8
 1646 02f0 09       		.uleb128 0x9
 1647 02f1 94040000 		.4byte	.LASF59
 1648 02f5 03       		.byte	0x3
 1649 02f6 9401     		.2byte	0x194
 1650 02f8 CD040000 		.4byte	0x4cd
 1651 02fc 0C       		.byte	0xc
 1652 02fd 09       		.uleb128 0x9
 1653 02fe BB020000 		.4byte	.LASF60
 1654 0302 03       		.byte	0x3
 1655 0303 9701     		.2byte	0x197
 1656 0305 64020000 		.4byte	0x264
 1657 0309 10       		.byte	0x10
 1658 030a 09       		.uleb128 0x9
 1659 030b B5040000 		.4byte	.LASF61
 1660 030f 03       		.byte	0x3
 1661 0310 9801     		.2byte	0x198
 1662 0312 64020000 		.4byte	0x264
 1663 0316 14       		.byte	0x14
 1664 0317 09       		.uleb128 0x9
 1665 0318 AB040000 		.4byte	.LASF62
 1666 031c 03       		.byte	0x3
 1667 031d 9B01     		.2byte	0x19b
 1668 031f 64020000 		.4byte	0x264
 1669 0323 18       		.byte	0x18
 1670 0324 00       		.byte	0
 1671 0325 03       		.uleb128 0x3
 1672 0326 72060000 		.4byte	.LASF63
 1673 032a 0C       		.byte	0xc
 1674 032b 5C       		.byte	0x5c
 1675 032c 30030000 		.4byte	0x330
 1676 0330 0A       		.uleb128 0xa
ARM GAS  /tmp/ccBNsr2r.s 			page 31


 1677 0331 04       		.byte	0x4
 1678 0332 36030000 		.4byte	0x336
 1679 0336 0C       		.uleb128 0xc
 1680 0337 41030000 		.4byte	0x341
 1681 033b 0D       		.uleb128 0xd
 1682 033c 41030000 		.4byte	0x341
 1683 0340 00       		.byte	0
 1684 0341 0E       		.uleb128 0xe
 1685 0342 04       		.byte	0x4
 1686 0343 03       		.uleb128 0x3
 1687 0344 EF040000 		.4byte	.LASF64
 1688 0348 0C       		.byte	0xc
 1689 0349 61       		.byte	0x61
 1690 034a 4E030000 		.4byte	0x34e
 1691 034e 0B       		.uleb128 0xb
 1692 034f BE050000 		.4byte	.LASF65
 1693 0353 14       		.byte	0x14
 1694 0354 03       		.byte	0x3
 1695 0355 6B01     		.2byte	0x16b
 1696 0357 9D030000 		.4byte	0x39d
 1697 035b 09       		.uleb128 0x9
 1698 035c 36030000 		.4byte	.LASF66
 1699 0360 03       		.byte	0x3
 1700 0361 6C01     		.2byte	0x16c
 1701 0363 89070000 		.4byte	0x789
 1702 0367 00       		.byte	0
 1703 0368 09       		.uleb128 0x9
 1704 0369 CC020000 		.4byte	.LASF67
 1705 036d 03       		.byte	0x3
 1706 036e 6D01     		.2byte	0x16d
 1707 0370 89070000 		.4byte	0x789
 1708 0374 04       		.byte	0x4
 1709 0375 09       		.uleb128 0x9
 1710 0376 0B060000 		.4byte	.LASF68
 1711 037a 03       		.byte	0x3
 1712 037b 6E01     		.2byte	0x16e
 1713 037d 3D010000 		.4byte	0x13d
 1714 0381 08       		.byte	0x8
 1715 0382 09       		.uleb128 0x9
 1716 0383 AA070000 		.4byte	.LASF69
 1717 0387 03       		.byte	0x3
 1718 0388 6F01     		.2byte	0x16f
 1719 038a 25030000 		.4byte	0x325
 1720 038e 0C       		.byte	0xc
 1721 038f 09       		.uleb128 0x9
 1722 0390 C0060000 		.4byte	.LASF70
 1723 0394 03       		.byte	0x3
 1724 0395 7101     		.2byte	0x171
 1725 0397 41030000 		.4byte	0x341
 1726 039b 10       		.byte	0x10
 1727 039c 00       		.byte	0
 1728 039d 03       		.uleb128 0x3
 1729 039e 15010000 		.4byte	.LASF71
 1730 03a2 0C       		.byte	0xc
 1731 03a3 66       		.byte	0x66
 1732 03a4 A8030000 		.4byte	0x3a8
 1733 03a8 0B       		.uleb128 0xb
ARM GAS  /tmp/ccBNsr2r.s 			page 32


 1734 03a9 50040000 		.4byte	.LASF72
 1735 03ad 10       		.byte	0x10
 1736 03ae 03       		.byte	0x3
 1737 03af 7B01     		.2byte	0x17b
 1738 03b1 EA030000 		.4byte	0x3ea
 1739 03b5 09       		.uleb128 0x9
 1740 03b6 36030000 		.4byte	.LASF66
 1741 03ba 03       		.byte	0x3
 1742 03bb 7C01     		.2byte	0x17c
 1743 03bd 89070000 		.4byte	0x789
 1744 03c1 00       		.byte	0
 1745 03c2 09       		.uleb128 0x9
 1746 03c3 CC020000 		.4byte	.LASF67
 1747 03c7 03       		.byte	0x3
 1748 03c8 7E01     		.2byte	0x17e
 1749 03ca 89070000 		.4byte	0x789
 1750 03ce 04       		.byte	0x4
 1751 03cf 09       		.uleb128 0x9
 1752 03d0 0B060000 		.4byte	.LASF68
 1753 03d4 03       		.byte	0x3
 1754 03d5 8001     		.2byte	0x180
 1755 03d7 3D010000 		.4byte	0x13d
 1756 03db 08       		.byte	0x8
 1757 03dc 09       		.uleb128 0x9
 1758 03dd 80040000 		.4byte	.LASF73
 1759 03e1 03       		.byte	0x3
 1760 03e2 8801     		.2byte	0x188
 1761 03e4 3D010000 		.4byte	0x13d
 1762 03e8 0C       		.byte	0xc
 1763 03e9 00       		.byte	0
 1764 03ea 03       		.uleb128 0x3
 1765 03eb 73000000 		.4byte	.LASF74
 1766 03ef 0C       		.byte	0xc
 1767 03f0 6B       		.byte	0x6b
 1768 03f1 F5030000 		.4byte	0x3f5
 1769 03f5 0F       		.uleb128 0xf
 1770 03f6 D9020000 		.4byte	.LASF75
 1771 03fa 1404     		.2byte	0x414
 1772 03fc 03       		.byte	0x3
 1773 03fd A201     		.2byte	0x1a2
 1774 03ff 38040000 		.4byte	0x438
 1775 0403 09       		.uleb128 0x9
 1776 0404 94060000 		.4byte	.LASF76
 1777 0408 03       		.byte	0x3
 1778 0409 AA01     		.2byte	0x1aa
 1779 040b 8F070000 		.4byte	0x78f
 1780 040f 00       		.byte	0
 1781 0410 09       		.uleb128 0x9
 1782 0411 EC060000 		.4byte	.LASF77
 1783 0415 03       		.byte	0x3
 1784 0416 AF01     		.2byte	0x1af
 1785 0418 27010000 		.4byte	0x127
 1786 041c 04       		.byte	0x4
 1787 041d 09       		.uleb128 0x9
 1788 041e 00030000 		.4byte	.LASF78
 1789 0422 03       		.byte	0x3
 1790 0423 B301     		.2byte	0x1b3
ARM GAS  /tmp/ccBNsr2r.s 			page 33


 1791 0425 27010000 		.4byte	0x127
 1792 0429 08       		.byte	0x8
 1793 042a 09       		.uleb128 0x9
 1794 042b 61070000 		.4byte	.LASF79
 1795 042f 03       		.byte	0x3
 1796 0430 B901     		.2byte	0x1b9
 1797 0432 EF050000 		.4byte	0x5ef
 1798 0436 0C       		.byte	0xc
 1799 0437 00       		.byte	0
 1800 0438 03       		.uleb128 0x3
 1801 0439 AD030000 		.4byte	.LASF80
 1802 043d 0C       		.byte	0xc
 1803 043e 70       		.byte	0x70
 1804 043f 43040000 		.4byte	0x443
 1805 0443 0F       		.uleb128 0xf
 1806 0444 B7010000 		.4byte	.LASF81
 1807 0448 D805     		.2byte	0x5d8
 1808 044a 03       		.byte	0x3
 1809 044b C201     		.2byte	0x1c2
 1810 044d B0040000 		.4byte	0x4b0
 1811 0451 09       		.uleb128 0x9
 1812 0452 24070000 		.4byte	.LASF82
 1813 0456 03       		.byte	0x3
 1814 0457 C601     		.2byte	0x1c6
 1815 0459 BE020000 		.4byte	0x2be
 1816 045d 00       		.byte	0
 1817 045e 09       		.uleb128 0x9
 1818 045f 8F010000 		.4byte	.LASF83
 1819 0463 03       		.byte	0x3
 1820 0464 CA01     		.2byte	0x1ca
 1821 0466 9D030000 		.4byte	0x39d
 1822 046a 1C       		.byte	0x1c
 1823 046b 08       		.uleb128 0x8
 1824 046c 64626700 		.ascii	"dbg\000"
 1825 0470 03       		.byte	0x3
 1826 0471 CE01     		.2byte	0x1ce
 1827 0473 EA030000 		.4byte	0x3ea
 1828 0477 2C       		.byte	0x2c
 1829 0478 10       		.uleb128 0x10
 1830 0479 0A010000 		.4byte	.LASF84
 1831 047d 03       		.byte	0x3
 1832 047e D201     		.2byte	0x1d2
 1833 0480 48010000 		.4byte	0x148
 1834 0484 4004     		.2byte	0x440
 1835 0486 11       		.uleb128 0x11
 1836 0487 746D00   		.ascii	"tm\000"
 1837 048a 03       		.byte	0x3
 1838 048b D701     		.2byte	0x1d7
 1839 048d 0F060000 		.4byte	0x60f
 1840 0491 A004     		.2byte	0x4a0
 1841 0493 10       		.uleb128 0x10
 1842 0494 3F000000 		.4byte	.LASF85
 1843 0498 03       		.byte	0x3
 1844 0499 DD01     		.2byte	0x1dd
 1845 049b A1060000 		.4byte	0x6a1
 1846 049f A804     		.2byte	0x4a8
 1847 04a1 10       		.uleb128 0x10
ARM GAS  /tmp/ccBNsr2r.s 			page 34


 1848 04a2 09030000 		.4byte	.LASF86
 1849 04a6 03       		.byte	0x3
 1850 04a7 E301     		.2byte	0x1e3
 1851 04a9 94070000 		.4byte	0x794
 1852 04ad E004     		.2byte	0x4e0
 1853 04af 00       		.byte	0
 1854 04b0 04       		.uleb128 0x4
 1855 04b1 04       		.byte	0x4
 1856 04b2 07       		.byte	0x7
 1857 04b3 34040000 		.4byte	.LASF87
 1858 04b7 03       		.uleb128 0x3
 1859 04b8 C3020000 		.4byte	.LASF88
 1860 04bc 0D       		.byte	0xd
 1861 04bd 65       		.byte	0x65
 1862 04be 41030000 		.4byte	0x341
 1863 04c2 03       		.uleb128 0x3
 1864 04c3 F0030000 		.4byte	.LASF89
 1865 04c7 0D       		.byte	0xd
 1866 04c8 6D       		.byte	0x6d
 1867 04c9 BF000000 		.4byte	0xbf
 1868 04cd 06       		.uleb128 0x6
 1869 04ce B0060000 		.4byte	.LASF90
 1870 04d2 04       		.byte	0x4
 1871 04d3 0D       		.byte	0xd
 1872 04d4 89       		.byte	0x89
 1873 04d5 E6040000 		.4byte	0x4e6
 1874 04d9 12       		.uleb128 0x12
 1875 04da 72313300 		.ascii	"r13\000"
 1876 04de 0D       		.byte	0xd
 1877 04df 8A       		.byte	0x8a
 1878 04e0 61050000 		.4byte	0x561
 1879 04e4 00       		.byte	0
 1880 04e5 00       		.byte	0
 1881 04e6 06       		.uleb128 0x6
 1882 04e7 56000000 		.4byte	.LASF91
 1883 04eb 24       		.byte	0x24
 1884 04ec 01       		.byte	0x1
 1885 04ed FD       		.byte	0xfd
 1886 04ee 61050000 		.4byte	0x561
 1887 04f2 08       		.uleb128 0x8
 1888 04f3 723400   		.ascii	"r4\000"
 1889 04f6 01       		.byte	0x1
 1890 04f7 1001     		.2byte	0x110
 1891 04f9 B7040000 		.4byte	0x4b7
 1892 04fd 00       		.byte	0
 1893 04fe 08       		.uleb128 0x8
 1894 04ff 723500   		.ascii	"r5\000"
 1895 0502 01       		.byte	0x1
 1896 0503 1101     		.2byte	0x111
 1897 0505 B7040000 		.4byte	0x4b7
 1898 0509 04       		.byte	0x4
 1899 050a 08       		.uleb128 0x8
 1900 050b 723600   		.ascii	"r6\000"
 1901 050e 01       		.byte	0x1
 1902 050f 1201     		.2byte	0x112
 1903 0511 B7040000 		.4byte	0x4b7
 1904 0515 08       		.byte	0x8
ARM GAS  /tmp/ccBNsr2r.s 			page 35


 1905 0516 08       		.uleb128 0x8
 1906 0517 723700   		.ascii	"r7\000"
 1907 051a 01       		.byte	0x1
 1908 051b 1301     		.2byte	0x113
 1909 051d B7040000 		.4byte	0x4b7
 1910 0521 0C       		.byte	0xc
 1911 0522 08       		.uleb128 0x8
 1912 0523 723800   		.ascii	"r8\000"
 1913 0526 01       		.byte	0x1
 1914 0527 1401     		.2byte	0x114
 1915 0529 B7040000 		.4byte	0x4b7
 1916 052d 10       		.byte	0x10
 1917 052e 08       		.uleb128 0x8
 1918 052f 723900   		.ascii	"r9\000"
 1919 0532 01       		.byte	0x1
 1920 0533 1501     		.2byte	0x115
 1921 0535 B7040000 		.4byte	0x4b7
 1922 0539 14       		.byte	0x14
 1923 053a 08       		.uleb128 0x8
 1924 053b 72313000 		.ascii	"r10\000"
 1925 053f 01       		.byte	0x1
 1926 0540 1601     		.2byte	0x116
 1927 0542 B7040000 		.4byte	0x4b7
 1928 0546 18       		.byte	0x18
 1929 0547 08       		.uleb128 0x8
 1930 0548 72313100 		.ascii	"r11\000"
 1931 054c 01       		.byte	0x1
 1932 054d 1701     		.2byte	0x117
 1933 054f B7040000 		.4byte	0x4b7
 1934 0553 1C       		.byte	0x1c
 1935 0554 08       		.uleb128 0x8
 1936 0555 6C7200   		.ascii	"lr\000"
 1937 0558 01       		.byte	0x1
 1938 0559 1801     		.2byte	0x118
 1939 055b B7040000 		.4byte	0x4b7
 1940 055f 20       		.byte	0x20
 1941 0560 00       		.byte	0
 1942 0561 0A       		.uleb128 0xa
 1943 0562 04       		.byte	0x4
 1944 0563 E6040000 		.4byte	0x4e6
 1945 0567 13       		.uleb128 0x13
 1946 0568 10       		.byte	0x10
 1947 0569 0E       		.byte	0xe
 1948 056a 51       		.byte	0x51
 1949 056b A0050000 		.4byte	0x5a0
 1950 056f 07       		.uleb128 0x7
 1951 0570 77010000 		.4byte	.LASF92
 1952 0574 0E       		.byte	0xe
 1953 0575 55       		.byte	0x55
 1954 0576 3D010000 		.4byte	0x13d
 1955 057a 00       		.byte	0
 1956 057b 07       		.uleb128 0x7
 1957 057c DC010000 		.4byte	.LASF93
 1958 0580 0E       		.byte	0xe
 1959 0581 59       		.byte	0x59
 1960 0582 64020000 		.4byte	0x264
 1961 0586 04       		.byte	0x4
ARM GAS  /tmp/ccBNsr2r.s 			page 36


 1962 0587 07       		.uleb128 0x7
 1963 0588 9A070000 		.4byte	.LASF94
 1964 058c 0E       		.byte	0xe
 1965 058d 5D       		.byte	0x5d
 1966 058e 41030000 		.4byte	0x341
 1967 0592 08       		.byte	0x8
 1968 0593 07       		.uleb128 0x7
 1969 0594 F8000000 		.4byte	.LASF95
 1970 0598 0E       		.byte	0xe
 1971 0599 61       		.byte	0x61
 1972 059a 9E000000 		.4byte	0x9e
 1973 059e 0C       		.byte	0xc
 1974 059f 00       		.byte	0
 1975 05a0 03       		.uleb128 0x3
 1976 05a1 71040000 		.4byte	.LASF96
 1977 05a5 0E       		.byte	0xe
 1978 05a6 62       		.byte	0x62
 1979 05a7 67050000 		.4byte	0x567
 1980 05ab 14       		.uleb128 0x14
 1981 05ac 0804     		.2byte	0x408
 1982 05ae 0E       		.byte	0xe
 1983 05af 67       		.byte	0x67
 1984 05b0 D9050000 		.4byte	0x5d9
 1985 05b4 07       		.uleb128 0x7
 1986 05b5 B3020000 		.4byte	.LASF97
 1987 05b9 0E       		.byte	0xe
 1988 05ba 6B       		.byte	0x6b
 1989 05bb 33000000 		.4byte	0x33
 1990 05bf 00       		.byte	0
 1991 05c0 07       		.uleb128 0x7
 1992 05c1 0F000000 		.4byte	.LASF98
 1993 05c5 0E       		.byte	0xe
 1994 05c6 6F       		.byte	0x6f
 1995 05c7 D9050000 		.4byte	0x5d9
 1996 05cb 04       		.byte	0x4
 1997 05cc 07       		.uleb128 0x7
 1998 05cd DB040000 		.4byte	.LASF99
 1999 05d1 0E       		.byte	0xe
 2000 05d2 73       		.byte	0x73
 2001 05d3 DF050000 		.4byte	0x5df
 2002 05d7 08       		.byte	0x8
 2003 05d8 00       		.byte	0
 2004 05d9 0A       		.uleb128 0xa
 2005 05da 04       		.byte	0x4
 2006 05db A0050000 		.4byte	0x5a0
 2007 05df 15       		.uleb128 0x15
 2008 05e0 A0050000 		.4byte	0x5a0
 2009 05e4 EF050000 		.4byte	0x5ef
 2010 05e8 16       		.uleb128 0x16
 2011 05e9 B0040000 		.4byte	0x4b0
 2012 05ed 3F       		.byte	0x3f
 2013 05ee 00       		.byte	0
 2014 05ef 03       		.uleb128 0x3
 2015 05f0 E6000000 		.4byte	.LASF100
 2016 05f4 0E       		.byte	0xe
 2017 05f5 74       		.byte	0x74
 2018 05f6 AB050000 		.4byte	0x5ab
ARM GAS  /tmp/ccBNsr2r.s 			page 37


 2019 05fa 13       		.uleb128 0x13
 2020 05fb 04       		.byte	0x4
 2021 05fc 0F       		.byte	0xf
 2022 05fd 38       		.byte	0x38
 2023 05fe 0F060000 		.4byte	0x60f
 2024 0602 07       		.uleb128 0x7
 2025 0603 9E060000 		.4byte	.LASF101
 2026 0607 0F       		.byte	0xf
 2027 0608 3C       		.byte	0x3c
 2028 0609 CF000000 		.4byte	0xcf
 2029 060d 00       		.byte	0
 2030 060e 00       		.byte	0
 2031 060f 03       		.uleb128 0x3
 2032 0610 9A040000 		.4byte	.LASF102
 2033 0614 0F       		.byte	0xf
 2034 0615 3D       		.byte	0x3d
 2035 0616 FA050000 		.4byte	0x5fa
 2036 061a 13       		.uleb128 0x13
 2037 061b 18       		.byte	0x18
 2038 061c 0F       		.byte	0xf
 2039 061d 48       		.byte	0x48
 2040 061e 5D060000 		.4byte	0x65d
 2041 0622 07       		.uleb128 0x7
 2042 0623 51060000 		.4byte	.LASF103
 2043 0627 0F       		.byte	0xf
 2044 0628 49       		.byte	0x49
 2045 0629 CF000000 		.4byte	0xcf
 2046 062d 00       		.byte	0
 2047 062e 07       		.uleb128 0x7
 2048 062f A7000000 		.4byte	.LASF104
 2049 0633 0F       		.byte	0xf
 2050 0634 4A       		.byte	0x4a
 2051 0635 CF000000 		.4byte	0xcf
 2052 0639 04       		.byte	0x4
 2053 063a 07       		.uleb128 0x7
 2054 063b A1030000 		.4byte	.LASF105
 2055 063f 0F       		.byte	0xf
 2056 0640 4B       		.byte	0x4b
 2057 0641 CF000000 		.4byte	0xcf
 2058 0645 08       		.byte	0x8
 2059 0646 12       		.uleb128 0x12
 2060 0647 6E00     		.ascii	"n\000"
 2061 0649 0F       		.byte	0xf
 2062 064a 4C       		.byte	0x4c
 2063 064b 32010000 		.4byte	0x132
 2064 064f 0C       		.byte	0xc
 2065 0650 07       		.uleb128 0x7
 2066 0651 C8040000 		.4byte	.LASF106
 2067 0655 0F       		.byte	0xf
 2068 0656 4D       		.byte	0x4d
 2069 0657 DA000000 		.4byte	0xda
 2070 065b 10       		.byte	0x10
 2071 065c 00       		.byte	0
 2072 065d 03       		.uleb128 0x3
 2073 065e AD000000 		.4byte	.LASF107
 2074 0662 0F       		.byte	0xf
 2075 0663 4E       		.byte	0x4e
ARM GAS  /tmp/ccBNsr2r.s 			page 38


 2076 0664 1A060000 		.4byte	0x61a
 2077 0668 13       		.uleb128 0x13
 2078 0669 38       		.byte	0x38
 2079 066a 10       		.byte	0x10
 2080 066b 38       		.byte	0x38
 2081 066c A1060000 		.4byte	0x6a1
 2082 0670 07       		.uleb128 0x7
 2083 0671 63030000 		.4byte	.LASF108
 2084 0675 10       		.byte	0x10
 2085 0676 39       		.byte	0x39
 2086 0677 32010000 		.4byte	0x132
 2087 067b 00       		.byte	0
 2088 067c 07       		.uleb128 0x7
 2089 067d 22050000 		.4byte	.LASF109
 2090 0681 10       		.byte	0x10
 2091 0682 3A       		.byte	0x3a
 2092 0683 32010000 		.4byte	0x132
 2093 0687 04       		.byte	0x4
 2094 0688 07       		.uleb128 0x7
 2095 0689 87070000 		.4byte	.LASF110
 2096 068d 10       		.byte	0x10
 2097 068e 3B       		.byte	0x3b
 2098 068f 5D060000 		.4byte	0x65d
 2099 0693 08       		.byte	0x8
 2100 0694 07       		.uleb128 0x7
 2101 0695 C1030000 		.4byte	.LASF111
 2102 0699 10       		.byte	0x10
 2103 069a 3D       		.byte	0x3d
 2104 069b 5D060000 		.4byte	0x65d
 2105 069f 20       		.byte	0x20
 2106 06a0 00       		.byte	0
 2107 06a1 03       		.uleb128 0x3
 2108 06a2 82030000 		.4byte	.LASF112
 2109 06a6 10       		.byte	0x10
 2110 06a7 3F       		.byte	0x3f
 2111 06a8 68060000 		.4byte	0x668
 2112 06ac 17       		.uleb128 0x17
 2113 06ad 04       		.byte	0x4
 2114 06ae 03       		.byte	0x3
 2115 06af FA       		.byte	0xfa
 2116 06b0 09070000 		.4byte	0x709
 2117 06b4 18       		.uleb128 0x18
 2118 06b5 2F000000 		.4byte	.LASF113
 2119 06b9 03       		.byte	0x3
 2120 06ba 0101     		.2byte	0x101
 2121 06bc 11010000 		.4byte	0x111
 2122 06c0 18       		.uleb128 0x18
 2123 06c1 01010000 		.4byte	.LASF114
 2124 06c5 03       		.byte	0x3
 2125 06c6 0801     		.2byte	0x108
 2126 06c8 11010000 		.4byte	0x111
 2127 06cc 18       		.uleb128 0x18
 2128 06cd 32070000 		.4byte	.LASF115
 2129 06d1 03       		.byte	0x3
 2130 06d2 0F01     		.2byte	0x10f
 2131 06d4 41030000 		.4byte	0x341
 2132 06d8 18       		.uleb128 0x18
ARM GAS  /tmp/ccBNsr2r.s 			page 39


 2133 06d9 B1010000 		.4byte	.LASF116
 2134 06dd 03       		.byte	0x3
 2135 06de 1601     		.2byte	0x116
 2136 06e0 09070000 		.4byte	0x709
 2137 06e4 18       		.uleb128 0x18
 2138 06e5 49030000 		.4byte	.LASF117
 2139 06e9 03       		.byte	0x3
 2140 06ea 1E01     		.2byte	0x11e
 2141 06ec 34070000 		.4byte	0x734
 2142 06f0 18       		.uleb128 0x18
 2143 06f1 FC050000 		.4byte	.LASF118
 2144 06f5 03       		.byte	0x3
 2145 06f6 2701     		.2byte	0x127
 2146 06f8 6B070000 		.4byte	0x76b
 2147 06fc 18       		.uleb128 0x18
 2148 06fd 78050000 		.4byte	.LASF119
 2149 0701 03       		.byte	0x3
 2150 0702 2F01     		.2byte	0x12f
 2151 0704 1C010000 		.4byte	0x11c
 2152 0708 00       		.byte	0
 2153 0709 0A       		.uleb128 0xa
 2154 070a 04       		.byte	0x4
 2155 070b 59020000 		.4byte	0x259
 2156 070f 06       		.uleb128 0x6
 2157 0710 CF050000 		.4byte	.LASF120
 2158 0714 0C       		.byte	0xc
 2159 0715 11       		.byte	0x11
 2160 0716 34       		.byte	0x34
 2161 0717 34070000 		.4byte	0x734
 2162 071b 07       		.uleb128 0x7
 2163 071c AB020000 		.4byte	.LASF121
 2164 0720 11       		.byte	0x11
 2165 0721 35       		.byte	0x35
 2166 0722 8E020000 		.4byte	0x28e
 2167 0726 00       		.byte	0
 2168 0727 07       		.uleb128 0x7
 2169 0728 69030000 		.4byte	.LASF122
 2170 072c 11       		.byte	0x11
 2171 072d 37       		.byte	0x37
 2172 072e 27010000 		.4byte	0x127
 2173 0732 08       		.byte	0x8
 2174 0733 00       		.byte	0
 2175 0734 0A       		.uleb128 0xa
 2176 0735 04       		.byte	0x4
 2177 0736 0F070000 		.4byte	0x70f
 2178 073a 06       		.uleb128 0x6
 2179 073b DC060000 		.4byte	.LASF123
 2180 073f 10       		.byte	0x10
 2181 0740 12       		.byte	0x12
 2182 0741 39       		.byte	0x39
 2183 0742 6B070000 		.4byte	0x76b
 2184 0746 07       		.uleb128 0x7
 2185 0747 87010000 		.4byte	.LASF124
 2186 074b 12       		.byte	0x12
 2187 074c 3A       		.byte	0x3a
 2188 074d 8E020000 		.4byte	0x28e
 2189 0751 00       		.byte	0
ARM GAS  /tmp/ccBNsr2r.s 			page 40


 2190 0752 07       		.uleb128 0x7
 2191 0753 92070000 		.4byte	.LASF125
 2192 0757 12       		.byte	0x12
 2193 0758 3C       		.byte	0x3c
 2194 0759 64020000 		.4byte	0x264
 2195 075d 08       		.byte	0x8
 2196 075e 07       		.uleb128 0x7
 2197 075f 56060000 		.4byte	.LASF126
 2198 0763 12       		.byte	0x12
 2199 0764 3E       		.byte	0x3e
 2200 0765 AF070000 		.4byte	0x7af
 2201 0769 0C       		.byte	0xc
 2202 076a 00       		.byte	0
 2203 076b 0A       		.uleb128 0xa
 2204 076c 04       		.byte	0x4
 2205 076d 3A070000 		.4byte	0x73a
 2206 0771 0A       		.uleb128 0xa
 2207 0772 04       		.byte	0x4
 2208 0773 77070000 		.4byte	0x777
 2209 0777 19       		.uleb128 0x19
 2210 0778 7C070000 		.4byte	0x77c
 2211 077c 04       		.uleb128 0x4
 2212 077d 01       		.byte	0x1
 2213 077e 08       		.byte	0x8
 2214 077f 36060000 		.4byte	.LASF127
 2215 0783 0A       		.uleb128 0xa
 2216 0784 04       		.byte	0x4
 2217 0785 C2040000 		.4byte	0x4c2
 2218 0789 0A       		.uleb128 0xa
 2219 078a 04       		.byte	0x4
 2220 078b 43030000 		.4byte	0x343
 2221 078f 05       		.uleb128 0x5
 2222 0790 71070000 		.4byte	0x771
 2223 0794 15       		.uleb128 0x15
 2224 0795 C2040000 		.4byte	0x4c2
 2225 0799 A4070000 		.4byte	0x7a4
 2226 079d 16       		.uleb128 0x16
 2227 079e B0040000 		.4byte	0x4b0
 2228 07a2 1E       		.byte	0x1e
 2229 07a3 00       		.byte	0
 2230 07a4 03       		.uleb128 0x3
 2231 07a5 F2020000 		.4byte	.LASF128
 2232 07a9 12       		.byte	0x12
 2233 07aa 34       		.byte	0x34
 2234 07ab 3A070000 		.4byte	0x73a
 2235 07af 0A       		.uleb128 0xa
 2236 07b0 04       		.byte	0x4
 2237 07b1 A4070000 		.4byte	0x7a4
 2238 07b5 03       		.uleb128 0x3
 2239 07b6 38010000 		.4byte	.LASF129
 2240 07ba 06       		.byte	0x6
 2241 07bb 3F       		.byte	0x3f
 2242 07bc C0070000 		.4byte	0x7c0
 2243 07c0 06       		.uleb128 0x6
 2244 07c1 2B040000 		.4byte	.LASF130
 2245 07c5 24       		.byte	0x24
 2246 07c6 06       		.byte	0x6
ARM GAS  /tmp/ccBNsr2r.s 			page 41


 2247 07c7 4D       		.byte	0x4d
 2248 07c8 2D080000 		.4byte	0x82d
 2249 07cc 07       		.uleb128 0x7
 2250 07cd 53010000 		.4byte	.LASF131
 2251 07d1 06       		.byte	0x6
 2252 07d2 4E       		.byte	0x4e
 2253 07d3 8E020000 		.4byte	0x28e
 2254 07d7 00       		.byte	0
 2255 07d8 07       		.uleb128 0x7
 2256 07d9 67040000 		.4byte	.LASF132
 2257 07dd 06       		.byte	0x6
 2258 07de 4F       		.byte	0x4f
 2259 07df 4F080000 		.4byte	0x84f
 2260 07e3 08       		.byte	0x8
 2261 07e4 07       		.uleb128 0x7
 2262 07e5 E2010000 		.4byte	.LASF133
 2263 07e9 06       		.byte	0x6
 2264 07ea 50       		.byte	0x50
 2265 07eb 54080000 		.4byte	0x854
 2266 07ef 0C       		.byte	0xc
 2267 07f0 07       		.uleb128 0x7
 2268 07f1 D6060000 		.4byte	.LASF134
 2269 07f5 06       		.byte	0x6
 2270 07f6 51       		.byte	0x51
 2271 07f7 54080000 		.4byte	0x854
 2272 07fb 10       		.byte	0x10
 2273 07fc 07       		.uleb128 0x7
 2274 07fd EB010000 		.4byte	.LASF135
 2275 0801 06       		.byte	0x6
 2276 0802 53       		.byte	0x53
 2277 0803 54080000 		.4byte	0x854
 2278 0807 14       		.byte	0x14
 2279 0808 07       		.uleb128 0x7
 2280 0809 1A050000 		.4byte	.LASF136
 2281 080d 06       		.byte	0x6
 2282 080e 54       		.byte	0x54
 2283 080f 54080000 		.4byte	0x854
 2284 0813 18       		.byte	0x18
 2285 0814 07       		.uleb128 0x7
 2286 0815 1B070000 		.4byte	.LASF137
 2287 0819 06       		.byte	0x6
 2288 081a 55       		.byte	0x55
 2289 081b 2D080000 		.4byte	0x82d
 2290 081f 1C       		.byte	0x1c
 2291 0820 07       		.uleb128 0x7
 2292 0821 80070000 		.4byte	.LASF138
 2293 0825 06       		.byte	0x6
 2294 0826 56       		.byte	0x56
 2295 0827 41030000 		.4byte	0x341
 2296 082b 20       		.byte	0x20
 2297 082c 00       		.byte	0
 2298 082d 03       		.uleb128 0x3
 2299 082e E5040000 		.4byte	.LASF139
 2300 0832 06       		.byte	0x6
 2301 0833 42       		.byte	0x42
 2302 0834 38080000 		.4byte	0x838
 2303 0838 0A       		.uleb128 0xa
ARM GAS  /tmp/ccBNsr2r.s 			page 42


 2304 0839 04       		.byte	0x4
 2305 083a 3E080000 		.4byte	0x83e
 2306 083e 0C       		.uleb128 0xc
 2307 083f 49080000 		.4byte	0x849
 2308 0843 0D       		.uleb128 0xd
 2309 0844 49080000 		.4byte	0x849
 2310 0848 00       		.byte	0
 2311 0849 0A       		.uleb128 0xa
 2312 084a 04       		.byte	0x4
 2313 084b B5070000 		.4byte	0x7b5
 2314 084f 05       		.uleb128 0x5
 2315 0850 28000000 		.4byte	0x28
 2316 0854 0A       		.uleb128 0xa
 2317 0855 04       		.byte	0x4
 2318 0856 9E000000 		.4byte	0x9e
 2319 085a 03       		.uleb128 0x3
 2320 085b 47050000 		.4byte	.LASF140
 2321 085f 06       		.byte	0x6
 2322 0860 64       		.byte	0x64
 2323 0861 B5070000 		.4byte	0x7b5
 2324 0865 03       		.uleb128 0x3
 2325 0866 A2010000 		.4byte	.LASF141
 2326 086a 06       		.byte	0x6
 2327 086b 71       		.byte	0x71
 2328 086c B5070000 		.4byte	0x7b5
 2329 0870 0A       		.uleb128 0xa
 2330 0871 04       		.byte	0x4
 2331 0872 76080000 		.4byte	0x876
 2332 0876 19       		.uleb128 0x19
 2333 0877 9E000000 		.4byte	0x9e
 2334 087b 1A       		.uleb128 0x1a
 2335 087c 86060000 		.4byte	.LASF171
 2336 0880 02       		.byte	0x2
 2337 0881 2202     		.2byte	0x222
 2338 0883 03       		.byte	0x3
 2339 0884 95080000 		.4byte	0x895
 2340 0888 1B       		.uleb128 0x1b
 2341 0889 FA020000 		.4byte	.LASF172
 2342 088d 02       		.byte	0x2
 2343 088e 2202     		.2byte	0x222
 2344 0890 B4000000 		.4byte	0xb4
 2345 0894 00       		.byte	0
 2346 0895 1C       		.uleb128 0x1c
 2347 0896 9D000000 		.4byte	.LASF142
 2348 089a 01       		.byte	0x1
 2349 089b C801     		.2byte	0x1c8
 2350 089d 00000000 		.4byte	.LFB127
 2351 08a1 10000000 		.4byte	.LFE127-.LFB127
 2352 08a5 01       		.uleb128 0x1
 2353 08a6 9C       		.byte	0x9c
 2354 08a7 C5080000 		.4byte	0x8c5
 2355 08ab 1D       		.uleb128 0x1d
 2356 08ac 7B080000 		.4byte	0x87b
 2357 08b0 06000000 		.4byte	.LBB6
 2358 08b4 06000000 		.4byte	.LBE6-.LBB6
 2359 08b8 01       		.byte	0x1
 2360 08b9 CB01     		.2byte	0x1cb
ARM GAS  /tmp/ccBNsr2r.s 			page 43


 2361 08bb 1E       		.uleb128 0x1e
 2362 08bc 88080000 		.4byte	0x888
 2363 08c0 02       		.uleb128 0x2
 2364 08c1 91       		.byte	0x91
 2365 08c2 7C       		.sleb128 -4
 2366 08c3 00       		.byte	0
 2367 08c4 00       		.byte	0
 2368 08c5 1C       		.uleb128 0x1c
 2369 08c6 96010000 		.4byte	.LASF143
 2370 08ca 01       		.byte	0x1
 2371 08cb D601     		.2byte	0x1d6
 2372 08cd 00000000 		.4byte	.LFB128
 2373 08d1 10000000 		.4byte	.LFE128-.LFB128
 2374 08d5 01       		.uleb128 0x1
 2375 08d6 9C       		.byte	0x9c
 2376 08d7 F5080000 		.4byte	0x8f5
 2377 08db 1D       		.uleb128 0x1d
 2378 08dc 7B080000 		.4byte	0x87b
 2379 08e0 06000000 		.4byte	.LBB8
 2380 08e4 06000000 		.4byte	.LBE8-.LBB8
 2381 08e8 01       		.byte	0x1
 2382 08e9 D901     		.2byte	0x1d9
 2383 08eb 1E       		.uleb128 0x1e
 2384 08ec 88080000 		.4byte	0x888
 2385 08f0 02       		.uleb128 0x2
 2386 08f1 91       		.byte	0x91
 2387 08f2 7C       		.sleb128 -4
 2388 08f3 00       		.byte	0
 2389 08f4 00       		.byte	0
 2390 08f5 1C       		.uleb128 0x1c
 2391 08f6 92000000 		.4byte	.LASF144
 2392 08fa 03       		.byte	0x3
 2393 08fb 5A02     		.2byte	0x25a
 2394 08fd 00000000 		.4byte	.LFB150
 2395 0901 14000000 		.4byte	.LFE150-.LFB150
 2396 0905 01       		.uleb128 0x1
 2397 0906 9C       		.byte	0x9c
 2398 0907 1B090000 		.4byte	0x91b
 2399 090b 1F       		.uleb128 0x1f
 2400 090c 74717000 		.ascii	"tqp\000"
 2401 0910 03       		.byte	0x3
 2402 0911 5A02     		.2byte	0x25a
 2403 0913 1B090000 		.4byte	0x91b
 2404 0917 02       		.uleb128 0x2
 2405 0918 91       		.byte	0x91
 2406 0919 7C       		.sleb128 -4
 2407 091a 00       		.byte	0
 2408 091b 0A       		.uleb128 0xa
 2409 091c 04       		.byte	0x4
 2410 091d 8E020000 		.4byte	0x28e
 2411 0921 20       		.uleb128 0x20
 2412 0922 A4050000 		.4byte	.LASF173
 2413 0926 04       		.byte	0x4
 2414 0927 5A01     		.2byte	0x15a
 2415 0929 00000000 		.4byte	.LFB167
 2416 092d 10000000 		.4byte	.LFE167-.LFB167
 2417 0931 01       		.uleb128 0x1
ARM GAS  /tmp/ccBNsr2r.s 			page 44


 2418 0932 9C       		.byte	0x9c
 2419 0933 21       		.uleb128 0x21
 2420 0934 6E070000 		.4byte	.LASF145
 2421 0938 04       		.byte	0x4
 2422 0939 6601     		.2byte	0x166
 2423 093b 00000000 		.4byte	.LFB168
 2424 093f 38000000 		.4byte	.LFE168-.LFB168
 2425 0943 01       		.uleb128 0x1
 2426 0944 9C       		.byte	0x9c
 2427 0945 59090000 		.4byte	0x959
 2428 0949 22       		.uleb128 0x22
 2429 094a 93050000 		.4byte	.LASF161
 2430 094e 69090000 		.4byte	0x969
 2431 0952 05       		.uleb128 0x5
 2432 0953 03       		.byte	0x3
 2433 0954 00000000 		.4byte	__func__.5925
 2434 0958 00       		.byte	0
 2435 0959 15       		.uleb128 0x15
 2436 095a 7C070000 		.4byte	0x77c
 2437 095e 69090000 		.4byte	0x969
 2438 0962 16       		.uleb128 0x16
 2439 0963 B0040000 		.4byte	0x4b0
 2440 0967 0B       		.byte	0xb
 2441 0968 00       		.byte	0
 2442 0969 19       		.uleb128 0x19
 2443 096a 59090000 		.4byte	0x959
 2444 096e 21       		.uleb128 0x21
 2445 096f 0C040000 		.4byte	.LASF146
 2446 0973 05       		.byte	0x5
 2447 0974 1601     		.2byte	0x116
 2448 0976 00000000 		.4byte	.LFB194
 2449 097a 12000000 		.4byte	.LFE194-.LFB194
 2450 097e 01       		.uleb128 0x1
 2451 097f 9C       		.byte	0x9c
 2452 0980 94090000 		.4byte	0x994
 2453 0984 1F       		.uleb128 0x1f
 2454 0985 74717000 		.ascii	"tqp\000"
 2455 0989 05       		.byte	0x5
 2456 098a 1601     		.2byte	0x116
 2457 098c 1B090000 		.4byte	0x91b
 2458 0990 02       		.uleb128 0x2
 2459 0991 91       		.byte	0x91
 2460 0992 74       		.sleb128 -12
 2461 0993 00       		.byte	0
 2462 0994 23       		.uleb128 0x23
 2463 0995 3B060000 		.4byte	.LASF148
 2464 0999 06       		.byte	0x6
 2465 099a 2F01     		.2byte	0x12f
 2466 099c BE090000 		.4byte	0x9be
 2467 09a0 00000000 		.4byte	.LFB232
 2468 09a4 20000000 		.4byte	.LFE232-.LFB232
 2469 09a8 01       		.uleb128 0x1
 2470 09a9 9C       		.byte	0x9c
 2471 09aa BE090000 		.4byte	0x9be
 2472 09ae 1F       		.uleb128 0x1f
 2473 09af 69717000 		.ascii	"iqp\000"
 2474 09b3 06       		.byte	0x6
ARM GAS  /tmp/ccBNsr2r.s 			page 45


 2475 09b4 2F01     		.2byte	0x12f
 2476 09b6 C5090000 		.4byte	0x9c5
 2477 09ba 02       		.uleb128 0x2
 2478 09bb 91       		.byte	0x91
 2479 09bc 74       		.sleb128 -12
 2480 09bd 00       		.byte	0
 2481 09be 04       		.uleb128 0x4
 2482 09bf 01       		.byte	0x1
 2483 09c0 02       		.byte	0x2
 2484 09c1 2B050000 		.4byte	.LASF147
 2485 09c5 0A       		.uleb128 0xa
 2486 09c6 04       		.byte	0x4
 2487 09c7 5A080000 		.4byte	0x85a
 2488 09cb 23       		.uleb128 0x23
 2489 09cc E7050000 		.4byte	.LASF149
 2490 09d0 06       		.byte	0x6
 2491 09d1 4001     		.2byte	0x140
 2492 09d3 BE090000 		.4byte	0x9be
 2493 09d7 00000000 		.4byte	.LFB233
 2494 09db 32000000 		.4byte	.LFE233-.LFB233
 2495 09df 01       		.uleb128 0x1
 2496 09e0 9C       		.byte	0x9c
 2497 09e1 F5090000 		.4byte	0x9f5
 2498 09e5 1F       		.uleb128 0x1f
 2499 09e6 69717000 		.ascii	"iqp\000"
 2500 09ea 06       		.byte	0x6
 2501 09eb 4001     		.2byte	0x140
 2502 09ed C5090000 		.4byte	0x9c5
 2503 09f1 02       		.uleb128 0x2
 2504 09f2 91       		.byte	0x91
 2505 09f3 74       		.sleb128 -12
 2506 09f4 00       		.byte	0
 2507 09f5 23       		.uleb128 0x23
 2508 09f6 45070000 		.4byte	.LASF150
 2509 09fa 06       		.byte	0x6
 2510 09fb 8201     		.2byte	0x182
 2511 09fd BE090000 		.4byte	0x9be
 2512 0a01 00000000 		.4byte	.LFB237
 2513 0a05 32000000 		.4byte	.LFE237-.LFB237
 2514 0a09 01       		.uleb128 0x1
 2515 0a0a 9C       		.byte	0x9c
 2516 0a0b 1F0A0000 		.4byte	0xa1f
 2517 0a0f 1F       		.uleb128 0x1f
 2518 0a10 6F717000 		.ascii	"oqp\000"
 2519 0a14 06       		.byte	0x6
 2520 0a15 8201     		.2byte	0x182
 2521 0a17 1F0A0000 		.4byte	0xa1f
 2522 0a1b 02       		.uleb128 0x2
 2523 0a1c 91       		.byte	0x91
 2524 0a1d 74       		.sleb128 -12
 2525 0a1e 00       		.byte	0
 2526 0a1f 0A       		.uleb128 0xa
 2527 0a20 04       		.byte	0x4
 2528 0a21 65080000 		.4byte	0x865
 2529 0a25 23       		.uleb128 0x23
 2530 0a26 06050000 		.4byte	.LASF151
 2531 0a2a 06       		.byte	0x6
ARM GAS  /tmp/ccBNsr2r.s 			page 46


 2532 0a2b 9301     		.2byte	0x193
 2533 0a2d BE090000 		.4byte	0x9be
 2534 0a31 00000000 		.4byte	.LFB238
 2535 0a35 20000000 		.4byte	.LFE238-.LFB238
 2536 0a39 01       		.uleb128 0x1
 2537 0a3a 9C       		.byte	0x9c
 2538 0a3b 4F0A0000 		.4byte	0xa4f
 2539 0a3f 1F       		.uleb128 0x1f
 2540 0a40 6F717000 		.ascii	"oqp\000"
 2541 0a44 06       		.byte	0x6
 2542 0a45 9301     		.2byte	0x193
 2543 0a47 1F0A0000 		.4byte	0xa1f
 2544 0a4b 02       		.uleb128 0x2
 2545 0a4c 91       		.byte	0x91
 2546 0a4d 74       		.sleb128 -12
 2547 0a4e 00       		.byte	0
 2548 0a4f 24       		.uleb128 0x24
 2549 0a50 C0000000 		.4byte	.LASF155
 2550 0a54 07       		.byte	0x7
 2551 0a55 57       		.byte	0x57
 2552 0a56 00000000 		.4byte	.LFB240
 2553 0a5a 48000000 		.4byte	.LFE240-.LFB240
 2554 0a5e 01       		.uleb128 0x1
 2555 0a5f 9C       		.byte	0x9c
 2556 0a60 AA0A0000 		.4byte	0xaaa
 2557 0a64 25       		.uleb128 0x25
 2558 0a65 69717000 		.ascii	"iqp\000"
 2559 0a69 07       		.byte	0x7
 2560 0a6a 57       		.byte	0x57
 2561 0a6b C5090000 		.4byte	0x9c5
 2562 0a6f 02       		.uleb128 0x2
 2563 0a70 91       		.byte	0x91
 2564 0a71 74       		.sleb128 -12
 2565 0a72 25       		.uleb128 0x25
 2566 0a73 627000   		.ascii	"bp\000"
 2567 0a76 07       		.byte	0x7
 2568 0a77 57       		.byte	0x57
 2569 0a78 54080000 		.4byte	0x854
 2570 0a7c 02       		.uleb128 0x2
 2571 0a7d 91       		.byte	0x91
 2572 0a7e 70       		.sleb128 -16
 2573 0a7f 26       		.uleb128 0x26
 2574 0a80 40070000 		.4byte	.LASF152
 2575 0a84 07       		.byte	0x7
 2576 0a85 57       		.byte	0x57
 2577 0a86 28000000 		.4byte	0x28
 2578 0a8a 02       		.uleb128 0x2
 2579 0a8b 91       		.byte	0x91
 2580 0a8c 6C       		.sleb128 -20
 2581 0a8d 26       		.uleb128 0x26
 2582 0a8e 86050000 		.4byte	.LASF153
 2583 0a92 07       		.byte	0x7
 2584 0a93 58       		.byte	0x58
 2585 0a94 2D080000 		.4byte	0x82d
 2586 0a98 02       		.uleb128 0x2
 2587 0a99 91       		.byte	0x91
 2588 0a9a 68       		.sleb128 -24
ARM GAS  /tmp/ccBNsr2r.s 			page 47


 2589 0a9b 26       		.uleb128 0x26
 2590 0a9c D4020000 		.4byte	.LASF154
 2591 0aa0 07       		.byte	0x7
 2592 0aa1 58       		.byte	0x58
 2593 0aa2 41030000 		.4byte	0x341
 2594 0aa6 02       		.uleb128 0x2
 2595 0aa7 91       		.byte	0x91
 2596 0aa8 00       		.sleb128 0
 2597 0aa9 00       		.byte	0
 2598 0aaa 24       		.uleb128 0x24
 2599 0aab 3E030000 		.4byte	.LASF156
 2600 0aaf 07       		.byte	0x7
 2601 0ab0 6F       		.byte	0x6f
 2602 0ab1 00000000 		.4byte	.LFB241
 2603 0ab5 32000000 		.4byte	.LFE241-.LFB241
 2604 0ab9 01       		.uleb128 0x1
 2605 0aba 9C       		.byte	0x9c
 2606 0abb CE0A0000 		.4byte	0xace
 2607 0abf 25       		.uleb128 0x25
 2608 0ac0 69717000 		.ascii	"iqp\000"
 2609 0ac4 07       		.byte	0x7
 2610 0ac5 6F       		.byte	0x6f
 2611 0ac6 C5090000 		.4byte	0x9c5
 2612 0aca 02       		.uleb128 0x2
 2613 0acb 91       		.byte	0x91
 2614 0acc 74       		.sleb128 -12
 2615 0acd 00       		.byte	0
 2616 0ace 27       		.uleb128 0x27
 2617 0acf E9020000 		.4byte	.LASF157
 2618 0ad3 07       		.byte	0x7
 2619 0ad4 86       		.byte	0x86
 2620 0ad5 11010000 		.4byte	0x111
 2621 0ad9 00000000 		.4byte	.LFB242
 2622 0add 64000000 		.4byte	.LFE242-.LFB242
 2623 0ae1 01       		.uleb128 0x1
 2624 0ae2 9C       		.byte	0x9c
 2625 0ae3 020B0000 		.4byte	0xb02
 2626 0ae7 25       		.uleb128 0x25
 2627 0ae8 69717000 		.ascii	"iqp\000"
 2628 0aec 07       		.byte	0x7
 2629 0aed 86       		.byte	0x86
 2630 0aee C5090000 		.4byte	0x9c5
 2631 0af2 02       		.uleb128 0x2
 2632 0af3 91       		.byte	0x91
 2633 0af4 74       		.sleb128 -12
 2634 0af5 25       		.uleb128 0x25
 2635 0af6 6200     		.ascii	"b\000"
 2636 0af8 07       		.byte	0x7
 2637 0af9 86       		.byte	0x86
 2638 0afa 9E000000 		.4byte	0x9e
 2639 0afe 02       		.uleb128 0x2
 2640 0aff 91       		.byte	0x91
 2641 0b00 73       		.sleb128 -13
 2642 0b01 00       		.byte	0
 2643 0b02 27       		.uleb128 0x27
 2644 0b03 B2070000 		.4byte	.LASF158
 2645 0b07 07       		.byte	0x7
ARM GAS  /tmp/ccBNsr2r.s 			page 48


 2646 0b08 AD       		.byte	0xad
 2647 0b09 11010000 		.4byte	0x111
 2648 0b0d 00000000 		.4byte	.LFB243
 2649 0b11 84000000 		.4byte	.LFE243-.LFB243
 2650 0b15 01       		.uleb128 0x1
 2651 0b16 9C       		.byte	0x9c
 2652 0b17 5C0B0000 		.4byte	0xb5c
 2653 0b1b 25       		.uleb128 0x25
 2654 0b1c 69717000 		.ascii	"iqp\000"
 2655 0b20 07       		.byte	0x7
 2656 0b21 AD       		.byte	0xad
 2657 0b22 C5090000 		.4byte	0x9c5
 2658 0b26 02       		.uleb128 0x2
 2659 0b27 91       		.byte	0x91
 2660 0b28 6C       		.sleb128 -20
 2661 0b29 26       		.uleb128 0x26
 2662 0b2a 5B030000 		.4byte	.LASF159
 2663 0b2e 07       		.byte	0x7
 2664 0b2f AD       		.byte	0xad
 2665 0b30 3D010000 		.4byte	0x13d
 2666 0b34 02       		.uleb128 0x2
 2667 0b35 91       		.byte	0x91
 2668 0b36 68       		.sleb128 -24
 2669 0b37 28       		.uleb128 0x28
 2670 0b38 6200     		.ascii	"b\000"
 2671 0b3a 07       		.byte	0x7
 2672 0b3b AE       		.byte	0xae
 2673 0b3c 9E000000 		.4byte	0x9e
 2674 0b40 02       		.uleb128 0x2
 2675 0b41 91       		.byte	0x91
 2676 0b42 73       		.sleb128 -13
 2677 0b43 29       		.uleb128 0x29
 2678 0b44 20000000 		.4byte	.LBB10
 2679 0b48 1A000000 		.4byte	.LBE10-.LBB10
 2680 0b4c 28       		.uleb128 0x28
 2681 0b4d 6D736700 		.ascii	"msg\000"
 2682 0b51 07       		.byte	0x7
 2683 0b52 B6       		.byte	0xb6
 2684 0b53 11010000 		.4byte	0x111
 2685 0b57 02       		.uleb128 0x2
 2686 0b58 91       		.byte	0x91
 2687 0b59 74       		.sleb128 -12
 2688 0b5a 00       		.byte	0
 2689 0b5b 00       		.byte	0
 2690 0b5c 27       		.uleb128 0x27
 2691 0b5d 82000000 		.4byte	.LASF160
 2692 0b61 07       		.byte	0x7
 2693 0b62 DF       		.byte	0xdf
 2694 0b63 28000000 		.4byte	0x28
 2695 0b67 00000000 		.4byte	.LFB244
 2696 0b6b B8000000 		.4byte	.LFE244-.LFB244
 2697 0b6f 01       		.uleb128 0x1
 2698 0b70 9C       		.byte	0x9c
 2699 0b71 D40B0000 		.4byte	0xbd4
 2700 0b75 25       		.uleb128 0x25
 2701 0b76 69717000 		.ascii	"iqp\000"
 2702 0b7a 07       		.byte	0x7
ARM GAS  /tmp/ccBNsr2r.s 			page 49


 2703 0b7b DF       		.byte	0xdf
 2704 0b7c C5090000 		.4byte	0x9c5
 2705 0b80 02       		.uleb128 0x2
 2706 0b81 91       		.byte	0x91
 2707 0b82 6C       		.sleb128 -20
 2708 0b83 25       		.uleb128 0x25
 2709 0b84 627000   		.ascii	"bp\000"
 2710 0b87 07       		.byte	0x7
 2711 0b88 DF       		.byte	0xdf
 2712 0b89 54080000 		.4byte	0x854
 2713 0b8d 02       		.uleb128 0x2
 2714 0b8e 91       		.byte	0x91
 2715 0b8f 68       		.sleb128 -24
 2716 0b90 25       		.uleb128 0x25
 2717 0b91 6E00     		.ascii	"n\000"
 2718 0b93 07       		.byte	0x7
 2719 0b94 E0       		.byte	0xe0
 2720 0b95 28000000 		.4byte	0x28
 2721 0b99 02       		.uleb128 0x2
 2722 0b9a 91       		.byte	0x91
 2723 0b9b 64       		.sleb128 -28
 2724 0b9c 26       		.uleb128 0x26
 2725 0b9d 5B030000 		.4byte	.LASF159
 2726 0ba1 07       		.byte	0x7
 2727 0ba2 E0       		.byte	0xe0
 2728 0ba3 3D010000 		.4byte	0x13d
 2729 0ba7 02       		.uleb128 0x2
 2730 0ba8 91       		.byte	0x91
 2731 0ba9 60       		.sleb128 -32
 2732 0baa 28       		.uleb128 0x28
 2733 0bab 6E667900 		.ascii	"nfy\000"
 2734 0baf 07       		.byte	0x7
 2735 0bb0 E1       		.byte	0xe1
 2736 0bb1 2D080000 		.4byte	0x82d
 2737 0bb5 02       		.uleb128 0x2
 2738 0bb6 91       		.byte	0x91
 2739 0bb7 70       		.sleb128 -16
 2740 0bb8 28       		.uleb128 0x28
 2741 0bb9 7200     		.ascii	"r\000"
 2742 0bbb 07       		.byte	0x7
 2743 0bbc E2       		.byte	0xe2
 2744 0bbd 28000000 		.4byte	0x28
 2745 0bc1 02       		.uleb128 0x2
 2746 0bc2 91       		.byte	0x91
 2747 0bc3 74       		.sleb128 -12
 2748 0bc4 22       		.uleb128 0x22
 2749 0bc5 93050000 		.4byte	.LASF161
 2750 0bc9 E40B0000 		.4byte	0xbe4
 2751 0bcd 05       		.uleb128 0x5
 2752 0bce 03       		.byte	0x3
 2753 0bcf 00000000 		.4byte	__func__.6648
 2754 0bd3 00       		.byte	0
 2755 0bd4 15       		.uleb128 0x15
 2756 0bd5 7C070000 		.4byte	0x77c
 2757 0bd9 E40B0000 		.4byte	0xbe4
 2758 0bdd 16       		.uleb128 0x16
 2759 0bde B0040000 		.4byte	0x4b0
ARM GAS  /tmp/ccBNsr2r.s 			page 50


 2760 0be2 0F       		.byte	0xf
 2761 0be3 00       		.byte	0
 2762 0be4 19       		.uleb128 0x19
 2763 0be5 D40B0000 		.4byte	0xbd4
 2764 0be9 2A       		.uleb128 0x2a
 2765 0bea C7060000 		.4byte	.LASF162
 2766 0bee 07       		.byte	0x7
 2767 0bef 1301     		.2byte	0x113
 2768 0bf1 00000000 		.4byte	.LFB245
 2769 0bf5 48000000 		.4byte	.LFE245-.LFB245
 2770 0bf9 01       		.uleb128 0x1
 2771 0bfa 9C       		.byte	0x9c
 2772 0bfb 4A0C0000 		.4byte	0xc4a
 2773 0bff 1F       		.uleb128 0x1f
 2774 0c00 6F717000 		.ascii	"oqp\000"
 2775 0c04 07       		.byte	0x7
 2776 0c05 1301     		.2byte	0x113
 2777 0c07 1F0A0000 		.4byte	0xa1f
 2778 0c0b 02       		.uleb128 0x2
 2779 0c0c 91       		.byte	0x91
 2780 0c0d 74       		.sleb128 -12
 2781 0c0e 1F       		.uleb128 0x1f
 2782 0c0f 627000   		.ascii	"bp\000"
 2783 0c12 07       		.byte	0x7
 2784 0c13 1301     		.2byte	0x113
 2785 0c15 54080000 		.4byte	0x854
 2786 0c19 02       		.uleb128 0x2
 2787 0c1a 91       		.byte	0x91
 2788 0c1b 70       		.sleb128 -16
 2789 0c1c 2B       		.uleb128 0x2b
 2790 0c1d 40070000 		.4byte	.LASF152
 2791 0c21 07       		.byte	0x7
 2792 0c22 1301     		.2byte	0x113
 2793 0c24 28000000 		.4byte	0x28
 2794 0c28 02       		.uleb128 0x2
 2795 0c29 91       		.byte	0x91
 2796 0c2a 6C       		.sleb128 -20
 2797 0c2b 2B       		.uleb128 0x2b
 2798 0c2c 23000000 		.4byte	.LASF163
 2799 0c30 07       		.byte	0x7
 2800 0c31 1401     		.2byte	0x114
 2801 0c33 2D080000 		.4byte	0x82d
 2802 0c37 02       		.uleb128 0x2
 2803 0c38 91       		.byte	0x91
 2804 0c39 68       		.sleb128 -24
 2805 0c3a 2B       		.uleb128 0x2b
 2806 0c3b D4020000 		.4byte	.LASF154
 2807 0c3f 07       		.byte	0x7
 2808 0c40 1401     		.2byte	0x114
 2809 0c42 41030000 		.4byte	0x341
 2810 0c46 02       		.uleb128 0x2
 2811 0c47 91       		.byte	0x91
 2812 0c48 00       		.sleb128 0
 2813 0c49 00       		.byte	0
 2814 0c4a 2A       		.uleb128 0x2a
 2815 0c4b A5060000 		.4byte	.LASF164
 2816 0c4f 07       		.byte	0x7
ARM GAS  /tmp/ccBNsr2r.s 			page 51


 2817 0c50 2B01     		.2byte	0x12b
 2818 0c52 00000000 		.4byte	.LFB246
 2819 0c56 3E000000 		.4byte	.LFE246-.LFB246
 2820 0c5a 01       		.uleb128 0x1
 2821 0c5b 9C       		.byte	0x9c
 2822 0c5c 700C0000 		.4byte	0xc70
 2823 0c60 1F       		.uleb128 0x1f
 2824 0c61 6F717000 		.ascii	"oqp\000"
 2825 0c65 07       		.byte	0x7
 2826 0c66 2B01     		.2byte	0x12b
 2827 0c68 1F0A0000 		.4byte	0xa1f
 2828 0c6c 02       		.uleb128 0x2
 2829 0c6d 91       		.byte	0x91
 2830 0c6e 74       		.sleb128 -12
 2831 0c6f 00       		.byte	0
 2832 0c70 2C       		.uleb128 0x2c
 2833 0c71 00000000 		.4byte	.LASF165
 2834 0c75 07       		.byte	0x7
 2835 0c76 4B01     		.2byte	0x14b
 2836 0c78 11010000 		.4byte	0x111
 2837 0c7c 00000000 		.4byte	.LFB247
 2838 0c80 86000000 		.4byte	.LFE247-.LFB247
 2839 0c84 01       		.uleb128 0x1
 2840 0c85 9C       		.byte	0x9c
 2841 0c86 CF0C0000 		.4byte	0xccf
 2842 0c8a 1F       		.uleb128 0x1f
 2843 0c8b 6F717000 		.ascii	"oqp\000"
 2844 0c8f 07       		.byte	0x7
 2845 0c90 4B01     		.2byte	0x14b
 2846 0c92 1F0A0000 		.4byte	0xa1f
 2847 0c96 02       		.uleb128 0x2
 2848 0c97 91       		.byte	0x91
 2849 0c98 6C       		.sleb128 -20
 2850 0c99 1F       		.uleb128 0x1f
 2851 0c9a 6200     		.ascii	"b\000"
 2852 0c9c 07       		.byte	0x7
 2853 0c9d 4B01     		.2byte	0x14b
 2854 0c9f 9E000000 		.4byte	0x9e
 2855 0ca3 02       		.uleb128 0x2
 2856 0ca4 91       		.byte	0x91
 2857 0ca5 6B       		.sleb128 -21
 2858 0ca6 2B       		.uleb128 0x2b
 2859 0ca7 5B030000 		.4byte	.LASF159
 2860 0cab 07       		.byte	0x7
 2861 0cac 4B01     		.2byte	0x14b
 2862 0cae 3D010000 		.4byte	0x13d
 2863 0cb2 02       		.uleb128 0x2
 2864 0cb3 91       		.byte	0x91
 2865 0cb4 64       		.sleb128 -28
 2866 0cb5 29       		.uleb128 0x29
 2867 0cb6 14000000 		.4byte	.LBB11
 2868 0cba 1A000000 		.4byte	.LBE11-.LBB11
 2869 0cbe 2D       		.uleb128 0x2d
 2870 0cbf 6D736700 		.ascii	"msg\000"
 2871 0cc3 07       		.byte	0x7
 2872 0cc4 4F01     		.2byte	0x14f
 2873 0cc6 11010000 		.4byte	0x111
ARM GAS  /tmp/ccBNsr2r.s 			page 52


 2874 0cca 02       		.uleb128 0x2
 2875 0ccb 91       		.byte	0x91
 2876 0ccc 74       		.sleb128 -12
 2877 0ccd 00       		.byte	0
 2878 0cce 00       		.byte	0
 2879 0ccf 2C       		.uleb128 0x2c
 2880 0cd0 D3010000 		.4byte	.LASF166
 2881 0cd4 07       		.byte	0x7
 2882 0cd5 6E01     		.2byte	0x16e
 2883 0cd7 11010000 		.4byte	0x111
 2884 0cdb 00000000 		.4byte	.LFB248
 2885 0cdf 60000000 		.4byte	.LFE248-.LFB248
 2886 0ce3 01       		.uleb128 0x1
 2887 0ce4 9C       		.byte	0x9c
 2888 0ce5 060D0000 		.4byte	0xd06
 2889 0ce9 1F       		.uleb128 0x1f
 2890 0cea 6F717000 		.ascii	"oqp\000"
 2891 0cee 07       		.byte	0x7
 2892 0cef 6E01     		.2byte	0x16e
 2893 0cf1 1F0A0000 		.4byte	0xa1f
 2894 0cf5 02       		.uleb128 0x2
 2895 0cf6 91       		.byte	0x91
 2896 0cf7 6C       		.sleb128 -20
 2897 0cf8 2D       		.uleb128 0x2d
 2898 0cf9 6200     		.ascii	"b\000"
 2899 0cfb 07       		.byte	0x7
 2900 0cfc 6F01     		.2byte	0x16f
 2901 0cfe 9E000000 		.4byte	0x9e
 2902 0d02 02       		.uleb128 0x2
 2903 0d03 91       		.byte	0x91
 2904 0d04 77       		.sleb128 -9
 2905 0d05 00       		.byte	0
 2906 0d06 2C       		.uleb128 0x2c
 2907 0d07 FB030000 		.4byte	.LASF167
 2908 0d0b 07       		.byte	0x7
 2909 0d0c 9A01     		.2byte	0x19a
 2910 0d0e 28000000 		.4byte	0x28
 2911 0d12 00000000 		.4byte	.LFB249
 2912 0d16 B8000000 		.4byte	.LFE249-.LFB249
 2913 0d1a 01       		.uleb128 0x1
 2914 0d1b 9C       		.byte	0x9c
 2915 0d1c 850D0000 		.4byte	0xd85
 2916 0d20 1F       		.uleb128 0x1f
 2917 0d21 6F717000 		.ascii	"oqp\000"
 2918 0d25 07       		.byte	0x7
 2919 0d26 9A01     		.2byte	0x19a
 2920 0d28 1F0A0000 		.4byte	0xa1f
 2921 0d2c 02       		.uleb128 0x2
 2922 0d2d 91       		.byte	0x91
 2923 0d2e 6C       		.sleb128 -20
 2924 0d2f 1F       		.uleb128 0x1f
 2925 0d30 627000   		.ascii	"bp\000"
 2926 0d33 07       		.byte	0x7
 2927 0d34 9A01     		.2byte	0x19a
 2928 0d36 70080000 		.4byte	0x870
 2929 0d3a 02       		.uleb128 0x2
 2930 0d3b 91       		.byte	0x91
ARM GAS  /tmp/ccBNsr2r.s 			page 53


 2931 0d3c 68       		.sleb128 -24
 2932 0d3d 1F       		.uleb128 0x1f
 2933 0d3e 6E00     		.ascii	"n\000"
 2934 0d40 07       		.byte	0x7
 2935 0d41 9B01     		.2byte	0x19b
 2936 0d43 28000000 		.4byte	0x28
 2937 0d47 02       		.uleb128 0x2
 2938 0d48 91       		.byte	0x91
 2939 0d49 64       		.sleb128 -28
 2940 0d4a 2B       		.uleb128 0x2b
 2941 0d4b 5B030000 		.4byte	.LASF159
 2942 0d4f 07       		.byte	0x7
 2943 0d50 9B01     		.2byte	0x19b
 2944 0d52 3D010000 		.4byte	0x13d
 2945 0d56 02       		.uleb128 0x2
 2946 0d57 91       		.byte	0x91
 2947 0d58 60       		.sleb128 -32
 2948 0d59 2D       		.uleb128 0x2d
 2949 0d5a 6E667900 		.ascii	"nfy\000"
 2950 0d5e 07       		.byte	0x7
 2951 0d5f 9C01     		.2byte	0x19c
 2952 0d61 2D080000 		.4byte	0x82d
 2953 0d65 02       		.uleb128 0x2
 2954 0d66 91       		.byte	0x91
 2955 0d67 70       		.sleb128 -16
 2956 0d68 2D       		.uleb128 0x2d
 2957 0d69 7700     		.ascii	"w\000"
 2958 0d6b 07       		.byte	0x7
 2959 0d6c 9D01     		.2byte	0x19d
 2960 0d6e 28000000 		.4byte	0x28
 2961 0d72 02       		.uleb128 0x2
 2962 0d73 91       		.byte	0x91
 2963 0d74 74       		.sleb128 -12
 2964 0d75 22       		.uleb128 0x22
 2965 0d76 93050000 		.4byte	.LASF161
 2966 0d7a 950D0000 		.4byte	0xd95
 2967 0d7e 05       		.uleb128 0x5
 2968 0d7f 03       		.byte	0x3
 2969 0d80 00000000 		.4byte	__func__.6684
 2970 0d84 00       		.byte	0
 2971 0d85 15       		.uleb128 0x15
 2972 0d86 7C070000 		.4byte	0x77c
 2973 0d8a 950D0000 		.4byte	0xd95
 2974 0d8e 16       		.uleb128 0x16
 2975 0d8f B0040000 		.4byte	0x4b0
 2976 0d93 10       		.byte	0x10
 2977 0d94 00       		.byte	0
 2978 0d95 19       		.uleb128 0x19
 2979 0d96 850D0000 		.4byte	0xd85
 2980 0d9a 2E       		.uleb128 0x2e
 2981 0d9b 2B010000 		.4byte	.LASF168
 2982 0d9f 13       		.byte	0x13
 2983 0da0 FA06     		.2byte	0x6fa
 2984 0da2 CA000000 		.4byte	0xca
 2985 0da6 2F       		.uleb128 0x2f
 2986 0da7 636800   		.ascii	"ch\000"
 2987 0daa 03       		.byte	0x3
ARM GAS  /tmp/ccBNsr2r.s 			page 54


 2988 0dab 0902     		.2byte	0x209
 2989 0dad 38040000 		.4byte	0x438
 2990 0db1 00       		.byte	0
 2991              		.section	.debug_abbrev,"",%progbits
 2992              	.Ldebug_abbrev0:
 2993 0000 01       		.uleb128 0x1
 2994 0001 11       		.uleb128 0x11
 2995 0002 01       		.byte	0x1
 2996 0003 25       		.uleb128 0x25
 2997 0004 0E       		.uleb128 0xe
 2998 0005 13       		.uleb128 0x13
 2999 0006 0B       		.uleb128 0xb
 3000 0007 03       		.uleb128 0x3
 3001 0008 0E       		.uleb128 0xe
 3002 0009 55       		.uleb128 0x55
 3003 000a 17       		.uleb128 0x17
 3004 000b 11       		.uleb128 0x11
 3005 000c 01       		.uleb128 0x1
 3006 000d 10       		.uleb128 0x10
 3007 000e 17       		.uleb128 0x17
 3008 000f 00       		.byte	0
 3009 0010 00       		.byte	0
 3010 0011 02       		.uleb128 0x2
 3011 0012 24       		.uleb128 0x24
 3012 0013 00       		.byte	0
 3013 0014 0B       		.uleb128 0xb
 3014 0015 0B       		.uleb128 0xb
 3015 0016 3E       		.uleb128 0x3e
 3016 0017 0B       		.uleb128 0xb
 3017 0018 03       		.uleb128 0x3
 3018 0019 08       		.uleb128 0x8
 3019 001a 00       		.byte	0
 3020 001b 00       		.byte	0
 3021 001c 03       		.uleb128 0x3
 3022 001d 16       		.uleb128 0x16
 3023 001e 00       		.byte	0
 3024 001f 03       		.uleb128 0x3
 3025 0020 0E       		.uleb128 0xe
 3026 0021 3A       		.uleb128 0x3a
 3027 0022 0B       		.uleb128 0xb
 3028 0023 3B       		.uleb128 0x3b
 3029 0024 0B       		.uleb128 0xb
 3030 0025 49       		.uleb128 0x49
 3031 0026 13       		.uleb128 0x13
 3032 0027 00       		.byte	0
 3033 0028 00       		.byte	0
 3034 0029 04       		.uleb128 0x4
 3035 002a 24       		.uleb128 0x24
 3036 002b 00       		.byte	0
 3037 002c 0B       		.uleb128 0xb
 3038 002d 0B       		.uleb128 0xb
 3039 002e 3E       		.uleb128 0x3e
 3040 002f 0B       		.uleb128 0xb
 3041 0030 03       		.uleb128 0x3
 3042 0031 0E       		.uleb128 0xe
 3043 0032 00       		.byte	0
 3044 0033 00       		.byte	0
ARM GAS  /tmp/ccBNsr2r.s 			page 55


 3045 0034 05       		.uleb128 0x5
 3046 0035 35       		.uleb128 0x35
 3047 0036 00       		.byte	0
 3048 0037 49       		.uleb128 0x49
 3049 0038 13       		.uleb128 0x13
 3050 0039 00       		.byte	0
 3051 003a 00       		.byte	0
 3052 003b 06       		.uleb128 0x6
 3053 003c 13       		.uleb128 0x13
 3054 003d 01       		.byte	0x1
 3055 003e 03       		.uleb128 0x3
 3056 003f 0E       		.uleb128 0xe
 3057 0040 0B       		.uleb128 0xb
 3058 0041 0B       		.uleb128 0xb
 3059 0042 3A       		.uleb128 0x3a
 3060 0043 0B       		.uleb128 0xb
 3061 0044 3B       		.uleb128 0x3b
 3062 0045 0B       		.uleb128 0xb
 3063 0046 01       		.uleb128 0x1
 3064 0047 13       		.uleb128 0x13
 3065 0048 00       		.byte	0
 3066 0049 00       		.byte	0
 3067 004a 07       		.uleb128 0x7
 3068 004b 0D       		.uleb128 0xd
 3069 004c 00       		.byte	0
 3070 004d 03       		.uleb128 0x3
 3071 004e 0E       		.uleb128 0xe
 3072 004f 3A       		.uleb128 0x3a
 3073 0050 0B       		.uleb128 0xb
 3074 0051 3B       		.uleb128 0x3b
 3075 0052 0B       		.uleb128 0xb
 3076 0053 49       		.uleb128 0x49
 3077 0054 13       		.uleb128 0x13
 3078 0055 38       		.uleb128 0x38
 3079 0056 0B       		.uleb128 0xb
 3080 0057 00       		.byte	0
 3081 0058 00       		.byte	0
 3082 0059 08       		.uleb128 0x8
 3083 005a 0D       		.uleb128 0xd
 3084 005b 00       		.byte	0
 3085 005c 03       		.uleb128 0x3
 3086 005d 08       		.uleb128 0x8
 3087 005e 3A       		.uleb128 0x3a
 3088 005f 0B       		.uleb128 0xb
 3089 0060 3B       		.uleb128 0x3b
 3090 0061 05       		.uleb128 0x5
 3091 0062 49       		.uleb128 0x49
 3092 0063 13       		.uleb128 0x13
 3093 0064 38       		.uleb128 0x38
 3094 0065 0B       		.uleb128 0xb
 3095 0066 00       		.byte	0
 3096 0067 00       		.byte	0
 3097 0068 09       		.uleb128 0x9
 3098 0069 0D       		.uleb128 0xd
 3099 006a 00       		.byte	0
 3100 006b 03       		.uleb128 0x3
 3101 006c 0E       		.uleb128 0xe
ARM GAS  /tmp/ccBNsr2r.s 			page 56


 3102 006d 3A       		.uleb128 0x3a
 3103 006e 0B       		.uleb128 0xb
 3104 006f 3B       		.uleb128 0x3b
 3105 0070 05       		.uleb128 0x5
 3106 0071 49       		.uleb128 0x49
 3107 0072 13       		.uleb128 0x13
 3108 0073 38       		.uleb128 0x38
 3109 0074 0B       		.uleb128 0xb
 3110 0075 00       		.byte	0
 3111 0076 00       		.byte	0
 3112 0077 0A       		.uleb128 0xa
 3113 0078 0F       		.uleb128 0xf
 3114 0079 00       		.byte	0
 3115 007a 0B       		.uleb128 0xb
 3116 007b 0B       		.uleb128 0xb
 3117 007c 49       		.uleb128 0x49
 3118 007d 13       		.uleb128 0x13
 3119 007e 00       		.byte	0
 3120 007f 00       		.byte	0
 3121 0080 0B       		.uleb128 0xb
 3122 0081 13       		.uleb128 0x13
 3123 0082 01       		.byte	0x1
 3124 0083 03       		.uleb128 0x3
 3125 0084 0E       		.uleb128 0xe
 3126 0085 0B       		.uleb128 0xb
 3127 0086 0B       		.uleb128 0xb
 3128 0087 3A       		.uleb128 0x3a
 3129 0088 0B       		.uleb128 0xb
 3130 0089 3B       		.uleb128 0x3b
 3131 008a 05       		.uleb128 0x5
 3132 008b 01       		.uleb128 0x1
 3133 008c 13       		.uleb128 0x13
 3134 008d 00       		.byte	0
 3135 008e 00       		.byte	0
 3136 008f 0C       		.uleb128 0xc
 3137 0090 15       		.uleb128 0x15
 3138 0091 01       		.byte	0x1
 3139 0092 27       		.uleb128 0x27
 3140 0093 19       		.uleb128 0x19
 3141 0094 01       		.uleb128 0x1
 3142 0095 13       		.uleb128 0x13
 3143 0096 00       		.byte	0
 3144 0097 00       		.byte	0
 3145 0098 0D       		.uleb128 0xd
 3146 0099 05       		.uleb128 0x5
 3147 009a 00       		.byte	0
 3148 009b 49       		.uleb128 0x49
 3149 009c 13       		.uleb128 0x13
 3150 009d 00       		.byte	0
 3151 009e 00       		.byte	0
 3152 009f 0E       		.uleb128 0xe
 3153 00a0 0F       		.uleb128 0xf
 3154 00a1 00       		.byte	0
 3155 00a2 0B       		.uleb128 0xb
 3156 00a3 0B       		.uleb128 0xb
 3157 00a4 00       		.byte	0
 3158 00a5 00       		.byte	0
ARM GAS  /tmp/ccBNsr2r.s 			page 57


 3159 00a6 0F       		.uleb128 0xf
 3160 00a7 13       		.uleb128 0x13
 3161 00a8 01       		.byte	0x1
 3162 00a9 03       		.uleb128 0x3
 3163 00aa 0E       		.uleb128 0xe
 3164 00ab 0B       		.uleb128 0xb
 3165 00ac 05       		.uleb128 0x5
 3166 00ad 3A       		.uleb128 0x3a
 3167 00ae 0B       		.uleb128 0xb
 3168 00af 3B       		.uleb128 0x3b
 3169 00b0 05       		.uleb128 0x5
 3170 00b1 01       		.uleb128 0x1
 3171 00b2 13       		.uleb128 0x13
 3172 00b3 00       		.byte	0
 3173 00b4 00       		.byte	0
 3174 00b5 10       		.uleb128 0x10
 3175 00b6 0D       		.uleb128 0xd
 3176 00b7 00       		.byte	0
 3177 00b8 03       		.uleb128 0x3
 3178 00b9 0E       		.uleb128 0xe
 3179 00ba 3A       		.uleb128 0x3a
 3180 00bb 0B       		.uleb128 0xb
 3181 00bc 3B       		.uleb128 0x3b
 3182 00bd 05       		.uleb128 0x5
 3183 00be 49       		.uleb128 0x49
 3184 00bf 13       		.uleb128 0x13
 3185 00c0 38       		.uleb128 0x38
 3186 00c1 05       		.uleb128 0x5
 3187 00c2 00       		.byte	0
 3188 00c3 00       		.byte	0
 3189 00c4 11       		.uleb128 0x11
 3190 00c5 0D       		.uleb128 0xd
 3191 00c6 00       		.byte	0
 3192 00c7 03       		.uleb128 0x3
 3193 00c8 08       		.uleb128 0x8
 3194 00c9 3A       		.uleb128 0x3a
 3195 00ca 0B       		.uleb128 0xb
 3196 00cb 3B       		.uleb128 0x3b
 3197 00cc 05       		.uleb128 0x5
 3198 00cd 49       		.uleb128 0x49
 3199 00ce 13       		.uleb128 0x13
 3200 00cf 38       		.uleb128 0x38
 3201 00d0 05       		.uleb128 0x5
 3202 00d1 00       		.byte	0
 3203 00d2 00       		.byte	0
 3204 00d3 12       		.uleb128 0x12
 3205 00d4 0D       		.uleb128 0xd
 3206 00d5 00       		.byte	0
 3207 00d6 03       		.uleb128 0x3
 3208 00d7 08       		.uleb128 0x8
 3209 00d8 3A       		.uleb128 0x3a
 3210 00d9 0B       		.uleb128 0xb
 3211 00da 3B       		.uleb128 0x3b
 3212 00db 0B       		.uleb128 0xb
 3213 00dc 49       		.uleb128 0x49
 3214 00dd 13       		.uleb128 0x13
 3215 00de 38       		.uleb128 0x38
ARM GAS  /tmp/ccBNsr2r.s 			page 58


 3216 00df 0B       		.uleb128 0xb
 3217 00e0 00       		.byte	0
 3218 00e1 00       		.byte	0
 3219 00e2 13       		.uleb128 0x13
 3220 00e3 13       		.uleb128 0x13
 3221 00e4 01       		.byte	0x1
 3222 00e5 0B       		.uleb128 0xb
 3223 00e6 0B       		.uleb128 0xb
 3224 00e7 3A       		.uleb128 0x3a
 3225 00e8 0B       		.uleb128 0xb
 3226 00e9 3B       		.uleb128 0x3b
 3227 00ea 0B       		.uleb128 0xb
 3228 00eb 01       		.uleb128 0x1
 3229 00ec 13       		.uleb128 0x13
 3230 00ed 00       		.byte	0
 3231 00ee 00       		.byte	0
 3232 00ef 14       		.uleb128 0x14
 3233 00f0 13       		.uleb128 0x13
 3234 00f1 01       		.byte	0x1
 3235 00f2 0B       		.uleb128 0xb
 3236 00f3 05       		.uleb128 0x5
 3237 00f4 3A       		.uleb128 0x3a
 3238 00f5 0B       		.uleb128 0xb
 3239 00f6 3B       		.uleb128 0x3b
 3240 00f7 0B       		.uleb128 0xb
 3241 00f8 01       		.uleb128 0x1
 3242 00f9 13       		.uleb128 0x13
 3243 00fa 00       		.byte	0
 3244 00fb 00       		.byte	0
 3245 00fc 15       		.uleb128 0x15
 3246 00fd 01       		.uleb128 0x1
 3247 00fe 01       		.byte	0x1
 3248 00ff 49       		.uleb128 0x49
 3249 0100 13       		.uleb128 0x13
 3250 0101 01       		.uleb128 0x1
 3251 0102 13       		.uleb128 0x13
 3252 0103 00       		.byte	0
 3253 0104 00       		.byte	0
 3254 0105 16       		.uleb128 0x16
 3255 0106 21       		.uleb128 0x21
 3256 0107 00       		.byte	0
 3257 0108 49       		.uleb128 0x49
 3258 0109 13       		.uleb128 0x13
 3259 010a 2F       		.uleb128 0x2f
 3260 010b 0B       		.uleb128 0xb
 3261 010c 00       		.byte	0
 3262 010d 00       		.byte	0
 3263 010e 17       		.uleb128 0x17
 3264 010f 17       		.uleb128 0x17
 3265 0110 01       		.byte	0x1
 3266 0111 0B       		.uleb128 0xb
 3267 0112 0B       		.uleb128 0xb
 3268 0113 3A       		.uleb128 0x3a
 3269 0114 0B       		.uleb128 0xb
 3270 0115 3B       		.uleb128 0x3b
 3271 0116 0B       		.uleb128 0xb
 3272 0117 01       		.uleb128 0x1
ARM GAS  /tmp/ccBNsr2r.s 			page 59


 3273 0118 13       		.uleb128 0x13
 3274 0119 00       		.byte	0
 3275 011a 00       		.byte	0
 3276 011b 18       		.uleb128 0x18
 3277 011c 0D       		.uleb128 0xd
 3278 011d 00       		.byte	0
 3279 011e 03       		.uleb128 0x3
 3280 011f 0E       		.uleb128 0xe
 3281 0120 3A       		.uleb128 0x3a
 3282 0121 0B       		.uleb128 0xb
 3283 0122 3B       		.uleb128 0x3b
 3284 0123 05       		.uleb128 0x5
 3285 0124 49       		.uleb128 0x49
 3286 0125 13       		.uleb128 0x13
 3287 0126 00       		.byte	0
 3288 0127 00       		.byte	0
 3289 0128 19       		.uleb128 0x19
 3290 0129 26       		.uleb128 0x26
 3291 012a 00       		.byte	0
 3292 012b 49       		.uleb128 0x49
 3293 012c 13       		.uleb128 0x13
 3294 012d 00       		.byte	0
 3295 012e 00       		.byte	0
 3296 012f 1A       		.uleb128 0x1a
 3297 0130 2E       		.uleb128 0x2e
 3298 0131 01       		.byte	0x1
 3299 0132 03       		.uleb128 0x3
 3300 0133 0E       		.uleb128 0xe
 3301 0134 3A       		.uleb128 0x3a
 3302 0135 0B       		.uleb128 0xb
 3303 0136 3B       		.uleb128 0x3b
 3304 0137 05       		.uleb128 0x5
 3305 0138 27       		.uleb128 0x27
 3306 0139 19       		.uleb128 0x19
 3307 013a 20       		.uleb128 0x20
 3308 013b 0B       		.uleb128 0xb
 3309 013c 01       		.uleb128 0x1
 3310 013d 13       		.uleb128 0x13
 3311 013e 00       		.byte	0
 3312 013f 00       		.byte	0
 3313 0140 1B       		.uleb128 0x1b
 3314 0141 05       		.uleb128 0x5
 3315 0142 00       		.byte	0
 3316 0143 03       		.uleb128 0x3
 3317 0144 0E       		.uleb128 0xe
 3318 0145 3A       		.uleb128 0x3a
 3319 0146 0B       		.uleb128 0xb
 3320 0147 3B       		.uleb128 0x3b
 3321 0148 05       		.uleb128 0x5
 3322 0149 49       		.uleb128 0x49
 3323 014a 13       		.uleb128 0x13
 3324 014b 00       		.byte	0
 3325 014c 00       		.byte	0
 3326 014d 1C       		.uleb128 0x1c
 3327 014e 2E       		.uleb128 0x2e
 3328 014f 01       		.byte	0x1
 3329 0150 03       		.uleb128 0x3
ARM GAS  /tmp/ccBNsr2r.s 			page 60


 3330 0151 0E       		.uleb128 0xe
 3331 0152 3A       		.uleb128 0x3a
 3332 0153 0B       		.uleb128 0xb
 3333 0154 3B       		.uleb128 0x3b
 3334 0155 05       		.uleb128 0x5
 3335 0156 27       		.uleb128 0x27
 3336 0157 19       		.uleb128 0x19
 3337 0158 11       		.uleb128 0x11
 3338 0159 01       		.uleb128 0x1
 3339 015a 12       		.uleb128 0x12
 3340 015b 06       		.uleb128 0x6
 3341 015c 40       		.uleb128 0x40
 3342 015d 18       		.uleb128 0x18
 3343 015e 9742     		.uleb128 0x2117
 3344 0160 19       		.uleb128 0x19
 3345 0161 01       		.uleb128 0x1
 3346 0162 13       		.uleb128 0x13
 3347 0163 00       		.byte	0
 3348 0164 00       		.byte	0
 3349 0165 1D       		.uleb128 0x1d
 3350 0166 1D       		.uleb128 0x1d
 3351 0167 01       		.byte	0x1
 3352 0168 31       		.uleb128 0x31
 3353 0169 13       		.uleb128 0x13
 3354 016a 11       		.uleb128 0x11
 3355 016b 01       		.uleb128 0x1
 3356 016c 12       		.uleb128 0x12
 3357 016d 06       		.uleb128 0x6
 3358 016e 58       		.uleb128 0x58
 3359 016f 0B       		.uleb128 0xb
 3360 0170 59       		.uleb128 0x59
 3361 0171 05       		.uleb128 0x5
 3362 0172 00       		.byte	0
 3363 0173 00       		.byte	0
 3364 0174 1E       		.uleb128 0x1e
 3365 0175 05       		.uleb128 0x5
 3366 0176 00       		.byte	0
 3367 0177 31       		.uleb128 0x31
 3368 0178 13       		.uleb128 0x13
 3369 0179 02       		.uleb128 0x2
 3370 017a 18       		.uleb128 0x18
 3371 017b 00       		.byte	0
 3372 017c 00       		.byte	0
 3373 017d 1F       		.uleb128 0x1f
 3374 017e 05       		.uleb128 0x5
 3375 017f 00       		.byte	0
 3376 0180 03       		.uleb128 0x3
 3377 0181 08       		.uleb128 0x8
 3378 0182 3A       		.uleb128 0x3a
 3379 0183 0B       		.uleb128 0xb
 3380 0184 3B       		.uleb128 0x3b
 3381 0185 05       		.uleb128 0x5
 3382 0186 49       		.uleb128 0x49
 3383 0187 13       		.uleb128 0x13
 3384 0188 02       		.uleb128 0x2
 3385 0189 18       		.uleb128 0x18
 3386 018a 00       		.byte	0
ARM GAS  /tmp/ccBNsr2r.s 			page 61


 3387 018b 00       		.byte	0
 3388 018c 20       		.uleb128 0x20
 3389 018d 2E       		.uleb128 0x2e
 3390 018e 00       		.byte	0
 3391 018f 03       		.uleb128 0x3
 3392 0190 0E       		.uleb128 0xe
 3393 0191 3A       		.uleb128 0x3a
 3394 0192 0B       		.uleb128 0xb
 3395 0193 3B       		.uleb128 0x3b
 3396 0194 05       		.uleb128 0x5
 3397 0195 27       		.uleb128 0x27
 3398 0196 19       		.uleb128 0x19
 3399 0197 11       		.uleb128 0x11
 3400 0198 01       		.uleb128 0x1
 3401 0199 12       		.uleb128 0x12
 3402 019a 06       		.uleb128 0x6
 3403 019b 40       		.uleb128 0x40
 3404 019c 18       		.uleb128 0x18
 3405 019d 9642     		.uleb128 0x2116
 3406 019f 19       		.uleb128 0x19
 3407 01a0 00       		.byte	0
 3408 01a1 00       		.byte	0
 3409 01a2 21       		.uleb128 0x21
 3410 01a3 2E       		.uleb128 0x2e
 3411 01a4 01       		.byte	0x1
 3412 01a5 03       		.uleb128 0x3
 3413 01a6 0E       		.uleb128 0xe
 3414 01a7 3A       		.uleb128 0x3a
 3415 01a8 0B       		.uleb128 0xb
 3416 01a9 3B       		.uleb128 0x3b
 3417 01aa 05       		.uleb128 0x5
 3418 01ab 27       		.uleb128 0x27
 3419 01ac 19       		.uleb128 0x19
 3420 01ad 11       		.uleb128 0x11
 3421 01ae 01       		.uleb128 0x1
 3422 01af 12       		.uleb128 0x12
 3423 01b0 06       		.uleb128 0x6
 3424 01b1 40       		.uleb128 0x40
 3425 01b2 18       		.uleb128 0x18
 3426 01b3 9642     		.uleb128 0x2116
 3427 01b5 19       		.uleb128 0x19
 3428 01b6 01       		.uleb128 0x1
 3429 01b7 13       		.uleb128 0x13
 3430 01b8 00       		.byte	0
 3431 01b9 00       		.byte	0
 3432 01ba 22       		.uleb128 0x22
 3433 01bb 34       		.uleb128 0x34
 3434 01bc 00       		.byte	0
 3435 01bd 03       		.uleb128 0x3
 3436 01be 0E       		.uleb128 0xe
 3437 01bf 49       		.uleb128 0x49
 3438 01c0 13       		.uleb128 0x13
 3439 01c1 34       		.uleb128 0x34
 3440 01c2 19       		.uleb128 0x19
 3441 01c3 02       		.uleb128 0x2
 3442 01c4 18       		.uleb128 0x18
 3443 01c5 00       		.byte	0
ARM GAS  /tmp/ccBNsr2r.s 			page 62


 3444 01c6 00       		.byte	0
 3445 01c7 23       		.uleb128 0x23
 3446 01c8 2E       		.uleb128 0x2e
 3447 01c9 01       		.byte	0x1
 3448 01ca 03       		.uleb128 0x3
 3449 01cb 0E       		.uleb128 0xe
 3450 01cc 3A       		.uleb128 0x3a
 3451 01cd 0B       		.uleb128 0xb
 3452 01ce 3B       		.uleb128 0x3b
 3453 01cf 05       		.uleb128 0x5
 3454 01d0 27       		.uleb128 0x27
 3455 01d1 19       		.uleb128 0x19
 3456 01d2 49       		.uleb128 0x49
 3457 01d3 13       		.uleb128 0x13
 3458 01d4 11       		.uleb128 0x11
 3459 01d5 01       		.uleb128 0x1
 3460 01d6 12       		.uleb128 0x12
 3461 01d7 06       		.uleb128 0x6
 3462 01d8 40       		.uleb128 0x40
 3463 01d9 18       		.uleb128 0x18
 3464 01da 9642     		.uleb128 0x2116
 3465 01dc 19       		.uleb128 0x19
 3466 01dd 01       		.uleb128 0x1
 3467 01de 13       		.uleb128 0x13
 3468 01df 00       		.byte	0
 3469 01e0 00       		.byte	0
 3470 01e1 24       		.uleb128 0x24
 3471 01e2 2E       		.uleb128 0x2e
 3472 01e3 01       		.byte	0x1
 3473 01e4 3F       		.uleb128 0x3f
 3474 01e5 19       		.uleb128 0x19
 3475 01e6 03       		.uleb128 0x3
 3476 01e7 0E       		.uleb128 0xe
 3477 01e8 3A       		.uleb128 0x3a
 3478 01e9 0B       		.uleb128 0xb
 3479 01ea 3B       		.uleb128 0x3b
 3480 01eb 0B       		.uleb128 0xb
 3481 01ec 27       		.uleb128 0x27
 3482 01ed 19       		.uleb128 0x19
 3483 01ee 11       		.uleb128 0x11
 3484 01ef 01       		.uleb128 0x1
 3485 01f0 12       		.uleb128 0x12
 3486 01f1 06       		.uleb128 0x6
 3487 01f2 40       		.uleb128 0x40
 3488 01f3 18       		.uleb128 0x18
 3489 01f4 9642     		.uleb128 0x2116
 3490 01f6 19       		.uleb128 0x19
 3491 01f7 01       		.uleb128 0x1
 3492 01f8 13       		.uleb128 0x13
 3493 01f9 00       		.byte	0
 3494 01fa 00       		.byte	0
 3495 01fb 25       		.uleb128 0x25
 3496 01fc 05       		.uleb128 0x5
 3497 01fd 00       		.byte	0
 3498 01fe 03       		.uleb128 0x3
 3499 01ff 08       		.uleb128 0x8
 3500 0200 3A       		.uleb128 0x3a
ARM GAS  /tmp/ccBNsr2r.s 			page 63


 3501 0201 0B       		.uleb128 0xb
 3502 0202 3B       		.uleb128 0x3b
 3503 0203 0B       		.uleb128 0xb
 3504 0204 49       		.uleb128 0x49
 3505 0205 13       		.uleb128 0x13
 3506 0206 02       		.uleb128 0x2
 3507 0207 18       		.uleb128 0x18
 3508 0208 00       		.byte	0
 3509 0209 00       		.byte	0
 3510 020a 26       		.uleb128 0x26
 3511 020b 05       		.uleb128 0x5
 3512 020c 00       		.byte	0
 3513 020d 03       		.uleb128 0x3
 3514 020e 0E       		.uleb128 0xe
 3515 020f 3A       		.uleb128 0x3a
 3516 0210 0B       		.uleb128 0xb
 3517 0211 3B       		.uleb128 0x3b
 3518 0212 0B       		.uleb128 0xb
 3519 0213 49       		.uleb128 0x49
 3520 0214 13       		.uleb128 0x13
 3521 0215 02       		.uleb128 0x2
 3522 0216 18       		.uleb128 0x18
 3523 0217 00       		.byte	0
 3524 0218 00       		.byte	0
 3525 0219 27       		.uleb128 0x27
 3526 021a 2E       		.uleb128 0x2e
 3527 021b 01       		.byte	0x1
 3528 021c 3F       		.uleb128 0x3f
 3529 021d 19       		.uleb128 0x19
 3530 021e 03       		.uleb128 0x3
 3531 021f 0E       		.uleb128 0xe
 3532 0220 3A       		.uleb128 0x3a
 3533 0221 0B       		.uleb128 0xb
 3534 0222 3B       		.uleb128 0x3b
 3535 0223 0B       		.uleb128 0xb
 3536 0224 27       		.uleb128 0x27
 3537 0225 19       		.uleb128 0x19
 3538 0226 49       		.uleb128 0x49
 3539 0227 13       		.uleb128 0x13
 3540 0228 11       		.uleb128 0x11
 3541 0229 01       		.uleb128 0x1
 3542 022a 12       		.uleb128 0x12
 3543 022b 06       		.uleb128 0x6
 3544 022c 40       		.uleb128 0x40
 3545 022d 18       		.uleb128 0x18
 3546 022e 9642     		.uleb128 0x2116
 3547 0230 19       		.uleb128 0x19
 3548 0231 01       		.uleb128 0x1
 3549 0232 13       		.uleb128 0x13
 3550 0233 00       		.byte	0
 3551 0234 00       		.byte	0
 3552 0235 28       		.uleb128 0x28
 3553 0236 34       		.uleb128 0x34
 3554 0237 00       		.byte	0
 3555 0238 03       		.uleb128 0x3
 3556 0239 08       		.uleb128 0x8
 3557 023a 3A       		.uleb128 0x3a
ARM GAS  /tmp/ccBNsr2r.s 			page 64


 3558 023b 0B       		.uleb128 0xb
 3559 023c 3B       		.uleb128 0x3b
 3560 023d 0B       		.uleb128 0xb
 3561 023e 49       		.uleb128 0x49
 3562 023f 13       		.uleb128 0x13
 3563 0240 02       		.uleb128 0x2
 3564 0241 18       		.uleb128 0x18
 3565 0242 00       		.byte	0
 3566 0243 00       		.byte	0
 3567 0244 29       		.uleb128 0x29
 3568 0245 0B       		.uleb128 0xb
 3569 0246 01       		.byte	0x1
 3570 0247 11       		.uleb128 0x11
 3571 0248 01       		.uleb128 0x1
 3572 0249 12       		.uleb128 0x12
 3573 024a 06       		.uleb128 0x6
 3574 024b 00       		.byte	0
 3575 024c 00       		.byte	0
 3576 024d 2A       		.uleb128 0x2a
 3577 024e 2E       		.uleb128 0x2e
 3578 024f 01       		.byte	0x1
 3579 0250 3F       		.uleb128 0x3f
 3580 0251 19       		.uleb128 0x19
 3581 0252 03       		.uleb128 0x3
 3582 0253 0E       		.uleb128 0xe
 3583 0254 3A       		.uleb128 0x3a
 3584 0255 0B       		.uleb128 0xb
 3585 0256 3B       		.uleb128 0x3b
 3586 0257 05       		.uleb128 0x5
 3587 0258 27       		.uleb128 0x27
 3588 0259 19       		.uleb128 0x19
 3589 025a 11       		.uleb128 0x11
 3590 025b 01       		.uleb128 0x1
 3591 025c 12       		.uleb128 0x12
 3592 025d 06       		.uleb128 0x6
 3593 025e 40       		.uleb128 0x40
 3594 025f 18       		.uleb128 0x18
 3595 0260 9642     		.uleb128 0x2116
 3596 0262 19       		.uleb128 0x19
 3597 0263 01       		.uleb128 0x1
 3598 0264 13       		.uleb128 0x13
 3599 0265 00       		.byte	0
 3600 0266 00       		.byte	0
 3601 0267 2B       		.uleb128 0x2b
 3602 0268 05       		.uleb128 0x5
 3603 0269 00       		.byte	0
 3604 026a 03       		.uleb128 0x3
 3605 026b 0E       		.uleb128 0xe
 3606 026c 3A       		.uleb128 0x3a
 3607 026d 0B       		.uleb128 0xb
 3608 026e 3B       		.uleb128 0x3b
 3609 026f 05       		.uleb128 0x5
 3610 0270 49       		.uleb128 0x49
 3611 0271 13       		.uleb128 0x13
 3612 0272 02       		.uleb128 0x2
 3613 0273 18       		.uleb128 0x18
 3614 0274 00       		.byte	0
ARM GAS  /tmp/ccBNsr2r.s 			page 65


 3615 0275 00       		.byte	0
 3616 0276 2C       		.uleb128 0x2c
 3617 0277 2E       		.uleb128 0x2e
 3618 0278 01       		.byte	0x1
 3619 0279 3F       		.uleb128 0x3f
 3620 027a 19       		.uleb128 0x19
 3621 027b 03       		.uleb128 0x3
 3622 027c 0E       		.uleb128 0xe
 3623 027d 3A       		.uleb128 0x3a
 3624 027e 0B       		.uleb128 0xb
 3625 027f 3B       		.uleb128 0x3b
 3626 0280 05       		.uleb128 0x5
 3627 0281 27       		.uleb128 0x27
 3628 0282 19       		.uleb128 0x19
 3629 0283 49       		.uleb128 0x49
 3630 0284 13       		.uleb128 0x13
 3631 0285 11       		.uleb128 0x11
 3632 0286 01       		.uleb128 0x1
 3633 0287 12       		.uleb128 0x12
 3634 0288 06       		.uleb128 0x6
 3635 0289 40       		.uleb128 0x40
 3636 028a 18       		.uleb128 0x18
 3637 028b 9642     		.uleb128 0x2116
 3638 028d 19       		.uleb128 0x19
 3639 028e 01       		.uleb128 0x1
 3640 028f 13       		.uleb128 0x13
 3641 0290 00       		.byte	0
 3642 0291 00       		.byte	0
 3643 0292 2D       		.uleb128 0x2d
 3644 0293 34       		.uleb128 0x34
 3645 0294 00       		.byte	0
 3646 0295 03       		.uleb128 0x3
 3647 0296 08       		.uleb128 0x8
 3648 0297 3A       		.uleb128 0x3a
 3649 0298 0B       		.uleb128 0xb
 3650 0299 3B       		.uleb128 0x3b
 3651 029a 05       		.uleb128 0x5
 3652 029b 49       		.uleb128 0x49
 3653 029c 13       		.uleb128 0x13
 3654 029d 02       		.uleb128 0x2
 3655 029e 18       		.uleb128 0x18
 3656 029f 00       		.byte	0
 3657 02a0 00       		.byte	0
 3658 02a1 2E       		.uleb128 0x2e
 3659 02a2 34       		.uleb128 0x34
 3660 02a3 00       		.byte	0
 3661 02a4 03       		.uleb128 0x3
 3662 02a5 0E       		.uleb128 0xe
 3663 02a6 3A       		.uleb128 0x3a
 3664 02a7 0B       		.uleb128 0xb
 3665 02a8 3B       		.uleb128 0x3b
 3666 02a9 05       		.uleb128 0x5
 3667 02aa 49       		.uleb128 0x49
 3668 02ab 13       		.uleb128 0x13
 3669 02ac 3F       		.uleb128 0x3f
 3670 02ad 19       		.uleb128 0x19
 3671 02ae 3C       		.uleb128 0x3c
ARM GAS  /tmp/ccBNsr2r.s 			page 66


 3672 02af 19       		.uleb128 0x19
 3673 02b0 00       		.byte	0
 3674 02b1 00       		.byte	0
 3675 02b2 2F       		.uleb128 0x2f
 3676 02b3 34       		.uleb128 0x34
 3677 02b4 00       		.byte	0
 3678 02b5 03       		.uleb128 0x3
 3679 02b6 08       		.uleb128 0x8
 3680 02b7 3A       		.uleb128 0x3a
 3681 02b8 0B       		.uleb128 0xb
 3682 02b9 3B       		.uleb128 0x3b
 3683 02ba 05       		.uleb128 0x5
 3684 02bb 49       		.uleb128 0x49
 3685 02bc 13       		.uleb128 0x13
 3686 02bd 3F       		.uleb128 0x3f
 3687 02be 19       		.uleb128 0x19
 3688 02bf 3C       		.uleb128 0x3c
 3689 02c0 19       		.uleb128 0x19
 3690 02c1 00       		.byte	0
 3691 02c2 00       		.byte	0
 3692 02c3 00       		.byte	0
 3693              		.section	.debug_aranges,"",%progbits
 3694 0000 B4000000 		.4byte	0xb4
 3695 0004 0200     		.2byte	0x2
 3696 0006 00000000 		.4byte	.Ldebug_info0
 3697 000a 04       		.byte	0x4
 3698 000b 00       		.byte	0
 3699 000c 0000     		.2byte	0
 3700 000e 0000     		.2byte	0
 3701 0010 00000000 		.4byte	.LFB127
 3702 0014 10000000 		.4byte	.LFE127-.LFB127
 3703 0018 00000000 		.4byte	.LFB128
 3704 001c 10000000 		.4byte	.LFE128-.LFB128
 3705 0020 00000000 		.4byte	.LFB150
 3706 0024 14000000 		.4byte	.LFE150-.LFB150
 3707 0028 00000000 		.4byte	.LFB167
 3708 002c 10000000 		.4byte	.LFE167-.LFB167
 3709 0030 00000000 		.4byte	.LFB168
 3710 0034 38000000 		.4byte	.LFE168-.LFB168
 3711 0038 00000000 		.4byte	.LFB194
 3712 003c 12000000 		.4byte	.LFE194-.LFB194
 3713 0040 00000000 		.4byte	.LFB232
 3714 0044 20000000 		.4byte	.LFE232-.LFB232
 3715 0048 00000000 		.4byte	.LFB233
 3716 004c 32000000 		.4byte	.LFE233-.LFB233
 3717 0050 00000000 		.4byte	.LFB237
 3718 0054 32000000 		.4byte	.LFE237-.LFB237
 3719 0058 00000000 		.4byte	.LFB238
 3720 005c 20000000 		.4byte	.LFE238-.LFB238
 3721 0060 00000000 		.4byte	.LFB240
 3722 0064 48000000 		.4byte	.LFE240-.LFB240
 3723 0068 00000000 		.4byte	.LFB241
 3724 006c 32000000 		.4byte	.LFE241-.LFB241
 3725 0070 00000000 		.4byte	.LFB242
 3726 0074 64000000 		.4byte	.LFE242-.LFB242
 3727 0078 00000000 		.4byte	.LFB243
 3728 007c 84000000 		.4byte	.LFE243-.LFB243
ARM GAS  /tmp/ccBNsr2r.s 			page 67


 3729 0080 00000000 		.4byte	.LFB244
 3730 0084 B8000000 		.4byte	.LFE244-.LFB244
 3731 0088 00000000 		.4byte	.LFB245
 3732 008c 48000000 		.4byte	.LFE245-.LFB245
 3733 0090 00000000 		.4byte	.LFB246
 3734 0094 3E000000 		.4byte	.LFE246-.LFB246
 3735 0098 00000000 		.4byte	.LFB247
 3736 009c 86000000 		.4byte	.LFE247-.LFB247
 3737 00a0 00000000 		.4byte	.LFB248
 3738 00a4 60000000 		.4byte	.LFE248-.LFB248
 3739 00a8 00000000 		.4byte	.LFB249
 3740 00ac B8000000 		.4byte	.LFE249-.LFB249
 3741 00b0 00000000 		.4byte	0
 3742 00b4 00000000 		.4byte	0
 3743              		.section	.debug_ranges,"",%progbits
 3744              	.Ldebug_ranges0:
 3745 0000 00000000 		.4byte	.LFB127
 3746 0004 10000000 		.4byte	.LFE127
 3747 0008 00000000 		.4byte	.LFB128
 3748 000c 10000000 		.4byte	.LFE128
 3749 0010 00000000 		.4byte	.LFB150
 3750 0014 14000000 		.4byte	.LFE150
 3751 0018 00000000 		.4byte	.LFB167
 3752 001c 10000000 		.4byte	.LFE167
 3753 0020 00000000 		.4byte	.LFB168
 3754 0024 38000000 		.4byte	.LFE168
 3755 0028 00000000 		.4byte	.LFB194
 3756 002c 12000000 		.4byte	.LFE194
 3757 0030 00000000 		.4byte	.LFB232
 3758 0034 20000000 		.4byte	.LFE232
 3759 0038 00000000 		.4byte	.LFB233
 3760 003c 32000000 		.4byte	.LFE233
 3761 0040 00000000 		.4byte	.LFB237
 3762 0044 32000000 		.4byte	.LFE237
 3763 0048 00000000 		.4byte	.LFB238
 3764 004c 20000000 		.4byte	.LFE238
 3765 0050 00000000 		.4byte	.LFB240
 3766 0054 48000000 		.4byte	.LFE240
 3767 0058 00000000 		.4byte	.LFB241
 3768 005c 32000000 		.4byte	.LFE241
 3769 0060 00000000 		.4byte	.LFB242
 3770 0064 64000000 		.4byte	.LFE242
 3771 0068 00000000 		.4byte	.LFB243
 3772 006c 84000000 		.4byte	.LFE243
 3773 0070 00000000 		.4byte	.LFB244
 3774 0074 B8000000 		.4byte	.LFE244
 3775 0078 00000000 		.4byte	.LFB245
 3776 007c 48000000 		.4byte	.LFE245
 3777 0080 00000000 		.4byte	.LFB246
 3778 0084 3E000000 		.4byte	.LFE246
 3779 0088 00000000 		.4byte	.LFB247
 3780 008c 86000000 		.4byte	.LFE247
 3781 0090 00000000 		.4byte	.LFB248
 3782 0094 60000000 		.4byte	.LFE248
 3783 0098 00000000 		.4byte	.LFB249
 3784 009c B8000000 		.4byte	.LFE249
 3785 00a0 00000000 		.4byte	0
ARM GAS  /tmp/ccBNsr2r.s 			page 68


 3786 00a4 00000000 		.4byte	0
 3787              		.section	.debug_line,"",%progbits
 3788              	.Ldebug_line0:
 3789 0000 9D040000 		.section	.debug_str,"MS",%progbits,1
 3789      02002502 
 3789      00000201 
 3789      FB0E0D00 
 3789      01010101 
 3790              	.LASF165:
 3791 0000 63684F51 		.ascii	"chOQPutTimeout\000"
 3791      50757454 
 3791      696D656F 
 3791      757400
 3792              	.LASF98:
 3793 000f 74625F70 		.ascii	"tb_ptr\000"
 3793      747200
 3794              	.LASF55:
 3795 0016 72656164 		.ascii	"ready_list_t\000"
 3795      795F6C69 
 3795      73745F74 
 3795      00
 3796              	.LASF163:
 3797 0023 6F6E6679 		.ascii	"onfy\000"
 3797      00
 3798              	.LASF2:
 3799 0028 73697A65 		.ascii	"size_t\000"
 3799      5F7400
 3800              	.LASF113:
 3801 002f 7264796D 		.ascii	"rdymsg\000"
 3801      736700
 3802              	.LASF17:
 3803 0036 75696E74 		.ascii	"uint64_t\000"
 3803      36345F74 
 3803      00
 3804              	.LASF85:
 3805 003f 6B65726E 		.ascii	"kernel_stats\000"
 3805      656C5F73 
 3805      74617473 
 3805      00
 3806              	.LASF3:
 3807 004c 5F5F7569 		.ascii	"__uint8_t\000"
 3807      6E74385F 
 3807      7400
 3808              	.LASF91:
 3809 0056 706F7274 		.ascii	"port_intctx\000"
 3809      5F696E74 
 3809      63747800 
 3810              	.LASF54:
 3811 0062 63685F74 		.ascii	"ch_threads_queue\000"
 3811      68726561 
 3811      64735F71 
 3811      75657565 
 3811      00
 3812              	.LASF74:
 3813 0073 73797374 		.ascii	"system_debug_t\000"
 3813      656D5F64 
 3813      65627567 
ARM GAS  /tmp/ccBNsr2r.s 			page 69


 3813      5F7400
 3814              	.LASF160:
 3815 0082 63684951 		.ascii	"chIQReadTimeout\000"
 3815      52656164 
 3815      54696D65 
 3815      6F757400 
 3816              	.LASF144:
 3817 0092 71756575 		.ascii	"queue_init\000"
 3817      655F696E 
 3817      697400
 3818              	.LASF142:
 3819 009d 706F7274 		.ascii	"port_lock\000"
 3819      5F6C6F63 
 3819      6B00
 3820              	.LASF104:
 3821 00a7 776F7273 		.ascii	"worst\000"
 3821      7400
 3822              	.LASF107:
 3823 00ad 74696D65 		.ascii	"time_measurement_t\000"
 3823      5F6D6561 
 3823      73757265 
 3823      6D656E74 
 3823      5F7400
 3824              	.LASF155:
 3825 00c0 63684951 		.ascii	"chIQObjectInit\000"
 3825      4F626A65 
 3825      6374496E 
 3825      697400
 3826              	.LASF13:
 3827 00cf 6C6F6E67 		.ascii	"long long unsigned int\000"
 3827      206C6F6E 
 3827      6720756E 
 3827      7369676E 
 3827      65642069 
 3828              	.LASF100:
 3829 00e6 63685F74 		.ascii	"ch_trace_buffer_t\000"
 3829      72616365 
 3829      5F627566 
 3829      6665725F 
 3829      7400
 3830              	.LASF95:
 3831 00f8 73655F73 		.ascii	"se_state\000"
 3831      74617465 
 3831      00
 3832              	.LASF114:
 3833 0101 65786974 		.ascii	"exitcode\000"
 3833      636F6465 
 3833      00
 3834              	.LASF84:
 3835 010a 6D61696E 		.ascii	"mainthread\000"
 3835      74687265 
 3835      616400
 3836              	.LASF71:
 3837 0115 76697274 		.ascii	"virtual_timers_list_t\000"
 3837      75616C5F 
 3837      74696D65 
 3837      72735F6C 
ARM GAS  /tmp/ccBNsr2r.s 			page 70


 3837      6973745F 
 3838              	.LASF168:
 3839 012b 49544D5F 		.ascii	"ITM_RxBuffer\000"
 3839      52784275 
 3839      66666572 
 3839      00
 3840              	.LASF129:
 3841 0138 696F5F71 		.ascii	"io_queue_t\000"
 3841      75657565 
 3841      5F7400
 3842              	.LASF19:
 3843 0143 72747469 		.ascii	"rttime_t\000"
 3843      6D655F74 
 3843      00
 3844              	.LASF32:
 3845 014c 705F7072 		.ascii	"p_prio\000"
 3845      696F00
 3846              	.LASF131:
 3847 0153 715F7761 		.ascii	"q_waiting\000"
 3847      6974696E 
 3847      6700
 3848              	.LASF11:
 3849 015d 6C6F6E67 		.ascii	"long long int\000"
 3849      206C6F6E 
 3849      6720696E 
 3849      7400
 3850              	.LASF1:
 3851 016b 7369676E 		.ascii	"signed char\000"
 3851      65642063 
 3851      68617200 
 3852              	.LASF92:
 3853 0177 73655F74 		.ascii	"se_time\000"
 3853      696D6500 
 3854              	.LASF47:
 3855 017f 705F6D70 		.ascii	"p_mpool\000"
 3855      6F6F6C00 
 3856              	.LASF124:
 3857 0187 6D5F7175 		.ascii	"m_queue\000"
 3857      65756500 
 3858              	.LASF83:
 3859 018f 76746C69 		.ascii	"vtlist\000"
 3859      737400
 3860              	.LASF143:
 3861 0196 706F7274 		.ascii	"port_unlock\000"
 3861      5F756E6C 
 3861      6F636B00 
 3862              	.LASF141:
 3863 01a2 6F757470 		.ascii	"output_queue_t\000"
 3863      75745F71 
 3863      75657565 
 3863      5F7400
 3864              	.LASF116:
 3865 01b1 77747472 		.ascii	"wttrp\000"
 3865      7000
 3866              	.LASF81:
 3867 01b7 63685F73 		.ascii	"ch_system\000"
 3867      79737465 
ARM GAS  /tmp/ccBNsr2r.s 			page 71


 3867      6D00
 3868              	.LASF8:
 3869 01c1 6C6F6E67 		.ascii	"long int\000"
 3869      20696E74 
 3869      00
 3870              	.LASF21:
 3871 01ca 74737461 		.ascii	"tstate_t\000"
 3871      74655F74 
 3871      00
 3872              	.LASF166:
 3873 01d3 63684F51 		.ascii	"chOQGetI\000"
 3873      47657449 
 3873      00
 3874              	.LASF93:
 3875 01dc 73655F74 		.ascii	"se_tp\000"
 3875      7000
 3876              	.LASF133:
 3877 01e2 715F6275 		.ascii	"q_buffer\000"
 3877      66666572 
 3877      00
 3878              	.LASF135:
 3879 01eb 715F7772 		.ascii	"q_wrptr\000"
 3879      70747200 
 3880              	.LASF169:
 3881 01f3 474E5520 		.ascii	"GNU C 4.8.4 20141219 (release) -mcpu=cortex-m4 -mno"
 3881      4320342E 
 3881      382E3420 
 3881      32303134 
 3881      31323139 
 3882 0226 2D746875 		.ascii	"-thumb-interwork -mthumb -ggdb -O0 -fomit-frame-poi"
 3882      6D622D69 
 3882      6E746572 
 3882      776F726B 
 3882      202D6D74 
 3883 0259 6E746572 		.ascii	"nter -falign-functions=16 -ffunction-sections -fdat"
 3883      202D6661 
 3883      6C69676E 
 3883      2D66756E 
 3883      6374696F 
 3884 028c 612D7365 		.ascii	"a-sections -fno-common\000"
 3884      6374696F 
 3884      6E73202D 
 3884      666E6F2D 
 3884      636F6D6D 
 3885              	.LASF34:
 3886 02a3 705F6E65 		.ascii	"p_newer\000"
 3886      77657200 
 3887              	.LASF121:
 3888 02ab 735F7175 		.ascii	"s_queue\000"
 3888      65756500 
 3889              	.LASF97:
 3890 02b3 74625F73 		.ascii	"tb_size\000"
 3890      697A6500 
 3891              	.LASF60:
 3892 02bb 725F6E65 		.ascii	"r_newer\000"
 3892      77657200 
 3893              	.LASF88:
ARM GAS  /tmp/ccBNsr2r.s 			page 72


 3894 02c3 72656761 		.ascii	"regarm_t\000"
 3894      726D5F74 
 3894      00
 3895              	.LASF67:
 3896 02cc 76745F70 		.ascii	"vt_prev\000"
 3896      72657600 
 3897              	.LASF154:
 3898 02d4 6C696E6B 		.ascii	"link\000"
 3898      00
 3899              	.LASF75:
 3900 02d9 63685F73 		.ascii	"ch_system_debug\000"
 3900      79737465 
 3900      6D5F6465 
 3900      62756700 
 3901              	.LASF157:
 3902 02e9 63684951 		.ascii	"chIQPutI\000"
 3902      50757449 
 3902      00
 3903              	.LASF128:
 3904 02f2 6D757465 		.ascii	"mutex_t\000"
 3904      785F7400 
 3905              	.LASF172:
 3906 02fa 76616C75 		.ascii	"value\000"
 3906      6500
 3907              	.LASF78:
 3908 0300 6C6F636B 		.ascii	"lock_cnt\000"
 3908      5F636E74 
 3908      00
 3909              	.LASF86:
 3910 0309 69646C65 		.ascii	"idle_thread_wa\000"
 3910      5F746872 
 3910      6561645F 
 3910      776100
 3911              	.LASF26:
 3912 0318 636E745F 		.ascii	"cnt_t\000"
 3912      7400
 3913              	.LASF37:
 3914 031e 705F7374 		.ascii	"p_stklimit\000"
 3914      6B6C696D 
 3914      697400
 3915              	.LASF0:
 3916 0329 756E7369 		.ascii	"unsigned int\000"
 3916      676E6564 
 3916      20696E74 
 3916      00
 3917              	.LASF66:
 3918 0336 76745F6E 		.ascii	"vt_next\000"
 3918      65787400 
 3919              	.LASF156:
 3920 033e 63684951 		.ascii	"chIQResetI\000"
 3920      52657365 
 3920      744900
 3921              	.LASF117:
 3922 0349 77747365 		.ascii	"wtsemp\000"
 3922      6D7000
 3923              	.LASF42:
 3924 0350 705F6D73 		.ascii	"p_msgqueue\000"
ARM GAS  /tmp/ccBNsr2r.s 			page 73


 3924      67717565 
 3924      756500
 3925              	.LASF159:
 3926 035b 74696D65 		.ascii	"timeout\000"
 3926      6F757400 
 3927              	.LASF108:
 3928 0363 6E5F6972 		.ascii	"n_irq\000"
 3928      7100
 3929              	.LASF122:
 3930 0369 735F636E 		.ascii	"s_cnt\000"
 3930      7400
 3931              	.LASF6:
 3932 036f 73686F72 		.ascii	"short unsigned int\000"
 3932      7420756E 
 3932      7369676E 
 3932      65642069 
 3932      6E7400
 3933              	.LASF112:
 3934 0382 6B65726E 		.ascii	"kernel_stats_t\000"
 3934      656C5F73 
 3934      74617473 
 3934      5F7400
 3935              	.LASF51:
 3936 0391 63685F74 		.ascii	"ch_thread\000"
 3936      68726561 
 3936      6400
 3937              	.LASF24:
 3938 039b 6D73675F 		.ascii	"msg_t\000"
 3938      7400
 3939              	.LASF105:
 3940 03a1 6C617374 		.ascii	"last\000"
 3940      00
 3941              	.LASF27:
 3942 03a6 75636E74 		.ascii	"ucnt_t\000"
 3942      5F7400
 3943              	.LASF80:
 3944 03ad 63685F73 		.ascii	"ch_system_t\000"
 3944      79737465 
 3944      6D5F7400 
 3945              	.LASF20:
 3946 03b9 746D6F64 		.ascii	"tmode_t\000"
 3946      655F7400 
 3947              	.LASF111:
 3948 03c1 6D5F6372 		.ascii	"m_crit_isr\000"
 3948      69745F69 
 3948      737200
 3949              	.LASF56:
 3950 03cc 63685F72 		.ascii	"ch_ready_list\000"
 3950      65616479 
 3950      5F6C6973 
 3950      7400
 3951              	.LASF25:
 3952 03da 6576656E 		.ascii	"eventmask_t\000"
 3952      746D6173 
 3952      6B5F7400 
 3953              	.LASF7:
 3954 03e6 5F5F696E 		.ascii	"__int32_t\000"
ARM GAS  /tmp/ccBNsr2r.s 			page 74


 3954      7433325F 
 3954      7400
 3955              	.LASF89:
 3956 03f0 73746B61 		.ascii	"stkalign_t\000"
 3956      6C69676E 
 3956      5F7400
 3957              	.LASF167:
 3958 03fb 63684F51 		.ascii	"chOQWriteTimeout\000"
 3958      57726974 
 3958      6554696D 
 3958      656F7574 
 3958      00
 3959              	.LASF146:
 3960 040c 63685468 		.ascii	"chThdQueueObjectInit\000"
 3960      64517565 
 3960      75654F62 
 3960      6A656374 
 3960      496E6974 
 3961              	.LASF41:
 3962 0421 705F7761 		.ascii	"p_waiting\000"
 3962      6974696E 
 3962      6700
 3963              	.LASF130:
 3964 042b 696F5F71 		.ascii	"io_queue\000"
 3964      75657565 
 3964      00
 3965              	.LASF87:
 3966 0434 73697A65 		.ascii	"sizetype\000"
 3966      74797065 
 3966      00
 3967              	.LASF49:
 3968 043d 74687265 		.ascii	"thread_reference_t\000"
 3968      61645F72 
 3968      65666572 
 3968      656E6365 
 3968      5F7400
 3969              	.LASF72:
 3970 0450 63685F76 		.ascii	"ch_virtual_timers_list\000"
 3970      69727475 
 3970      616C5F74 
 3970      696D6572 
 3970      735F6C69 
 3971              	.LASF132:
 3972 0467 715F636F 		.ascii	"q_counter\000"
 3972      756E7465 
 3972      7200
 3973              	.LASF96:
 3974 0471 63685F73 		.ascii	"ch_swc_event_t\000"
 3974      77635F65 
 3974      76656E74 
 3974      5F7400
 3975              	.LASF73:
 3976 0480 76745F6C 		.ascii	"vt_lasttime\000"
 3976      61737474 
 3976      696D6500 
 3977              	.LASF35:
 3978 048c 705F6F6C 		.ascii	"p_older\000"
ARM GAS  /tmp/ccBNsr2r.s 			page 75


 3978      64657200 
 3979              	.LASF59:
 3980 0494 725F6374 		.ascii	"r_ctx\000"
 3980      7800
 3981              	.LASF102:
 3982 049a 746D5F63 		.ascii	"tm_calibration_t\000"
 3982      616C6962 
 3982      72617469 
 3982      6F6E5F74 
 3982      00
 3983              	.LASF62:
 3984 04ab 725F6375 		.ascii	"r_current\000"
 3984      7272656E 
 3984      7400
 3985              	.LASF61:
 3986 04b5 725F6F6C 		.ascii	"r_older\000"
 3986      64657200 
 3987              	.LASF12:
 3988 04bd 5F5F7569 		.ascii	"__uint64_t\000"
 3988      6E743634 
 3988      5F7400
 3989              	.LASF106:
 3990 04c8 63756D75 		.ascii	"cumulative\000"
 3990      6C617469 
 3990      766500
 3991              	.LASF22:
 3992 04d3 74726566 		.ascii	"trefs_t\000"
 3992      735F7400 
 3993              	.LASF99:
 3994 04db 74625F62 		.ascii	"tb_buffer\000"
 3994      75666665 
 3994      7200
 3995              	.LASF139:
 3996 04e5 716E6F74 		.ascii	"qnotify_t\000"
 3996      6966795F 
 3996      7400
 3997              	.LASF64:
 3998 04ef 76697274 		.ascii	"virtual_timer_t\000"
 3998      75616C5F 
 3998      74696D65 
 3998      725F7400 
 3999              	.LASF31:
 4000 04ff 705F7072 		.ascii	"p_prev\000"
 4000      657600
 4001              	.LASF151:
 4002 0506 63684F51 		.ascii	"chOQIsFullI\000"
 4002      49734675 
 4002      6C6C4900 
 4003              	.LASF23:
 4004 0512 74707269 		.ascii	"tprio_t\000"
 4004      6F5F7400 
 4005              	.LASF136:
 4006 051a 715F7264 		.ascii	"q_rdptr\000"
 4006      70747200 
 4007              	.LASF109:
 4008 0522 6E5F6374 		.ascii	"n_ctxswc\000"
 4008      78737763 
ARM GAS  /tmp/ccBNsr2r.s 			page 76


 4008      00
 4009              	.LASF147:
 4010 052b 5F426F6F 		.ascii	"_Bool\000"
 4010      6C00
 4011              	.LASF15:
 4012 0531 696E7433 		.ascii	"int32_t\000"
 4012      325F7400 
 4013              	.LASF4:
 4014 0539 756E7369 		.ascii	"unsigned char\000"
 4014      676E6564 
 4014      20636861 
 4014      7200
 4015              	.LASF140:
 4016 0547 696E7075 		.ascii	"input_queue_t\000"
 4016      745F7175 
 4016      6575655F 
 4016      7400
 4017              	.LASF38:
 4018 0555 705F7374 		.ascii	"p_state\000"
 4018      61746500 
 4019              	.LASF45:
 4020 055d 705F6D74 		.ascii	"p_mtxlist\000"
 4020      786C6973 
 4020      7400
 4021              	.LASF5:
 4022 0567 73686F72 		.ascii	"short int\000"
 4022      7420696E 
 4022      7400
 4023              	.LASF58:
 4024 0571 725F7072 		.ascii	"r_prio\000"
 4024      696F00
 4025              	.LASF119:
 4026 0578 65776D61 		.ascii	"ewmask\000"
 4026      736B00
 4027              	.LASF30:
 4028 057f 705F6E65 		.ascii	"p_next\000"
 4028      787400
 4029              	.LASF153:
 4030 0586 696E6679 		.ascii	"infy\000"
 4030      00
 4031              	.LASF39:
 4032 058b 705F666C 		.ascii	"p_flags\000"
 4032      61677300 
 4033              	.LASF161:
 4034 0593 5F5F6675 		.ascii	"__func__\000"
 4034      6E635F5F 
 4034      00
 4035              	.LASF48:
 4036 059c 705F7374 		.ascii	"p_stats\000"
 4036      61747300 
 4037              	.LASF173:
 4038 05a4 63685379 		.ascii	"chSysLock\000"
 4038      734C6F63 
 4038      6B00
 4039              	.LASF53:
 4040 05ae 74687265 		.ascii	"threads_queue_t\000"
 4040      6164735F 
ARM GAS  /tmp/ccBNsr2r.s 			page 77


 4040      71756575 
 4040      655F7400 
 4041              	.LASF65:
 4042 05be 63685F76 		.ascii	"ch_virtual_timer\000"
 4042      69727475 
 4042      616C5F74 
 4042      696D6572 
 4042      00
 4043              	.LASF120:
 4044 05cf 63685F73 		.ascii	"ch_semaphore\000"
 4044      656D6170 
 4044      686F7265 
 4044      00
 4045              	.LASF44:
 4046 05dc 705F6570 		.ascii	"p_epending\000"
 4046      656E6469 
 4046      6E6700
 4047              	.LASF149:
 4048 05e7 63684951 		.ascii	"chIQIsFullI\000"
 4048      49734675 
 4048      6C6C4900 
 4049              	.LASF16:
 4050 05f3 75696E74 		.ascii	"uint32_t\000"
 4050      33325F74 
 4050      00
 4051              	.LASF118:
 4052 05fc 77746D74 		.ascii	"wtmtxp\000"
 4052      787000
 4053              	.LASF57:
 4054 0603 725F7175 		.ascii	"r_queue\000"
 4054      65756500 
 4055              	.LASF68:
 4056 060b 76745F64 		.ascii	"vt_delta\000"
 4056      656C7461 
 4056      00
 4057              	.LASF52:
 4058 0614 63685F74 		.ascii	"ch_threads_list\000"
 4058      68726561 
 4058      64735F6C 
 4058      69737400 
 4059              	.LASF10:
 4060 0624 6C6F6E67 		.ascii	"long unsigned int\000"
 4060      20756E73 
 4060      69676E65 
 4060      6420696E 
 4060      7400
 4061              	.LASF127:
 4062 0636 63686172 		.ascii	"char\000"
 4062      00
 4063              	.LASF148:
 4064 063b 63684951 		.ascii	"chIQIsEmptyI\000"
 4064      4973456D 
 4064      70747949 
 4064      00
 4065              	.LASF29:
 4066 0648 74687265 		.ascii	"thread_t\000"
 4066      61645F74 
ARM GAS  /tmp/ccBNsr2r.s 			page 78


 4066      00
 4067              	.LASF103:
 4068 0651 62657374 		.ascii	"best\000"
 4068      00
 4069              	.LASF126:
 4070 0656 6D5F6E65 		.ascii	"m_next\000"
 4070      787400
 4071              	.LASF28:
 4072 065d 73797374 		.ascii	"systime_t\000"
 4072      696D655F 
 4072      7400
 4073              	.LASF46:
 4074 0667 705F7265 		.ascii	"p_realprio\000"
 4074      616C7072 
 4074      696F00
 4075              	.LASF63:
 4076 0672 76746675 		.ascii	"vtfunc_t\000"
 4076      6E635F74 
 4076      00
 4077              	.LASF9:
 4078 067b 5F5F7569 		.ascii	"__uint32_t\000"
 4078      6E743332 
 4078      5F7400
 4079              	.LASF171:
 4080 0686 5F5F7365 		.ascii	"__set_BASEPRI\000"
 4080      745F4241 
 4080      53455052 
 4080      4900
 4081              	.LASF76:
 4082 0694 70616E69 		.ascii	"panic_msg\000"
 4082      635F6D73 
 4082      6700
 4083              	.LASF101:
 4084 069e 6F666673 		.ascii	"offset\000"
 4084      657400
 4085              	.LASF164:
 4086 06a5 63684F51 		.ascii	"chOQResetI\000"
 4086      52657365 
 4086      744900
 4087              	.LASF90:
 4088 06b0 636F6E74 		.ascii	"context\000"
 4088      65787400 
 4089              	.LASF18:
 4090 06b8 7274636E 		.ascii	"rtcnt_t\000"
 4090      745F7400 
 4091              	.LASF70:
 4092 06c0 76745F70 		.ascii	"vt_par\000"
 4092      617200
 4093              	.LASF162:
 4094 06c7 63684F51 		.ascii	"chOQObjectInit\000"
 4094      4F626A65 
 4094      6374496E 
 4094      697400
 4095              	.LASF134:
 4096 06d6 715F746F 		.ascii	"q_top\000"
 4096      7000
 4097              	.LASF123:
ARM GAS  /tmp/ccBNsr2r.s 			page 79


 4098 06dc 63685F6D 		.ascii	"ch_mutex\000"
 4098      75746578 
 4098      00
 4099              	.LASF40:
 4100 06e5 705F7265 		.ascii	"p_refs\000"
 4100      667300
 4101              	.LASF77:
 4102 06ec 6973725F 		.ascii	"isr_cnt\000"
 4102      636E7400 
 4103              	.LASF170:
 4104 06f4 2F686F6D 		.ascii	"/home/efe/ChibiOS/os/rt/src/chqueues.c\000"
 4104      652F6566 
 4104      652F4368 
 4104      6962694F 
 4104      532F6F73 
 4105              	.LASF137:
 4106 071b 715F6E6F 		.ascii	"q_notify\000"
 4106      74696679 
 4106      00
 4107              	.LASF82:
 4108 0724 726C6973 		.ascii	"rlist\000"
 4108      7400
 4109              	.LASF14:
 4110 072a 75696E74 		.ascii	"uint8_t\000"
 4110      385F7400 
 4111              	.LASF115:
 4112 0732 77746F62 		.ascii	"wtobjp\000"
 4112      6A7000
 4113              	.LASF36:
 4114 0739 705F6E61 		.ascii	"p_name\000"
 4114      6D6500
 4115              	.LASF152:
 4116 0740 73697A65 		.ascii	"size\000"
 4116      00
 4117              	.LASF150:
 4118 0745 63684F51 		.ascii	"chOQIsEmptyI\000"
 4118      4973456D 
 4118      70747949 
 4118      00
 4119              	.LASF50:
 4120 0752 74687265 		.ascii	"threads_list_t\000"
 4120      6164735F 
 4120      6C697374 
 4120      5F7400
 4121              	.LASF79:
 4122 0761 74726163 		.ascii	"trace_buffer\000"
 4122      655F6275 
 4122      66666572 
 4122      00
 4123              	.LASF145:
 4124 076e 63685379 		.ascii	"chSysUnlock\000"
 4124      73556E6C 
 4124      6F636B00 
 4125              	.LASF43:
 4126 077a 705F6D73 		.ascii	"p_msg\000"
 4126      6700
 4127              	.LASF138:
ARM GAS  /tmp/ccBNsr2r.s 			page 80


 4128 0780 715F6C69 		.ascii	"q_link\000"
 4128      6E6B00
 4129              	.LASF110:
 4130 0787 6D5F6372 		.ascii	"m_crit_thd\000"
 4130      69745F74 
 4130      686400
 4131              	.LASF125:
 4132 0792 6D5F6F77 		.ascii	"m_owner\000"
 4132      6E657200 
 4133              	.LASF94:
 4134 079a 73655F77 		.ascii	"se_wtobjp\000"
 4134      746F626A 
 4134      7000
 4135              	.LASF33:
 4136 07a4 705F6374 		.ascii	"p_ctx\000"
 4136      7800
 4137              	.LASF69:
 4138 07aa 76745F66 		.ascii	"vt_func\000"
 4138      756E6300 
 4139              	.LASF158:
 4140 07b2 63684951 		.ascii	"chIQGetTimeout\000"
 4140      47657454 
 4140      696D656F 
 4140      757400
 4141              		.ident	"GCC: (4.8.4-1+11-1) 4.8.4 20141219 (release)"
ARM GAS  /tmp/ccBNsr2r.s 			page 81


DEFINED SYMBOLS
                            *ABS*:0000000000000000 chqueues.c
     /tmp/ccBNsr2r.s:19     .text.port_lock:0000000000000000 $t
     /tmp/ccBNsr2r.s:24     .text.port_lock:0000000000000000 port_lock
     /tmp/ccBNsr2r.s:55     .text.port_unlock:0000000000000000 $t
     /tmp/ccBNsr2r.s:60     .text.port_unlock:0000000000000000 port_unlock
     /tmp/ccBNsr2r.s:89     .text.queue_init:0000000000000000 $t
     /tmp/ccBNsr2r.s:94     .text.queue_init:0000000000000000 queue_init
     /tmp/ccBNsr2r.s:121    .text.chSysLock:0000000000000000 $t
     /tmp/ccBNsr2r.s:126    .text.chSysLock:0000000000000000 chSysLock
     /tmp/ccBNsr2r.s:149    .text.chSysUnlock:0000000000000000 $t
     /tmp/ccBNsr2r.s:154    .text.chSysUnlock:0000000000000000 chSysUnlock
     /tmp/ccBNsr2r.s:193    .text.chSysUnlock:0000000000000030 $d
     /tmp/ccBNsr2r.s:1258   .rodata.__func__.5925:0000000000000000 __func__.5925
     /tmp/ccBNsr2r.s:199    .text.chThdQueueObjectInit:0000000000000000 $t
     /tmp/ccBNsr2r.s:204    .text.chThdQueueObjectInit:0000000000000000 chThdQueueObjectInit
     /tmp/ccBNsr2r.s:228    .text.chIQIsEmptyI:0000000000000000 $t
     /tmp/ccBNsr2r.s:233    .text.chIQIsEmptyI:0000000000000000 chIQIsEmptyI
     /tmp/ccBNsr2r.s:265    .text.chIQIsFullI:0000000000000000 $t
     /tmp/ccBNsr2r.s:270    .text.chIQIsFullI:0000000000000000 chIQIsFullI
     /tmp/ccBNsr2r.s:315    .text.chOQIsEmptyI:0000000000000000 $t
     /tmp/ccBNsr2r.s:320    .text.chOQIsEmptyI:0000000000000000 chOQIsEmptyI
     /tmp/ccBNsr2r.s:365    .text.chOQIsFullI:0000000000000000 $t
     /tmp/ccBNsr2r.s:370    .text.chOQIsFullI:0000000000000000 chOQIsFullI
     /tmp/ccBNsr2r.s:401    .text.chIQObjectInit:0000000000000000 $t
     /tmp/ccBNsr2r.s:407    .text.chIQObjectInit:0000000000000000 chIQObjectInit
     /tmp/ccBNsr2r.s:465    .text.chIQResetI:0000000000000000 $t
     /tmp/ccBNsr2r.s:471    .text.chIQResetI:0000000000000000 chIQResetI
     /tmp/ccBNsr2r.s:512    .text.chIQPutI:0000000000000000 $t
     /tmp/ccBNsr2r.s:518    .text.chIQPutI:0000000000000000 chIQPutI
     /tmp/ccBNsr2r.s:588    .text.chIQGetTimeout:0000000000000000 $t
     /tmp/ccBNsr2r.s:594    .text.chIQGetTimeout:0000000000000000 chIQGetTimeout
     /tmp/ccBNsr2r.s:689    .text.chIQReadTimeout:0000000000000000 $t
     /tmp/ccBNsr2r.s:695    .text.chIQReadTimeout:0000000000000000 chIQReadTimeout
     /tmp/ccBNsr2r.s:821    .text.chIQReadTimeout:00000000000000b4 $d
     /tmp/ccBNsr2r.s:1264   .rodata.__func__.6648:0000000000000000 __func__.6648
     /tmp/ccBNsr2r.s:826    .text.chOQObjectInit:0000000000000000 $t
     /tmp/ccBNsr2r.s:832    .text.chOQObjectInit:0000000000000000 chOQObjectInit
     /tmp/ccBNsr2r.s:889    .text.chOQResetI:0000000000000000 $t
     /tmp/ccBNsr2r.s:895    .text.chOQResetI:0000000000000000 chOQResetI
     /tmp/ccBNsr2r.s:942    .text.chOQPutTimeout:0000000000000000 $t
     /tmp/ccBNsr2r.s:948    .text.chOQPutTimeout:0000000000000000 chOQPutTimeout
     /tmp/ccBNsr2r.s:1044   .text.chOQGetI:0000000000000000 $t
     /tmp/ccBNsr2r.s:1050   .text.chOQGetI:0000000000000000 chOQGetI
     /tmp/ccBNsr2r.s:1118   .text.chOQWriteTimeout:0000000000000000 $t
     /tmp/ccBNsr2r.s:1124   .text.chOQWriteTimeout:0000000000000000 chOQWriteTimeout
     /tmp/ccBNsr2r.s:1250   .text.chOQWriteTimeout:00000000000000b4 $d
     /tmp/ccBNsr2r.s:1270   .rodata.__func__.6684:0000000000000000 __func__.6684
     /tmp/ccBNsr2r.s:1255   .rodata.__func__.5925:0000000000000000 $d
     /tmp/ccBNsr2r.s:1261   .rodata.__func__.6648:0000000000000000 $d
     /tmp/ccBNsr2r.s:1267   .rodata.__func__.6684:0000000000000000 $d
                     .debug_frame:0000000000000010 $d
     /tmp/ccBNsr2r.s:198    .text.chSysUnlock:0000000000000038 $t
     /tmp/ccBNsr2r.s:825    .text.chIQReadTimeout:00000000000000b8 $t
     /tmp/ccBNsr2r.s:1254   .text.chOQWriteTimeout:00000000000000b8 $t

UNDEFINED SYMBOLS
ARM GAS  /tmp/ccBNsr2r.s 			page 82


_stats_start_measure_crit_thd
_dbg_check_lock
_dbg_check_unlock
_stats_stop_measure_crit_thd
chSysHalt
ch
chDbgCheckClassI
chThdDequeueAllI
chThdDequeueNextI
chThdEnqueueTimeoutS
