ARM GAS  /tmp/cc2TbXnd.s 			page 1


   1              		.syntax unified
   2              		.cpu cortex-m4
   3              		.fpu softvfp
   4              		.eabi_attribute 20, 1
   5              		.eabi_attribute 21, 1
   6              		.eabi_attribute 23, 3
   7              		.eabi_attribute 24, 1
   8              		.eabi_attribute 25, 1
   9              		.eabi_attribute 26, 1
  10              		.eabi_attribute 30, 6
  11              		.eabi_attribute 34, 1
  12              		.eabi_attribute 18, 4
  13              		.thumb
  14              		.file	"chschd.c"
  15              		.text
  16              	.Ltext0:
  17              		.cfi_sections	.debug_frame
  18              		.section	.text.port_lock,"ax",%progbits
  19              		.align	2
  20              		.p2align 4,,15
  21              		.thumb
  22              		.thumb_func
  23              		.type	port_lock, %function
  24              	port_lock:
  25              	.LFB127:
  26              		.file 1 "/home/efe/ChibiOS/os/rt/ports/ARMCMx/chcore_v7m.h"
  27              		.loc 1 456 0
  28              		.cfi_startproc
  29              		@ args = 0, pretend = 0, frame = 8
  30              		@ frame_needed = 0, uses_anonymous_args = 0
  31              		@ link register save eliminated.
  32 0000 82B0     		sub	sp, sp, #8
  33              		.cfi_def_cfa_offset 8
  34 0002 2023     		movs	r3, #32
  35 0004 0193     		str	r3, [sp, #4]
  36              	.LBB19:
  37              	.LBB20:
  38              		.file 2 "/home/efe/ChibiOS/os/ext/CMSIS/include/core_cmFunc.h"
  39              		.loc 2 548 0
  40 0006 019B     		ldr	r3, [sp, #4]
  41              	@ 548 "/home/efe/ChibiOS/os/ext/CMSIS/include/core_cmFunc.h" 1
  42 0008 83F31188 		MSR basepri, r3
  43              	@ 0 "" 2
  44              		.thumb
  45              	.LBE20:
  46              	.LBE19:
  47              		.loc 1 463 0
  48 000c 02B0     		add	sp, sp, #8
  49              		@ sp needed
  50 000e 7047     		bx	lr
  51              		.cfi_endproc
  52              	.LFE127:
  53              		.size	port_lock, .-port_lock
  54              		.section	.text.port_unlock,"ax",%progbits
  55              		.align	2
  56              		.p2align 4,,15
  57              		.thumb
ARM GAS  /tmp/cc2TbXnd.s 			page 2


  58              		.thumb_func
  59              		.type	port_unlock, %function
  60              	port_unlock:
  61              	.LFB128:
  62              		.loc 1 470 0
  63              		.cfi_startproc
  64              		@ args = 0, pretend = 0, frame = 8
  65              		@ frame_needed = 0, uses_anonymous_args = 0
  66              		@ link register save eliminated.
  67 0000 82B0     		sub	sp, sp, #8
  68              		.cfi_def_cfa_offset 8
  69 0002 0023     		movs	r3, #0
  70 0004 0193     		str	r3, [sp, #4]
  71              	.LBB21:
  72              	.LBB22:
  73              		.loc 2 548 0
  74 0006 019B     		ldr	r3, [sp, #4]
  75              	@ 548 "/home/efe/ChibiOS/os/ext/CMSIS/include/core_cmFunc.h" 1
  76 0008 83F31188 		MSR basepri, r3
  77              	@ 0 "" 2
  78              		.thumb
  79              	.LBE22:
  80              	.LBE21:
  81              		.loc 1 477 0
  82 000c 02B0     		add	sp, sp, #8
  83              		@ sp needed
  84 000e 7047     		bx	lr
  85              		.cfi_endproc
  86              	.LFE128:
  87              		.size	port_unlock, .-port_unlock
  88              		.section	.text.port_lock_from_isr,"ax",%progbits
  89              		.align	2
  90              		.p2align 4,,15
  91              		.thumb
  92              		.thumb_func
  93              		.type	port_lock_from_isr, %function
  94              	port_lock_from_isr:
  95              	.LFB129:
  96              		.loc 1 485 0
  97              		.cfi_startproc
  98              		@ args = 0, pretend = 0, frame = 0
  99              		@ frame_needed = 0, uses_anonymous_args = 0
 100 0000 08B5     		push	{r3, lr}
 101              		.cfi_def_cfa_offset 8
 102              		.cfi_offset 3, -8
 103              		.cfi_offset 14, -4
 104              		.loc 1 487 0
 105 0002 FFF7FEFF 		bl	port_lock
 106              		.loc 1 488 0
 107 0006 08BD     		pop	{r3, pc}
 108              		.cfi_endproc
 109              	.LFE129:
 110              		.size	port_lock_from_isr, .-port_lock_from_isr
 111 0008 AFF30080 		.section	.text.port_unlock_from_isr,"ax",%progbits
 111      AFF30080 
 112              		.align	2
 113              		.p2align 4,,15
ARM GAS  /tmp/cc2TbXnd.s 			page 3


 114              		.thumb
 115              		.thumb_func
 116              		.type	port_unlock_from_isr, %function
 117              	port_unlock_from_isr:
 118              	.LFB130:
 119              		.loc 1 496 0
 120              		.cfi_startproc
 121              		@ args = 0, pretend = 0, frame = 0
 122              		@ frame_needed = 0, uses_anonymous_args = 0
 123 0000 08B5     		push	{r3, lr}
 124              		.cfi_def_cfa_offset 8
 125              		.cfi_offset 3, -8
 126              		.cfi_offset 14, -4
 127              		.loc 1 498 0
 128 0002 FFF7FEFF 		bl	port_unlock
 129              		.loc 1 499 0
 130 0006 08BD     		pop	{r3, pc}
 131              		.cfi_endproc
 132              	.LFE130:
 133              		.size	port_unlock_from_isr, .-port_unlock_from_isr
 134 0008 AFF30080 		.section	.text.queue_init,"ax",%progbits
 134      AFF30080 
 135              		.align	2
 136              		.p2align 4,,15
 137              		.thumb
 138              		.thumb_func
 139              		.type	queue_init, %function
 140              	queue_init:
 141              	.LFB150:
 142              		.file 3 "/home/efe/ChibiOS/os/rt/include/chschd.h"
 143              		.loc 3 602 0
 144              		.cfi_startproc
 145              		@ args = 0, pretend = 0, frame = 8
 146              		@ frame_needed = 0, uses_anonymous_args = 0
 147              		@ link register save eliminated.
 148 0000 82B0     		sub	sp, sp, #8
 149              		.cfi_def_cfa_offset 8
 150 0002 0190     		str	r0, [sp, #4]
 151              		.loc 3 604 0
 152 0004 019B     		ldr	r3, [sp, #4]
 153 0006 019A     		ldr	r2, [sp, #4]
 154 0008 1A60     		str	r2, [r3]
 155              		.loc 3 605 0
 156 000a 019B     		ldr	r3, [sp, #4]
 157 000c 019A     		ldr	r2, [sp, #4]
 158 000e 5A60     		str	r2, [r3, #4]
 159              		.loc 3 606 0
 160 0010 02B0     		add	sp, sp, #8
 161              		@ sp needed
 162 0012 7047     		bx	lr
 163              		.cfi_endproc
 164              	.LFE150:
 165              		.size	queue_init, .-queue_init
 166 0014 AFF30080 		.section	.text.queue_fifo_remove,"ax",%progbits
 166      AFF30080 
 166      AFF30080 
 167              		.align	2
ARM GAS  /tmp/cc2TbXnd.s 			page 4


 168              		.p2align 4,,15
 169              		.thumb
 170              		.thumb_func
 171              		.type	queue_fifo_remove, %function
 172              	queue_fifo_remove:
 173              	.LFB157:
 174              		.loc 3 671 0
 175              		.cfi_startproc
 176              		@ args = 0, pretend = 0, frame = 16
 177              		@ frame_needed = 0, uses_anonymous_args = 0
 178              		@ link register save eliminated.
 179 0000 84B0     		sub	sp, sp, #16
 180              		.cfi_def_cfa_offset 16
 181 0002 0190     		str	r0, [sp, #4]
 182              		.loc 3 672 0
 183 0004 019B     		ldr	r3, [sp, #4]
 184 0006 1B68     		ldr	r3, [r3]
 185 0008 0393     		str	r3, [sp, #12]
 186              		.loc 3 674 0
 187 000a 039B     		ldr	r3, [sp, #12]
 188 000c 1A68     		ldr	r2, [r3]
 189 000e 019B     		ldr	r3, [sp, #4]
 190 0010 1A60     		str	r2, [r3]
 191              		.loc 3 675 0
 192 0012 019B     		ldr	r3, [sp, #4]
 193 0014 1B68     		ldr	r3, [r3]
 194 0016 019A     		ldr	r2, [sp, #4]
 195 0018 5A60     		str	r2, [r3, #4]
 196              		.loc 3 677 0
 197 001a 039B     		ldr	r3, [sp, #12]
 198              		.loc 3 678 0
 199 001c 1846     		mov	r0, r3
 200 001e 04B0     		add	sp, sp, #16
 201              		@ sp needed
 202 0020 7047     		bx	lr
 203              		.cfi_endproc
 204              	.LFE157:
 205              		.size	queue_fifo_remove, .-queue_fifo_remove
 206 0022 00BFAFF3 		.section	.text.queue_dequeue,"ax",%progbits
 206      0080AFF3 
 206      0080AFF3 
 206      0080
 207              		.align	2
 208              		.p2align 4,,15
 209              		.thumb
 210              		.thumb_func
 211              		.type	queue_dequeue, %function
 212              	queue_dequeue:
 213              	.LFB159:
 214              		.loc 3 689 0
 215              		.cfi_startproc
 216              		@ args = 0, pretend = 0, frame = 8
 217              		@ frame_needed = 0, uses_anonymous_args = 0
 218              		@ link register save eliminated.
 219 0000 82B0     		sub	sp, sp, #8
 220              		.cfi_def_cfa_offset 8
 221 0002 0190     		str	r0, [sp, #4]
ARM GAS  /tmp/cc2TbXnd.s 			page 5


 222              		.loc 3 691 0
 223 0004 019B     		ldr	r3, [sp, #4]
 224 0006 5B68     		ldr	r3, [r3, #4]
 225 0008 019A     		ldr	r2, [sp, #4]
 226 000a 1268     		ldr	r2, [r2]
 227 000c 1A60     		str	r2, [r3]
 228              		.loc 3 692 0
 229 000e 019B     		ldr	r3, [sp, #4]
 230 0010 1B68     		ldr	r3, [r3]
 231 0012 019A     		ldr	r2, [sp, #4]
 232 0014 5268     		ldr	r2, [r2, #4]
 233 0016 5A60     		str	r2, [r3, #4]
 234              		.loc 3 694 0
 235 0018 019B     		ldr	r3, [sp, #4]
 236              		.loc 3 695 0
 237 001a 1846     		mov	r0, r3
 238 001c 02B0     		add	sp, sp, #8
 239              		@ sp needed
 240 001e 7047     		bx	lr
 241              		.cfi_endproc
 242              	.LFE159:
 243              		.size	queue_dequeue, .-queue_dequeue
 244              		.section	.text.chSchIsRescRequiredI,"ax",%progbits
 245              		.align	2
 246              		.p2align 4,,15
 247              		.thumb
 248              		.thumb_func
 249              		.type	chSchIsRescRequiredI, %function
 250              	chSchIsRescRequiredI:
 251              	.LFB160:
 252              		.loc 3 709 0
 253              		.cfi_startproc
 254              		@ args = 0, pretend = 0, frame = 0
 255              		@ frame_needed = 0, uses_anonymous_args = 0
 256 0000 08B5     		push	{r3, lr}
 257              		.cfi_def_cfa_offset 8
 258              		.cfi_offset 3, -8
 259              		.cfi_offset 14, -4
 260              		.loc 3 711 0
 261 0002 FFF7FEFF 		bl	chDbgCheckClassI
 262              		.loc 3 713 0
 263 0006 064B     		ldr	r3, .L12
 264 0008 1B68     		ldr	r3, [r3]
 265 000a 9A68     		ldr	r2, [r3, #8]
 266 000c 044B     		ldr	r3, .L12
 267 000e 9B69     		ldr	r3, [r3, #24]
 268 0010 9B68     		ldr	r3, [r3, #8]
 269 0012 9A42     		cmp	r2, r3
 270 0014 94BF     		ite	ls
 271 0016 0023     		movls	r3, #0
 272 0018 0123     		movhi	r3, #1
 273 001a DBB2     		uxtb	r3, r3
 274              		.loc 3 714 0
 275 001c 1846     		mov	r0, r3
 276 001e 08BD     		pop	{r3, pc}
 277              	.L13:
 278              		.align	2
ARM GAS  /tmp/cc2TbXnd.s 			page 6


 279              	.L12:
 280 0020 00000000 		.word	ch
 281              		.cfi_endproc
 282              	.LFE160:
 283              		.size	chSchIsRescRequiredI, .-chSchIsRescRequiredI
 284 0024 AFF30080 		.section	.text.chSysLockFromISR,"ax",%progbits
 284      AFF30080 
 284      AFF30080 
 285              		.align	2
 286              		.p2align 4,,15
 287              		.thumb
 288              		.thumb_func
 289              		.type	chSysLockFromISR, %function
 290              	chSysLockFromISR:
 291              	.LFB169:
 292              		.file 4 "/home/efe/ChibiOS/os/rt/include/chsys.h"
 293              		.loc 4 386 0
 294              		.cfi_startproc
 295              		@ args = 0, pretend = 0, frame = 0
 296              		@ frame_needed = 0, uses_anonymous_args = 0
 297 0000 08B5     		push	{r3, lr}
 298              		.cfi_def_cfa_offset 8
 299              		.cfi_offset 3, -8
 300              		.cfi_offset 14, -4
 301              		.loc 4 388 0
 302 0002 FFF7FEFF 		bl	port_lock_from_isr
 303              		.loc 4 389 0
 304 0006 FFF7FEFF 		bl	_stats_start_measure_crit_isr
 305              		.loc 4 390 0
 306 000a FFF7FEFF 		bl	_dbg_check_lock_from_isr
 307              		.loc 4 391 0
 308 000e 08BD     		pop	{r3, pc}
 309              		.cfi_endproc
 310              	.LFE169:
 311              		.size	chSysLockFromISR, .-chSysLockFromISR
 312              		.section	.text.chSysUnlockFromISR,"ax",%progbits
 313              		.align	2
 314              		.p2align 4,,15
 315              		.thumb
 316              		.thumb_func
 317              		.type	chSysUnlockFromISR, %function
 318              	chSysUnlockFromISR:
 319              	.LFB170:
 320              		.loc 4 406 0
 321              		.cfi_startproc
 322              		@ args = 0, pretend = 0, frame = 0
 323              		@ frame_needed = 0, uses_anonymous_args = 0
 324 0000 08B5     		push	{r3, lr}
 325              		.cfi_def_cfa_offset 8
 326              		.cfi_offset 3, -8
 327              		.cfi_offset 14, -4
 328              		.loc 4 408 0
 329 0002 FFF7FEFF 		bl	_dbg_check_unlock_from_isr
 330              		.loc 4 409 0
 331 0006 FFF7FEFF 		bl	_stats_stop_measure_crit_isr
 332              		.loc 4 410 0
 333 000a FFF7FEFF 		bl	port_unlock_from_isr
ARM GAS  /tmp/cc2TbXnd.s 			page 7


 334              		.loc 4 411 0
 335 000e 08BD     		pop	{r3, pc}
 336              		.cfi_endproc
 337              	.LFE170:
 338              		.size	chSysUnlockFromISR, .-chSysUnlockFromISR
 339              		.section	.text.chVTIsArmedI,"ax",%progbits
 340              		.align	2
 341              		.p2align 4,,15
 342              		.thumb
 343              		.thumb_func
 344              		.type	chVTIsArmedI, %function
 345              	chVTIsArmedI:
 346              	.LFB181:
 347              		.file 5 "/home/efe/ChibiOS/os/rt/include/chvt.h"
 348              		.loc 5 337 0
 349              		.cfi_startproc
 350              		@ args = 0, pretend = 0, frame = 8
 351              		@ frame_needed = 0, uses_anonymous_args = 0
 352 0000 00B5     		push	{lr}
 353              		.cfi_def_cfa_offset 4
 354              		.cfi_offset 14, -4
 355 0002 83B0     		sub	sp, sp, #12
 356              		.cfi_def_cfa_offset 16
 357 0004 0190     		str	r0, [sp, #4]
 358              		.loc 5 339 0
 359 0006 FFF7FEFF 		bl	chDbgCheckClassI
 360              		.loc 5 341 0
 361 000a 019B     		ldr	r3, [sp, #4]
 362 000c DB68     		ldr	r3, [r3, #12]
 363 000e 002B     		cmp	r3, #0
 364 0010 0CBF     		ite	eq
 365 0012 0023     		moveq	r3, #0
 366 0014 0123     		movne	r3, #1
 367 0016 DBB2     		uxtb	r3, r3
 368              		.loc 5 342 0
 369 0018 1846     		mov	r0, r3
 370 001a 03B0     		add	sp, sp, #12
 371              		@ sp needed
 372 001c 5DF804FB 		ldr	pc, [sp], #4
 373              		.cfi_endproc
 374              	.LFE181:
 375              		.size	chVTIsArmedI, .-chVTIsArmedI
 376              		.section	.text.chSemFastSignalI,"ax",%progbits
 377              		.align	2
 378              		.p2align 4,,15
 379              		.thumb
 380              		.thumb_func
 381              		.type	chSemFastSignalI, %function
 382              	chSemFastSignalI:
 383              	.LFB201:
 384              		.file 6 "/home/efe/ChibiOS/os/rt/include/chsem.h"
 385              		.loc 6 134 0
 386              		.cfi_startproc
 387              		@ args = 0, pretend = 0, frame = 8
 388              		@ frame_needed = 0, uses_anonymous_args = 0
 389 0000 00B5     		push	{lr}
 390              		.cfi_def_cfa_offset 4
ARM GAS  /tmp/cc2TbXnd.s 			page 8


 391              		.cfi_offset 14, -4
 392 0002 83B0     		sub	sp, sp, #12
 393              		.cfi_def_cfa_offset 16
 394 0004 0190     		str	r0, [sp, #4]
 395              		.loc 6 136 0
 396 0006 FFF7FEFF 		bl	chDbgCheckClassI
 397              		.loc 6 138 0
 398 000a 019B     		ldr	r3, [sp, #4]
 399 000c 9B68     		ldr	r3, [r3, #8]
 400 000e 5A1C     		adds	r2, r3, #1
 401 0010 019B     		ldr	r3, [sp, #4]
 402 0012 9A60     		str	r2, [r3, #8]
 403              		.loc 6 139 0
 404 0014 03B0     		add	sp, sp, #12
 405              		@ sp needed
 406 0016 5DF804FB 		ldr	pc, [sp], #4
 407              		.cfi_endproc
 408              	.LFE201:
 409              		.size	chSemFastSignalI, .-chSemFastSignalI
 410              		.global	ch
 411 001a 00BFAFF3 		.section	.bss.ch,"aw",%nobits
 411      0080
 412              		.align	3
 413              		.type	ch, %object
 414              		.size	ch, 1496
 415              	ch:
 416 0000 00000000 		.space	1496
 416      00000000 
 416      00000000 
 416      00000000 
 416      00000000 
 417              		.section	.text._scheduler_init,"ax",%progbits
 418              		.align	2
 419              		.p2align 4,,15
 420              		.global	_scheduler_init
 421              		.thumb
 422              		.thumb_func
 423              		.type	_scheduler_init, %function
 424              	_scheduler_init:
 425              	.LFB240:
 426              		.file 7 "/home/efe/ChibiOS/os/rt/src/chschd.c"
 427              		.loc 7 65 0
 428              		.cfi_startproc
 429              		@ args = 0, pretend = 0, frame = 0
 430              		@ frame_needed = 0, uses_anonymous_args = 0
 431 0000 08B5     		push	{r3, lr}
 432              		.cfi_def_cfa_offset 8
 433              		.cfi_offset 3, -8
 434              		.cfi_offset 14, -4
 435              		.loc 7 67 0
 436 0002 0648     		ldr	r0, .L20
 437 0004 FFF7FEFF 		bl	queue_init
 438              		.loc 7 68 0
 439 0008 044B     		ldr	r3, .L20
 440 000a 0022     		movs	r2, #0
 441 000c 9A60     		str	r2, [r3, #8]
 442              		.loc 7 70 0
ARM GAS  /tmp/cc2TbXnd.s 			page 9


 443 000e 034B     		ldr	r3, .L20
 444 0010 024A     		ldr	r2, .L20
 445 0012 1A61     		str	r2, [r3, #16]
 446              		.loc 7 71 0
 447 0014 014B     		ldr	r3, .L20
 448 0016 014A     		ldr	r2, .L20
 449 0018 5A61     		str	r2, [r3, #20]
 450              		.loc 7 73 0
 451 001a 08BD     		pop	{r3, pc}
 452              	.L21:
 453              		.align	2
 454              	.L20:
 455 001c 00000000 		.word	ch
 456              		.cfi_endproc
 457              	.LFE240:
 458              		.size	_scheduler_init, .-_scheduler_init
 459              		.section	.text.chSchReadyI,"ax",%progbits
 460              		.align	2
 461              		.p2align 4,,15
 462              		.global	chSchReadyI
 463              		.thumb
 464              		.thumb_func
 465              		.type	chSchReadyI, %function
 466              	chSchReadyI:
 467              	.LFB241:
 468              		.loc 7 218 0
 469              		.cfi_startproc
 470              		@ args = 0, pretend = 0, frame = 16
 471              		@ frame_needed = 0, uses_anonymous_args = 0
 472 0000 00B5     		push	{lr}
 473              		.cfi_def_cfa_offset 4
 474              		.cfi_offset 14, -4
 475 0002 85B0     		sub	sp, sp, #20
 476              		.cfi_def_cfa_offset 24
 477 0004 0190     		str	r0, [sp, #4]
 478              		.loc 7 221 0
 479 0006 FFF7FEFF 		bl	chDbgCheckClassI
 480              		.loc 7 222 0
 481 000a 019B     		ldr	r3, [sp, #4]
 482 000c 002B     		cmp	r3, #0
 483 000e 02D1     		bne	.L28
 484              		.loc 7 222 0 is_stmt 0 discriminator 1
 485 0010 1848     		ldr	r0, .L29
 486 0012 FFF7FEFF 		bl	chSysHalt
 487              	.L28:
 488              		.loc 7 223 0 is_stmt 1 discriminator 1
 489 0016 019B     		ldr	r3, [sp, #4]
 490 0018 93F82030 		ldrb	r3, [r3, #32]	@ zero_extendqisi2
 491 001c 002B     		cmp	r3, #0
 492 001e 04D0     		beq	.L24
 493              		.loc 7 223 0 is_stmt 0 discriminator 2
 494 0020 019B     		ldr	r3, [sp, #4]
 495 0022 93F82030 		ldrb	r3, [r3, #32]	@ zero_extendqisi2
 496 0026 0F2B     		cmp	r3, #15
 497 0028 02D1     		bne	.L25
 498              	.L24:
 499              		.loc 7 223 0 discriminator 1
ARM GAS  /tmp/cc2TbXnd.s 			page 10


 500 002a 1248     		ldr	r0, .L29
 501 002c FFF7FEFF 		bl	chSysHalt
 502              	.L25:
 503              		.loc 7 227 0 is_stmt 1
 504 0030 019B     		ldr	r3, [sp, #4]
 505 0032 0022     		movs	r2, #0
 506 0034 83F82020 		strb	r2, [r3, #32]
 507              		.loc 7 228 0
 508 0038 0F4B     		ldr	r3, .L29+4
 509 003a 0393     		str	r3, [sp, #12]
 510              	.L26:
 511              		.loc 7 230 0 discriminator 1
 512 003c 039B     		ldr	r3, [sp, #12]
 513 003e 1B68     		ldr	r3, [r3]
 514 0040 0393     		str	r3, [sp, #12]
 515              		.loc 7 231 0 discriminator 1
 516 0042 039B     		ldr	r3, [sp, #12]
 517 0044 9A68     		ldr	r2, [r3, #8]
 518 0046 019B     		ldr	r3, [sp, #4]
 519 0048 9B68     		ldr	r3, [r3, #8]
 520 004a 9A42     		cmp	r2, r3
 521 004c F6D2     		bcs	.L26
 522              		.loc 7 233 0
 523 004e 019B     		ldr	r3, [sp, #4]
 524 0050 039A     		ldr	r2, [sp, #12]
 525 0052 1A60     		str	r2, [r3]
 526              		.loc 7 234 0
 527 0054 039B     		ldr	r3, [sp, #12]
 528 0056 5A68     		ldr	r2, [r3, #4]
 529 0058 019B     		ldr	r3, [sp, #4]
 530 005a 5A60     		str	r2, [r3, #4]
 531              		.loc 7 235 0
 532 005c 019B     		ldr	r3, [sp, #4]
 533 005e 5B68     		ldr	r3, [r3, #4]
 534 0060 019A     		ldr	r2, [sp, #4]
 535 0062 1A60     		str	r2, [r3]
 536              		.loc 7 236 0
 537 0064 039B     		ldr	r3, [sp, #12]
 538 0066 019A     		ldr	r2, [sp, #4]
 539 0068 5A60     		str	r2, [r3, #4]
 540              		.loc 7 238 0
 541 006a 019B     		ldr	r3, [sp, #4]
 542              		.loc 7 239 0
 543 006c 1846     		mov	r0, r3
 544 006e 05B0     		add	sp, sp, #20
 545              		@ sp needed
 546 0070 5DF804FB 		ldr	pc, [sp], #4
 547              	.L30:
 548              		.align	2
 549              	.L29:
 550 0074 00000000 		.word	__func__.6625
 551 0078 00000000 		.word	ch
 552              		.cfi_endproc
 553              	.LFE241:
 554              		.size	chSchReadyI, .-chSchReadyI
 555 007c AFF30080 		.section	.rodata
 556              		.align	2
ARM GAS  /tmp/cc2TbXnd.s 			page 11


 557              	.LC0:
 558 0000 73746163 		.ascii	"stack overflow\000"
 558      6B206F76 
 558      6572666C 
 558      6F7700
 559 000f 00       		.section	.text.chSchGoSleepS,"ax",%progbits
 560              		.align	2
 561              		.p2align 4,,15
 562              		.global	chSchGoSleepS
 563              		.thumb
 564              		.thumb_func
 565              		.type	chSchGoSleepS, %function
 566              	chSchGoSleepS:
 567              	.LFB242:
 568              		.loc 7 250 0
 569              		.cfi_startproc
 570              		@ args = 0, pretend = 0, frame = 16
 571              		@ frame_needed = 0, uses_anonymous_args = 0
 572 0000 10B5     		push	{r4, lr}
 573              		.cfi_def_cfa_offset 8
 574              		.cfi_offset 4, -8
 575              		.cfi_offset 14, -4
 576 0002 84B0     		sub	sp, sp, #16
 577              		.cfi_def_cfa_offset 24
 578 0004 0346     		mov	r3, r0
 579 0006 8DF80730 		strb	r3, [sp, #7]
 580              		.loc 7 253 0
 581 000a FFF7FEFF 		bl	chDbgCheckClassS
 582              		.loc 7 255 0
 583 000e 194B     		ldr	r3, .L34
 584 0010 9B69     		ldr	r3, [r3, #24]
 585 0012 0393     		str	r3, [sp, #12]
 586              		.loc 7 256 0
 587 0014 039B     		ldr	r3, [sp, #12]
 588 0016 9DF80720 		ldrb	r2, [sp, #7]
 589 001a 83F82020 		strb	r2, [r3, #32]
 590              		.loc 7 262 0
 591 001e 1548     		ldr	r0, .L34
 592 0020 FFF7FEFF 		bl	queue_fifo_remove
 593 0024 0246     		mov	r2, r0
 594 0026 134B     		ldr	r3, .L34
 595 0028 9A61     		str	r2, [r3, #24]
 596              		.loc 7 268 0
 597 002a 124B     		ldr	r3, .L34
 598 002c 9B69     		ldr	r3, [r3, #24]
 599 002e 0122     		movs	r2, #1
 600 0030 83F82020 		strb	r2, [r3, #32]
 601              		.loc 7 269 0
 602 0034 0398     		ldr	r0, [sp, #12]
 603 0036 FFF7FEFF 		bl	_dbg_trace
 604 003a 0E4B     		ldr	r3, .L34
 605 003c 9B69     		ldr	r3, [r3, #24]
 606 003e 1846     		mov	r0, r3
 607 0040 0399     		ldr	r1, [sp, #12]
 608 0042 FFF7FEFF 		bl	_stats_ctxswc
 609              	.LBB23:
 610              	.LBB24:
ARM GAS  /tmp/cc2TbXnd.s 			page 12


 611              	.LBB25:
 612              		.loc 2 430 0
 613              	@ 430 "/home/efe/ChibiOS/os/ext/CMSIS/include/core_cmFunc.h" 1
 614 0046 EFF30983 		MRS r3, psp
 615              	
 616              	@ 0 "" 2
 617              		.thumb
 618 004a 1C46     		mov	r4, r3
 619              		.loc 2 431 0
 620 004c 2346     		mov	r3, r4
 621              	.LBE25:
 622              	.LBE24:
 623              		.loc 7 269 0
 624 004e 0293     		str	r3, [sp, #8]
 625 0050 029B     		ldr	r3, [sp, #8]
 626 0052 A3F12402 		sub	r2, r3, #36
 627 0056 039B     		ldr	r3, [sp, #12]
 628 0058 DB69     		ldr	r3, [r3, #28]
 629 005a 9A42     		cmp	r2, r3
 630 005c 02D2     		bcs	.L33
 631              		.loc 7 269 0 is_stmt 0 discriminator 1
 632 005e 0648     		ldr	r0, .L34+4
 633 0060 FFF7FEFF 		bl	chSysHalt
 634              	.L33:
 635              		.loc 7 269 0 discriminator 2
 636 0064 034B     		ldr	r3, .L34
 637 0066 9B69     		ldr	r3, [r3, #24]
 638 0068 1846     		mov	r0, r3
 639 006a 0399     		ldr	r1, [sp, #12]
 640 006c FFF7FEFF 		bl	_port_switch
 641              	.LBE23:
 642              		.loc 7 270 0 is_stmt 1 discriminator 2
 643 0070 04B0     		add	sp, sp, #16
 644              		@ sp needed
 645 0072 10BD     		pop	{r4, pc}
 646              	.L35:
 647              		.align	2
 648              	.L34:
 649 0074 00000000 		.word	ch
 650 0078 00000000 		.word	.LC0
 651              		.cfi_endproc
 652              	.LFE242:
 653              		.size	chSchGoSleepS, .-chSchGoSleepS
 654 007c AFF30080 		.section	.text.wakeup,"ax",%progbits
 655              		.align	2
 656              		.p2align 4,,15
 657              		.thumb
 658              		.thumb_func
 659              		.type	wakeup, %function
 660              	wakeup:
 661              	.LFB243:
 662              		.loc 7 275 0
 663              		.cfi_startproc
 664              		@ args = 0, pretend = 0, frame = 16
 665              		@ frame_needed = 0, uses_anonymous_args = 0
 666 0000 00B5     		push	{lr}
 667              		.cfi_def_cfa_offset 4
ARM GAS  /tmp/cc2TbXnd.s 			page 13


 668              		.cfi_offset 14, -4
 669 0002 85B0     		sub	sp, sp, #20
 670              		.cfi_def_cfa_offset 24
 671 0004 0190     		str	r0, [sp, #4]
 672              		.loc 7 276 0
 673 0006 019B     		ldr	r3, [sp, #4]
 674 0008 0393     		str	r3, [sp, #12]
 675              		.loc 7 278 0
 676 000a FFF7FEFF 		bl	chSysLockFromISR
 677              		.loc 7 279 0
 678 000e 039B     		ldr	r3, [sp, #12]
 679 0010 93F82030 		ldrb	r3, [r3, #32]	@ zero_extendqisi2
 680 0014 072B     		cmp	r3, #7
 681 0016 24D8     		bhi	.L45
 682 0018 01A2     		adr	r2, .L39
 683 001a 52F823F0 		ldr	pc, [r2, r3, lsl #2]
 684 001e 00BF     		.p2align 2
 685              	.L39:
 686 0020 41000000 		.word	.L38+1
 687 0024 63000000 		.word	.L45+1
 688 0028 63000000 		.word	.L45+1
 689 002c 47000000 		.word	.L40+1
 690 0030 5B000000 		.word	.L41+1
 691 0034 51000000 		.word	.L42+1
 692 0038 63000000 		.word	.L45+1
 693 003c 5B000000 		.word	.L41+1
 694              		.p2align 1
 695              	.L38:
 696              		.loc 7 283 0
 697 0040 FFF7FEFF 		bl	chSysUnlockFromISR
 698              		.loc 7 284 0
 699 0044 17E0     		b	.L36
 700              	.L40:
 701              		.loc 7 286 0
 702 0046 039B     		ldr	r3, [sp, #12]
 703 0048 5B6A     		ldr	r3, [r3, #36]
 704 004a 0022     		movs	r2, #0
 705 004c 1A60     		str	r2, [r3]
 706              		.loc 7 287 0
 707 004e 09E0     		b	.L44
 708              	.L42:
 709              		.loc 7 290 0
 710 0050 039B     		ldr	r3, [sp, #12]
 711 0052 5B6A     		ldr	r3, [r3, #36]
 712 0054 1846     		mov	r0, r3
 713 0056 FFF7FEFF 		bl	chSemFastSignalI
 714              	.L41:
 715              		.loc 7 298 0
 716 005a 0398     		ldr	r0, [sp, #12]
 717 005c FFF7FEFF 		bl	queue_dequeue
 718              		.loc 7 299 0
 719 0060 00E0     		b	.L44
 720              	.L45:
 721              		.loc 7 302 0
 722 0062 00BF     		nop
 723              	.L44:
 724              		.loc 7 304 0
ARM GAS  /tmp/cc2TbXnd.s 			page 14


 725 0064 039B     		ldr	r3, [sp, #12]
 726 0066 4FF0FF32 		mov	r2, #-1
 727 006a 5A62     		str	r2, [r3, #36]
 728              		.loc 7 305 0
 729 006c 0398     		ldr	r0, [sp, #12]
 730 006e FFF7FEFF 		bl	chSchReadyI
 731              		.loc 7 306 0
 732 0072 FFF7FEFF 		bl	chSysUnlockFromISR
 733              	.L36:
 734              		.loc 7 307 0
 735 0076 05B0     		add	sp, sp, #20
 736              		@ sp needed
 737 0078 5DF804FB 		ldr	pc, [sp], #4
 738              		.cfi_endproc
 739              	.LFE243:
 740              		.size	wakeup, .-wakeup
 741 007c AFF30080 		.section	.text.chSchGoSleepTimeoutS,"ax",%progbits
 742              		.align	2
 743              		.p2align 4,,15
 744              		.global	chSchGoSleepTimeoutS
 745              		.thumb
 746              		.thumb_func
 747              		.type	chSchGoSleepTimeoutS, %function
 748              	chSchGoSleepTimeoutS:
 749              	.LFB244:
 750              		.loc 7 330 0
 751              		.cfi_startproc
 752              		@ args = 0, pretend = 0, frame = 32
 753              		@ frame_needed = 0, uses_anonymous_args = 0
 754 0000 00B5     		push	{lr}
 755              		.cfi_def_cfa_offset 4
 756              		.cfi_offset 14, -4
 757 0002 89B0     		sub	sp, sp, #36
 758              		.cfi_def_cfa_offset 40
 759 0004 0346     		mov	r3, r0
 760 0006 0091     		str	r1, [sp]
 761 0008 8DF80730 		strb	r3, [sp, #7]
 762              		.loc 7 332 0
 763 000c FFF7FEFF 		bl	chDbgCheckClassS
 764              		.loc 7 334 0
 765 0010 009B     		ldr	r3, [sp]
 766 0012 B3F1FF3F 		cmp	r3, #-1
 767 0016 19D0     		beq	.L47
 768              	.LBB26:
 769              		.loc 7 337 0
 770 0018 124B     		ldr	r3, .L51
 771 001a 9B69     		ldr	r3, [r3, #24]
 772 001c 03AA     		add	r2, sp, #12
 773 001e 1046     		mov	r0, r2
 774 0020 0099     		ldr	r1, [sp]
 775 0022 114A     		ldr	r2, .L51+4
 776 0024 FFF7FEFF 		bl	chVTDoSetI
 777              		.loc 7 338 0
 778 0028 9DF80730 		ldrb	r3, [sp, #7]	@ zero_extendqisi2
 779 002c 1846     		mov	r0, r3
 780 002e FFF7FEFF 		bl	chSchGoSleepS
 781              		.loc 7 339 0
ARM GAS  /tmp/cc2TbXnd.s 			page 15


 782 0032 03AB     		add	r3, sp, #12
 783 0034 1846     		mov	r0, r3
 784 0036 FFF7FEFF 		bl	chVTIsArmedI
 785 003a 0346     		mov	r3, r0
 786 003c 002B     		cmp	r3, #0
 787 003e 04D0     		beq	.L48
 788              		.loc 7 340 0
 789 0040 03AB     		add	r3, sp, #12
 790 0042 1846     		mov	r0, r3
 791 0044 FFF7FEFF 		bl	chVTDoResetI
 792              	.LBE26:
 793 0048 05E0     		b	.L49
 794              	.L48:
 795 004a 04E0     		b	.L49
 796              	.L47:
 797              		.loc 7 344 0
 798 004c 9DF80730 		ldrb	r3, [sp, #7]	@ zero_extendqisi2
 799 0050 1846     		mov	r0, r3
 800 0052 FFF7FEFF 		bl	chSchGoSleepS
 801              	.L49:
 802              		.loc 7 347 0
 803 0056 034B     		ldr	r3, .L51
 804 0058 9B69     		ldr	r3, [r3, #24]
 805 005a 5B6A     		ldr	r3, [r3, #36]
 806              		.loc 7 348 0
 807 005c 1846     		mov	r0, r3
 808 005e 09B0     		add	sp, sp, #36
 809              		@ sp needed
 810 0060 5DF804FB 		ldr	pc, [sp], #4
 811              	.L52:
 812              		.align	2
 813              	.L51:
 814 0064 00000000 		.word	ch
 815 0068 00000000 		.word	wakeup
 816              		.cfi_endproc
 817              	.LFE244:
 818              		.size	chSchGoSleepTimeoutS, .-chSchGoSleepTimeoutS
 819 006c AFF30080 		.section	.text.chSchWakeupS,"ax",%progbits
 820              		.align	2
 821              		.p2align 4,,15
 822              		.global	chSchWakeupS
 823              		.thumb
 824              		.thumb_func
 825              		.type	chSchWakeupS, %function
 826              	chSchWakeupS:
 827              	.LFB245:
 828              		.loc 7 367 0
 829              		.cfi_startproc
 830              		@ args = 0, pretend = 0, frame = 16
 831              		@ frame_needed = 0, uses_anonymous_args = 0
 832 0000 10B5     		push	{r4, lr}
 833              		.cfi_def_cfa_offset 8
 834              		.cfi_offset 4, -8
 835              		.cfi_offset 14, -4
 836 0002 84B0     		sub	sp, sp, #16
 837              		.cfi_def_cfa_offset 24
 838 0004 0190     		str	r0, [sp, #4]
ARM GAS  /tmp/cc2TbXnd.s 			page 16


 839 0006 0091     		str	r1, [sp]
 840              		.loc 7 369 0
 841 0008 FFF7FEFF 		bl	chDbgCheckClassS
 842              		.loc 7 373 0
 843 000c 019B     		ldr	r3, [sp, #4]
 844 000e 009A     		ldr	r2, [sp]
 845 0010 5A62     		str	r2, [r3, #36]
 846              		.loc 7 379 0
 847 0012 019B     		ldr	r3, [sp, #4]
 848 0014 9A68     		ldr	r2, [r3, #8]
 849 0016 194B     		ldr	r3, .L58
 850 0018 9B69     		ldr	r3, [r3, #24]
 851 001a 9B68     		ldr	r3, [r3, #8]
 852 001c 9A42     		cmp	r2, r3
 853 001e 03D8     		bhi	.L54
 854              		.loc 7 380 0
 855 0020 0198     		ldr	r0, [sp, #4]
 856 0022 FFF7FEFF 		bl	chSchReadyI
 857 0026 26E0     		b	.L53
 858              	.L54:
 859              	.LBB27:
 860              		.loc 7 383 0
 861 0028 144B     		ldr	r3, .L58
 862 002a 9B69     		ldr	r3, [r3, #24]
 863 002c 1846     		mov	r0, r3
 864 002e FFF7FEFF 		bl	chSchReadyI
 865 0032 0390     		str	r0, [sp, #12]
 866              		.loc 7 384 0
 867 0034 114B     		ldr	r3, .L58
 868 0036 019A     		ldr	r2, [sp, #4]
 869 0038 9A61     		str	r2, [r3, #24]
 870              		.loc 7 390 0
 871 003a 019B     		ldr	r3, [sp, #4]
 872 003c 0122     		movs	r2, #1
 873 003e 83F82020 		strb	r2, [r3, #32]
 874              		.loc 7 391 0
 875 0042 0398     		ldr	r0, [sp, #12]
 876 0044 FFF7FEFF 		bl	_dbg_trace
 877 0048 0198     		ldr	r0, [sp, #4]
 878 004a 0399     		ldr	r1, [sp, #12]
 879 004c FFF7FEFF 		bl	_stats_ctxswc
 880              	.LBB28:
 881              	.LBB29:
 882              	.LBB30:
 883              		.loc 2 430 0
 884              	@ 430 "/home/efe/ChibiOS/os/ext/CMSIS/include/core_cmFunc.h" 1
 885 0050 EFF30983 		MRS r3, psp
 886              	
 887              	@ 0 "" 2
 888              		.thumb
 889 0054 1C46     		mov	r4, r3
 890              		.loc 2 431 0
 891 0056 2346     		mov	r3, r4
 892              	.LBE30:
 893              	.LBE29:
 894              		.loc 7 391 0
 895 0058 0293     		str	r3, [sp, #8]
ARM GAS  /tmp/cc2TbXnd.s 			page 17


 896 005a 029B     		ldr	r3, [sp, #8]
 897 005c A3F12402 		sub	r2, r3, #36
 898 0060 039B     		ldr	r3, [sp, #12]
 899 0062 DB69     		ldr	r3, [r3, #28]
 900 0064 9A42     		cmp	r2, r3
 901 0066 02D2     		bcs	.L57
 902              		.loc 7 391 0 is_stmt 0 discriminator 1
 903 0068 0548     		ldr	r0, .L58+4
 904 006a FFF7FEFF 		bl	chSysHalt
 905              	.L57:
 906              		.loc 7 391 0 discriminator 2
 907 006e 0198     		ldr	r0, [sp, #4]
 908 0070 0399     		ldr	r1, [sp, #12]
 909 0072 FFF7FEFF 		bl	_port_switch
 910              	.L53:
 911              	.LBE28:
 912              	.LBE27:
 913              		.loc 7 393 0 is_stmt 1
 914 0076 04B0     		add	sp, sp, #16
 915              		@ sp needed
 916 0078 10BD     		pop	{r4, pc}
 917              	.L59:
 918 007a 00BF     		.align	2
 919              	.L58:
 920 007c 00000000 		.word	ch
 921 0080 00000000 		.word	.LC0
 922              		.cfi_endproc
 923              	.LFE245:
 924              		.size	chSchWakeupS, .-chSchWakeupS
 925 0084 AFF30080 		.section	.text.chSchRescheduleS,"ax",%progbits
 925      AFF30080 
 925      AFF30080 
 926              		.align	2
 927              		.p2align 4,,15
 928              		.global	chSchRescheduleS
 929              		.thumb
 930              		.thumb_func
 931              		.type	chSchRescheduleS, %function
 932              	chSchRescheduleS:
 933              	.LFB246:
 934              		.loc 7 402 0
 935              		.cfi_startproc
 936              		@ args = 0, pretend = 0, frame = 0
 937              		@ frame_needed = 0, uses_anonymous_args = 0
 938 0000 08B5     		push	{r3, lr}
 939              		.cfi_def_cfa_offset 8
 940              		.cfi_offset 3, -8
 941              		.cfi_offset 14, -4
 942              		.loc 7 404 0
 943 0002 FFF7FEFF 		bl	chDbgCheckClassS
 944              		.loc 7 406 0
 945 0006 FFF7FEFF 		bl	chSchIsRescRequiredI
 946 000a 0346     		mov	r3, r0
 947 000c 002B     		cmp	r3, #0
 948 000e 01D0     		beq	.L60
 949              		.loc 7 407 0
 950 0010 FFF7FEFF 		bl	chSchDoRescheduleAhead
ARM GAS  /tmp/cc2TbXnd.s 			page 18


 951              	.L60:
 952              		.loc 7 409 0
 953 0014 08BD     		pop	{r3, pc}
 954              		.cfi_endproc
 955              	.LFE246:
 956              		.size	chSchRescheduleS, .-chSchRescheduleS
 957 0016 00BFAFF3 		.section	.text.chSchIsPreemptionRequired,"ax",%progbits
 957      0080AFF3 
 957      0080
 958              		.align	2
 959              		.p2align 4,,15
 960              		.global	chSchIsPreemptionRequired
 961              		.thumb
 962              		.thumb_func
 963              		.type	chSchIsPreemptionRequired, %function
 964              	chSchIsPreemptionRequired:
 965              	.LFB247:
 966              		.loc 7 424 0
 967              		.cfi_startproc
 968              		@ args = 0, pretend = 0, frame = 8
 969              		@ frame_needed = 0, uses_anonymous_args = 0
 970              		@ link register save eliminated.
 971 0000 82B0     		sub	sp, sp, #8
 972              		.cfi_def_cfa_offset 8
 973              		.loc 7 425 0
 974 0002 094B     		ldr	r3, .L64
 975 0004 1B68     		ldr	r3, [r3]
 976 0006 9B68     		ldr	r3, [r3, #8]
 977 0008 0193     		str	r3, [sp, #4]
 978              		.loc 7 426 0
 979 000a 074B     		ldr	r3, .L64
 980 000c 9B69     		ldr	r3, [r3, #24]
 981 000e 9B68     		ldr	r3, [r3, #8]
 982 0010 0093     		str	r3, [sp]
 983              		.loc 7 437 0
 984 0012 019A     		ldr	r2, [sp, #4]
 985 0014 009B     		ldr	r3, [sp]
 986 0016 9A42     		cmp	r2, r3
 987 0018 94BF     		ite	ls
 988 001a 0023     		movls	r3, #0
 989 001c 0123     		movhi	r3, #1
 990 001e DBB2     		uxtb	r3, r3
 991              		.loc 7 439 0
 992 0020 1846     		mov	r0, r3
 993 0022 02B0     		add	sp, sp, #8
 994              		@ sp needed
 995 0024 7047     		bx	lr
 996              	.L65:
 997 0026 00BF     		.align	2
 998              	.L64:
 999 0028 00000000 		.word	ch
 1000              		.cfi_endproc
 1001              	.LFE247:
 1002              		.size	chSchIsPreemptionRequired, .-chSchIsPreemptionRequired
 1003 002c AFF30080 		.section	.text.chSchDoRescheduleBehind,"ax",%progbits
 1004              		.align	2
 1005              		.p2align 4,,15
ARM GAS  /tmp/cc2TbXnd.s 			page 19


 1006              		.global	chSchDoRescheduleBehind
 1007              		.thumb
 1008              		.thumb_func
 1009              		.type	chSchDoRescheduleBehind, %function
 1010              	chSchDoRescheduleBehind:
 1011              	.LFB248:
 1012              		.loc 7 451 0
 1013              		.cfi_startproc
 1014              		@ args = 0, pretend = 0, frame = 8
 1015              		@ frame_needed = 0, uses_anonymous_args = 0
 1016 0000 10B5     		push	{r4, lr}
 1017              		.cfi_def_cfa_offset 8
 1018              		.cfi_offset 4, -8
 1019              		.cfi_offset 14, -4
 1020 0002 82B0     		sub	sp, sp, #8
 1021              		.cfi_def_cfa_offset 16
 1022              		.loc 7 454 0
 1023 0004 184B     		ldr	r3, .L69
 1024 0006 9B69     		ldr	r3, [r3, #24]
 1025 0008 0193     		str	r3, [sp, #4]
 1026              		.loc 7 456 0
 1027 000a 1748     		ldr	r0, .L69
 1028 000c FFF7FEFF 		bl	queue_fifo_remove
 1029 0010 0246     		mov	r2, r0
 1030 0012 154B     		ldr	r3, .L69
 1031 0014 9A61     		str	r2, [r3, #24]
 1032              		.loc 7 462 0
 1033 0016 144B     		ldr	r3, .L69
 1034 0018 9B69     		ldr	r3, [r3, #24]
 1035 001a 0122     		movs	r2, #1
 1036 001c 83F82020 		strb	r2, [r3, #32]
 1037              		.loc 7 466 0
 1038 0020 0198     		ldr	r0, [sp, #4]
 1039 0022 FFF7FEFF 		bl	chSchReadyI
 1040              		.loc 7 467 0
 1041 0026 0198     		ldr	r0, [sp, #4]
 1042 0028 FFF7FEFF 		bl	_dbg_trace
 1043 002c 0E4B     		ldr	r3, .L69
 1044 002e 9B69     		ldr	r3, [r3, #24]
 1045 0030 1846     		mov	r0, r3
 1046 0032 0199     		ldr	r1, [sp, #4]
 1047 0034 FFF7FEFF 		bl	_stats_ctxswc
 1048              	.LBB31:
 1049              	.LBB32:
 1050              	.LBB33:
 1051              		.loc 2 430 0
 1052              	@ 430 "/home/efe/ChibiOS/os/ext/CMSIS/include/core_cmFunc.h" 1
 1053 0038 EFF30983 		MRS r3, psp
 1054              	
 1055              	@ 0 "" 2
 1056              		.thumb
 1057 003c 1C46     		mov	r4, r3
 1058              		.loc 2 431 0
 1059 003e 2346     		mov	r3, r4
 1060              	.LBE33:
 1061              	.LBE32:
 1062              		.loc 7 467 0
ARM GAS  /tmp/cc2TbXnd.s 			page 20


 1063 0040 0093     		str	r3, [sp]
 1064 0042 009B     		ldr	r3, [sp]
 1065 0044 A3F12402 		sub	r2, r3, #36
 1066 0048 019B     		ldr	r3, [sp, #4]
 1067 004a DB69     		ldr	r3, [r3, #28]
 1068 004c 9A42     		cmp	r2, r3
 1069 004e 02D2     		bcs	.L68
 1070              		.loc 7 467 0 is_stmt 0 discriminator 1
 1071 0050 0648     		ldr	r0, .L69+4
 1072 0052 FFF7FEFF 		bl	chSysHalt
 1073              	.L68:
 1074              		.loc 7 467 0 discriminator 2
 1075 0056 044B     		ldr	r3, .L69
 1076 0058 9B69     		ldr	r3, [r3, #24]
 1077 005a 1846     		mov	r0, r3
 1078 005c 0199     		ldr	r1, [sp, #4]
 1079 005e FFF7FEFF 		bl	_port_switch
 1080              	.LBE31:
 1081              		.loc 7 468 0 is_stmt 1 discriminator 2
 1082 0062 02B0     		add	sp, sp, #8
 1083              		@ sp needed
 1084 0064 10BD     		pop	{r4, pc}
 1085              	.L70:
 1086 0066 00BF     		.align	2
 1087              	.L69:
 1088 0068 00000000 		.word	ch
 1089 006c 00000000 		.word	.LC0
 1090              		.cfi_endproc
 1091              	.LFE248:
 1092              		.size	chSchDoRescheduleBehind, .-chSchDoRescheduleBehind
 1093              		.section	.text.chSchDoRescheduleAhead,"ax",%progbits
 1094              		.align	2
 1095              		.p2align 4,,15
 1096              		.global	chSchDoRescheduleAhead
 1097              		.thumb
 1098              		.thumb_func
 1099              		.type	chSchDoRescheduleAhead, %function
 1100              	chSchDoRescheduleAhead:
 1101              	.LFB249:
 1102              		.loc 7 479 0
 1103              		.cfi_startproc
 1104              		@ args = 0, pretend = 0, frame = 16
 1105              		@ frame_needed = 0, uses_anonymous_args = 0
 1106 0000 10B5     		push	{r4, lr}
 1107              		.cfi_def_cfa_offset 8
 1108              		.cfi_offset 4, -8
 1109              		.cfi_offset 14, -4
 1110 0002 84B0     		sub	sp, sp, #16
 1111              		.cfi_def_cfa_offset 24
 1112              		.loc 7 482 0
 1113 0004 254B     		ldr	r3, .L75
 1114 0006 9B69     		ldr	r3, [r3, #24]
 1115 0008 0293     		str	r3, [sp, #8]
 1116              		.loc 7 484 0
 1117 000a 2448     		ldr	r0, .L75
 1118 000c FFF7FEFF 		bl	queue_fifo_remove
 1119 0010 0246     		mov	r2, r0
ARM GAS  /tmp/cc2TbXnd.s 			page 21


 1120 0012 224B     		ldr	r3, .L75
 1121 0014 9A61     		str	r2, [r3, #24]
 1122              		.loc 7 490 0
 1123 0016 214B     		ldr	r3, .L75
 1124 0018 9B69     		ldr	r3, [r3, #24]
 1125 001a 0122     		movs	r2, #1
 1126 001c 83F82020 		strb	r2, [r3, #32]
 1127              		.loc 7 492 0
 1128 0020 029B     		ldr	r3, [sp, #8]
 1129 0022 0022     		movs	r2, #0
 1130 0024 83F82020 		strb	r2, [r3, #32]
 1131              		.loc 7 493 0
 1132 0028 1C4B     		ldr	r3, .L75
 1133 002a 0393     		str	r3, [sp, #12]
 1134              	.L72:
 1135              		.loc 7 495 0 discriminator 1
 1136 002c 039B     		ldr	r3, [sp, #12]
 1137 002e 1B68     		ldr	r3, [r3]
 1138 0030 0393     		str	r3, [sp, #12]
 1139              		.loc 7 496 0 discriminator 1
 1140 0032 039B     		ldr	r3, [sp, #12]
 1141 0034 9A68     		ldr	r2, [r3, #8]
 1142 0036 029B     		ldr	r3, [sp, #8]
 1143 0038 9B68     		ldr	r3, [r3, #8]
 1144 003a 9A42     		cmp	r2, r3
 1145 003c F6D8     		bhi	.L72
 1146              		.loc 7 498 0
 1147 003e 029B     		ldr	r3, [sp, #8]
 1148 0040 039A     		ldr	r2, [sp, #12]
 1149 0042 1A60     		str	r2, [r3]
 1150              		.loc 7 499 0
 1151 0044 039B     		ldr	r3, [sp, #12]
 1152 0046 5A68     		ldr	r2, [r3, #4]
 1153 0048 029B     		ldr	r3, [sp, #8]
 1154 004a 5A60     		str	r2, [r3, #4]
 1155              		.loc 7 500 0
 1156 004c 029B     		ldr	r3, [sp, #8]
 1157 004e 5B68     		ldr	r3, [r3, #4]
 1158 0050 029A     		ldr	r2, [sp, #8]
 1159 0052 1A60     		str	r2, [r3]
 1160              		.loc 7 501 0
 1161 0054 039B     		ldr	r3, [sp, #12]
 1162 0056 029A     		ldr	r2, [sp, #8]
 1163 0058 5A60     		str	r2, [r3, #4]
 1164              		.loc 7 503 0
 1165 005a 0298     		ldr	r0, [sp, #8]
 1166 005c FFF7FEFF 		bl	_dbg_trace
 1167 0060 0E4B     		ldr	r3, .L75
 1168 0062 9B69     		ldr	r3, [r3, #24]
 1169 0064 1846     		mov	r0, r3
 1170 0066 0299     		ldr	r1, [sp, #8]
 1171 0068 FFF7FEFF 		bl	_stats_ctxswc
 1172              	.LBB34:
 1173              	.LBB35:
 1174              	.LBB36:
 1175              		.loc 2 430 0
 1176              	@ 430 "/home/efe/ChibiOS/os/ext/CMSIS/include/core_cmFunc.h" 1
ARM GAS  /tmp/cc2TbXnd.s 			page 22


 1177 006c EFF30983 		MRS r3, psp
 1178              	
 1179              	@ 0 "" 2
 1180              		.thumb
 1181 0070 1C46     		mov	r4, r3
 1182              		.loc 2 431 0
 1183 0072 2346     		mov	r3, r4
 1184              	.LBE36:
 1185              	.LBE35:
 1186              		.loc 7 503 0
 1187 0074 0193     		str	r3, [sp, #4]
 1188 0076 019B     		ldr	r3, [sp, #4]
 1189 0078 A3F12402 		sub	r2, r3, #36
 1190 007c 029B     		ldr	r3, [sp, #8]
 1191 007e DB69     		ldr	r3, [r3, #28]
 1192 0080 9A42     		cmp	r2, r3
 1193 0082 02D2     		bcs	.L74
 1194              		.loc 7 503 0 is_stmt 0 discriminator 1
 1195 0084 0648     		ldr	r0, .L75+4
 1196 0086 FFF7FEFF 		bl	chSysHalt
 1197              	.L74:
 1198              		.loc 7 503 0 discriminator 2
 1199 008a 044B     		ldr	r3, .L75
 1200 008c 9B69     		ldr	r3, [r3, #24]
 1201 008e 1846     		mov	r0, r3
 1202 0090 0299     		ldr	r1, [sp, #8]
 1203 0092 FFF7FEFF 		bl	_port_switch
 1204              	.LBE34:
 1205              		.loc 7 504 0 is_stmt 1 discriminator 2
 1206 0096 04B0     		add	sp, sp, #16
 1207              		@ sp needed
 1208 0098 10BD     		pop	{r4, pc}
 1209              	.L76:
 1210 009a 00BF     		.align	2
 1211              	.L75:
 1212 009c 00000000 		.word	ch
 1213 00a0 00000000 		.word	.LC0
 1214              		.cfi_endproc
 1215              	.LFE249:
 1216              		.size	chSchDoRescheduleAhead, .-chSchDoRescheduleAhead
 1217 00a4 AFF30080 		.section	.text.chSchDoReschedule,"ax",%progbits
 1217      AFF30080 
 1217      AFF30080 
 1218              		.align	2
 1219              		.p2align 4,,15
 1220              		.global	chSchDoReschedule
 1221              		.thumb
 1222              		.thumb_func
 1223              		.type	chSchDoReschedule, %function
 1224              	chSchDoReschedule:
 1225              	.LFB250:
 1226              		.loc 7 516 0
 1227              		.cfi_startproc
 1228              		@ args = 0, pretend = 0, frame = 0
 1229              		@ frame_needed = 0, uses_anonymous_args = 0
 1230 0000 08B5     		push	{r3, lr}
 1231              		.cfi_def_cfa_offset 8
ARM GAS  /tmp/cc2TbXnd.s 			page 23


 1232              		.cfi_offset 3, -8
 1233              		.cfi_offset 14, -4
 1234              		.loc 7 534 0
 1235 0002 FFF7FEFF 		bl	chSchDoRescheduleAhead
 1236              		.loc 7 536 0
 1237 0006 08BD     		pop	{r3, pc}
 1238              		.cfi_endproc
 1239              	.LFE250:
 1240              		.size	chSchDoReschedule, .-chSchDoReschedule
 1241 0008 AFF30080 		.section	.rodata.__func__.6625,"a",%progbits
 1241      AFF30080 
 1242              		.align	2
 1243              		.type	__func__.6625, %object
 1244              		.size	__func__.6625, 12
 1245              	__func__.6625:
 1246 0000 63685363 		.ascii	"chSchReadyI\000"
 1246      68526561 
 1246      64794900 
 1247              		.text
 1248              	.Letext0:
 1249              		.file 8 "/usr/lib/gcc/arm-none-eabi/4.8/include/stddef.h"
 1250              		.file 9 "/usr/include/newlib/machine/_default_types.h"
 1251              		.file 10 "/usr/include/newlib/stdint.h"
 1252              		.file 11 "/home/efe/ChibiOS/os/rt/ports/ARMCMx/compilers/GCC/chtypes.h"
 1253              		.file 12 "/home/efe/ChibiOS/os/rt/include/chsystypes.h"
 1254              		.file 13 "/home/efe/ChibiOS/os/rt/ports/ARMCMx/chcore.h"
 1255              		.file 14 "/home/efe/ChibiOS/os/rt/include/chdebug.h"
 1256              		.file 15 "/home/efe/ChibiOS/os/rt/include/chtm.h"
 1257              		.file 16 "/home/efe/ChibiOS/os/rt/include/chstats.h"
 1258              		.file 17 "/home/efe/ChibiOS/os/rt/include/chmtx.h"
 1259              		.file 18 "/home/efe/ChibiOS/os/ext/CMSIS/include/core_cm4.h"