ARM GAS  /tmp/ccl7n9mr.s 			page 1


   1              		.syntax unified
   2              		.cpu cortex-m4
   3              		.fpu softvfp
   4              		.eabi_attribute 20, 1
   5              		.eabi_attribute 21, 1
   6              		.eabi_attribute 23, 3
   7              		.eabi_attribute 24, 1
   8              		.eabi_attribute 25, 1
   9              		.eabi_attribute 26, 1
  10              		.eabi_attribute 30, 6
  11              		.eabi_attribute 34, 1
  12              		.eabi_attribute 18, 4
  13              		.thumb
  14              		.file	"chstats.c"
  15              		.text
  16              	.Ltext0:
  17              		.cfi_sections	.debug_frame
  18              		.section	.text._stats_init,"ax",%progbits
  19              		.align	2
  20              		.p2align 4,,15
  21              		.global	_stats_init
  22              		.thumb
  23              		.thumb_func
  24              		.type	_stats_init, %function
  25              	_stats_init:
  26              	.LFB240:
  27              		.file 1 "/home/efe/ChibiOS/os/rt/src/chstats.c"
  28              		.loc 1 62 0
  29              		.cfi_startproc
  30              		@ args = 0, pretend = 0, frame = 0
  31              		@ frame_needed = 0, uses_anonymous_args = 0
  32 0000 08B5     		push	{r3, lr}
  33              		.cfi_def_cfa_offset 8
  34              		.cfi_offset 3, -8
  35              		.cfi_offset 14, -4
  36              		.loc 1 64 0
  37 0002 074B     		ldr	r3, .L2
  38 0004 0022     		movs	r2, #0
  39 0006 C3F8A824 		str	r2, [r3, #1192]
  40              		.loc 1 65 0
  41 000a 054B     		ldr	r3, .L2
  42 000c 0022     		movs	r2, #0
  43 000e C3F8AC24 		str	r2, [r3, #1196]
  44              		.loc 1 66 0
  45 0012 0448     		ldr	r0, .L2+4
  46 0014 FFF7FEFF 		bl	chTMObjectInit
  47              		.loc 1 67 0
  48 0018 0348     		ldr	r0, .L2+8
  49 001a FFF7FEFF 		bl	chTMObjectInit
  50              		.loc 1 68 0
  51 001e 08BD     		pop	{r3, pc}
  52              	.L3:
  53              		.align	2
  54              	.L2:
  55 0020 00000000 		.word	ch
  56 0024 B0040000 		.word	ch+1200
  57 0028 C8040000 		.word	ch+1224
ARM GAS  /tmp/ccl7n9mr.s 			page 2


  58              		.cfi_endproc
  59              	.LFE240:
  60              		.size	_stats_init, .-_stats_init
  61 002c AFF30080 		.section	.text._stats_increase_irq,"ax",%progbits
  62              		.align	2
  63              		.p2align 4,,15
  64              		.global	_stats_increase_irq
  65              		.thumb
  66              		.thumb_func
  67              		.type	_stats_increase_irq, %function
  68              	_stats_increase_irq:
  69              	.LFB241:
  70              		.loc 1 73 0
  71              		.cfi_startproc
  72              		@ args = 0, pretend = 0, frame = 0
  73              		@ frame_needed = 0, uses_anonymous_args = 0
  74              		@ link register save eliminated.
  75              		.loc 1 75 0
  76 0000 034B     		ldr	r3, .L5
  77 0002 D3F8A834 		ldr	r3, [r3, #1192]
  78 0006 5A1C     		adds	r2, r3, #1
  79 0008 014B     		ldr	r3, .L5
  80 000a C3F8A824 		str	r2, [r3, #1192]
  81              		.loc 1 76 0
  82 000e 7047     		bx	lr
  83              	.L6:
  84              		.align	2
  85              	.L5:
  86 0010 00000000 		.word	ch
  87              		.cfi_endproc
  88              	.LFE241:
  89              		.size	_stats_increase_irq, .-_stats_increase_irq
  90 0014 AFF30080 		.section	.text._stats_ctxswc,"ax",%progbits
  90      AFF30080 
  90      AFF30080 
  91              		.align	2
  92              		.p2align 4,,15
  93              		.global	_stats_ctxswc
  94              		.thumb
  95              		.thumb_func
  96              		.type	_stats_ctxswc, %function
  97              	_stats_ctxswc:
  98              	.LFB242:
  99              		.loc 1 84 0
 100              		.cfi_startproc
 101              		@ args = 0, pretend = 0, frame = 8
 102              		@ frame_needed = 0, uses_anonymous_args = 0
 103 0000 00B5     		push	{lr}
 104              		.cfi_def_cfa_offset 4
 105              		.cfi_offset 14, -4
 106 0002 83B0     		sub	sp, sp, #12
 107              		.cfi_def_cfa_offset 16
 108 0004 0190     		str	r0, [sp, #4]
 109 0006 0091     		str	r1, [sp]
 110              		.loc 1 86 0
 111 0008 094B     		ldr	r3, .L8
 112 000a D3F8AC34 		ldr	r3, [r3, #1196]
ARM GAS  /tmp/ccl7n9mr.s 			page 3


 113 000e 5A1C     		adds	r2, r3, #1
 114 0010 074B     		ldr	r3, .L8
 115 0012 C3F8AC24 		str	r2, [r3, #1196]
 116              		.loc 1 87 0
 117 0016 009B     		ldr	r3, [sp]
 118 0018 03F14802 		add	r2, r3, #72
 119 001c 019B     		ldr	r3, [sp, #4]
 120 001e 4833     		adds	r3, r3, #72
 121 0020 1046     		mov	r0, r2
 122 0022 1946     		mov	r1, r3
 123 0024 FFF7FEFF 		bl	chTMChainMeasurementToX
 124              		.loc 1 88 0
 125 0028 03B0     		add	sp, sp, #12
 126              		@ sp needed
 127 002a 5DF804FB 		ldr	pc, [sp], #4
 128              	.L9:
 129 002e 00BF     		.align	2
 130              	.L8:
 131 0030 00000000 		.word	ch
 132              		.cfi_endproc
 133              	.LFE242:
 134              		.size	_stats_ctxswc, .-_stats_ctxswc
 135 0034 AFF30080 		.section	.text._stats_start_measure_crit_thd,"ax",%progbits
 135      AFF30080 
 135      AFF30080 
 136              		.align	2
 137              		.p2align 4,,15
 138              		.global	_stats_start_measure_crit_thd
 139              		.thumb
 140              		.thumb_func
 141              		.type	_stats_start_measure_crit_thd, %function
 142              	_stats_start_measure_crit_thd:
 143              	.LFB243:
 144              		.loc 1 93 0
 145              		.cfi_startproc
 146              		@ args = 0, pretend = 0, frame = 0
 147              		@ frame_needed = 0, uses_anonymous_args = 0
 148 0000 08B5     		push	{r3, lr}
 149              		.cfi_def_cfa_offset 8
 150              		.cfi_offset 3, -8
 151              		.cfi_offset 14, -4
 152              		.loc 1 95 0
 153 0002 0248     		ldr	r0, .L11
 154 0004 FFF7FEFF 		bl	chTMStartMeasurementX
 155              		.loc 1 96 0
 156 0008 08BD     		pop	{r3, pc}
 157              	.L12:
 158 000a 00BF     		.align	2
 159              	.L11:
 160 000c B0040000 		.word	ch+1200
 161              		.cfi_endproc
 162              	.LFE243:
 163              		.size	_stats_start_measure_crit_thd, .-_stats_start_measure_crit_thd
 164              		.section	.text._stats_stop_measure_crit_thd,"ax",%progbits
 165              		.align	2
 166              		.p2align 4,,15
 167              		.global	_stats_stop_measure_crit_thd
ARM GAS  /tmp/ccl7n9mr.s 			page 4


 168              		.thumb
 169              		.thumb_func
 170              		.type	_stats_stop_measure_crit_thd, %function
 171              	_stats_stop_measure_crit_thd:
 172              	.LFB244:
 173              		.loc 1 101 0
 174              		.cfi_startproc
 175              		@ args = 0, pretend = 0, frame = 0
 176              		@ frame_needed = 0, uses_anonymous_args = 0
 177 0000 08B5     		push	{r3, lr}
 178              		.cfi_def_cfa_offset 8
 179              		.cfi_offset 3, -8
 180              		.cfi_offset 14, -4
 181              		.loc 1 103 0
 182 0002 0248     		ldr	r0, .L14
 183 0004 FFF7FEFF 		bl	chTMStopMeasurementX
 184              		.loc 1 104 0
 185 0008 08BD     		pop	{r3, pc}
 186              	.L15:
 187 000a 00BF     		.align	2
 188              	.L14:
 189 000c B0040000 		.word	ch+1200
 190              		.cfi_endproc
 191              	.LFE244:
 192              		.size	_stats_stop_measure_crit_thd, .-_stats_stop_measure_crit_thd
 193              		.section	.text._stats_start_measure_crit_isr,"ax",%progbits
 194              		.align	2
 195              		.p2align 4,,15
 196              		.global	_stats_start_measure_crit_isr
 197              		.thumb
 198              		.thumb_func
 199              		.type	_stats_start_measure_crit_isr, %function
 200              	_stats_start_measure_crit_isr:
 201              	.LFB245:
 202              		.loc 1 109 0
 203              		.cfi_startproc
 204              		@ args = 0, pretend = 0, frame = 0
 205              		@ frame_needed = 0, uses_anonymous_args = 0
 206 0000 08B5     		push	{r3, lr}
 207              		.cfi_def_cfa_offset 8
 208              		.cfi_offset 3, -8
 209              		.cfi_offset 14, -4
 210              		.loc 1 111 0
 211 0002 0248     		ldr	r0, .L17
 212 0004 FFF7FEFF 		bl	chTMStartMeasurementX
 213              		.loc 1 112 0
 214 0008 08BD     		pop	{r3, pc}
 215              	.L18:
 216 000a 00BF     		.align	2
 217              	.L17:
 218 000c C8040000 		.word	ch+1224
 219              		.cfi_endproc
 220              	.LFE245:
 221              		.size	_stats_start_measure_crit_isr, .-_stats_start_measure_crit_isr
 222              		.section	.text._stats_stop_measure_crit_isr,"ax",%progbits
 223              		.align	2
 224              		.p2align 4,,15
ARM GAS  /tmp/ccl7n9mr.s 			page 5


 225              		.global	_stats_stop_measure_crit_isr
 226              		.thumb
 227              		.thumb_func
 228              		.type	_stats_stop_measure_crit_isr, %function
 229              	_stats_stop_measure_crit_isr:
 230              	.LFB246:
 231              		.loc 1 117 0
 232              		.cfi_startproc
 233              		@ args = 0, pretend = 0, frame = 0
 234              		@ frame_needed = 0, uses_anonymous_args = 0
 235 0000 08B5     		push	{r3, lr}
 236              		.cfi_def_cfa_offset 8
 237              		.cfi_offset 3, -8
 238              		.cfi_offset 14, -4
 239              		.loc 1 119 0
 240 0002 0248     		ldr	r0, .L20
 241 0004 FFF7FEFF 		bl	chTMStopMeasurementX
 242              		.loc 1 120 0
 243 0008 08BD     		pop	{r3, pc}
 244              	.L21:
 245 000a 00BF     		.align	2
 246              	.L20:
 247 000c C8040000 		.word	ch+1224
 248              		.cfi_endproc
 249              	.LFE246:
 250              		.size	_stats_stop_measure_crit_isr, .-_stats_stop_measure_crit_isr
 251              		.text
 252              	.Letext0:
 253              		.file 2 "/usr/include/newlib/machine/_default_types.h"
 254              		.file 3 "/usr/include/newlib/stdint.h"
 255              		.file 4 "/home/efe/ChibiOS/os/rt/ports/ARMCMx/compilers/GCC/chtypes.h"
 256              		.file 5 "/home/efe/ChibiOS/os/rt/include/chsystypes.h"
 257              		.file 6 "/home/efe/ChibiOS/os/rt/include/chschd.h"
 258              		.file 7 "/home/efe/ChibiOS/os/rt/ports/ARMCMx/chcore.h"
 259              		.file 8 "/home/efe/ChibiOS/os/rt/ports/ARMCMx/chcore_v7m.h"
 260              		.file 9 "/home/efe/ChibiOS/os/rt/include/chdebug.h"
 261              		.file 10 "/home/efe/ChibiOS/os/rt/include/chtm.h"
 262              		.file 11 "/home/efe/ChibiOS/os/rt/include/chstats.h"
 263              		.file 12 "/home/efe/ChibiOS/os/rt/include/chsem.h"
 264              		.file 13 "/home/efe/ChibiOS/os/rt/include/chmtx.h"
 265              		.file 14 "/home/efe/ChibiOS/os/ext/CMSIS/include/core_cm4.h"