ARM GAS  /tmp/cc0fLdkW.s 			page 1


   1              		.syntax unified
   2              		.cpu cortex-m4
   3              		.fpu softvfp
   4              		.eabi_attribute 20, 1
   5              		.eabi_attribute 21, 1
   6              		.eabi_attribute 23, 3
   7              		.eabi_attribute 24, 1
   8              		.eabi_attribute 25, 1
   9              		.eabi_attribute 26, 1
  10              		.eabi_attribute 30, 6
  11              		.eabi_attribute 34, 1
  12              		.eabi_attribute 18, 4
  13              		.thumb
  14              		.file	"chsys.c"
  15              		.text
  16              	.Ltext0:
  17              		.cfi_sections	.debug_frame
  18              		.section	.text.NVIC_SetPriorityGrouping,"ax",%progbits
  19              		.align	2
  20              		.p2align 4,,15
  21              		.thumb
  22              		.thumb_func
  23              		.type	NVIC_SetPriorityGrouping, %function
  24              	NVIC_SetPriorityGrouping:
  25              	.LFB106:
  26              		.file 1 "/home/efe/ChibiOS/os/ext/CMSIS/include/core_cm4.h"
  27              		.loc 1 1516 0
  28              		.cfi_startproc
  29              		@ args = 0, pretend = 0, frame = 16
  30              		@ frame_needed = 0, uses_anonymous_args = 0
  31              		@ link register save eliminated.
  32 0000 84B0     		sub	sp, sp, #16
  33              		.cfi_def_cfa_offset 16
  34 0002 0190     		str	r0, [sp, #4]
  35              		.loc 1 1518 0
  36 0004 019B     		ldr	r3, [sp, #4]
  37 0006 03F00703 		and	r3, r3, #7
  38 000a 0393     		str	r3, [sp, #12]
  39              		.loc 1 1520 0
  40 000c 0A4B     		ldr	r3, .L2
  41 000e DB68     		ldr	r3, [r3, #12]
  42 0010 0293     		str	r3, [sp, #8]
  43              		.loc 1 1521 0
  44 0012 029A     		ldr	r2, [sp, #8]
  45 0014 4FF6FF03 		movw	r3, #63743
  46 0018 1340     		ands	r3, r3, r2
  47 001a 0293     		str	r3, [sp, #8]
  48              		.loc 1 1524 0
  49 001c 039B     		ldr	r3, [sp, #12]
  50 001e 1A02     		lsls	r2, r3, #8
  51              		.loc 1 1523 0
  52 0020 029B     		ldr	r3, [sp, #8]
  53 0022 1343     		orrs	r3, r3, r2
  54              		.loc 1 1522 0
  55 0024 43F0BF63 		orr	r3, r3, #100139008
  56 0028 43F40033 		orr	r3, r3, #131072
  57 002c 0293     		str	r3, [sp, #8]
ARM GAS  /tmp/cc0fLdkW.s 			page 2


  58              		.loc 1 1525 0
  59 002e 024B     		ldr	r3, .L2
  60 0030 029A     		ldr	r2, [sp, #8]
  61 0032 DA60     		str	r2, [r3, #12]
  62              		.loc 1 1526 0
  63 0034 04B0     		add	sp, sp, #16
  64              		@ sp needed
  65 0036 7047     		bx	lr
  66              	.L3:
  67              		.align	2
  68              	.L2:
  69 0038 00ED00E0 		.word	-536810240
  70              		.cfi_endproc
  71              	.LFE106:
  72              		.size	NVIC_SetPriorityGrouping, .-NVIC_SetPriorityGrouping
  73 003c AFF30080 		.section	.text.NVIC_SetPriority,"ax",%progbits
  74              		.align	2
  75              		.p2align 4,,15
  76              		.thumb
  77              		.thumb_func
  78              		.type	NVIC_SetPriority, %function
  79              	NVIC_SetPriority:
  80              	.LFB114:
  81              		.loc 1 1630 0
  82              		.cfi_startproc
  83              		@ args = 0, pretend = 0, frame = 8
  84              		@ frame_needed = 0, uses_anonymous_args = 0
  85              		@ link register save eliminated.
  86 0000 82B0     		sub	sp, sp, #8
  87              		.cfi_def_cfa_offset 8
  88 0002 0346     		mov	r3, r0
  89 0004 0091     		str	r1, [sp]
  90 0006 8DF80730 		strb	r3, [sp, #7]
  91              		.loc 1 1631 0
  92 000a 9DF90730 		ldrsb	r3, [sp, #7]
  93 000e 002B     		cmp	r3, #0
  94 0010 0CDA     		bge	.L5
  95              		.loc 1 1632 0
  96 0012 0C49     		ldr	r1, .L7
  97 0014 9DF80730 		ldrb	r3, [sp, #7]	@ zero_extendqisi2
  98 0018 03F00F03 		and	r3, r3, #15
  99 001c 043B     		subs	r3, r3, #4
 100 001e 009A     		ldr	r2, [sp]
 101 0020 D2B2     		uxtb	r2, r2
 102 0022 1201     		lsls	r2, r2, #4
 103 0024 D2B2     		uxtb	r2, r2
 104 0026 0B44     		add	r3, r3, r1
 105 0028 1A76     		strb	r2, [r3, #24]
 106 002a 09E0     		b	.L4
 107              	.L5:
 108              		.loc 1 1635 0
 109 002c 0649     		ldr	r1, .L7+4
 110 002e 9DF90730 		ldrsb	r3, [sp, #7]
 111 0032 009A     		ldr	r2, [sp]
 112 0034 D2B2     		uxtb	r2, r2
 113 0036 1201     		lsls	r2, r2, #4
 114 0038 D2B2     		uxtb	r2, r2
ARM GAS  /tmp/cc0fLdkW.s 			page 3


 115 003a 0B44     		add	r3, r3, r1
 116 003c 83F80023 		strb	r2, [r3, #768]
 117              	.L4:
 118              		.loc 1 1637 0
 119 0040 02B0     		add	sp, sp, #8
 120              		@ sp needed
 121 0042 7047     		bx	lr
 122              	.L8:
 123              		.align	2
 124              	.L7:
 125 0044 00ED00E0 		.word	-536810240
 126 0048 00E100E0 		.word	-536813312
 127              		.cfi_endproc
 128              	.LFE114:
 129              		.size	NVIC_SetPriority, .-NVIC_SetPriority
 130 004c AFF30080 		.section	.text.port_init,"ax",%progbits
 131              		.align	2
 132              		.p2align 4,,15
 133              		.thumb
 134              		.thumb_func
 135              		.type	port_init, %function
 136              	port_init:
 137              	.LFB123:
 138              		.file 2 "/home/efe/ChibiOS/os/rt/ports/ARMCMx/chcore_v7m.h"
 139              		.loc 2 383 0
 140              		.cfi_startproc
 141              		@ args = 0, pretend = 0, frame = 0
 142              		@ frame_needed = 0, uses_anonymous_args = 0
 143 0000 08B5     		push	{r3, lr}
 144              		.cfi_def_cfa_offset 8
 145              		.cfi_offset 3, -8
 146              		.cfi_offset 14, -4
 147              		.loc 2 386 0
 148 0002 0E4B     		ldr	r3, .L10
 149 0004 0022     		movs	r2, #0
 150 0006 9A60     		str	r2, [r3, #8]
 151              		.loc 2 389 0
 152 0008 0320     		movs	r0, #3
 153 000a FFF7FEFF 		bl	NVIC_SetPriorityGrouping
 154              		.loc 2 392 0
 155 000e 0C4B     		ldr	r3, .L10+4
 156 0010 0B4A     		ldr	r2, .L10+4
 157 0012 D268     		ldr	r2, [r2, #12]
 158 0014 42F08072 		orr	r2, r2, #16777216
 159 0018 DA60     		str	r2, [r3, #12]
 160              		.loc 2 396 0
 161 001a 0A4B     		ldr	r3, .L10+8
 162 001c 094A     		ldr	r2, .L10+8
 163 001e 1268     		ldr	r2, [r2]
 164 0020 42F00102 		orr	r2, r2, #1
 165 0024 1A60     		str	r2, [r3]
 166              		.loc 2 400 0
 167 0026 6FF00400 		mvn	r0, #4
 168 002a 0121     		movs	r1, #1
 169 002c FFF7FEFF 		bl	NVIC_SetPriority
 170              		.loc 2 402 0
 171 0030 6FF00100 		mvn	r0, #1
ARM GAS  /tmp/cc0fLdkW.s 			page 4


 172 0034 0221     		movs	r1, #2
 173 0036 FFF7FEFF 		bl	NVIC_SetPriority
 174              		.loc 2 403 0
 175 003a 08BD     		pop	{r3, pc}
 176              	.L11:
 177              		.align	2
 178              	.L10:
 179 003c 00ED00E0 		.word	-536810240
 180 0040 F0ED00E0 		.word	-536810000
 181 0044 001000E0 		.word	-536866816
 182              		.cfi_endproc
 183              	.LFE123:
 184              		.size	port_init, .-port_init
 185 0048 AFF30080 		.section	.text.port_get_irq_status,"ax",%progbits
 185      AFF30080 
 186              		.align	2
 187              		.p2align 4,,15
 188              		.thumb
 189              		.thumb_func
 190              		.type	port_get_irq_status, %function
 191              	port_get_irq_status:
 192              	.LFB124:
 193              		.loc 2 410 0
 194              		.cfi_startproc
 195              		@ args = 0, pretend = 0, frame = 8
 196              		@ frame_needed = 0, uses_anonymous_args = 0
 197              		@ link register save eliminated.
 198 0000 82B0     		sub	sp, sp, #8
 199              		.cfi_def_cfa_offset 8
 200              	.LBB16:
 201              	.LBB17:
 202              		.file 3 "/home/efe/ChibiOS/os/ext/CMSIS/include/core_cmFunc.h"
 203              		.loc 3 535 0
 204              	@ 535 "/home/efe/ChibiOS/os/ext/CMSIS/include/core_cmFunc.h" 1
 205 0002 EFF31183 		MRS r3, basepri
 206              	@ 0 "" 2
 207              		.thumb
 208 0006 0093     		str	r3, [sp]
 209              		.loc 3 536 0
 210 0008 009B     		ldr	r3, [sp]
 211              	.LBE17:
 212              	.LBE16:
 213              		.loc 2 414 0
 214 000a 0193     		str	r3, [sp, #4]
 215              		.loc 2 418 0
 216 000c 019B     		ldr	r3, [sp, #4]
 217              		.loc 2 419 0
 218 000e 1846     		mov	r0, r3
 219 0010 02B0     		add	sp, sp, #8
 220              		@ sp needed
 221 0012 7047     		bx	lr
 222              		.cfi_endproc
 223              	.LFE124:
 224              		.size	port_get_irq_status, .-port_get_irq_status
 225 0014 AFF30080 		.section	.text.port_irq_enabled,"ax",%progbits
 225      AFF30080 
 225      AFF30080 
ARM GAS  /tmp/cc0fLdkW.s 			page 5


 226              		.align	2
 227              		.p2align 4,,15
 228              		.thumb
 229              		.thumb_func
 230              		.type	port_irq_enabled, %function
 231              	port_irq_enabled:
 232              	.LFB125:
 233              		.loc 2 430 0
 234              		.cfi_startproc
 235              		@ args = 0, pretend = 0, frame = 8
 236              		@ frame_needed = 0, uses_anonymous_args = 0
 237              		@ link register save eliminated.
 238 0000 82B0     		sub	sp, sp, #8
 239              		.cfi_def_cfa_offset 8
 240 0002 0190     		str	r0, [sp, #4]
 241              		.loc 2 433 0
 242 0004 019B     		ldr	r3, [sp, #4]
 243 0006 002B     		cmp	r3, #0
 244 0008 14BF     		ite	ne
 245 000a 0023     		movne	r3, #0
 246 000c 0123     		moveq	r3, #1
 247 000e DBB2     		uxtb	r3, r3
 248              		.loc 2 437 0
 249 0010 1846     		mov	r0, r3
 250 0012 02B0     		add	sp, sp, #8
 251              		@ sp needed
 252 0014 7047     		bx	lr
 253              		.cfi_endproc
 254              	.LFE125:
 255              		.size	port_irq_enabled, .-port_irq_enabled
 256 0016 00BFAFF3 		.section	.text.port_is_isr_context,"ax",%progbits
 256      0080AFF3 
 256      0080
 257              		.align	2
 258              		.p2align 4,,15
 259              		.thumb
 260              		.thumb_func
 261              		.type	port_is_isr_context, %function
 262              	port_is_isr_context:
 263              	.LFB126:
 264              		.loc 2 446 0
 265              		.cfi_startproc
 266              		@ args = 0, pretend = 0, frame = 8
 267              		@ frame_needed = 0, uses_anonymous_args = 0
 268              		@ link register save eliminated.
 269 0000 82B0     		sub	sp, sp, #8
 270              		.cfi_def_cfa_offset 8
 271              	.LBB18:
 272              	.LBB19:
 273              		.loc 3 385 0
 274              	@ 385 "/home/efe/ChibiOS/os/ext/CMSIS/include/core_cmFunc.h" 1
 275 0002 EFF30583 		MRS r3, ipsr
 276              	@ 0 "" 2
 277              		.thumb
 278 0006 0193     		str	r3, [sp, #4]
 279              		.loc 3 386 0
 280 0008 019B     		ldr	r3, [sp, #4]
ARM GAS  /tmp/cc0fLdkW.s 			page 6


 281              	.LBE19:
 282              	.LBE18:
 283              		.loc 2 448 0
 284 000a C3F30803 		ubfx	r3, r3, #0, #9
 285 000e 002B     		cmp	r3, #0
 286 0010 0CBF     		ite	eq
 287 0012 0023     		moveq	r3, #0
 288 0014 0123     		movne	r3, #1
 289 0016 DBB2     		uxtb	r3, r3
 290              		.loc 2 449 0
 291 0018 1846     		mov	r0, r3
 292 001a 02B0     		add	sp, sp, #8
 293              		@ sp needed
 294 001c 7047     		bx	lr
 295              		.cfi_endproc
 296              	.LFE126:
 297              		.size	port_is_isr_context, .-port_is_isr_context
 298 001e 00BF     		.section	.text.port_lock,"ax",%progbits
 299              		.align	2
 300              		.p2align 4,,15
 301              		.thumb
 302              		.thumb_func
 303              		.type	port_lock, %function
 304              	port_lock:
 305              	.LFB127:
 306              		.loc 2 456 0
 307              		.cfi_startproc
 308              		@ args = 0, pretend = 0, frame = 8
 309              		@ frame_needed = 0, uses_anonymous_args = 0
 310              		@ link register save eliminated.
 311 0000 82B0     		sub	sp, sp, #8
 312              		.cfi_def_cfa_offset 8
 313 0002 2023     		movs	r3, #32
 314 0004 0193     		str	r3, [sp, #4]
 315              	.LBB20:
 316              	.LBB21:
 317              		.loc 3 548 0
 318 0006 019B     		ldr	r3, [sp, #4]
 319              	@ 548 "/home/efe/ChibiOS/os/ext/CMSIS/include/core_cmFunc.h" 1
 320 0008 83F31188 		MSR basepri, r3
 321              	@ 0 "" 2
 322              		.thumb
 323              	.LBE21:
 324              	.LBE20:
 325              		.loc 2 463 0
 326 000c 02B0     		add	sp, sp, #8
 327              		@ sp needed
 328 000e 7047     		bx	lr
 329              		.cfi_endproc
 330              	.LFE127:
 331              		.size	port_lock, .-port_lock
 332              		.section	.text.port_unlock,"ax",%progbits
 333              		.align	2
 334              		.p2align 4,,15
 335              		.thumb
 336              		.thumb_func
 337              		.type	port_unlock, %function
ARM GAS  /tmp/cc0fLdkW.s 			page 7


 338              	port_unlock:
 339              	.LFB128:
 340              		.loc 2 470 0
 341              		.cfi_startproc
 342              		@ args = 0, pretend = 0, frame = 8
 343              		@ frame_needed = 0, uses_anonymous_args = 0
 344              		@ link register save eliminated.
 345 0000 82B0     		sub	sp, sp, #8
 346              		.cfi_def_cfa_offset 8
 347 0002 0023     		movs	r3, #0
 348 0004 0193     		str	r3, [sp, #4]
 349              	.LBB22:
 350              	.LBB23:
 351              		.loc 3 548 0
 352 0006 019B     		ldr	r3, [sp, #4]
 353              	@ 548 "/home/efe/ChibiOS/os/ext/CMSIS/include/core_cmFunc.h" 1
 354 0008 83F31188 		MSR basepri, r3
 355              	@ 0 "" 2
 356              		.thumb
 357              	.LBE23:
 358              	.LBE22:
 359              		.loc 2 477 0
 360 000c 02B0     		add	sp, sp, #8
 361              		@ sp needed
 362 000e 7047     		bx	lr
 363              		.cfi_endproc
 364              	.LFE128:
 365              		.size	port_unlock, .-port_unlock
 366              		.section	.text.port_lock_from_isr,"ax",%progbits
 367              		.align	2
 368              		.p2align 4,,15
 369              		.thumb
 370              		.thumb_func
 371              		.type	port_lock_from_isr, %function
 372              	port_lock_from_isr:
 373              	.LFB129:
 374              		.loc 2 485 0
 375              		.cfi_startproc
 376              		@ args = 0, pretend = 0, frame = 0
 377              		@ frame_needed = 0, uses_anonymous_args = 0
 378 0000 08B5     		push	{r3, lr}
 379              		.cfi_def_cfa_offset 8
 380              		.cfi_offset 3, -8
 381              		.cfi_offset 14, -4
 382              		.loc 2 487 0
 383 0002 FFF7FEFF 		bl	port_lock
 384              		.loc 2 488 0
 385 0006 08BD     		pop	{r3, pc}
 386              		.cfi_endproc
 387              	.LFE129:
 388              		.size	port_lock_from_isr, .-port_lock_from_isr
 389 0008 AFF30080 		.section	.text.port_unlock_from_isr,"ax",%progbits
 389      AFF30080 
 390              		.align	2
 391              		.p2align 4,,15
 392              		.thumb
 393              		.thumb_func
ARM GAS  /tmp/cc0fLdkW.s 			page 8


 394              		.type	port_unlock_from_isr, %function
 395              	port_unlock_from_isr:
 396              	.LFB130:
 397              		.loc 2 496 0
 398              		.cfi_startproc
 399              		@ args = 0, pretend = 0, frame = 0
 400              		@ frame_needed = 0, uses_anonymous_args = 0
 401 0000 08B5     		push	{r3, lr}
 402              		.cfi_def_cfa_offset 8
 403              		.cfi_offset 3, -8
 404              		.cfi_offset 14, -4
 405              		.loc 2 498 0
 406 0002 FFF7FEFF 		bl	port_unlock
 407              		.loc 2 499 0
 408 0006 08BD     		pop	{r3, pc}
 409              		.cfi_endproc
 410              	.LFE130:
 411              		.size	port_unlock_from_isr, .-port_unlock_from_isr
 412 0008 AFF30080 		.section	.text.port_disable,"ax",%progbits
 412      AFF30080 
 413              		.align	2
 414              		.p2align 4,,15
 415              		.thumb
 416              		.thumb_func
 417              		.type	port_disable, %function
 418              	port_disable:
 419              	.LFB131:
 420              		.loc 2 506 0
 421              		.cfi_startproc
 422              		@ args = 0, pretend = 0, frame = 0
 423              		@ frame_needed = 0, uses_anonymous_args = 0
 424              		@ link register save eliminated.
 425              	.LBB24:
 426              	.LBB25:
 427              		.loc 3 344 0
 428              	@ 344 "/home/efe/ChibiOS/os/ext/CMSIS/include/core_cmFunc.h" 1
 429 0000 72B6     		cpsid i
 430              	@ 0 "" 2
 431              		.thumb
 432              	.LBE25:
 433              	.LBE24:
 434              		.loc 2 509 0
 435 0002 7047     		bx	lr
 436              		.cfi_endproc
 437              	.LFE131:
 438              		.size	port_disable, .-port_disable
 439 0004 AFF30080 		.section	.text.port_enable,"ax",%progbits
 439      AFF30080 
 439      AFF30080 
 440              		.align	2
 441              		.p2align 4,,15
 442              		.thumb
 443              		.thumb_func
 444              		.type	port_enable, %function
 445              	port_enable:
 446              	.LFB133:
 447              		.loc 2 530 0
ARM GAS  /tmp/cc0fLdkW.s 			page 9


 448              		.cfi_startproc
 449              		@ args = 0, pretend = 0, frame = 8
 450              		@ frame_needed = 0, uses_anonymous_args = 0
 451              		@ link register save eliminated.
 452 0000 82B0     		sub	sp, sp, #8
 453              		.cfi_def_cfa_offset 8
 454 0002 0023     		movs	r3, #0
 455 0004 0193     		str	r3, [sp, #4]
 456              	.LBB26:
 457              	.LBB27:
 458              		.loc 3 548 0
 459 0006 019B     		ldr	r3, [sp, #4]
 460              	@ 548 "/home/efe/ChibiOS/os/ext/CMSIS/include/core_cmFunc.h" 1
 461 0008 83F31188 		MSR basepri, r3
 462              	@ 0 "" 2
 463              		.thumb
 464              	.LBE27:
 465              	.LBE26:
 466              	.LBB28:
 467              	.LBB29:
 468              		.loc 3 333 0
 469              	@ 333 "/home/efe/ChibiOS/os/ext/CMSIS/include/core_cmFunc.h" 1
 470 000c 62B6     		cpsie i
 471              	@ 0 "" 2
 472              		.thumb
 473              	.LBE29:
 474              	.LBE28:
 475              		.loc 2 536 0
 476 000e 02B0     		add	sp, sp, #8
 477              		@ sp needed
 478 0010 7047     		bx	lr
 479              		.cfi_endproc
 480              	.LFE133:
 481              		.size	port_enable, .-port_enable
 482 0012 00BFAFF3 		.section	.text.port_wait_for_interrupt,"ax",%progbits
 482      0080AFF3 
 482      0080AFF3 
 482      0080
 483              		.align	2
 484              		.p2align 4,,15
 485              		.thumb
 486              		.thumb_func
 487              		.type	port_wait_for_interrupt, %function
 488              	port_wait_for_interrupt:
 489              	.LFB134:
 490              		.loc 2 546 0
 491              		.cfi_startproc
 492              		@ args = 0, pretend = 0, frame = 0
 493              		@ frame_needed = 0, uses_anonymous_args = 0
 494              		@ link register save eliminated.
 495              		.loc 2 551 0
 496 0000 7047     		bx	lr
 497              		.cfi_endproc
 498              	.LFE134:
 499              		.size	port_wait_for_interrupt, .-port_wait_for_interrupt
 500 0002 00BFAFF3 		.section	.text.port_rt_get_counter_value,"ax",%progbits
 500      0080AFF3 
ARM GAS  /tmp/cc0fLdkW.s 			page 10


 500      0080AFF3 
 500      0080
 501              		.align	2
 502              		.p2align 4,,15
 503              		.thumb
 504              		.thumb_func
 505              		.type	port_rt_get_counter_value, %function
 506              	port_rt_get_counter_value:
 507              	.LFB135:
 508              		.loc 2 558 0
 509              		.cfi_startproc
 510              		@ args = 0, pretend = 0, frame = 0
 511              		@ frame_needed = 0, uses_anonymous_args = 0
 512              		@ link register save eliminated.
 513              		.loc 2 560 0
 514 0000 014B     		ldr	r3, .L29
 515 0002 5B68     		ldr	r3, [r3, #4]
 516              		.loc 2 561 0
 517 0004 1846     		mov	r0, r3
 518 0006 7047     		bx	lr
 519              	.L30:
 520              		.align	2
 521              	.L29:
 522 0008 001000E0 		.word	-536866816
 523              		.cfi_endproc
 524              	.LFE135:
 525              		.size	port_rt_get_counter_value, .-port_rt_get_counter_value
 526 000c AFF30080 		.section	.text.st_lld_get_counter,"ax",%progbits
 527              		.align	2
 528              		.p2align 4,,15
 529              		.thumb
 530              		.thumb_func
 531              		.type	st_lld_get_counter, %function
 532              	st_lld_get_counter:
 533              	.LFB136:
 534              		.file 4 "/home/efe/ChibiOS/os/hal/ports/STM32/LLD/TIMv1/st_lld.h"
 535              		.loc 4 139 0
 536              		.cfi_startproc
 537              		@ args = 0, pretend = 0, frame = 0
 538              		@ frame_needed = 0, uses_anonymous_args = 0
 539              		@ link register save eliminated.
 540              		.loc 4 141 0
 541 0000 4FF08043 		mov	r3, #1073741824
 542 0004 5B6A     		ldr	r3, [r3, #36]
 543              		.loc 4 142 0
 544 0006 1846     		mov	r0, r3
 545 0008 7047     		bx	lr
 546              		.cfi_endproc
 547              	.LFE136:
 548              		.size	st_lld_get_counter, .-st_lld_get_counter
 549 000a 00BFAFF3 		.section	.text.port_timer_stop_alarm,"ax",%progbits
 549      0080
 550              		.align	2
 551              		.p2align 4,,15
 552              		.thumb
 553              		.thumb_func
 554              		.type	port_timer_stop_alarm, %function
ARM GAS  /tmp/cc0fLdkW.s 			page 11


 555              	port_timer_stop_alarm:
 556              	.LFB143:
 557              		.file 5 "/home/efe/ChibiOS/os/rt/ports/ARMCMx/chcore_timer.h"
 558              		.loc 5 81 0
 559              		.cfi_startproc
 560              		@ args = 0, pretend = 0, frame = 0
 561              		@ frame_needed = 0, uses_anonymous_args = 0
 562 0000 08B5     		push	{r3, lr}
 563              		.cfi_def_cfa_offset 8
 564              		.cfi_offset 3, -8
 565              		.cfi_offset 14, -4
 566              		.loc 5 83 0
 567 0002 FFF7FEFF 		bl	stStopAlarm
 568              		.loc 5 84 0
 569 0006 08BD     		pop	{r3, pc}
 570              		.cfi_endproc
 571              	.LFE143:
 572              		.size	port_timer_stop_alarm, .-port_timer_stop_alarm
 573 0008 AFF30080 		.section	.text.port_timer_set_alarm,"ax",%progbits
 573      AFF30080 
 574              		.align	2
 575              		.p2align 4,,15
 576              		.thumb
 577              		.thumb_func
 578              		.type	port_timer_set_alarm, %function
 579              	port_timer_set_alarm:
 580              	.LFB144:
 581              		.loc 5 93 0
 582              		.cfi_startproc
 583              		@ args = 0, pretend = 0, frame = 8
 584              		@ frame_needed = 0, uses_anonymous_args = 0
 585 0000 00B5     		push	{lr}
 586              		.cfi_def_cfa_offset 4
 587              		.cfi_offset 14, -4
 588 0002 83B0     		sub	sp, sp, #12
 589              		.cfi_def_cfa_offset 16
 590 0004 0190     		str	r0, [sp, #4]
 591              		.loc 5 95 0
 592 0006 0198     		ldr	r0, [sp, #4]
 593 0008 FFF7FEFF 		bl	stSetAlarm
 594              		.loc 5 96 0
 595 000c 03B0     		add	sp, sp, #12
 596              		@ sp needed
 597 000e 5DF804FB 		ldr	pc, [sp], #4
 598              		.cfi_endproc
 599              	.LFE144:
 600              		.size	port_timer_set_alarm, .-port_timer_set_alarm
 601 0012 00BFAFF3 		.section	.text.port_timer_get_time,"ax",%progbits
 601      0080AFF3 
 601      0080AFF3 
 601      0080
 602              		.align	2
 603              		.p2align 4,,15
 604              		.thumb
 605              		.thumb_func
 606              		.type	port_timer_get_time, %function
 607              	port_timer_get_time:
ARM GAS  /tmp/cc0fLdkW.s 			page 12


 608              	.LFB145:
 609              		.loc 5 105 0
 610              		.cfi_startproc
 611              		@ args = 0, pretend = 0, frame = 0
 612              		@ frame_needed = 0, uses_anonymous_args = 0
 613 0000 08B5     		push	{r3, lr}
 614              		.cfi_def_cfa_offset 8
 615              		.cfi_offset 3, -8
 616              		.cfi_offset 14, -4
 617              		.loc 5 107 0
 618 0002 FFF7FEFF 		bl	st_lld_get_counter
 619 0006 0346     		mov	r3, r0
 620              		.loc 5 108 0
 621 0008 1846     		mov	r0, r3
 622 000a 08BD     		pop	{r3, pc}
 623              		.cfi_endproc
 624              	.LFE145:
 625              		.size	port_timer_get_time, .-port_timer_get_time
 626 000c AFF30080 		.section	.text.chSysEnable,"ax",%progbits
 627              		.align	2
 628              		.p2align 4,,15
 629              		.thumb
 630              		.thumb_func
 631              		.type	chSysEnable, %function
 632              	chSysEnable:
 633              	.LFB166:
 634              		.file 6 "/home/efe/ChibiOS/os/rt/include/chsys.h"
 635              		.loc 6 335 0
 636              		.cfi_startproc
 637              		@ args = 0, pretend = 0, frame = 0
 638              		@ frame_needed = 0, uses_anonymous_args = 0
 639 0000 08B5     		push	{r3, lr}
 640              		.cfi_def_cfa_offset 8
 641              		.cfi_offset 3, -8
 642              		.cfi_offset 14, -4
 643              		.loc 6 337 0
 644 0002 FFF7FEFF 		bl	_dbg_check_enable
 645              		.loc 6 338 0
 646 0006 FFF7FEFF 		bl	port_enable
 647              		.loc 6 339 0
 648 000a 08BD     		pop	{r3, pc}
 649              		.cfi_endproc
 650              	.LFE166:
 651              		.size	chSysEnable, .-chSysEnable
 652 000c AFF30080 		.section	.text.chSysLock,"ax",%progbits
 653              		.align	2
 654              		.p2align 4,,15
 655              		.thumb
 656              		.thumb_func
 657              		.type	chSysLock, %function
 658              	chSysLock:
 659              	.LFB167:
 660              		.loc 6 346 0
 661              		.cfi_startproc
 662              		@ args = 0, pretend = 0, frame = 0
 663              		@ frame_needed = 0, uses_anonymous_args = 0
 664 0000 08B5     		push	{r3, lr}
ARM GAS  /tmp/cc0fLdkW.s 			page 13


 665              		.cfi_def_cfa_offset 8
 666              		.cfi_offset 3, -8
 667              		.cfi_offset 14, -4
 668              		.loc 6 348 0
 669 0002 FFF7FEFF 		bl	port_lock
 670              		.loc 6 349 0
 671 0006 FFF7FEFF 		bl	_stats_start_measure_crit_thd
 672              		.loc 6 350 0
 673 000a FFF7FEFF 		bl	_dbg_check_lock
 674              		.loc 6 351 0
 675 000e 08BD     		pop	{r3, pc}
 676              		.cfi_endproc
 677              	.LFE167:
 678              		.size	chSysLock, .-chSysLock
 679              		.section	.text.chSysUnlock,"ax",%progbits
 680              		.align	2
 681              		.p2align 4,,15
 682              		.thumb
 683              		.thumb_func
 684              		.type	chSysUnlock, %function
 685              	chSysUnlock:
 686              	.LFB168:
 687              		.loc 6 358 0
 688              		.cfi_startproc
 689              		@ args = 0, pretend = 0, frame = 0
 690              		@ frame_needed = 0, uses_anonymous_args = 0
 691 0000 08B5     		push	{r3, lr}
 692              		.cfi_def_cfa_offset 8
 693              		.cfi_offset 3, -8
 694              		.cfi_offset 14, -4
 695              		.loc 6 360 0
 696 0002 FFF7FEFF 		bl	_dbg_check_unlock
 697              		.loc 6 361 0
 698 0006 FFF7FEFF 		bl	_stats_stop_measure_crit_thd
 699              		.loc 6 367 0
 700 000a 094B     		ldr	r3, .L41
 701 000c 1A68     		ldr	r2, [r3]
 702 000e 084B     		ldr	r3, .L41
 703 0010 9A42     		cmp	r2, r3
 704 0012 0AD0     		beq	.L40
 705              		.loc 6 367 0 is_stmt 0 discriminator 1
 706 0014 064B     		ldr	r3, .L41
 707 0016 9B69     		ldr	r3, [r3, #24]
 708 0018 9A68     		ldr	r2, [r3, #8]
 709 001a 054B     		ldr	r3, .L41
 710 001c 1B68     		ldr	r3, [r3]
 711 001e 9B68     		ldr	r3, [r3, #8]
 712 0020 9A42     		cmp	r2, r3
 713 0022 02D2     		bcs	.L40
 714 0024 0348     		ldr	r0, .L41+4
 715 0026 FFF7FEFF 		bl	chSysHalt
 716              	.L40:
 717              		.loc 6 371 0 is_stmt 1
 718 002a FFF7FEFF 		bl	port_unlock
 719              		.loc 6 372 0
 720 002e 08BD     		pop	{r3, pc}
 721              	.L42:
ARM GAS  /tmp/cc0fLdkW.s 			page 14


 722              		.align	2
 723              	.L41:
 724 0030 00000000 		.word	ch
 725 0034 00000000 		.word	__func__.5925
 726              		.cfi_endproc
 727              	.LFE168:
 728              		.size	chSysUnlock, .-chSysUnlock
 729 0038 AFF30080 		.section	.text.chSysLockFromISR,"ax",%progbits
 729      AFF30080 
 730              		.align	2
 731              		.p2align 4,,15
 732              		.thumb
 733              		.thumb_func
 734              		.type	chSysLockFromISR, %function
 735              	chSysLockFromISR:
 736              	.LFB169:
 737              		.loc 6 386 0
 738              		.cfi_startproc
 739              		@ args = 0, pretend = 0, frame = 0
 740              		@ frame_needed = 0, uses_anonymous_args = 0
 741 0000 08B5     		push	{r3, lr}
 742              		.cfi_def_cfa_offset 8
 743              		.cfi_offset 3, -8
 744              		.cfi_offset 14, -4
 745              		.loc 6 388 0
 746 0002 FFF7FEFF 		bl	port_lock_from_isr
 747              		.loc 6 389 0
 748 0006 FFF7FEFF 		bl	_stats_start_measure_crit_isr
 749              		.loc 6 390 0
 750 000a FFF7FEFF 		bl	_dbg_check_lock_from_isr
 751              		.loc 6 391 0
 752 000e 08BD     		pop	{r3, pc}
 753              		.cfi_endproc
 754              	.LFE169:
 755              		.size	chSysLockFromISR, .-chSysLockFromISR
 756              		.section	.text.chSysUnlockFromISR,"ax",%progbits
 757              		.align	2
 758              		.p2align 4,,15
 759              		.thumb
 760              		.thumb_func
 761              		.type	chSysUnlockFromISR, %function
 762              	chSysUnlockFromISR:
 763              	.LFB170:
 764              		.loc 6 406 0
 765              		.cfi_startproc
 766              		@ args = 0, pretend = 0, frame = 0
 767              		@ frame_needed = 0, uses_anonymous_args = 0
 768 0000 08B5     		push	{r3, lr}
 769              		.cfi_def_cfa_offset 8
 770              		.cfi_offset 3, -8
 771              		.cfi_offset 14, -4
 772              		.loc 6 408 0
 773 0002 FFF7FEFF 		bl	_dbg_check_unlock_from_isr
 774              		.loc 6 409 0
 775 0006 FFF7FEFF 		bl	_stats_stop_measure_crit_isr
 776              		.loc 6 410 0
 777 000a FFF7FEFF 		bl	port_unlock_from_isr
ARM GAS  /tmp/cc0fLdkW.s 			page 15


 778              		.loc 6 411 0
 779 000e 08BD     		pop	{r3, pc}
 780              		.cfi_endproc
 781              	.LFE170:
 782              		.size	chSysUnlockFromISR, .-chSysUnlockFromISR
 783              		.section	.text.chVTGetSystemTimeX,"ax",%progbits
 784              		.align	2
 785              		.p2align 4,,15
 786              		.thumb
 787              		.thumb_func
 788              		.type	chVTGetSystemTimeX, %function
 789              	chVTGetSystemTimeX:
 790              	.LFB175:
 791              		.file 7 "/home/efe/ChibiOS/os/rt/include/chvt.h"
 792              		.loc 7 228 0
 793              		.cfi_startproc
 794              		@ args = 0, pretend = 0, frame = 0
 795              		@ frame_needed = 0, uses_anonymous_args = 0
 796 0000 08B5     		push	{r3, lr}
 797              		.cfi_def_cfa_offset 8
 798              		.cfi_offset 3, -8
 799              		.cfi_offset 14, -4
 800              		.loc 7 233 0
 801 0002 FFF7FEFF 		bl	port_timer_get_time
 802 0006 0346     		mov	r3, r0
 803              		.loc 7 235 0
 804 0008 1846     		mov	r0, r3
 805 000a 08BD     		pop	{r3, pc}
 806              		.cfi_endproc
 807              	.LFE175:
 808              		.size	chVTGetSystemTimeX, .-chVTGetSystemTimeX
 809              		.section	.text.chVTDoTickI,"ax",%progbits
 810              		.align	2
 811              		.p2align 4,,15
 812              		.thumb
 813              		.thumb_func
 814              		.type	chVTDoTickI, %function
 815              	chVTDoTickI:
 816              	.LFB187:
 817              		.loc 7 466 0
 818              		.cfi_startproc
 819              		@ args = 0, pretend = 0, frame = 16
 820              		@ frame_needed = 0, uses_anonymous_args = 0
 821 0000 00B5     		push	{lr}
 822              		.cfi_def_cfa_offset 4
 823              		.cfi_offset 14, -4
 824 0002 85B0     		sub	sp, sp, #20
 825              		.cfi_def_cfa_offset 24
 826              		.loc 7 468 0
 827 0004 FFF7FEFF 		bl	chDbgCheckClassI
 828              		.loc 7 494 0
 829 0008 334B     		ldr	r3, .L54
 830 000a DB69     		ldr	r3, [r3, #28]
 831 000c 0393     		str	r3, [sp, #12]
 832              		.loc 7 495 0
 833 000e FFF7FEFF 		bl	chVTGetSystemTimeX
 834 0012 0290     		str	r0, [sp, #8]
ARM GAS  /tmp/cc0fLdkW.s 			page 16


 835              		.loc 7 501 0
 836 0014 2AE0     		b	.L48
 837              	.L50:
 838              	.LBB30:
 839              		.loc 7 505 0
 840 0016 304B     		ldr	r3, .L54
 841 0018 9A6A     		ldr	r2, [r3, #40]
 842 001a 039B     		ldr	r3, [sp, #12]
 843 001c 9B68     		ldr	r3, [r3, #8]
 844 001e 1A44     		add	r2, r2, r3
 845 0020 2D4B     		ldr	r3, .L54
 846 0022 9A62     		str	r2, [r3, #40]
 847              		.loc 7 507 0
 848 0024 039B     		ldr	r3, [sp, #12]
 849 0026 1B68     		ldr	r3, [r3]
 850 0028 2C4A     		ldr	r2, .L54+4
 851 002a 5A60     		str	r2, [r3, #4]
 852              		.loc 7 508 0
 853 002c 039B     		ldr	r3, [sp, #12]
 854 002e 1A68     		ldr	r2, [r3]
 855 0030 294B     		ldr	r3, .L54
 856 0032 DA61     		str	r2, [r3, #28]
 857              		.loc 7 509 0
 858 0034 039B     		ldr	r3, [sp, #12]
 859 0036 DB68     		ldr	r3, [r3, #12]
 860 0038 0093     		str	r3, [sp]
 861              		.loc 7 510 0
 862 003a 039B     		ldr	r3, [sp, #12]
 863 003c 0022     		movs	r2, #0
 864 003e DA60     		str	r2, [r3, #12]
 865              		.loc 7 513 0
 866 0040 254B     		ldr	r3, .L54
 867 0042 DA69     		ldr	r2, [r3, #28]
 868 0044 254B     		ldr	r3, .L54+4
 869 0046 9A42     		cmp	r2, r3
 870 0048 01D1     		bne	.L49
 871              		.loc 7 514 0
 872 004a FFF7FEFF 		bl	port_timer_stop_alarm
 873              	.L49:
 874              		.loc 7 520 0
 875 004e FFF7FEFF 		bl	chSysUnlockFromISR
 876              		.loc 7 523 0
 877 0052 039B     		ldr	r3, [sp, #12]
 878 0054 1A69     		ldr	r2, [r3, #16]
 879 0056 009B     		ldr	r3, [sp]
 880 0058 1046     		mov	r0, r2
 881 005a 9847     		blx	r3
 882              		.loc 7 527 0
 883 005c FFF7FEFF 		bl	chSysLockFromISR
 884              		.loc 7 531 0
 885 0060 1D4B     		ldr	r3, .L54
 886 0062 DB69     		ldr	r3, [r3, #28]
 887 0064 0393     		str	r3, [sp, #12]
 888              		.loc 7 532 0
 889 0066 FFF7FEFF 		bl	chVTGetSystemTimeX
 890 006a 0290     		str	r0, [sp, #8]
 891              	.L48:
ARM GAS  /tmp/cc0fLdkW.s 			page 17


 892              	.LBE30:
 893              		.loc 7 501 0 discriminator 1
 894 006c 039B     		ldr	r3, [sp, #12]
 895 006e 9A68     		ldr	r2, [r3, #8]
 896 0070 194B     		ldr	r3, .L54
 897 0072 9B6A     		ldr	r3, [r3, #40]
 898 0074 0299     		ldr	r1, [sp, #8]
 899 0076 CB1A     		subs	r3, r1, r3
 900 0078 9A42     		cmp	r2, r3
 901 007a CCD9     		bls	.L50
 902              		.loc 7 536 0
 903 007c 164B     		ldr	r3, .L54
 904 007e DA69     		ldr	r2, [r3, #28]
 905 0080 164B     		ldr	r3, .L54+4
 906 0082 9A42     		cmp	r2, r3
 907 0084 00D1     		bne	.L51
 908              		.loc 7 537 0
 909 0086 23E0     		b	.L47
 910              	.L51:
 911              		.loc 7 541 0
 912 0088 134B     		ldr	r3, .L54
 913 008a 9A6A     		ldr	r2, [r3, #40]
 914 008c 039B     		ldr	r3, [sp, #12]
 915 008e 9B68     		ldr	r3, [r3, #8]
 916 0090 1A44     		add	r2, r2, r3
 917 0092 029B     		ldr	r3, [sp, #8]
 918 0094 D31A     		subs	r3, r2, r3
 919 0096 0193     		str	r3, [sp, #4]
 920              		.loc 7 542 0
 921 0098 019B     		ldr	r3, [sp, #4]
 922 009a 012B     		cmp	r3, #1
 923 009c 01D8     		bhi	.L53
 924              		.loc 7 543 0
 925 009e 0223     		movs	r3, #2
 926 00a0 0193     		str	r3, [sp, #4]
 927              	.L53:
 928              		.loc 7 545 0
 929 00a2 029A     		ldr	r2, [sp, #8]
 930 00a4 019B     		ldr	r3, [sp, #4]
 931 00a6 1344     		add	r3, r3, r2
 932 00a8 1846     		mov	r0, r3
 933 00aa FFF7FEFF 		bl	port_timer_set_alarm
 934              		.loc 7 547 0
 935 00ae FFF7FEFF 		bl	chVTGetSystemTimeX
 936 00b2 0246     		mov	r2, r0
 937 00b4 084B     		ldr	r3, .L54
 938 00b6 9B6A     		ldr	r3, [r3, #40]
 939 00b8 D21A     		subs	r2, r2, r3
 940 00ba 0299     		ldr	r1, [sp, #8]
 941 00bc 019B     		ldr	r3, [sp, #4]
 942 00be 1944     		add	r1, r1, r3
 943 00c0 054B     		ldr	r3, .L54
 944 00c2 9B6A     		ldr	r3, [r3, #40]
 945 00c4 CB1A     		subs	r3, r1, r3
 946 00c6 9A42     		cmp	r2, r3
 947 00c8 02D9     		bls	.L47
 948              		.loc 7 547 0 is_stmt 0 discriminator 1
ARM GAS  /tmp/cc0fLdkW.s 			page 18


 949 00ca 0548     		ldr	r0, .L54+8
 950 00cc FFF7FEFF 		bl	chSysHalt
 951              	.L47:
 952              		.loc 7 551 0 is_stmt 1
 953 00d0 05B0     		add	sp, sp, #20
 954              		@ sp needed
 955 00d2 5DF804FB 		ldr	pc, [sp], #4
 956              	.L55:
 957 00d6 00BF     		.align	2
 958              	.L54:
 959 00d8 00000000 		.word	ch
 960 00dc 1C000000 		.word	ch+28
 961 00e0 00000000 		.word	__func__.6011
 962              		.cfi_endproc
 963              	.LFE187:
 964              		.size	chVTDoTickI, .-chVTDoTickI
 965 00e4 AFF30080 		.section	.text.chRegSetThreadName,"ax",%progbits
 965      AFF30080 
 965      AFF30080 
 966              		.align	2
 967              		.p2align 4,,15
 968              		.thumb
 969              		.thumb_func
 970              		.type	chRegSetThreadName, %function
 971              	chRegSetThreadName:
 972              	.LFB197:
 973              		.file 8 "/home/efe/ChibiOS/os/rt/include/chregistry.h"
 974              		.loc 8 132 0
 975              		.cfi_startproc
 976              		@ args = 0, pretend = 0, frame = 8
 977              		@ frame_needed = 0, uses_anonymous_args = 0
 978              		@ link register save eliminated.
 979 0000 82B0     		sub	sp, sp, #8
 980              		.cfi_def_cfa_offset 8
 981 0002 0190     		str	r0, [sp, #4]
 982              		.loc 8 135 0
 983 0004 024B     		ldr	r3, .L57
 984 0006 9B69     		ldr	r3, [r3, #24]
 985 0008 019A     		ldr	r2, [sp, #4]
 986 000a 9A61     		str	r2, [r3, #24]
 987              		.loc 8 139 0
 988 000c 02B0     		add	sp, sp, #8
 989              		@ sp needed
 990 000e 7047     		bx	lr
 991              	.L58:
 992              		.align	2
 993              	.L57:
 994 0010 00000000 		.word	ch
 995              		.cfi_endproc
 996              	.LFE197:
 997              		.size	chRegSetThreadName, .-chRegSetThreadName
 998 0014 AFF30080 		.section	.text.chRegSetThreadNameX,"ax",%progbits
 998      AFF30080 
 998      AFF30080 
 999              		.align	2
 1000              		.p2align 4,,15
 1001              		.thumb
ARM GAS  /tmp/cc0fLdkW.s 			page 19


 1002              		.thumb_func
 1003              		.type	chRegSetThreadNameX, %function
 1004              	chRegSetThreadNameX:
 1005              	.LFB199:
 1006              		.loc 8 172 0
 1007              		.cfi_startproc
 1008              		@ args = 0, pretend = 0, frame = 8
 1009              		@ frame_needed = 0, uses_anonymous_args = 0
 1010              		@ link register save eliminated.
 1011 0000 82B0     		sub	sp, sp, #8
 1012              		.cfi_def_cfa_offset 8
 1013 0002 0190     		str	r0, [sp, #4]
 1014 0004 0091     		str	r1, [sp]
 1015              		.loc 8 175 0
 1016 0006 019B     		ldr	r3, [sp, #4]
 1017 0008 009A     		ldr	r2, [sp]
 1018 000a 9A61     		str	r2, [r3, #24]
 1019              		.loc 8 180 0
 1020 000c 02B0     		add	sp, sp, #8
 1021              		@ sp needed
 1022 000e 7047     		bx	lr
 1023              		.cfi_endproc
 1024              	.LFE199:
 1025              		.size	chRegSetThreadNameX, .-chRegSetThreadNameX
 1026              		.section	.text._idle_thread,"ax",%progbits
 1027              		.align	2
 1028              		.p2align 4,,15
 1029              		.thumb
 1030              		.thumb_func
 1031              		.type	_idle_thread, %function
 1032              	_idle_thread:
 1033              	.LFB240:
 1034              		.file 9 "/home/efe/ChibiOS/os/rt/src/chsys.c"
 1035              		.loc 9 65 0
 1036              		.cfi_startproc
 1037              		@ args = 0, pretend = 0, frame = 8
 1038              		@ frame_needed = 0, uses_anonymous_args = 0
 1039 0000 00B5     		push	{lr}
 1040              		.cfi_def_cfa_offset 4
 1041              		.cfi_offset 14, -4
 1042 0002 83B0     		sub	sp, sp, #12
 1043              		.cfi_def_cfa_offset 16
 1044 0004 0190     		str	r0, [sp, #4]
 1045              	.L61:
 1046              		.loc 9 72 0 discriminator 1
 1047 0006 FFF7FEFF 		bl	port_wait_for_interrupt
 1048              		.loc 9 75 0 discriminator 1
 1049 000a FCE7     		b	.L61
 1050              		.cfi_endproc
 1051              	.LFE240:
 1052              		.size	_idle_thread, .-_idle_thread
 1053 000c AFF30080 		.section	.rodata
 1054              		.align	2
 1055              	.LC0:
 1056 0000 69646C65 		.ascii	"idle\000"
 1056      00
 1057 0005 000000   		.section	.text.chSysInit,"ax",%progbits
ARM GAS  /tmp/cc0fLdkW.s 			page 20


 1058              		.align	2
 1059              		.p2align 4,,15
 1060              		.global	chSysInit
 1061              		.thumb
 1062              		.thumb_func
 1063              		.type	chSysInit, %function
 1064              	chSysInit:
 1065              	.LFB241:
 1066              		.loc 9 93 0
 1067              		.cfi_startproc
 1068              		@ args = 0, pretend = 0, frame = 8
 1069              		@ frame_needed = 0, uses_anonymous_args = 0
 1070 0000 00B5     		push	{lr}
 1071              		.cfi_def_cfa_offset 4
 1072              		.cfi_offset 14, -4
 1073 0002 85B0     		sub	sp, sp, #20
 1074              		.cfi_def_cfa_offset 24
 1075              		.loc 9 98 0
 1076 0004 FFF7FEFF 		bl	port_init
 1077              		.loc 9 99 0
 1078 0008 FFF7FEFF 		bl	_scheduler_init
 1079              		.loc 9 100 0
 1080 000c FFF7FEFF 		bl	_vt_init
 1081              		.loc 9 102 0
 1082 0010 FFF7FEFF 		bl	_tm_init
 1083              		.loc 9 105 0
 1084 0014 FFF7FEFF 		bl	_core_init
 1085              		.loc 9 108 0
 1086 0018 FFF7FEFF 		bl	_heap_init
 1087              		.loc 9 111 0
 1088 001c FFF7FEFF 		bl	_stats_init
 1089              		.loc 9 114 0
 1090 0020 FFF7FEFF 		bl	_dbg_trace_init
 1091              		.loc 9 119 0
 1092 0024 1248     		ldr	r0, .L63
 1093 0026 4021     		movs	r1, #64
 1094 0028 FFF7FEFF 		bl	_thread_init
 1095 002c 0246     		mov	r2, r0
 1096 002e 114B     		ldr	r3, .L63+4
 1097 0030 9A61     		str	r2, [r3, #24]
 1098              		.loc 9 125 0
 1099 0032 104B     		ldr	r3, .L63+4
 1100 0034 9B69     		ldr	r3, [r3, #24]
 1101 0036 0122     		movs	r2, #1
 1102 0038 83F82020 		strb	r2, [r3, #32]
 1103              		.loc 9 129 0
 1104 003c 0D4B     		ldr	r3, .L63+4
 1105 003e 9B69     		ldr	r3, [r3, #24]
 1106 0040 0D4A     		ldr	r2, .L63+8
 1107 0042 DA61     		str	r2, [r3, #28]
 1108              		.loc 9 131 0
 1109 0044 FFF7FEFF 		bl	chSysEnable
 1110              		.loc 9 136 0
 1111 0048 0C48     		ldr	r0, .L63+12
 1112 004a FFF7FEFF 		bl	chRegSetThreadName
 1113              	.LBB31:
 1114              		.loc 9 144 0
ARM GAS  /tmp/cc0fLdkW.s 			page 21


 1115 004e 0023     		movs	r3, #0
 1116 0050 0093     		str	r3, [sp]
 1117 0052 0B48     		ldr	r0, .L63+16
 1118 0054 F821     		movs	r1, #248
 1119 0056 0122     		movs	r2, #1
 1120 0058 0A4B     		ldr	r3, .L63+20
 1121 005a FFF7FEFF 		bl	chThdCreateStatic
 1122 005e 0390     		str	r0, [sp, #12]
 1123              		.loc 9 149 0
 1124 0060 0398     		ldr	r0, [sp, #12]
 1125 0062 0949     		ldr	r1, .L63+24
 1126 0064 FFF7FEFF 		bl	chRegSetThreadNameX
 1127              	.LBE31:
 1128              		.loc 9 152 0
 1129 0068 05B0     		add	sp, sp, #20
 1130              		@ sp needed
 1131 006a 5DF804FB 		ldr	pc, [sp], #4
 1132              	.L64:
 1133 006e 00BF     		.align	2
 1134              	.L63:
 1135 0070 40040000 		.word	ch+1088
 1136 0074 00000000 		.word	ch
 1137 0078 00000000 		.word	__main_thread_stack_base__
 1138 007c 00000000 		.word	ch_debug
 1139 0080 E0040000 		.word	ch+1248
 1140 0084 00000000 		.word	_idle_thread
 1141 0088 00000000 		.word	.LC0
 1142              		.cfi_endproc
 1143              	.LFE241:
 1144              		.size	chSysInit, .-chSysInit
 1145 008c AFF30080 		.section	.text.chSysHalt,"ax",%progbits
 1146              		.align	2
 1147              		.p2align 4,,15
 1148              		.global	chSysHalt
 1149              		.thumb
 1150              		.thumb_func
 1151              		.type	chSysHalt, %function
 1152              	chSysHalt:
 1153              	.LFB242:
 1154              		.loc 9 166 0
 1155              		.cfi_startproc
 1156              		@ args = 0, pretend = 0, frame = 8
 1157              		@ frame_needed = 0, uses_anonymous_args = 0
 1158 0000 00B5     		push	{lr}
 1159              		.cfi_def_cfa_offset 4
 1160              		.cfi_offset 14, -4
 1161 0002 83B0     		sub	sp, sp, #12
 1162              		.cfi_def_cfa_offset 16
 1163 0004 0190     		str	r0, [sp, #4]
 1164              		.loc 9 168 0
 1165 0006 FFF7FEFF 		bl	port_disable
 1166              		.loc 9 175 0
 1167 000a 024B     		ldr	r3, .L67
 1168 000c 019A     		ldr	r2, [sp, #4]
 1169 000e DA62     		str	r2, [r3, #44]
 1170              	.L66:
 1171              		.loc 9 179 0 discriminator 1
ARM GAS  /tmp/cc0fLdkW.s 			page 22


 1172 0010 FEE7     		b	.L66
 1173              	.L68:
 1174 0012 00BF     		.align	2
 1175              	.L67:
 1176 0014 00000000 		.word	ch
 1177              		.cfi_endproc
 1178              	.LFE242:
 1179              		.size	chSysHalt, .-chSysHalt
 1180 0018 AFF30080 		.section	.text.chSysIntegrityCheckI,"ax",%progbits
 1180      AFF30080 
 1181              		.align	2
 1182              		.p2align 4,,15
 1183              		.global	chSysIntegrityCheckI
 1184              		.thumb
 1185              		.thumb_func
 1186              		.type	chSysIntegrityCheckI, %function
 1187              	chSysIntegrityCheckI:
 1188              	.LFB243:
 1189              		.loc 9 206 0
 1190              		.cfi_startproc
 1191              		@ args = 0, pretend = 0, frame = 24
 1192              		@ frame_needed = 0, uses_anonymous_args = 0
 1193 0000 00B5     		push	{lr}
 1194              		.cfi_def_cfa_offset 4
 1195              		.cfi_offset 14, -4
 1196 0002 87B0     		sub	sp, sp, #28
 1197              		.cfi_def_cfa_offset 32
 1198 0004 0190     		str	r0, [sp, #4]
 1199              		.loc 9 209 0
 1200 0006 FFF7FEFF 		bl	chDbgCheckClassI
 1201              		.loc 9 212 0
 1202 000a 019B     		ldr	r3, [sp, #4]
 1203 000c 03F00103 		and	r3, r3, #1
 1204 0010 002B     		cmp	r3, #0
 1205 0012 22D0     		beq	.L70
 1206              	.LBB32:
 1207              		.loc 9 216 0
 1208 0014 0023     		movs	r3, #0
 1209 0016 0593     		str	r3, [sp, #20]
 1210              		.loc 9 217 0
 1211 0018 3A4B     		ldr	r3, .L86
 1212 001a 1B68     		ldr	r3, [r3]
 1213 001c 0493     		str	r3, [sp, #16]
 1214              		.loc 9 218 0
 1215 001e 05E0     		b	.L71
 1216              	.L72:
 1217              		.loc 9 219 0
 1218 0020 059B     		ldr	r3, [sp, #20]
 1219 0022 0133     		adds	r3, r3, #1
 1220 0024 0593     		str	r3, [sp, #20]
 1221              		.loc 9 220 0
 1222 0026 049B     		ldr	r3, [sp, #16]
 1223 0028 1B68     		ldr	r3, [r3]
 1224 002a 0493     		str	r3, [sp, #16]
 1225              	.L71:
 1226              		.loc 9 218 0 discriminator 1
 1227 002c 049A     		ldr	r2, [sp, #16]
ARM GAS  /tmp/cc0fLdkW.s 			page 23


 1228 002e 354B     		ldr	r3, .L86
 1229 0030 9A42     		cmp	r2, r3
 1230 0032 F5D1     		bne	.L72
 1231              		.loc 9 224 0
 1232 0034 334B     		ldr	r3, .L86
 1233 0036 5B68     		ldr	r3, [r3, #4]
 1234 0038 0493     		str	r3, [sp, #16]
 1235              		.loc 9 225 0
 1236 003a 05E0     		b	.L73
 1237              	.L74:
 1238              		.loc 9 226 0
 1239 003c 059B     		ldr	r3, [sp, #20]
 1240 003e 013B     		subs	r3, r3, #1
 1241 0040 0593     		str	r3, [sp, #20]
 1242              		.loc 9 227 0
 1243 0042 049B     		ldr	r3, [sp, #16]
 1244 0044 5B68     		ldr	r3, [r3, #4]
 1245 0046 0493     		str	r3, [sp, #16]
 1246              	.L73:
 1247              		.loc 9 225 0 discriminator 1
 1248 0048 049A     		ldr	r2, [sp, #16]
 1249 004a 2E4B     		ldr	r3, .L86
 1250 004c 9A42     		cmp	r2, r3
 1251 004e F5D1     		bne	.L74
 1252              		.loc 9 231 0
 1253 0050 059B     		ldr	r3, [sp, #20]
 1254 0052 002B     		cmp	r3, #0
 1255 0054 01D0     		beq	.L70
 1256              		.loc 9 232 0
 1257 0056 0123     		movs	r3, #1
 1258 0058 50E0     		b	.L75
 1259              	.L70:
 1260              	.LBE32:
 1261              		.loc 9 237 0
 1262 005a 019B     		ldr	r3, [sp, #4]
 1263 005c 03F00203 		and	r3, r3, #2
 1264 0060 002B     		cmp	r3, #0
 1265 0062 22D0     		beq	.L76
 1266              	.LBB33:
 1267              		.loc 9 241 0
 1268 0064 0023     		movs	r3, #0
 1269 0066 0593     		str	r3, [sp, #20]
 1270              		.loc 9 242 0
 1271 0068 264B     		ldr	r3, .L86
 1272 006a DB69     		ldr	r3, [r3, #28]
 1273 006c 0393     		str	r3, [sp, #12]
 1274              		.loc 9 243 0
 1275 006e 05E0     		b	.L77
 1276              	.L78:
 1277              		.loc 9 244 0
 1278 0070 059B     		ldr	r3, [sp, #20]
 1279 0072 0133     		adds	r3, r3, #1
 1280 0074 0593     		str	r3, [sp, #20]
 1281              		.loc 9 245 0
 1282 0076 039B     		ldr	r3, [sp, #12]
 1283 0078 1B68     		ldr	r3, [r3]
 1284 007a 0393     		str	r3, [sp, #12]
ARM GAS  /tmp/cc0fLdkW.s 			page 24


 1285              	.L77:
 1286              		.loc 9 243 0 discriminator 1
 1287 007c 039A     		ldr	r2, [sp, #12]
 1288 007e 224B     		ldr	r3, .L86+4
 1289 0080 9A42     		cmp	r2, r3
 1290 0082 F5D1     		bne	.L78
 1291              		.loc 9 249 0
 1292 0084 1F4B     		ldr	r3, .L86
 1293 0086 1B6A     		ldr	r3, [r3, #32]
 1294 0088 0393     		str	r3, [sp, #12]
 1295              		.loc 9 250 0
 1296 008a 05E0     		b	.L79
 1297              	.L80:
 1298              		.loc 9 251 0
 1299 008c 059B     		ldr	r3, [sp, #20]
 1300 008e 013B     		subs	r3, r3, #1
 1301 0090 0593     		str	r3, [sp, #20]
 1302              		.loc 9 252 0
 1303 0092 039B     		ldr	r3, [sp, #12]
 1304 0094 5B68     		ldr	r3, [r3, #4]
 1305 0096 0393     		str	r3, [sp, #12]
 1306              	.L79:
 1307              		.loc 9 250 0 discriminator 1
 1308 0098 039A     		ldr	r2, [sp, #12]
 1309 009a 1B4B     		ldr	r3, .L86+4
 1310 009c 9A42     		cmp	r2, r3
 1311 009e F5D1     		bne	.L80
 1312              		.loc 9 256 0
 1313 00a0 059B     		ldr	r3, [sp, #20]
 1314 00a2 002B     		cmp	r3, #0
 1315 00a4 01D0     		beq	.L76
 1316              		.loc 9 257 0
 1317 00a6 0123     		movs	r3, #1
 1318 00a8 28E0     		b	.L75
 1319              	.L76:
 1320              	.LBE33:
 1321              		.loc 9 262 0
 1322 00aa 019B     		ldr	r3, [sp, #4]
 1323 00ac 03F00403 		and	r3, r3, #4
 1324 00b0 002B     		cmp	r3, #0
 1325 00b2 22D0     		beq	.L81
 1326              	.LBB34:
 1327              		.loc 9 266 0
 1328 00b4 0023     		movs	r3, #0
 1329 00b6 0593     		str	r3, [sp, #20]
 1330              		.loc 9 267 0
 1331 00b8 124B     		ldr	r3, .L86
 1332 00ba 1B69     		ldr	r3, [r3, #16]
 1333 00bc 0293     		str	r3, [sp, #8]
 1334              		.loc 9 268 0
 1335 00be 05E0     		b	.L82
 1336              	.L83:
 1337              		.loc 9 269 0
 1338 00c0 059B     		ldr	r3, [sp, #20]
 1339 00c2 0133     		adds	r3, r3, #1
 1340 00c4 0593     		str	r3, [sp, #20]
 1341              		.loc 9 270 0
ARM GAS  /tmp/cc0fLdkW.s 			page 25


 1342 00c6 029B     		ldr	r3, [sp, #8]
 1343 00c8 1B69     		ldr	r3, [r3, #16]
 1344 00ca 0293     		str	r3, [sp, #8]
 1345              	.L82:
 1346              		.loc 9 268 0 discriminator 1
 1347 00cc 029A     		ldr	r2, [sp, #8]
 1348 00ce 0D4B     		ldr	r3, .L86
 1349 00d0 9A42     		cmp	r2, r3
 1350 00d2 F5D1     		bne	.L83
 1351              		.loc 9 274 0
 1352 00d4 0B4B     		ldr	r3, .L86
 1353 00d6 5B69     		ldr	r3, [r3, #20]
 1354 00d8 0293     		str	r3, [sp, #8]
 1355              		.loc 9 275 0
 1356 00da 05E0     		b	.L84
 1357              	.L85:
 1358              		.loc 9 276 0
 1359 00dc 059B     		ldr	r3, [sp, #20]
 1360 00de 013B     		subs	r3, r3, #1
 1361 00e0 0593     		str	r3, [sp, #20]
 1362              		.loc 9 277 0
 1363 00e2 029B     		ldr	r3, [sp, #8]
 1364 00e4 5B69     		ldr	r3, [r3, #20]
 1365 00e6 0293     		str	r3, [sp, #8]
 1366              	.L84:
 1367              		.loc 9 275 0 discriminator 1
 1368 00e8 029A     		ldr	r2, [sp, #8]
 1369 00ea 064B     		ldr	r3, .L86
 1370 00ec 9A42     		cmp	r2, r3
 1371 00ee F5D1     		bne	.L85
 1372              		.loc 9 281 0
 1373 00f0 059B     		ldr	r3, [sp, #20]
 1374 00f2 002B     		cmp	r3, #0
 1375 00f4 01D0     		beq	.L81
 1376              		.loc 9 282 0
 1377 00f6 0123     		movs	r3, #1
 1378 00f8 00E0     		b	.L75
 1379              	.L81:
 1380              	.LBE34:
 1381              		.loc 9 293 0
 1382 00fa 0023     		movs	r3, #0
 1383              	.L75:
 1384              		.loc 9 294 0
 1385 00fc 1846     		mov	r0, r3
 1386 00fe 07B0     		add	sp, sp, #28
 1387              		@ sp needed
 1388 0100 5DF804FB 		ldr	pc, [sp], #4
 1389              	.L87:
 1390              		.align	2
 1391              	.L86:
 1392 0104 00000000 		.word	ch
 1393 0108 1C000000 		.word	ch+28
 1394              		.cfi_endproc
 1395              	.LFE243:
 1396              		.size	chSysIntegrityCheckI, .-chSysIntegrityCheckI
 1397 010c AFF30080 		.section	.text.chSysTimerHandlerI,"ax",%progbits
 1398              		.align	2
ARM GAS  /tmp/cc0fLdkW.s 			page 26


 1399              		.p2align 4,,15
 1400              		.global	chSysTimerHandlerI
 1401              		.thumb
 1402              		.thumb_func
 1403              		.type	chSysTimerHandlerI, %function
 1404              	chSysTimerHandlerI:
 1405              	.LFB244:
 1406              		.loc 9 307 0
 1407              		.cfi_startproc
 1408              		@ args = 0, pretend = 0, frame = 0
 1409              		@ frame_needed = 0, uses_anonymous_args = 0
 1410 0000 08B5     		push	{r3, lr}
 1411              		.cfi_def_cfa_offset 8
 1412              		.cfi_offset 3, -8
 1413              		.cfi_offset 14, -4
 1414              		.loc 9 309 0
 1415 0002 FFF7FEFF 		bl	chDbgCheckClassI
 1416              		.loc 9 321 0
 1417 0006 FFF7FEFF 		bl	chVTDoTickI
 1418              		.loc 9 325 0
 1419 000a 08BD     		pop	{r3, pc}
 1420              		.cfi_endproc
 1421              	.LFE244:
 1422              		.size	chSysTimerHandlerI, .-chSysTimerHandlerI
 1423 000c AFF30080 		.section	.text.chSysGetStatusAndLockX,"ax",%progbits
 1424              		.align	2
 1425              		.p2align 4,,15
 1426              		.global	chSysGetStatusAndLockX
 1427              		.thumb
 1428              		.thumb_func
 1429              		.type	chSysGetStatusAndLockX, %function
 1430              	chSysGetStatusAndLockX:
 1431              	.LFB245:
 1432              		.loc 9 340 0
 1433              		.cfi_startproc
 1434              		@ args = 0, pretend = 0, frame = 8
 1435              		@ frame_needed = 0, uses_anonymous_args = 0
 1436 0000 00B5     		push	{lr}
 1437              		.cfi_def_cfa_offset 4
 1438              		.cfi_offset 14, -4
 1439 0002 83B0     		sub	sp, sp, #12
 1440              		.cfi_def_cfa_offset 16
 1441              		.loc 9 342 0
 1442 0004 FFF7FEFF 		bl	port_get_irq_status
 1443 0008 0190     		str	r0, [sp, #4]
 1444              		.loc 9 343 0
 1445 000a 0198     		ldr	r0, [sp, #4]
 1446 000c FFF7FEFF 		bl	port_irq_enabled
 1447 0010 0346     		mov	r3, r0
 1448 0012 002B     		cmp	r3, #0
 1449 0014 09D0     		beq	.L90
 1450              		.loc 9 344 0
 1451 0016 FFF7FEFF 		bl	port_is_isr_context
 1452 001a 0346     		mov	r3, r0
 1453 001c 002B     		cmp	r3, #0
 1454 001e 02D0     		beq	.L91
 1455              		.loc 9 345 0
ARM GAS  /tmp/cc0fLdkW.s 			page 27


 1456 0020 FFF7FEFF 		bl	chSysLockFromISR
 1457 0024 01E0     		b	.L90
 1458              	.L91:
 1459              		.loc 9 348 0
 1460 0026 FFF7FEFF 		bl	chSysLock
 1461              	.L90:
 1462              		.loc 9 351 0
 1463 002a 019B     		ldr	r3, [sp, #4]
 1464              		.loc 9 352 0
 1465 002c 1846     		mov	r0, r3
 1466 002e 03B0     		add	sp, sp, #12
 1467              		@ sp needed
 1468 0030 5DF804FB 		ldr	pc, [sp], #4
 1469              		.cfi_endproc
 1470              	.LFE245:
 1471              		.size	chSysGetStatusAndLockX, .-chSysGetStatusAndLockX
 1472 0034 AFF30080 		.section	.text.chSysRestoreStatusX,"ax",%progbits
 1472      AFF30080 
 1472      AFF30080 
 1473              		.align	2
 1474              		.p2align 4,,15
 1475              		.global	chSysRestoreStatusX
 1476              		.thumb
 1477              		.thumb_func
 1478              		.type	chSysRestoreStatusX, %function
 1479              	chSysRestoreStatusX:
 1480              	.LFB246:
 1481              		.loc 9 363 0
 1482              		.cfi_startproc
 1483              		@ args = 0, pretend = 0, frame = 8
 1484              		@ frame_needed = 0, uses_anonymous_args = 0
 1485 0000 00B5     		push	{lr}
 1486              		.cfi_def_cfa_offset 4
 1487              		.cfi_offset 14, -4
 1488 0002 83B0     		sub	sp, sp, #12
 1489              		.cfi_def_cfa_offset 16
 1490 0004 0190     		str	r0, [sp, #4]
 1491              		.loc 9 365 0
 1492 0006 0198     		ldr	r0, [sp, #4]
 1493 0008 FFF7FEFF 		bl	port_irq_enabled
 1494 000c 0346     		mov	r3, r0
 1495 000e 002B     		cmp	r3, #0
 1496 0010 0BD0     		beq	.L93
 1497              		.loc 9 366 0
 1498 0012 FFF7FEFF 		bl	port_is_isr_context
 1499 0016 0346     		mov	r3, r0
 1500 0018 002B     		cmp	r3, #0
 1501 001a 02D0     		beq	.L95
 1502              		.loc 9 367 0
 1503 001c FFF7FEFF 		bl	chSysUnlockFromISR
 1504 0020 03E0     		b	.L93
 1505              	.L95:
 1506              		.loc 9 370 0
 1507 0022 FFF7FEFF 		bl	chSchRescheduleS
 1508              		.loc 9 371 0
 1509 0026 FFF7FEFF 		bl	chSysUnlock
 1510              	.L93:
ARM GAS  /tmp/cc0fLdkW.s 			page 28


 1511              		.loc 9 374 0
 1512 002a 03B0     		add	sp, sp, #12
 1513              		@ sp needed
 1514 002c 5DF804FB 		ldr	pc, [sp], #4
 1515              		.cfi_endproc
 1516              	.LFE246:
 1517              		.size	chSysRestoreStatusX, .-chSysRestoreStatusX
 1518              		.section	.text.chSysIsCounterWithinX,"ax",%progbits
 1519              		.align	2
 1520              		.p2align 4,,15
 1521              		.global	chSysIsCounterWithinX
 1522              		.thumb
 1523              		.thumb_func
 1524              		.type	chSysIsCounterWithinX, %function
 1525              	chSysIsCounterWithinX:
 1526              	.LFB247:
 1527              		.loc 9 395 0
 1528              		.cfi_startproc
 1529              		@ args = 0, pretend = 0, frame = 16
 1530              		@ frame_needed = 0, uses_anonymous_args = 0
 1531              		@ link register save eliminated.
 1532 0000 84B0     		sub	sp, sp, #16
 1533              		.cfi_def_cfa_offset 16
 1534 0002 0390     		str	r0, [sp, #12]
 1535 0004 0291     		str	r1, [sp, #8]
 1536 0006 0192     		str	r2, [sp, #4]
 1537              		.loc 9 397 0
 1538 0008 039A     		ldr	r2, [sp, #12]
 1539 000a 029B     		ldr	r3, [sp, #8]
 1540 000c D21A     		subs	r2, r2, r3
 1541 000e 0199     		ldr	r1, [sp, #4]
 1542 0010 029B     		ldr	r3, [sp, #8]
 1543 0012 CB1A     		subs	r3, r1, r3
 1544 0014 9A42     		cmp	r2, r3
 1545 0016 2CBF     		ite	cs
 1546 0018 0023     		movcs	r3, #0
 1547 001a 0123     		movcc	r3, #1
 1548 001c DBB2     		uxtb	r3, r3
 1549              		.loc 9 398 0
 1550 001e 1846     		mov	r0, r3
 1551 0020 04B0     		add	sp, sp, #16
 1552              		@ sp needed
 1553 0022 7047     		bx	lr
 1554              		.cfi_endproc
 1555              	.LFE247:
 1556              		.size	chSysIsCounterWithinX, .-chSysIsCounterWithinX
 1557 0024 AFF30080 		.section	.text.chSysPolledDelayX,"ax",%progbits
 1557      AFF30080 
 1557      AFF30080 
 1558              		.align	2
 1559              		.p2align 4,,15
 1560              		.global	chSysPolledDelayX
 1561              		.thumb
 1562              		.thumb_func
 1563              		.type	chSysPolledDelayX, %function
 1564              	chSysPolledDelayX:
 1565              	.LFB248:
ARM GAS  /tmp/cc0fLdkW.s 			page 29


 1566              		.loc 9 411 0
 1567              		.cfi_startproc
 1568              		@ args = 0, pretend = 0, frame = 16
 1569              		@ frame_needed = 0, uses_anonymous_args = 0
 1570 0000 00B5     		push	{lr}
 1571              		.cfi_def_cfa_offset 4
 1572              		.cfi_offset 14, -4
 1573 0002 85B0     		sub	sp, sp, #20
 1574              		.cfi_def_cfa_offset 24
 1575 0004 0190     		str	r0, [sp, #4]
 1576              		.loc 9 412 0
 1577 0006 FFF7FEFF 		bl	port_rt_get_counter_value
 1578 000a 0390     		str	r0, [sp, #12]
 1579              		.loc 9 413 0
 1580 000c 039A     		ldr	r2, [sp, #12]
 1581 000e 019B     		ldr	r3, [sp, #4]
 1582 0010 1344     		add	r3, r3, r2
 1583 0012 0293     		str	r3, [sp, #8]
 1584              		.loc 9 415 0
 1585 0014 00BF     		nop
 1586              	.L99:
 1587              		.loc 9 415 0 is_stmt 0 discriminator 1
 1588 0016 FFF7FEFF 		bl	port_rt_get_counter_value
 1589 001a 0346     		mov	r3, r0
 1590 001c 1846     		mov	r0, r3
 1591 001e 0399     		ldr	r1, [sp, #12]
 1592 0020 029A     		ldr	r2, [sp, #8]
 1593 0022 FFF7FEFF 		bl	chSysIsCounterWithinX
 1594 0026 0346     		mov	r3, r0
 1595 0028 002B     		cmp	r3, #0
 1596 002a F4D1     		bne	.L99
 1597              		.loc 9 417 0 is_stmt 1
 1598 002c 05B0     		add	sp, sp, #20
 1599              		@ sp needed
 1600 002e 5DF804FB 		ldr	pc, [sp], #4
 1601              		.cfi_endproc
 1602              	.LFE248:
 1603              		.size	chSysPolledDelayX, .-chSysPolledDelayX
 1604 0032 00BFAFF3 		.section	.rodata.__func__.6011,"a",%progbits
 1604      0080AFF3 
 1604      0080AFF3 
 1604      0080
 1605              		.align	2
 1606              		.type	__func__.6011, %object
 1607              		.size	__func__.6011, 12
 1608              	__func__.6011:
 1609 0000 63685654 		.ascii	"chVTDoTickI\000"
 1609      446F5469 
 1609      636B4900 
 1610              		.section	.rodata.__func__.5925,"a",%progbits
 1611              		.align	2
 1612              		.type	__func__.5925, %object
 1613              		.size	__func__.5925, 12
 1614              	__func__.5925:
 1615 0000 63685379 		.ascii	"chSysUnlock\000"
 1615      73556E6C 
 1615      6F636B00 
ARM GAS  /tmp/cc0fLdkW.s 			page 30


 1616              		.text
 1617              	.Letext0:
 1618              		.file 10 "/usr/include/newlib/machine/_default_types.h"
 1619              		.file 11 "/usr/include/newlib/stdint.h"
 1620              		.file 12 "/home/efe/ChibiOS/os/rt/ports/ARMCMx/compilers/GCC/chtypes.h"
 1621              		.file 13 "/home/efe/ChibiOS/os/rt/include/chsystypes.h"
 1622              		.file 14 "/home/efe/ChibiOS/os/rt/include/chschd.h"
 1623              		.file 15 "/home/efe/ChibiOS/os/ext/CMSIS/ST/stm32f407xx.h"
 1624              		.file 16 "/home/efe/ChibiOS/os/rt/ports/ARMCMx/chcore.h"
 1625              		.file 17 "/home/efe/ChibiOS/os/hal/ports/STM32/LLD/TIMv1/stm32_tim.h"
 1626              		.file 18 "/home/efe/ChibiOS/os/rt/include/chdebug.h"
 1627              		.file 19 "/home/efe/ChibiOS/os/rt/include/chtm.h"
 1628              		.file 20 "/home/efe/ChibiOS/os/rt/include/chstats.h"
 1629              		.file 21 "/home/efe/ChibiOS/os/rt/include/chsem.h"
 1630              		.file 22 "/home/efe/ChibiOS/os/rt/include/chmtx.h"
 1631              		.file 23 "/home/efe/ChibiOS/os/rt/include/chthreads.h"