ARM GAS  /tmp/ccyMgi48.s 			page 1


   1              		.syntax unified
   2              		.cpu cortex-m4
   3              		.fpu softvfp
   4              		.eabi_attribute 20, 1
   5              		.eabi_attribute 21, 1
   6              		.eabi_attribute 23, 3
   7              		.eabi_attribute 24, 1
   8              		.eabi_attribute 25, 1
   9              		.eabi_attribute 26, 1
  10              		.eabi_attribute 30, 6
  11              		.eabi_attribute 34, 1
  12              		.eabi_attribute 18, 4
  13              		.thumb
  14              		.file	"chvt.c"
  15              		.text
  16              	.Ltext0:
  17              		.cfi_sections	.debug_frame
  18              		.section	.text.st_lld_get_counter,"ax",%progbits
  19              		.align	2
  20              		.p2align 4,,15
  21              		.thumb
  22              		.thumb_func
  23              		.type	st_lld_get_counter, %function
  24              	st_lld_get_counter:
  25              	.LFB136:
  26              		.file 1 "/home/efe/ChibiOS/os/hal/ports/STM32/LLD/TIMv1/st_lld.h"
  27              		.loc 1 139 0
  28              		.cfi_startproc
  29              		@ args = 0, pretend = 0, frame = 0
  30              		@ frame_needed = 0, uses_anonymous_args = 0
  31              		@ link register save eliminated.
  32              		.loc 1 141 0
  33 0000 4FF08043 		mov	r3, #1073741824
  34 0004 5B6A     		ldr	r3, [r3, #36]
  35              		.loc 1 142 0
  36 0006 1846     		mov	r0, r3
  37 0008 7047     		bx	lr
  38              		.cfi_endproc
  39              	.LFE136:
  40              		.size	st_lld_get_counter, .-st_lld_get_counter
  41 000a 00BFAFF3 		.section	.text.port_timer_start_alarm,"ax",%progbits
  41      0080
  42              		.align	2
  43              		.p2align 4,,15
  44              		.thumb
  45              		.thumb_func
  46              		.type	port_timer_start_alarm, %function
  47              	port_timer_start_alarm:
  48              	.LFB142:
  49              		.file 2 "/home/efe/ChibiOS/os/rt/ports/ARMCMx/chcore_timer.h"
  50              		.loc 2 71 0
  51              		.cfi_startproc
  52              		@ args = 0, pretend = 0, frame = 8
  53              		@ frame_needed = 0, uses_anonymous_args = 0
  54 0000 00B5     		push	{lr}
  55              		.cfi_def_cfa_offset 4
  56              		.cfi_offset 14, -4
ARM GAS  /tmp/ccyMgi48.s 			page 2


  57 0002 83B0     		sub	sp, sp, #12
  58              		.cfi_def_cfa_offset 16
  59 0004 0190     		str	r0, [sp, #4]
  60              		.loc 2 73 0
  61 0006 0198     		ldr	r0, [sp, #4]
  62 0008 FFF7FEFF 		bl	stStartAlarm
  63              		.loc 2 74 0
  64 000c 03B0     		add	sp, sp, #12
  65              		@ sp needed
  66 000e 5DF804FB 		ldr	pc, [sp], #4
  67              		.cfi_endproc
  68              	.LFE142:
  69              		.size	port_timer_start_alarm, .-port_timer_start_alarm
  70 0012 00BFAFF3 		.section	.text.port_timer_stop_alarm,"ax",%progbits
  70      0080AFF3 
  70      0080AFF3 
  70      0080
  71              		.align	2
  72              		.p2align 4,,15
  73              		.thumb
  74              		.thumb_func
  75              		.type	port_timer_stop_alarm, %function
  76              	port_timer_stop_alarm:
  77              	.LFB143:
  78              		.loc 2 81 0
  79              		.cfi_startproc
  80              		@ args = 0, pretend = 0, frame = 0
  81              		@ frame_needed = 0, uses_anonymous_args = 0
  82 0000 08B5     		push	{r3, lr}
  83              		.cfi_def_cfa_offset 8
  84              		.cfi_offset 3, -8
  85              		.cfi_offset 14, -4
  86              		.loc 2 83 0
  87 0002 FFF7FEFF 		bl	stStopAlarm
  88              		.loc 2 84 0
  89 0006 08BD     		pop	{r3, pc}
  90              		.cfi_endproc
  91              	.LFE143:
  92              		.size	port_timer_stop_alarm, .-port_timer_stop_alarm
  93 0008 AFF30080 		.section	.text.port_timer_set_alarm,"ax",%progbits
  93      AFF30080 
  94              		.align	2
  95              		.p2align 4,,15
  96              		.thumb
  97              		.thumb_func
  98              		.type	port_timer_set_alarm, %function
  99              	port_timer_set_alarm:
 100              	.LFB144:
 101              		.loc 2 93 0
 102              		.cfi_startproc
 103              		@ args = 0, pretend = 0, frame = 8
 104              		@ frame_needed = 0, uses_anonymous_args = 0
 105 0000 00B5     		push	{lr}
 106              		.cfi_def_cfa_offset 4
 107              		.cfi_offset 14, -4
 108 0002 83B0     		sub	sp, sp, #12
 109              		.cfi_def_cfa_offset 16
ARM GAS  /tmp/ccyMgi48.s 			page 3


 110 0004 0190     		str	r0, [sp, #4]
 111              		.loc 2 95 0
 112 0006 0198     		ldr	r0, [sp, #4]
 113 0008 FFF7FEFF 		bl	stSetAlarm
 114              		.loc 2 96 0
 115 000c 03B0     		add	sp, sp, #12
 116              		@ sp needed
 117 000e 5DF804FB 		ldr	pc, [sp], #4
 118              		.cfi_endproc
 119              	.LFE144:
 120              		.size	port_timer_set_alarm, .-port_timer_set_alarm
 121 0012 00BFAFF3 		.section	.text.port_timer_get_time,"ax",%progbits
 121      0080AFF3 
 121      0080AFF3 
 121      0080
 122              		.align	2
 123              		.p2align 4,,15
 124              		.thumb
 125              		.thumb_func
 126              		.type	port_timer_get_time, %function
 127              	port_timer_get_time:
 128              	.LFB145:
 129              		.loc 2 105 0
 130              		.cfi_startproc
 131              		@ args = 0, pretend = 0, frame = 0
 132              		@ frame_needed = 0, uses_anonymous_args = 0
 133 0000 08B5     		push	{r3, lr}
 134              		.cfi_def_cfa_offset 8
 135              		.cfi_offset 3, -8
 136              		.cfi_offset 14, -4
 137              		.loc 2 107 0
 138 0002 FFF7FEFF 		bl	st_lld_get_counter
 139 0006 0346     		mov	r3, r0
 140              		.loc 2 108 0
 141 0008 1846     		mov	r0, r3
 142 000a 08BD     		pop	{r3, pc}
 143              		.cfi_endproc
 144              	.LFE145:
 145              		.size	port_timer_get_time, .-port_timer_get_time
 146 000c AFF30080 		.section	.text.chVTGetSystemTimeX,"ax",%progbits
 147              		.align	2
 148              		.p2align 4,,15
 149              		.thumb
 150              		.thumb_func
 151              		.type	chVTGetSystemTimeX, %function
 152              	chVTGetSystemTimeX:
 153              	.LFB175:
 154              		.file 3 "/home/efe/ChibiOS/os/rt/include/chvt.h"
 155              		.loc 3 228 0
 156              		.cfi_startproc
 157              		@ args = 0, pretend = 0, frame = 0
 158              		@ frame_needed = 0, uses_anonymous_args = 0
 159 0000 08B5     		push	{r3, lr}
 160              		.cfi_def_cfa_offset 8
 161              		.cfi_offset 3, -8
 162              		.cfi_offset 14, -4
 163              		.loc 3 233 0
ARM GAS  /tmp/ccyMgi48.s 			page 4


 164 0002 FFF7FEFF 		bl	port_timer_get_time
 165 0006 0346     		mov	r3, r0
 166              		.loc 3 235 0
 167 0008 1846     		mov	r0, r3
 168 000a 08BD     		pop	{r3, pc}
 169              		.cfi_endproc
 170              	.LFE175:
 171              		.size	chVTGetSystemTimeX, .-chVTGetSystemTimeX
 172              		.section	.text._vt_init,"ax",%progbits
 173              		.align	2
 174              		.p2align 4,,15
 175              		.global	_vt_init
 176              		.thumb
 177              		.thumb_func
 178              		.type	_vt_init, %function
 179              	_vt_init:
 180              	.LFB240:
 181              		.file 4 "/home/efe/ChibiOS/os/rt/src/chvt.c"
 182              		.loc 4 61 0
 183              		.cfi_startproc
 184              		@ args = 0, pretend = 0, frame = 0
 185              		@ frame_needed = 0, uses_anonymous_args = 0
 186              		@ link register save eliminated.
 187              		.loc 4 63 0
 188 0000 064B     		ldr	r3, .L11
 189 0002 074A     		ldr	r2, .L11+4
 190 0004 DA61     		str	r2, [r3, #28]
 191              		.loc 4 64 0
 192 0006 054B     		ldr	r3, .L11
 193 0008 054A     		ldr	r2, .L11+4
 194 000a 1A62     		str	r2, [r3, #32]
 195              		.loc 4 65 0
 196 000c 034B     		ldr	r3, .L11
 197 000e 4FF0FF32 		mov	r2, #-1
 198 0012 5A62     		str	r2, [r3, #36]
 199              		.loc 4 69 0
 200 0014 014B     		ldr	r3, .L11
 201 0016 0022     		movs	r2, #0
 202 0018 9A62     		str	r2, [r3, #40]
 203              		.loc 4 71 0
 204 001a 7047     		bx	lr
 205              	.L12:
 206              		.align	2
 207              	.L11:
 208 001c 00000000 		.word	ch
 209 0020 1C000000 		.word	ch+28
 210              		.cfi_endproc
 211              	.LFE240:
 212              		.size	_vt_init, .-_vt_init
 213 0024 AFF30080 		.section	.text.chVTDoSetI,"ax",%progbits
 213      AFF30080 
 213      AFF30080 
 214              		.align	2
 215              		.p2align 4,,15
 216              		.global	chVTDoSetI
 217              		.thumb
 218              		.thumb_func
ARM GAS  /tmp/ccyMgi48.s 			page 5


 219              		.type	chVTDoSetI, %function
 220              	chVTDoSetI:
 221              	.LFB241:
 222              		.loc 4 96 0
 223              		.cfi_startproc
 224              		@ args = 0, pretend = 0, frame = 32
 225              		@ frame_needed = 0, uses_anonymous_args = 0
 226 0000 00B5     		push	{lr}
 227              		.cfi_def_cfa_offset 4
 228              		.cfi_offset 14, -4
 229 0002 89B0     		sub	sp, sp, #36
 230              		.cfi_def_cfa_offset 40
 231 0004 0390     		str	r0, [sp, #12]
 232 0006 0291     		str	r1, [sp, #8]
 233 0008 0192     		str	r2, [sp, #4]
 234 000a 0093     		str	r3, [sp]
 235              		.loc 4 100 0
 236 000c FFF7FEFF 		bl	chDbgCheckClassI
 237              		.loc 4 101 0
 238 0010 039B     		ldr	r3, [sp, #12]
 239 0012 002B     		cmp	r3, #0
 240 0014 05D0     		beq	.L14
 241              		.loc 4 101 0 is_stmt 0 discriminator 2
 242 0016 019B     		ldr	r3, [sp, #4]
 243 0018 002B     		cmp	r3, #0
 244 001a 02D0     		beq	.L14
 245              		.loc 4 101 0 discriminator 1
 246 001c 029B     		ldr	r3, [sp, #8]
 247 001e 002B     		cmp	r3, #0
 248 0020 02D1     		bne	.L15
 249              	.L14:
 250 0022 3A48     		ldr	r0, .L22
 251 0024 FFF7FEFF 		bl	chSysHalt
 252              	.L15:
 253              		.loc 4 103 0 is_stmt 1
 254 0028 039B     		ldr	r3, [sp, #12]
 255 002a 009A     		ldr	r2, [sp]
 256 002c 1A61     		str	r2, [r3, #16]
 257              		.loc 4 104 0
 258 002e 039B     		ldr	r3, [sp, #12]
 259 0030 019A     		ldr	r2, [sp, #4]
 260 0032 DA60     		str	r2, [r3, #12]
 261              	.LBB2:
 262              		.loc 4 108 0
 263 0034 FFF7FEFF 		bl	chVTGetSystemTimeX
 264 0038 0590     		str	r0, [sp, #20]
 265              		.loc 4 112 0
 266 003a 029B     		ldr	r3, [sp, #8]
 267 003c 012B     		cmp	r3, #1
 268 003e 01D8     		bhi	.L16
 269              		.loc 4 113 0
 270 0040 0223     		movs	r3, #2
 271 0042 0293     		str	r3, [sp, #8]
 272              	.L16:
 273              		.loc 4 117 0
 274 0044 324B     		ldr	r3, .L22+4
 275 0046 DA69     		ldr	r2, [r3, #28]
ARM GAS  /tmp/ccyMgi48.s 			page 6


 276 0048 324B     		ldr	r3, .L22+8
 277 004a 9A42     		cmp	r2, r3
 278 004c 19D1     		bne	.L17
 279              		.loc 4 121 0
 280 004e 304B     		ldr	r3, .L22+4
 281 0050 059A     		ldr	r2, [sp, #20]
 282 0052 9A62     		str	r2, [r3, #40]
 283              		.loc 4 122 0
 284 0054 2E4B     		ldr	r3, .L22+4
 285 0056 039A     		ldr	r2, [sp, #12]
 286 0058 DA61     		str	r2, [r3, #28]
 287              		.loc 4 123 0
 288 005a 2D4B     		ldr	r3, .L22+4
 289 005c 039A     		ldr	r2, [sp, #12]
 290 005e 1A62     		str	r2, [r3, #32]
 291              		.loc 4 124 0
 292 0060 039B     		ldr	r3, [sp, #12]
 293 0062 2C4A     		ldr	r2, .L22+8
 294 0064 1A60     		str	r2, [r3]
 295              		.loc 4 125 0
 296 0066 039B     		ldr	r3, [sp, #12]
 297 0068 2A4A     		ldr	r2, .L22+8
 298 006a 5A60     		str	r2, [r3, #4]
 299              		.loc 4 126 0
 300 006c 039B     		ldr	r3, [sp, #12]
 301 006e 029A     		ldr	r2, [sp, #8]
 302 0070 9A60     		str	r2, [r3, #8]
 303              		.loc 4 129 0
 304 0072 274B     		ldr	r3, .L22+4
 305 0074 9A6A     		ldr	r2, [r3, #40]
 306 0076 029B     		ldr	r3, [sp, #8]
 307 0078 1344     		add	r3, r3, r2
 308 007a 1846     		mov	r0, r3
 309 007c FFF7FEFF 		bl	port_timer_start_alarm
 310              		.loc 4 131 0
 311 0080 40E0     		b	.L13
 312              	.L17:
 313              		.loc 4 136 0
 314 0082 059A     		ldr	r2, [sp, #20]
 315 0084 029B     		ldr	r3, [sp, #8]
 316 0086 1A44     		add	r2, r2, r3
 317 0088 214B     		ldr	r3, .L22+4
 318 008a 9B6A     		ldr	r3, [r3, #40]
 319 008c D31A     		subs	r3, r2, r3
 320 008e 0693     		str	r3, [sp, #24]
 321              		.loc 4 137 0
 322 0090 1F4B     		ldr	r3, .L22+4
 323 0092 DB69     		ldr	r3, [r3, #28]
 324 0094 9A68     		ldr	r2, [r3, #8]
 325 0096 069B     		ldr	r3, [sp, #24]
 326 0098 9A42     		cmp	r2, r3
 327 009a 06D9     		bls	.L19
 328              		.loc 4 140 0
 329 009c 1C4B     		ldr	r3, .L22+4
 330 009e 9A6A     		ldr	r2, [r3, #40]
 331 00a0 069B     		ldr	r3, [sp, #24]
 332 00a2 1344     		add	r3, r3, r2
ARM GAS  /tmp/ccyMgi48.s 			page 7


 333 00a4 1846     		mov	r0, r3
 334 00a6 FFF7FEFF 		bl	port_timer_set_alarm
 335              	.L19:
 336              	.LBE2:
 337              		.loc 4 150 0
 338 00aa 194B     		ldr	r3, .L22+4
 339 00ac DB69     		ldr	r3, [r3, #28]
 340 00ae 0793     		str	r3, [sp, #28]
 341              		.loc 4 151 0
 342 00b0 07E0     		b	.L20
 343              	.L21:
 344              		.loc 4 152 0
 345 00b2 079B     		ldr	r3, [sp, #28]
 346 00b4 9B68     		ldr	r3, [r3, #8]
 347 00b6 069A     		ldr	r2, [sp, #24]
 348 00b8 D31A     		subs	r3, r2, r3
 349 00ba 0693     		str	r3, [sp, #24]
 350              		.loc 4 153 0
 351 00bc 079B     		ldr	r3, [sp, #28]
 352 00be 1B68     		ldr	r3, [r3]
 353 00c0 0793     		str	r3, [sp, #28]
 354              	.L20:
 355              		.loc 4 151 0 discriminator 1
 356 00c2 079B     		ldr	r3, [sp, #28]
 357 00c4 9A68     		ldr	r2, [r3, #8]
 358 00c6 069B     		ldr	r3, [sp, #24]
 359 00c8 9A42     		cmp	r2, r3
 360 00ca F2D3     		bcc	.L21
 361              		.loc 4 157 0
 362 00cc 039B     		ldr	r3, [sp, #12]
 363 00ce 079A     		ldr	r2, [sp, #28]
 364 00d0 1A60     		str	r2, [r3]
 365              		.loc 4 158 0
 366 00d2 039B     		ldr	r3, [sp, #12]
 367 00d4 1B68     		ldr	r3, [r3]
 368 00d6 5A68     		ldr	r2, [r3, #4]
 369 00d8 039B     		ldr	r3, [sp, #12]
 370 00da 5A60     		str	r2, [r3, #4]
 371              		.loc 4 159 0
 372 00dc 039B     		ldr	r3, [sp, #12]
 373 00de 5B68     		ldr	r3, [r3, #4]
 374 00e0 039A     		ldr	r2, [sp, #12]
 375 00e2 1A60     		str	r2, [r3]
 376              		.loc 4 160 0
 377 00e4 079B     		ldr	r3, [sp, #28]
 378 00e6 039A     		ldr	r2, [sp, #12]
 379 00e8 5A60     		str	r2, [r3, #4]
 380              		.loc 4 161 0
 381 00ea 039B     		ldr	r3, [sp, #12]
 382 00ec 069A     		ldr	r2, [sp, #24]
 383 00ee 9A60     		str	r2, [r3, #8]
 384              		.loc 4 165 0
 385 00f0 079B     		ldr	r3, [sp, #28]
 386 00f2 9A68     		ldr	r2, [r3, #8]
 387 00f4 069B     		ldr	r3, [sp, #24]
 388 00f6 D21A     		subs	r2, r2, r3
 389 00f8 079B     		ldr	r3, [sp, #28]
ARM GAS  /tmp/ccyMgi48.s 			page 8


 390 00fa 9A60     		str	r2, [r3, #8]
 391              		.loc 4 166 0
 392 00fc 044B     		ldr	r3, .L22+4
 393 00fe 4FF0FF32 		mov	r2, #-1
 394 0102 5A62     		str	r2, [r3, #36]
 395              	.L13:
 396              		.loc 4 167 0
 397 0104 09B0     		add	sp, sp, #36
 398              		@ sp needed
 399 0106 5DF804FB 		ldr	pc, [sp], #4
 400              	.L23:
 401 010a 00BF     		.align	2
 402              	.L22:
 403 010c 00000000 		.word	__func__.6628
 404 0110 00000000 		.word	ch
 405 0114 1C000000 		.word	ch+28
 406              		.cfi_endproc
 407              	.LFE241:
 408              		.size	chVTDoSetI, .-chVTDoSetI
 409 0118 AFF30080 		.section	.text.chVTDoResetI,"ax",%progbits
 409      AFF30080 
 410              		.align	2
 411              		.p2align 4,,15
 412              		.global	chVTDoResetI
 413              		.thumb
 414              		.thumb_func
 415              		.type	chVTDoResetI, %function
 416              	chVTDoResetI:
 417              	.LFB242:
 418              		.loc 4 177 0
 419              		.cfi_startproc
 420              		@ args = 0, pretend = 0, frame = 16
 421              		@ frame_needed = 0, uses_anonymous_args = 0
 422 0000 00B5     		push	{lr}
 423              		.cfi_def_cfa_offset 4
 424              		.cfi_offset 14, -4
 425 0002 85B0     		sub	sp, sp, #20
 426              		.cfi_def_cfa_offset 24
 427 0004 0190     		str	r0, [sp, #4]
 428              		.loc 4 179 0
 429 0006 FFF7FEFF 		bl	chDbgCheckClassI
 430              		.loc 4 180 0
 431 000a 019B     		ldr	r3, [sp, #4]
 432 000c 002B     		cmp	r3, #0
 433 000e 02D1     		bne	.L33
 434              		.loc 4 180 0 is_stmt 0 discriminator 1
 435 0010 3648     		ldr	r0, .L34
 436 0012 FFF7FEFF 		bl	chSysHalt
 437              	.L33:
 438              		.loc 4 181 0 is_stmt 1 discriminator 1
 439 0016 019B     		ldr	r3, [sp, #4]
 440 0018 DB68     		ldr	r3, [r3, #12]
 441 001a 002B     		cmp	r3, #0
 442 001c 02D1     		bne	.L26
 443 001e 3348     		ldr	r0, .L34
 444 0020 FFF7FEFF 		bl	chSysHalt
 445              	.L26:
ARM GAS  /tmp/ccyMgi48.s 			page 9


 446              		.loc 4 201 0
 447 0024 324B     		ldr	r3, .L34+4
 448 0026 DA69     		ldr	r2, [r3, #28]
 449 0028 019B     		ldr	r3, [sp, #4]
 450 002a 9A42     		cmp	r2, r3
 451 002c 1CD0     		beq	.L27
 452              		.loc 4 203 0
 453 002e 019B     		ldr	r3, [sp, #4]
 454 0030 5B68     		ldr	r3, [r3, #4]
 455 0032 019A     		ldr	r2, [sp, #4]
 456 0034 1268     		ldr	r2, [r2]
 457 0036 1A60     		str	r2, [r3]
 458              		.loc 4 204 0
 459 0038 019B     		ldr	r3, [sp, #4]
 460 003a 1B68     		ldr	r3, [r3]
 461 003c 019A     		ldr	r2, [sp, #4]
 462 003e 5268     		ldr	r2, [r2, #4]
 463 0040 5A60     		str	r2, [r3, #4]
 464              		.loc 4 205 0
 465 0042 019B     		ldr	r3, [sp, #4]
 466 0044 0022     		movs	r2, #0
 467 0046 DA60     		str	r2, [r3, #12]
 468              		.loc 4 208 0
 469 0048 019B     		ldr	r3, [sp, #4]
 470 004a 1A68     		ldr	r2, [r3]
 471 004c 294B     		ldr	r3, .L34+8
 472 004e 9A42     		cmp	r2, r3
 473 0050 09D0     		beq	.L28
 474              		.loc 4 209 0
 475 0052 019B     		ldr	r3, [sp, #4]
 476 0054 1B68     		ldr	r3, [r3]
 477 0056 019A     		ldr	r2, [sp, #4]
 478 0058 1268     		ldr	r2, [r2]
 479 005a 9168     		ldr	r1, [r2, #8]
 480 005c 019A     		ldr	r2, [sp, #4]
 481 005e 9268     		ldr	r2, [r2, #8]
 482 0060 0A44     		add	r2, r2, r1
 483 0062 9A60     		str	r2, [r3, #8]
 484              		.loc 4 211 0
 485 0064 3EE0     		b	.L24
 486              	.L28:
 487 0066 3DE0     		b	.L24
 488              	.L27:
 489              		.loc 4 215 0
 490 0068 019B     		ldr	r3, [sp, #4]
 491 006a 1A68     		ldr	r2, [r3]
 492 006c 204B     		ldr	r3, .L34+4
 493 006e DA61     		str	r2, [r3, #28]
 494              		.loc 4 216 0
 495 0070 1F4B     		ldr	r3, .L34+4
 496 0072 DB69     		ldr	r3, [r3, #28]
 497 0074 1F4A     		ldr	r2, .L34+8
 498 0076 5A60     		str	r2, [r3, #4]
 499              		.loc 4 217 0
 500 0078 019B     		ldr	r3, [sp, #4]
 501 007a 0022     		movs	r2, #0
 502 007c DA60     		str	r2, [r3, #12]
ARM GAS  /tmp/ccyMgi48.s 			page 10


 503              		.loc 4 220 0
 504 007e 1C4B     		ldr	r3, .L34+4
 505 0080 DA69     		ldr	r2, [r3, #28]
 506 0082 1C4B     		ldr	r3, .L34+8
 507 0084 9A42     		cmp	r2, r3
 508 0086 02D1     		bne	.L30
 509              		.loc 4 221 0
 510 0088 FFF7FEFF 		bl	port_timer_stop_alarm
 511              		.loc 4 223 0
 512 008c 2AE0     		b	.L24
 513              	.L30:
 514              		.loc 4 227 0
 515 008e 184B     		ldr	r3, .L34+4
 516 0090 DB69     		ldr	r3, [r3, #28]
 517 0092 174A     		ldr	r2, .L34+4
 518 0094 D269     		ldr	r2, [r2, #28]
 519 0096 9168     		ldr	r1, [r2, #8]
 520 0098 019A     		ldr	r2, [sp, #4]
 521 009a 9268     		ldr	r2, [r2, #8]
 522 009c 0A44     		add	r2, r2, r1
 523 009e 9A60     		str	r2, [r3, #8]
 524              		.loc 4 236 0
 525 00a0 FFF7FEFF 		bl	chVTGetSystemTimeX
 526 00a4 0246     		mov	r2, r0
 527 00a6 124B     		ldr	r3, .L34+4
 528 00a8 9B6A     		ldr	r3, [r3, #40]
 529 00aa D31A     		subs	r3, r2, r3
 530 00ac 0293     		str	r3, [sp, #8]
 531              		.loc 4 240 0
 532 00ae 104B     		ldr	r3, .L34+4
 533 00b0 DB69     		ldr	r3, [r3, #28]
 534 00b2 9A68     		ldr	r2, [r3, #8]
 535 00b4 029B     		ldr	r3, [sp, #8]
 536 00b6 9A42     		cmp	r2, r3
 537 00b8 00D8     		bhi	.L31
 538              		.loc 4 241 0
 539 00ba 13E0     		b	.L24
 540              	.L31:
 541              		.loc 4 245 0
 542 00bc 0C4B     		ldr	r3, .L34+4
 543 00be DB69     		ldr	r3, [r3, #28]
 544 00c0 9A68     		ldr	r2, [r3, #8]
 545 00c2 029B     		ldr	r3, [sp, #8]
 546 00c4 D31A     		subs	r3, r2, r3
 547 00c6 0393     		str	r3, [sp, #12]
 548              		.loc 4 249 0
 549 00c8 039B     		ldr	r3, [sp, #12]
 550 00ca 012B     		cmp	r3, #1
 551 00cc 01D8     		bhi	.L32
 552              		.loc 4 250 0
 553 00ce 0223     		movs	r3, #2
 554 00d0 0393     		str	r3, [sp, #12]
 555              	.L32:
 556              		.loc 4 253 0
 557 00d2 074B     		ldr	r3, .L34+4
 558 00d4 9A6A     		ldr	r2, [r3, #40]
 559 00d6 029B     		ldr	r3, [sp, #8]
ARM GAS  /tmp/ccyMgi48.s 			page 11


 560 00d8 1A44     		add	r2, r2, r3
 561 00da 039B     		ldr	r3, [sp, #12]
 562 00dc 1344     		add	r3, r3, r2
 563 00de 1846     		mov	r0, r3
 564 00e0 FFF7FEFF 		bl	port_timer_set_alarm
 565              	.L24:
 566              		.loc 4 255 0
 567 00e4 05B0     		add	sp, sp, #20
 568              		@ sp needed
 569 00e6 5DF804FB 		ldr	pc, [sp], #4
 570              	.L35:
 571 00ea 00BF     		.align	2
 572              	.L34:
 573 00ec 00000000 		.word	__func__.6636
 574 00f0 00000000 		.word	ch
 575 00f4 1C000000 		.word	ch+28
 576              		.cfi_endproc
 577              	.LFE242:
 578              		.size	chVTDoResetI, .-chVTDoResetI
 579 00f8 AFF30080 		.section	.rodata.__func__.6628,"a",%progbits
 579      AFF30080 
 580              		.align	2
 581              		.type	__func__.6628, %object
 582              		.size	__func__.6628, 11
 583              	__func__.6628:
 584 0000 63685654 		.ascii	"chVTDoSetI\000"
 584      446F5365 
 584      744900
 585 000b 00       		.section	.rodata.__func__.6636,"a",%progbits
 586              		.align	2
 587              		.type	__func__.6636, %object
 588              		.size	__func__.6636, 13
 589              	__func__.6636:
 590 0000 63685654 		.ascii	"chVTDoResetI\000"
 590      446F5265 
 590      73657449 
 590      00
 591 000d 000000   		.text
 592              	.Letext0:
 593              		.file 5 "/usr/include/newlib/machine/_default_types.h"
 594              		.file 6 "/usr/include/newlib/stdint.h"
 595              		.file 7 "/home/efe/ChibiOS/os/rt/ports/ARMCMx/compilers/GCC/chtypes.h"
 596              		.file 8 "/home/efe/ChibiOS/os/rt/include/chsystypes.h"
 597              		.file 9 "/home/efe/ChibiOS/os/rt/include/chschd.h"
 598              		.file 10 "/home/efe/ChibiOS/os/rt/ports/ARMCMx/chcore.h"
 599              		.file 11 "/home/efe/ChibiOS/os/rt/ports/ARMCMx/chcore_v7m.h"
 600              		.file 12 "/home/efe/ChibiOS/os/hal/ports/STM32/LLD/TIMv1/stm32_tim.h"
 601              		.file 13 "/home/efe/ChibiOS/os/rt/include/chdebug.h"
 602              		.file 14 "/home/efe/ChibiOS/os/rt/include/chtm.h"
 603              		.file 15 "/home/efe/ChibiOS/os/rt/include/chstats.h"
 604              		.file 16 "/home/efe/ChibiOS/os/rt/include/chsem.h"
 605              		.file 17 "/home/efe/ChibiOS/os/rt/include/chmtx.h"
 606              		.file 18 "/home/efe/ChibiOS/os/ext/CMSIS/include/core_cm4.h"