ARM GAS  /tmp/ccNyJpKF.s 			page 1


   1              		.syntax unified
   2              		.cpu cortex-m4
   3              		.fpu softvfp
   4              		.eabi_attribute 20, 1
   5              		.eabi_attribute 21, 1
   6              		.eabi_attribute 23, 3
   7              		.eabi_attribute 24, 1
   8              		.eabi_attribute 25, 1
   9              		.eabi_attribute 26, 1
  10              		.eabi_attribute 30, 6
  11              		.eabi_attribute 34, 1
  12              		.eabi_attribute 18, 4
  13              		.thumb
  14              		.file	"hal_lld.c"
  15              		.text
  16              	.Ltext0:
  17              		.cfi_sections	.debug_frame
  18              		.global	SystemCoreClock
  19              		.section	.data.SystemCoreClock,"aw",%progbits
  20              		.align	2
  21              		.type	SystemCoreClock, %object
  22              		.size	SystemCoreClock, 4
  23              	SystemCoreClock:
  24 0000 007A030A 		.word	168000000
  25              		.section	.text.hal_lld_backup_domain_init,"ax",%progbits
  26              		.align	2
  27              		.p2align 4,,15
  28              		.thumb
  29              		.thumb_func
  30              		.type	hal_lld_backup_domain_init, %function
  31              	hal_lld_backup_domain_init:
  32              	.LFB271:
  33              		.file 1 "/home/efe/ChibiOS/os/hal/ports/STM32/STM32F4xx/hal_lld.c"
  34              		.loc 1 54 0
  35              		.cfi_startproc
  36              		@ args = 0, pretend = 0, frame = 0
  37              		@ frame_needed = 0, uses_anonymous_args = 0
  38              		@ link register save eliminated.
  39              		.loc 1 57 0
  40 0000 0D4B     		ldr	r3, .L3
  41 0002 0D4A     		ldr	r2, .L3
  42 0004 1268     		ldr	r2, [r2]
  43 0006 42F48072 		orr	r2, r2, #256
  44 000a 1A60     		str	r2, [r3]
  45              		.loc 1 60 0
  46 000c 0B4B     		ldr	r3, .L3+4
  47 000e 1B6F     		ldr	r3, [r3, #112]
  48 0010 03F44073 		and	r3, r3, #768
  49 0014 B3F5007F 		cmp	r3, #512
  50 0018 06D0     		beq	.L2
  51              		.loc 1 62 0
  52 001a 084B     		ldr	r3, .L3+4
  53 001c 4FF48032 		mov	r2, #65536
  54 0020 1A67     		str	r2, [r3, #112]
  55              		.loc 1 63 0
  56 0022 064B     		ldr	r3, .L3+4
  57 0024 0022     		movs	r2, #0
ARM GAS  /tmp/ccNyJpKF.s 			page 2


  58 0026 1A67     		str	r2, [r3, #112]
  59              	.L2:
  60              		.loc 1 97 0
  61 0028 034B     		ldr	r3, .L3
  62 002a 034A     		ldr	r2, .L3
  63 002c 5268     		ldr	r2, [r2, #4]
  64 002e 22F40072 		bic	r2, r2, #512
  65 0032 5A60     		str	r2, [r3, #4]
  66              		.loc 1 99 0
  67 0034 7047     		bx	lr
  68              	.L4:
  69 0036 00BF     		.align	2
  70              	.L3:
  71 0038 00700040 		.word	1073770496
  72 003c 00380240 		.word	1073887232
  73              		.cfi_endproc
  74              	.LFE271:
  75              		.size	hal_lld_backup_domain_init, .-hal_lld_backup_domain_init
  76              		.section	.text.hal_lld_init,"ax",%progbits
  77              		.align	2
  78              		.p2align 4,,15
  79              		.global	hal_lld_init
  80              		.thumb
  81              		.thumb_func
  82              		.type	hal_lld_init, %function
  83              	hal_lld_init:
  84              	.LFB272:
  85              		.loc 1 114 0
  86              		.cfi_startproc
  87              		@ args = 0, pretend = 0, frame = 0
  88              		@ frame_needed = 0, uses_anonymous_args = 0
  89 0000 08B5     		push	{r3, lr}
  90              		.cfi_def_cfa_offset 8
  91              		.cfi_offset 3, -8
  92              		.cfi_offset 14, -4
  93              		.loc 1 118 0
  94 0002 174B     		ldr	r3, .L6
  95 0004 1B69     		ldr	r3, [r3, #16]
  96 0006 164B     		ldr	r3, .L6
  97 0008 4FF0FF32 		mov	r2, #-1
  98 000c 1A61     		str	r2, [r3, #16]
  99 000e 144B     		ldr	r3, .L6
 100 0010 0022     		movs	r2, #0
 101 0012 1A61     		str	r2, [r3, #16]
 102              		.loc 1 119 0
 103 0014 124B     		ldr	r3, .L6
 104 0016 5B69     		ldr	r3, [r3, #20]
 105 0018 114B     		ldr	r3, .L6
 106 001a 4FF0FF32 		mov	r2, #-1
 107 001e 5A61     		str	r2, [r3, #20]
 108 0020 0F4B     		ldr	r3, .L6
 109 0022 0022     		movs	r2, #0
 110 0024 5A61     		str	r2, [r3, #20]
 111              		.loc 1 120 0
 112 0026 0E4B     		ldr	r3, .L6
 113 0028 0D4A     		ldr	r2, .L6
 114 002a 126A     		ldr	r2, [r2, #32]
ARM GAS  /tmp/ccNyJpKF.s 			page 3


 115 002c 62F08052 		orn	r2, r2, #268435456
 116 0030 1A62     		str	r2, [r3, #32]
 117 0032 0B4B     		ldr	r3, .L6
 118 0034 0022     		movs	r2, #0
 119 0036 1A62     		str	r2, [r3, #32]
 120              		.loc 1 121 0
 121 0038 094B     		ldr	r3, .L6
 122 003a 5B6A     		ldr	r3, [r3, #36]
 123 003c 084B     		ldr	r3, .L6
 124 003e 4FF0FF32 		mov	r2, #-1
 125 0042 5A62     		str	r2, [r3, #36]
 126 0044 064B     		ldr	r3, .L6
 127 0046 0022     		movs	r2, #0
 128 0048 5A62     		str	r2, [r3, #36]
 129              		.loc 1 124 0
 130 004a 054B     		ldr	r3, .L6
 131 004c 044A     		ldr	r2, .L6
 132 004e 126C     		ldr	r2, [r2, #64]
 133 0050 42F08052 		orr	r2, r2, #268435456
 134 0054 1A64     		str	r2, [r3, #64]
 135              		.loc 1 127 0
 136 0056 FFF7FEFF 		bl	hal_lld_backup_domain_init
 137              		.loc 1 130 0
 138 005a FFF7FEFF 		bl	dmaInit
 139              		.loc 1 137 0
 140 005e 08BD     		pop	{r3, pc}
 141              	.L7:
 142              		.align	2
 143              	.L6:
 144 0060 00380240 		.word	1073887232
 145              		.cfi_endproc
 146              	.LFE272:
 147              		.size	hal_lld_init, .-hal_lld_init
 148 0064 AFF30080 		.section	.text.stm32_clock_init,"ax",%progbits
 148      AFF30080 
 148      AFF30080 
 149              		.align	2
 150              		.p2align 4,,15
 151              		.global	stm32_clock_init
 152              		.thumb
 153              		.thumb_func
 154              		.type	stm32_clock_init, %function
 155              	stm32_clock_init:
 156              	.LFB273:
 157              		.loc 1 146 0
 158              		.cfi_startproc
 159              		@ args = 0, pretend = 0, frame = 0
 160              		@ frame_needed = 0, uses_anonymous_args = 0
 161              		@ link register save eliminated.
 162              		.loc 1 150 0
 163 0000 404B     		ldr	r3, .L16
 164 0002 4FF08052 		mov	r2, #268435456
 165 0006 1A64     		str	r2, [r3, #64]
 166              		.loc 1 154 0
 167 0008 3F4B     		ldr	r3, .L16+4
 168 000a 4FF44042 		mov	r2, #49152
 169 000e 1A60     		str	r2, [r3]
ARM GAS  /tmp/ccNyJpKF.s 			page 4


 170              		.loc 1 161 0
 171 0010 3C4B     		ldr	r3, .L16
 172 0012 3C4A     		ldr	r2, .L16
 173 0014 1268     		ldr	r2, [r2]
 174 0016 42F00102 		orr	r2, r2, #1
 175 001a 1A60     		str	r2, [r3]
 176              		.loc 1 162 0
 177 001c 00BF     		nop
 178              	.L9:
 179              		.loc 1 162 0 is_stmt 0 discriminator 1
 180 001e 394B     		ldr	r3, .L16
 181 0020 1B68     		ldr	r3, [r3]
 182 0022 03F00203 		and	r3, r3, #2
 183 0026 002B     		cmp	r3, #0
 184 0028 F9D0     		beq	.L9
 185              		.loc 1 168 0 is_stmt 1
 186 002a 364B     		ldr	r3, .L16
 187 002c 354A     		ldr	r2, .L16
 188 002e 9268     		ldr	r2, [r2, #8]
 189 0030 22F00302 		bic	r2, r2, #3
 190 0034 9A60     		str	r2, [r3, #8]
 191              		.loc 1 169 0
 192 0036 334B     		ldr	r3, .L16
 193 0038 324A     		ldr	r2, .L16
 194 003a 9268     		ldr	r2, [r2, #8]
 195 003c 9A60     		str	r2, [r3, #8]
 196              		.loc 1 170 0
 197 003e 00BF     		nop
 198              	.L10:
 199              		.loc 1 170 0 is_stmt 0 discriminator 1
 200 0040 304B     		ldr	r3, .L16
 201 0042 9B68     		ldr	r3, [r3, #8]
 202 0044 03F00C03 		and	r3, r3, #12
 203 0048 002B     		cmp	r3, #0
 204 004a F9D1     		bne	.L10
 205              		.loc 1 174 0 is_stmt 1
 206 004c 2D4B     		ldr	r3, .L16
 207 004e 2D4A     		ldr	r2, .L16
 208 0050 1268     		ldr	r2, [r2]
 209 0052 02F0F902 		and	r2, r2, #249
 210 0056 1A60     		str	r2, [r3]
 211              		.loc 1 175 0
 212 0058 2A4B     		ldr	r3, .L16
 213 005a 0022     		movs	r2, #0
 214 005c 9A60     		str	r2, [r3, #8]
 215              		.loc 1 184 0
 216 005e 294B     		ldr	r3, .L16
 217 0060 284A     		ldr	r2, .L16
 218 0062 1268     		ldr	r2, [r2]
 219 0064 42F48032 		orr	r2, r2, #65536
 220 0068 1A60     		str	r2, [r3]
 221              		.loc 1 186 0
 222 006a 00BF     		nop
 223              	.L11:
 224              		.loc 1 186 0 is_stmt 0 discriminator 1
 225 006c 254B     		ldr	r3, .L16
 226 006e 1B68     		ldr	r3, [r3]
ARM GAS  /tmp/ccNyJpKF.s 			page 5


 227 0070 03F40033 		and	r3, r3, #131072
 228 0074 002B     		cmp	r3, #0
 229 0076 F9D0     		beq	.L11
 230              		.loc 1 192 0 is_stmt 1
 231 0078 224B     		ldr	r3, .L16
 232 007a 224A     		ldr	r2, .L16
 233 007c 526F     		ldr	r2, [r2, #116]
 234 007e 42F00102 		orr	r2, r2, #1
 235 0082 5A67     		str	r2, [r3, #116]
 236              		.loc 1 193 0
 237 0084 00BF     		nop
 238              	.L12:
 239              		.loc 1 193 0 is_stmt 0 discriminator 1
 240 0086 1F4B     		ldr	r3, .L16
 241 0088 5B6F     		ldr	r3, [r3, #116]
 242 008a 03F00203 		and	r3, r3, #2
 243 008e 002B     		cmp	r3, #0
 244 0090 F9D0     		beq	.L12
 245              		.loc 1 199 0 is_stmt 1
 246 0092 1C4B     		ldr	r3, .L16
 247 0094 1D4A     		ldr	r2, .L16+8
 248 0096 5A60     		str	r2, [r3, #4]
 249              		.loc 1 201 0
 250 0098 1A4B     		ldr	r3, .L16
 251 009a 1A4A     		ldr	r2, .L16
 252 009c 1268     		ldr	r2, [r2]
 253 009e 42F08072 		orr	r2, r2, #16777216
 254 00a2 1A60     		str	r2, [r3]
 255              		.loc 1 205 0
 256 00a4 00BF     		nop
 257              	.L13:
 258              		.loc 1 205 0 is_stmt 0 discriminator 1
 259 00a6 184B     		ldr	r3, .L16+4
 260 00a8 5B68     		ldr	r3, [r3, #4]
 261 00aa 03F48043 		and	r3, r3, #16384
 262 00ae 002B     		cmp	r3, #0
 263 00b0 F9D0     		beq	.L13
 264              		.loc 1 221 0 is_stmt 1
 265 00b2 00BF     		nop
 266              	.L14:
 267              		.loc 1 221 0 is_stmt 0 discriminator 1
 268 00b4 134B     		ldr	r3, .L16
 269 00b6 1B68     		ldr	r3, [r3]
 270 00b8 03F00073 		and	r3, r3, #33554432
 271 00bc 002B     		cmp	r3, #0
 272 00be F9D0     		beq	.L14
 273              		.loc 1 247 0 is_stmt 1
 274 00c0 104B     		ldr	r3, .L16
 275 00c2 134A     		ldr	r2, .L16+12
 276 00c4 9A60     		str	r2, [r3, #8]
 277              		.loc 1 260 0
 278 00c6 134B     		ldr	r3, .L16+16
 279 00c8 40F20572 		movw	r2, #1797
 280 00cc 1A60     		str	r2, [r3]
 281              		.loc 1 266 0
 282 00ce 0D4B     		ldr	r3, .L16
 283 00d0 0C4A     		ldr	r2, .L16
ARM GAS  /tmp/ccNyJpKF.s 			page 6


 284 00d2 9268     		ldr	r2, [r2, #8]
 285 00d4 42F00202 		orr	r2, r2, #2
 286 00d8 9A60     		str	r2, [r3, #8]
 287              		.loc 1 267 0
 288 00da 00BF     		nop
 289              	.L15:
 290              		.loc 1 267 0 is_stmt 0 discriminator 1
 291 00dc 094B     		ldr	r3, .L16
 292 00de 9B68     		ldr	r3, [r3, #8]
 293 00e0 03F00C03 		and	r3, r3, #12
 294 00e4 082B     		cmp	r3, #8
 295 00e6 F9D1     		bne	.L15
 296              		.loc 1 274 0 is_stmt 1
 297 00e8 064B     		ldr	r3, .L16
 298 00ea 064A     		ldr	r2, .L16
 299 00ec 526C     		ldr	r2, [r2, #68]
 300 00ee 42F48042 		orr	r2, r2, #16384
 301 00f2 5A64     		str	r2, [r3, #68]
 302 00f4 034B     		ldr	r3, .L16
 303 00f6 034A     		ldr	r2, .L16
 304 00f8 526E     		ldr	r2, [r2, #100]
 305 00fa 42F48042 		orr	r2, r2, #16384
 306 00fe 5A66     		str	r2, [r3, #100]
 307              		.loc 1 275 0
 308 0100 7047     		bx	lr
 309              	.L17:
 310 0102 00BF     		.align	2
 311              	.L16:
 312 0104 00380240 		.word	1073887232
 313 0108 00700040 		.word	1073770496
 314 010c 08544007 		.word	121656328
 315 0110 00940838 		.word	940086272
 316 0114 003C0240 		.word	1073888256
 317              		.cfi_endproc
 318              	.LFE273:
 319              		.size	stm32_clock_init, .-stm32_clock_init
 320 0118 AFF30080 		.text
 320      AFF30080 
 321              	.Letext0:
 322              		.file 2 "/usr/lib/gcc/arm-none-eabi/4.8/include/stddef.h"
 323              		.file 3 "/usr/include/newlib/machine/_default_types.h"
 324              		.file 4 "/usr/include/newlib/stdint.h"
 325              		.file 5 "/home/efe/ChibiOS/os/rt/ports/ARMCMx/compilers/GCC/chtypes.h"
 326              		.file 6 "/home/efe/ChibiOS/os/rt/include/chsystypes.h"
 327              		.file 7 "/home/efe/ChibiOS/os/rt/include/chschd.h"
 328              		.file 8 "/home/efe/ChibiOS/os/ext/CMSIS/ST/stm32f407xx.h"
 329              		.file 9 "/home/efe/ChibiOS/os/rt/ports/ARMCMx/chcore.h"
 330              		.file 10 "/home/efe/ChibiOS/os/rt/ports/ARMCMx/chcore_v7m.h"
 331              		.file 11 "/home/efe/ChibiOS/os/rt/include/chdebug.h"
 332              		.file 12 "/home/efe/ChibiOS/os/rt/include/chtm.h"
 333              		.file 13 "/home/efe/ChibiOS/os/rt/include/chstats.h"
 334              		.file 14 "/home/efe/ChibiOS/os/rt/include/chsem.h"
 335              		.file 15 "/home/efe/ChibiOS/os/rt/include/chmtx.h"
 336              		.file 16 "/home/efe/ChibiOS/os/ext/CMSIS/include/core_cm4.h"
 337              		.section	.debug_info,"",%progbits
 338              	.Ldebug_info0:
 339 0000 620A0000 		.4byte	0xa62
ARM GAS  /tmp/ccNyJpKF.s 			page 7


 340 0004 0400     		.2byte	0x4
 341 0006 00000000 		.4byte	.Ldebug_abbrev0
 342 000a 04       		.byte	0x4
 343 000b 01       		.uleb128 0x1
 344 000c BE010000 		.4byte	.LASF168
 345 0010 01       		.byte	0x1
 346 0011 9F020000 		.4byte	.LASF169
 347 0015 00000000 		.4byte	.Ldebug_ranges0+0
 348 0019 00000000 		.4byte	0
 349 001d 00000000 		.4byte	.Ldebug_line0
 350 0021 02       		.uleb128 0x2
 351 0022 04       		.byte	0x4
 352 0023 05       		.byte	0x5
 353 0024 696E7400 		.ascii	"int\000"
 354 0028 03       		.uleb128 0x3
 355 0029 1C000000 		.4byte	.LASF2
 356 002d 02       		.byte	0x2
 357 002e D4       		.byte	0xd4
 358 002f 33000000 		.4byte	0x33
 359 0033 04       		.uleb128 0x4
 360 0034 04       		.byte	0x4
 361 0035 07       		.byte	0x7
 362 0036 2F030000 		.4byte	.LASF0
 363 003a 04       		.uleb128 0x4
 364 003b 01       		.byte	0x1
 365 003c 06       		.byte	0x6
 366 003d 35010000 		.4byte	.LASF1
 367 0041 03       		.uleb128 0x3
 368 0042 40000000 		.4byte	.LASF3
 369 0046 03       		.byte	0x3
 370 0047 1D       		.byte	0x1d
 371 0048 4C000000 		.4byte	0x4c
 372 004c 04       		.uleb128 0x4
 373 004d 01       		.byte	0x1
 374 004e 08       		.byte	0x8
 375 004f 7B050000 		.4byte	.LASF4
 376 0053 04       		.uleb128 0x4
 377 0054 02       		.byte	0x2
 378 0055 05       		.byte	0x5
 379 0056 93050000 		.4byte	.LASF5
 380 005a 04       		.uleb128 0x4
 381 005b 02       		.byte	0x2
 382 005c 07       		.byte	0x7
 383 005d 7E030000 		.4byte	.LASF6
 384 0061 03       		.uleb128 0x3
 385 0062 2B040000 		.4byte	.LASF7
 386 0066 03       		.byte	0x3
 387 0067 3F       		.byte	0x3f
 388 0068 6C000000 		.4byte	0x6c
 389 006c 04       		.uleb128 0x4
 390 006d 04       		.byte	0x4
 391 006e 05       		.byte	0x5
 392 006f 8B010000 		.4byte	.LASF8
 393 0073 03       		.uleb128 0x3
 394 0074 93060000 		.4byte	.LASF9
 395 0078 03       		.byte	0x3
 396 0079 41       		.byte	0x41
ARM GAS  /tmp/ccNyJpKF.s 			page 8


 397 007a 7E000000 		.4byte	0x7e
 398 007e 04       		.uleb128 0x4
 399 007f 04       		.byte	0x4
 400 0080 07       		.byte	0x7
 401 0081 40060000 		.4byte	.LASF10
 402 0085 04       		.uleb128 0x4
 403 0086 08       		.byte	0x8
 404 0087 05       		.byte	0x5
 405 0088 27010000 		.4byte	.LASF11
 406 008c 03       		.uleb128 0x3
 407 008d FB040000 		.4byte	.LASF12
 408 0091 03       		.byte	0x3
 409 0092 5B       		.byte	0x5b
 410 0093 97000000 		.4byte	0x97
 411 0097 04       		.uleb128 0x4
 412 0098 08       		.byte	0x8
 413 0099 07       		.byte	0x7
 414 009a 9C000000 		.4byte	.LASF13
 415 009e 03       		.uleb128 0x3
 416 009f 29070000 		.4byte	.LASF14
 417 00a3 04       		.byte	0x4
 418 00a4 2A       		.byte	0x2a
 419 00a5 41000000 		.4byte	0x41
 420 00a9 03       		.uleb128 0x3
 421 00aa 73050000 		.4byte	.LASF15
 422 00ae 04       		.byte	0x4
 423 00af 41       		.byte	0x41
 424 00b0 61000000 		.4byte	0x61
 425 00b4 03       		.uleb128 0x3
 426 00b5 0F060000 		.4byte	.LASF16
 427 00b9 04       		.byte	0x4
 428 00ba 42       		.byte	0x42
 429 00bb 73000000 		.4byte	0x73
 430 00bf 03       		.uleb128 0x3
 431 00c0 2A000000 		.4byte	.LASF17
 432 00c4 04       		.byte	0x4
 433 00c5 4E       		.byte	0x4e
 434 00c6 8C000000 		.4byte	0x8c
 435 00ca 05       		.uleb128 0x5
 436 00cb A9000000 		.4byte	0xa9
 437 00cf 05       		.uleb128 0x5
 438 00d0 B4000000 		.4byte	0xb4
 439 00d4 03       		.uleb128 0x3
 440 00d5 E1060000 		.4byte	.LASF18
 441 00d9 05       		.byte	0x5
 442 00da 45       		.byte	0x45
 443 00db B4000000 		.4byte	0xb4
 444 00df 03       		.uleb128 0x3
 445 00e0 0D010000 		.4byte	.LASF19
 446 00e4 05       		.byte	0x5
 447 00e5 46       		.byte	0x46
 448 00e6 BF000000 		.4byte	0xbf
 449 00ea 03       		.uleb128 0x3
 450 00eb 4C070000 		.4byte	.LASF20
 451 00ef 05       		.byte	0x5
 452 00f0 48       		.byte	0x48
 453 00f1 9E000000 		.4byte	0x9e
ARM GAS  /tmp/ccNyJpKF.s 			page 9


 454 00f5 03       		.uleb128 0x3
 455 00f6 A7010000 		.4byte	.LASF21
 456 00fa 05       		.byte	0x5
 457 00fb 49       		.byte	0x49
 458 00fc 9E000000 		.4byte	0x9e
 459 0100 03       		.uleb128 0x3
 460 0101 11050000 		.4byte	.LASF22
 461 0105 05       		.byte	0x5
 462 0106 4A       		.byte	0x4a
 463 0107 9E000000 		.4byte	0x9e
 464 010b 03       		.uleb128 0x3
 465 010c 5C050000 		.4byte	.LASF23
 466 0110 05       		.byte	0x5
 467 0111 4C       		.byte	0x4c
 468 0112 B4000000 		.4byte	0xb4
 469 0116 03       		.uleb128 0x3
 470 0117 B5030000 		.4byte	.LASF24
 471 011b 05       		.byte	0x5
 472 011c 4D       		.byte	0x4d
 473 011d A9000000 		.4byte	0xa9
 474 0121 03       		.uleb128 0x3
 475 0122 1F040000 		.4byte	.LASF25
 476 0126 05       		.byte	0x5
 477 0127 4F       		.byte	0x4f
 478 0128 B4000000 		.4byte	0xb4
 479 012c 03       		.uleb128 0x3
 480 012d 1E030000 		.4byte	.LASF26
 481 0131 05       		.byte	0x5
 482 0132 51       		.byte	0x51
 483 0133 A9000000 		.4byte	0xa9
 484 0137 03       		.uleb128 0x3
 485 0138 C4030000 		.4byte	.LASF27
 486 013c 05       		.byte	0x5
 487 013d 52       		.byte	0x52
 488 013e B4000000 		.4byte	0xb4
 489 0142 03       		.uleb128 0x3
 490 0143 75060000 		.4byte	.LASF28
 491 0147 06       		.byte	0x6
 492 0148 33       		.byte	0x33
 493 0149 B4000000 		.4byte	0xb4
 494 014d 03       		.uleb128 0x3
 495 014e 60060000 		.4byte	.LASF29
 496 0152 06       		.byte	0x6
 497 0153 3F       		.byte	0x3f
 498 0154 58010000 		.4byte	0x158
 499 0158 06       		.uleb128 0x6
 500 0159 A0030000 		.4byte	.LASF51
 501 015d 60       		.byte	0x60
 502 015e 07       		.byte	0x7
 503 015f C2       		.byte	0xc2
 504 0160 5E020000 		.4byte	0x25e
 505 0164 07       		.uleb128 0x7
 506 0165 BD050000 		.4byte	.LASF30
 507 0169 07       		.byte	0x7
 508 016a C3       		.byte	0xc3
 509 016b 69020000 		.4byte	0x269
 510 016f 00       		.byte	0
ARM GAS  /tmp/ccNyJpKF.s 			page 10


 511 0170 07       		.uleb128 0x7
 512 0171 4B050000 		.4byte	.LASF31
 513 0175 07       		.byte	0x7
 514 0176 C5       		.byte	0xc5
 515 0177 69020000 		.4byte	0x269
 516 017b 04       		.byte	0x4
 517 017c 07       		.uleb128 0x7
 518 017d 20010000 		.4byte	.LASF32
 519 0181 07       		.byte	0x7
 520 0182 C7       		.byte	0xc7
 521 0183 0B010000 		.4byte	0x10b
 522 0187 08       		.byte	0x8
 523 0188 07       		.uleb128 0x7
 524 0189 84070000 		.4byte	.LASF33
 525 018d 07       		.byte	0x7
 526 018e C8       		.byte	0xc8
 527 018f 1B070000 		.4byte	0x71b
 528 0193 0C       		.byte	0xc
 529 0194 07       		.uleb128 0x7
 530 0195 6E020000 		.4byte	.LASF34
 531 0199 07       		.byte	0x7
 532 019a CA       		.byte	0xca
 533 019b 69020000 		.4byte	0x269
 534 019f 10       		.byte	0x10
 535 01a0 07       		.uleb128 0x7
 536 01a1 BF040000 		.4byte	.LASF35
 537 01a5 07       		.byte	0x7
 538 01a6 CB       		.byte	0xcb
 539 01a7 69020000 		.4byte	0x269
 540 01ab 14       		.byte	0x14
 541 01ac 07       		.uleb128 0x7
 542 01ad 38070000 		.4byte	.LASF36
 543 01b1 07       		.byte	0x7
 544 01b2 D2       		.byte	0xd2
 545 01b3 BF090000 		.4byte	0x9bf
 546 01b7 18       		.byte	0x18
 547 01b8 07       		.uleb128 0x7
 548 01b9 24030000 		.4byte	.LASF37
 549 01bd 07       		.byte	0x7
 550 01be D8       		.byte	0xd8
 551 01bf D1090000 		.4byte	0x9d1
 552 01c3 1C       		.byte	0x1c
 553 01c4 07       		.uleb128 0x7
 554 01c5 9D050000 		.4byte	.LASF38
 555 01c9 07       		.byte	0x7
 556 01ca DD       		.byte	0xdd
 557 01cb F5000000 		.4byte	0xf5
 558 01cf 20       		.byte	0x20
 559 01d0 07       		.uleb128 0x7
 560 01d1 C4050000 		.4byte	.LASF39
 561 01d5 07       		.byte	0x7
 562 01d6 E1       		.byte	0xe1
 563 01d7 EA000000 		.4byte	0xea
 564 01db 21       		.byte	0x21
 565 01dc 07       		.uleb128 0x7
 566 01dd 0F070000 		.4byte	.LASF40
 567 01e1 07       		.byte	0x7
ARM GAS  /tmp/ccNyJpKF.s 			page 11


 568 01e2 E6       		.byte	0xe6
 569 01e3 00010000 		.4byte	0x100
 570 01e7 22       		.byte	0x22
 571 01e8 08       		.uleb128 0x8
 572 01e9 705F7500 		.ascii	"p_u\000"
 573 01ed 07       		.byte	0x7
 574 01ee 3101     		.2byte	0x131
 575 01f0 FA080000 		.4byte	0x8fa
 576 01f4 24       		.byte	0x24
 577 01f5 09       		.uleb128 0x9
 578 01f6 5F040000 		.4byte	.LASF41
 579 01fa 07       		.byte	0x7
 580 01fb 3601     		.2byte	0x136
 581 01fd 6F020000 		.4byte	0x26f
 582 0201 28       		.byte	0x28
 583 0202 09       		.uleb128 0x9
 584 0203 5B030000 		.4byte	.LASF42
 585 0207 07       		.byte	0x7
 586 0208 3C01     		.2byte	0x13c
 587 020a 93020000 		.4byte	0x293
 588 020e 2C       		.byte	0x2c
 589 020f 09       		.uleb128 0x9
 590 0210 61070000 		.4byte	.LASF43
 591 0214 07       		.byte	0x7
 592 0215 4001     		.2byte	0x140
 593 0217 16010000 		.4byte	0x116
 594 021b 34       		.byte	0x34
 595 021c 09       		.uleb128 0x9
 596 021d FA050000 		.4byte	.LASF44
 597 0221 07       		.byte	0x7
 598 0222 4601     		.2byte	0x146
 599 0224 21010000 		.4byte	0x121
 600 0228 38       		.byte	0x38
 601 0229 09       		.uleb128 0x9
 602 022a 89050000 		.4byte	.LASF45
 603 022e 07       		.byte	0x7
 604 022f 4D01     		.2byte	0x14d
 605 0231 B9090000 		.4byte	0x9b9
 606 0235 3C       		.byte	0x3c
 607 0236 09       		.uleb128 0x9
 608 0237 7F060000 		.4byte	.LASF46
 609 023b 07       		.byte	0x7
 610 023c 5101     		.2byte	0x151
 611 023e 0B010000 		.4byte	0x10b
 612 0242 40       		.byte	0x40
 613 0243 09       		.uleb128 0x9
 614 0244 58010000 		.4byte	.LASF47
 615 0248 07       		.byte	0x7
 616 0249 5801     		.2byte	0x158
 617 024b 46030000 		.4byte	0x346
 618 024f 44       		.byte	0x44
 619 0250 09       		.uleb128 0x9
 620 0251 CC050000 		.4byte	.LASF48
 621 0255 07       		.byte	0x7
 622 0256 5E01     		.2byte	0x15e
 623 0258 AB080000 		.4byte	0x8ab
 624 025c 48       		.byte	0x48
ARM GAS  /tmp/ccNyJpKF.s 			page 12


 625 025d 00       		.byte	0
 626 025e 03       		.uleb128 0x3
 627 025f 72040000 		.4byte	.LASF49
 628 0263 06       		.byte	0x6
 629 0264 44       		.byte	0x44
 630 0265 69020000 		.4byte	0x269
 631 0269 0A       		.uleb128 0xa
 632 026a 04       		.byte	0x4
 633 026b 4D010000 		.4byte	0x14d
 634 026f 03       		.uleb128 0x3
 635 0270 40040000 		.4byte	.LASF50
 636 0274 06       		.byte	0x6
 637 0275 49       		.byte	0x49
 638 0276 7A020000 		.4byte	0x27a
 639 027a 06       		.uleb128 0x6
 640 027b 30060000 		.4byte	.LASF52
 641 027f 04       		.byte	0x4
 642 0280 07       		.byte	0x7
 643 0281 B0       		.byte	0xb0
 644 0282 93020000 		.4byte	0x293
 645 0286 07       		.uleb128 0x7
 646 0287 BD050000 		.4byte	.LASF30
 647 028b 07       		.byte	0x7
 648 028c B1       		.byte	0xb1
 649 028d 69020000 		.4byte	0x269
 650 0291 00       		.byte	0
 651 0292 00       		.byte	0
 652 0293 03       		.uleb128 0x3
 653 0294 F6060000 		.4byte	.LASF53
 654 0298 06       		.byte	0x6
 655 0299 50       		.byte	0x50
 656 029a 9E020000 		.4byte	0x29e
 657 029e 06       		.uleb128 0x6
 658 029f 56000000 		.4byte	.LASF54
 659 02a3 08       		.byte	0x8
 660 02a4 07       		.byte	0x7
 661 02a5 B7       		.byte	0xb7
 662 02a6 C3020000 		.4byte	0x2c3
 663 02aa 07       		.uleb128 0x7
 664 02ab BD050000 		.4byte	.LASF30
 665 02af 07       		.byte	0x7
 666 02b0 B8       		.byte	0xb8
 667 02b1 69020000 		.4byte	0x269
 668 02b5 00       		.byte	0
 669 02b6 07       		.uleb128 0x7
 670 02b7 4B050000 		.4byte	.LASF31
 671 02bb 07       		.byte	0x7
 672 02bc B9       		.byte	0xb9
 673 02bd 69020000 		.4byte	0x269
 674 02c1 04       		.byte	0x4
 675 02c2 00       		.byte	0
 676 02c3 03       		.uleb128 0x3
 677 02c4 07000000 		.4byte	.LASF55
 678 02c8 06       		.byte	0x6
 679 02c9 57       		.byte	0x57
 680 02ca CE020000 		.4byte	0x2ce
 681 02ce 0B       		.uleb128 0xb
ARM GAS  /tmp/ccNyJpKF.s 			page 13


 682 02cf 11040000 		.4byte	.LASF56
 683 02d3 1C       		.byte	0x1c
 684 02d4 07       		.byte	0x7
 685 02d5 9001     		.2byte	0x190
 686 02d7 2A030000 		.4byte	0x32a
 687 02db 09       		.uleb128 0x9
 688 02dc 1F060000 		.4byte	.LASF57
 689 02e0 07       		.byte	0x7
 690 02e1 9101     		.2byte	0x191
 691 02e3 93020000 		.4byte	0x293
 692 02e7 00       		.byte	0
 693 02e8 09       		.uleb128 0x9
 694 02e9 AF050000 		.4byte	.LASF58
 695 02ed 07       		.byte	0x7
 696 02ee 9201     		.2byte	0x192
 697 02f0 0B010000 		.4byte	0x10b
 698 02f4 08       		.byte	0x8
 699 02f5 09       		.uleb128 0x9
 700 02f6 C7040000 		.4byte	.LASF59
 701 02fa 07       		.byte	0x7
 702 02fb 9401     		.2byte	0x194
 703 02fd 1B070000 		.4byte	0x71b
 704 0301 0C       		.byte	0xc
 705 0302 09       		.uleb128 0x9
 706 0303 86020000 		.4byte	.LASF60
 707 0307 07       		.byte	0x7
 708 0308 9701     		.2byte	0x197
 709 030a 69020000 		.4byte	0x269
 710 030e 10       		.byte	0x10
 711 030f 09       		.uleb128 0x9
 712 0310 CC060000 		.4byte	.LASF61
 713 0314 07       		.byte	0x7
 714 0315 9801     		.2byte	0x198
 715 0317 69020000 		.4byte	0x269
 716 031b 14       		.byte	0x14
 717 031c 09       		.uleb128 0x9
 718 031d E8040000 		.4byte	.LASF62
 719 0321 07       		.byte	0x7
 720 0322 9B01     		.2byte	0x19b
 721 0324 69020000 		.4byte	0x269
 722 0328 18       		.byte	0x18
 723 0329 00       		.byte	0
 724 032a 03       		.uleb128 0x3
 725 032b 8A060000 		.4byte	.LASF63
 726 032f 06       		.byte	0x6
 727 0330 5C       		.byte	0x5c
 728 0331 35030000 		.4byte	0x335
 729 0335 0A       		.uleb128 0xa
 730 0336 04       		.byte	0x4
 731 0337 3B030000 		.4byte	0x33b
 732 033b 0C       		.uleb128 0xc
 733 033c 46030000 		.4byte	0x346
 734 0340 0D       		.uleb128 0xd
 735 0341 46030000 		.4byte	0x346
 736 0345 00       		.byte	0
 737 0346 0E       		.uleb128 0xe
 738 0347 04       		.byte	0x4
ARM GAS  /tmp/ccNyJpKF.s 			page 14


 739 0348 03       		.uleb128 0x3
 740 0349 4F040000 		.4byte	.LASF64
 741 034d 06       		.byte	0x6
 742 034e 61       		.byte	0x61
 743 034f 53030000 		.4byte	0x353
 744 0353 0B       		.uleb128 0xb
 745 0354 DC050000 		.4byte	.LASF65
 746 0358 14       		.byte	0x14
 747 0359 07       		.byte	0x7
 748 035a 6B01     		.2byte	0x16b
 749 035c A2030000 		.4byte	0x3a2
 750 0360 09       		.uleb128 0x9
 751 0361 3C030000 		.4byte	.LASF66
 752 0365 07       		.byte	0x7
 753 0366 6C01     		.2byte	0x16c
 754 0368 D7090000 		.4byte	0x9d7
 755 036c 00       		.byte	0
 756 036d 09       		.uleb128 0x9
 757 036e 97020000 		.4byte	.LASF67
 758 0372 07       		.byte	0x7
 759 0373 6D01     		.2byte	0x16d
 760 0375 D7090000 		.4byte	0x9d7
 761 0379 04       		.byte	0x4
 762 037a 09       		.uleb128 0x9
 763 037b 27060000 		.4byte	.LASF68
 764 037f 07       		.byte	0x7
 765 0380 6E01     		.2byte	0x16e
 766 0382 42010000 		.4byte	0x142
 767 0386 08       		.byte	0x8
 768 0387 09       		.uleb128 0x9
 769 0388 8A070000 		.4byte	.LASF69
 770 038c 07       		.byte	0x7
 771 038d 6F01     		.2byte	0x16f
 772 038f 2A030000 		.4byte	0x32a
 773 0393 0C       		.byte	0xc
 774 0394 09       		.uleb128 0x9
 775 0395 E9060000 		.4byte	.LASF70
 776 0399 07       		.byte	0x7
 777 039a 7101     		.2byte	0x171
 778 039c 46030000 		.4byte	0x346
 779 03a0 10       		.byte	0x10
 780 03a1 00       		.byte	0
 781 03a2 03       		.uleb128 0x3
 782 03a3 EA000000 		.4byte	.LASF71
 783 03a7 06       		.byte	0x6
 784 03a8 66       		.byte	0x66
 785 03a9 AD030000 		.4byte	0x3ad
 786 03ad 0B       		.uleb128 0xb
 787 03ae 85040000 		.4byte	.LASF72
 788 03b2 10       		.byte	0x10
 789 03b3 07       		.byte	0x7
 790 03b4 7B01     		.2byte	0x17b
 791 03b6 EF030000 		.4byte	0x3ef
 792 03ba 09       		.uleb128 0x9
 793 03bb 3C030000 		.4byte	.LASF66
 794 03bf 07       		.byte	0x7
 795 03c0 7C01     		.2byte	0x17c
ARM GAS  /tmp/ccNyJpKF.s 			page 15


 796 03c2 D7090000 		.4byte	0x9d7
 797 03c6 00       		.byte	0
 798 03c7 09       		.uleb128 0x9
 799 03c8 97020000 		.4byte	.LASF67
 800 03cc 07       		.byte	0x7
 801 03cd 7E01     		.2byte	0x17e
 802 03cf D7090000 		.4byte	0x9d7
 803 03d3 04       		.byte	0x4
 804 03d4 09       		.uleb128 0x9
 805 03d5 27060000 		.4byte	.LASF68
 806 03d9 07       		.byte	0x7
 807 03da 8001     		.2byte	0x180
 808 03dc 42010000 		.4byte	0x142
 809 03e0 08       		.byte	0x8
 810 03e1 09       		.uleb128 0x9
 811 03e2 B3040000 		.4byte	.LASF73
 812 03e6 07       		.byte	0x7
 813 03e7 8801     		.2byte	0x188
 814 03e9 42010000 		.4byte	0x142
 815 03ed 0C       		.byte	0xc
 816 03ee 00       		.byte	0
 817 03ef 03       		.uleb128 0x3
 818 03f0 67000000 		.4byte	.LASF74
 819 03f4 06       		.byte	0x6
 820 03f5 6B       		.byte	0x6b
 821 03f6 FA030000 		.4byte	0x3fa
 822 03fa 0F       		.uleb128 0xf
 823 03fb DD020000 		.4byte	.LASF75
 824 03ff 1404     		.2byte	0x414
 825 0401 07       		.byte	0x7
 826 0402 A201     		.2byte	0x1a2
 827 0404 3D040000 		.4byte	0x43d
 828 0408 09       		.uleb128 0x9
 829 0409 A3060000 		.4byte	.LASF76
 830 040d 07       		.byte	0x7
 831 040e AA01     		.2byte	0x1aa
 832 0410 DD090000 		.4byte	0x9dd
 833 0414 00       		.byte	0
 834 0415 09       		.uleb128 0x9
 835 0416 16070000 		.4byte	.LASF77
 836 041a 07       		.byte	0x7
 837 041b AF01     		.2byte	0x1af
 838 041d 2C010000 		.4byte	0x12c
 839 0421 04       		.byte	0x4
 840 0422 09       		.uleb128 0x9
 841 0423 06030000 		.4byte	.LASF78
 842 0427 07       		.byte	0x7
 843 0428 B301     		.2byte	0x1b3
 844 042a 2C010000 		.4byte	0x12c
 845 042e 08       		.byte	0x8
 846 042f 09       		.uleb128 0x9
 847 0430 54070000 		.4byte	.LASF79
 848 0434 07       		.byte	0x7
 849 0435 B901     		.2byte	0x1b9
 850 0437 3D080000 		.4byte	0x83d
 851 043b 0C       		.byte	0xc
 852 043c 00       		.byte	0
ARM GAS  /tmp/ccNyJpKF.s 			page 16


 853 043d 03       		.uleb128 0x3
 854 043e E6030000 		.4byte	.LASF80
 855 0442 06       		.byte	0x6
 856 0443 70       		.byte	0x70
 857 0444 48040000 		.4byte	0x448
 858 0448 0F       		.uleb128 0xf
 859 0449 81010000 		.4byte	.LASF81
 860 044d D805     		.2byte	0x5d8
 861 044f 07       		.byte	0x7
 862 0450 C201     		.2byte	0x1c2
 863 0452 B5040000 		.4byte	0x4b5
 864 0456 09       		.uleb128 0x9
 865 0457 23070000 		.4byte	.LASF82
 866 045b 07       		.byte	0x7
 867 045c C601     		.2byte	0x1c6
 868 045e C3020000 		.4byte	0x2c3
 869 0462 00       		.byte	0
 870 0463 09       		.uleb128 0x9
 871 0464 68010000 		.4byte	.LASF83
 872 0468 07       		.byte	0x7
 873 0469 CA01     		.2byte	0x1ca
 874 046b A2030000 		.4byte	0x3a2
 875 046f 1C       		.byte	0x1c
 876 0470 08       		.uleb128 0x8
 877 0471 64626700 		.ascii	"dbg\000"
 878 0475 07       		.byte	0x7
 879 0476 CE01     		.2byte	0x1ce
 880 0478 EF030000 		.4byte	0x3ef
 881 047c 2C       		.byte	0x2c
 882 047d 10       		.uleb128 0x10
 883 047e DF000000 		.4byte	.LASF84
 884 0482 07       		.byte	0x7
 885 0483 D201     		.2byte	0x1d2
 886 0485 4D010000 		.4byte	0x14d
 887 0489 4004     		.2byte	0x440
 888 048b 11       		.uleb128 0x11
 889 048c 746D00   		.ascii	"tm\000"
 890 048f 07       		.byte	0x7
 891 0490 D701     		.2byte	0x1d7
 892 0492 5D080000 		.4byte	0x85d
 893 0496 A004     		.2byte	0x4a0
 894 0498 10       		.uleb128 0x10
 895 0499 33000000 		.4byte	.LASF85
 896 049d 07       		.byte	0x7
 897 049e DD01     		.2byte	0x1dd
 898 04a0 EF080000 		.4byte	0x8ef
 899 04a4 A804     		.2byte	0x4a8
 900 04a6 10       		.uleb128 0x10
 901 04a7 0F030000 		.4byte	.LASF86
 902 04ab 07       		.byte	0x7
 903 04ac E301     		.2byte	0x1e3
 904 04ae E2090000 		.4byte	0x9e2
 905 04b2 E004     		.2byte	0x4e0
 906 04b4 00       		.byte	0
 907 04b5 04       		.uleb128 0x4
 908 04b6 04       		.byte	0x4
 909 04b7 07       		.byte	0x7
ARM GAS  /tmp/ccNyJpKF.s 			page 17


 910 04b8 69040000 		.4byte	.LASF87
 911 04bc 12       		.uleb128 0x12
 912 04bd B4000000 		.4byte	0xb4
 913 04c1 CC040000 		.4byte	0x4cc
 914 04c5 13       		.uleb128 0x13
 915 04c6 B5040000 		.4byte	0x4b5
 916 04ca 01       		.byte	0x1
 917 04cb 00       		.byte	0
 918 04cc 14       		.uleb128 0x14
 919 04cd 1C       		.byte	0x1c
 920 04ce 08       		.byte	0x8
 921 04cf DA01     		.2byte	0x1da
 922 04d1 2F050000 		.4byte	0x52f
 923 04d5 08       		.uleb128 0x8
 924 04d6 41435200 		.ascii	"ACR\000"
 925 04da 08       		.byte	0x8
 926 04db DC01     		.2byte	0x1dc
 927 04dd CF000000 		.4byte	0xcf
 928 04e1 00       		.byte	0
 929 04e2 09       		.uleb128 0x9
 930 04e3 D8020000 		.4byte	.LASF88
 931 04e7 08       		.byte	0x8
 932 04e8 DD01     		.2byte	0x1dd
 933 04ea CF000000 		.4byte	0xcf
 934 04ee 04       		.byte	0x4
 935 04ef 09       		.uleb128 0x9
 936 04f0 B6010000 		.4byte	.LASF89
 937 04f4 08       		.byte	0x8
 938 04f5 DE01     		.2byte	0x1de
 939 04f7 CF000000 		.4byte	0xcf
 940 04fb 08       		.byte	0x8
 941 04fc 08       		.uleb128 0x8
 942 04fd 535200   		.ascii	"SR\000"
 943 0500 08       		.byte	0x8
 944 0501 DF01     		.2byte	0x1df
 945 0503 CF000000 		.4byte	0xcf
 946 0507 0C       		.byte	0xc
 947 0508 08       		.uleb128 0x8
 948 0509 435200   		.ascii	"CR\000"
 949 050c 08       		.byte	0x8
 950 050d E001     		.2byte	0x1e0
 951 050f CF000000 		.4byte	0xcf
 952 0513 10       		.byte	0x10
 953 0514 09       		.uleb128 0x9
 954 0515 76000000 		.4byte	.LASF90
 955 0519 08       		.byte	0x8
 956 051a E101     		.2byte	0x1e1
 957 051c CF000000 		.4byte	0xcf
 958 0520 14       		.byte	0x14
 959 0521 09       		.uleb128 0x9
 960 0522 82000000 		.4byte	.LASF91
 961 0526 08       		.byte	0x8
 962 0527 E201     		.2byte	0x1e2
 963 0529 CF000000 		.4byte	0xcf
 964 052d 18       		.byte	0x18
 965 052e 00       		.byte	0
 966 052f 15       		.uleb128 0x15
ARM GAS  /tmp/ccNyJpKF.s 			page 18


 967 0530 4A010000 		.4byte	.LASF92
 968 0534 08       		.byte	0x8
 969 0535 E301     		.2byte	0x1e3
 970 0537 CC040000 		.4byte	0x4cc
 971 053b 14       		.uleb128 0x14
 972 053c 08       		.byte	0x8
 973 053d 08       		.byte	0x8
 974 053e 5D02     		.2byte	0x25d
 975 0540 5E050000 		.4byte	0x55e
 976 0544 08       		.uleb128 0x8
 977 0545 435200   		.ascii	"CR\000"
 978 0548 08       		.byte	0x8
 979 0549 5F02     		.2byte	0x25f
 980 054b CF000000 		.4byte	0xcf
 981 054f 00       		.byte	0
 982 0550 08       		.uleb128 0x8
 983 0551 43535200 		.ascii	"CSR\000"
 984 0555 08       		.byte	0x8
 985 0556 6002     		.2byte	0x260
 986 0558 CF000000 		.4byte	0xcf
 987 055c 04       		.byte	0x4
 988 055d 00       		.byte	0
 989 055e 15       		.uleb128 0x15
 990 055f 6F010000 		.4byte	.LASF93
 991 0563 08       		.byte	0x8
 992 0564 6102     		.2byte	0x261
 993 0566 3B050000 		.4byte	0x53b
 994 056a 14       		.uleb128 0x14
 995 056b 88       		.byte	0x88
 996 056c 08       		.byte	0x8
 997 056d 6702     		.2byte	0x267
 998 056f F9060000 		.4byte	0x6f9
 999 0573 08       		.uleb128 0x8
 1000 0574 435200   		.ascii	"CR\000"
 1001 0577 08       		.byte	0x8
 1002 0578 6902     		.2byte	0x269
 1003 057a CF000000 		.4byte	0xcf
 1004 057e 00       		.byte	0
 1005 057f 09       		.uleb128 0x9
 1006 0580 76020000 		.4byte	.LASF94
 1007 0584 08       		.byte	0x8
 1008 0585 6A02     		.2byte	0x26a
 1009 0587 CF000000 		.4byte	0xcf
 1010 058b 04       		.byte	0x4
 1011 058c 09       		.uleb128 0x9
 1012 058d 47070000 		.4byte	.LASF95
 1013 0591 08       		.byte	0x8
 1014 0592 6B02     		.2byte	0x26b
 1015 0594 CF000000 		.4byte	0xcf
 1016 0598 08       		.byte	0x8
 1017 0599 08       		.uleb128 0x8
 1018 059a 43495200 		.ascii	"CIR\000"
 1019 059e 08       		.byte	0x8
 1020 059f 6C02     		.2byte	0x26c
 1021 05a1 CF000000 		.4byte	0xcf
 1022 05a5 0C       		.byte	0xc
 1023 05a6 09       		.uleb128 0x9
ARM GAS  /tmp/ccNyJpKF.s 			page 19


 1024 05a7 41010000 		.4byte	.LASF96
 1025 05ab 08       		.byte	0x8
 1026 05ac 6D02     		.2byte	0x26d
 1027 05ae CF000000 		.4byte	0xcf
 1028 05b2 10       		.byte	0x10
 1029 05b3 09       		.uleb128 0x9
 1030 05b4 57060000 		.4byte	.LASF97
 1031 05b8 08       		.byte	0x8
 1032 05b9 6E02     		.2byte	0x26e
 1033 05bb CF000000 		.4byte	0xcf
 1034 05bf 14       		.byte	0x14
 1035 05c0 09       		.uleb128 0x9
 1036 05c1 BB030000 		.4byte	.LASF98
 1037 05c5 08       		.byte	0x8
 1038 05c6 6F02     		.2byte	0x26f
 1039 05c8 CF000000 		.4byte	0xcf
 1040 05cc 18       		.byte	0x18
 1041 05cd 09       		.uleb128 0x9
 1042 05ce 19050000 		.4byte	.LASF99
 1043 05d2 08       		.byte	0x8
 1044 05d3 7002     		.2byte	0x270
 1045 05d5 B4000000 		.4byte	0xb4
 1046 05d9 1C       		.byte	0x1c
 1047 05da 09       		.uleb128 0x9
 1048 05db F2040000 		.4byte	.LASF100
 1049 05df 08       		.byte	0x8
 1050 05e0 7102     		.2byte	0x271
 1051 05e2 CF000000 		.4byte	0xcf
 1052 05e6 20       		.byte	0x20
 1053 05e7 09       		.uleb128 0x9
 1054 05e8 94010000 		.4byte	.LASF101
 1055 05ec 08       		.byte	0x8
 1056 05ed 7202     		.2byte	0x272
 1057 05ef CF000000 		.4byte	0xcf
 1058 05f3 24       		.byte	0x24
 1059 05f4 09       		.uleb128 0x9
 1060 05f5 23050000 		.4byte	.LASF102
 1061 05f9 08       		.byte	0x8
 1062 05fa 7302     		.2byte	0x273
 1063 05fc BC040000 		.4byte	0x4bc
 1064 0600 28       		.byte	0x28
 1065 0601 09       		.uleb128 0x9
 1066 0602 3F070000 		.4byte	.LASF103
 1067 0606 08       		.byte	0x8
 1068 0607 7402     		.2byte	0x274
 1069 0609 CF000000 		.4byte	0xcf
 1070 060d 30       		.byte	0x30
 1071 060e 09       		.uleb128 0x9
 1072 060f BC060000 		.4byte	.LASF104
 1073 0613 08       		.byte	0x8
 1074 0614 7502     		.2byte	0x275
 1075 0616 CF000000 		.4byte	0xcf
 1076 061a 34       		.byte	0x34
 1077 061b 09       		.uleb128 0x9
 1078 061c AB040000 		.4byte	.LASF105
 1079 0620 08       		.byte	0x8
 1080 0621 7602     		.2byte	0x276
ARM GAS  /tmp/ccNyJpKF.s 			page 20


 1081 0623 CF000000 		.4byte	0xcf
 1082 0627 38       		.byte	0x38
 1083 0628 09       		.uleb128 0x9
 1084 0629 2D050000 		.4byte	.LASF106
 1085 062d 08       		.byte	0x8
 1086 062e 7702     		.2byte	0x277
 1087 0630 B4000000 		.4byte	0xb4
 1088 0634 3C       		.byte	0x3c
 1089 0635 09       		.uleb128 0x9
 1090 0636 B4060000 		.4byte	.LASF107
 1091 063a 08       		.byte	0x8
 1092 063b 7802     		.2byte	0x278
 1093 063d CF000000 		.4byte	0xcf
 1094 0641 40       		.byte	0x40
 1095 0642 09       		.uleb128 0x9
 1096 0643 D4050000 		.4byte	.LASF108
 1097 0647 08       		.byte	0x8
 1098 0648 7902     		.2byte	0x279
 1099 064a CF000000 		.4byte	0xcf
 1100 064e 44       		.byte	0x44
 1101 064f 09       		.uleb128 0x9
 1102 0650 37050000 		.4byte	.LASF109
 1103 0654 08       		.byte	0x8
 1104 0655 7A02     		.2byte	0x27a
 1105 0657 BC040000 		.4byte	0x4bc
 1106 065b 48       		.byte	0x48
 1107 065c 09       		.uleb128 0x9
 1108 065d 16010000 		.4byte	.LASF110
 1109 0661 08       		.byte	0x8
 1110 0662 7B02     		.2byte	0x27b
 1111 0664 CF000000 		.4byte	0xcf
 1112 0668 50       		.byte	0x50
 1113 0669 09       		.uleb128 0x9
 1114 066a CD040000 		.4byte	.LASF111
 1115 066e 08       		.byte	0x8
 1116 066f 7C02     		.2byte	0x27c
 1117 0671 CF000000 		.4byte	0xcf
 1118 0675 54       		.byte	0x54
 1119 0676 09       		.uleb128 0x9
 1120 0677 A5050000 		.4byte	.LASF112
 1121 067b 08       		.byte	0x8
 1122 067c 7D02     		.2byte	0x27d
 1123 067e CF000000 		.4byte	0xcf
 1124 0682 58       		.byte	0x58
 1125 0683 09       		.uleb128 0x9
 1126 0684 41050000 		.4byte	.LASF113
 1127 0688 08       		.byte	0x8
 1128 0689 7E02     		.2byte	0x27e
 1129 068b B4000000 		.4byte	0xb4
 1130 068f 5C       		.byte	0x5c
 1131 0690 09       		.uleb128 0x9
 1132 0691 9D010000 		.4byte	.LASF114
 1133 0695 08       		.byte	0x8
 1134 0696 7F02     		.2byte	0x27f
 1135 0698 CF000000 		.4byte	0xcf
 1136 069c 60       		.byte	0x60
 1137 069d 09       		.uleb128 0x9
ARM GAS  /tmp/ccNyJpKF.s 			page 21


 1138 069e FC030000 		.4byte	.LASF115
 1139 06a2 08       		.byte	0x8
 1140 06a3 8002     		.2byte	0x280
 1141 06a5 CF000000 		.4byte	0xcf
 1142 06a9 64       		.byte	0x64
 1143 06aa 09       		.uleb128 0x9
 1144 06ab 05060000 		.4byte	.LASF116
 1145 06af 08       		.byte	0x8
 1146 06b0 8102     		.2byte	0x281
 1147 06b2 BC040000 		.4byte	0x4bc
 1148 06b6 68       		.byte	0x68
 1149 06b7 09       		.uleb128 0x9
 1150 06b8 1E070000 		.4byte	.LASF117
 1151 06bc 08       		.byte	0x8
 1152 06bd 8202     		.2byte	0x282
 1153 06bf CF000000 		.4byte	0xcf
 1154 06c3 70       		.byte	0x70
 1155 06c4 08       		.uleb128 0x8
 1156 06c5 43535200 		.ascii	"CSR\000"
 1157 06c9 08       		.byte	0x8
 1158 06ca 8302     		.2byte	0x283
 1159 06cc CF000000 		.4byte	0xcf
 1160 06d0 74       		.byte	0x74
 1161 06d1 09       		.uleb128 0x9
 1162 06d2 52050000 		.4byte	.LASF118
 1163 06d6 08       		.byte	0x8
 1164 06d7 8402     		.2byte	0x284
 1165 06d9 BC040000 		.4byte	0x4bc
 1166 06dd 78       		.byte	0x78
 1167 06de 09       		.uleb128 0x9
 1168 06df F0060000 		.4byte	.LASF119
 1169 06e3 08       		.byte	0x8
 1170 06e4 8502     		.2byte	0x285
 1171 06e6 CF000000 		.4byte	0xcf
 1172 06ea 80       		.byte	0x80
 1173 06eb 09       		.uleb128 0x9
 1174 06ec AA030000 		.4byte	.LASF120
 1175 06f0 08       		.byte	0x8
 1176 06f1 8602     		.2byte	0x286
 1177 06f3 CF000000 		.4byte	0xcf
 1178 06f7 84       		.byte	0x84
 1179 06f8 00       		.byte	0
 1180 06f9 15       		.uleb128 0x15
 1181 06fa 66030000 		.4byte	.LASF121
 1182 06fe 08       		.byte	0x8
 1183 06ff 8802     		.2byte	0x288
 1184 0701 6A050000 		.4byte	0x56a
 1185 0705 03       		.uleb128 0x3
 1186 0706 8E020000 		.4byte	.LASF122
 1187 070a 09       		.byte	0x9
 1188 070b 65       		.byte	0x65
 1189 070c 46030000 		.4byte	0x346
 1190 0710 03       		.uleb128 0x3
 1191 0711 35040000 		.4byte	.LASF123
 1192 0715 09       		.byte	0x9
 1193 0716 6D       		.byte	0x6d
 1194 0717 BF000000 		.4byte	0xbf
ARM GAS  /tmp/ccNyJpKF.s 			page 22


 1195 071b 06       		.uleb128 0x6
 1196 071c C4060000 		.4byte	.LASF124
 1197 0720 04       		.byte	0x4
 1198 0721 09       		.byte	0x9
 1199 0722 89       		.byte	0x89
 1200 0723 34070000 		.4byte	0x734
 1201 0727 16       		.uleb128 0x16
 1202 0728 72313300 		.ascii	"r13\000"
 1203 072c 09       		.byte	0x9
 1204 072d 8A       		.byte	0x8a
 1205 072e AF070000 		.4byte	0x7af
 1206 0732 00       		.byte	0
 1207 0733 00       		.byte	0
 1208 0734 06       		.uleb128 0x6
 1209 0735 4A000000 		.4byte	.LASF125
 1210 0739 24       		.byte	0x24
 1211 073a 0A       		.byte	0xa
 1212 073b FD       		.byte	0xfd
 1213 073c AF070000 		.4byte	0x7af
 1214 0740 08       		.uleb128 0x8
 1215 0741 723400   		.ascii	"r4\000"
 1216 0744 0A       		.byte	0xa
 1217 0745 1001     		.2byte	0x110
 1218 0747 05070000 		.4byte	0x705
 1219 074b 00       		.byte	0
 1220 074c 08       		.uleb128 0x8
 1221 074d 723500   		.ascii	"r5\000"
 1222 0750 0A       		.byte	0xa
 1223 0751 1101     		.2byte	0x111
 1224 0753 05070000 		.4byte	0x705
 1225 0757 04       		.byte	0x4
 1226 0758 08       		.uleb128 0x8
 1227 0759 723600   		.ascii	"r6\000"
 1228 075c 0A       		.byte	0xa
 1229 075d 1201     		.2byte	0x112
 1230 075f 05070000 		.4byte	0x705
 1231 0763 08       		.byte	0x8
 1232 0764 08       		.uleb128 0x8
 1233 0765 723700   		.ascii	"r7\000"
 1234 0768 0A       		.byte	0xa
 1235 0769 1301     		.2byte	0x113
 1236 076b 05070000 		.4byte	0x705
 1237 076f 0C       		.byte	0xc
 1238 0770 08       		.uleb128 0x8
 1239 0771 723800   		.ascii	"r8\000"
 1240 0774 0A       		.byte	0xa
 1241 0775 1401     		.2byte	0x114
 1242 0777 05070000 		.4byte	0x705
 1243 077b 10       		.byte	0x10
 1244 077c 08       		.uleb128 0x8
 1245 077d 723900   		.ascii	"r9\000"
 1246 0780 0A       		.byte	0xa
 1247 0781 1501     		.2byte	0x115
 1248 0783 05070000 		.4byte	0x705
 1249 0787 14       		.byte	0x14
 1250 0788 08       		.uleb128 0x8
 1251 0789 72313000 		.ascii	"r10\000"
ARM GAS  /tmp/ccNyJpKF.s 			page 23


 1252 078d 0A       		.byte	0xa
 1253 078e 1601     		.2byte	0x116
 1254 0790 05070000 		.4byte	0x705
 1255 0794 18       		.byte	0x18
 1256 0795 08       		.uleb128 0x8
 1257 0796 72313100 		.ascii	"r11\000"
 1258 079a 0A       		.byte	0xa
 1259 079b 1701     		.2byte	0x117
 1260 079d 05070000 		.4byte	0x705
 1261 07a1 1C       		.byte	0x1c
 1262 07a2 08       		.uleb128 0x8
 1263 07a3 6C7200   		.ascii	"lr\000"
 1264 07a6 0A       		.byte	0xa
 1265 07a7 1801     		.2byte	0x118
 1266 07a9 05070000 		.4byte	0x705
 1267 07ad 20       		.byte	0x20
 1268 07ae 00       		.byte	0
 1269 07af 0A       		.uleb128 0xa
 1270 07b0 04       		.byte	0x4
 1271 07b1 34070000 		.4byte	0x734
 1272 07b5 17       		.uleb128 0x17
 1273 07b6 10       		.byte	0x10
 1274 07b7 0B       		.byte	0xb
 1275 07b8 51       		.byte	0x51
 1276 07b9 EE070000 		.4byte	0x7ee
 1277 07bd 07       		.uleb128 0x7
 1278 07be 14000000 		.4byte	.LASF126
 1279 07c2 0B       		.byte	0xb
 1280 07c3 55       		.byte	0x55
 1281 07c4 42010000 		.4byte	0x142
 1282 07c8 00       		.byte	0
 1283 07c9 07       		.uleb128 0x7
 1284 07ca B0010000 		.4byte	.LASF127
 1285 07ce 0B       		.byte	0xb
 1286 07cf 59       		.byte	0x59
 1287 07d0 69020000 		.4byte	0x269
 1288 07d4 04       		.byte	0x4
 1289 07d5 07       		.uleb128 0x7
 1290 07d6 7A070000 		.4byte	.LASF128
 1291 07da 0B       		.byte	0xb
 1292 07db 5D       		.byte	0x5d
 1293 07dc 46030000 		.4byte	0x346
 1294 07e0 08       		.byte	0x8
 1295 07e1 07       		.uleb128 0x7
 1296 07e2 C5000000 		.4byte	.LASF129
 1297 07e6 0B       		.byte	0xb
 1298 07e7 61       		.byte	0x61
 1299 07e8 9E000000 		.4byte	0x9e
 1300 07ec 0C       		.byte	0xc
 1301 07ed 00       		.byte	0
 1302 07ee 03       		.uleb128 0x3
 1303 07ef 9C040000 		.4byte	.LASF130
 1304 07f3 0B       		.byte	0xb
 1305 07f4 62       		.byte	0x62
 1306 07f5 B5070000 		.4byte	0x7b5
 1307 07f9 18       		.uleb128 0x18
 1308 07fa 0804     		.2byte	0x408
ARM GAS  /tmp/ccNyJpKF.s 			page 24


 1309 07fc 0B       		.byte	0xb
 1310 07fd 67       		.byte	0x67
 1311 07fe 27080000 		.4byte	0x827
 1312 0802 07       		.uleb128 0x7
 1313 0803 7E020000 		.4byte	.LASF131
 1314 0807 0B       		.byte	0xb
 1315 0808 6B       		.byte	0x6b
 1316 0809 33000000 		.4byte	0x33
 1317 080d 00       		.byte	0
 1318 080e 07       		.uleb128 0x7
 1319 080f 00000000 		.4byte	.LASF132
 1320 0813 0B       		.byte	0xb
 1321 0814 6F       		.byte	0x6f
 1322 0815 27080000 		.4byte	0x827
 1323 0819 04       		.byte	0x4
 1324 081a 07       		.uleb128 0x7
 1325 081b F2030000 		.4byte	.LASF133
 1326 081f 0B       		.byte	0xb
 1327 0820 73       		.byte	0x73
 1328 0821 2D080000 		.4byte	0x82d
 1329 0825 08       		.byte	0x8
 1330 0826 00       		.byte	0
 1331 0827 0A       		.uleb128 0xa
 1332 0828 04       		.byte	0x4
 1333 0829 EE070000 		.4byte	0x7ee
 1334 082d 12       		.uleb128 0x12
 1335 082e EE070000 		.4byte	0x7ee
 1336 0832 3D080000 		.4byte	0x83d
 1337 0836 13       		.uleb128 0x13
 1338 0837 B5040000 		.4byte	0x4b5
 1339 083b 3F       		.byte	0x3f
 1340 083c 00       		.byte	0
 1341 083d 03       		.uleb128 0x3
 1342 083e B3000000 		.4byte	.LASF134
 1343 0842 0B       		.byte	0xb
 1344 0843 74       		.byte	0x74
 1345 0844 F9070000 		.4byte	0x7f9
 1346 0848 17       		.uleb128 0x17
 1347 0849 04       		.byte	0x4
 1348 084a 0C       		.byte	0xc
 1349 084b 38       		.byte	0x38
 1350 084c 5D080000 		.4byte	0x85d
 1351 0850 07       		.uleb128 0x7
 1352 0851 AD060000 		.4byte	.LASF135
 1353 0855 0C       		.byte	0xc
 1354 0856 3C       		.byte	0x3c
 1355 0857 D4000000 		.4byte	0xd4
 1356 085b 00       		.byte	0
 1357 085c 00       		.byte	0
 1358 085d 03       		.uleb128 0x3
 1359 085e D7040000 		.4byte	.LASF136
 1360 0862 0C       		.byte	0xc
 1361 0863 3D       		.byte	0x3d
 1362 0864 48080000 		.4byte	0x848
 1363 0868 17       		.uleb128 0x17
 1364 0869 18       		.byte	0x18
 1365 086a 0C       		.byte	0xc
ARM GAS  /tmp/ccNyJpKF.s 			page 25


 1366 086b 48       		.byte	0x48
 1367 086c AB080000 		.4byte	0x8ab
 1368 0870 07       		.uleb128 0x7
 1369 0871 69060000 		.4byte	.LASF137
 1370 0875 0C       		.byte	0xc
 1371 0876 49       		.byte	0x49
 1372 0877 D4000000 		.4byte	0xd4
 1373 087b 00       		.byte	0
 1374 087c 07       		.uleb128 0x7
 1375 087d 7C000000 		.4byte	.LASF138
 1376 0881 0C       		.byte	0xc
 1377 0882 4A       		.byte	0x4a
 1378 0883 D4000000 		.4byte	0xd4
 1379 0887 04       		.byte	0x4
 1380 0888 07       		.uleb128 0x7
 1381 0889 9E060000 		.4byte	.LASF139
 1382 088d 0C       		.byte	0xc
 1383 088e 4B       		.byte	0x4b
 1384 088f D4000000 		.4byte	0xd4
 1385 0893 08       		.byte	0x8
 1386 0894 16       		.uleb128 0x16
 1387 0895 6E00     		.ascii	"n\000"
 1388 0897 0C       		.byte	0xc
 1389 0898 4C       		.byte	0x4c
 1390 0899 37010000 		.4byte	0x137
 1391 089d 0C       		.byte	0xc
 1392 089e 07       		.uleb128 0x7
 1393 089f 06050000 		.4byte	.LASF140
 1394 08a3 0C       		.byte	0xc
 1395 08a4 4D       		.byte	0x4d
 1396 08a5 DF000000 		.4byte	0xdf
 1397 08a9 10       		.byte	0x10
 1398 08aa 00       		.byte	0
 1399 08ab 03       		.uleb128 0x3
 1400 08ac 89000000 		.4byte	.LASF141
 1401 08b0 0C       		.byte	0xc
 1402 08b1 4E       		.byte	0x4e
 1403 08b2 68080000 		.4byte	0x868
 1404 08b6 17       		.uleb128 0x17
 1405 08b7 38       		.byte	0x38
 1406 08b8 0D       		.byte	0xd
 1407 08b9 38       		.byte	0x38
 1408 08ba EF080000 		.4byte	0x8ef
 1409 08be 07       		.uleb128 0x7
 1410 08bf 72030000 		.4byte	.LASF142
 1411 08c3 0D       		.byte	0xd
 1412 08c4 39       		.byte	0x39
 1413 08c5 37010000 		.4byte	0x137
 1414 08c9 00       		.byte	0
 1415 08ca 07       		.uleb128 0x7
 1416 08cb 64050000 		.4byte	.LASF143
 1417 08cf 0D       		.byte	0xd
 1418 08d0 3A       		.byte	0x3a
 1419 08d1 37010000 		.4byte	0x137
 1420 08d5 04       		.byte	0x4
 1421 08d6 07       		.uleb128 0x7
 1422 08d7 67070000 		.4byte	.LASF144
ARM GAS  /tmp/ccNyJpKF.s 			page 26


 1423 08db 0D       		.byte	0xd
 1424 08dc 3B       		.byte	0x3b
 1425 08dd AB080000 		.4byte	0x8ab
 1426 08e1 08       		.byte	0x8
 1427 08e2 07       		.uleb128 0x7
 1428 08e3 06040000 		.4byte	.LASF145
 1429 08e7 0D       		.byte	0xd
 1430 08e8 3D       		.byte	0x3d
 1431 08e9 AB080000 		.4byte	0x8ab
 1432 08ed 20       		.byte	0x20
 1433 08ee 00       		.byte	0
 1434 08ef 03       		.uleb128 0x3
 1435 08f0 91030000 		.4byte	.LASF146
 1436 08f4 0D       		.byte	0xd
 1437 08f5 3F       		.byte	0x3f
 1438 08f6 B6080000 		.4byte	0x8b6
 1439 08fa 19       		.uleb128 0x19
 1440 08fb 04       		.byte	0x4
 1441 08fc 07       		.byte	0x7
 1442 08fd FA       		.byte	0xfa
 1443 08fe 57090000 		.4byte	0x957
 1444 0902 1A       		.uleb128 0x1a
 1445 0903 23000000 		.4byte	.LASF147
 1446 0907 07       		.byte	0x7
 1447 0908 0101     		.2byte	0x101
 1448 090a 16010000 		.4byte	0x116
 1449 090e 1A       		.uleb128 0x1a
 1450 090f D6000000 		.4byte	.LASF148
 1451 0913 07       		.byte	0x7
 1452 0914 0801     		.2byte	0x108
 1453 0916 16010000 		.4byte	0x116
 1454 091a 1A       		.uleb128 0x1a
 1455 091b 31070000 		.4byte	.LASF149
 1456 091f 07       		.byte	0x7
 1457 0920 0F01     		.2byte	0x10f
 1458 0922 46030000 		.4byte	0x346
 1459 0926 1A       		.uleb128 0x1a
 1460 0927 7B010000 		.4byte	.LASF150
 1461 092b 07       		.byte	0x7
 1462 092c 1601     		.2byte	0x116
 1463 092e 57090000 		.4byte	0x957
 1464 0932 1A       		.uleb128 0x1a
 1465 0933 54030000 		.4byte	.LASF151
 1466 0937 07       		.byte	0x7
 1467 0938 1E01     		.2byte	0x11e
 1468 093a 82090000 		.4byte	0x982
 1469 093e 1A       		.uleb128 0x1a
 1470 093f 18060000 		.4byte	.LASF152
 1471 0943 07       		.byte	0x7
 1472 0944 2701     		.2byte	0x127
 1473 0946 B9090000 		.4byte	0x9b9
 1474 094a 1A       		.uleb128 0x1a
 1475 094b B6050000 		.4byte	.LASF153
 1476 094f 07       		.byte	0x7
 1477 0950 2F01     		.2byte	0x12f
 1478 0952 21010000 		.4byte	0x121
 1479 0956 00       		.byte	0
ARM GAS  /tmp/ccNyJpKF.s 			page 27


 1480 0957 0A       		.uleb128 0xa
 1481 0958 04       		.byte	0x4
 1482 0959 5E020000 		.4byte	0x25e
 1483 095d 06       		.uleb128 0x6
 1484 095e ED050000 		.4byte	.LASF154
 1485 0962 0C       		.byte	0xc
 1486 0963 0E       		.byte	0xe
 1487 0964 34       		.byte	0x34
 1488 0965 82090000 		.4byte	0x982
 1489 0969 07       		.uleb128 0x7
 1490 096a CE000000 		.4byte	.LASF155
 1491 096e 0E       		.byte	0xe
 1492 096f 35       		.byte	0x35
 1493 0970 93020000 		.4byte	0x293
 1494 0974 00       		.byte	0
 1495 0975 07       		.uleb128 0x7
 1496 0976 78030000 		.4byte	.LASF156
 1497 097a 0E       		.byte	0xe
 1498 097b 37       		.byte	0x37
 1499 097c 2C010000 		.4byte	0x12c
 1500 0980 08       		.byte	0x8
 1501 0981 00       		.byte	0
 1502 0982 0A       		.uleb128 0xa
 1503 0983 04       		.byte	0x4
 1504 0984 5D090000 		.4byte	0x95d
 1505 0988 06       		.uleb128 0x6
 1506 0989 06070000 		.4byte	.LASF157
 1507 098d 10       		.byte	0x10
 1508 098e 0F       		.byte	0xf
 1509 098f 39       		.byte	0x39
 1510 0990 B9090000 		.4byte	0x9b9
 1511 0994 07       		.uleb128 0x7
 1512 0995 60010000 		.4byte	.LASF158
 1513 0999 0F       		.byte	0xf
 1514 099a 3A       		.byte	0x3a
 1515 099b 93020000 		.4byte	0x293
 1516 099f 00       		.byte	0
 1517 09a0 07       		.uleb128 0x7
 1518 09a1 72070000 		.4byte	.LASF159
 1519 09a5 0F       		.byte	0xf
 1520 09a6 3C       		.byte	0x3c
 1521 09a7 69020000 		.4byte	0x269
 1522 09ab 08       		.byte	0x8
 1523 09ac 07       		.uleb128 0x7
 1524 09ad 6E060000 		.4byte	.LASF160
 1525 09b1 0F       		.byte	0xf
 1526 09b2 3E       		.byte	0x3e
 1527 09b3 FD090000 		.4byte	0x9fd
 1528 09b7 0C       		.byte	0xc
 1529 09b8 00       		.byte	0
 1530 09b9 0A       		.uleb128 0xa
 1531 09ba 04       		.byte	0x4
 1532 09bb 88090000 		.4byte	0x988
 1533 09bf 0A       		.uleb128 0xa
 1534 09c0 04       		.byte	0x4
 1535 09c1 C5090000 		.4byte	0x9c5
 1536 09c5 1B       		.uleb128 0x1b
ARM GAS  /tmp/ccNyJpKF.s 			page 28


 1537 09c6 CA090000 		.4byte	0x9ca
 1538 09ca 04       		.uleb128 0x4
 1539 09cb 01       		.byte	0x1
 1540 09cc 08       		.byte	0x8
 1541 09cd 52060000 		.4byte	.LASF161
 1542 09d1 0A       		.uleb128 0xa
 1543 09d2 04       		.byte	0x4
 1544 09d3 10070000 		.4byte	0x710
 1545 09d7 0A       		.uleb128 0xa
 1546 09d8 04       		.byte	0x4
 1547 09d9 48030000 		.4byte	0x348
 1548 09dd 05       		.uleb128 0x5
 1549 09de BF090000 		.4byte	0x9bf
 1550 09e2 12       		.uleb128 0x12
 1551 09e3 10070000 		.4byte	0x710
 1552 09e7 F2090000 		.4byte	0x9f2
 1553 09eb 13       		.uleb128 0x13
 1554 09ec B5040000 		.4byte	0x4b5
 1555 09f0 1E       		.byte	0x1e
 1556 09f1 00       		.byte	0
 1557 09f2 03       		.uleb128 0x3
 1558 09f3 FE020000 		.4byte	.LASF162
 1559 09f7 0F       		.byte	0xf
 1560 09f8 34       		.byte	0x34
 1561 09f9 88090000 		.4byte	0x988
 1562 09fd 0A       		.uleb128 0xa
 1563 09fe 04       		.byte	0x4
 1564 09ff F2090000 		.4byte	0x9f2
 1565 0a03 04       		.uleb128 0x4
 1566 0a04 01       		.byte	0x1
 1567 0a05 02       		.byte	0x2
 1568 0a06 6D050000 		.4byte	.LASF163
 1569 0a0a 1C       		.uleb128 0x1c
 1570 0a0b CB030000 		.4byte	.LASF170
 1571 0a0f 01       		.byte	0x1
 1572 0a10 36       		.byte	0x36
 1573 0a11 00000000 		.4byte	.LFB271
 1574 0a15 40000000 		.4byte	.LFE271-.LFB271
 1575 0a19 01       		.uleb128 0x1
 1576 0a1a 9C       		.byte	0x9c
 1577 0a1b 1D       		.uleb128 0x1d
 1578 0a1c D4060000 		.4byte	.LASF164
 1579 0a20 01       		.byte	0x1
 1580 0a21 72       		.byte	0x72
 1581 0a22 00000000 		.4byte	.LFB272
 1582 0a26 64000000 		.4byte	.LFE272-.LFB272
 1583 0a2a 01       		.uleb128 0x1
 1584 0a2b 9C       		.byte	0x9c
 1585 0a2c 1E       		.uleb128 0x1e
 1586 0a2d ED020000 		.4byte	.LASF165
 1587 0a31 01       		.byte	0x1
 1588 0a32 92       		.byte	0x92
 1589 0a33 00000000 		.4byte	.LFB273
 1590 0a37 18010000 		.4byte	.LFE273-.LFB273
 1591 0a3b 01       		.uleb128 0x1
 1592 0a3c 9C       		.byte	0x9c
 1593 0a3d 1F       		.uleb128 0x1f
ARM GAS  /tmp/ccNyJpKF.s 			page 29


 1594 0a3e 00010000 		.4byte	.LASF166
 1595 0a42 10       		.byte	0x10
 1596 0a43 FA06     		.2byte	0x6fa
 1597 0a45 CA000000 		.4byte	0xca
 1598 0a49 20       		.uleb128 0x20
 1599 0a4a 44030000 		.4byte	.LASF167
 1600 0a4e 01       		.byte	0x1
 1601 0a4f 27       		.byte	0x27
 1602 0a50 B4000000 		.4byte	0xb4
 1603 0a54 05       		.uleb128 0x5
 1604 0a55 03       		.byte	0x3
 1605 0a56 00000000 		.4byte	SystemCoreClock
 1606 0a5a 21       		.uleb128 0x21
 1607 0a5b 636800   		.ascii	"ch\000"
 1608 0a5e 07       		.byte	0x7
 1609 0a5f 0902     		.2byte	0x209
 1610 0a61 3D040000 		.4byte	0x43d
 1611 0a65 00       		.byte	0
 1612              		.section	.debug_abbrev,"",%progbits
 1613              	.Ldebug_abbrev0:
 1614 0000 01       		.uleb128 0x1
 1615 0001 11       		.uleb128 0x11
 1616 0002 01       		.byte	0x1
 1617 0003 25       		.uleb128 0x25
 1618 0004 0E       		.uleb128 0xe
 1619 0005 13       		.uleb128 0x13
 1620 0006 0B       		.uleb128 0xb
 1621 0007 03       		.uleb128 0x3
 1622 0008 0E       		.uleb128 0xe
 1623 0009 55       		.uleb128 0x55
 1624 000a 17       		.uleb128 0x17
 1625 000b 11       		.uleb128 0x11
 1626 000c 01       		.uleb128 0x1
 1627 000d 10       		.uleb128 0x10
 1628 000e 17       		.uleb128 0x17
 1629 000f 00       		.byte	0
 1630 0010 00       		.byte	0
 1631 0011 02       		.uleb128 0x2
 1632 0012 24       		.uleb128 0x24
 1633 0013 00       		.byte	0
 1634 0014 0B       		.uleb128 0xb
 1635 0015 0B       		.uleb128 0xb
 1636 0016 3E       		.uleb128 0x3e
 1637 0017 0B       		.uleb128 0xb
 1638 0018 03       		.uleb128 0x3
 1639 0019 08       		.uleb128 0x8
 1640 001a 00       		.byte	0
 1641 001b 00       		.byte	0
 1642 001c 03       		.uleb128 0x3
 1643 001d 16       		.uleb128 0x16
 1644 001e 00       		.byte	0
 1645 001f 03       		.uleb128 0x3
 1646 0020 0E       		.uleb128 0xe
 1647 0021 3A       		.uleb128 0x3a
 1648 0022 0B       		.uleb128 0xb
 1649 0023 3B       		.uleb128 0x3b
 1650 0024 0B       		.uleb128 0xb
ARM GAS  /tmp/ccNyJpKF.s 			page 30


 1651 0025 49       		.uleb128 0x49
 1652 0026 13       		.uleb128 0x13
 1653 0027 00       		.byte	0
 1654 0028 00       		.byte	0
 1655 0029 04       		.uleb128 0x4
 1656 002a 24       		.uleb128 0x24
 1657 002b 00       		.byte	0
 1658 002c 0B       		.uleb128 0xb
 1659 002d 0B       		.uleb128 0xb
 1660 002e 3E       		.uleb128 0x3e
 1661 002f 0B       		.uleb128 0xb
 1662 0030 03       		.uleb128 0x3
 1663 0031 0E       		.uleb128 0xe
 1664 0032 00       		.byte	0
 1665 0033 00       		.byte	0
 1666 0034 05       		.uleb128 0x5
 1667 0035 35       		.uleb128 0x35
 1668 0036 00       		.byte	0
 1669 0037 49       		.uleb128 0x49
 1670 0038 13       		.uleb128 0x13
 1671 0039 00       		.byte	0
 1672 003a 00       		.byte	0
 1673 003b 06       		.uleb128 0x6
 1674 003c 13       		.uleb128 0x13
 1675 003d 01       		.byte	0x1
 1676 003e 03       		.uleb128 0x3
 1677 003f 0E       		.uleb128 0xe
 1678 0040 0B       		.uleb128 0xb
 1679 0041 0B       		.uleb128 0xb
 1680 0042 3A       		.uleb128 0x3a
 1681 0043 0B       		.uleb128 0xb
 1682 0044 3B       		.uleb128 0x3b
 1683 0045 0B       		.uleb128 0xb
 1684 0046 01       		.uleb128 0x1
 1685 0047 13       		.uleb128 0x13
 1686 0048 00       		.byte	0
 1687 0049 00       		.byte	0
 1688 004a 07       		.uleb128 0x7
 1689 004b 0D       		.uleb128 0xd
 1690 004c 00       		.byte	0
 1691 004d 03       		.uleb128 0x3
 1692 004e 0E       		.uleb128 0xe
 1693 004f 3A       		.uleb128 0x3a
 1694 0050 0B       		.uleb128 0xb
 1695 0051 3B       		.uleb128 0x3b
 1696 0052 0B       		.uleb128 0xb
 1697 0053 49       		.uleb128 0x49
 1698 0054 13       		.uleb128 0x13
 1699 0055 38       		.uleb128 0x38
 1700 0056 0B       		.uleb128 0xb
 1701 0057 00       		.byte	0
 1702 0058 00       		.byte	0
 1703 0059 08       		.uleb128 0x8
 1704 005a 0D       		.uleb128 0xd
 1705 005b 00       		.byte	0
 1706 005c 03       		.uleb128 0x3
 1707 005d 08       		.uleb128 0x8
ARM GAS  /tmp/ccNyJpKF.s 			page 31


 1708 005e 3A       		.uleb128 0x3a
 1709 005f 0B       		.uleb128 0xb
 1710 0060 3B       		.uleb128 0x3b
 1711 0061 05       		.uleb128 0x5
 1712 0062 49       		.uleb128 0x49
 1713 0063 13       		.uleb128 0x13
 1714 0064 38       		.uleb128 0x38
 1715 0065 0B       		.uleb128 0xb
 1716 0066 00       		.byte	0
 1717 0067 00       		.byte	0
 1718 0068 09       		.uleb128 0x9
 1719 0069 0D       		.uleb128 0xd
 1720 006a 00       		.byte	0
 1721 006b 03       		.uleb128 0x3
 1722 006c 0E       		.uleb128 0xe
 1723 006d 3A       		.uleb128 0x3a
 1724 006e 0B       		.uleb128 0xb
 1725 006f 3B       		.uleb128 0x3b
 1726 0070 05       		.uleb128 0x5
 1727 0071 49       		.uleb128 0x49
 1728 0072 13       		.uleb128 0x13
 1729 0073 38       		.uleb128 0x38
 1730 0074 0B       		.uleb128 0xb
 1731 0075 00       		.byte	0
 1732 0076 00       		.byte	0
 1733 0077 0A       		.uleb128 0xa
 1734 0078 0F       		.uleb128 0xf
 1735 0079 00       		.byte	0
 1736 007a 0B       		.uleb128 0xb
 1737 007b 0B       		.uleb128 0xb
 1738 007c 49       		.uleb128 0x49
 1739 007d 13       		.uleb128 0x13
 1740 007e 00       		.byte	0
 1741 007f 00       		.byte	0
 1742 0080 0B       		.uleb128 0xb
 1743 0081 13       		.uleb128 0x13
 1744 0082 01       		.byte	0x1
 1745 0083 03       		.uleb128 0x3
 1746 0084 0E       		.uleb128 0xe
 1747 0085 0B       		.uleb128 0xb
 1748 0086 0B       		.uleb128 0xb
 1749 0087 3A       		.uleb128 0x3a
 1750 0088 0B       		.uleb128 0xb
 1751 0089 3B       		.uleb128 0x3b
 1752 008a 05       		.uleb128 0x5
 1753 008b 01       		.uleb128 0x1
 1754 008c 13       		.uleb128 0x13
 1755 008d 00       		.byte	0
 1756 008e 00       		.byte	0
 1757 008f 0C       		.uleb128 0xc
 1758 0090 15       		.uleb128 0x15
 1759 0091 01       		.byte	0x1
 1760 0092 27       		.uleb128 0x27
 1761 0093 19       		.uleb128 0x19
 1762 0094 01       		.uleb128 0x1
 1763 0095 13       		.uleb128 0x13
 1764 0096 00       		.byte	0
ARM GAS  /tmp/ccNyJpKF.s 			page 32


 1765 0097 00       		.byte	0
 1766 0098 0D       		.uleb128 0xd
 1767 0099 05       		.uleb128 0x5
 1768 009a 00       		.byte	0
 1769 009b 49       		.uleb128 0x49
 1770 009c 13       		.uleb128 0x13
 1771 009d 00       		.byte	0
 1772 009e 00       		.byte	0
 1773 009f 0E       		.uleb128 0xe
 1774 00a0 0F       		.uleb128 0xf
 1775 00a1 00       		.byte	0
 1776 00a2 0B       		.uleb128 0xb
 1777 00a3 0B       		.uleb128 0xb
 1778 00a4 00       		.byte	0
 1779 00a5 00       		.byte	0
 1780 00a6 0F       		.uleb128 0xf
 1781 00a7 13       		.uleb128 0x13
 1782 00a8 01       		.byte	0x1
 1783 00a9 03       		.uleb128 0x3
 1784 00aa 0E       		.uleb128 0xe
 1785 00ab 0B       		.uleb128 0xb
 1786 00ac 05       		.uleb128 0x5
 1787 00ad 3A       		.uleb128 0x3a
 1788 00ae 0B       		.uleb128 0xb
 1789 00af 3B       		.uleb128 0x3b
 1790 00b0 05       		.uleb128 0x5
 1791 00b1 01       		.uleb128 0x1
 1792 00b2 13       		.uleb128 0x13
 1793 00b3 00       		.byte	0
 1794 00b4 00       		.byte	0
 1795 00b5 10       		.uleb128 0x10
 1796 00b6 0D       		.uleb128 0xd
 1797 00b7 00       		.byte	0
 1798 00b8 03       		.uleb128 0x3
 1799 00b9 0E       		.uleb128 0xe
 1800 00ba 3A       		.uleb128 0x3a
 1801 00bb 0B       		.uleb128 0xb
 1802 00bc 3B       		.uleb128 0x3b
 1803 00bd 05       		.uleb128 0x5
 1804 00be 49       		.uleb128 0x49
 1805 00bf 13       		.uleb128 0x13
 1806 00c0 38       		.uleb128 0x38
 1807 00c1 05       		.uleb128 0x5
 1808 00c2 00       		.byte	0
 1809 00c3 00       		.byte	0
 1810 00c4 11       		.uleb128 0x11
 1811 00c5 0D       		.uleb128 0xd
 1812 00c6 00       		.byte	0
 1813 00c7 03       		.uleb128 0x3
 1814 00c8 08       		.uleb128 0x8
 1815 00c9 3A       		.uleb128 0x3a
 1816 00ca 0B       		.uleb128 0xb
 1817 00cb 3B       		.uleb128 0x3b
 1818 00cc 05       		.uleb128 0x5
 1819 00cd 49       		.uleb128 0x49
 1820 00ce 13       		.uleb128 0x13
 1821 00cf 38       		.uleb128 0x38
ARM GAS  /tmp/ccNyJpKF.s 			page 33


 1822 00d0 05       		.uleb128 0x5
 1823 00d1 00       		.byte	0
 1824 00d2 00       		.byte	0
 1825 00d3 12       		.uleb128 0x12
 1826 00d4 01       		.uleb128 0x1
 1827 00d5 01       		.byte	0x1
 1828 00d6 49       		.uleb128 0x49
 1829 00d7 13       		.uleb128 0x13
 1830 00d8 01       		.uleb128 0x1
 1831 00d9 13       		.uleb128 0x13
 1832 00da 00       		.byte	0
 1833 00db 00       		.byte	0
 1834 00dc 13       		.uleb128 0x13
 1835 00dd 21       		.uleb128 0x21
 1836 00de 00       		.byte	0
 1837 00df 49       		.uleb128 0x49
 1838 00e0 13       		.uleb128 0x13
 1839 00e1 2F       		.uleb128 0x2f
 1840 00e2 0B       		.uleb128 0xb
 1841 00e3 00       		.byte	0
 1842 00e4 00       		.byte	0
 1843 00e5 14       		.uleb128 0x14
 1844 00e6 13       		.uleb128 0x13
 1845 00e7 01       		.byte	0x1
 1846 00e8 0B       		.uleb128 0xb
 1847 00e9 0B       		.uleb128 0xb
 1848 00ea 3A       		.uleb128 0x3a
 1849 00eb 0B       		.uleb128 0xb
 1850 00ec 3B       		.uleb128 0x3b
 1851 00ed 05       		.uleb128 0x5
 1852 00ee 01       		.uleb128 0x1
 1853 00ef 13       		.uleb128 0x13
 1854 00f0 00       		.byte	0
 1855 00f1 00       		.byte	0
 1856 00f2 15       		.uleb128 0x15
 1857 00f3 16       		.uleb128 0x16
 1858 00f4 00       		.byte	0
 1859 00f5 03       		.uleb128 0x3
 1860 00f6 0E       		.uleb128 0xe
 1861 00f7 3A       		.uleb128 0x3a
 1862 00f8 0B       		.uleb128 0xb
 1863 00f9 3B       		.uleb128 0x3b
 1864 00fa 05       		.uleb128 0x5
 1865 00fb 49       		.uleb128 0x49
 1866 00fc 13       		.uleb128 0x13
 1867 00fd 00       		.byte	0
 1868 00fe 00       		.byte	0
 1869 00ff 16       		.uleb128 0x16
 1870 0100 0D       		.uleb128 0xd
 1871 0101 00       		.byte	0
 1872 0102 03       		.uleb128 0x3
 1873 0103 08       		.uleb128 0x8
 1874 0104 3A       		.uleb128 0x3a
 1875 0105 0B       		.uleb128 0xb
 1876 0106 3B       		.uleb128 0x3b
 1877 0107 0B       		.uleb128 0xb
 1878 0108 49       		.uleb128 0x49
ARM GAS  /tmp/ccNyJpKF.s 			page 34


 1879 0109 13       		.uleb128 0x13
 1880 010a 38       		.uleb128 0x38
 1881 010b 0B       		.uleb128 0xb
 1882 010c 00       		.byte	0
 1883 010d 00       		.byte	0
 1884 010e 17       		.uleb128 0x17
 1885 010f 13       		.uleb128 0x13
 1886 0110 01       		.byte	0x1
 1887 0111 0B       		.uleb128 0xb
 1888 0112 0B       		.uleb128 0xb
 1889 0113 3A       		.uleb128 0x3a
 1890 0114 0B       		.uleb128 0xb
 1891 0115 3B       		.uleb128 0x3b
 1892 0116 0B       		.uleb128 0xb
 1893 0117 01       		.uleb128 0x1
 1894 0118 13       		.uleb128 0x13
 1895 0119 00       		.byte	0
 1896 011a 00       		.byte	0
 1897 011b 18       		.uleb128 0x18
 1898 011c 13       		.uleb128 0x13
 1899 011d 01       		.byte	0x1
 1900 011e 0B       		.uleb128 0xb
 1901 011f 05       		.uleb128 0x5
 1902 0120 3A       		.uleb128 0x3a
 1903 0121 0B       		.uleb128 0xb
 1904 0122 3B       		.uleb128 0x3b
 1905 0123 0B       		.uleb128 0xb
 1906 0124 01       		.uleb128 0x1
 1907 0125 13       		.uleb128 0x13
 1908 0126 00       		.byte	0
 1909 0127 00       		.byte	0
 1910 0128 19       		.uleb128 0x19
 1911 0129 17       		.uleb128 0x17
 1912 012a 01       		.byte	0x1
 1913 012b 0B       		.uleb128 0xb
 1914 012c 0B       		.uleb128 0xb
 1915 012d 3A       		.uleb128 0x3a
 1916 012e 0B       		.uleb128 0xb
 1917 012f 3B       		.uleb128 0x3b
 1918 0130 0B       		.uleb128 0xb
 1919 0131 01       		.uleb128 0x1
 1920 0132 13       		.uleb128 0x13
 1921 0133 00       		.byte	0
 1922 0134 00       		.byte	0
 1923 0135 1A       		.uleb128 0x1a
 1924 0136 0D       		.uleb128 0xd
 1925 0137 00       		.byte	0
 1926 0138 03       		.uleb128 0x3
 1927 0139 0E       		.uleb128 0xe
 1928 013a 3A       		.uleb128 0x3a
 1929 013b 0B       		.uleb128 0xb
 1930 013c 3B       		.uleb128 0x3b
 1931 013d 05       		.uleb128 0x5
 1932 013e 49       		.uleb128 0x49
 1933 013f 13       		.uleb128 0x13
 1934 0140 00       		.byte	0
 1935 0141 00       		.byte	0
ARM GAS  /tmp/ccNyJpKF.s 			page 35


 1936 0142 1B       		.uleb128 0x1b
 1937 0143 26       		.uleb128 0x26
 1938 0144 00       		.byte	0
 1939 0145 49       		.uleb128 0x49
 1940 0146 13       		.uleb128 0x13
 1941 0147 00       		.byte	0
 1942 0148 00       		.byte	0
 1943 0149 1C       		.uleb128 0x1c
 1944 014a 2E       		.uleb128 0x2e
 1945 014b 00       		.byte	0
 1946 014c 03       		.uleb128 0x3
 1947 014d 0E       		.uleb128 0xe
 1948 014e 3A       		.uleb128 0x3a
 1949 014f 0B       		.uleb128 0xb
 1950 0150 3B       		.uleb128 0x3b
 1951 0151 0B       		.uleb128 0xb
 1952 0152 27       		.uleb128 0x27
 1953 0153 19       		.uleb128 0x19
 1954 0154 11       		.uleb128 0x11
 1955 0155 01       		.uleb128 0x1
 1956 0156 12       		.uleb128 0x12
 1957 0157 06       		.uleb128 0x6
 1958 0158 40       		.uleb128 0x40
 1959 0159 18       		.uleb128 0x18
 1960 015a 9742     		.uleb128 0x2117
 1961 015c 19       		.uleb128 0x19
 1962 015d 00       		.byte	0
 1963 015e 00       		.byte	0
 1964 015f 1D       		.uleb128 0x1d
 1965 0160 2E       		.uleb128 0x2e
 1966 0161 00       		.byte	0
 1967 0162 3F       		.uleb128 0x3f
 1968 0163 19       		.uleb128 0x19
 1969 0164 03       		.uleb128 0x3
 1970 0165 0E       		.uleb128 0xe
 1971 0166 3A       		.uleb128 0x3a
 1972 0167 0B       		.uleb128 0xb
 1973 0168 3B       		.uleb128 0x3b
 1974 0169 0B       		.uleb128 0xb
 1975 016a 27       		.uleb128 0x27
 1976 016b 19       		.uleb128 0x19
 1977 016c 11       		.uleb128 0x11
 1978 016d 01       		.uleb128 0x1
 1979 016e 12       		.uleb128 0x12
 1980 016f 06       		.uleb128 0x6
 1981 0170 40       		.uleb128 0x40
 1982 0171 18       		.uleb128 0x18
 1983 0172 9642     		.uleb128 0x2116
 1984 0174 19       		.uleb128 0x19
 1985 0175 00       		.byte	0
 1986 0176 00       		.byte	0
 1987 0177 1E       		.uleb128 0x1e
 1988 0178 2E       		.uleb128 0x2e
 1989 0179 00       		.byte	0
 1990 017a 3F       		.uleb128 0x3f
 1991 017b 19       		.uleb128 0x19
 1992 017c 03       		.uleb128 0x3
ARM GAS  /tmp/ccNyJpKF.s 			page 36


 1993 017d 0E       		.uleb128 0xe
 1994 017e 3A       		.uleb128 0x3a
 1995 017f 0B       		.uleb128 0xb
 1996 0180 3B       		.uleb128 0x3b
 1997 0181 0B       		.uleb128 0xb
 1998 0182 27       		.uleb128 0x27
 1999 0183 19       		.uleb128 0x19
 2000 0184 11       		.uleb128 0x11
 2001 0185 01       		.uleb128 0x1
 2002 0186 12       		.uleb128 0x12
 2003 0187 06       		.uleb128 0x6
 2004 0188 40       		.uleb128 0x40
 2005 0189 18       		.uleb128 0x18
 2006 018a 9742     		.uleb128 0x2117
 2007 018c 19       		.uleb128 0x19
 2008 018d 00       		.byte	0
 2009 018e 00       		.byte	0
 2010 018f 1F       		.uleb128 0x1f
 2011 0190 34       		.uleb128 0x34
 2012 0191 00       		.byte	0
 2013 0192 03       		.uleb128 0x3
 2014 0193 0E       		.uleb128 0xe
 2015 0194 3A       		.uleb128 0x3a
 2016 0195 0B       		.uleb128 0xb
 2017 0196 3B       		.uleb128 0x3b
 2018 0197 05       		.uleb128 0x5
 2019 0198 49       		.uleb128 0x49
 2020 0199 13       		.uleb128 0x13
 2021 019a 3F       		.uleb128 0x3f
 2022 019b 19       		.uleb128 0x19
 2023 019c 3C       		.uleb128 0x3c
 2024 019d 19       		.uleb128 0x19
 2025 019e 00       		.byte	0
 2026 019f 00       		.byte	0
 2027 01a0 20       		.uleb128 0x20
 2028 01a1 34       		.uleb128 0x34
 2029 01a2 00       		.byte	0
 2030 01a3 03       		.uleb128 0x3
 2031 01a4 0E       		.uleb128 0xe
 2032 01a5 3A       		.uleb128 0x3a
 2033 01a6 0B       		.uleb128 0xb
 2034 01a7 3B       		.uleb128 0x3b
 2035 01a8 0B       		.uleb128 0xb
 2036 01a9 49       		.uleb128 0x49
 2037 01aa 13       		.uleb128 0x13
 2038 01ab 3F       		.uleb128 0x3f
 2039 01ac 19       		.uleb128 0x19
 2040 01ad 02       		.uleb128 0x2
 2041 01ae 18       		.uleb128 0x18
 2042 01af 00       		.byte	0
 2043 01b0 00       		.byte	0
 2044 01b1 21       		.uleb128 0x21
 2045 01b2 34       		.uleb128 0x34
 2046 01b3 00       		.byte	0
 2047 01b4 03       		.uleb128 0x3
 2048 01b5 08       		.uleb128 0x8
 2049 01b6 3A       		.uleb128 0x3a
ARM GAS  /tmp/ccNyJpKF.s 			page 37


 2050 01b7 0B       		.uleb128 0xb
 2051 01b8 3B       		.uleb128 0x3b
 2052 01b9 05       		.uleb128 0x5
 2053 01ba 49       		.uleb128 0x49
 2054 01bb 13       		.uleb128 0x13
 2055 01bc 3F       		.uleb128 0x3f
 2056 01bd 19       		.uleb128 0x19
 2057 01be 3C       		.uleb128 0x3c
 2058 01bf 19       		.uleb128 0x19
 2059 01c0 00       		.byte	0
 2060 01c1 00       		.byte	0
 2061 01c2 00       		.byte	0
 2062              		.section	.debug_aranges,"",%progbits
 2063 0000 2C000000 		.4byte	0x2c
 2064 0004 0200     		.2byte	0x2
 2065 0006 00000000 		.4byte	.Ldebug_info0
 2066 000a 04       		.byte	0x4
 2067 000b 00       		.byte	0
 2068 000c 0000     		.2byte	0
 2069 000e 0000     		.2byte	0
 2070 0010 00000000 		.4byte	.LFB271
 2071 0014 40000000 		.4byte	.LFE271-.LFB271
 2072 0018 00000000 		.4byte	.LFB272
 2073 001c 64000000 		.4byte	.LFE272-.LFB272
 2074 0020 00000000 		.4byte	.LFB273
 2075 0024 18010000 		.4byte	.LFE273-.LFB273
 2076 0028 00000000 		.4byte	0
 2077 002c 00000000 		.4byte	0
 2078              		.section	.debug_ranges,"",%progbits
 2079              	.Ldebug_ranges0:
 2080 0000 00000000 		.4byte	.LFB271
 2081 0004 40000000 		.4byte	.LFE271
 2082 0008 00000000 		.4byte	.LFB272
 2083 000c 64000000 		.4byte	.LFE272
 2084 0010 00000000 		.4byte	.LFB273
 2085 0014 18010000 		.4byte	.LFE273
 2086 0018 00000000 		.4byte	0
 2087 001c 00000000 		.4byte	0
 2088              		.section	.debug_line,"",%progbits
 2089              	.Ldebug_line0:
 2090 0000 C6020000 		.section	.debug_str,"MS",%progbits,1
 2090      02003102 
 2090      00000201 
 2090      FB0E0D00 
 2090      01010101 
 2091              	.LASF132:
 2092 0000 74625F70 		.ascii	"tb_ptr\000"
 2092      747200
 2093              	.LASF55:
 2094 0007 72656164 		.ascii	"ready_list_t\000"
 2094      795F6C69 
 2094      73745F74 
 2094      00
 2095              	.LASF126:
 2096 0014 73655F74 		.ascii	"se_time\000"
 2096      696D6500 
 2097              	.LASF2:
ARM GAS  /tmp/ccNyJpKF.s 			page 38


 2098 001c 73697A65 		.ascii	"size_t\000"
 2098      5F7400
 2099              	.LASF147:
 2100 0023 7264796D 		.ascii	"rdymsg\000"
 2100      736700
 2101              	.LASF17:
 2102 002a 75696E74 		.ascii	"uint64_t\000"
 2102      36345F74 
 2102      00
 2103              	.LASF85:
 2104 0033 6B65726E 		.ascii	"kernel_stats\000"
 2104      656C5F73 
 2104      74617473 
 2104      00
 2105              	.LASF3:
 2106 0040 5F5F7569 		.ascii	"__uint8_t\000"
 2106      6E74385F 
 2106      7400
 2107              	.LASF125:
 2108 004a 706F7274 		.ascii	"port_intctx\000"
 2108      5F696E74 
 2108      63747800 
 2109              	.LASF54:
 2110 0056 63685F74 		.ascii	"ch_threads_queue\000"
 2110      68726561 
 2110      64735F71 
 2110      75657565 
 2110      00
 2111              	.LASF74:
 2112 0067 73797374 		.ascii	"system_debug_t\000"
 2112      656D5F64 
 2112      65627567 
 2112      5F7400
 2113              	.LASF90:
 2114 0076 4F505443 		.ascii	"OPTCR\000"
 2114      5200
 2115              	.LASF138:
 2116 007c 776F7273 		.ascii	"worst\000"
 2116      7400
 2117              	.LASF91:
 2118 0082 4F505443 		.ascii	"OPTCR1\000"
 2118      523100
 2119              	.LASF141:
 2120 0089 74696D65 		.ascii	"time_measurement_t\000"
 2120      5F6D6561 
 2120      73757265 
 2120      6D656E74 
 2120      5F7400
 2121              	.LASF13:
 2122 009c 6C6F6E67 		.ascii	"long long unsigned int\000"
 2122      206C6F6E 
 2122      6720756E 
 2122      7369676E 
 2122      65642069 
 2123              	.LASF134:
 2124 00b3 63685F74 		.ascii	"ch_trace_buffer_t\000"
 2124      72616365 
ARM GAS  /tmp/ccNyJpKF.s 			page 39


 2124      5F627566 
 2124      6665725F 
 2124      7400
 2125              	.LASF129:
 2126 00c5 73655F73 		.ascii	"se_state\000"
 2126      74617465 
 2126      00
 2127              	.LASF155:
 2128 00ce 735F7175 		.ascii	"s_queue\000"
 2128      65756500 
 2129              	.LASF148:
 2130 00d6 65786974 		.ascii	"exitcode\000"
 2130      636F6465 
 2130      00
 2131              	.LASF84:
 2132 00df 6D61696E 		.ascii	"mainthread\000"
 2132      74687265 
 2132      616400
 2133              	.LASF71:
 2134 00ea 76697274 		.ascii	"virtual_timers_list_t\000"
 2134      75616C5F 
 2134      74696D65 
 2134      72735F6C 
 2134      6973745F 
 2135              	.LASF166:
 2136 0100 49544D5F 		.ascii	"ITM_RxBuffer\000"
 2136      52784275 
 2136      66666572 
 2136      00
 2137              	.LASF19:
 2138 010d 72747469 		.ascii	"rttime_t\000"
 2138      6D655F74 
 2138      00
 2139              	.LASF110:
 2140 0116 41484231 		.ascii	"AHB1LPENR\000"
 2140      4C50454E 
 2140      5200
 2141              	.LASF32:
 2142 0120 705F7072 		.ascii	"p_prio\000"
 2142      696F00
 2143              	.LASF11:
 2144 0127 6C6F6E67 		.ascii	"long long int\000"
 2144      206C6F6E 
 2144      6720696E 
 2144      7400
 2145              	.LASF1:
 2146 0135 7369676E 		.ascii	"signed char\000"
 2146      65642063 
 2146      68617200 
 2147              	.LASF96:
 2148 0141 41484231 		.ascii	"AHB1RSTR\000"
 2148      52535452 
 2148      00
 2149              	.LASF92:
 2150 014a 464C4153 		.ascii	"FLASH_TypeDef\000"
 2150      485F5479 
 2150      70654465 
ARM GAS  /tmp/ccNyJpKF.s 			page 40


 2150      6600
 2151              	.LASF47:
 2152 0158 705F6D70 		.ascii	"p_mpool\000"
 2152      6F6F6C00 
 2153              	.LASF158:
 2154 0160 6D5F7175 		.ascii	"m_queue\000"
 2154      65756500 
 2155              	.LASF83:
 2156 0168 76746C69 		.ascii	"vtlist\000"
 2156      737400
 2157              	.LASF93:
 2158 016f 5057525F 		.ascii	"PWR_TypeDef\000"
 2158      54797065 
 2158      44656600 
 2159              	.LASF150:
 2160 017b 77747472 		.ascii	"wttrp\000"
 2160      7000
 2161              	.LASF81:
 2162 0181 63685F73 		.ascii	"ch_system\000"
 2162      79737465 
 2162      6D00
 2163              	.LASF8:
 2164 018b 6C6F6E67 		.ascii	"long int\000"
 2164      20696E74 
 2164      00
 2165              	.LASF101:
 2166 0194 41504232 		.ascii	"APB2RSTR\000"
 2166      52535452 
 2166      00
 2167              	.LASF114:
 2168 019d 41504231 		.ascii	"APB1LPENR\000"
 2168      4C50454E 
 2168      5200
 2169              	.LASF21:
 2170 01a7 74737461 		.ascii	"tstate_t\000"
 2170      74655F74 
 2170      00
 2171              	.LASF127:
 2172 01b0 73655F74 		.ascii	"se_tp\000"
 2172      7000
 2173              	.LASF89:
 2174 01b6 4F50544B 		.ascii	"OPTKEYR\000"
 2174      45595200 
 2175              	.LASF168:
 2176 01be 474E5520 		.ascii	"GNU C 4.8.4 20141219 (release) -mcpu=cortex-m4 -mno"
 2176      4320342E 
 2176      382E3420 
 2176      32303134 
 2176      31323139 
 2177 01f1 2D746875 		.ascii	"-thumb-interwork -mthumb -ggdb -O0 -fomit-frame-poi"
 2177      6D622D69 
 2177      6E746572 
 2177      776F726B 
 2177      202D6D74 
 2178 0224 6E746572 		.ascii	"nter -falign-functions=16 -ffunction-sections -fdat"
 2178      202D6661 
 2178      6C69676E 
ARM GAS  /tmp/ccNyJpKF.s 			page 41


 2178      2D66756E 
 2178      6374696F 
 2179 0257 612D7365 		.ascii	"a-sections -fno-common\000"
 2179      6374696F 
 2179      6E73202D 
 2179      666E6F2D 
 2179      636F6D6D 
 2180              	.LASF34:
 2181 026e 705F6E65 		.ascii	"p_newer\000"
 2181      77657200 
 2182              	.LASF94:
 2183 0276 504C4C43 		.ascii	"PLLCFGR\000"
 2183      46475200 
 2184              	.LASF131:
 2185 027e 74625F73 		.ascii	"tb_size\000"
 2185      697A6500 
 2186              	.LASF60:
 2187 0286 725F6E65 		.ascii	"r_newer\000"
 2187      77657200 
 2188              	.LASF122:
 2189 028e 72656761 		.ascii	"regarm_t\000"
 2189      726D5F74 
 2189      00
 2190              	.LASF67:
 2191 0297 76745F70 		.ascii	"vt_prev\000"
 2191      72657600 
 2192              	.LASF169:
 2193 029f 2F686F6D 		.ascii	"/home/efe/ChibiOS/os/hal/ports/STM32/STM32F4xx/hal_"
 2193      652F6566 
 2193      652F4368 
 2193      6962694F 
 2193      532F6F73 
 2194 02d2 6C6C642E 		.ascii	"lld.c\000"
 2194      6300
 2195              	.LASF88:
 2196 02d8 4B455952 		.ascii	"KEYR\000"
 2196      00
 2197              	.LASF75:
 2198 02dd 63685F73 		.ascii	"ch_system_debug\000"
 2198      79737465 
 2198      6D5F6465 
 2198      62756700 
 2199              	.LASF165:
 2200 02ed 73746D33 		.ascii	"stm32_clock_init\000"
 2200      325F636C 
 2200      6F636B5F 
 2200      696E6974 
 2200      00
 2201              	.LASF162:
 2202 02fe 6D757465 		.ascii	"mutex_t\000"
 2202      785F7400 
 2203              	.LASF78:
 2204 0306 6C6F636B 		.ascii	"lock_cnt\000"
 2204      5F636E74 
 2204      00
 2205              	.LASF86:
 2206 030f 69646C65 		.ascii	"idle_thread_wa\000"
ARM GAS  /tmp/ccNyJpKF.s 			page 42


 2206      5F746872 
 2206      6561645F 
 2206      776100
 2207              	.LASF26:
 2208 031e 636E745F 		.ascii	"cnt_t\000"
 2208      7400
 2209              	.LASF37:
 2210 0324 705F7374 		.ascii	"p_stklimit\000"
 2210      6B6C696D 
 2210      697400
 2211              	.LASF0:
 2212 032f 756E7369 		.ascii	"unsigned int\000"
 2212      676E6564 
 2212      20696E74 
 2212      00
 2213              	.LASF66:
 2214 033c 76745F6E 		.ascii	"vt_next\000"
 2214      65787400 
 2215              	.LASF167:
 2216 0344 53797374 		.ascii	"SystemCoreClock\000"
 2216      656D436F 
 2216      7265436C 
 2216      6F636B00 
 2217              	.LASF151:
 2218 0354 77747365 		.ascii	"wtsemp\000"
 2218      6D7000
 2219              	.LASF42:
 2220 035b 705F6D73 		.ascii	"p_msgqueue\000"
 2220      67717565 
 2220      756500
 2221              	.LASF121:
 2222 0366 5243435F 		.ascii	"RCC_TypeDef\000"
 2222      54797065 
 2222      44656600 
 2223              	.LASF142:
 2224 0372 6E5F6972 		.ascii	"n_irq\000"
 2224      7100
 2225              	.LASF156:
 2226 0378 735F636E 		.ascii	"s_cnt\000"
 2226      7400
 2227              	.LASF6:
 2228 037e 73686F72 		.ascii	"short unsigned int\000"
 2228      7420756E 
 2228      7369676E 
 2228      65642069 
 2228      6E7400
 2229              	.LASF146:
 2230 0391 6B65726E 		.ascii	"kernel_stats_t\000"
 2230      656C5F73 
 2230      74617473 
 2230      5F7400
 2231              	.LASF51:
 2232 03a0 63685F74 		.ascii	"ch_thread\000"
 2232      68726561 
 2232      6400
 2233              	.LASF120:
 2234 03aa 504C4C49 		.ascii	"PLLI2SCFGR\000"
ARM GAS  /tmp/ccNyJpKF.s 			page 43


 2234      32534346 
 2234      475200
 2235              	.LASF24:
 2236 03b5 6D73675F 		.ascii	"msg_t\000"
 2236      7400
 2237              	.LASF98:
 2238 03bb 41484233 		.ascii	"AHB3RSTR\000"
 2238      52535452 
 2238      00
 2239              	.LASF27:
 2240 03c4 75636E74 		.ascii	"ucnt_t\000"
 2240      5F7400
 2241              	.LASF170:
 2242 03cb 68616C5F 		.ascii	"hal_lld_backup_domain_init\000"
 2242      6C6C645F 
 2242      6261636B 
 2242      75705F64 
 2242      6F6D6169 
 2243              	.LASF80:
 2244 03e6 63685F73 		.ascii	"ch_system_t\000"
 2244      79737465 
 2244      6D5F7400 
 2245              	.LASF133:
 2246 03f2 74625F62 		.ascii	"tb_buffer\000"
 2246      75666665 
 2246      7200
 2247              	.LASF115:
 2248 03fc 41504232 		.ascii	"APB2LPENR\000"
 2248      4C50454E 
 2248      5200
 2249              	.LASF145:
 2250 0406 6D5F6372 		.ascii	"m_crit_isr\000"
 2250      69745F69 
 2250      737200
 2251              	.LASF56:
 2252 0411 63685F72 		.ascii	"ch_ready_list\000"
 2252      65616479 
 2252      5F6C6973 
 2252      7400
 2253              	.LASF25:
 2254 041f 6576656E 		.ascii	"eventmask_t\000"
 2254      746D6173 
 2254      6B5F7400 
 2255              	.LASF7:
 2256 042b 5F5F696E 		.ascii	"__int32_t\000"
 2256      7433325F 
 2256      7400
 2257              	.LASF123:
 2258 0435 73746B61 		.ascii	"stkalign_t\000"
 2258      6C69676E 
 2258      5F7400
 2259              	.LASF50:
 2260 0440 74687265 		.ascii	"threads_list_t\000"
 2260      6164735F 
 2260      6C697374 
 2260      5F7400
 2261              	.LASF64:
ARM GAS  /tmp/ccNyJpKF.s 			page 44


 2262 044f 76697274 		.ascii	"virtual_timer_t\000"
 2262      75616C5F 
 2262      74696D65 
 2262      725F7400 
 2263              	.LASF41:
 2264 045f 705F7761 		.ascii	"p_waiting\000"
 2264      6974696E 
 2264      6700
 2265              	.LASF87:
 2266 0469 73697A65 		.ascii	"sizetype\000"
 2266      74797065 
 2266      00
 2267              	.LASF49:
 2268 0472 74687265 		.ascii	"thread_reference_t\000"
 2268      61645F72 
 2268      65666572 
 2268      656E6365 
 2268      5F7400
 2269              	.LASF72:
 2270 0485 63685F76 		.ascii	"ch_virtual_timers_list\000"
 2270      69727475 
 2270      616C5F74 
 2270      696D6572 
 2270      735F6C69 
 2271              	.LASF130:
 2272 049c 63685F73 		.ascii	"ch_swc_event_t\000"
 2272      77635F65 
 2272      76656E74 
 2272      5F7400
 2273              	.LASF105:
 2274 04ab 41484233 		.ascii	"AHB3ENR\000"
 2274      454E5200 
 2275              	.LASF73:
 2276 04b3 76745F6C 		.ascii	"vt_lasttime\000"
 2276      61737474 
 2276      696D6500 
 2277              	.LASF35:
 2278 04bf 705F6F6C 		.ascii	"p_older\000"
 2278      64657200 
 2279              	.LASF59:
 2280 04c7 725F6374 		.ascii	"r_ctx\000"
 2280      7800
 2281              	.LASF111:
 2282 04cd 41484232 		.ascii	"AHB2LPENR\000"
 2282      4C50454E 
 2282      5200
 2283              	.LASF136:
 2284 04d7 746D5F63 		.ascii	"tm_calibration_t\000"
 2284      616C6962 
 2284      72617469 
 2284      6F6E5F74 
 2284      00
 2285              	.LASF62:
 2286 04e8 725F6375 		.ascii	"r_current\000"
 2286      7272656E 
 2286      7400
 2287              	.LASF100:
ARM GAS  /tmp/ccNyJpKF.s 			page 45


 2288 04f2 41504231 		.ascii	"APB1RSTR\000"
 2288      52535452 
 2288      00
 2289              	.LASF12:
 2290 04fb 5F5F7569 		.ascii	"__uint64_t\000"
 2290      6E743634 
 2290      5F7400
 2291              	.LASF140:
 2292 0506 63756D75 		.ascii	"cumulative\000"
 2292      6C617469 
 2292      766500
 2293              	.LASF22:
 2294 0511 74726566 		.ascii	"trefs_t\000"
 2294      735F7400 
 2295              	.LASF99:
 2296 0519 52455345 		.ascii	"RESERVED0\000"
 2296      52564544 
 2296      3000
 2297              	.LASF102:
 2298 0523 52455345 		.ascii	"RESERVED1\000"
 2298      52564544 
 2298      3100
 2299              	.LASF106:
 2300 052d 52455345 		.ascii	"RESERVED2\000"
 2300      52564544 
 2300      3200
 2301              	.LASF109:
 2302 0537 52455345 		.ascii	"RESERVED3\000"
 2302      52564544 
 2302      3300
 2303              	.LASF113:
 2304 0541 52455345 		.ascii	"RESERVED4\000"
 2304      52564544 
 2304      3400
 2305              	.LASF31:
 2306 054b 705F7072 		.ascii	"p_prev\000"
 2306      657600
 2307              	.LASF118:
 2308 0552 52455345 		.ascii	"RESERVED6\000"
 2308      52564544 
 2308      3600
 2309              	.LASF23:
 2310 055c 74707269 		.ascii	"tprio_t\000"
 2310      6F5F7400 
 2311              	.LASF143:
 2312 0564 6E5F6374 		.ascii	"n_ctxswc\000"
 2312      78737763 
 2312      00
 2313              	.LASF163:
 2314 056d 5F426F6F 		.ascii	"_Bool\000"
 2314      6C00
 2315              	.LASF15:
 2316 0573 696E7433 		.ascii	"int32_t\000"
 2316      325F7400 
 2317              	.LASF4:
 2318 057b 756E7369 		.ascii	"unsigned char\000"
 2318      676E6564 
ARM GAS  /tmp/ccNyJpKF.s 			page 46


 2318      20636861 
 2318      7200
 2319              	.LASF45:
 2320 0589 705F6D74 		.ascii	"p_mtxlist\000"
 2320      786C6973 
 2320      7400
 2321              	.LASF5:
 2322 0593 73686F72 		.ascii	"short int\000"
 2322      7420696E 
 2322      7400
 2323              	.LASF38:
 2324 059d 705F7374 		.ascii	"p_state\000"
 2324      61746500 
 2325              	.LASF112:
 2326 05a5 41484233 		.ascii	"AHB3LPENR\000"
 2326      4C50454E 
 2326      5200
 2327              	.LASF58:
 2328 05af 725F7072 		.ascii	"r_prio\000"
 2328      696F00
 2329              	.LASF153:
 2330 05b6 65776D61 		.ascii	"ewmask\000"
 2330      736B00
 2331              	.LASF30:
 2332 05bd 705F6E65 		.ascii	"p_next\000"
 2332      787400
 2333              	.LASF39:
 2334 05c4 705F666C 		.ascii	"p_flags\000"
 2334      61677300 
 2335              	.LASF48:
 2336 05cc 705F7374 		.ascii	"p_stats\000"
 2336      61747300 
 2337              	.LASF108:
 2338 05d4 41504232 		.ascii	"APB2ENR\000"
 2338      454E5200 
 2339              	.LASF65:
 2340 05dc 63685F76 		.ascii	"ch_virtual_timer\000"
 2340      69727475 
 2340      616C5F74 
 2340      696D6572 
 2340      00
 2341              	.LASF154:
 2342 05ed 63685F73 		.ascii	"ch_semaphore\000"
 2342      656D6170 
 2342      686F7265 
 2342      00
 2343              	.LASF44:
 2344 05fa 705F6570 		.ascii	"p_epending\000"
 2344      656E6469 
 2344      6E6700
 2345              	.LASF116:
 2346 0605 52455345 		.ascii	"RESERVED5\000"
 2346      52564544 
 2346      3500
 2347              	.LASF16:
 2348 060f 75696E74 		.ascii	"uint32_t\000"
 2348      33325F74 
ARM GAS  /tmp/ccNyJpKF.s 			page 47


 2348      00
 2349              	.LASF152:
 2350 0618 77746D74 		.ascii	"wtmtxp\000"
 2350      787000
 2351              	.LASF57:
 2352 061f 725F7175 		.ascii	"r_queue\000"
 2352      65756500 
 2353              	.LASF68:
 2354 0627 76745F64 		.ascii	"vt_delta\000"
 2354      656C7461 
 2354      00
 2355              	.LASF52:
 2356 0630 63685F74 		.ascii	"ch_threads_list\000"
 2356      68726561 
 2356      64735F6C 
 2356      69737400 
 2357              	.LASF10:
 2358 0640 6C6F6E67 		.ascii	"long unsigned int\000"
 2358      20756E73 
 2358      69676E65 
 2358      6420696E 
 2358      7400
 2359              	.LASF161:
 2360 0652 63686172 		.ascii	"char\000"
 2360      00
 2361              	.LASF97:
 2362 0657 41484232 		.ascii	"AHB2RSTR\000"
 2362      52535452 
 2362      00
 2363              	.LASF29:
 2364 0660 74687265 		.ascii	"thread_t\000"
 2364      61645F74 
 2364      00
 2365              	.LASF137:
 2366 0669 62657374 		.ascii	"best\000"
 2366      00
 2367              	.LASF160:
 2368 066e 6D5F6E65 		.ascii	"m_next\000"
 2368      787400
 2369              	.LASF28:
 2370 0675 73797374 		.ascii	"systime_t\000"
 2370      696D655F 
 2370      7400
 2371              	.LASF46:
 2372 067f 705F7265 		.ascii	"p_realprio\000"
 2372      616C7072 
 2372      696F00
 2373              	.LASF63:
 2374 068a 76746675 		.ascii	"vtfunc_t\000"
 2374      6E635F74 
 2374      00
 2375              	.LASF9:
 2376 0693 5F5F7569 		.ascii	"__uint32_t\000"
 2376      6E743332 
 2376      5F7400
 2377              	.LASF139:
 2378 069e 6C617374 		.ascii	"last\000"
ARM GAS  /tmp/ccNyJpKF.s 			page 48


 2378      00
 2379              	.LASF76:
 2380 06a3 70616E69 		.ascii	"panic_msg\000"
 2380      635F6D73 
 2380      6700
 2381              	.LASF135:
 2382 06ad 6F666673 		.ascii	"offset\000"
 2382      657400
 2383              	.LASF107:
 2384 06b4 41504231 		.ascii	"APB1ENR\000"
 2384      454E5200 
 2385              	.LASF104:
 2386 06bc 41484232 		.ascii	"AHB2ENR\000"
 2386      454E5200 
 2387              	.LASF124:
 2388 06c4 636F6E74 		.ascii	"context\000"
 2388      65787400 
 2389              	.LASF61:
 2390 06cc 725F6F6C 		.ascii	"r_older\000"
 2390      64657200 
 2391              	.LASF164:
 2392 06d4 68616C5F 		.ascii	"hal_lld_init\000"
 2392      6C6C645F 
 2392      696E6974 
 2392      00
 2393              	.LASF18:
 2394 06e1 7274636E 		.ascii	"rtcnt_t\000"
 2394      745F7400 
 2395              	.LASF70:
 2396 06e9 76745F70 		.ascii	"vt_par\000"
 2396      617200
 2397              	.LASF119:
 2398 06f0 53534347 		.ascii	"SSCGR\000"
 2398      5200
 2399              	.LASF53:
 2400 06f6 74687265 		.ascii	"threads_queue_t\000"
 2400      6164735F 
 2400      71756575 
 2400      655F7400 
 2401              	.LASF157:
 2402 0706 63685F6D 		.ascii	"ch_mutex\000"
 2402      75746578 
 2402      00
 2403              	.LASF40:
 2404 070f 705F7265 		.ascii	"p_refs\000"
 2404      667300
 2405              	.LASF77:
 2406 0716 6973725F 		.ascii	"isr_cnt\000"
 2406      636E7400 
 2407              	.LASF117:
 2408 071e 42444352 		.ascii	"BDCR\000"
 2408      00
 2409              	.LASF82:
 2410 0723 726C6973 		.ascii	"rlist\000"
 2410      7400
 2411              	.LASF14:
 2412 0729 75696E74 		.ascii	"uint8_t\000"
ARM GAS  /tmp/ccNyJpKF.s 			page 49


 2412      385F7400 
 2413              	.LASF149:
 2414 0731 77746F62 		.ascii	"wtobjp\000"
 2414      6A7000
 2415              	.LASF36:
 2416 0738 705F6E61 		.ascii	"p_name\000"
 2416      6D6500
 2417              	.LASF103:
 2418 073f 41484231 		.ascii	"AHB1ENR\000"
 2418      454E5200 
 2419              	.LASF95:
 2420 0747 43464752 		.ascii	"CFGR\000"
 2420      00
 2421              	.LASF20:
 2422 074c 746D6F64 		.ascii	"tmode_t\000"
 2422      655F7400 
 2423              	.LASF79:
 2424 0754 74726163 		.ascii	"trace_buffer\000"
 2424      655F6275 
 2424      66666572 
 2424      00
 2425              	.LASF43:
 2426 0761 705F6D73 		.ascii	"p_msg\000"
 2426      6700
 2427              	.LASF144:
 2428 0767 6D5F6372 		.ascii	"m_crit_thd\000"
 2428      69745F74 
 2428      686400
 2429              	.LASF159:
 2430 0772 6D5F6F77 		.ascii	"m_owner\000"
 2430      6E657200 
 2431              	.LASF128:
 2432 077a 73655F77 		.ascii	"se_wtobjp\000"
 2432      746F626A 
 2432      7000
 2433              	.LASF33:
 2434 0784 705F6374 		.ascii	"p_ctx\000"
 2434      7800
 2435              	.LASF69:
 2436 078a 76745F66 		.ascii	"vt_func\000"
 2436      756E6300 
 2437              		.ident	"GCC: (4.8.4-1+11-1) 4.8.4 20141219 (release)"
ARM GAS  /tmp/ccNyJpKF.s 			page 50


DEFINED SYMBOLS
                            *ABS*:0000000000000000 hal_lld.c
     /tmp/ccNyJpKF.s:23     .data.SystemCoreClock:0000000000000000 SystemCoreClock
     /tmp/ccNyJpKF.s:20     .data.SystemCoreClock:0000000000000000 $d
     /tmp/ccNyJpKF.s:26     .text.hal_lld_backup_domain_init:0000000000000000 $t
     /tmp/ccNyJpKF.s:31     .text.hal_lld_backup_domain_init:0000000000000000 hal_lld_backup_domain_init
     /tmp/ccNyJpKF.s:71     .text.hal_lld_backup_domain_init:0000000000000038 $d
     /tmp/ccNyJpKF.s:77     .text.hal_lld_init:0000000000000000 $t
     /tmp/ccNyJpKF.s:83     .text.hal_lld_init:0000000000000000 hal_lld_init
     /tmp/ccNyJpKF.s:144    .text.hal_lld_init:0000000000000060 $d
     /tmp/ccNyJpKF.s:149    .text.stm32_clock_init:0000000000000000 $t
     /tmp/ccNyJpKF.s:155    .text.stm32_clock_init:0000000000000000 stm32_clock_init
     /tmp/ccNyJpKF.s:312    .text.stm32_clock_init:0000000000000104 $d
                     .debug_frame:0000000000000010 $d
     /tmp/ccNyJpKF.s:148    .text.hal_lld_init:0000000000000064 $t
     /tmp/ccNyJpKF.s:320    .text.stm32_clock_init:0000000000000118 $t

UNDEFINED SYMBOLS
dmaInit
