ARM GAS  /tmp/cclIzo2l.s 			page 1


   1              		.syntax unified
   2              		.cpu cortex-m4
   3              		.fpu softvfp
   4              		.eabi_attribute 20, 1
   5              		.eabi_attribute 21, 1
   6              		.eabi_attribute 23, 3
   7              		.eabi_attribute 24, 1
   8              		.eabi_attribute 25, 1
   9              		.eabi_attribute 26, 1
  10              		.eabi_attribute 30, 6
  11              		.eabi_attribute 34, 1
  12              		.eabi_attribute 18, 4
  13              		.thumb
  14              		.file	"main.c"
  15              		.text
  16              	.Ltext0:
  17              		.cfi_sections	.debug_frame
  18              		.section	.bss.serialListen,"aw",%nobits
  19              		.align	3
  20              		.type	serialListen, %object
  21              		.size	serialListen, 360
  22              	serialListen:
  23 0000 00000000 		.space	360
  23      00000000 
  23      00000000 
  23      00000000 
  23      00000000 
  24              		.section	.bss.serialTalk,"aw",%nobits
  25              		.align	3
  26              		.type	serialTalk, %object
  27              		.size	serialTalk, 360
  28              	serialTalk:
  29 0000 00000000 		.space	360
  29      00000000 
  29      00000000 
  29      00000000 
  29      00000000 
  30              		.global	cca_exp_io_mode
  31              		.section	.bss.cca_exp_io_mode,"aw",%nobits
  32              		.type	cca_exp_io_mode, %object
  33              		.size	cca_exp_io_mode, 1
  34              	cca_exp_io_mode:
  35 0000 00       		.space	1
  36              		.section	.text.main,"ax",%progbits
  37              		.align	2
  38              		.p2align 4,,15
  39              		.global	main
  40              		.thumb
  41              		.thumb_func
  42              		.type	main, %function
  43              	main:
  44              	.LFB271:
  45              		.file 1 "main.c"
  46              		.loc 1 6 0
  47              		.cfi_startproc
  48              		@ args = 0, pretend = 0, frame = 8
  49              		@ frame_needed = 0, uses_anonymous_args = 0
ARM GAS  /tmp/cclIzo2l.s 			page 2


  50 0000 00B5     		push	{lr}
  51              		.cfi_def_cfa_offset 4
  52              		.cfi_offset 14, -4
  53 0002 85B0     		sub	sp, sp, #20
  54              		.cfi_def_cfa_offset 24
  55              		.loc 1 7 0
  56 0004 FFF7FEFF 		bl	halInit
  57              		.loc 1 8 0
  58 0008 FFF7FEFF 		bl	chSysInit
  59              		.loc 1 12 0
  60 000c 164B     		ldr	r3, .L3
  61 000e 174A     		ldr	r2, .L3+4
  62 0010 9A61     		str	r2, [r3, #24]
  63              		.loc 1 13 0
  64 0012 4020     		movs	r0, #64
  65 0014 FFF7FEFF 		bl	chThdSetPriority
  66              		.loc 1 14 0
  67 0018 FFF7FEFF 		bl	init_IO
  68              		.loc 1 15 0
  69 001c FFF7FEFF 		bl	init_protocol
  70              		.loc 1 16 0
  71 0020 0023     		movs	r3, #0
  72 0022 0093     		str	r3, [sp]
  73 0024 1248     		ldr	r0, .L3+8
  74 0026 4FF4B471 		mov	r1, #360
  75 002a 0222     		movs	r2, #2
  76 002c 114B     		ldr	r3, .L3+12
  77 002e FFF7FEFF 		bl	chThdCreateStatic
  78 0032 0390     		str	r0, [sp, #12]
  79              		.loc 1 17 0
  80 0034 0023     		movs	r3, #0
  81 0036 0093     		str	r3, [sp]
  82 0038 0F48     		ldr	r0, .L3+16
  83 003a 4FF4B471 		mov	r1, #360
  84 003e 0222     		movs	r2, #2
  85 0040 0E4B     		ldr	r3, .L3+20
  86 0042 FFF7FEFF 		bl	chThdCreateStatic
  87 0046 0290     		str	r0, [sp, #8]
  88              	.L2:
  89              		.loc 1 21 0 discriminator 1
  90 0048 074B     		ldr	r3, .L3
  91 004a 4FF6FF72 		movw	r2, #65535
  92 004e 9A61     		str	r2, [r3, #24]
  93              		.loc 1 22 0 discriminator 1
  94 0050 42F21070 		movw	r0, #10000
  95 0054 FFF7FEFF 		bl	chThdSleep
  96              		.loc 1 23 0 discriminator 1
  97 0058 034B     		ldr	r3, .L3
  98 005a 044A     		ldr	r2, .L3+4
  99 005c 9A61     		str	r2, [r3, #24]
 100              		.loc 1 24 0 discriminator 1
 101 005e 42F21070 		movw	r0, #10000
 102 0062 FFF7FEFF 		bl	chThdSleep
 103              		.loc 1 25 0 discriminator 1
 104 0066 EFE7     		b	.L2
 105              	.L4:
 106              		.align	2
ARM GAS  /tmp/cclIzo2l.s 			page 3


 107              	.L3:
 108 0068 000C0240 		.word	1073875968
 109 006c 0000FFFF 		.word	-65536
 110 0070 00000000 		.word	serialListen
 111 0074 00000000 		.word	rxListen
 112 0078 00000000 		.word	serialTalk
 113 007c 00000000 		.word	txWrite
 114              		.cfi_endproc
 115              	.LFE271:
 116              		.size	main, .-main
 117              		.section	.text.init_IO,"ax",%progbits
 118              		.align	2
 119              		.p2align 4,,15
 120              		.global	init_IO
 121              		.thumb
 122              		.thumb_func
 123              		.type	init_IO, %function
 124              	init_IO:
 125              	.LFB272:
 126              		.loc 1 32 0
 127              		.cfi_startproc
 128              		@ args = 0, pretend = 0, frame = 0
 129              		@ frame_needed = 0, uses_anonymous_args = 0
 130 0000 08B5     		push	{r3, lr}
 131              		.cfi_def_cfa_offset 8
 132              		.cfi_offset 3, -8
 133              		.cfi_offset 14, -4
 134              		.loc 1 35 0
 135 0002 1448     		ldr	r0, .L9
 136 0004 4FF6FF71 		movw	r1, #65535
 137 0008 2022     		movs	r2, #32
 138 000a FFF7FEFF 		bl	_pal_lld_setgroupmode
 139              		.loc 1 39 0
 140 000e 124B     		ldr	r3, .L9+4
 141 0010 1B78     		ldrb	r3, [r3]	@ zero_extendqisi2
 142 0012 002B     		cmp	r3, #0
 143 0014 0CD1     		bne	.L6
 144              		.loc 1 41 0
 145 0016 1148     		ldr	r0, .L9+8
 146 0018 4FF6FF71 		movw	r1, #65535
 147 001c 0122     		movs	r2, #1
 148 001e FFF7FEFF 		bl	_pal_lld_setgroupmode
 149              		.loc 1 42 0
 150 0022 0F48     		ldr	r0, .L9+12
 151 0024 4FF6FF71 		movw	r1, #65535
 152 0028 0122     		movs	r2, #1
 153 002a FFF7FEFF 		bl	_pal_lld_setgroupmode
 154 002e 0FE0     		b	.L7
 155              	.L6:
 156              		.loc 1 44 0
 157 0030 094B     		ldr	r3, .L9+4
 158 0032 1B78     		ldrb	r3, [r3]	@ zero_extendqisi2
 159 0034 012B     		cmp	r3, #1
 160 0036 0BD1     		bne	.L7
 161              		.loc 1 46 0
 162 0038 0848     		ldr	r0, .L9+8
 163 003a 4FF6FF71 		movw	r1, #65535
ARM GAS  /tmp/cclIzo2l.s 			page 4


 164 003e 2022     		movs	r2, #32
 165 0040 FFF7FEFF 		bl	_pal_lld_setgroupmode
 166              		.loc 1 47 0
 167 0044 0648     		ldr	r0, .L9+12
 168 0046 4FF6FF71 		movw	r1, #65535
 169 004a 2022     		movs	r2, #32
 170 004c FFF7FEFF 		bl	_pal_lld_setgroupmode
 171              	.L7:
 172              		.loc 1 53 0
 173 0050 00BF     		nop
 174              		.loc 1 54 0
 175 0052 08BD     		pop	{r3, pc}
 176              	.L10:
 177              		.align	2
 178              	.L9:
 179 0054 00040240 		.word	1073873920
 180 0058 00000000 		.word	cca_exp_io_mode
 181 005c 000C0240 		.word	1073875968
 182 0060 00100240 		.word	1073876992
 183              		.cfi_endproc
 184              	.LFE272:
 185              		.size	init_IO, .-init_IO
 186 0064 AFF30080 		.section	.text.set_cca_exp_io_mode,"ax",%progbits
 186      AFF30080 
 186      AFF30080 
 187              		.align	2
 188              		.p2align 4,,15
 189              		.global	set_cca_exp_io_mode
 190              		.thumb
 191              		.thumb_func
 192              		.type	set_cca_exp_io_mode, %function
 193              	set_cca_exp_io_mode:
 194              	.LFB273:
 195              		.loc 1 57 0
 196              		.cfi_startproc
 197              		@ args = 0, pretend = 0, frame = 0
 198              		@ frame_needed = 0, uses_anonymous_args = 0
 199              		@ link register save eliminated.
 200              		.loc 1 59 0
 201 0000 024B     		ldr	r3, .L13
 202 0002 0022     		movs	r2, #0
 203 0004 1A70     		strb	r2, [r3]
 204              		.loc 1 63 0
 205 0006 00BF     		nop
 206              		.loc 1 64 0
 207 0008 7047     		bx	lr
 208              	.L14:
 209 000a 00BF     		.align	2
 210              	.L13:
 211 000c 00000000 		.word	cca_exp_io_mode
 212              		.cfi_endproc
 213              	.LFE273:
 214              		.size	set_cca_exp_io_mode, .-set_cca_exp_io_mode
 215              		.section	.text.init_globals,"ax",%progbits
 216              		.align	2
 217              		.p2align 4,,15
 218              		.global	init_globals
ARM GAS  /tmp/cclIzo2l.s 			page 5


 219              		.thumb
 220              		.thumb_func
 221              		.type	init_globals, %function
 222              	init_globals:
 223              	.LFB274:
 224              		.loc 1 67 0
 225              		.cfi_startproc
 226              		@ args = 0, pretend = 0, frame = 0
 227              		@ frame_needed = 0, uses_anonymous_args = 0
 228              		@ link register save eliminated.
 229              		.loc 1 72 0
 230 0000 00BF     		nop
 231              		.loc 1 73 0
 232 0002 7047     		bx	lr
 233              		.cfi_endproc
 234              	.LFE274:
 235              		.size	init_globals, .-init_globals
 236 0004 AFF30080 		.text
 236      AFF30080 
 236      AFF30080 
 237              	.Letext0:
 238              		.file 2 "/usr/lib/gcc/arm-none-eabi/4.8/include/stddef.h"
 239              		.file 3 "/usr/include/newlib/machine/_default_types.h"
 240              		.file 4 "/usr/include/newlib/stdint.h"
 241              		.file 5 "/home/efe/ChibiOS/os/rt/ports/ARMCMx/compilers/GCC/chtypes.h"
 242              		.file 6 "/home/efe/ChibiOS/os/rt/include/chsystypes.h"
 243              		.file 7 "/home/efe/ChibiOS/os/rt/include/chschd.h"
 244              		.file 8 "/home/efe/ChibiOS/os/rt/ports/ARMCMx/chcore.h"
 245              		.file 9 "/home/efe/ChibiOS/os/rt/ports/ARMCMx/chcore_v7m.h"
 246              		.file 10 "/home/efe/ChibiOS/os/rt/include/chdebug.h"
 247              		.file 11 "/home/efe/ChibiOS/os/rt/include/chtm.h"
 248              		.file 12 "/home/efe/ChibiOS/os/rt/include/chstats.h"
 249              		.file 13 "/home/efe/ChibiOS/os/rt/include/chsem.h"
 250              		.file 14 "/home/efe/ChibiOS/os/rt/include/chmtx.h"
 251              		.file 15 "/home/efe/ChibiOS/os/hal/ports/STM32/LLD/GPIOv2/pal_lld.h"
 252              		.file 16 "main.h"
 253              		.file 17 "/home/efe/ChibiOS/os/ext/CMSIS/include/core_cm4.h"
 254              		.section	.debug_info,"",%progbits
 255              	.Ldebug_info0:
 256 0000 80090000 		.4byte	0x980
 257 0004 0400     		.2byte	0x4
 258 0006 00000000 		.4byte	.Ldebug_abbrev0
 259 000a 04       		.byte	0x4
 260 000b 01       		.uleb128 0x1
 261 000c AA010000 		.4byte	.LASF152
 262 0010 01       		.byte	0x1
 263 0011 9D030000 		.4byte	.LASF153
 264 0015 04030000 		.4byte	.LASF154
 265 0019 00000000 		.4byte	.Ldebug_ranges0+0
 266 001d 00000000 		.4byte	0
 267 0021 00000000 		.4byte	.Ldebug_line0
 268 0025 02       		.uleb128 0x2
 269 0026 04       		.byte	0x4
 270 0027 05       		.byte	0x5
 271 0028 696E7400 		.ascii	"int\000"
 272 002c 03       		.uleb128 0x3
 273 002d 1C000000 		.4byte	.LASF2
ARM GAS  /tmp/cclIzo2l.s 			page 6


 274 0031 02       		.byte	0x2
 275 0032 D4       		.byte	0xd4
 276 0033 37000000 		.4byte	0x37
 277 0037 04       		.uleb128 0x4
 278 0038 04       		.byte	0x4
 279 0039 07       		.byte	0x7
 280 003a DF020000 		.4byte	.LASF0
 281 003e 04       		.uleb128 0x4
 282 003f 01       		.byte	0x1
 283 0040 06       		.byte	0x6
 284 0041 36010000 		.4byte	.LASF1
 285 0045 03       		.uleb128 0x3
 286 0046 40000000 		.4byte	.LASF3
 287 004a 03       		.byte	0x3
 288 004b 1D       		.byte	0x1d
 289 004c 50000000 		.4byte	0x50
 290 0050 04       		.uleb128 0x4
 291 0051 01       		.byte	0x1
 292 0052 08       		.byte	0x8
 293 0053 FB040000 		.4byte	.LASF4
 294 0057 04       		.uleb128 0x4
 295 0058 02       		.byte	0x2
 296 0059 05       		.byte	0x5
 297 005a 13050000 		.4byte	.LASF5
 298 005e 03       		.uleb128 0x3
 299 005f C8050000 		.4byte	.LASF6
 300 0063 03       		.byte	0x3
 301 0064 2B       		.byte	0x2b
 302 0065 69000000 		.4byte	0x69
 303 0069 04       		.uleb128 0x4
 304 006a 02       		.byte	0x2
 305 006b 07       		.byte	0x7
 306 006c 4C030000 		.4byte	.LASF7
 307 0070 03       		.uleb128 0x3
 308 0071 D1030000 		.4byte	.LASF8
 309 0075 03       		.byte	0x3
 310 0076 3F       		.byte	0x3f
 311 0077 7B000000 		.4byte	0x7b
 312 007b 04       		.uleb128 0x4
 313 007c 04       		.byte	0x4
 314 007d 05       		.byte	0x5
 315 007e 6E010000 		.4byte	.LASF9
 316 0082 03       		.uleb128 0x3
 317 0083 06060000 		.4byte	.LASF10
 318 0087 03       		.byte	0x3
 319 0088 41       		.byte	0x41
 320 0089 8D000000 		.4byte	0x8d
 321 008d 04       		.uleb128 0x4
 322 008e 04       		.byte	0x4
 323 008f 07       		.byte	0x7
 324 0090 B1050000 		.4byte	.LASF11
 325 0094 04       		.uleb128 0x4
 326 0095 08       		.byte	0x8
 327 0096 05       		.byte	0x5
 328 0097 28010000 		.4byte	.LASF12
 329 009b 03       		.uleb128 0x3
 330 009c 93040000 		.4byte	.LASF13
ARM GAS  /tmp/cclIzo2l.s 			page 7


 331 00a0 03       		.byte	0x3
 332 00a1 5B       		.byte	0x5b
 333 00a2 A6000000 		.4byte	0xa6
 334 00a6 04       		.uleb128 0x4
 335 00a7 08       		.byte	0x8
 336 00a8 07       		.byte	0x7
 337 00a9 A9000000 		.4byte	.LASF14
 338 00ad 03       		.uleb128 0x3
 339 00ae 74060000 		.4byte	.LASF15
 340 00b2 04       		.byte	0x4
 341 00b3 2A       		.byte	0x2a
 342 00b4 45000000 		.4byte	0x45
 343 00b8 03       		.uleb128 0x3
 344 00b9 F4020000 		.4byte	.LASF16
 345 00bd 04       		.byte	0x4
 346 00be 36       		.byte	0x36
 347 00bf 5E000000 		.4byte	0x5e
 348 00c3 03       		.uleb128 0x3
 349 00c4 F3040000 		.4byte	.LASF17
 350 00c8 04       		.byte	0x4
 351 00c9 41       		.byte	0x41
 352 00ca 70000000 		.4byte	0x70
 353 00ce 03       		.uleb128 0x3
 354 00cf 80050000 		.4byte	.LASF18
 355 00d3 04       		.byte	0x4
 356 00d4 42       		.byte	0x42
 357 00d5 82000000 		.4byte	0x82
 358 00d9 03       		.uleb128 0x3
 359 00da 2A000000 		.4byte	.LASF19
 360 00de 04       		.byte	0x4
 361 00df 4E       		.byte	0x4e
 362 00e0 9B000000 		.4byte	0x9b
 363 00e4 05       		.uleb128 0x5
 364 00e5 C3000000 		.4byte	0xc3
 365 00e9 05       		.uleb128 0x5
 366 00ea CE000000 		.4byte	0xce
 367 00ee 03       		.uleb128 0x3
 368 00ef 37060000 		.4byte	.LASF20
 369 00f3 05       		.byte	0x5
 370 00f4 45       		.byte	0x45
 371 00f5 CE000000 		.4byte	0xce
 372 00f9 03       		.uleb128 0x3
 373 00fa 18010000 		.4byte	.LASF21
 374 00fe 05       		.byte	0x5
 375 00ff 46       		.byte	0x46
 376 0100 D9000000 		.4byte	0xd9
 377 0104 03       		.uleb128 0x3
 378 0105 A4030000 		.4byte	.LASF22
 379 0109 05       		.byte	0x5
 380 010a 48       		.byte	0x48
 381 010b AD000000 		.4byte	0xad
 382 010f 03       		.uleb128 0x3
 383 0110 77010000 		.4byte	.LASF23
 384 0114 05       		.byte	0x5
 385 0115 49       		.byte	0x49
 386 0116 AD000000 		.4byte	0xad
 387 011a 03       		.uleb128 0x3
ARM GAS  /tmp/cclIzo2l.s 			page 8


 388 011b B3040000 		.4byte	.LASF24
 389 011f 05       		.byte	0x5
 390 0120 4A       		.byte	0x4a
 391 0121 AD000000 		.4byte	0xad
 392 0125 03       		.uleb128 0x3
 393 0126 DC040000 		.4byte	.LASF25
 394 012a 05       		.byte	0x5
 395 012b 4C       		.byte	0x4c
 396 012c CE000000 		.4byte	0xce
 397 0130 03       		.uleb128 0x3
 398 0131 78030000 		.4byte	.LASF26
 399 0135 05       		.byte	0x5
 400 0136 4D       		.byte	0x4d
 401 0137 C3000000 		.4byte	0xc3
 402 013b 03       		.uleb128 0x3
 403 013c C5030000 		.4byte	.LASF27
 404 0140 05       		.byte	0x5
 405 0141 4F       		.byte	0x4f
 406 0142 CE000000 		.4byte	0xce
 407 0146 03       		.uleb128 0x3
 408 0147 CE020000 		.4byte	.LASF28
 409 014b 05       		.byte	0x5
 410 014c 51       		.byte	0x51
 411 014d C3000000 		.4byte	0xc3
 412 0151 03       		.uleb128 0x3
 413 0152 83030000 		.4byte	.LASF29
 414 0156 05       		.byte	0x5
 415 0157 52       		.byte	0x52
 416 0158 CE000000 		.4byte	0xce
 417 015c 03       		.uleb128 0x3
 418 015d E8050000 		.4byte	.LASF30
 419 0161 06       		.byte	0x6
 420 0162 33       		.byte	0x33
 421 0163 CE000000 		.4byte	0xce
 422 0167 03       		.uleb128 0x3
 423 0168 D3050000 		.4byte	.LASF31
 424 016c 06       		.byte	0x6
 425 016d 3F       		.byte	0x3f
 426 016e 72010000 		.4byte	0x172
 427 0172 06       		.uleb128 0x6
 428 0173 6E030000 		.4byte	.LASF53
 429 0177 60       		.byte	0x60
 430 0178 07       		.byte	0x7
 431 0179 C2       		.byte	0xc2
 432 017a 78020000 		.4byte	0x278
 433 017e 07       		.uleb128 0x7
 434 017f 40050000 		.4byte	.LASF32
 435 0183 07       		.byte	0x7
 436 0184 C3       		.byte	0xc3
 437 0185 83020000 		.4byte	0x283
 438 0189 00       		.byte	0
 439 018a 07       		.uleb128 0x7
 440 018b D5040000 		.4byte	.LASF33
 441 018f 07       		.byte	0x7
 442 0190 C5       		.byte	0xc5
 443 0191 83020000 		.4byte	0x283
 444 0195 04       		.byte	0x4
ARM GAS  /tmp/cclIzo2l.s 			page 9


 445 0196 07       		.uleb128 0x7
 446 0197 21010000 		.4byte	.LASF34
 447 019b 07       		.byte	0x7
 448 019c C7       		.byte	0xc7
 449 019d 25010000 		.4byte	0x125
 450 01a1 08       		.byte	0x8
 451 01a2 07       		.uleb128 0x7
 452 01a3 CE060000 		.4byte	.LASF35
 453 01a7 07       		.byte	0x7
 454 01a8 C8       		.byte	0xc8
 455 01a9 EC040000 		.4byte	0x4ec
 456 01ad 0C       		.byte	0xc
 457 01ae 07       		.uleb128 0x7
 458 01af 5A020000 		.4byte	.LASF36
 459 01b3 07       		.byte	0x7
 460 01b4 CA       		.byte	0xca
 461 01b5 83020000 		.4byte	0x283
 462 01b9 10       		.byte	0x10
 463 01ba 07       		.uleb128 0x7
 464 01bb 55040000 		.4byte	.LASF37
 465 01bf 07       		.byte	0x7
 466 01c0 CB       		.byte	0xcb
 467 01c1 83020000 		.4byte	0x283
 468 01c5 14       		.byte	0x14
 469 01c6 07       		.uleb128 0x7
 470 01c7 83060000 		.4byte	.LASF38
 471 01cb 07       		.byte	0x7
 472 01cc D2       		.byte	0xd2
 473 01cd 90070000 		.4byte	0x790
 474 01d1 18       		.byte	0x18
 475 01d2 07       		.uleb128 0x7
 476 01d3 D4020000 		.4byte	.LASF39
 477 01d7 07       		.byte	0x7
 478 01d8 D8       		.byte	0xd8
 479 01d9 A2070000 		.4byte	0x7a2
 480 01dd 1C       		.byte	0x1c
 481 01de 07       		.uleb128 0x7
 482 01df 1D050000 		.4byte	.LASF40
 483 01e3 07       		.byte	0x7
 484 01e4 DD       		.byte	0xdd
 485 01e5 0F010000 		.4byte	0x10f
 486 01e9 20       		.byte	0x20
 487 01ea 07       		.uleb128 0x7
 488 01eb 47050000 		.4byte	.LASF41
 489 01ef 07       		.byte	0x7
 490 01f0 E1       		.byte	0xe1
 491 01f1 04010000 		.4byte	0x104
 492 01f5 21       		.byte	0x21
 493 01f6 07       		.uleb128 0x7
 494 01f7 5F060000 		.4byte	.LASF42
 495 01fb 07       		.byte	0x7
 496 01fc E6       		.byte	0xe6
 497 01fd 1A010000 		.4byte	0x11a
 498 0201 22       		.byte	0x22
 499 0202 08       		.uleb128 0x8
 500 0203 705F7500 		.ascii	"p_u\000"
 501 0207 07       		.byte	0x7
ARM GAS  /tmp/cclIzo2l.s 			page 10


 502 0208 3101     		.2byte	0x131
 503 020a CB060000 		.4byte	0x6cb
 504 020e 24       		.byte	0x24
 505 020f 09       		.uleb128 0x9
 506 0210 EE030000 		.4byte	.LASF43
 507 0214 07       		.byte	0x7
 508 0215 3601     		.2byte	0x136
 509 0217 89020000 		.4byte	0x289
 510 021b 28       		.byte	0x28
 511 021c 09       		.uleb128 0x9
 512 021d 30030000 		.4byte	.LASF44
 513 0221 07       		.byte	0x7
 514 0222 3C01     		.2byte	0x13c
 515 0224 AD020000 		.4byte	0x2ad
 516 0228 2C       		.byte	0x2c
 517 0229 09       		.uleb128 0x9
 518 022a A6060000 		.4byte	.LASF45
 519 022e 07       		.byte	0x7
 520 022f 4001     		.2byte	0x140
 521 0231 30010000 		.4byte	0x130
 522 0235 34       		.byte	0x34
 523 0236 09       		.uleb128 0x9
 524 0237 75050000 		.4byte	.LASF46
 525 023b 07       		.byte	0x7
 526 023c 4601     		.2byte	0x146
 527 023e 3B010000 		.4byte	0x13b
 528 0242 38       		.byte	0x38
 529 0243 09       		.uleb128 0x9
 530 0244 09050000 		.4byte	.LASF47
 531 0248 07       		.byte	0x7
 532 0249 4D01     		.2byte	0x14d
 533 024b 8A070000 		.4byte	0x78a
 534 024f 3C       		.byte	0x3c
 535 0250 09       		.uleb128 0x9
 536 0251 F2050000 		.4byte	.LASF48
 537 0255 07       		.byte	0x7
 538 0256 5101     		.2byte	0x151
 539 0258 25010000 		.4byte	0x125
 540 025c 40       		.byte	0x40
 541 025d 09       		.uleb128 0x9
 542 025e 47010000 		.4byte	.LASF49
 543 0262 07       		.byte	0x7
 544 0263 5801     		.2byte	0x158
 545 0265 60030000 		.4byte	0x360
 546 0269 44       		.byte	0x44
 547 026a 09       		.uleb128 0x9
 548 026b 4F050000 		.4byte	.LASF50
 549 026f 07       		.byte	0x7
 550 0270 5E01     		.2byte	0x15e
 551 0272 7C060000 		.4byte	0x67c
 552 0276 48       		.byte	0x48
 553 0277 00       		.byte	0
 554 0278 03       		.uleb128 0x3
 555 0279 01040000 		.4byte	.LASF51
 556 027d 06       		.byte	0x6
 557 027e 44       		.byte	0x44
 558 027f 83020000 		.4byte	0x283
ARM GAS  /tmp/cclIzo2l.s 			page 11


 559 0283 0A       		.uleb128 0xa
 560 0284 04       		.byte	0x4
 561 0285 67010000 		.4byte	0x167
 562 0289 03       		.uleb128 0x3
 563 028a 8A060000 		.4byte	.LASF52
 564 028e 06       		.byte	0x6
 565 028f 49       		.byte	0x49
 566 0290 94020000 		.4byte	0x294
 567 0294 06       		.uleb128 0x6
 568 0295 A1050000 		.4byte	.LASF54
 569 0299 04       		.byte	0x4
 570 029a 07       		.byte	0x7
 571 029b B0       		.byte	0xb0
 572 029c AD020000 		.4byte	0x2ad
 573 02a0 07       		.uleb128 0x7
 574 02a1 40050000 		.4byte	.LASF32
 575 02a5 07       		.byte	0x7
 576 02a6 B1       		.byte	0xb1
 577 02a7 83020000 		.4byte	0x283
 578 02ab 00       		.byte	0
 579 02ac 00       		.byte	0
 580 02ad 03       		.uleb128 0x3
 581 02ae 46060000 		.4byte	.LASF55
 582 02b2 06       		.byte	0x6
 583 02b3 50       		.byte	0x50
 584 02b4 B8020000 		.4byte	0x2b8
 585 02b8 06       		.uleb128 0x6
 586 02b9 5D000000 		.4byte	.LASF56
 587 02bd 08       		.byte	0x8
 588 02be 07       		.byte	0x7
 589 02bf B7       		.byte	0xb7
 590 02c0 DD020000 		.4byte	0x2dd
 591 02c4 07       		.uleb128 0x7
 592 02c5 40050000 		.4byte	.LASF32
 593 02c9 07       		.byte	0x7
 594 02ca B8       		.byte	0xb8
 595 02cb 83020000 		.4byte	0x283
 596 02cf 00       		.byte	0
 597 02d0 07       		.uleb128 0x7
 598 02d1 D5040000 		.4byte	.LASF33
 599 02d5 07       		.byte	0x7
 600 02d6 B9       		.byte	0xb9
 601 02d7 83020000 		.4byte	0x283
 602 02db 04       		.byte	0x4
 603 02dc 00       		.byte	0
 604 02dd 03       		.uleb128 0x3
 605 02de 07000000 		.4byte	.LASF57
 606 02e2 06       		.byte	0x6
 607 02e3 57       		.byte	0x57
 608 02e4 E8020000 		.4byte	0x2e8
 609 02e8 0B       		.uleb128 0xb
 610 02e9 B7030000 		.4byte	.LASF58
 611 02ed 1C       		.byte	0x1c
 612 02ee 07       		.byte	0x7
 613 02ef 9001     		.2byte	0x190
 614 02f1 44030000 		.4byte	0x344
 615 02f5 09       		.uleb128 0x9
ARM GAS  /tmp/cclIzo2l.s 			page 12


 616 02f6 90050000 		.4byte	.LASF59
 617 02fa 07       		.byte	0x7
 618 02fb 9101     		.2byte	0x191
 619 02fd AD020000 		.4byte	0x2ad
 620 0301 00       		.byte	0
 621 0302 09       		.uleb128 0x9
 622 0303 32050000 		.4byte	.LASF60
 623 0307 07       		.byte	0x7
 624 0308 9201     		.2byte	0x192
 625 030a 25010000 		.4byte	0x125
 626 030e 08       		.byte	0x8
 627 030f 09       		.uleb128 0x9
 628 0310 5D040000 		.4byte	.LASF61
 629 0314 07       		.byte	0x7
 630 0315 9401     		.2byte	0x194
 631 0317 EC040000 		.4byte	0x4ec
 632 031b 0C       		.byte	0xc
 633 031c 09       		.uleb128 0x9
 634 031d 7A020000 		.4byte	.LASF62
 635 0321 07       		.byte	0x7
 636 0322 9701     		.2byte	0x197
 637 0324 83020000 		.4byte	0x283
 638 0328 10       		.byte	0x10
 639 0329 09       		.uleb128 0x9
 640 032a 8B040000 		.4byte	.LASF63
 641 032e 07       		.byte	0x7
 642 032f 9801     		.2byte	0x198
 643 0331 83020000 		.4byte	0x283
 644 0335 14       		.byte	0x14
 645 0336 09       		.uleb128 0x9
 646 0337 81040000 		.4byte	.LASF64
 647 033b 07       		.byte	0x7
 648 033c 9B01     		.2byte	0x19b
 649 033e 83020000 		.4byte	0x283
 650 0342 18       		.byte	0x18
 651 0343 00       		.byte	0
 652 0344 03       		.uleb128 0x3
 653 0345 FD050000 		.4byte	.LASF65
 654 0349 06       		.byte	0x6
 655 034a 5C       		.byte	0x5c
 656 034b 4F030000 		.4byte	0x34f
 657 034f 0A       		.uleb128 0xa
 658 0350 04       		.byte	0x4
 659 0351 55030000 		.4byte	0x355
 660 0355 0C       		.uleb128 0xc
 661 0356 60030000 		.4byte	0x360
 662 035a 0D       		.uleb128 0xd
 663 035b 60030000 		.4byte	0x360
 664 035f 00       		.byte	0
 665 0360 0E       		.uleb128 0xe
 666 0361 04       		.byte	0x4
 667 0362 03       		.uleb128 0x3
 668 0363 C5040000 		.4byte	.LASF66
 669 0367 06       		.byte	0x6
 670 0368 61       		.byte	0x61
 671 0369 6D030000 		.4byte	0x36d
 672 036d 0B       		.uleb128 0xb
ARM GAS  /tmp/cclIzo2l.s 			page 13


 673 036e 57050000 		.4byte	.LASF67
 674 0372 14       		.byte	0x14
 675 0373 07       		.byte	0x7
 676 0374 6B01     		.2byte	0x16b
 677 0376 BC030000 		.4byte	0x3bc
 678 037a 09       		.uleb128 0x9
 679 037b EC020000 		.4byte	.LASF68
 680 037f 07       		.byte	0x7
 681 0380 6C01     		.2byte	0x16c
 682 0382 A8070000 		.4byte	0x7a8
 683 0386 00       		.byte	0
 684 0387 09       		.uleb128 0x9
 685 0388 8B020000 		.4byte	.LASF69
 686 038c 07       		.byte	0x7
 687 038d 6D01     		.2byte	0x16d
 688 038f A8070000 		.4byte	0x7a8
 689 0393 04       		.byte	0x4
 690 0394 09       		.uleb128 0x9
 691 0395 98050000 		.4byte	.LASF70
 692 0399 07       		.byte	0x7
 693 039a 6E01     		.2byte	0x16e
 694 039c 5C010000 		.4byte	0x15c
 695 03a0 08       		.byte	0x8
 696 03a1 09       		.uleb128 0x9
 697 03a2 D4060000 		.4byte	.LASF71
 698 03a6 07       		.byte	0x7
 699 03a7 6F01     		.2byte	0x16f
 700 03a9 44030000 		.4byte	0x344
 701 03ad 0C       		.byte	0xc
 702 03ae 09       		.uleb128 0x9
 703 03af 3F060000 		.4byte	.LASF72
 704 03b3 07       		.byte	0x7
 705 03b4 7101     		.2byte	0x171
 706 03b6 60030000 		.4byte	0x360
 707 03ba 10       		.byte	0x10
 708 03bb 00       		.byte	0
 709 03bc 03       		.uleb128 0x3
 710 03bd F5000000 		.4byte	.LASF73
 711 03c1 06       		.byte	0x6
 712 03c2 66       		.byte	0x66
 713 03c3 C7030000 		.4byte	0x3c7
 714 03c7 0B       		.uleb128 0xb
 715 03c8 1D040000 		.4byte	.LASF74
 716 03cc 10       		.byte	0x10
 717 03cd 07       		.byte	0x7
 718 03ce 7B01     		.2byte	0x17b
 719 03d0 09040000 		.4byte	0x409
 720 03d4 09       		.uleb128 0x9
 721 03d5 EC020000 		.4byte	.LASF68
 722 03d9 07       		.byte	0x7
 723 03da 7C01     		.2byte	0x17c
 724 03dc A8070000 		.4byte	0x7a8
 725 03e0 00       		.byte	0
 726 03e1 09       		.uleb128 0x9
 727 03e2 8B020000 		.4byte	.LASF69
 728 03e6 07       		.byte	0x7
 729 03e7 7E01     		.2byte	0x17e
ARM GAS  /tmp/cclIzo2l.s 			page 14


 730 03e9 A8070000 		.4byte	0x7a8
 731 03ed 04       		.byte	0x4
 732 03ee 09       		.uleb128 0x9
 733 03ef 98050000 		.4byte	.LASF70
 734 03f3 07       		.byte	0x7
 735 03f4 8001     		.2byte	0x180
 736 03f6 5C010000 		.4byte	0x15c
 737 03fa 08       		.byte	0x8
 738 03fb 09       		.uleb128 0x9
 739 03fc 49040000 		.4byte	.LASF75
 740 0400 07       		.byte	0x7
 741 0401 8801     		.2byte	0x188
 742 0403 5C010000 		.4byte	0x15c
 743 0407 0C       		.byte	0xc
 744 0408 00       		.byte	0
 745 0409 03       		.uleb128 0x3
 746 040a 6E000000 		.4byte	.LASF76
 747 040e 06       		.byte	0x6
 748 040f 6B       		.byte	0x6b
 749 0410 14040000 		.4byte	0x414
 750 0414 0F       		.uleb128 0xf
 751 0415 93020000 		.4byte	.LASF77
 752 0419 1404     		.2byte	0x414
 753 041b 07       		.byte	0x7
 754 041c A201     		.2byte	0x1a2
 755 041e 57040000 		.4byte	0x457
 756 0422 09       		.uleb128 0x9
 757 0423 1E060000 		.4byte	.LASF78
 758 0427 07       		.byte	0x7
 759 0428 AA01     		.2byte	0x1aa
 760 042a AE070000 		.4byte	0x7ae
 761 042e 00       		.byte	0
 762 042f 09       		.uleb128 0x9
 763 0430 66060000 		.4byte	.LASF79
 764 0434 07       		.byte	0x7
 765 0435 AF01     		.2byte	0x1af
 766 0437 46010000 		.4byte	0x146
 767 043b 04       		.byte	0x4
 768 043c 09       		.uleb128 0x9
 769 043d B6020000 		.4byte	.LASF80
 770 0441 07       		.byte	0x7
 771 0442 B301     		.2byte	0x1b3
 772 0444 46010000 		.4byte	0x146
 773 0448 08       		.byte	0x8
 774 0449 09       		.uleb128 0x9
 775 044a 99060000 		.4byte	.LASF81
 776 044e 07       		.byte	0x7
 777 044f B901     		.2byte	0x1b9
 778 0451 0E060000 		.4byte	0x60e
 779 0455 0C       		.byte	0xc
 780 0456 00       		.byte	0
 781 0457 03       		.uleb128 0x3
 782 0458 8A030000 		.4byte	.LASF82
 783 045c 06       		.byte	0x6
 784 045d 70       		.byte	0x70
 785 045e 62040000 		.4byte	0x462
 786 0462 0F       		.uleb128 0xf
ARM GAS  /tmp/cclIzo2l.s 			page 15


 787 0463 64010000 		.4byte	.LASF83
 788 0467 D805     		.2byte	0x5d8
 789 0469 07       		.byte	0x7
 790 046a C201     		.2byte	0x1c2
 791 046c CF040000 		.4byte	0x4cf
 792 0470 09       		.uleb128 0x9
 793 0471 6E060000 		.4byte	.LASF84
 794 0475 07       		.byte	0x7
 795 0476 C601     		.2byte	0x1c6
 796 0478 DD020000 		.4byte	0x2dd
 797 047c 00       		.byte	0
 798 047d 09       		.uleb128 0x9
 799 047e 57010000 		.4byte	.LASF85
 800 0482 07       		.byte	0x7
 801 0483 CA01     		.2byte	0x1ca
 802 0485 BC030000 		.4byte	0x3bc
 803 0489 1C       		.byte	0x1c
 804 048a 08       		.uleb128 0x8
 805 048b 64626700 		.ascii	"dbg\000"
 806 048f 07       		.byte	0x7
 807 0490 CE01     		.2byte	0x1ce
 808 0492 09040000 		.4byte	0x409
 809 0496 2C       		.byte	0x2c
 810 0497 10       		.uleb128 0x10
 811 0498 EA000000 		.4byte	.LASF86
 812 049c 07       		.byte	0x7
 813 049d D201     		.2byte	0x1d2
 814 049f 67010000 		.4byte	0x167
 815 04a3 4004     		.2byte	0x440
 816 04a5 11       		.uleb128 0x11
 817 04a6 746D00   		.ascii	"tm\000"
 818 04a9 07       		.byte	0x7
 819 04aa D701     		.2byte	0x1d7
 820 04ac 2E060000 		.4byte	0x62e
 821 04b0 A004     		.2byte	0x4a0
 822 04b2 10       		.uleb128 0x10
 823 04b3 33000000 		.4byte	.LASF87
 824 04b7 07       		.byte	0x7
 825 04b8 DD01     		.2byte	0x1dd
 826 04ba C0060000 		.4byte	0x6c0
 827 04be A804     		.2byte	0x4a8
 828 04c0 10       		.uleb128 0x10
 829 04c1 BF020000 		.4byte	.LASF88
 830 04c5 07       		.byte	0x7
 831 04c6 E301     		.2byte	0x1e3
 832 04c8 B3070000 		.4byte	0x7b3
 833 04cc E004     		.2byte	0x4e0
 834 04ce 00       		.byte	0
 835 04cf 04       		.uleb128 0x4
 836 04d0 04       		.byte	0x4
 837 04d1 07       		.byte	0x7
 838 04d2 F8030000 		.4byte	.LASF89
 839 04d6 03       		.uleb128 0x3
 840 04d7 82020000 		.4byte	.LASF90
 841 04db 08       		.byte	0x8
 842 04dc 65       		.byte	0x65
 843 04dd 60030000 		.4byte	0x360
ARM GAS  /tmp/cclIzo2l.s 			page 16


 844 04e1 03       		.uleb128 0x3
 845 04e2 DB030000 		.4byte	.LASF91
 846 04e6 08       		.byte	0x8
 847 04e7 6D       		.byte	0x6d
 848 04e8 D9000000 		.4byte	0xd9
 849 04ec 06       		.uleb128 0x6
 850 04ed 2F060000 		.4byte	.LASF92
 851 04f1 04       		.byte	0x4
 852 04f2 08       		.byte	0x8
 853 04f3 89       		.byte	0x89
 854 04f4 05050000 		.4byte	0x505
 855 04f8 12       		.uleb128 0x12
 856 04f9 72313300 		.ascii	"r13\000"
 857 04fd 08       		.byte	0x8
 858 04fe 8A       		.byte	0x8a
 859 04ff 80050000 		.4byte	0x580
 860 0503 00       		.byte	0
 861 0504 00       		.byte	0
 862 0505 06       		.uleb128 0x6
 863 0506 51000000 		.4byte	.LASF93
 864 050a 24       		.byte	0x24
 865 050b 09       		.byte	0x9
 866 050c FD       		.byte	0xfd
 867 050d 80050000 		.4byte	0x580
 868 0511 08       		.uleb128 0x8
 869 0512 723400   		.ascii	"r4\000"
 870 0515 09       		.byte	0x9
 871 0516 1001     		.2byte	0x110
 872 0518 D6040000 		.4byte	0x4d6
 873 051c 00       		.byte	0
 874 051d 08       		.uleb128 0x8
 875 051e 723500   		.ascii	"r5\000"
 876 0521 09       		.byte	0x9
 877 0522 1101     		.2byte	0x111
 878 0524 D6040000 		.4byte	0x4d6
 879 0528 04       		.byte	0x4
 880 0529 08       		.uleb128 0x8
 881 052a 723600   		.ascii	"r6\000"
 882 052d 09       		.byte	0x9
 883 052e 1201     		.2byte	0x112
 884 0530 D6040000 		.4byte	0x4d6
 885 0534 08       		.byte	0x8
 886 0535 08       		.uleb128 0x8
 887 0536 723700   		.ascii	"r7\000"
 888 0539 09       		.byte	0x9
 889 053a 1301     		.2byte	0x113
 890 053c D6040000 		.4byte	0x4d6
 891 0540 0C       		.byte	0xc
 892 0541 08       		.uleb128 0x8
 893 0542 723800   		.ascii	"r8\000"
 894 0545 09       		.byte	0x9
 895 0546 1401     		.2byte	0x114
 896 0548 D6040000 		.4byte	0x4d6
 897 054c 10       		.byte	0x10
 898 054d 08       		.uleb128 0x8
 899 054e 723900   		.ascii	"r9\000"
 900 0551 09       		.byte	0x9
ARM GAS  /tmp/cclIzo2l.s 			page 17


 901 0552 1501     		.2byte	0x115
 902 0554 D6040000 		.4byte	0x4d6
 903 0558 14       		.byte	0x14
 904 0559 08       		.uleb128 0x8
 905 055a 72313000 		.ascii	"r10\000"
 906 055e 09       		.byte	0x9
 907 055f 1601     		.2byte	0x116
 908 0561 D6040000 		.4byte	0x4d6
 909 0565 18       		.byte	0x18
 910 0566 08       		.uleb128 0x8
 911 0567 72313100 		.ascii	"r11\000"
 912 056b 09       		.byte	0x9
 913 056c 1701     		.2byte	0x117
 914 056e D6040000 		.4byte	0x4d6
 915 0572 1C       		.byte	0x1c
 916 0573 08       		.uleb128 0x8
 917 0574 6C7200   		.ascii	"lr\000"
 918 0577 09       		.byte	0x9
 919 0578 1801     		.2byte	0x118
 920 057a D6040000 		.4byte	0x4d6
 921 057e 20       		.byte	0x20
 922 057f 00       		.byte	0
 923 0580 0A       		.uleb128 0xa
 924 0581 04       		.byte	0x4
 925 0582 05050000 		.4byte	0x505
 926 0586 13       		.uleb128 0x13
 927 0587 10       		.byte	0x10
 928 0588 0A       		.byte	0xa
 929 0589 51       		.byte	0x51
 930 058a BF050000 		.4byte	0x5bf
 931 058e 07       		.uleb128 0x7
 932 058f 14000000 		.4byte	.LASF94
 933 0593 0A       		.byte	0xa
 934 0594 55       		.byte	0x55
 935 0595 5C010000 		.4byte	0x15c
 936 0599 00       		.byte	0
 937 059a 07       		.uleb128 0x7
 938 059b 80010000 		.4byte	.LASF95
 939 059f 0A       		.byte	0xa
 940 05a0 59       		.byte	0x59
 941 05a1 83020000 		.4byte	0x283
 942 05a5 04       		.byte	0x4
 943 05a6 07       		.uleb128 0x7
 944 05a7 C4060000 		.4byte	.LASF96
 945 05ab 0A       		.byte	0xa
 946 05ac 5D       		.byte	0x5d
 947 05ad 60030000 		.4byte	0x360
 948 05b1 08       		.byte	0x8
 949 05b2 07       		.uleb128 0x7
 950 05b3 D2000000 		.4byte	.LASF97
 951 05b7 0A       		.byte	0xa
 952 05b8 61       		.byte	0x61
 953 05b9 AD000000 		.4byte	0xad
 954 05bd 0C       		.byte	0xc
 955 05be 00       		.byte	0
 956 05bf 03       		.uleb128 0x3
 957 05c0 3A040000 		.4byte	.LASF98
ARM GAS  /tmp/cclIzo2l.s 			page 18


 958 05c4 0A       		.byte	0xa
 959 05c5 62       		.byte	0x62
 960 05c6 86050000 		.4byte	0x586
 961 05ca 14       		.uleb128 0x14
 962 05cb 0804     		.2byte	0x408
 963 05cd 0A       		.byte	0xa
 964 05ce 67       		.byte	0x67
 965 05cf F8050000 		.4byte	0x5f8
 966 05d3 07       		.uleb128 0x7
 967 05d4 6A020000 		.4byte	.LASF99
 968 05d8 0A       		.byte	0xa
 969 05d9 6B       		.byte	0x6b
 970 05da 37000000 		.4byte	0x37
 971 05de 00       		.byte	0
 972 05df 07       		.uleb128 0x7
 973 05e0 00000000 		.4byte	.LASF100
 974 05e4 0A       		.byte	0xa
 975 05e5 6F       		.byte	0x6f
 976 05e6 F8050000 		.4byte	0x5f8
 977 05ea 04       		.byte	0x4
 978 05eb 07       		.uleb128 0x7
 979 05ec BB040000 		.4byte	.LASF101
 980 05f0 0A       		.byte	0xa
 981 05f1 73       		.byte	0x73
 982 05f2 FE050000 		.4byte	0x5fe
 983 05f6 08       		.byte	0x8
 984 05f7 00       		.byte	0
 985 05f8 0A       		.uleb128 0xa
 986 05f9 04       		.byte	0x4
 987 05fa BF050000 		.4byte	0x5bf
 988 05fe 15       		.uleb128 0x15
 989 05ff BF050000 		.4byte	0x5bf
 990 0603 0E060000 		.4byte	0x60e
 991 0607 16       		.uleb128 0x16
 992 0608 CF040000 		.4byte	0x4cf
 993 060c 3F       		.byte	0x3f
 994 060d 00       		.byte	0
 995 060e 03       		.uleb128 0x3
 996 060f C0000000 		.4byte	.LASF102
 997 0613 0A       		.byte	0xa
 998 0614 74       		.byte	0x74
 999 0615 CA050000 		.4byte	0x5ca
 1000 0619 13       		.uleb128 0x13
 1001 061a 04       		.byte	0x4
 1002 061b 0B       		.byte	0xb
 1003 061c 38       		.byte	0x38
 1004 061d 2E060000 		.4byte	0x62e
 1005 0621 07       		.uleb128 0x7
 1006 0622 28060000 		.4byte	.LASF103
 1007 0626 0B       		.byte	0xb
 1008 0627 3C       		.byte	0x3c
 1009 0628 EE000000 		.4byte	0xee
 1010 062c 00       		.byte	0
 1011 062d 00       		.byte	0
 1012 062e 03       		.uleb128 0x3
 1013 062f 63040000 		.4byte	.LASF104
 1014 0633 0B       		.byte	0xb
ARM GAS  /tmp/cclIzo2l.s 			page 19


 1015 0634 3D       		.byte	0x3d
 1016 0635 19060000 		.4byte	0x619
 1017 0639 13       		.uleb128 0x13
 1018 063a 18       		.byte	0x18
 1019 063b 0B       		.byte	0xb
 1020 063c 48       		.byte	0x48
 1021 063d 7C060000 		.4byte	0x67c
 1022 0641 07       		.uleb128 0x7
 1023 0642 DC050000 		.4byte	.LASF105
 1024 0646 0B       		.byte	0xb
 1025 0647 49       		.byte	0x49
 1026 0648 EE000000 		.4byte	0xee
 1027 064c 00       		.byte	0
 1028 064d 07       		.uleb128 0x7
 1029 064e 8A000000 		.4byte	.LASF106
 1030 0652 0B       		.byte	0xb
 1031 0653 4A       		.byte	0x4a
 1032 0654 EE000000 		.4byte	0xee
 1033 0658 04       		.byte	0x4
 1034 0659 07       		.uleb128 0x7
 1035 065a 7E030000 		.4byte	.LASF107
 1036 065e 0B       		.byte	0xb
 1037 065f 4B       		.byte	0x4b
 1038 0660 EE000000 		.4byte	0xee
 1039 0664 08       		.byte	0x8
 1040 0665 12       		.uleb128 0x12
 1041 0666 6E00     		.ascii	"n\000"
 1042 0668 0B       		.byte	0xb
 1043 0669 4C       		.byte	0x4c
 1044 066a 51010000 		.4byte	0x151
 1045 066e 0C       		.byte	0xc
 1046 066f 07       		.uleb128 0x7
 1047 0670 A3040000 		.4byte	.LASF108
 1048 0674 0B       		.byte	0xb
 1049 0675 4D       		.byte	0x4d
 1050 0676 F9000000 		.4byte	0xf9
 1051 067a 10       		.byte	0x10
 1052 067b 00       		.byte	0
 1053 067c 03       		.uleb128 0x3
 1054 067d 90000000 		.4byte	.LASF109
 1055 0681 0B       		.byte	0xb
 1056 0682 4E       		.byte	0x4e
 1057 0683 39060000 		.4byte	0x639
 1058 0687 13       		.uleb128 0x13
 1059 0688 38       		.byte	0x38
 1060 0689 0C       		.byte	0xc
 1061 068a 38       		.byte	0x38
 1062 068b C0060000 		.4byte	0x6c0
 1063 068f 07       		.uleb128 0x7
 1064 0690 40030000 		.4byte	.LASF110
 1065 0694 0C       		.byte	0xc
 1066 0695 39       		.byte	0x39
 1067 0696 51010000 		.4byte	0x151
 1068 069a 00       		.byte	0
 1069 069b 07       		.uleb128 0x7
 1070 069c E4040000 		.4byte	.LASF111
 1071 06a0 0C       		.byte	0xc
ARM GAS  /tmp/cclIzo2l.s 			page 20


 1072 06a1 3A       		.byte	0x3a
 1073 06a2 51010000 		.4byte	0x151
 1074 06a6 04       		.byte	0x4
 1075 06a7 07       		.uleb128 0x7
 1076 06a8 B1060000 		.4byte	.LASF112
 1077 06ac 0C       		.byte	0xc
 1078 06ad 3B       		.byte	0x3b
 1079 06ae 7C060000 		.4byte	0x67c
 1080 06b2 08       		.byte	0x8
 1081 06b3 07       		.uleb128 0x7
 1082 06b4 AC030000 		.4byte	.LASF113
 1083 06b8 0C       		.byte	0xc
 1084 06b9 3D       		.byte	0x3d
 1085 06ba 7C060000 		.4byte	0x67c
 1086 06be 20       		.byte	0x20
 1087 06bf 00       		.byte	0
 1088 06c0 03       		.uleb128 0x3
 1089 06c1 5F030000 		.4byte	.LASF114
 1090 06c5 0C       		.byte	0xc
 1091 06c6 3F       		.byte	0x3f
 1092 06c7 87060000 		.4byte	0x687
 1093 06cb 17       		.uleb128 0x17
 1094 06cc 04       		.byte	0x4
 1095 06cd 07       		.byte	0x7
 1096 06ce FA       		.byte	0xfa
 1097 06cf 28070000 		.4byte	0x728
 1098 06d3 18       		.uleb128 0x18
 1099 06d4 23000000 		.4byte	.LASF115
 1100 06d8 07       		.byte	0x7
 1101 06d9 0101     		.2byte	0x101
 1102 06db 30010000 		.4byte	0x130
 1103 06df 18       		.uleb128 0x18
 1104 06e0 E1000000 		.4byte	.LASF116
 1105 06e4 07       		.byte	0x7
 1106 06e5 0801     		.2byte	0x108
 1107 06e7 30010000 		.4byte	0x130
 1108 06eb 18       		.uleb128 0x18
 1109 06ec 7C060000 		.4byte	.LASF117
 1110 06f0 07       		.byte	0x7
 1111 06f1 0F01     		.2byte	0x10f
 1112 06f3 60030000 		.4byte	0x360
 1113 06f7 18       		.uleb128 0x18
 1114 06f8 5E010000 		.4byte	.LASF118
 1115 06fc 07       		.byte	0x7
 1116 06fd 1601     		.2byte	0x116
 1117 06ff 28070000 		.4byte	0x728
 1118 0703 18       		.uleb128 0x18
 1119 0704 FD020000 		.4byte	.LASF119
 1120 0708 07       		.byte	0x7
 1121 0709 1E01     		.2byte	0x11e
 1122 070b 53070000 		.4byte	0x753
 1123 070f 18       		.uleb128 0x18
 1124 0710 89050000 		.4byte	.LASF120
 1125 0714 07       		.byte	0x7
 1126 0715 2701     		.2byte	0x127
 1127 0717 8A070000 		.4byte	0x78a
 1128 071b 18       		.uleb128 0x18
ARM GAS  /tmp/cclIzo2l.s 			page 21


 1129 071c 39050000 		.4byte	.LASF121
 1130 0720 07       		.byte	0x7
 1131 0721 2F01     		.2byte	0x12f
 1132 0723 3B010000 		.4byte	0x13b
 1133 0727 00       		.byte	0
 1134 0728 0A       		.uleb128 0xa
 1135 0729 04       		.byte	0x4
 1136 072a 78020000 		.4byte	0x278
 1137 072e 06       		.uleb128 0x6
 1138 072f 68050000 		.4byte	.LASF122
 1139 0733 0C       		.byte	0xc
 1140 0734 0D       		.byte	0xd
 1141 0735 34       		.byte	0x34
 1142 0736 53070000 		.4byte	0x753
 1143 073a 07       		.uleb128 0x7
 1144 073b 62020000 		.4byte	.LASF123
 1145 073f 0D       		.byte	0xd
 1146 0740 35       		.byte	0x35
 1147 0741 AD020000 		.4byte	0x2ad
 1148 0745 00       		.byte	0
 1149 0746 07       		.uleb128 0x7
 1150 0747 46030000 		.4byte	.LASF124
 1151 074b 0D       		.byte	0xd
 1152 074c 37       		.byte	0x37
 1153 074d 46010000 		.4byte	0x146
 1154 0751 08       		.byte	0x8
 1155 0752 00       		.byte	0
 1156 0753 0A       		.uleb128 0xa
 1157 0754 04       		.byte	0x4
 1158 0755 2E070000 		.4byte	0x72e
 1159 0759 06       		.uleb128 0x6
 1160 075a 56060000 		.4byte	.LASF125
 1161 075e 10       		.byte	0x10
 1162 075f 0E       		.byte	0xe
 1163 0760 39       		.byte	0x39
 1164 0761 8A070000 		.4byte	0x78a
 1165 0765 07       		.uleb128 0x7
 1166 0766 4F010000 		.4byte	.LASF126
 1167 076a 0E       		.byte	0xe
 1168 076b 3A       		.byte	0x3a
 1169 076c AD020000 		.4byte	0x2ad
 1170 0770 00       		.byte	0
 1171 0771 07       		.uleb128 0x7
 1172 0772 BC060000 		.4byte	.LASF127
 1173 0776 0E       		.byte	0xe
 1174 0777 3C       		.byte	0x3c
 1175 0778 83020000 		.4byte	0x283
 1176 077c 08       		.byte	0x8
 1177 077d 07       		.uleb128 0x7
 1178 077e E1050000 		.4byte	.LASF128
 1179 0782 0E       		.byte	0xe
 1180 0783 3E       		.byte	0x3e
 1181 0784 CE070000 		.4byte	0x7ce
 1182 0788 0C       		.byte	0xc
 1183 0789 00       		.byte	0
 1184 078a 0A       		.uleb128 0xa
 1185 078b 04       		.byte	0x4
ARM GAS  /tmp/cclIzo2l.s 			page 22


 1186 078c 59070000 		.4byte	0x759
 1187 0790 0A       		.uleb128 0xa
 1188 0791 04       		.byte	0x4
 1189 0792 96070000 		.4byte	0x796
 1190 0796 19       		.uleb128 0x19
 1191 0797 9B070000 		.4byte	0x79b
 1192 079b 04       		.uleb128 0x4
 1193 079c 01       		.byte	0x1
 1194 079d 08       		.byte	0x8
 1195 079e C3050000 		.4byte	.LASF129
 1196 07a2 0A       		.uleb128 0xa
 1197 07a3 04       		.byte	0x4
 1198 07a4 E1040000 		.4byte	0x4e1
 1199 07a8 0A       		.uleb128 0xa
 1200 07a9 04       		.byte	0x4
 1201 07aa 62030000 		.4byte	0x362
 1202 07ae 05       		.uleb128 0x5
 1203 07af 90070000 		.4byte	0x790
 1204 07b3 15       		.uleb128 0x15
 1205 07b4 E1040000 		.4byte	0x4e1
 1206 07b8 C3070000 		.4byte	0x7c3
 1207 07bc 16       		.uleb128 0x16
 1208 07bd CF040000 		.4byte	0x4cf
 1209 07c1 1E       		.byte	0x1e
 1210 07c2 00       		.byte	0
 1211 07c3 03       		.uleb128 0x3
 1212 07c4 AE020000 		.4byte	.LASF130
 1213 07c8 0E       		.byte	0xe
 1214 07c9 34       		.byte	0x34
 1215 07ca 59070000 		.4byte	0x759
 1216 07ce 0A       		.uleb128 0xa
 1217 07cf 04       		.byte	0x4
 1218 07d0 C3070000 		.4byte	0x7c3
 1219 07d4 04       		.uleb128 0x4
 1220 07d5 01       		.byte	0x1
 1221 07d6 02       		.byte	0x2
 1222 07d7 ED040000 		.4byte	.LASF131
 1223 07db 13       		.uleb128 0x13
 1224 07dc 04       		.byte	0x4
 1225 07dd 0F       		.byte	0xf
 1226 07de B7       		.byte	0xb7
 1227 07df FC070000 		.4byte	0x7fc
 1228 07e3 12       		.uleb128 0x12
 1229 07e4 73657400 		.ascii	"set\000"
 1230 07e8 0F       		.byte	0xf
 1231 07e9 B8       		.byte	0xb8
 1232 07ea B8000000 		.4byte	0xb8
 1233 07ee 00       		.byte	0
 1234 07ef 07       		.uleb128 0x7
 1235 07f0 34040000 		.4byte	.LASF132
 1236 07f4 0F       		.byte	0xf
 1237 07f5 B9       		.byte	0xb9
 1238 07f6 B8000000 		.4byte	0xb8
 1239 07fa 02       		.byte	0x2
 1240 07fb 00       		.byte	0
 1241 07fc 17       		.uleb128 0x17
 1242 07fd 04       		.byte	0x4
ARM GAS  /tmp/cclIzo2l.s 			page 23


 1243 07fe 0F       		.byte	0xf
 1244 07ff B5       		.byte	0xb5
 1245 0800 17080000 		.4byte	0x817
 1246 0804 1A       		.uleb128 0x1a
 1247 0805 5700     		.ascii	"W\000"
 1248 0807 0F       		.byte	0xf
 1249 0808 B6       		.byte	0xb6
 1250 0809 CE000000 		.4byte	0xce
 1251 080d 1A       		.uleb128 0x1a
 1252 080e 4800     		.ascii	"H\000"
 1253 0810 0F       		.byte	0xf
 1254 0811 BA       		.byte	0xba
 1255 0812 DB070000 		.4byte	0x7db
 1256 0816 00       		.byte	0
 1257 0817 13       		.uleb128 0x13
 1258 0818 2C       		.byte	0x2c
 1259 0819 0F       		.byte	0xf
 1260 081a AD       		.byte	0xad
 1261 081b A4080000 		.4byte	0x8a4
 1262 081f 07       		.uleb128 0x7
 1263 0820 A3000000 		.4byte	.LASF133
 1264 0824 0F       		.byte	0xf
 1265 0825 AF       		.byte	0xaf
 1266 0826 E9000000 		.4byte	0xe9
 1267 082a 00       		.byte	0
 1268 082b 07       		.uleb128 0x7
 1269 082c 4A000000 		.4byte	.LASF134
 1270 0830 0F       		.byte	0xf
 1271 0831 B0       		.byte	0xb0
 1272 0832 E9000000 		.4byte	0xe9
 1273 0836 04       		.byte	0x4
 1274 0837 07       		.uleb128 0x7
 1275 0838 72020000 		.4byte	.LASF135
 1276 083c 0F       		.byte	0xf
 1277 083d B1       		.byte	0xb1
 1278 083e E9000000 		.4byte	0xe9
 1279 0842 08       		.byte	0x8
 1280 0843 07       		.uleb128 0x7
 1281 0844 DB000000 		.4byte	.LASF136
 1282 0848 0F       		.byte	0xf
 1283 0849 B2       		.byte	0xb2
 1284 084a E9000000 		.4byte	0xe9
 1285 084e 0C       		.byte	0xc
 1286 084f 12       		.uleb128 0x12
 1287 0850 49445200 		.ascii	"IDR\000"
 1288 0854 0F       		.byte	0xf
 1289 0855 B3       		.byte	0xb3
 1290 0856 E9000000 		.4byte	0xe9
 1291 085a 10       		.byte	0x10
 1292 085b 12       		.uleb128 0x12
 1293 085c 4F445200 		.ascii	"ODR\000"
 1294 0860 0F       		.byte	0xf
 1295 0861 B4       		.byte	0xb4
 1296 0862 E9000000 		.4byte	0xe9
 1297 0866 14       		.byte	0x14
 1298 0867 07       		.uleb128 0x7
 1299 0868 42010000 		.4byte	.LASF137
ARM GAS  /tmp/cclIzo2l.s 			page 24


 1300 086c 0F       		.byte	0xf
 1301 086d BB       		.byte	0xbb
 1302 086e A4080000 		.4byte	0x8a4
 1303 0872 18       		.byte	0x18
 1304 0873 07       		.uleb128 0x7
 1305 0874 3B030000 		.4byte	.LASF138
 1306 0878 0F       		.byte	0xf
 1307 0879 BC       		.byte	0xbc
 1308 087a E9000000 		.4byte	0xe9
 1309 087e 1C       		.byte	0x1c
 1310 087f 07       		.uleb128 0x7
 1311 0880 AE040000 		.4byte	.LASF139
 1312 0884 0F       		.byte	0xf
 1313 0885 BD       		.byte	0xbd
 1314 0886 E9000000 		.4byte	0xe9
 1315 088a 20       		.byte	0x20
 1316 088b 07       		.uleb128 0x7
 1317 088c 9E040000 		.4byte	.LASF140
 1318 0890 0F       		.byte	0xf
 1319 0891 BE       		.byte	0xbe
 1320 0892 E9000000 		.4byte	0xe9
 1321 0896 24       		.byte	0x24
 1322 0897 12       		.uleb128 0x12
 1323 0898 42525200 		.ascii	"BRR\000"
 1324 089c 0F       		.byte	0xf
 1325 089d BF       		.byte	0xbf
 1326 089e E9000000 		.4byte	0xe9
 1327 08a2 28       		.byte	0x28
 1328 08a3 00       		.byte	0
 1329 08a4 05       		.uleb128 0x5
 1330 08a5 FC070000 		.4byte	0x7fc
 1331 08a9 03       		.uleb128 0x3
 1332 08aa 25050000 		.4byte	.LASF141
 1333 08ae 0F       		.byte	0xf
 1334 08af C0       		.byte	0xc0
 1335 08b0 17080000 		.4byte	0x817
 1336 08b4 1B       		.uleb128 0x1b
 1337 08b5 7D000000 		.4byte	.LASF142
 1338 08b9 0F       		.byte	0xf
 1339 08ba 1A01     		.2byte	0x11a
 1340 08bc CE000000 		.4byte	0xce
 1341 08c0 1C       		.uleb128 0x1c
 1342 08c1 AC060000 		.4byte	.LASF155
 1343 08c5 01       		.byte	0x1
 1344 08c6 06       		.byte	0x6
 1345 08c7 25000000 		.4byte	0x25
 1346 08cb 00000000 		.4byte	.LFB271
 1347 08cf 80000000 		.4byte	.LFE271-.LFB271
 1348 08d3 01       		.uleb128 0x1
 1349 08d4 9C       		.byte	0x9c
 1350 08d5 F6080000 		.4byte	0x8f6
 1351 08d9 1D       		.uleb128 0x1d
 1352 08da 14040000 		.4byte	.LASF143
 1353 08de 01       		.byte	0x1
 1354 08df 09       		.byte	0x9
 1355 08e0 83020000 		.4byte	0x283
 1356 08e4 02       		.uleb128 0x2
ARM GAS  /tmp/cclIzo2l.s 			page 25


 1357 08e5 91       		.byte	0x91
 1358 08e6 74       		.sleb128 -12
 1359 08e7 1D       		.uleb128 0x1d
 1360 08e8 96030000 		.4byte	.LASF144
 1361 08ec 01       		.byte	0x1
 1362 08ed 09       		.byte	0x9
 1363 08ee 83020000 		.4byte	0x283
 1364 08f2 02       		.uleb128 0x2
 1365 08f3 91       		.byte	0x91
 1366 08f4 70       		.sleb128 -16
 1367 08f5 00       		.byte	0
 1368 08f6 1E       		.uleb128 0x1e
 1369 08f7 E6030000 		.4byte	.LASF145
 1370 08fb 01       		.byte	0x1
 1371 08fc 1F       		.byte	0x1f
 1372 08fd 00000000 		.4byte	.LFB272
 1373 0901 64000000 		.4byte	.LFE272-.LFB272
 1374 0905 01       		.uleb128 0x1
 1375 0906 9C       		.byte	0x9c
 1376 0907 1F       		.uleb128 0x1f
 1377 0908 86010000 		.4byte	.LASF146
 1378 090c 01       		.byte	0x1
 1379 090d 38       		.byte	0x38
 1380 090e 00000000 		.4byte	.LFB273
 1381 0912 10000000 		.4byte	.LFE273-.LFB273
 1382 0916 01       		.uleb128 0x1
 1383 0917 9C       		.byte	0x9c
 1384 0918 1F       		.uleb128 0x1f
 1385 0919 74040000 		.4byte	.LASF147
 1386 091d 01       		.byte	0x1
 1387 091e 42       		.byte	0x42
 1388 091f 00000000 		.4byte	.LFB274
 1389 0923 04000000 		.4byte	.LFE274-.LFB274
 1390 0927 01       		.uleb128 0x1
 1391 0928 9C       		.byte	0x9c
 1392 0929 15       		.uleb128 0x15
 1393 092a E1040000 		.4byte	0x4e1
 1394 092e 39090000 		.4byte	0x939
 1395 0932 16       		.uleb128 0x16
 1396 0933 CF040000 		.4byte	0x4cf
 1397 0937 2C       		.byte	0x2c
 1398 0938 00       		.byte	0
 1399 0939 1D       		.uleb128 0x1d
 1400 093a 11060000 		.4byte	.LASF148
 1401 093e 10       		.byte	0x10
 1402 093f 0E       		.byte	0xe
 1403 0940 29090000 		.4byte	0x929
 1404 0944 05       		.uleb128 0x5
 1405 0945 03       		.byte	0x3
 1406 0946 00000000 		.4byte	serialListen
 1407 094a 1D       		.uleb128 0x1d
 1408 094b A3020000 		.4byte	.LASF149
 1409 094f 10       		.byte	0x10
 1410 0950 0F       		.byte	0xf
 1411 0951 29090000 		.4byte	0x929
 1412 0955 05       		.uleb128 0x5
 1413 0956 03       		.byte	0x3
ARM GAS  /tmp/cclIzo2l.s 			page 26


 1414 0957 00000000 		.4byte	serialTalk
 1415 095b 20       		.uleb128 0x20
 1416 095c 0B010000 		.4byte	.LASF150
 1417 0960 11       		.byte	0x11
 1418 0961 FA06     		.2byte	0x6fa
 1419 0963 E4000000 		.4byte	0xe4
 1420 0967 21       		.uleb128 0x21
 1421 0968 636800   		.ascii	"ch\000"
 1422 096b 07       		.byte	0x7
 1423 096c 0902     		.2byte	0x209
 1424 096e 57040000 		.4byte	0x457
 1425 0972 22       		.uleb128 0x22
 1426 0973 9A010000 		.4byte	.LASF151
 1427 0977 01       		.byte	0x1
 1428 0978 03       		.byte	0x3
 1429 0979 AD000000 		.4byte	0xad
 1430 097d 05       		.uleb128 0x5
 1431 097e 03       		.byte	0x3
 1432 097f 00000000 		.4byte	cca_exp_io_mode
 1433 0983 00       		.byte	0
 1434              		.section	.debug_abbrev,"",%progbits
 1435              	.Ldebug_abbrev0:
 1436 0000 01       		.uleb128 0x1
 1437 0001 11       		.uleb128 0x11
 1438 0002 01       		.byte	0x1
 1439 0003 25       		.uleb128 0x25
 1440 0004 0E       		.uleb128 0xe
 1441 0005 13       		.uleb128 0x13
 1442 0006 0B       		.uleb128 0xb
 1443 0007 03       		.uleb128 0x3
 1444 0008 0E       		.uleb128 0xe
 1445 0009 1B       		.uleb128 0x1b
 1446 000a 0E       		.uleb128 0xe
 1447 000b 55       		.uleb128 0x55
 1448 000c 17       		.uleb128 0x17
 1449 000d 11       		.uleb128 0x11
 1450 000e 01       		.uleb128 0x1
 1451 000f 10       		.uleb128 0x10
 1452 0010 17       		.uleb128 0x17
 1453 0011 00       		.byte	0
 1454 0012 00       		.byte	0
 1455 0013 02       		.uleb128 0x2
 1456 0014 24       		.uleb128 0x24
 1457 0015 00       		.byte	0
 1458 0016 0B       		.uleb128 0xb
 1459 0017 0B       		.uleb128 0xb
 1460 0018 3E       		.uleb128 0x3e
 1461 0019 0B       		.uleb128 0xb
 1462 001a 03       		.uleb128 0x3
 1463 001b 08       		.uleb128 0x8
 1464 001c 00       		.byte	0
 1465 001d 00       		.byte	0
 1466 001e 03       		.uleb128 0x3
 1467 001f 16       		.uleb128 0x16
 1468 0020 00       		.byte	0
 1469 0021 03       		.uleb128 0x3
 1470 0022 0E       		.uleb128 0xe
ARM GAS  /tmp/cclIzo2l.s 			page 27


 1471 0023 3A       		.uleb128 0x3a
 1472 0024 0B       		.uleb128 0xb
 1473 0025 3B       		.uleb128 0x3b
 1474 0026 0B       		.uleb128 0xb
 1475 0027 49       		.uleb128 0x49
 1476 0028 13       		.uleb128 0x13
 1477 0029 00       		.byte	0
 1478 002a 00       		.byte	0
 1479 002b 04       		.uleb128 0x4
 1480 002c 24       		.uleb128 0x24
 1481 002d 00       		.byte	0
 1482 002e 0B       		.uleb128 0xb
 1483 002f 0B       		.uleb128 0xb
 1484 0030 3E       		.uleb128 0x3e
 1485 0031 0B       		.uleb128 0xb
 1486 0032 03       		.uleb128 0x3
 1487 0033 0E       		.uleb128 0xe
 1488 0034 00       		.byte	0
 1489 0035 00       		.byte	0
 1490 0036 05       		.uleb128 0x5
 1491 0037 35       		.uleb128 0x35
 1492 0038 00       		.byte	0
 1493 0039 49       		.uleb128 0x49
 1494 003a 13       		.uleb128 0x13
 1495 003b 00       		.byte	0
 1496 003c 00       		.byte	0
 1497 003d 06       		.uleb128 0x6
 1498 003e 13       		.uleb128 0x13
 1499 003f 01       		.byte	0x1
 1500 0040 03       		.uleb128 0x3
 1501 0041 0E       		.uleb128 0xe
 1502 0042 0B       		.uleb128 0xb
 1503 0043 0B       		.uleb128 0xb
 1504 0044 3A       		.uleb128 0x3a
 1505 0045 0B       		.uleb128 0xb
 1506 0046 3B       		.uleb128 0x3b
 1507 0047 0B       		.uleb128 0xb
 1508 0048 01       		.uleb128 0x1
 1509 0049 13       		.uleb128 0x13
 1510 004a 00       		.byte	0
 1511 004b 00       		.byte	0
 1512 004c 07       		.uleb128 0x7
 1513 004d 0D       		.uleb128 0xd
 1514 004e 00       		.byte	0
 1515 004f 03       		.uleb128 0x3
 1516 0050 0E       		.uleb128 0xe
 1517 0051 3A       		.uleb128 0x3a
 1518 0052 0B       		.uleb128 0xb
 1519 0053 3B       		.uleb128 0x3b
 1520 0054 0B       		.uleb128 0xb
 1521 0055 49       		.uleb128 0x49
 1522 0056 13       		.uleb128 0x13
 1523 0057 38       		.uleb128 0x38
 1524 0058 0B       		.uleb128 0xb
 1525 0059 00       		.byte	0
 1526 005a 00       		.byte	0
 1527 005b 08       		.uleb128 0x8
ARM GAS  /tmp/cclIzo2l.s 			page 28


 1528 005c 0D       		.uleb128 0xd
 1529 005d 00       		.byte	0
 1530 005e 03       		.uleb128 0x3
 1531 005f 08       		.uleb128 0x8
 1532 0060 3A       		.uleb128 0x3a
 1533 0061 0B       		.uleb128 0xb
 1534 0062 3B       		.uleb128 0x3b
 1535 0063 05       		.uleb128 0x5
 1536 0064 49       		.uleb128 0x49
 1537 0065 13       		.uleb128 0x13
 1538 0066 38       		.uleb128 0x38
 1539 0067 0B       		.uleb128 0xb
 1540 0068 00       		.byte	0
 1541 0069 00       		.byte	0
 1542 006a 09       		.uleb128 0x9
 1543 006b 0D       		.uleb128 0xd
 1544 006c 00       		.byte	0
 1545 006d 03       		.uleb128 0x3
 1546 006e 0E       		.uleb128 0xe
 1547 006f 3A       		.uleb128 0x3a
 1548 0070 0B       		.uleb128 0xb
 1549 0071 3B       		.uleb128 0x3b
 1550 0072 05       		.uleb128 0x5
 1551 0073 49       		.uleb128 0x49
 1552 0074 13       		.uleb128 0x13
 1553 0075 38       		.uleb128 0x38
 1554 0076 0B       		.uleb128 0xb
 1555 0077 00       		.byte	0
 1556 0078 00       		.byte	0
 1557 0079 0A       		.uleb128 0xa
 1558 007a 0F       		.uleb128 0xf
 1559 007b 00       		.byte	0
 1560 007c 0B       		.uleb128 0xb
 1561 007d 0B       		.uleb128 0xb
 1562 007e 49       		.uleb128 0x49
 1563 007f 13       		.uleb128 0x13
 1564 0080 00       		.byte	0
 1565 0081 00       		.byte	0
 1566 0082 0B       		.uleb128 0xb
 1567 0083 13       		.uleb128 0x13
 1568 0084 01       		.byte	0x1
 1569 0085 03       		.uleb128 0x3
 1570 0086 0E       		.uleb128 0xe
 1571 0087 0B       		.uleb128 0xb
 1572 0088 0B       		.uleb128 0xb
 1573 0089 3A       		.uleb128 0x3a
 1574 008a 0B       		.uleb128 0xb
 1575 008b 3B       		.uleb128 0x3b
 1576 008c 05       		.uleb128 0x5
 1577 008d 01       		.uleb128 0x1
 1578 008e 13       		.uleb128 0x13
 1579 008f 00       		.byte	0
 1580 0090 00       		.byte	0
 1581 0091 0C       		.uleb128 0xc
 1582 0092 15       		.uleb128 0x15
 1583 0093 01       		.byte	0x1
 1584 0094 27       		.uleb128 0x27
ARM GAS  /tmp/cclIzo2l.s 			page 29


 1585 0095 19       		.uleb128 0x19
 1586 0096 01       		.uleb128 0x1
 1587 0097 13       		.uleb128 0x13
 1588 0098 00       		.byte	0
 1589 0099 00       		.byte	0
 1590 009a 0D       		.uleb128 0xd
 1591 009b 05       		.uleb128 0x5
 1592 009c 00       		.byte	0
 1593 009d 49       		.uleb128 0x49
 1594 009e 13       		.uleb128 0x13
 1595 009f 00       		.byte	0
 1596 00a0 00       		.byte	0
 1597 00a1 0E       		.uleb128 0xe
 1598 00a2 0F       		.uleb128 0xf
 1599 00a3 00       		.byte	0
 1600 00a4 0B       		.uleb128 0xb
 1601 00a5 0B       		.uleb128 0xb
 1602 00a6 00       		.byte	0
 1603 00a7 00       		.byte	0
 1604 00a8 0F       		.uleb128 0xf
 1605 00a9 13       		.uleb128 0x13
 1606 00aa 01       		.byte	0x1
 1607 00ab 03       		.uleb128 0x3
 1608 00ac 0E       		.uleb128 0xe
 1609 00ad 0B       		.uleb128 0xb
 1610 00ae 05       		.uleb128 0x5
 1611 00af 3A       		.uleb128 0x3a
 1612 00b0 0B       		.uleb128 0xb
 1613 00b1 3B       		.uleb128 0x3b
 1614 00b2 05       		.uleb128 0x5
 1615 00b3 01       		.uleb128 0x1
 1616 00b4 13       		.uleb128 0x13
 1617 00b5 00       		.byte	0
 1618 00b6 00       		.byte	0
 1619 00b7 10       		.uleb128 0x10
 1620 00b8 0D       		.uleb128 0xd
 1621 00b9 00       		.byte	0
 1622 00ba 03       		.uleb128 0x3
 1623 00bb 0E       		.uleb128 0xe
 1624 00bc 3A       		.uleb128 0x3a
 1625 00bd 0B       		.uleb128 0xb
 1626 00be 3B       		.uleb128 0x3b
 1627 00bf 05       		.uleb128 0x5
 1628 00c0 49       		.uleb128 0x49
 1629 00c1 13       		.uleb128 0x13
 1630 00c2 38       		.uleb128 0x38
 1631 00c3 05       		.uleb128 0x5
 1632 00c4 00       		.byte	0
 1633 00c5 00       		.byte	0
 1634 00c6 11       		.uleb128 0x11
 1635 00c7 0D       		.uleb128 0xd
 1636 00c8 00       		.byte	0
 1637 00c9 03       		.uleb128 0x3
 1638 00ca 08       		.uleb128 0x8
 1639 00cb 3A       		.uleb128 0x3a
 1640 00cc 0B       		.uleb128 0xb
 1641 00cd 3B       		.uleb128 0x3b
ARM GAS  /tmp/cclIzo2l.s 			page 30


 1642 00ce 05       		.uleb128 0x5
 1643 00cf 49       		.uleb128 0x49
 1644 00d0 13       		.uleb128 0x13
 1645 00d1 38       		.uleb128 0x38
 1646 00d2 05       		.uleb128 0x5
 1647 00d3 00       		.byte	0
 1648 00d4 00       		.byte	0
 1649 00d5 12       		.uleb128 0x12
 1650 00d6 0D       		.uleb128 0xd
 1651 00d7 00       		.byte	0
 1652 00d8 03       		.uleb128 0x3
 1653 00d9 08       		.uleb128 0x8
 1654 00da 3A       		.uleb128 0x3a
 1655 00db 0B       		.uleb128 0xb
 1656 00dc 3B       		.uleb128 0x3b
 1657 00dd 0B       		.uleb128 0xb
 1658 00de 49       		.uleb128 0x49
 1659 00df 13       		.uleb128 0x13
 1660 00e0 38       		.uleb128 0x38
 1661 00e1 0B       		.uleb128 0xb
 1662 00e2 00       		.byte	0
 1663 00e3 00       		.byte	0
 1664 00e4 13       		.uleb128 0x13
 1665 00e5 13       		.uleb128 0x13
 1666 00e6 01       		.byte	0x1
 1667 00e7 0B       		.uleb128 0xb
 1668 00e8 0B       		.uleb128 0xb
 1669 00e9 3A       		.uleb128 0x3a
 1670 00ea 0B       		.uleb128 0xb
 1671 00eb 3B       		.uleb128 0x3b
 1672 00ec 0B       		.uleb128 0xb
 1673 00ed 01       		.uleb128 0x1
 1674 00ee 13       		.uleb128 0x13
 1675 00ef 00       		.byte	0
 1676 00f0 00       		.byte	0
 1677 00f1 14       		.uleb128 0x14
 1678 00f2 13       		.uleb128 0x13
 1679 00f3 01       		.byte	0x1
 1680 00f4 0B       		.uleb128 0xb
 1681 00f5 05       		.uleb128 0x5
 1682 00f6 3A       		.uleb128 0x3a
 1683 00f7 0B       		.uleb128 0xb
 1684 00f8 3B       		.uleb128 0x3b
 1685 00f9 0B       		.uleb128 0xb
 1686 00fa 01       		.uleb128 0x1
 1687 00fb 13       		.uleb128 0x13
 1688 00fc 00       		.byte	0
 1689 00fd 00       		.byte	0
 1690 00fe 15       		.uleb128 0x15
 1691 00ff 01       		.uleb128 0x1
 1692 0100 01       		.byte	0x1
 1693 0101 49       		.uleb128 0x49
 1694 0102 13       		.uleb128 0x13
 1695 0103 01       		.uleb128 0x1
 1696 0104 13       		.uleb128 0x13
 1697 0105 00       		.byte	0
 1698 0106 00       		.byte	0
ARM GAS  /tmp/cclIzo2l.s 			page 31


 1699 0107 16       		.uleb128 0x16
 1700 0108 21       		.uleb128 0x21
 1701 0109 00       		.byte	0
 1702 010a 49       		.uleb128 0x49
 1703 010b 13       		.uleb128 0x13
 1704 010c 2F       		.uleb128 0x2f
 1705 010d 0B       		.uleb128 0xb
 1706 010e 00       		.byte	0
 1707 010f 00       		.byte	0
 1708 0110 17       		.uleb128 0x17
 1709 0111 17       		.uleb128 0x17
 1710 0112 01       		.byte	0x1
 1711 0113 0B       		.uleb128 0xb
 1712 0114 0B       		.uleb128 0xb
 1713 0115 3A       		.uleb128 0x3a
 1714 0116 0B       		.uleb128 0xb
 1715 0117 3B       		.uleb128 0x3b
 1716 0118 0B       		.uleb128 0xb
 1717 0119 01       		.uleb128 0x1
 1718 011a 13       		.uleb128 0x13
 1719 011b 00       		.byte	0
 1720 011c 00       		.byte	0
 1721 011d 18       		.uleb128 0x18
 1722 011e 0D       		.uleb128 0xd
 1723 011f 00       		.byte	0
 1724 0120 03       		.uleb128 0x3
 1725 0121 0E       		.uleb128 0xe
 1726 0122 3A       		.uleb128 0x3a
 1727 0123 0B       		.uleb128 0xb
 1728 0124 3B       		.uleb128 0x3b
 1729 0125 05       		.uleb128 0x5
 1730 0126 49       		.uleb128 0x49
 1731 0127 13       		.uleb128 0x13
 1732 0128 00       		.byte	0
 1733 0129 00       		.byte	0
 1734 012a 19       		.uleb128 0x19
 1735 012b 26       		.uleb128 0x26
 1736 012c 00       		.byte	0
 1737 012d 49       		.uleb128 0x49
 1738 012e 13       		.uleb128 0x13
 1739 012f 00       		.byte	0
 1740 0130 00       		.byte	0
 1741 0131 1A       		.uleb128 0x1a
 1742 0132 0D       		.uleb128 0xd
 1743 0133 00       		.byte	0
 1744 0134 03       		.uleb128 0x3
 1745 0135 08       		.uleb128 0x8
 1746 0136 3A       		.uleb128 0x3a
 1747 0137 0B       		.uleb128 0xb
 1748 0138 3B       		.uleb128 0x3b
 1749 0139 0B       		.uleb128 0xb
 1750 013a 49       		.uleb128 0x49
 1751 013b 13       		.uleb128 0x13
 1752 013c 00       		.byte	0
 1753 013d 00       		.byte	0
 1754 013e 1B       		.uleb128 0x1b
 1755 013f 16       		.uleb128 0x16
ARM GAS  /tmp/cclIzo2l.s 			page 32


 1756 0140 00       		.byte	0
 1757 0141 03       		.uleb128 0x3
 1758 0142 0E       		.uleb128 0xe
 1759 0143 3A       		.uleb128 0x3a
 1760 0144 0B       		.uleb128 0xb
 1761 0145 3B       		.uleb128 0x3b
 1762 0146 05       		.uleb128 0x5
 1763 0147 49       		.uleb128 0x49
 1764 0148 13       		.uleb128 0x13
 1765 0149 00       		.byte	0
 1766 014a 00       		.byte	0
 1767 014b 1C       		.uleb128 0x1c
 1768 014c 2E       		.uleb128 0x2e
 1769 014d 01       		.byte	0x1
 1770 014e 3F       		.uleb128 0x3f
 1771 014f 19       		.uleb128 0x19
 1772 0150 03       		.uleb128 0x3
 1773 0151 0E       		.uleb128 0xe
 1774 0152 3A       		.uleb128 0x3a
 1775 0153 0B       		.uleb128 0xb
 1776 0154 3B       		.uleb128 0x3b
 1777 0155 0B       		.uleb128 0xb
 1778 0156 27       		.uleb128 0x27
 1779 0157 19       		.uleb128 0x19
 1780 0158 49       		.uleb128 0x49
 1781 0159 13       		.uleb128 0x13
 1782 015a 11       		.uleb128 0x11
 1783 015b 01       		.uleb128 0x1
 1784 015c 12       		.uleb128 0x12
 1785 015d 06       		.uleb128 0x6
 1786 015e 40       		.uleb128 0x40
 1787 015f 18       		.uleb128 0x18
 1788 0160 9642     		.uleb128 0x2116
 1789 0162 19       		.uleb128 0x19
 1790 0163 01       		.uleb128 0x1
 1791 0164 13       		.uleb128 0x13
 1792 0165 00       		.byte	0
 1793 0166 00       		.byte	0
 1794 0167 1D       		.uleb128 0x1d
 1795 0168 34       		.uleb128 0x34
 1796 0169 00       		.byte	0
 1797 016a 03       		.uleb128 0x3
 1798 016b 0E       		.uleb128 0xe
 1799 016c 3A       		.uleb128 0x3a
 1800 016d 0B       		.uleb128 0xb
 1801 016e 3B       		.uleb128 0x3b
 1802 016f 0B       		.uleb128 0xb
 1803 0170 49       		.uleb128 0x49
 1804 0171 13       		.uleb128 0x13
 1805 0172 02       		.uleb128 0x2
 1806 0173 18       		.uleb128 0x18
 1807 0174 00       		.byte	0
 1808 0175 00       		.byte	0
 1809 0176 1E       		.uleb128 0x1e
 1810 0177 2E       		.uleb128 0x2e
 1811 0178 00       		.byte	0
 1812 0179 3F       		.uleb128 0x3f
ARM GAS  /tmp/cclIzo2l.s 			page 33


 1813 017a 19       		.uleb128 0x19
 1814 017b 03       		.uleb128 0x3
 1815 017c 0E       		.uleb128 0xe
 1816 017d 3A       		.uleb128 0x3a
 1817 017e 0B       		.uleb128 0xb
 1818 017f 3B       		.uleb128 0x3b
 1819 0180 0B       		.uleb128 0xb
 1820 0181 27       		.uleb128 0x27
 1821 0182 19       		.uleb128 0x19
 1822 0183 11       		.uleb128 0x11
 1823 0184 01       		.uleb128 0x1
 1824 0185 12       		.uleb128 0x12
 1825 0186 06       		.uleb128 0x6
 1826 0187 40       		.uleb128 0x40
 1827 0188 18       		.uleb128 0x18
 1828 0189 9642     		.uleb128 0x2116
 1829 018b 19       		.uleb128 0x19
 1830 018c 00       		.byte	0
 1831 018d 00       		.byte	0
 1832 018e 1F       		.uleb128 0x1f
 1833 018f 2E       		.uleb128 0x2e
 1834 0190 00       		.byte	0
 1835 0191 3F       		.uleb128 0x3f
 1836 0192 19       		.uleb128 0x19
 1837 0193 03       		.uleb128 0x3
 1838 0194 0E       		.uleb128 0xe
 1839 0195 3A       		.uleb128 0x3a
 1840 0196 0B       		.uleb128 0xb
 1841 0197 3B       		.uleb128 0x3b
 1842 0198 0B       		.uleb128 0xb
 1843 0199 27       		.uleb128 0x27
 1844 019a 19       		.uleb128 0x19
 1845 019b 11       		.uleb128 0x11
 1846 019c 01       		.uleb128 0x1
 1847 019d 12       		.uleb128 0x12
 1848 019e 06       		.uleb128 0x6
 1849 019f 40       		.uleb128 0x40
 1850 01a0 18       		.uleb128 0x18
 1851 01a1 9742     		.uleb128 0x2117
 1852 01a3 19       		.uleb128 0x19
 1853 01a4 00       		.byte	0
 1854 01a5 00       		.byte	0
 1855 01a6 20       		.uleb128 0x20
 1856 01a7 34       		.uleb128 0x34
 1857 01a8 00       		.byte	0
 1858 01a9 03       		.uleb128 0x3
 1859 01aa 0E       		.uleb128 0xe
 1860 01ab 3A       		.uleb128 0x3a
 1861 01ac 0B       		.uleb128 0xb
 1862 01ad 3B       		.uleb128 0x3b
 1863 01ae 05       		.uleb128 0x5
 1864 01af 49       		.uleb128 0x49
 1865 01b0 13       		.uleb128 0x13
 1866 01b1 3F       		.uleb128 0x3f
 1867 01b2 19       		.uleb128 0x19
 1868 01b3 3C       		.uleb128 0x3c
 1869 01b4 19       		.uleb128 0x19
ARM GAS  /tmp/cclIzo2l.s 			page 34


 1870 01b5 00       		.byte	0
 1871 01b6 00       		.byte	0
 1872 01b7 21       		.uleb128 0x21
 1873 01b8 34       		.uleb128 0x34
 1874 01b9 00       		.byte	0
 1875 01ba 03       		.uleb128 0x3
 1876 01bb 08       		.uleb128 0x8
 1877 01bc 3A       		.uleb128 0x3a
 1878 01bd 0B       		.uleb128 0xb
 1879 01be 3B       		.uleb128 0x3b
 1880 01bf 05       		.uleb128 0x5
 1881 01c0 49       		.uleb128 0x49
 1882 01c1 13       		.uleb128 0x13
 1883 01c2 3F       		.uleb128 0x3f
 1884 01c3 19       		.uleb128 0x19
 1885 01c4 3C       		.uleb128 0x3c
 1886 01c5 19       		.uleb128 0x19
 1887 01c6 00       		.byte	0
 1888 01c7 00       		.byte	0
 1889 01c8 22       		.uleb128 0x22
 1890 01c9 34       		.uleb128 0x34
 1891 01ca 00       		.byte	0
 1892 01cb 03       		.uleb128 0x3
 1893 01cc 0E       		.uleb128 0xe
 1894 01cd 3A       		.uleb128 0x3a
 1895 01ce 0B       		.uleb128 0xb
 1896 01cf 3B       		.uleb128 0x3b
 1897 01d0 0B       		.uleb128 0xb
 1898 01d1 49       		.uleb128 0x49
 1899 01d2 13       		.uleb128 0x13
 1900 01d3 3F       		.uleb128 0x3f
 1901 01d4 19       		.uleb128 0x19
 1902 01d5 02       		.uleb128 0x2
 1903 01d6 18       		.uleb128 0x18
 1904 01d7 00       		.byte	0
 1905 01d8 00       		.byte	0
 1906 01d9 00       		.byte	0
 1907              		.section	.debug_aranges,"",%progbits
 1908 0000 34000000 		.4byte	0x34
 1909 0004 0200     		.2byte	0x2
 1910 0006 00000000 		.4byte	.Ldebug_info0
 1911 000a 04       		.byte	0x4
 1912 000b 00       		.byte	0
 1913 000c 0000     		.2byte	0
 1914 000e 0000     		.2byte	0
 1915 0010 00000000 		.4byte	.LFB271
 1916 0014 80000000 		.4byte	.LFE271-.LFB271
 1917 0018 00000000 		.4byte	.LFB272
 1918 001c 64000000 		.4byte	.LFE272-.LFB272
 1919 0020 00000000 		.4byte	.LFB273
 1920 0024 10000000 		.4byte	.LFE273-.LFB273
 1921 0028 00000000 		.4byte	.LFB274
 1922 002c 04000000 		.4byte	.LFE274-.LFB274
 1923 0030 00000000 		.4byte	0
 1924 0034 00000000 		.4byte	0
 1925              		.section	.debug_ranges,"",%progbits
 1926              	.Ldebug_ranges0:
ARM GAS  /tmp/cclIzo2l.s 			page 35


 1927 0000 00000000 		.4byte	.LFB271
 1928 0004 80000000 		.4byte	.LFE271
 1929 0008 00000000 		.4byte	.LFB272
 1930 000c 64000000 		.4byte	.LFE272
 1931 0010 00000000 		.4byte	.LFB273
 1932 0014 10000000 		.4byte	.LFE273
 1933 0018 00000000 		.4byte	.LFB274
 1934 001c 04000000 		.4byte	.LFE274
 1935 0020 00000000 		.4byte	0
 1936 0024 00000000 		.4byte	0
 1937              		.section	.debug_line,"",%progbits
 1938              	.Ldebug_line0:
 1939 0000 83020000 		.section	.debug_str,"MS",%progbits,1
 1939      02001302 
 1939      00000201 
 1939      FB0E0D00 
 1939      01010101 
 1940              	.LASF100:
 1941 0000 74625F70 		.ascii	"tb_ptr\000"
 1941      747200
 1942              	.LASF57:
 1943 0007 72656164 		.ascii	"ready_list_t\000"
 1943      795F6C69 
 1943      73745F74 
 1943      00
 1944              	.LASF94:
 1945 0014 73655F74 		.ascii	"se_time\000"
 1945      696D6500 
 1946              	.LASF2:
 1947 001c 73697A65 		.ascii	"size_t\000"
 1947      5F7400
 1948              	.LASF115:
 1949 0023 7264796D 		.ascii	"rdymsg\000"
 1949      736700
 1950              	.LASF19:
 1951 002a 75696E74 		.ascii	"uint64_t\000"
 1951      36345F74 
 1951      00
 1952              	.LASF87:
 1953 0033 6B65726E 		.ascii	"kernel_stats\000"
 1953      656C5F73 
 1953      74617473 
 1953      00
 1954              	.LASF3:
 1955 0040 5F5F7569 		.ascii	"__uint8_t\000"
 1955      6E74385F 
 1955      7400
 1956              	.LASF134:
 1957 004a 4F545950 		.ascii	"OTYPER\000"
 1957      455200
 1958              	.LASF93:
 1959 0051 706F7274 		.ascii	"port_intctx\000"
 1959      5F696E74 
 1959      63747800 
 1960              	.LASF56:
 1961 005d 63685F74 		.ascii	"ch_threads_queue\000"
 1961      68726561 
ARM GAS  /tmp/cclIzo2l.s 			page 36


 1961      64735F71 
 1961      75657565 
 1961      00
 1962              	.LASF76:
 1963 006e 73797374 		.ascii	"system_debug_t\000"
 1963      656D5F64 
 1963      65627567 
 1963      5F7400
 1964              	.LASF142:
 1965 007d 696F706F 		.ascii	"ioportmask_t\000"
 1965      72746D61 
 1965      736B5F74 
 1965      00
 1966              	.LASF106:
 1967 008a 776F7273 		.ascii	"worst\000"
 1967      7400
 1968              	.LASF109:
 1969 0090 74696D65 		.ascii	"time_measurement_t\000"
 1969      5F6D6561 
 1969      73757265 
 1969      6D656E74 
 1969      5F7400
 1970              	.LASF133:
 1971 00a3 4D4F4445 		.ascii	"MODER\000"
 1971      5200
 1972              	.LASF14:
 1973 00a9 6C6F6E67 		.ascii	"long long unsigned int\000"
 1973      206C6F6E 
 1973      6720756E 
 1973      7369676E 
 1973      65642069 
 1974              	.LASF102:
 1975 00c0 63685F74 		.ascii	"ch_trace_buffer_t\000"
 1975      72616365 
 1975      5F627566 
 1975      6665725F 
 1975      7400
 1976              	.LASF97:
 1977 00d2 73655F73 		.ascii	"se_state\000"
 1977      74617465 
 1977      00
 1978              	.LASF136:
 1979 00db 50555044 		.ascii	"PUPDR\000"
 1979      5200
 1980              	.LASF116:
 1981 00e1 65786974 		.ascii	"exitcode\000"
 1981      636F6465 
 1981      00
 1982              	.LASF86:
 1983 00ea 6D61696E 		.ascii	"mainthread\000"
 1983      74687265 
 1983      616400
 1984              	.LASF73:
 1985 00f5 76697274 		.ascii	"virtual_timers_list_t\000"
 1985      75616C5F 
 1985      74696D65 
 1985      72735F6C 
ARM GAS  /tmp/cclIzo2l.s 			page 37


 1985      6973745F 
 1986              	.LASF150:
 1987 010b 49544D5F 		.ascii	"ITM_RxBuffer\000"
 1987      52784275 
 1987      66666572 
 1987      00
 1988              	.LASF21:
 1989 0118 72747469 		.ascii	"rttime_t\000"
 1989      6D655F74 
 1989      00
 1990              	.LASF34:
 1991 0121 705F7072 		.ascii	"p_prio\000"
 1991      696F00
 1992              	.LASF12:
 1993 0128 6C6F6E67 		.ascii	"long long int\000"
 1993      206C6F6E 
 1993      6720696E 
 1993      7400
 1994              	.LASF1:
 1995 0136 7369676E 		.ascii	"signed char\000"
 1995      65642063 
 1995      68617200 
 1996              	.LASF137:
 1997 0142 42535252 		.ascii	"BSRR\000"
 1997      00
 1998              	.LASF49:
 1999 0147 705F6D70 		.ascii	"p_mpool\000"
 1999      6F6F6C00 
 2000              	.LASF126:
 2001 014f 6D5F7175 		.ascii	"m_queue\000"
 2001      65756500 
 2002              	.LASF85:
 2003 0157 76746C69 		.ascii	"vtlist\000"
 2003      737400
 2004              	.LASF118:
 2005 015e 77747472 		.ascii	"wttrp\000"
 2005      7000
 2006              	.LASF83:
 2007 0164 63685F73 		.ascii	"ch_system\000"
 2007      79737465 
 2007      6D00
 2008              	.LASF9:
 2009 016e 6C6F6E67 		.ascii	"long int\000"
 2009      20696E74 
 2009      00
 2010              	.LASF23:
 2011 0177 74737461 		.ascii	"tstate_t\000"
 2011      74655F74 
 2011      00
 2012              	.LASF95:
 2013 0180 73655F74 		.ascii	"se_tp\000"
 2013      7000
 2014              	.LASF146:
 2015 0186 7365745F 		.ascii	"set_cca_exp_io_mode\000"
 2015      6363615F 
 2015      6578705F 
 2015      696F5F6D 
ARM GAS  /tmp/cclIzo2l.s 			page 38


 2015      6F646500 
 2016              	.LASF151:
 2017 019a 6363615F 		.ascii	"cca_exp_io_mode\000"
 2017      6578705F 
 2017      696F5F6D 
 2017      6F646500 
 2018              	.LASF152:
 2019 01aa 474E5520 		.ascii	"GNU C 4.8.4 20141219 (release) -mcpu=cortex-m4 -mno"
 2019      4320342E 
 2019      382E3420 
 2019      32303134 
 2019      31323139 
 2020 01dd 2D746875 		.ascii	"-thumb-interwork -mthumb -ggdb -O0 -fomit-frame-poi"
 2020      6D622D69 
 2020      6E746572 
 2020      776F726B 
 2020      202D6D74 
 2021 0210 6E746572 		.ascii	"nter -falign-functions=16 -ffunction-sections -fdat"
 2021      202D6661 
 2021      6C69676E 
 2021      2D66756E 
 2021      6374696F 
 2022 0243 612D7365 		.ascii	"a-sections -fno-common\000"
 2022      6374696F 
 2022      6E73202D 
 2022      666E6F2D 
 2022      636F6D6D 
 2023              	.LASF36:
 2024 025a 705F6E65 		.ascii	"p_newer\000"
 2024      77657200 
 2025              	.LASF123:
 2026 0262 735F7175 		.ascii	"s_queue\000"
 2026      65756500 
 2027              	.LASF99:
 2028 026a 74625F73 		.ascii	"tb_size\000"
 2028      697A6500 
 2029              	.LASF135:
 2030 0272 4F535045 		.ascii	"OSPEEDR\000"
 2030      45445200 
 2031              	.LASF62:
 2032 027a 725F6E65 		.ascii	"r_newer\000"
 2032      77657200 
 2033              	.LASF90:
 2034 0282 72656761 		.ascii	"regarm_t\000"
 2034      726D5F74 
 2034      00
 2035              	.LASF69:
 2036 028b 76745F70 		.ascii	"vt_prev\000"
 2036      72657600 
 2037              	.LASF77:
 2038 0293 63685F73 		.ascii	"ch_system_debug\000"
 2038      79737465 
 2038      6D5F6465 
 2038      62756700 
 2039              	.LASF149:
 2040 02a3 73657269 		.ascii	"serialTalk\000"
 2040      616C5461 
ARM GAS  /tmp/cclIzo2l.s 			page 39


 2040      6C6B00
 2041              	.LASF130:
 2042 02ae 6D757465 		.ascii	"mutex_t\000"
 2042      785F7400 
 2043              	.LASF80:
 2044 02b6 6C6F636B 		.ascii	"lock_cnt\000"
 2044      5F636E74 
 2044      00
 2045              	.LASF88:
 2046 02bf 69646C65 		.ascii	"idle_thread_wa\000"
 2046      5F746872 
 2046      6561645F 
 2046      776100
 2047              	.LASF28:
 2048 02ce 636E745F 		.ascii	"cnt_t\000"
 2048      7400
 2049              	.LASF39:
 2050 02d4 705F7374 		.ascii	"p_stklimit\000"
 2050      6B6C696D 
 2050      697400
 2051              	.LASF0:
 2052 02df 756E7369 		.ascii	"unsigned int\000"
 2052      676E6564 
 2052      20696E74 
 2052      00
 2053              	.LASF68:
 2054 02ec 76745F6E 		.ascii	"vt_next\000"
 2054      65787400 
 2055              	.LASF16:
 2056 02f4 75696E74 		.ascii	"uint16_t\000"
 2056      31365F74 
 2056      00
 2057              	.LASF119:
 2058 02fd 77747365 		.ascii	"wtsemp\000"
 2058      6D7000
 2059              	.LASF154:
 2060 0304 2F686F6D 		.ascii	"/home/efe/projeler/io-expander.dev.efe-rev2\000"
 2060      652F6566 
 2060      652F7072 
 2060      6F6A656C 
 2060      65722F69 
 2061              	.LASF44:
 2062 0330 705F6D73 		.ascii	"p_msgqueue\000"
 2062      67717565 
 2062      756500
 2063              	.LASF138:
 2064 033b 4C434B52 		.ascii	"LCKR\000"
 2064      00
 2065              	.LASF110:
 2066 0340 6E5F6972 		.ascii	"n_irq\000"
 2066      7100
 2067              	.LASF124:
 2068 0346 735F636E 		.ascii	"s_cnt\000"
 2068      7400
 2069              	.LASF7:
 2070 034c 73686F72 		.ascii	"short unsigned int\000"
 2070      7420756E 
ARM GAS  /tmp/cclIzo2l.s 			page 40


 2070      7369676E 
 2070      65642069 
 2070      6E7400
 2071              	.LASF114:
 2072 035f 6B65726E 		.ascii	"kernel_stats_t\000"
 2072      656C5F73 
 2072      74617473 
 2072      5F7400
 2073              	.LASF53:
 2074 036e 63685F74 		.ascii	"ch_thread\000"
 2074      68726561 
 2074      6400
 2075              	.LASF26:
 2076 0378 6D73675F 		.ascii	"msg_t\000"
 2076      7400
 2077              	.LASF107:
 2078 037e 6C617374 		.ascii	"last\000"
 2078      00
 2079              	.LASF29:
 2080 0383 75636E74 		.ascii	"ucnt_t\000"
 2080      5F7400
 2081              	.LASF82:
 2082 038a 63685F73 		.ascii	"ch_system_t\000"
 2082      79737465 
 2082      6D5F7400 
 2083              	.LASF144:
 2084 0396 77726974 		.ascii	"writer\000"
 2084      657200
 2085              	.LASF153:
 2086 039d 6D61696E 		.ascii	"main.c\000"
 2086      2E6300
 2087              	.LASF22:
 2088 03a4 746D6F64 		.ascii	"tmode_t\000"
 2088      655F7400 
 2089              	.LASF113:
 2090 03ac 6D5F6372 		.ascii	"m_crit_isr\000"
 2090      69745F69 
 2090      737200
 2091              	.LASF58:
 2092 03b7 63685F72 		.ascii	"ch_ready_list\000"
 2092      65616479 
 2092      5F6C6973 
 2092      7400
 2093              	.LASF27:
 2094 03c5 6576656E 		.ascii	"eventmask_t\000"
 2094      746D6173 
 2094      6B5F7400 
 2095              	.LASF8:
 2096 03d1 5F5F696E 		.ascii	"__int32_t\000"
 2096      7433325F 
 2096      7400
 2097              	.LASF91:
 2098 03db 73746B61 		.ascii	"stkalign_t\000"
 2098      6C69676E 
 2098      5F7400
 2099              	.LASF145:
 2100 03e6 696E6974 		.ascii	"init_IO\000"
ARM GAS  /tmp/cclIzo2l.s 			page 41


 2100      5F494F00 
 2101              	.LASF43:
 2102 03ee 705F7761 		.ascii	"p_waiting\000"
 2102      6974696E 
 2102      6700
 2103              	.LASF89:
 2104 03f8 73697A65 		.ascii	"sizetype\000"
 2104      74797065 
 2104      00
 2105              	.LASF51:
 2106 0401 74687265 		.ascii	"thread_reference_t\000"
 2106      61645F72 
 2106      65666572 
 2106      656E6365 
 2106      5F7400
 2107              	.LASF143:
 2108 0414 6C697374 		.ascii	"listener\000"
 2108      656E6572 
 2108      00
 2109              	.LASF74:
 2110 041d 63685F76 		.ascii	"ch_virtual_timers_list\000"
 2110      69727475 
 2110      616C5F74 
 2110      696D6572 
 2110      735F6C69 
 2111              	.LASF132:
 2112 0434 636C6561 		.ascii	"clear\000"
 2112      7200
 2113              	.LASF98:
 2114 043a 63685F73 		.ascii	"ch_swc_event_t\000"
 2114      77635F65 
 2114      76656E74 
 2114      5F7400
 2115              	.LASF75:
 2116 0449 76745F6C 		.ascii	"vt_lasttime\000"
 2116      61737474 
 2116      696D6500 
 2117              	.LASF37:
 2118 0455 705F6F6C 		.ascii	"p_older\000"
 2118      64657200 
 2119              	.LASF61:
 2120 045d 725F6374 		.ascii	"r_ctx\000"
 2120      7800
 2121              	.LASF104:
 2122 0463 746D5F63 		.ascii	"tm_calibration_t\000"
 2122      616C6962 
 2122      72617469 
 2122      6F6E5F74 
 2122      00
 2123              	.LASF147:
 2124 0474 696E6974 		.ascii	"init_globals\000"
 2124      5F676C6F 
 2124      62616C73 
 2124      00
 2125              	.LASF64:
 2126 0481 725F6375 		.ascii	"r_current\000"
 2126      7272656E 
ARM GAS  /tmp/cclIzo2l.s 			page 42


 2126      7400
 2127              	.LASF63:
 2128 048b 725F6F6C 		.ascii	"r_older\000"
 2128      64657200 
 2129              	.LASF13:
 2130 0493 5F5F7569 		.ascii	"__uint64_t\000"
 2130      6E743634 
 2130      5F7400
 2131              	.LASF140:
 2132 049e 41465248 		.ascii	"AFRH\000"
 2132      00
 2133              	.LASF108:
 2134 04a3 63756D75 		.ascii	"cumulative\000"
 2134      6C617469 
 2134      766500
 2135              	.LASF139:
 2136 04ae 4146524C 		.ascii	"AFRL\000"
 2136      00
 2137              	.LASF24:
 2138 04b3 74726566 		.ascii	"trefs_t\000"
 2138      735F7400 
 2139              	.LASF101:
 2140 04bb 74625F62 		.ascii	"tb_buffer\000"
 2140      75666665 
 2140      7200
 2141              	.LASF66:
 2142 04c5 76697274 		.ascii	"virtual_timer_t\000"
 2142      75616C5F 
 2142      74696D65 
 2142      725F7400 
 2143              	.LASF33:
 2144 04d5 705F7072 		.ascii	"p_prev\000"
 2144      657600
 2145              	.LASF25:
 2146 04dc 74707269 		.ascii	"tprio_t\000"
 2146      6F5F7400 
 2147              	.LASF111:
 2148 04e4 6E5F6374 		.ascii	"n_ctxswc\000"
 2148      78737763 
 2148      00
 2149              	.LASF131:
 2150 04ed 5F426F6F 		.ascii	"_Bool\000"
 2150      6C00
 2151              	.LASF17:
 2152 04f3 696E7433 		.ascii	"int32_t\000"
 2152      325F7400 
 2153              	.LASF4:
 2154 04fb 756E7369 		.ascii	"unsigned char\000"
 2154      676E6564 
 2154      20636861 
 2154      7200
 2155              	.LASF47:
 2156 0509 705F6D74 		.ascii	"p_mtxlist\000"
 2156      786C6973 
 2156      7400
 2157              	.LASF5:
 2158 0513 73686F72 		.ascii	"short int\000"
ARM GAS  /tmp/cclIzo2l.s 			page 43


 2158      7420696E 
 2158      7400
 2159              	.LASF40:
 2160 051d 705F7374 		.ascii	"p_state\000"
 2160      61746500 
 2161              	.LASF141:
 2162 0525 73746D33 		.ascii	"stm32_gpio_t\000"
 2162      325F6770 
 2162      696F5F74 
 2162      00
 2163              	.LASF60:
 2164 0532 725F7072 		.ascii	"r_prio\000"
 2164      696F00
 2165              	.LASF121:
 2166 0539 65776D61 		.ascii	"ewmask\000"
 2166      736B00
 2167              	.LASF32:
 2168 0540 705F6E65 		.ascii	"p_next\000"
 2168      787400
 2169              	.LASF41:
 2170 0547 705F666C 		.ascii	"p_flags\000"
 2170      61677300 
 2171              	.LASF50:
 2172 054f 705F7374 		.ascii	"p_stats\000"
 2172      61747300 
 2173              	.LASF67:
 2174 0557 63685F76 		.ascii	"ch_virtual_timer\000"
 2174      69727475 
 2174      616C5F74 
 2174      696D6572 
 2174      00
 2175              	.LASF122:
 2176 0568 63685F73 		.ascii	"ch_semaphore\000"
 2176      656D6170 
 2176      686F7265 
 2176      00
 2177              	.LASF46:
 2178 0575 705F6570 		.ascii	"p_epending\000"
 2178      656E6469 
 2178      6E6700
 2179              	.LASF18:
 2180 0580 75696E74 		.ascii	"uint32_t\000"
 2180      33325F74 
 2180      00
 2181              	.LASF120:
 2182 0589 77746D74 		.ascii	"wtmtxp\000"
 2182      787000
 2183              	.LASF59:
 2184 0590 725F7175 		.ascii	"r_queue\000"
 2184      65756500 
 2185              	.LASF70:
 2186 0598 76745F64 		.ascii	"vt_delta\000"
 2186      656C7461 
 2186      00
 2187              	.LASF54:
 2188 05a1 63685F74 		.ascii	"ch_threads_list\000"
 2188      68726561 
ARM GAS  /tmp/cclIzo2l.s 			page 44


 2188      64735F6C 
 2188      69737400 
 2189              	.LASF11:
 2190 05b1 6C6F6E67 		.ascii	"long unsigned int\000"
 2190      20756E73 
 2190      69676E65 
 2190      6420696E 
 2190      7400
 2191              	.LASF129:
 2192 05c3 63686172 		.ascii	"char\000"
 2192      00
 2193              	.LASF6:
 2194 05c8 5F5F7569 		.ascii	"__uint16_t\000"
 2194      6E743136 
 2194      5F7400
 2195              	.LASF31:
 2196 05d3 74687265 		.ascii	"thread_t\000"
 2196      61645F74 
 2196      00
 2197              	.LASF105:
 2198 05dc 62657374 		.ascii	"best\000"
 2198      00
 2199              	.LASF128:
 2200 05e1 6D5F6E65 		.ascii	"m_next\000"
 2200      787400
 2201              	.LASF30:
 2202 05e8 73797374 		.ascii	"systime_t\000"
 2202      696D655F 
 2202      7400
 2203              	.LASF48:
 2204 05f2 705F7265 		.ascii	"p_realprio\000"
 2204      616C7072 
 2204      696F00
 2205              	.LASF65:
 2206 05fd 76746675 		.ascii	"vtfunc_t\000"
 2206      6E635F74 
 2206      00
 2207              	.LASF10:
 2208 0606 5F5F7569 		.ascii	"__uint32_t\000"
 2208      6E743332 
 2208      5F7400
 2209              	.LASF148:
 2210 0611 73657269 		.ascii	"serialListen\000"
 2210      616C4C69 
 2210      7374656E 
 2210      00
 2211              	.LASF78:
 2212 061e 70616E69 		.ascii	"panic_msg\000"
 2212      635F6D73 
 2212      6700
 2213              	.LASF103:
 2214 0628 6F666673 		.ascii	"offset\000"
 2214      657400
 2215              	.LASF92:
 2216 062f 636F6E74 		.ascii	"context\000"
 2216      65787400 
 2217              	.LASF20:
ARM GAS  /tmp/cclIzo2l.s 			page 45


 2218 0637 7274636E 		.ascii	"rtcnt_t\000"
 2218      745F7400 
 2219              	.LASF72:
 2220 063f 76745F70 		.ascii	"vt_par\000"
 2220      617200
 2221              	.LASF55:
 2222 0646 74687265 		.ascii	"threads_queue_t\000"
 2222      6164735F 
 2222      71756575 
 2222      655F7400 
 2223              	.LASF125:
 2224 0656 63685F6D 		.ascii	"ch_mutex\000"
 2224      75746578 
 2224      00
 2225              	.LASF42:
 2226 065f 705F7265 		.ascii	"p_refs\000"
 2226      667300
 2227              	.LASF79:
 2228 0666 6973725F 		.ascii	"isr_cnt\000"
 2228      636E7400 
 2229              	.LASF84:
 2230 066e 726C6973 		.ascii	"rlist\000"
 2230      7400
 2231              	.LASF15:
 2232 0674 75696E74 		.ascii	"uint8_t\000"
 2232      385F7400 
 2233              	.LASF117:
 2234 067c 77746F62 		.ascii	"wtobjp\000"
 2234      6A7000
 2235              	.LASF38:
 2236 0683 705F6E61 		.ascii	"p_name\000"
 2236      6D6500
 2237              	.LASF52:
 2238 068a 74687265 		.ascii	"threads_list_t\000"
 2238      6164735F 
 2238      6C697374 
 2238      5F7400
 2239              	.LASF81:
 2240 0699 74726163 		.ascii	"trace_buffer\000"
 2240      655F6275 
 2240      66666572 
 2240      00
 2241              	.LASF45:
 2242 06a6 705F6D73 		.ascii	"p_msg\000"
 2242      6700
 2243              	.LASF155:
 2244 06ac 6D61696E 		.ascii	"main\000"
 2244      00
 2245              	.LASF112:
 2246 06b1 6D5F6372 		.ascii	"m_crit_thd\000"
 2246      69745F74 
 2246      686400
 2247              	.LASF127:
 2248 06bc 6D5F6F77 		.ascii	"m_owner\000"
 2248      6E657200 
 2249              	.LASF96:
 2250 06c4 73655F77 		.ascii	"se_wtobjp\000"
ARM GAS  /tmp/cclIzo2l.s 			page 46


 2250      746F626A 
 2250      7000
 2251              	.LASF35:
 2252 06ce 705F6374 		.ascii	"p_ctx\000"
 2252      7800
 2253              	.LASF71:
 2254 06d4 76745F66 		.ascii	"vt_func\000"
 2254      756E6300 
 2255              		.ident	"GCC: (4.8.4-1+11-1) 4.8.4 20141219 (release)"
ARM GAS  /tmp/cclIzo2l.s 			page 47


DEFINED SYMBOLS
                            *ABS*:0000000000000000 main.c
     /tmp/cclIzo2l.s:19     .bss.serialListen:0000000000000000 $d
     /tmp/cclIzo2l.s:22     .bss.serialListen:0000000000000000 serialListen
     /tmp/cclIzo2l.s:25     .bss.serialTalk:0000000000000000 $d
     /tmp/cclIzo2l.s:28     .bss.serialTalk:0000000000000000 serialTalk
     /tmp/cclIzo2l.s:34     .bss.cca_exp_io_mode:0000000000000000 cca_exp_io_mode
     /tmp/cclIzo2l.s:35     .bss.cca_exp_io_mode:0000000000000000 $d
     /tmp/cclIzo2l.s:37     .text.main:0000000000000000 $t
     /tmp/cclIzo2l.s:43     .text.main:0000000000000000 main
     /tmp/cclIzo2l.s:124    .text.init_IO:0000000000000000 init_IO
     /tmp/cclIzo2l.s:108    .text.main:0000000000000068 $d
     /tmp/cclIzo2l.s:118    .text.init_IO:0000000000000000 $t
     /tmp/cclIzo2l.s:179    .text.init_IO:0000000000000054 $d
     /tmp/cclIzo2l.s:187    .text.set_cca_exp_io_mode:0000000000000000 $t
     /tmp/cclIzo2l.s:193    .text.set_cca_exp_io_mode:0000000000000000 set_cca_exp_io_mode
     /tmp/cclIzo2l.s:211    .text.set_cca_exp_io_mode:000000000000000c $d
     /tmp/cclIzo2l.s:216    .text.init_globals:0000000000000000 $t
     /tmp/cclIzo2l.s:222    .text.init_globals:0000000000000000 init_globals
                     .debug_frame:0000000000000010 $d
     /tmp/cclIzo2l.s:186    .text.init_IO:0000000000000064 $t

UNDEFINED SYMBOLS
halInit
chSysInit
chThdSetPriority
init_protocol
chThdCreateStatic
chThdSleep
rxListen
txWrite
_pal_lld_setgroupmode
