ARM GAS  /tmp/cclIzo2l.s 			page 1


   1              		.syntax unified
   2              		.cpu cortex-m4
   3              		.fpu softvfp
   4              		.eabi_attribute 20, 1
   5              		.eabi_attribute 21, 1
   6              		.eabi_attribute 23, 3
   7              		.eabi_attribute 24, 1
   8              		.eabi_attribute 25, 1
   9              		.eabi_attribute 26, 1
  10              		.eabi_attribute 30, 6
  11              		.eabi_attribute 34, 1
  12              		.eabi_attribute 18, 4
  13              		.thumb
  14              		.file	"main.c"
  15              		.text
  16              	.Ltext0:
  17              		.cfi_sections	.debug_frame
  18              		.section	.bss.serialListen,"aw",%nobits
  19              		.align	3
  20              		.type	serialListen, %object
  21              		.size	serialListen, 360
  22              	serialListen:
  23 0000 00000000 		.space	360
  23      00000000 
  23      00000000 
  23      00000000 
  23      00000000 
  24              		.section	.bss.serialTalk,"aw",%nobits
  25              		.align	3
  26              		.type	serialTalk, %object
  27              		.size	serialTalk, 360
  28              	serialTalk:
  29 0000 00000000 		.space	360
  29      00000000 
  29      00000000 
  29      00000000 
  29      00000000 
  30              		.global	cca_exp_io_mode
  31              		.section	.bss.cca_exp_io_mode,"aw",%nobits
  32              		.type	cca_exp_io_mode, %object
  33              		.size	cca_exp_io_mode, 1
  34              	cca_exp_io_mode:
  35 0000 00       		.space	1
  36              		.section	.text.main,"ax",%progbits
  37              		.align	2
  38              		.p2align 4,,15
  39              		.global	main
  40              		.thumb
  41              		.thumb_func
  42              		.type	main, %function
  43              	main:
  44              	.LFB271:
  45              		.file 1 "main.c"
  46              		.loc 1 6 0
  47              		.cfi_startproc
  48              		@ args = 0, pretend = 0, frame = 8
  49              		@ frame_needed = 0, uses_anonymous_args = 0
ARM GAS  /tmp/cclIzo2l.s 			page 2


  50 0000 00B5     		push	{lr}
  51              		.cfi_def_cfa_offset 4
  52              		.cfi_offset 14, -4
  53 0002 85B0     		sub	sp, sp, #20
  54              		.cfi_def_cfa_offset 24
  55              		.loc 1 7 0
  56 0004 FFF7FEFF 		bl	halInit
  57              		.loc 1 8 0
  58 0008 FFF7FEFF 		bl	chSysInit
  59              		.loc 1 12 0
  60 000c 164B     		ldr	r3, .L3
  61 000e 174A     		ldr	r2, .L3+4
  62 0010 9A61     		str	r2, [r3, #24]
  63              		.loc 1 13 0
  64 0012 4020     		movs	r0, #64
  65 0014 FFF7FEFF 		bl	chThdSetPriority
  66              		.loc 1 14 0
  67 0018 FFF7FEFF 		bl	init_IO
  68              		.loc 1 15 0
  69 001c FFF7FEFF 		bl	init_protocol
  70              		.loc 1 16 0
  71 0020 0023     		movs	r3, #0
  72 0022 0093     		str	r3, [sp]
  73 0024 1248     		ldr	r0, .L3+8
  74 0026 4FF4B471 		mov	r1, #360
  75 002a 0222     		movs	r2, #2
  76 002c 114B     		ldr	r3, .L3+12
  77 002e FFF7FEFF 		bl	chThdCreateStatic
  78 0032 0390     		str	r0, [sp, #12]
  79              		.loc 1 17 0
  80 0034 0023     		movs	r3, #0
  81 0036 0093     		str	r3, [sp]
  82 0038 0F48     		ldr	r0, .L3+16
  83 003a 4FF4B471 		mov	r1, #360
  84 003e 0222     		movs	r2, #2
  85 0040 0E4B     		ldr	r3, .L3+20
  86 0042 FFF7FEFF 		bl	chThdCreateStatic
  87 0046 0290     		str	r0, [sp, #8]
  88              	.L2:
  89              		.loc 1 21 0 discriminator 1
  90 0048 074B     		ldr	r3, .L3
  91 004a 4FF6FF72 		movw	r2, #65535
  92 004e 9A61     		str	r2, [r3, #24]
  93              		.loc 1 22 0 discriminator 1
  94 0050 42F21070 		movw	r0, #10000
  95 0054 FFF7FEFF 		bl	chThdSleep
  96              		.loc 1 23 0 discriminator 1
  97 0058 034B     		ldr	r3, .L3
  98 005a 044A     		ldr	r2, .L3+4
  99 005c 9A61     		str	r2, [r3, #24]
 100              		.loc 1 24 0 discriminator 1
 101 005e 42F21070 		movw	r0, #10000
 102 0062 FFF7FEFF 		bl	chThdSleep
 103              		.loc 1 25 0 discriminator 1
 104 0066 EFE7     		b	.L2
 105              	.L4:
 106              		.align	2
ARM GAS  /tmp/cclIzo2l.s 			page 3


 107              	.L3:
 108 0068 000C0240 		.word	1073875968
 109 006c 0000FFFF 		.word	-65536
 110 0070 00000000 		.word	serialListen
 111 0074 00000000 		.word	rxListen
 112 0078 00000000 		.word	serialTalk
 113 007c 00000000 		.word	txWrite
 114              		.cfi_endproc
 115              	.LFE271:
 116              		.size	main, .-main
 117              		.section	.text.init_IO,"ax",%progbits
 118              		.align	2
 119              		.p2align 4,,15
 120              		.global	init_IO
 121              		.thumb
 122              		.thumb_func
 123              		.type	init_IO, %function
 124              	init_IO:
 125              	.LFB272:
 126              		.loc 1 32 0
 127              		.cfi_startproc
 128              		@ args = 0, pretend = 0, frame = 0
 129              		@ frame_needed = 0, uses_anonymous_args = 0
 130 0000 08B5     		push	{r3, lr}
 131              		.cfi_def_cfa_offset 8
 132              		.cfi_offset 3, -8
 133              		.cfi_offset 14, -4
 134              		.loc 1 35 0
 135 0002 1448     		ldr	r0, .L9
 136 0004 4FF6FF71 		movw	r1, #65535
 137 0008 2022     		movs	r2, #32
 138 000a FFF7FEFF 		bl	_pal_lld_setgroupmode
 139              		.loc 1 39 0
 140 000e 124B     		ldr	r3, .L9+4
 141 0010 1B78     		ldrb	r3, [r3]	@ zero_extendqisi2
 142 0012 002B     		cmp	r3, #0
 143 0014 0CD1     		bne	.L6
 144              		.loc 1 41 0
 145 0016 1148     		ldr	r0, .L9+8
 146 0018 4FF6FF71 		movw	r1, #65535
 147 001c 0122     		movs	r2, #1
 148 001e FFF7FEFF 		bl	_pal_lld_setgroupmode
 149              		.loc 1 42 0
 150 0022 0F48     		ldr	r0, .L9+12
 151 0024 4FF6FF71 		movw	r1, #65535
 152 0028 0122     		movs	r2, #1
 153 002a FFF7FEFF 		bl	_pal_lld_setgroupmode
 154 002e 0FE0     		b	.L7
 155              	.L6:
 156              		.loc 1 44 0
 157 0030 094B     		ldr	r3, .L9+4
 158 0032 1B78     		ldrb	r3, [r3]	@ zero_extendqisi2
 159 0034 012B     		cmp	r3, #1
 160 0036 0BD1     		bne	.L7
 161              		.loc 1 46 0
 162 0038 0848     		ldr	r0, .L9+8
 163 003a 4FF6FF71 		movw	r1, #65535
ARM GAS  /tmp/cclIzo2l.s 			page 4


 164 003e 2022     		movs	r2, #32
 165 0040 FFF7FEFF 		bl	_pal_lld_setgroupmode
 166              		.loc 1 47 0
 167 0044 0648     		ldr	r0, .L9+12
 168 0046 4FF6FF71 		movw	r1, #65535
 169 004a 2022     		movs	r2, #32
 170 004c FFF7FEFF 		bl	_pal_lld_setgroupmode
 171              	.L7:
 172              		.loc 1 53 0
 173 0050 00BF     		nop
 174              		.loc 1 54 0
 175 0052 08BD     		pop	{r3, pc}
 176              	.L10:
 177              		.align	2
 178              	.L9:
 179 0054 00040240 		.word	1073873920
 180 0058 00000000 		.word	cca_exp_io_mode
 181 005c 000C0240 		.word	1073875968
 182 0060 00100240 		.word	1073876992
 183              		.cfi_endproc
 184              	.LFE272:
 185              		.size	init_IO, .-init_IO
 186 0064 AFF30080 		.section	.text.set_cca_exp_io_mode,"ax",%progbits
 186      AFF30080 
 186      AFF30080 
 187              		.align	2
 188              		.p2align 4,,15
 189              		.global	set_cca_exp_io_mode
 190              		.thumb
 191              		.thumb_func
 192              		.type	set_cca_exp_io_mode, %function
 193              	set_cca_exp_io_mode:
 194              	.LFB273:
 195              		.loc 1 57 0
 196              		.cfi_startproc
 197              		@ args = 0, pretend = 0, frame = 0
 198              		@ frame_needed = 0, uses_anonymous_args = 0
 199              		@ link register save eliminated.
 200              		.loc 1 59 0
 201 0000 024B     		ldr	r3, .L13
 202 0002 0022     		movs	r2, #0
 203 0004 1A70     		strb	r2, [r3]
 204              		.loc 1 63 0
 205 0006 00BF     		nop
 206              		.loc 1 64 0
 207 0008 7047     		bx	lr
 208              	.L14:
 209 000a 00BF     		.align	2
 210              	.L13:
 211 000c 00000000 		.word	cca_exp_io_mode
 212              		.cfi_endproc
 213              	.LFE273:
 214              		.size	set_cca_exp_io_mode, .-set_cca_exp_io_mode
 215              		.section	.text.init_globals,"ax",%progbits
 216              		.align	2
 217              		.p2align 4,,15
 218              		.global	init_globals
ARM GAS  /tmp/cclIzo2l.s 			page 5


 219              		.thumb
 220              		.thumb_func
 221              		.type	init_globals, %function
 222              	init_globals:
 223              	.LFB274:
 224              		.loc 1 67 0
 225              		.cfi_startproc
 226              		@ args = 0, pretend = 0, frame = 0
 227              		@ frame_needed = 0, uses_anonymous_args = 0
 228              		@ link register save eliminated.
 229              		.loc 1 72 0
 230 0000 00BF     		nop
 231              		.loc 1 73 0
 232 0002 7047     		bx	lr
 233              		.cfi_endproc
 234              	.LFE274:
 235              		.size	init_globals, .-init_globals
 236 0004 AFF30080 		.text
 236      AFF30080 
 236      AFF30080 
 237              	.Letext0:
 238              		.file 2 "/usr/lib/gcc/arm-none-eabi/4.8/include/stddef.h"
 239              		.file 3 "/usr/include/newlib/machine/_default_types.h"
 240              		.file 4 "/usr/include/newlib/stdint.h"
 241              		.file 5 "/home/efe/ChibiOS/os/rt/ports/ARMCMx/compilers/GCC/chtypes.h"
 242              		.file 6 "/home/efe/ChibiOS/os/rt/include/chsystypes.h"
 243              		.file 7 "/home/efe/ChibiOS/os/rt/include/chschd.h"
 244              		.file 8 "/home/efe/ChibiOS/os/rt/ports/ARMCMx/chcore.h"
 245              		.file 9 "/home/efe/ChibiOS/os/rt/ports/ARMCMx/chcore_v7m.h"
 246              		.file 10 "/home/efe/ChibiOS/os/rt/include/chdebug.h"
 247              		.file 11 "/home/efe/ChibiOS/os/rt/include/chtm.h"
 248              		.file 12 "/home/efe/ChibiOS/os/rt/include/chstats.h"
 249              		.file 13 "/home/efe/ChibiOS/os/rt/include/chsem.h"
 250              		.file 14 "/home/efe/ChibiOS/os/rt/include/chmtx.h"
 251              		.file 15 "/home/efe/ChibiOS/os/hal/ports/STM32/LLD/GPIOv2/pal_lld.h"
 252              		.file 16 "main.h"
 253              		.file 17 "/home/efe/ChibiOS/os/ext/CMSIS/include/core_cm4.h"