ARM GAS  /tmp/cc8e8YEY.s 			page 1


   1              		.syntax unified
   2              		.cpu cortex-m4
   3              		.fpu softvfp
   4              		.eabi_attribute 20, 1
   5              		.eabi_attribute 21, 1
   6              		.eabi_attribute 23, 3
   7              		.eabi_attribute 24, 1
   8              		.eabi_attribute 25, 1
   9              		.eabi_attribute 26, 1
  10              		.eabi_attribute 30, 6
  11              		.eabi_attribute 34, 1
  12              		.eabi_attribute 18, 4
  13              		.thumb
  14              		.file	"nvic.c"
  15              		.text
  16              	.Ltext0:
  17              		.cfi_sections	.debug_frame
  18              		.section	.text.nvicEnableVector,"ax",%progbits
  19              		.align	2
  20              		.p2align 4,,15
  21              		.global	nvicEnableVector
  22              		.thumb
  23              		.thumb_func
  24              		.type	nvicEnableVector, %function
  25              	nvicEnableVector:
  26              	.LFB271:
  27              		.file 1 "/home/efe/ChibiOS/os/hal/ports/common/ARMCMx/nvic.c"
  28              		.loc 1 57 0
  29              		.cfi_startproc
  30              		@ args = 0, pretend = 0, frame = 8
  31              		@ frame_needed = 0, uses_anonymous_args = 0
  32              		@ link register save eliminated.
  33 0000 82B0     		sub	sp, sp, #8
  34              		.cfi_def_cfa_offset 8
  35 0002 0190     		str	r0, [sp, #4]
  36 0004 0091     		str	r1, [sp]
  37              		.loc 1 59 0
  38 0006 1149     		ldr	r1, .L2
  39 0008 009B     		ldr	r3, [sp]
  40 000a DBB2     		uxtb	r3, r3
  41 000c 1B01     		lsls	r3, r3, #4
  42 000e DAB2     		uxtb	r2, r3
  43 0010 019B     		ldr	r3, [sp, #4]
  44 0012 0B44     		add	r3, r3, r1
  45 0014 03F54073 		add	r3, r3, #768
  46 0018 1A70     		strb	r2, [r3]
  47              		.loc 1 60 0
  48 001a 0C4B     		ldr	r3, .L2
  49 001c 019A     		ldr	r2, [sp, #4]
  50 001e 5209     		lsrs	r2, r2, #5
  51 0020 0199     		ldr	r1, [sp, #4]
  52 0022 01F01F01 		and	r1, r1, #31
  53 0026 0120     		movs	r0, #1
  54 0028 00FA01F1 		lsl	r1, r0, r1
  55 002c 6032     		adds	r2, r2, #96
  56 002e 43F82210 		str	r1, [r3, r2, lsl #2]
  57              		.loc 1 61 0
ARM GAS  /tmp/cc8e8YEY.s 			page 2


  58 0032 064B     		ldr	r3, .L2
  59 0034 019A     		ldr	r2, [sp, #4]
  60 0036 5209     		lsrs	r2, r2, #5
  61 0038 0199     		ldr	r1, [sp, #4]
  62 003a 01F01F01 		and	r1, r1, #31
  63 003e 0120     		movs	r0, #1
  64 0040 00FA01F1 		lsl	r1, r0, r1
  65 0044 43F82210 		str	r1, [r3, r2, lsl #2]
  66              		.loc 1 62 0
  67 0048 02B0     		add	sp, sp, #8
  68              		@ sp needed
  69 004a 7047     		bx	lr
  70              	.L3:
  71              		.align	2
  72              	.L2:
  73 004c 00E100E0 		.word	-536813312
  74              		.cfi_endproc
  75              	.LFE271:
  76              		.size	nvicEnableVector, .-nvicEnableVector
  77              		.section	.text.nvicDisableVector,"ax",%progbits
  78              		.align	2
  79              		.p2align 4,,15
  80              		.global	nvicDisableVector
  81              		.thumb
  82              		.thumb_func
  83              		.type	nvicDisableVector, %function
  84              	nvicDisableVector:
  85              	.LFB272:
  86              		.loc 1 69 0
  87              		.cfi_startproc
  88              		@ args = 0, pretend = 0, frame = 8
  89              		@ frame_needed = 0, uses_anonymous_args = 0
  90              		@ link register save eliminated.
  91 0000 82B0     		sub	sp, sp, #8
  92              		.cfi_def_cfa_offset 8
  93 0002 0190     		str	r0, [sp, #4]
  94              		.loc 1 71 0
  95 0004 0A4B     		ldr	r3, .L5
  96 0006 019A     		ldr	r2, [sp, #4]
  97 0008 5209     		lsrs	r2, r2, #5
  98 000a 0199     		ldr	r1, [sp, #4]
  99 000c 01F01F01 		and	r1, r1, #31
 100 0010 0120     		movs	r0, #1
 101 0012 00FA01F1 		lsl	r1, r0, r1
 102 0016 2032     		adds	r2, r2, #32
 103 0018 43F82210 		str	r1, [r3, r2, lsl #2]
 104              		.loc 1 72 0
 105 001c 044A     		ldr	r2, .L5
 106 001e 019B     		ldr	r3, [sp, #4]
 107 0020 1344     		add	r3, r3, r2
 108 0022 03F54073 		add	r3, r3, #768
 109 0026 0022     		movs	r2, #0
 110 0028 1A70     		strb	r2, [r3]
 111              		.loc 1 73 0
 112 002a 02B0     		add	sp, sp, #8
 113              		@ sp needed
 114 002c 7047     		bx	lr
ARM GAS  /tmp/cc8e8YEY.s 			page 3


 115              	.L6:
 116 002e 00BF     		.align	2
 117              	.L5:
 118 0030 00E100E0 		.word	-536813312
 119              		.cfi_endproc
 120              	.LFE272:
 121              		.size	nvicDisableVector, .-nvicDisableVector
 122 0034 AFF30080 		.section	.text.nvicSetSystemHandlerPriority,"ax",%progbits
 122      AFF30080 
 122      AFF30080 
 123              		.align	2
 124              		.p2align 4,,15
 125              		.global	nvicSetSystemHandlerPriority
 126              		.thumb
 127              		.thumb_func
 128              		.type	nvicSetSystemHandlerPriority, %function
 129              	nvicSetSystemHandlerPriority:
 130              	.LFB273:
 131              		.loc 1 81 0
 132              		.cfi_startproc
 133              		@ args = 0, pretend = 0, frame = 8
 134              		@ frame_needed = 0, uses_anonymous_args = 0
 135 0000 00B5     		push	{lr}
 136              		.cfi_def_cfa_offset 4
 137              		.cfi_offset 14, -4
 138 0002 83B0     		sub	sp, sp, #12
 139              		.cfi_def_cfa_offset 16
 140 0004 0190     		str	r0, [sp, #4]
 141 0006 0091     		str	r1, [sp]
 142              		.loc 1 83 0
 143 0008 019B     		ldr	r3, [sp, #4]
 144 000a 0C2B     		cmp	r3, #12
 145 000c 02D9     		bls	.L8
 146              		.loc 1 83 0 is_stmt 0 discriminator 1
 147 000e 0748     		ldr	r0, .L9
 148 0010 FFF7FEFF 		bl	chSysHalt
 149              	.L8:
 150              		.loc 1 88 0 is_stmt 1
 151 0014 0649     		ldr	r1, .L9+4
 152 0016 009B     		ldr	r3, [sp]
 153 0018 DBB2     		uxtb	r3, r3
 154 001a 1B01     		lsls	r3, r3, #4
 155 001c DAB2     		uxtb	r2, r3
 156 001e 019B     		ldr	r3, [sp, #4]
 157 0020 0B44     		add	r3, r3, r1
 158 0022 1833     		adds	r3, r3, #24
 159 0024 1A70     		strb	r2, [r3]
 160              		.loc 1 90 0
 161 0026 03B0     		add	sp, sp, #12
 162              		@ sp needed
 163 0028 5DF804FB 		ldr	pc, [sp], #4
 164              	.L10:
 165              		.align	2
 166              	.L9:
 167 002c 00000000 		.word	__func__.7148
 168 0030 00ED00E0 		.word	-536810240
 169              		.cfi_endproc
ARM GAS  /tmp/cc8e8YEY.s 			page 4


 170              	.LFE273:
 171              		.size	nvicSetSystemHandlerPriority, .-nvicSetSystemHandlerPriority
 172 0034 AFF30080 		.section	.text.nvicClearPending,"ax",%progbits
 172      AFF30080 
 172      AFF30080 
 173              		.align	2
 174              		.p2align 4,,15
 175              		.global	nvicClearPending
 176              		.thumb
 177              		.thumb_func
 178              		.type	nvicClearPending, %function
 179              	nvicClearPending:
 180              	.LFB274:
 181              		.loc 1 97 0
 182              		.cfi_startproc
 183              		@ args = 0, pretend = 0, frame = 8
 184              		@ frame_needed = 0, uses_anonymous_args = 0
 185              		@ link register save eliminated.
 186 0000 82B0     		sub	sp, sp, #8
 187              		.cfi_def_cfa_offset 8
 188 0002 0190     		str	r0, [sp, #4]
 189              		.loc 1 99 0
 190 0004 064B     		ldr	r3, .L12
 191 0006 019A     		ldr	r2, [sp, #4]
 192 0008 5209     		lsrs	r2, r2, #5
 193 000a 0199     		ldr	r1, [sp, #4]
 194 000c 01F01F01 		and	r1, r1, #31
 195 0010 0120     		movs	r0, #1
 196 0012 00FA01F1 		lsl	r1, r0, r1
 197 0016 6032     		adds	r2, r2, #96
 198 0018 43F82210 		str	r1, [r3, r2, lsl #2]
 199              		.loc 1 100 0
 200 001c 02B0     		add	sp, sp, #8
 201              		@ sp needed
 202 001e 7047     		bx	lr
 203              	.L13:
 204              		.align	2
 205              	.L12:
 206 0020 00E100E0 		.word	-536813312
 207              		.cfi_endproc
 208              	.LFE274:
 209              		.size	nvicClearPending, .-nvicClearPending
 210 0024 AFF30080 		.section	.rodata.__func__.7148,"a",%progbits
 210      AFF30080 
 210      AFF30080 
 211              		.align	2
 212              		.type	__func__.7148, %object
 213              		.size	__func__.7148, 29
 214              	__func__.7148:
 215 0000 6E766963 		.ascii	"nvicSetSystemHandlerPriority\000"
 215      53657453 
 215      79737465 
 215      6D48616E 
 215      646C6572 
 216 001d 000000   		.text
 217              	.Letext0:
 218              		.file 2 "/usr/include/newlib/machine/_default_types.h"
ARM GAS  /tmp/cc8e8YEY.s 			page 5


 219              		.file 3 "/usr/include/newlib/stdint.h"
 220              		.file 4 "/home/efe/ChibiOS/os/rt/ports/ARMCMx/compilers/GCC/chtypes.h"
 221              		.file 5 "/home/efe/ChibiOS/os/rt/include/chsystypes.h"
 222              		.file 6 "/home/efe/ChibiOS/os/rt/include/chschd.h"
 223              		.file 7 "/home/efe/ChibiOS/os/ext/CMSIS/include/core_cm4.h"
 224              		.file 8 "/home/efe/ChibiOS/os/rt/ports/ARMCMx/chcore.h"
 225              		.file 9 "/home/efe/ChibiOS/os/rt/ports/ARMCMx/chcore_v7m.h"
 226              		.file 10 "/home/efe/ChibiOS/os/rt/include/chdebug.h"
 227              		.file 11 "/home/efe/ChibiOS/os/rt/include/chtm.h"
 228              		.file 12 "/home/efe/ChibiOS/os/rt/include/chstats.h"
 229              		.file 13 "/home/efe/ChibiOS/os/rt/include/chsem.h"
 230              		.file 14 "/home/efe/ChibiOS/os/rt/include/chmtx.h"