ARM GAS  /tmp/cc8e8YEY.s 			page 1


   1              		.syntax unified
   2              		.cpu cortex-m4
   3              		.fpu softvfp
   4              		.eabi_attribute 20, 1
   5              		.eabi_attribute 21, 1
   6              		.eabi_attribute 23, 3
   7              		.eabi_attribute 24, 1
   8              		.eabi_attribute 25, 1
   9              		.eabi_attribute 26, 1
  10              		.eabi_attribute 30, 6
  11              		.eabi_attribute 34, 1
  12              		.eabi_attribute 18, 4
  13              		.thumb
  14              		.file	"nvic.c"
  15              		.text
  16              	.Ltext0:
  17              		.cfi_sections	.debug_frame
  18              		.section	.text.nvicEnableVector,"ax",%progbits
  19              		.align	2
  20              		.p2align 4,,15
  21              		.global	nvicEnableVector
  22              		.thumb
  23              		.thumb_func
  24              		.type	nvicEnableVector, %function
  25              	nvicEnableVector:
  26              	.LFB271:
  27              		.file 1 "/home/efe/ChibiOS/os/hal/ports/common/ARMCMx/nvic.c"
  28              		.loc 1 57 0
  29              		.cfi_startproc
  30              		@ args = 0, pretend = 0, frame = 8
  31              		@ frame_needed = 0, uses_anonymous_args = 0
  32              		@ link register save eliminated.
  33 0000 82B0     		sub	sp, sp, #8
  34              		.cfi_def_cfa_offset 8
  35 0002 0190     		str	r0, [sp, #4]
  36 0004 0091     		str	r1, [sp]
  37              		.loc 1 59 0
  38 0006 1149     		ldr	r1, .L2
  39 0008 009B     		ldr	r3, [sp]
  40 000a DBB2     		uxtb	r3, r3
  41 000c 1B01     		lsls	r3, r3, #4
  42 000e DAB2     		uxtb	r2, r3
  43 0010 019B     		ldr	r3, [sp, #4]
  44 0012 0B44     		add	r3, r3, r1
  45 0014 03F54073 		add	r3, r3, #768
  46 0018 1A70     		strb	r2, [r3]
  47              		.loc 1 60 0
  48 001a 0C4B     		ldr	r3, .L2
  49 001c 019A     		ldr	r2, [sp, #4]
  50 001e 5209     		lsrs	r2, r2, #5
  51 0020 0199     		ldr	r1, [sp, #4]
  52 0022 01F01F01 		and	r1, r1, #31
  53 0026 0120     		movs	r0, #1
  54 0028 00FA01F1 		lsl	r1, r0, r1
  55 002c 6032     		adds	r2, r2, #96
  56 002e 43F82210 		str	r1, [r3, r2, lsl #2]
  57              		.loc 1 61 0
ARM GAS  /tmp/cc8e8YEY.s 			page 2


  58 0032 064B     		ldr	r3, .L2
  59 0034 019A     		ldr	r2, [sp, #4]
  60 0036 5209     		lsrs	r2, r2, #5
  61 0038 0199     		ldr	r1, [sp, #4]
  62 003a 01F01F01 		and	r1, r1, #31
  63 003e 0120     		movs	r0, #1
  64 0040 00FA01F1 		lsl	r1, r0, r1
  65 0044 43F82210 		str	r1, [r3, r2, lsl #2]
  66              		.loc 1 62 0
  67 0048 02B0     		add	sp, sp, #8
  68              		@ sp needed
  69 004a 7047     		bx	lr
  70              	.L3:
  71              		.align	2
  72              	.L2:
  73 004c 00E100E0 		.word	-536813312
  74              		.cfi_endproc
  75              	.LFE271:
  76              		.size	nvicEnableVector, .-nvicEnableVector
  77              		.section	.text.nvicDisableVector,"ax",%progbits
  78              		.align	2
  79              		.p2align 4,,15
  80              		.global	nvicDisableVector
  81              		.thumb
  82              		.thumb_func
  83              		.type	nvicDisableVector, %function
  84              	nvicDisableVector:
  85              	.LFB272:
  86              		.loc 1 69 0
  87              		.cfi_startproc
  88              		@ args = 0, pretend = 0, frame = 8
  89              		@ frame_needed = 0, uses_anonymous_args = 0
  90              		@ link register save eliminated.
  91 0000 82B0     		sub	sp, sp, #8
  92              		.cfi_def_cfa_offset 8
  93 0002 0190     		str	r0, [sp, #4]
  94              		.loc 1 71 0
  95 0004 0A4B     		ldr	r3, .L5
  96 0006 019A     		ldr	r2, [sp, #4]
  97 0008 5209     		lsrs	r2, r2, #5
  98 000a 0199     		ldr	r1, [sp, #4]
  99 000c 01F01F01 		and	r1, r1, #31
 100 0010 0120     		movs	r0, #1
 101 0012 00FA01F1 		lsl	r1, r0, r1
 102 0016 2032     		adds	r2, r2, #32
 103 0018 43F82210 		str	r1, [r3, r2, lsl #2]
 104              		.loc 1 72 0
 105 001c 044A     		ldr	r2, .L5
 106 001e 019B     		ldr	r3, [sp, #4]
 107 0020 1344     		add	r3, r3, r2
 108 0022 03F54073 		add	r3, r3, #768
 109 0026 0022     		movs	r2, #0
 110 0028 1A70     		strb	r2, [r3]
 111              		.loc 1 73 0
 112 002a 02B0     		add	sp, sp, #8
 113              		@ sp needed
 114 002c 7047     		bx	lr
ARM GAS  /tmp/cc8e8YEY.s 			page 3


 115              	.L6:
 116 002e 00BF     		.align	2
 117              	.L5:
 118 0030 00E100E0 		.word	-536813312
 119              		.cfi_endproc
 120              	.LFE272:
 121              		.size	nvicDisableVector, .-nvicDisableVector
 122 0034 AFF30080 		.section	.text.nvicSetSystemHandlerPriority,"ax",%progbits
 122      AFF30080 
 122      AFF30080 
 123              		.align	2
 124              		.p2align 4,,15
 125              		.global	nvicSetSystemHandlerPriority
 126              		.thumb
 127              		.thumb_func
 128              		.type	nvicSetSystemHandlerPriority, %function
 129              	nvicSetSystemHandlerPriority:
 130              	.LFB273:
 131              		.loc 1 81 0
 132              		.cfi_startproc
 133              		@ args = 0, pretend = 0, frame = 8
 134              		@ frame_needed = 0, uses_anonymous_args = 0
 135 0000 00B5     		push	{lr}
 136              		.cfi_def_cfa_offset 4
 137              		.cfi_offset 14, -4
 138 0002 83B0     		sub	sp, sp, #12
 139              		.cfi_def_cfa_offset 16
 140 0004 0190     		str	r0, [sp, #4]
 141 0006 0091     		str	r1, [sp]
 142              		.loc 1 83 0
 143 0008 019B     		ldr	r3, [sp, #4]
 144 000a 0C2B     		cmp	r3, #12
 145 000c 02D9     		bls	.L8
 146              		.loc 1 83 0 is_stmt 0 discriminator 1
 147 000e 0748     		ldr	r0, .L9
 148 0010 FFF7FEFF 		bl	chSysHalt
 149              	.L8:
 150              		.loc 1 88 0 is_stmt 1
 151 0014 0649     		ldr	r1, .L9+4
 152 0016 009B     		ldr	r3, [sp]
 153 0018 DBB2     		uxtb	r3, r3
 154 001a 1B01     		lsls	r3, r3, #4
 155 001c DAB2     		uxtb	r2, r3
 156 001e 019B     		ldr	r3, [sp, #4]
 157 0020 0B44     		add	r3, r3, r1
 158 0022 1833     		adds	r3, r3, #24
 159 0024 1A70     		strb	r2, [r3]
 160              		.loc 1 90 0
 161 0026 03B0     		add	sp, sp, #12
 162              		@ sp needed
 163 0028 5DF804FB 		ldr	pc, [sp], #4
 164              	.L10:
 165              		.align	2
 166              	.L9:
 167 002c 00000000 		.word	__func__.7148
 168 0030 00ED00E0 		.word	-536810240
 169              		.cfi_endproc
ARM GAS  /tmp/cc8e8YEY.s 			page 4


 170              	.LFE273:
 171              		.size	nvicSetSystemHandlerPriority, .-nvicSetSystemHandlerPriority
 172 0034 AFF30080 		.section	.text.nvicClearPending,"ax",%progbits
 172      AFF30080 
 172      AFF30080 
 173              		.align	2
 174              		.p2align 4,,15
 175              		.global	nvicClearPending
 176              		.thumb
 177              		.thumb_func
 178              		.type	nvicClearPending, %function
 179              	nvicClearPending:
 180              	.LFB274:
 181              		.loc 1 97 0
 182              		.cfi_startproc
 183              		@ args = 0, pretend = 0, frame = 8
 184              		@ frame_needed = 0, uses_anonymous_args = 0
 185              		@ link register save eliminated.
 186 0000 82B0     		sub	sp, sp, #8
 187              		.cfi_def_cfa_offset 8
 188 0002 0190     		str	r0, [sp, #4]
 189              		.loc 1 99 0
 190 0004 064B     		ldr	r3, .L12
 191 0006 019A     		ldr	r2, [sp, #4]
 192 0008 5209     		lsrs	r2, r2, #5
 193 000a 0199     		ldr	r1, [sp, #4]
 194 000c 01F01F01 		and	r1, r1, #31
 195 0010 0120     		movs	r0, #1
 196 0012 00FA01F1 		lsl	r1, r0, r1
 197 0016 6032     		adds	r2, r2, #96
 198 0018 43F82210 		str	r1, [r3, r2, lsl #2]
 199              		.loc 1 100 0
 200 001c 02B0     		add	sp, sp, #8
 201              		@ sp needed
 202 001e 7047     		bx	lr
 203              	.L13:
 204              		.align	2
 205              	.L12:
 206 0020 00E100E0 		.word	-536813312
 207              		.cfi_endproc
 208              	.LFE274:
 209              		.size	nvicClearPending, .-nvicClearPending
 210 0024 AFF30080 		.section	.rodata.__func__.7148,"a",%progbits
 210      AFF30080 
 210      AFF30080 
 211              		.align	2
 212              		.type	__func__.7148, %object
 213              		.size	__func__.7148, 29
 214              	__func__.7148:
 215 0000 6E766963 		.ascii	"nvicSetSystemHandlerPriority\000"
 215      53657453 
 215      79737465 
 215      6D48616E 
 215      646C6572 
 216 001d 000000   		.text
 217              	.Letext0:
 218              		.file 2 "/usr/include/newlib/machine/_default_types.h"
ARM GAS  /tmp/cc8e8YEY.s 			page 5


 219              		.file 3 "/usr/include/newlib/stdint.h"
 220              		.file 4 "/home/efe/ChibiOS/os/rt/ports/ARMCMx/compilers/GCC/chtypes.h"
 221              		.file 5 "/home/efe/ChibiOS/os/rt/include/chsystypes.h"
 222              		.file 6 "/home/efe/ChibiOS/os/rt/include/chschd.h"
 223              		.file 7 "/home/efe/ChibiOS/os/ext/CMSIS/include/core_cm4.h"
 224              		.file 8 "/home/efe/ChibiOS/os/rt/ports/ARMCMx/chcore.h"
 225              		.file 9 "/home/efe/ChibiOS/os/rt/ports/ARMCMx/chcore_v7m.h"
 226              		.file 10 "/home/efe/ChibiOS/os/rt/include/chdebug.h"
 227              		.file 11 "/home/efe/ChibiOS/os/rt/include/chtm.h"
 228              		.file 12 "/home/efe/ChibiOS/os/rt/include/chstats.h"
 229              		.file 13 "/home/efe/ChibiOS/os/rt/include/chsem.h"
 230              		.file 14 "/home/efe/ChibiOS/os/rt/include/chmtx.h"
 231              		.section	.debug_info,"",%progbits
 232              	.Ldebug_info0:
 233 0000 5A0B0000 		.4byte	0xb5a
 234 0004 0400     		.2byte	0x4
 235 0006 00000000 		.4byte	.Ldebug_abbrev0
 236 000a 04       		.byte	0x4
 237 000b 01       		.uleb128 0x1
 238 000c 8C010000 		.4byte	.LASF164
 239 0010 01       		.byte	0x1
 240 0011 90020000 		.4byte	.LASF165
 241 0015 00000000 		.4byte	.Ldebug_ranges0+0
 242 0019 00000000 		.4byte	0
 243 001d 00000000 		.4byte	.Ldebug_line0
 244 0021 02       		.uleb128 0x2
 245 0022 04       		.byte	0x4
 246 0023 05       		.byte	0x5
 247 0024 696E7400 		.ascii	"int\000"
 248 0028 03       		.uleb128 0x3
 249 0029 04       		.byte	0x4
 250 002a 07       		.byte	0x7
 251 002b F5020000 		.4byte	.LASF0
 252 002f 03       		.uleb128 0x3
 253 0030 01       		.byte	0x1
 254 0031 06       		.byte	0x6
 255 0032 36010000 		.4byte	.LASF1
 256 0036 04       		.uleb128 0x4
 257 0037 4C000000 		.4byte	.LASF5
 258 003b 02       		.byte	0x2
 259 003c 1D       		.byte	0x1d
 260 003d 41000000 		.4byte	0x41
 261 0041 03       		.uleb128 0x3
 262 0042 01       		.byte	0x1
 263 0043 08       		.byte	0x8
 264 0044 E9040000 		.4byte	.LASF2
 265 0048 03       		.uleb128 0x3
 266 0049 02       		.byte	0x2
 267 004a 05       		.byte	0x5
 268 004b 1C050000 		.4byte	.LASF3
 269 004f 03       		.uleb128 0x3
 270 0050 02       		.byte	0x2
 271 0051 07       		.byte	0x7
 272 0052 88050000 		.4byte	.LASF4
 273 0056 04       		.uleb128 0x4
 274 0057 B6030000 		.4byte	.LASF6
 275 005b 02       		.byte	0x2
ARM GAS  /tmp/cc8e8YEY.s 			page 6


 276 005c 3F       		.byte	0x3f
 277 005d 61000000 		.4byte	0x61
 278 0061 03       		.uleb128 0x3
 279 0062 04       		.byte	0x4
 280 0063 05       		.byte	0x5
 281 0064 74010000 		.4byte	.LASF7
 282 0068 04       		.uleb128 0x4
 283 0069 53060000 		.4byte	.LASF8
 284 006d 02       		.byte	0x2
 285 006e 41       		.byte	0x41
 286 006f 73000000 		.4byte	0x73
 287 0073 03       		.uleb128 0x3
 288 0074 04       		.byte	0x4
 289 0075 07       		.byte	0x7
 290 0076 FF050000 		.4byte	.LASF9
 291 007a 03       		.uleb128 0x3
 292 007b 08       		.byte	0x8
 293 007c 05       		.byte	0x5
 294 007d 28010000 		.4byte	.LASF10
 295 0081 04       		.uleb128 0x4
 296 0082 7D040000 		.4byte	.LASF11
 297 0086 02       		.byte	0x2
 298 0087 5B       		.byte	0x5b
 299 0088 8C000000 		.4byte	0x8c
 300 008c 03       		.uleb128 0x3
 301 008d 08       		.byte	0x8
 302 008e 07       		.byte	0x7
 303 008f 9B000000 		.4byte	.LASF12
 304 0093 04       		.uleb128 0x4
 305 0094 BE060000 		.4byte	.LASF13
 306 0098 03       		.byte	0x3
 307 0099 2A       		.byte	0x2a
 308 009a 36000000 		.4byte	0x36
 309 009e 04       		.uleb128 0x4
 310 009f E1040000 		.4byte	.LASF14
 311 00a3 03       		.byte	0x3
 312 00a4 41       		.byte	0x41
 313 00a5 56000000 		.4byte	0x56
 314 00a9 04       		.uleb128 0x4
 315 00aa CE050000 		.4byte	.LASF15
 316 00ae 03       		.byte	0x3
 317 00af 42       		.byte	0x42
 318 00b0 68000000 		.4byte	0x68
 319 00b4 04       		.uleb128 0x4
 320 00b5 36000000 		.4byte	.LASF16
 321 00b9 03       		.byte	0x3
 322 00ba 4E       		.byte	0x4e
 323 00bb 81000000 		.4byte	0x81
 324 00bf 05       		.uleb128 0x5
 325 00c0 9E000000 		.4byte	0x9e
 326 00c4 05       		.uleb128 0x5
 327 00c5 A9000000 		.4byte	0xa9
 328 00c9 04       		.uleb128 0x4
 329 00ca 7C060000 		.4byte	.LASF17
 330 00ce 04       		.byte	0x4
 331 00cf 45       		.byte	0x45
 332 00d0 A9000000 		.4byte	0xa9
ARM GAS  /tmp/cc8e8YEY.s 			page 7


 333 00d4 04       		.uleb128 0x4
 334 00d5 FD000000 		.4byte	.LASF18
 335 00d9 04       		.byte	0x4
 336 00da 46       		.byte	0x46
 337 00db B4000000 		.4byte	0xb4
 338 00df 04       		.uleb128 0x4
 339 00e0 67050000 		.4byte	.LASF19
 340 00e4 04       		.byte	0x4
 341 00e5 48       		.byte	0x48
 342 00e6 93000000 		.4byte	0x93
 343 00ea 04       		.uleb128 0x4
 344 00eb 7D010000 		.4byte	.LASF20
 345 00ef 04       		.byte	0x4
 346 00f0 49       		.byte	0x49
 347 00f1 93000000 		.4byte	0x93
 348 00f5 04       		.uleb128 0x4
 349 00f6 93040000 		.4byte	.LASF21
 350 00fa 04       		.byte	0x4
 351 00fb 4A       		.byte	0x4a
 352 00fc 93000000 		.4byte	0x93
 353 0100 04       		.uleb128 0x4
 354 0101 CA040000 		.4byte	.LASF22
 355 0105 04       		.byte	0x4
 356 0106 4C       		.byte	0x4c
 357 0107 A9000000 		.4byte	0xa9
 358 010b 04       		.uleb128 0x4
 359 010c 5D030000 		.4byte	.LASF23
 360 0110 04       		.byte	0x4
 361 0111 4D       		.byte	0x4d
 362 0112 9E000000 		.4byte	0x9e
 363 0116 04       		.uleb128 0x4
 364 0117 AA030000 		.4byte	.LASF24
 365 011b 04       		.byte	0x4
 366 011c 4F       		.byte	0x4f
 367 011d A9000000 		.4byte	0xa9
 368 0121 04       		.uleb128 0x4
 369 0122 E4020000 		.4byte	.LASF25
 370 0126 04       		.byte	0x4
 371 0127 51       		.byte	0x51
 372 0128 9E000000 		.4byte	0x9e
 373 012c 04       		.uleb128 0x4
 374 012d 6E030000 		.4byte	.LASF26
 375 0131 04       		.byte	0x4
 376 0132 52       		.byte	0x52
 377 0133 A9000000 		.4byte	0xa9
 378 0137 04       		.uleb128 0x4
 379 0138 35060000 		.4byte	.LASF27
 380 013c 05       		.byte	0x5
 381 013d 33       		.byte	0x33
 382 013e A9000000 		.4byte	0xa9
 383 0142 04       		.uleb128 0x4
 384 0143 20060000 		.4byte	.LASF28
 385 0147 05       		.byte	0x5
 386 0148 3F       		.byte	0x3f
 387 0149 4D010000 		.4byte	0x14d
 388 014d 06       		.uleb128 0x6
 389 014e 4E030000 		.4byte	.LASF50
ARM GAS  /tmp/cc8e8YEY.s 			page 8


 390 0152 60       		.byte	0x60
 391 0153 06       		.byte	0x6
 392 0154 C2       		.byte	0xc2
 393 0155 53020000 		.4byte	0x253
 394 0159 07       		.uleb128 0x7
 395 015a 60050000 		.4byte	.LASF29
 396 015e 06       		.byte	0x6
 397 015f C3       		.byte	0xc3
 398 0160 5E020000 		.4byte	0x25e
 399 0164 00       		.byte	0
 400 0165 07       		.uleb128 0x7
 401 0166 C3040000 		.4byte	.LASF30
 402 016a 06       		.byte	0x6
 403 016b C5       		.byte	0xc5
 404 016c 5E020000 		.4byte	0x25e
 405 0170 04       		.byte	0x4
 406 0171 07       		.uleb128 0x7
 407 0172 0B010000 		.4byte	.LASF31
 408 0176 06       		.byte	0x6
 409 0177 C7       		.byte	0xc7
 410 0178 00010000 		.4byte	0x100
 411 017c 08       		.byte	0x8
 412 017d 07       		.uleb128 0x7
 413 017e 1D070000 		.4byte	.LASF32
 414 0182 06       		.byte	0x6
 415 0183 C8       		.byte	0xc8
 416 0184 8D070000 		.4byte	0x78d
 417 0188 0C       		.byte	0xc
 418 0189 07       		.uleb128 0x7
 419 018a 3C020000 		.4byte	.LASF33
 420 018e 06       		.byte	0x6
 421 018f CA       		.byte	0xca
 422 0190 5E020000 		.4byte	0x25e
 423 0194 10       		.byte	0x10
 424 0195 07       		.uleb128 0x7
 425 0196 4C040000 		.4byte	.LASF34
 426 019a 06       		.byte	0x6
 427 019b CB       		.byte	0xcb
 428 019c 5E020000 		.4byte	0x25e
 429 01a0 14       		.byte	0x14
 430 01a1 07       		.uleb128 0x7
 431 01a2 DB060000 		.4byte	.LASF35
 432 01a6 06       		.byte	0x6
 433 01a7 D2       		.byte	0xd2
 434 01a8 310A0000 		.4byte	0xa31
 435 01ac 18       		.byte	0x18
 436 01ad 07       		.uleb128 0x7
 437 01ae EA020000 		.4byte	.LASF36
 438 01b2 06       		.byte	0x6
 439 01b3 D8       		.byte	0xd8
 440 01b4 430A0000 		.4byte	0xa43
 441 01b8 1C       		.byte	0x1c
 442 01b9 07       		.uleb128 0x7
 443 01ba 0A050000 		.4byte	.LASF37
 444 01be 06       		.byte	0x6
 445 01bf DD       		.byte	0xdd
 446 01c0 EA000000 		.4byte	0xea
ARM GAS  /tmp/cc8e8YEY.s 			page 9


 447 01c4 20       		.byte	0x20
 448 01c5 07       		.uleb128 0x7
 449 01c6 6F050000 		.4byte	.LASF38
 450 01ca 06       		.byte	0x6
 451 01cb E1       		.byte	0xe1
 452 01cc DF000000 		.4byte	0xdf
 453 01d0 21       		.byte	0x21
 454 01d1 07       		.uleb128 0x7
 455 01d2 A4060000 		.4byte	.LASF39
 456 01d6 06       		.byte	0x6
 457 01d7 E6       		.byte	0xe6
 458 01d8 F5000000 		.4byte	0xf5
 459 01dc 22       		.byte	0x22
 460 01dd 08       		.uleb128 0x8
 461 01de 705F7500 		.ascii	"p_u\000"
 462 01e2 06       		.byte	0x6
 463 01e3 3101     		.2byte	0x131
 464 01e5 6C090000 		.4byte	0x96c
 465 01e9 24       		.byte	0x24
 466 01ea 09       		.uleb128 0x9
 467 01eb E3030000 		.4byte	.LASF40
 468 01ef 06       		.byte	0x6
 469 01f0 3601     		.2byte	0x136
 470 01f2 64020000 		.4byte	0x264
 471 01f6 28       		.byte	0x28
 472 01f7 09       		.uleb128 0x9
 473 01f8 23030000 		.4byte	.LASF41
 474 01fc 06       		.byte	0x6
 475 01fd 3C01     		.2byte	0x13c
 476 01ff 88020000 		.4byte	0x288
 477 0203 2C       		.byte	0x2c
 478 0204 09       		.uleb128 0x9
 479 0205 EF060000 		.4byte	.LASF42
 480 0209 06       		.byte	0x6
 481 020a 4001     		.2byte	0x140
 482 020c 0B010000 		.4byte	0x10b
 483 0210 34       		.byte	0x34
 484 0211 09       		.uleb128 0x9
 485 0212 B9050000 		.4byte	.LASF43
 486 0216 06       		.byte	0x6
 487 0217 4601     		.2byte	0x146
 488 0219 16010000 		.4byte	0x116
 489 021d 38       		.byte	0x38
 490 021e 09       		.uleb128 0x9
 491 021f 12050000 		.4byte	.LASF44
 492 0223 06       		.byte	0x6
 493 0224 4D01     		.2byte	0x14d
 494 0226 2B0A0000 		.4byte	0xa2b
 495 022a 3C       		.byte	0x3c
 496 022b 09       		.uleb128 0x9
 497 022c 3F060000 		.4byte	.LASF45
 498 0230 06       		.byte	0x6
 499 0231 5101     		.2byte	0x151
 500 0233 00010000 		.4byte	0x100
 501 0237 40       		.byte	0x40
 502 0238 09       		.uleb128 0x9
 503 0239 42010000 		.4byte	.LASF46
ARM GAS  /tmp/cc8e8YEY.s 			page 10


 504 023d 06       		.byte	0x6
 505 023e 5801     		.2byte	0x158
 506 0240 3B030000 		.4byte	0x33b
 507 0244 44       		.byte	0x44
 508 0245 09       		.uleb128 0x9
 509 0246 80050000 		.4byte	.LASF47
 510 024a 06       		.byte	0x6
 511 024b 5E01     		.2byte	0x15e
 512 024d 1D090000 		.4byte	0x91d
 513 0251 48       		.byte	0x48
 514 0252 00       		.byte	0
 515 0253 04       		.uleb128 0x4
 516 0254 F6030000 		.4byte	.LASF48
 517 0258 05       		.byte	0x5
 518 0259 44       		.byte	0x44
 519 025a 5E020000 		.4byte	0x25e
 520 025e 0A       		.uleb128 0xa
 521 025f 04       		.byte	0x4
 522 0260 42010000 		.4byte	0x142
 523 0264 04       		.uleb128 0x4
 524 0265 00000000 		.4byte	.LASF49
 525 0269 05       		.byte	0x5
 526 026a 49       		.byte	0x49
 527 026b 6F020000 		.4byte	0x26f
 528 026f 06       		.uleb128 0x6
 529 0270 EF050000 		.4byte	.LASF51
 530 0274 04       		.byte	0x4
 531 0275 06       		.byte	0x6
 532 0276 B0       		.byte	0xb0
 533 0277 88020000 		.4byte	0x288
 534 027b 07       		.uleb128 0x7
 535 027c 60050000 		.4byte	.LASF29
 536 0280 06       		.byte	0x6
 537 0281 B1       		.byte	0xb1
 538 0282 5E020000 		.4byte	0x25e
 539 0286 00       		.byte	0
 540 0287 00       		.byte	0
 541 0288 04       		.uleb128 0x4
 542 0289 8B060000 		.4byte	.LASF52
 543 028d 05       		.byte	0x5
 544 028e 50       		.byte	0x50
 545 028f 93020000 		.4byte	0x293
 546 0293 06       		.uleb128 0x6
 547 0294 62000000 		.4byte	.LASF53
 548 0298 08       		.byte	0x8
 549 0299 06       		.byte	0x6
 550 029a B7       		.byte	0xb7
 551 029b B8020000 		.4byte	0x2b8
 552 029f 07       		.uleb128 0x7
 553 02a0 60050000 		.4byte	.LASF29
 554 02a4 06       		.byte	0x6
 555 02a5 B8       		.byte	0xb8
 556 02a6 5E020000 		.4byte	0x25e
 557 02aa 00       		.byte	0
 558 02ab 07       		.uleb128 0x7
 559 02ac C3040000 		.4byte	.LASF30
 560 02b0 06       		.byte	0x6
ARM GAS  /tmp/cc8e8YEY.s 			page 11


 561 02b1 B9       		.byte	0xb9
 562 02b2 5E020000 		.4byte	0x25e
 563 02b6 04       		.byte	0x4
 564 02b7 00       		.byte	0
 565 02b8 04       		.uleb128 0x4
 566 02b9 14000000 		.4byte	.LASF54
 567 02bd 05       		.byte	0x5
 568 02be 57       		.byte	0x57
 569 02bf C3020000 		.4byte	0x2c3
 570 02c3 0B       		.uleb128 0xb
 571 02c4 9C030000 		.4byte	.LASF55
 572 02c8 1C       		.byte	0x1c
 573 02c9 06       		.byte	0x6
 574 02ca 9001     		.2byte	0x190
 575 02cc 1F030000 		.4byte	0x31f
 576 02d0 09       		.uleb128 0x9
 577 02d1 DE050000 		.4byte	.LASF56
 578 02d5 06       		.byte	0x6
 579 02d6 9101     		.2byte	0x191
 580 02d8 88020000 		.4byte	0x288
 581 02dc 00       		.byte	0
 582 02dd 09       		.uleb128 0x9
 583 02de 52050000 		.4byte	.LASF57
 584 02e2 06       		.byte	0x6
 585 02e3 9201     		.2byte	0x192
 586 02e5 00010000 		.4byte	0x100
 587 02e9 08       		.byte	0x8
 588 02ea 09       		.uleb128 0x9
 589 02eb 54040000 		.4byte	.LASF58
 590 02ef 06       		.byte	0x6
 591 02f0 9401     		.2byte	0x194
 592 02f2 8D070000 		.4byte	0x78d
 593 02f6 0C       		.byte	0xc
 594 02f7 09       		.uleb128 0x9
 595 02f8 5E020000 		.4byte	.LASF59
 596 02fc 06       		.byte	0x6
 597 02fd 9701     		.2byte	0x197
 598 02ff 5E020000 		.4byte	0x25e
 599 0303 10       		.byte	0x10
 600 0304 09       		.uleb128 0x9
 601 0305 75040000 		.4byte	.LASF60
 602 0309 06       		.byte	0x6
 603 030a 9801     		.2byte	0x198
 604 030c 5E020000 		.4byte	0x25e
 605 0310 14       		.byte	0x14
 606 0311 09       		.uleb128 0x9
 607 0312 11060000 		.4byte	.LASF61
 608 0316 06       		.byte	0x6
 609 0317 9B01     		.2byte	0x19b
 610 0319 5E020000 		.4byte	0x25e
 611 031d 18       		.byte	0x18
 612 031e 00       		.byte	0
 613 031f 04       		.uleb128 0x4
 614 0320 4A060000 		.4byte	.LASF62
 615 0324 05       		.byte	0x5
 616 0325 5C       		.byte	0x5c
 617 0326 2A030000 		.4byte	0x32a
ARM GAS  /tmp/cc8e8YEY.s 			page 12


 618 032a 0A       		.uleb128 0xa
 619 032b 04       		.byte	0x4
 620 032c 30030000 		.4byte	0x330
 621 0330 0C       		.uleb128 0xc
 622 0331 3B030000 		.4byte	0x33b
 623 0335 0D       		.uleb128 0xd
 624 0336 3B030000 		.4byte	0x33b
 625 033a 00       		.byte	0
 626 033b 0E       		.uleb128 0xe
 627 033c 04       		.byte	0x4
 628 033d 04       		.uleb128 0x4
 629 033e D3030000 		.4byte	.LASF63
 630 0342 05       		.byte	0x5
 631 0343 61       		.byte	0x61
 632 0344 48030000 		.4byte	0x348
 633 0348 0B       		.uleb128 0xb
 634 0349 9B050000 		.4byte	.LASF64
 635 034d 14       		.byte	0x14
 636 034e 06       		.byte	0x6
 637 034f 6B01     		.2byte	0x16b
 638 0351 97030000 		.4byte	0x397
 639 0355 09       		.uleb128 0x9
 640 0356 02030000 		.4byte	.LASF65
 641 035a 06       		.byte	0x6
 642 035b 6C01     		.2byte	0x16c
 643 035d 490A0000 		.4byte	0xa49
 644 0361 00       		.byte	0
 645 0362 09       		.uleb128 0x9
 646 0363 6F020000 		.4byte	.LASF66
 647 0367 06       		.byte	0x6
 648 0368 6D01     		.2byte	0x16d
 649 036a 490A0000 		.4byte	0xa49
 650 036e 04       		.byte	0x4
 651 036f 09       		.uleb128 0x9
 652 0370 E6050000 		.4byte	.LASF67
 653 0374 06       		.byte	0x6
 654 0375 6E01     		.2byte	0x16e
 655 0377 37010000 		.4byte	0x137
 656 037b 08       		.byte	0x8
 657 037c 09       		.uleb128 0x9
 658 037d 23070000 		.4byte	.LASF68
 659 0381 06       		.byte	0x6
 660 0382 6F01     		.2byte	0x16f
 661 0384 1F030000 		.4byte	0x31f
 662 0388 0C       		.byte	0xc
 663 0389 09       		.uleb128 0x9
 664 038a 84060000 		.4byte	.LASF69
 665 038e 06       		.byte	0x6
 666 038f 7101     		.2byte	0x171
 667 0391 3B030000 		.4byte	0x33b
 668 0395 10       		.byte	0x10
 669 0396 00       		.byte	0
 670 0397 04       		.uleb128 0x4
 671 0398 E1000000 		.4byte	.LASF70
 672 039c 05       		.byte	0x5
 673 039d 66       		.byte	0x66
 674 039e A2030000 		.4byte	0x3a2
ARM GAS  /tmp/cc8e8YEY.s 			page 13


 675 03a2 0B       		.uleb128 0xb
 676 03a3 09040000 		.4byte	.LASF71
 677 03a7 10       		.byte	0x10
 678 03a8 06       		.byte	0x6
 679 03a9 7B01     		.2byte	0x17b
 680 03ab E4030000 		.4byte	0x3e4
 681 03af 09       		.uleb128 0x9
 682 03b0 02030000 		.4byte	.LASF65
 683 03b4 06       		.byte	0x6
 684 03b5 7C01     		.2byte	0x17c
 685 03b7 490A0000 		.4byte	0xa49
 686 03bb 00       		.byte	0
 687 03bc 09       		.uleb128 0x9
 688 03bd 6F020000 		.4byte	.LASF66
 689 03c1 06       		.byte	0x6
 690 03c2 7E01     		.2byte	0x17e
 691 03c4 490A0000 		.4byte	0xa49
 692 03c8 04       		.byte	0x4
 693 03c9 09       		.uleb128 0x9
 694 03ca E6050000 		.4byte	.LASF67
 695 03ce 06       		.byte	0x6
 696 03cf 8001     		.2byte	0x180
 697 03d1 37010000 		.4byte	0x137
 698 03d5 08       		.byte	0x8
 699 03d6 09       		.uleb128 0x9
 700 03d7 40040000 		.4byte	.LASF72
 701 03db 06       		.byte	0x6
 702 03dc 8801     		.2byte	0x188
 703 03de 37010000 		.4byte	0x137
 704 03e2 0C       		.byte	0xc
 705 03e3 00       		.byte	0
 706 03e4 04       		.uleb128 0x4
 707 03e5 73000000 		.4byte	.LASF73
 708 03e9 05       		.byte	0x5
 709 03ea 6B       		.byte	0x6b
 710 03eb EF030000 		.4byte	0x3ef
 711 03ef 0F       		.uleb128 0xf
 712 03f0 80020000 		.4byte	.LASF74
 713 03f4 1404     		.2byte	0x414
 714 03f6 06       		.byte	0x6
 715 03f7 A201     		.2byte	0x1a2
 716 03f9 32040000 		.4byte	0x432
 717 03fd 09       		.uleb128 0x9
 718 03fe 63060000 		.4byte	.LASF75
 719 0402 06       		.byte	0x6
 720 0403 AA01     		.2byte	0x1aa
 721 0405 4F0A0000 		.4byte	0xa4f
 722 0409 00       		.byte	0
 723 040a 09       		.uleb128 0x9
 724 040b AB060000 		.4byte	.LASF76
 725 040f 06       		.byte	0x6
 726 0410 AF01     		.2byte	0x1af
 727 0412 21010000 		.4byte	0x121
 728 0416 04       		.byte	0x4
 729 0417 09       		.uleb128 0x9
 730 0418 CC020000 		.4byte	.LASF77
 731 041c 06       		.byte	0x6
ARM GAS  /tmp/cc8e8YEY.s 			page 14


 732 041d B301     		.2byte	0x1b3
 733 041f 21010000 		.4byte	0x121
 734 0423 08       		.byte	0x8
 735 0424 09       		.uleb128 0x9
 736 0425 E2060000 		.4byte	.LASF78
 737 0429 06       		.byte	0x6
 738 042a B901     		.2byte	0x1b9
 739 042c AF080000 		.4byte	0x8af
 740 0430 0C       		.byte	0xc
 741 0431 00       		.byte	0
 742 0432 04       		.uleb128 0x4
 743 0433 7B030000 		.4byte	.LASF79
 744 0437 05       		.byte	0x5
 745 0438 70       		.byte	0x70
 746 0439 3D040000 		.4byte	0x43d
 747 043d 0F       		.uleb128 0xf
 748 043e 6A010000 		.4byte	.LASF80
 749 0442 D805     		.2byte	0x5d8
 750 0444 06       		.byte	0x6
 751 0445 C201     		.2byte	0x1c2
 752 0447 AA040000 		.4byte	0x4aa
 753 044b 09       		.uleb128 0x9
 754 044c B8060000 		.4byte	.LASF81
 755 0450 06       		.byte	0x6
 756 0451 C601     		.2byte	0x1c6
 757 0453 B8020000 		.4byte	0x2b8
 758 0457 00       		.byte	0
 759 0458 09       		.uleb128 0x9
 760 0459 63010000 		.4byte	.LASF82
 761 045d 06       		.byte	0x6
 762 045e CA01     		.2byte	0x1ca
 763 0460 97030000 		.4byte	0x397
 764 0464 1C       		.byte	0x1c
 765 0465 08       		.uleb128 0x8
 766 0466 64626700 		.ascii	"dbg\000"
 767 046a 06       		.byte	0x6
 768 046b CE01     		.2byte	0x1ce
 769 046d E4030000 		.4byte	0x3e4
 770 0471 2C       		.byte	0x2c
 771 0472 10       		.uleb128 0x10
 772 0473 D6000000 		.4byte	.LASF83
 773 0477 06       		.byte	0x6
 774 0478 D201     		.2byte	0x1d2
 775 047a 42010000 		.4byte	0x142
 776 047e 4004     		.2byte	0x440
 777 0480 11       		.uleb128 0x11
 778 0481 746D00   		.ascii	"tm\000"
 779 0484 06       		.byte	0x6
 780 0485 D701     		.2byte	0x1d7
 781 0487 CF080000 		.4byte	0x8cf
 782 048b A004     		.2byte	0x4a0
 783 048d 10       		.uleb128 0x10
 784 048e 3F000000 		.4byte	.LASF84
 785 0492 06       		.byte	0x6
 786 0493 DD01     		.2byte	0x1dd
 787 0495 61090000 		.4byte	0x961
 788 0499 A804     		.2byte	0x4a8
ARM GAS  /tmp/cc8e8YEY.s 			page 15


 789 049b 10       		.uleb128 0x10
 790 049c D5020000 		.4byte	.LASF85
 791 04a0 06       		.byte	0x6
 792 04a1 E301     		.2byte	0x1e3
 793 04a3 540A0000 		.4byte	0xa54
 794 04a7 E004     		.2byte	0x4e0
 795 04a9 00       		.byte	0
 796 04aa 12       		.uleb128 0x12
 797 04ab 040E     		.2byte	0xe04
 798 04ad 07       		.byte	0x7
 799 04ae A001     		.2byte	0x1a0
 800 04b0 66050000 		.4byte	0x566
 801 04b4 09       		.uleb128 0x9
 802 04b5 26050000 		.4byte	.LASF86
 803 04b9 07       		.byte	0x7
 804 04ba A201     		.2byte	0x1a2
 805 04bc 7D050000 		.4byte	0x57d
 806 04c0 00       		.byte	0
 807 04c1 09       		.uleb128 0x9
 808 04c2 9B040000 		.4byte	.LASF87
 809 04c6 07       		.byte	0x7
 810 04c7 A301     		.2byte	0x1a3
 811 04c9 82050000 		.4byte	0x582
 812 04cd 20       		.byte	0x20
 813 04ce 09       		.uleb128 0x9
 814 04cf 6B040000 		.4byte	.LASF88
 815 04d3 07       		.byte	0x7
 816 04d4 A401     		.2byte	0x1a4
 817 04d6 92050000 		.4byte	0x592
 818 04da 80       		.byte	0x80
 819 04db 09       		.uleb128 0x9
 820 04dc C6060000 		.4byte	.LASF89
 821 04e0 07       		.byte	0x7
 822 04e1 A501     		.2byte	0x1a5
 823 04e3 82050000 		.4byte	0x582
 824 04e7 A0       		.byte	0xa0
 825 04e8 10       		.uleb128 0x10
 826 04e9 06010000 		.4byte	.LASF90
 827 04ed 07       		.byte	0x7
 828 04ee A601     		.2byte	0x1a6
 829 04f0 97050000 		.4byte	0x597
 830 04f4 0001     		.2byte	0x100
 831 04f6 10       		.uleb128 0x10
 832 04f7 A5040000 		.4byte	.LASF91
 833 04fb 07       		.byte	0x7
 834 04fc A701     		.2byte	0x1a7
 835 04fe 82050000 		.4byte	0x582
 836 0502 2001     		.2byte	0x120
 837 0504 10       		.uleb128 0x10
 838 0505 0F000000 		.4byte	.LASF92
 839 0509 07       		.byte	0x7
 840 050a A801     		.2byte	0x1a8
 841 050c 9C050000 		.4byte	0x59c
 842 0510 8001     		.2byte	0x180
 843 0512 10       		.uleb128 0x10
 844 0513 AF040000 		.4byte	.LASF93
 845 0517 07       		.byte	0x7
ARM GAS  /tmp/cc8e8YEY.s 			page 16


 846 0518 A901     		.2byte	0x1a9
 847 051a 82050000 		.4byte	0x582
 848 051e A001     		.2byte	0x1a0
 849 0520 10       		.uleb128 0x10
 850 0521 2C040000 		.4byte	.LASF94
 851 0525 07       		.byte	0x7
 852 0526 AA01     		.2byte	0x1aa
 853 0528 A1050000 		.4byte	0x5a1
 854 052c 0002     		.2byte	0x200
 855 052e 10       		.uleb128 0x10
 856 052f B9040000 		.4byte	.LASF95
 857 0533 07       		.byte	0x7
 858 0534 AB01     		.2byte	0x1ab
 859 0536 A6050000 		.4byte	0x5a6
 860 053a 2002     		.2byte	0x220
 861 053c 11       		.uleb128 0x11
 862 053d 495000   		.ascii	"IP\000"
 863 0540 07       		.byte	0x7
 864 0541 AC01     		.2byte	0x1ac
 865 0543 C6050000 		.4byte	0x5c6
 866 0547 0003     		.2byte	0x300
 867 0549 10       		.uleb128 0x10
 868 054a C4050000 		.4byte	.LASF96
 869 054e 07       		.byte	0x7
 870 054f AD01     		.2byte	0x1ad
 871 0551 CB050000 		.4byte	0x5cb
 872 0555 F003     		.2byte	0x3f0
 873 0557 10       		.uleb128 0x10
 874 0558 CF060000 		.4byte	.LASF97
 875 055c 07       		.byte	0x7
 876 055d AE01     		.2byte	0x1ae
 877 055f C4000000 		.4byte	0xc4
 878 0563 000E     		.2byte	0xe00
 879 0565 00       		.byte	0
 880 0566 13       		.uleb128 0x13
 881 0567 A9000000 		.4byte	0xa9
 882 056b 76050000 		.4byte	0x576
 883 056f 14       		.uleb128 0x14
 884 0570 76050000 		.4byte	0x576
 885 0574 07       		.byte	0x7
 886 0575 00       		.byte	0
 887 0576 03       		.uleb128 0x3
 888 0577 04       		.byte	0x4
 889 0578 07       		.byte	0x7
 890 0579 ED030000 		.4byte	.LASF98
 891 057d 05       		.uleb128 0x5
 892 057e 66050000 		.4byte	0x566
 893 0582 13       		.uleb128 0x13
 894 0583 A9000000 		.4byte	0xa9
 895 0587 92050000 		.4byte	0x592
 896 058b 14       		.uleb128 0x14
 897 058c 76050000 		.4byte	0x576
 898 0590 17       		.byte	0x17
 899 0591 00       		.byte	0
 900 0592 05       		.uleb128 0x5
 901 0593 66050000 		.4byte	0x566
 902 0597 05       		.uleb128 0x5
ARM GAS  /tmp/cc8e8YEY.s 			page 17


 903 0598 66050000 		.4byte	0x566
 904 059c 05       		.uleb128 0x5
 905 059d 66050000 		.4byte	0x566
 906 05a1 05       		.uleb128 0x5
 907 05a2 66050000 		.4byte	0x566
 908 05a6 13       		.uleb128 0x13
 909 05a7 A9000000 		.4byte	0xa9
 910 05ab B6050000 		.4byte	0x5b6
 911 05af 14       		.uleb128 0x14
 912 05b0 76050000 		.4byte	0x576
 913 05b4 37       		.byte	0x37
 914 05b5 00       		.byte	0
 915 05b6 13       		.uleb128 0x13
 916 05b7 93000000 		.4byte	0x93
 917 05bb C6050000 		.4byte	0x5c6
 918 05bf 14       		.uleb128 0x14
 919 05c0 76050000 		.4byte	0x576
 920 05c4 EF       		.byte	0xef
 921 05c5 00       		.byte	0
 922 05c6 05       		.uleb128 0x5
 923 05c7 B6050000 		.4byte	0x5b6
 924 05cb 13       		.uleb128 0x13
 925 05cc A9000000 		.4byte	0xa9
 926 05d0 DC050000 		.4byte	0x5dc
 927 05d4 15       		.uleb128 0x15
 928 05d5 76050000 		.4byte	0x576
 929 05d9 8302     		.2byte	0x283
 930 05db 00       		.byte	0
 931 05dc 16       		.uleb128 0x16
 932 05dd 2B050000 		.4byte	.LASF99
 933 05e1 07       		.byte	0x7
 934 05e2 AF01     		.2byte	0x1af
 935 05e4 AA040000 		.4byte	0x4aa
 936 05e8 17       		.uleb128 0x17
 937 05e9 8C       		.byte	0x8c
 938 05ea 07       		.byte	0x7
 939 05eb C001     		.2byte	0x1c0
 940 05ed 03070000 		.4byte	0x703
 941 05f1 09       		.uleb128 0x9
 942 05f2 F7000000 		.4byte	.LASF100
 943 05f6 07       		.byte	0x7
 944 05f7 C201     		.2byte	0x1c2
 945 05f9 03070000 		.4byte	0x703
 946 05fd 00       		.byte	0
 947 05fe 09       		.uleb128 0x9
 948 05ff 58030000 		.4byte	.LASF101
 949 0603 07       		.byte	0x7
 950 0604 C301     		.2byte	0x1c3
 951 0606 C4000000 		.4byte	0xc4
 952 060a 04       		.byte	0x4
 953 060b 09       		.uleb128 0x9
 954 060c 34030000 		.4byte	.LASF102
 955 0610 07       		.byte	0x7
 956 0611 C401     		.2byte	0x1c4
 957 0613 C4000000 		.4byte	0xc4
 958 0617 08       		.byte	0x8
 959 0618 09       		.uleb128 0x9
ARM GAS  /tmp/cc8e8YEY.s 			page 18


 960 0619 63030000 		.4byte	.LASF103
 961 061d 07       		.byte	0x7
 962 061e C501     		.2byte	0x1c5
 963 0620 C4000000 		.4byte	0xc4
 964 0624 0C       		.byte	0xc
 965 0625 08       		.uleb128 0x8
 966 0626 53435200 		.ascii	"SCR\000"
 967 062a 07       		.byte	0x7
 968 062b C601     		.2byte	0x1c6
 969 062d C4000000 		.4byte	0xc4
 970 0631 10       		.byte	0x10
 971 0632 08       		.uleb128 0x8
 972 0633 43435200 		.ascii	"CCR\000"
 973 0637 07       		.byte	0x7
 974 0638 C701     		.2byte	0x1c7
 975 063a C4000000 		.4byte	0xc4
 976 063e 14       		.byte	0x14
 977 063f 08       		.uleb128 0x8
 978 0640 53485000 		.ascii	"SHP\000"
 979 0644 07       		.byte	0x7
 980 0645 C801     		.2byte	0x1c8
 981 0647 18070000 		.4byte	0x718
 982 064b 18       		.byte	0x18
 983 064c 09       		.uleb128 0x9
 984 064d F7040000 		.4byte	.LASF104
 985 0651 07       		.byte	0x7
 986 0652 C901     		.2byte	0x1c9
 987 0654 C4000000 		.4byte	0xc4
 988 0658 24       		.byte	0x24
 989 0659 09       		.uleb128 0x9
 990 065a 20040000 		.4byte	.LASF105
 991 065e 07       		.byte	0x7
 992 065f CA01     		.2byte	0x1ca
 993 0661 C4000000 		.4byte	0xc4
 994 0665 28       		.byte	0x28
 995 0666 09       		.uleb128 0x9
 996 0667 FB060000 		.4byte	.LASF106
 997 066b 07       		.byte	0x7
 998 066c CB01     		.2byte	0x1cb
 999 066e C4000000 		.4byte	0xc4
 1000 0672 2C       		.byte	0x2c
 1001 0673 09       		.uleb128 0x9
 1002 0674 69030000 		.4byte	.LASF107
 1003 0678 07       		.byte	0x7
 1004 0679 CC01     		.2byte	0x1cc
 1005 067b C4000000 		.4byte	0xc4
 1006 067f 30       		.byte	0x30
 1007 0680 09       		.uleb128 0x9
 1008 0681 75030000 		.4byte	.LASF108
 1009 0685 07       		.byte	0x7
 1010 0686 CD01     		.2byte	0x1cd
 1011 0688 C4000000 		.4byte	0xc4
 1012 068c 34       		.byte	0x34
 1013 068d 09       		.uleb128 0x9
 1014 068e 4C020000 		.4byte	.LASF109
 1015 0692 07       		.byte	0x7
 1016 0693 CE01     		.2byte	0x1ce
ARM GAS  /tmp/cc8e8YEY.s 			page 19


 1017 0695 C4000000 		.4byte	0xc4
 1018 0699 38       		.byte	0x38
 1019 069a 09       		.uleb128 0x9
 1020 069b 59020000 		.4byte	.LASF110
 1021 069f 07       		.byte	0x7
 1022 06a0 CF01     		.2byte	0x1cf
 1023 06a2 C4000000 		.4byte	0xc4
 1024 06a6 3C       		.byte	0x3c
 1025 06a7 08       		.uleb128 0x8
 1026 06a8 50465200 		.ascii	"PFR\000"
 1027 06ac 07       		.byte	0x7
 1028 06ad D001     		.2byte	0x1d0
 1029 06af 2D070000 		.4byte	0x72d
 1030 06b3 40       		.byte	0x40
 1031 06b4 08       		.uleb128 0x8
 1032 06b5 44465200 		.ascii	"DFR\000"
 1033 06b9 07       		.byte	0x7
 1034 06ba D101     		.2byte	0x1d1
 1035 06bc 03070000 		.4byte	0x703
 1036 06c0 48       		.byte	0x48
 1037 06c1 08       		.uleb128 0x8
 1038 06c2 41445200 		.ascii	"ADR\000"
 1039 06c6 07       		.byte	0x7
 1040 06c7 D201     		.2byte	0x1d2
 1041 06c9 03070000 		.4byte	0x703
 1042 06cd 4C       		.byte	0x4c
 1043 06ce 09       		.uleb128 0x9
 1044 06cf B3060000 		.4byte	.LASF111
 1045 06d3 07       		.byte	0x7
 1046 06d4 D301     		.2byte	0x1d3
 1047 06d6 47070000 		.4byte	0x747
 1048 06da 50       		.byte	0x50
 1049 06db 09       		.uleb128 0x9
 1050 06dc 23010000 		.4byte	.LASF112
 1051 06e0 07       		.byte	0x7
 1052 06e1 D401     		.2byte	0x1d4
 1053 06e3 61070000 		.4byte	0x761
 1054 06e7 60       		.byte	0x60
 1055 06e8 09       		.uleb128 0x9
 1056 06e9 9B040000 		.4byte	.LASF87
 1057 06ed 07       		.byte	0x7
 1058 06ee D501     		.2byte	0x1d5
 1059 06f0 51070000 		.4byte	0x751
 1060 06f4 74       		.byte	0x74
 1061 06f5 09       		.uleb128 0x9
 1062 06f6 F5060000 		.4byte	.LASF113
 1063 06fa 07       		.byte	0x7
 1064 06fb D601     		.2byte	0x1d6
 1065 06fd C4000000 		.4byte	0xc4
 1066 0701 88       		.byte	0x88
 1067 0702 00       		.byte	0
 1068 0703 18       		.uleb128 0x18
 1069 0704 C4000000 		.4byte	0xc4
 1070 0708 13       		.uleb128 0x13
 1071 0709 93000000 		.4byte	0x93
 1072 070d 18070000 		.4byte	0x718
 1073 0711 14       		.uleb128 0x14
ARM GAS  /tmp/cc8e8YEY.s 			page 20


 1074 0712 76050000 		.4byte	0x576
 1075 0716 0B       		.byte	0xb
 1076 0717 00       		.byte	0
 1077 0718 05       		.uleb128 0x5
 1078 0719 08070000 		.4byte	0x708
 1079 071d 13       		.uleb128 0x13
 1080 071e A9000000 		.4byte	0xa9
 1081 0722 2D070000 		.4byte	0x72d
 1082 0726 14       		.uleb128 0x14
 1083 0727 76050000 		.4byte	0x576
 1084 072b 01       		.byte	0x1
 1085 072c 00       		.byte	0
 1086 072d 18       		.uleb128 0x18
 1087 072e 32070000 		.4byte	0x732
 1088 0732 05       		.uleb128 0x5
 1089 0733 1D070000 		.4byte	0x71d
 1090 0737 13       		.uleb128 0x13
 1091 0738 A9000000 		.4byte	0xa9
 1092 073c 47070000 		.4byte	0x747
 1093 0740 14       		.uleb128 0x14
 1094 0741 76050000 		.4byte	0x576
 1095 0745 03       		.byte	0x3
 1096 0746 00       		.byte	0
 1097 0747 18       		.uleb128 0x18
 1098 0748 4C070000 		.4byte	0x74c
 1099 074c 05       		.uleb128 0x5
 1100 074d 37070000 		.4byte	0x737
 1101 0751 13       		.uleb128 0x13
 1102 0752 A9000000 		.4byte	0xa9
 1103 0756 61070000 		.4byte	0x761
 1104 075a 14       		.uleb128 0x14
 1105 075b 76050000 		.4byte	0x576
 1106 075f 04       		.byte	0x4
 1107 0760 00       		.byte	0
 1108 0761 18       		.uleb128 0x18
 1109 0762 66070000 		.4byte	0x766
 1110 0766 05       		.uleb128 0x5
 1111 0767 51070000 		.4byte	0x751
 1112 076b 16       		.uleb128 0x16
 1113 076c 77020000 		.4byte	.LASF114
 1114 0770 07       		.byte	0x7
 1115 0771 D701     		.2byte	0x1d7
 1116 0773 E8050000 		.4byte	0x5e8
 1117 0777 04       		.uleb128 0x4
 1118 0778 66020000 		.4byte	.LASF115
 1119 077c 08       		.byte	0x8
 1120 077d 65       		.byte	0x65
 1121 077e 3B030000 		.4byte	0x33b
 1122 0782 04       		.uleb128 0x4
 1123 0783 C0030000 		.4byte	.LASF116
 1124 0787 08       		.byte	0x8
 1125 0788 6D       		.byte	0x6d
 1126 0789 B4000000 		.4byte	0xb4
 1127 078d 06       		.uleb128 0x6
 1128 078e 74060000 		.4byte	.LASF117
 1129 0792 04       		.byte	0x4
 1130 0793 08       		.byte	0x8
ARM GAS  /tmp/cc8e8YEY.s 			page 21


 1131 0794 89       		.byte	0x89
 1132 0795 A6070000 		.4byte	0x7a6
 1133 0799 19       		.uleb128 0x19
 1134 079a 72313300 		.ascii	"r13\000"
 1135 079e 08       		.byte	0x8
 1136 079f 8A       		.byte	0x8a
 1137 07a0 21080000 		.4byte	0x821
 1138 07a4 00       		.byte	0
 1139 07a5 00       		.byte	0
 1140 07a6 06       		.uleb128 0x6
 1141 07a7 56000000 		.4byte	.LASF118
 1142 07ab 24       		.byte	0x24
 1143 07ac 09       		.byte	0x9
 1144 07ad FD       		.byte	0xfd
 1145 07ae 21080000 		.4byte	0x821
 1146 07b2 08       		.uleb128 0x8
 1147 07b3 723400   		.ascii	"r4\000"
 1148 07b6 09       		.byte	0x9
 1149 07b7 1001     		.2byte	0x110
 1150 07b9 77070000 		.4byte	0x777
 1151 07bd 00       		.byte	0
 1152 07be 08       		.uleb128 0x8
 1153 07bf 723500   		.ascii	"r5\000"
 1154 07c2 09       		.byte	0x9
 1155 07c3 1101     		.2byte	0x111
 1156 07c5 77070000 		.4byte	0x777
 1157 07c9 04       		.byte	0x4
 1158 07ca 08       		.uleb128 0x8
 1159 07cb 723600   		.ascii	"r6\000"
 1160 07ce 09       		.byte	0x9
 1161 07cf 1201     		.2byte	0x112
 1162 07d1 77070000 		.4byte	0x777
 1163 07d5 08       		.byte	0x8
 1164 07d6 08       		.uleb128 0x8
 1165 07d7 723700   		.ascii	"r7\000"
 1166 07da 09       		.byte	0x9
 1167 07db 1301     		.2byte	0x113
 1168 07dd 77070000 		.4byte	0x777
 1169 07e1 0C       		.byte	0xc
 1170 07e2 08       		.uleb128 0x8
 1171 07e3 723800   		.ascii	"r8\000"
 1172 07e6 09       		.byte	0x9
 1173 07e7 1401     		.2byte	0x114
 1174 07e9 77070000 		.4byte	0x777
 1175 07ed 10       		.byte	0x10
 1176 07ee 08       		.uleb128 0x8
 1177 07ef 723900   		.ascii	"r9\000"
 1178 07f2 09       		.byte	0x9
 1179 07f3 1501     		.2byte	0x115
 1180 07f5 77070000 		.4byte	0x777
 1181 07f9 14       		.byte	0x14
 1182 07fa 08       		.uleb128 0x8
 1183 07fb 72313000 		.ascii	"r10\000"
 1184 07ff 09       		.byte	0x9
 1185 0800 1601     		.2byte	0x116
 1186 0802 77070000 		.4byte	0x777
 1187 0806 18       		.byte	0x18
ARM GAS  /tmp/cc8e8YEY.s 			page 22


 1188 0807 08       		.uleb128 0x8
 1189 0808 72313100 		.ascii	"r11\000"
 1190 080c 09       		.byte	0x9
 1191 080d 1701     		.2byte	0x117
 1192 080f 77070000 		.4byte	0x777
 1193 0813 1C       		.byte	0x1c
 1194 0814 08       		.uleb128 0x8
 1195 0815 6C7200   		.ascii	"lr\000"
 1196 0818 09       		.byte	0x9
 1197 0819 1801     		.2byte	0x118
 1198 081b 77070000 		.4byte	0x777
 1199 081f 20       		.byte	0x20
 1200 0820 00       		.byte	0
 1201 0821 0A       		.uleb128 0xa
 1202 0822 04       		.byte	0x4
 1203 0823 A6070000 		.4byte	0x7a6
 1204 0827 1A       		.uleb128 0x1a
 1205 0828 10       		.byte	0x10
 1206 0829 0A       		.byte	0xa
 1207 082a 51       		.byte	0x51
 1208 082b 60080000 		.4byte	0x860
 1209 082f 07       		.uleb128 0x7
 1210 0830 21000000 		.4byte	.LASF119
 1211 0834 0A       		.byte	0xa
 1212 0835 55       		.byte	0x55
 1213 0836 37010000 		.4byte	0x137
 1214 083a 00       		.byte	0
 1215 083b 07       		.uleb128 0x7
 1216 083c 86010000 		.4byte	.LASF120
 1217 0840 0A       		.byte	0xa
 1218 0841 59       		.byte	0x59
 1219 0842 5E020000 		.4byte	0x25e
 1220 0846 04       		.byte	0x4
 1221 0847 07       		.uleb128 0x7
 1222 0848 13070000 		.4byte	.LASF121
 1223 084c 0A       		.byte	0xa
 1224 084d 5D       		.byte	0x5d
 1225 084e 3B030000 		.4byte	0x33b
 1226 0852 08       		.byte	0x8
 1227 0853 07       		.uleb128 0x7
 1228 0854 C4000000 		.4byte	.LASF122
 1229 0858 0A       		.byte	0xa
 1230 0859 61       		.byte	0x61
 1231 085a 93000000 		.4byte	0x93
 1232 085e 0C       		.byte	0xc
 1233 085f 00       		.byte	0
 1234 0860 04       		.uleb128 0x4
 1235 0861 31040000 		.4byte	.LASF123
 1236 0865 0A       		.byte	0xa
 1237 0866 62       		.byte	0x62
 1238 0867 27080000 		.4byte	0x827
 1239 086b 1B       		.uleb128 0x1b
 1240 086c 0804     		.2byte	0x408
 1241 086e 0A       		.byte	0xa
 1242 086f 67       		.byte	0x67
 1243 0870 99080000 		.4byte	0x899
 1244 0874 07       		.uleb128 0x7
ARM GAS  /tmp/cc8e8YEY.s 			page 23


 1245 0875 51020000 		.4byte	.LASF124
 1246 0879 0A       		.byte	0xa
 1247 087a 6B       		.byte	0x6b
 1248 087b 28000000 		.4byte	0x28
 1249 087f 00       		.byte	0
 1250 0880 07       		.uleb128 0x7
 1251 0881 25040000 		.4byte	.LASF125
 1252 0885 0A       		.byte	0xa
 1253 0886 6F       		.byte	0x6f
 1254 0887 99080000 		.4byte	0x899
 1255 088b 04       		.byte	0x4
 1256 088c 07       		.uleb128 0x7
 1257 088d 87030000 		.4byte	.LASF126
 1258 0891 0A       		.byte	0xa
 1259 0892 73       		.byte	0x73
 1260 0893 9F080000 		.4byte	0x89f
 1261 0897 08       		.byte	0x8
 1262 0898 00       		.byte	0
 1263 0899 0A       		.uleb128 0xa
 1264 089a 04       		.byte	0x4
 1265 089b 60080000 		.4byte	0x860
 1266 089f 13       		.uleb128 0x13
 1267 08a0 60080000 		.4byte	0x860
 1268 08a4 AF080000 		.4byte	0x8af
 1269 08a8 14       		.uleb128 0x14
 1270 08a9 76050000 		.4byte	0x576
 1271 08ad 3F       		.byte	0x3f
 1272 08ae 00       		.byte	0
 1273 08af 04       		.uleb128 0x4
 1274 08b0 B2000000 		.4byte	.LASF127
 1275 08b4 0A       		.byte	0xa
 1276 08b5 74       		.byte	0x74
 1277 08b6 6B080000 		.4byte	0x86b
 1278 08ba 1A       		.uleb128 0x1a
 1279 08bb 04       		.byte	0x4
 1280 08bc 0B       		.byte	0xb
 1281 08bd 38       		.byte	0x38
 1282 08be CF080000 		.4byte	0x8cf
 1283 08c2 07       		.uleb128 0x7
 1284 08c3 6D060000 		.4byte	.LASF128
 1285 08c7 0B       		.byte	0xb
 1286 08c8 3C       		.byte	0x3c
 1287 08c9 C9000000 		.4byte	0xc9
 1288 08cd 00       		.byte	0
 1289 08ce 00       		.byte	0
 1290 08cf 04       		.uleb128 0x4
 1291 08d0 5A040000 		.4byte	.LASF129
 1292 08d4 0B       		.byte	0xb
 1293 08d5 3D       		.byte	0x3d
 1294 08d6 BA080000 		.4byte	0x8ba
 1295 08da 1A       		.uleb128 0x1a
 1296 08db 18       		.byte	0x18
 1297 08dc 0B       		.byte	0xb
 1298 08dd 48       		.byte	0x48
 1299 08de 1D090000 		.4byte	0x91d
 1300 08e2 07       		.uleb128 0x7
 1301 08e3 29060000 		.4byte	.LASF130
ARM GAS  /tmp/cc8e8YEY.s 			page 24


 1302 08e7 0B       		.byte	0xb
 1303 08e8 49       		.byte	0x49
 1304 08e9 C9000000 		.4byte	0xc9
 1305 08ed 00       		.byte	0
 1306 08ee 07       		.uleb128 0x7
 1307 08ef 82000000 		.4byte	.LASF131
 1308 08f3 0B       		.byte	0xb
 1309 08f4 4A       		.byte	0x4a
 1310 08f5 C9000000 		.4byte	0xc9
 1311 08f9 04       		.byte	0x4
 1312 08fa 07       		.uleb128 0x7
 1313 08fb 5E060000 		.4byte	.LASF132
 1314 08ff 0B       		.byte	0xb
 1315 0900 4B       		.byte	0x4b
 1316 0901 C9000000 		.4byte	0xc9
 1317 0905 08       		.byte	0x8
 1318 0906 19       		.uleb128 0x19
 1319 0907 6E00     		.ascii	"n\000"
 1320 0909 0B       		.byte	0xb
 1321 090a 4C       		.byte	0x4c
 1322 090b 2C010000 		.4byte	0x12c
 1323 090f 0C       		.byte	0xc
 1324 0910 07       		.uleb128 0x7
 1325 0911 88040000 		.4byte	.LASF133
 1326 0915 0B       		.byte	0xb
 1327 0916 4D       		.byte	0x4d
 1328 0917 D4000000 		.4byte	0xd4
 1329 091b 10       		.byte	0x10
 1330 091c 00       		.byte	0
 1331 091d 04       		.uleb128 0x4
 1332 091e 88000000 		.4byte	.LASF134
 1333 0922 0B       		.byte	0xb
 1334 0923 4E       		.byte	0x4e
 1335 0924 DA080000 		.4byte	0x8da
 1336 0928 1A       		.uleb128 0x1a
 1337 0929 38       		.byte	0x38
 1338 092a 0C       		.byte	0xc
 1339 092b 38       		.byte	0x38
 1340 092c 61090000 		.4byte	0x961
 1341 0930 07       		.uleb128 0x7
 1342 0931 2E030000 		.4byte	.LASF135
 1343 0935 0C       		.byte	0xc
 1344 0936 39       		.byte	0x39
 1345 0937 2C010000 		.4byte	0x12c
 1346 093b 00       		.byte	0
 1347 093c 07       		.uleb128 0x7
 1348 093d D2040000 		.4byte	.LASF136
 1349 0941 0C       		.byte	0xc
 1350 0942 3A       		.byte	0x3a
 1351 0943 2C010000 		.4byte	0x12c
 1352 0947 04       		.byte	0x4
 1353 0948 07       		.uleb128 0x7
 1354 0949 00070000 		.4byte	.LASF137
 1355 094d 0C       		.byte	0xc
 1356 094e 3B       		.byte	0x3b
 1357 094f 1D090000 		.4byte	0x91d
 1358 0953 08       		.byte	0x8
ARM GAS  /tmp/cc8e8YEY.s 			page 25


 1359 0954 07       		.uleb128 0x7
 1360 0955 91030000 		.4byte	.LASF138
 1361 0959 0C       		.byte	0xc
 1362 095a 3D       		.byte	0x3d
 1363 095b 1D090000 		.4byte	0x91d
 1364 095f 20       		.byte	0x20
 1365 0960 00       		.byte	0
 1366 0961 04       		.uleb128 0x4
 1367 0962 3F030000 		.4byte	.LASF139
 1368 0966 0C       		.byte	0xc
 1369 0967 3F       		.byte	0x3f
 1370 0968 28090000 		.4byte	0x928
 1371 096c 1C       		.uleb128 0x1c
 1372 096d 04       		.byte	0x4
 1373 096e 06       		.byte	0x6
 1374 096f FA       		.byte	0xfa
 1375 0970 C9090000 		.4byte	0x9c9
 1376 0974 1D       		.uleb128 0x1d
 1377 0975 2F000000 		.4byte	.LASF140
 1378 0979 06       		.byte	0x6
 1379 097a 0101     		.2byte	0x101
 1380 097c 0B010000 		.4byte	0x10b
 1381 0980 1D       		.uleb128 0x1d
 1382 0981 CD000000 		.4byte	.LASF141
 1383 0985 06       		.byte	0x6
 1384 0986 0801     		.2byte	0x108
 1385 0988 0B010000 		.4byte	0x10b
 1386 098c 1D       		.uleb128 0x1d
 1387 098d D4060000 		.4byte	.LASF142
 1388 0991 06       		.byte	0x6
 1389 0992 0F01     		.2byte	0x10f
 1390 0994 3B030000 		.4byte	0x33b
 1391 0998 1D       		.uleb128 0x1d
 1392 0999 29000000 		.4byte	.LASF143
 1393 099d 06       		.byte	0x6
 1394 099e 1601     		.2byte	0x116
 1395 09a0 C9090000 		.4byte	0x9c9
 1396 09a4 1D       		.uleb128 0x1d
 1397 09a5 1C030000 		.4byte	.LASF144
 1398 09a9 06       		.byte	0x6
 1399 09aa 1E01     		.2byte	0x11e
 1400 09ac F4090000 		.4byte	0x9f4
 1401 09b0 1D       		.uleb128 0x1d
 1402 09b1 D7050000 		.4byte	.LASF145
 1403 09b5 06       		.byte	0x6
 1404 09b6 2701     		.2byte	0x127
 1405 09b8 2B0A0000 		.4byte	0xa2b
 1406 09bc 1D       		.uleb128 0x1d
 1407 09bd 59050000 		.4byte	.LASF146
 1408 09c1 06       		.byte	0x6
 1409 09c2 2F01     		.2byte	0x12f
 1410 09c4 16010000 		.4byte	0x116
 1411 09c8 00       		.byte	0
 1412 09c9 0A       		.uleb128 0xa
 1413 09ca 04       		.byte	0x4
 1414 09cb 53020000 		.4byte	0x253
 1415 09cf 06       		.uleb128 0x6
ARM GAS  /tmp/cc8e8YEY.s 			page 26


 1416 09d0 AC050000 		.4byte	.LASF147
 1417 09d4 0C       		.byte	0xc
 1418 09d5 0D       		.byte	0xd
 1419 09d6 34       		.byte	0x34
 1420 09d7 F4090000 		.4byte	0x9f4
 1421 09db 07       		.uleb128 0x7
 1422 09dc 44020000 		.4byte	.LASF148
 1423 09e0 0D       		.byte	0xd
 1424 09e1 35       		.byte	0x35
 1425 09e2 88020000 		.4byte	0x288
 1426 09e6 00       		.byte	0
 1427 09e7 07       		.uleb128 0x7
 1428 09e8 39030000 		.4byte	.LASF149
 1429 09ec 0D       		.byte	0xd
 1430 09ed 37       		.byte	0x37
 1431 09ee 21010000 		.4byte	0x121
 1432 09f2 08       		.byte	0x8
 1433 09f3 00       		.byte	0
 1434 09f4 0A       		.uleb128 0xa
 1435 09f5 04       		.byte	0x4
 1436 09f6 CF090000 		.4byte	0x9cf
 1437 09fa 06       		.uleb128 0x6
 1438 09fb 9B060000 		.4byte	.LASF150
 1439 09ff 10       		.byte	0x10
 1440 0a00 0E       		.byte	0xe
 1441 0a01 39       		.byte	0x39
 1442 0a02 2B0A0000 		.4byte	0xa2b
 1443 0a06 07       		.uleb128 0x7
 1444 0a07 4A010000 		.4byte	.LASF151
 1445 0a0b 0E       		.byte	0xe
 1446 0a0c 3A       		.byte	0x3a
 1447 0a0d 88020000 		.4byte	0x288
 1448 0a11 00       		.byte	0
 1449 0a12 07       		.uleb128 0x7
 1450 0a13 0B070000 		.4byte	.LASF152
 1451 0a17 0E       		.byte	0xe
 1452 0a18 3C       		.byte	0x3c
 1453 0a19 5E020000 		.4byte	0x25e
 1454 0a1d 08       		.byte	0x8
 1455 0a1e 07       		.uleb128 0x7
 1456 0a1f 2E060000 		.4byte	.LASF153
 1457 0a23 0E       		.byte	0xe
 1458 0a24 3E       		.byte	0x3e
 1459 0a25 6F0A0000 		.4byte	0xa6f
 1460 0a29 0C       		.byte	0xc
 1461 0a2a 00       		.byte	0
 1462 0a2b 0A       		.uleb128 0xa
 1463 0a2c 04       		.byte	0x4
 1464 0a2d FA090000 		.4byte	0x9fa
 1465 0a31 0A       		.uleb128 0xa
 1466 0a32 04       		.byte	0x4
 1467 0a33 370A0000 		.4byte	0xa37
 1468 0a37 18       		.uleb128 0x18
 1469 0a38 3C0A0000 		.4byte	0xa3c
 1470 0a3c 03       		.uleb128 0x3
 1471 0a3d 01       		.byte	0x1
 1472 0a3e 08       		.byte	0x8
ARM GAS  /tmp/cc8e8YEY.s 			page 27


 1473 0a3f 1B060000 		.4byte	.LASF154
 1474 0a43 0A       		.uleb128 0xa
 1475 0a44 04       		.byte	0x4
 1476 0a45 82070000 		.4byte	0x782
 1477 0a49 0A       		.uleb128 0xa
 1478 0a4a 04       		.byte	0x4
 1479 0a4b 3D030000 		.4byte	0x33d
 1480 0a4f 05       		.uleb128 0x5
 1481 0a50 310A0000 		.4byte	0xa31
 1482 0a54 13       		.uleb128 0x13
 1483 0a55 82070000 		.4byte	0x782
 1484 0a59 640A0000 		.4byte	0xa64
 1485 0a5d 14       		.uleb128 0x14
 1486 0a5e 76050000 		.4byte	0x576
 1487 0a62 1E       		.byte	0x1e
 1488 0a63 00       		.byte	0
 1489 0a64 04       		.uleb128 0x4
 1490 0a65 C4020000 		.4byte	.LASF155
 1491 0a69 0E       		.byte	0xe
 1492 0a6a 34       		.byte	0x34
 1493 0a6b FA090000 		.4byte	0x9fa
 1494 0a6f 0A       		.uleb128 0xa
 1495 0a70 04       		.byte	0x4
 1496 0a71 640A0000 		.4byte	0xa64
 1497 0a75 03       		.uleb128 0x3
 1498 0a76 01       		.byte	0x1
 1499 0a77 02       		.byte	0x2
 1500 0a78 DB040000 		.4byte	.LASF156
 1501 0a7c 1E       		.uleb128 0x1e
 1502 0a7d 12010000 		.4byte	.LASF158
 1503 0a81 01       		.byte	0x1
 1504 0a82 39       		.byte	0x39
 1505 0a83 00000000 		.4byte	.LFB271
 1506 0a87 50000000 		.4byte	.LFE271-.LFB271
 1507 0a8b 01       		.uleb128 0x1
 1508 0a8c 9C       		.byte	0x9c
 1509 0a8d AC0A0000 		.4byte	0xaac
 1510 0a91 1F       		.uleb128 0x1f
 1511 0a92 6E00     		.ascii	"n\000"
 1512 0a94 01       		.byte	0x1
 1513 0a95 39       		.byte	0x39
 1514 0a96 A9000000 		.4byte	0xa9
 1515 0a9a 02       		.uleb128 0x2
 1516 0a9b 91       		.byte	0x91
 1517 0a9c 7C       		.sleb128 -4
 1518 0a9d 20       		.uleb128 0x20
 1519 0a9e 70040000 		.4byte	.LASF157
 1520 0aa2 01       		.byte	0x1
 1521 0aa3 39       		.byte	0x39
 1522 0aa4 A9000000 		.4byte	0xa9
 1523 0aa8 02       		.uleb128 0x2
 1524 0aa9 91       		.byte	0x91
 1525 0aaa 78       		.sleb128 -8
 1526 0aab 00       		.byte	0
 1527 0aac 1E       		.uleb128 0x1e
 1528 0aad 0A030000 		.4byte	.LASF159
 1529 0ab1 01       		.byte	0x1
ARM GAS  /tmp/cc8e8YEY.s 			page 28


 1530 0ab2 45       		.byte	0x45
 1531 0ab3 00000000 		.4byte	.LFB272
 1532 0ab7 34000000 		.4byte	.LFE272-.LFB272
 1533 0abb 01       		.uleb128 0x1
 1534 0abc 9C       		.byte	0x9c
 1535 0abd CE0A0000 		.4byte	0xace
 1536 0ac1 1F       		.uleb128 0x1f
 1537 0ac2 6E00     		.ascii	"n\000"
 1538 0ac4 01       		.byte	0x1
 1539 0ac5 45       		.byte	0x45
 1540 0ac6 A9000000 		.4byte	0xa9
 1541 0aca 02       		.uleb128 0x2
 1542 0acb 91       		.byte	0x91
 1543 0acc 7C       		.sleb128 -4
 1544 0acd 00       		.byte	0
 1545 0ace 21       		.uleb128 0x21
 1546 0acf 35050000 		.4byte	.LASF160
 1547 0ad3 01       		.byte	0x1
 1548 0ad4 51       		.byte	0x51
 1549 0ad5 00000000 		.4byte	.LFB273
 1550 0ad9 34000000 		.4byte	.LFE273-.LFB273
 1551 0add 01       		.uleb128 0x1
 1552 0ade 9C       		.byte	0x9c
 1553 0adf 0F0B0000 		.4byte	0xb0f
 1554 0ae3 20       		.uleb128 0x20
 1555 0ae4 CB030000 		.4byte	.LASF161
 1556 0ae8 01       		.byte	0x1
 1557 0ae9 51       		.byte	0x51
 1558 0aea A9000000 		.4byte	0xa9
 1559 0aee 02       		.uleb128 0x2
 1560 0aef 91       		.byte	0x91
 1561 0af0 74       		.sleb128 -12
 1562 0af1 20       		.uleb128 0x20
 1563 0af2 70040000 		.4byte	.LASF157
 1564 0af6 01       		.byte	0x1
 1565 0af7 51       		.byte	0x51
 1566 0af8 A9000000 		.4byte	0xa9
 1567 0afc 02       		.uleb128 0x2
 1568 0afd 91       		.byte	0x91
 1569 0afe 70       		.sleb128 -16
 1570 0aff 22       		.uleb128 0x22
 1571 0b00 77050000 		.4byte	.LASF166
 1572 0b04 1F0B0000 		.4byte	0xb1f
 1573 0b08 05       		.uleb128 0x5
 1574 0b09 03       		.byte	0x3
 1575 0b0a 00000000 		.4byte	__func__.7148
 1576 0b0e 00       		.byte	0
 1577 0b0f 13       		.uleb128 0x13
 1578 0b10 3C0A0000 		.4byte	0xa3c
 1579 0b14 1F0B0000 		.4byte	0xb1f
 1580 0b18 14       		.uleb128 0x14
 1581 0b19 76050000 		.4byte	0x576
 1582 0b1d 1C       		.byte	0x1c
 1583 0b1e 00       		.byte	0
 1584 0b1f 18       		.uleb128 0x18
 1585 0b20 0F0B0000 		.4byte	0xb0f
 1586 0b24 1E       		.uleb128 0x1e
ARM GAS  /tmp/cc8e8YEY.s 			page 29


 1587 0b25 52010000 		.4byte	.LASF162
 1588 0b29 01       		.byte	0x1
 1589 0b2a 61       		.byte	0x61
 1590 0b2b 00000000 		.4byte	.LFB274
 1591 0b2f 24000000 		.4byte	.LFE274-.LFB274
 1592 0b33 01       		.uleb128 0x1
 1593 0b34 9C       		.byte	0x9c
 1594 0b35 460B0000 		.4byte	0xb46
 1595 0b39 1F       		.uleb128 0x1f
 1596 0b3a 6E00     		.ascii	"n\000"
 1597 0b3c 01       		.byte	0x1
 1598 0b3d 61       		.byte	0x61
 1599 0b3e A9000000 		.4byte	0xa9
 1600 0b42 02       		.uleb128 0x2
 1601 0b43 91       		.byte	0x91
 1602 0b44 7C       		.sleb128 -4
 1603 0b45 00       		.byte	0
 1604 0b46 23       		.uleb128 0x23
 1605 0b47 FD040000 		.4byte	.LASF163
 1606 0b4b 07       		.byte	0x7
 1607 0b4c FA06     		.2byte	0x6fa
 1608 0b4e BF000000 		.4byte	0xbf
 1609 0b52 24       		.uleb128 0x24
 1610 0b53 636800   		.ascii	"ch\000"
 1611 0b56 06       		.byte	0x6
 1612 0b57 0902     		.2byte	0x209
 1613 0b59 32040000 		.4byte	0x432
 1614 0b5d 00       		.byte	0
 1615              		.section	.debug_abbrev,"",%progbits
 1616              	.Ldebug_abbrev0:
 1617 0000 01       		.uleb128 0x1
 1618 0001 11       		.uleb128 0x11
 1619 0002 01       		.byte	0x1
 1620 0003 25       		.uleb128 0x25
 1621 0004 0E       		.uleb128 0xe
 1622 0005 13       		.uleb128 0x13
 1623 0006 0B       		.uleb128 0xb
 1624 0007 03       		.uleb128 0x3
 1625 0008 0E       		.uleb128 0xe
 1626 0009 55       		.uleb128 0x55
 1627 000a 17       		.uleb128 0x17
 1628 000b 11       		.uleb128 0x11
 1629 000c 01       		.uleb128 0x1
 1630 000d 10       		.uleb128 0x10
 1631 000e 17       		.uleb128 0x17
 1632 000f 00       		.byte	0
 1633 0010 00       		.byte	0
 1634 0011 02       		.uleb128 0x2
 1635 0012 24       		.uleb128 0x24
 1636 0013 00       		.byte	0
 1637 0014 0B       		.uleb128 0xb
 1638 0015 0B       		.uleb128 0xb
 1639 0016 3E       		.uleb128 0x3e
 1640 0017 0B       		.uleb128 0xb
 1641 0018 03       		.uleb128 0x3
 1642 0019 08       		.uleb128 0x8
 1643 001a 00       		.byte	0
ARM GAS  /tmp/cc8e8YEY.s 			page 30


 1644 001b 00       		.byte	0
 1645 001c 03       		.uleb128 0x3
 1646 001d 24       		.uleb128 0x24
 1647 001e 00       		.byte	0
 1648 001f 0B       		.uleb128 0xb
 1649 0020 0B       		.uleb128 0xb
 1650 0021 3E       		.uleb128 0x3e
 1651 0022 0B       		.uleb128 0xb
 1652 0023 03       		.uleb128 0x3
 1653 0024 0E       		.uleb128 0xe
 1654 0025 00       		.byte	0
 1655 0026 00       		.byte	0
 1656 0027 04       		.uleb128 0x4
 1657 0028 16       		.uleb128 0x16
 1658 0029 00       		.byte	0
 1659 002a 03       		.uleb128 0x3
 1660 002b 0E       		.uleb128 0xe
 1661 002c 3A       		.uleb128 0x3a
 1662 002d 0B       		.uleb128 0xb
 1663 002e 3B       		.uleb128 0x3b
 1664 002f 0B       		.uleb128 0xb
 1665 0030 49       		.uleb128 0x49
 1666 0031 13       		.uleb128 0x13
 1667 0032 00       		.byte	0
 1668 0033 00       		.byte	0
 1669 0034 05       		.uleb128 0x5
 1670 0035 35       		.uleb128 0x35
 1671 0036 00       		.byte	0
 1672 0037 49       		.uleb128 0x49
 1673 0038 13       		.uleb128 0x13
 1674 0039 00       		.byte	0
 1675 003a 00       		.byte	0
 1676 003b 06       		.uleb128 0x6
 1677 003c 13       		.uleb128 0x13
 1678 003d 01       		.byte	0x1
 1679 003e 03       		.uleb128 0x3
 1680 003f 0E       		.uleb128 0xe
 1681 0040 0B       		.uleb128 0xb
 1682 0041 0B       		.uleb128 0xb
 1683 0042 3A       		.uleb128 0x3a
 1684 0043 0B       		.uleb128 0xb
 1685 0044 3B       		.uleb128 0x3b
 1686 0045 0B       		.uleb128 0xb
 1687 0046 01       		.uleb128 0x1
 1688 0047 13       		.uleb128 0x13
 1689 0048 00       		.byte	0
 1690 0049 00       		.byte	0
 1691 004a 07       		.uleb128 0x7
 1692 004b 0D       		.uleb128 0xd
 1693 004c 00       		.byte	0
 1694 004d 03       		.uleb128 0x3
 1695 004e 0E       		.uleb128 0xe
 1696 004f 3A       		.uleb128 0x3a
 1697 0050 0B       		.uleb128 0xb
 1698 0051 3B       		.uleb128 0x3b
 1699 0052 0B       		.uleb128 0xb
 1700 0053 49       		.uleb128 0x49
ARM GAS  /tmp/cc8e8YEY.s 			page 31


 1701 0054 13       		.uleb128 0x13
 1702 0055 38       		.uleb128 0x38
 1703 0056 0B       		.uleb128 0xb
 1704 0057 00       		.byte	0
 1705 0058 00       		.byte	0
 1706 0059 08       		.uleb128 0x8
 1707 005a 0D       		.uleb128 0xd
 1708 005b 00       		.byte	0
 1709 005c 03       		.uleb128 0x3
 1710 005d 08       		.uleb128 0x8
 1711 005e 3A       		.uleb128 0x3a
 1712 005f 0B       		.uleb128 0xb
 1713 0060 3B       		.uleb128 0x3b
 1714 0061 05       		.uleb128 0x5
 1715 0062 49       		.uleb128 0x49
 1716 0063 13       		.uleb128 0x13
 1717 0064 38       		.uleb128 0x38
 1718 0065 0B       		.uleb128 0xb
 1719 0066 00       		.byte	0
 1720 0067 00       		.byte	0
 1721 0068 09       		.uleb128 0x9
 1722 0069 0D       		.uleb128 0xd
 1723 006a 00       		.byte	0
 1724 006b 03       		.uleb128 0x3
 1725 006c 0E       		.uleb128 0xe
 1726 006d 3A       		.uleb128 0x3a
 1727 006e 0B       		.uleb128 0xb
 1728 006f 3B       		.uleb128 0x3b
 1729 0070 05       		.uleb128 0x5
 1730 0071 49       		.uleb128 0x49
 1731 0072 13       		.uleb128 0x13
 1732 0073 38       		.uleb128 0x38
 1733 0074 0B       		.uleb128 0xb
 1734 0075 00       		.byte	0
 1735 0076 00       		.byte	0
 1736 0077 0A       		.uleb128 0xa
 1737 0078 0F       		.uleb128 0xf
 1738 0079 00       		.byte	0
 1739 007a 0B       		.uleb128 0xb
 1740 007b 0B       		.uleb128 0xb
 1741 007c 49       		.uleb128 0x49
 1742 007d 13       		.uleb128 0x13
 1743 007e 00       		.byte	0
 1744 007f 00       		.byte	0
 1745 0080 0B       		.uleb128 0xb
 1746 0081 13       		.uleb128 0x13
 1747 0082 01       		.byte	0x1
 1748 0083 03       		.uleb128 0x3
 1749 0084 0E       		.uleb128 0xe
 1750 0085 0B       		.uleb128 0xb
 1751 0086 0B       		.uleb128 0xb
 1752 0087 3A       		.uleb128 0x3a
 1753 0088 0B       		.uleb128 0xb
 1754 0089 3B       		.uleb128 0x3b
 1755 008a 05       		.uleb128 0x5
 1756 008b 01       		.uleb128 0x1
 1757 008c 13       		.uleb128 0x13
ARM GAS  /tmp/cc8e8YEY.s 			page 32


 1758 008d 00       		.byte	0
 1759 008e 00       		.byte	0
 1760 008f 0C       		.uleb128 0xc
 1761 0090 15       		.uleb128 0x15
 1762 0091 01       		.byte	0x1
 1763 0092 27       		.uleb128 0x27
 1764 0093 19       		.uleb128 0x19
 1765 0094 01       		.uleb128 0x1
 1766 0095 13       		.uleb128 0x13
 1767 0096 00       		.byte	0
 1768 0097 00       		.byte	0
 1769 0098 0D       		.uleb128 0xd
 1770 0099 05       		.uleb128 0x5
 1771 009a 00       		.byte	0
 1772 009b 49       		.uleb128 0x49
 1773 009c 13       		.uleb128 0x13
 1774 009d 00       		.byte	0
 1775 009e 00       		.byte	0
 1776 009f 0E       		.uleb128 0xe
 1777 00a0 0F       		.uleb128 0xf
 1778 00a1 00       		.byte	0
 1779 00a2 0B       		.uleb128 0xb
 1780 00a3 0B       		.uleb128 0xb
 1781 00a4 00       		.byte	0
 1782 00a5 00       		.byte	0
 1783 00a6 0F       		.uleb128 0xf
 1784 00a7 13       		.uleb128 0x13
 1785 00a8 01       		.byte	0x1
 1786 00a9 03       		.uleb128 0x3
 1787 00aa 0E       		.uleb128 0xe
 1788 00ab 0B       		.uleb128 0xb
 1789 00ac 05       		.uleb128 0x5
 1790 00ad 3A       		.uleb128 0x3a
 1791 00ae 0B       		.uleb128 0xb
 1792 00af 3B       		.uleb128 0x3b
 1793 00b0 05       		.uleb128 0x5
 1794 00b1 01       		.uleb128 0x1
 1795 00b2 13       		.uleb128 0x13
 1796 00b3 00       		.byte	0
 1797 00b4 00       		.byte	0
 1798 00b5 10       		.uleb128 0x10
 1799 00b6 0D       		.uleb128 0xd
 1800 00b7 00       		.byte	0
 1801 00b8 03       		.uleb128 0x3
 1802 00b9 0E       		.uleb128 0xe
 1803 00ba 3A       		.uleb128 0x3a
 1804 00bb 0B       		.uleb128 0xb
 1805 00bc 3B       		.uleb128 0x3b
 1806 00bd 05       		.uleb128 0x5
 1807 00be 49       		.uleb128 0x49
 1808 00bf 13       		.uleb128 0x13
 1809 00c0 38       		.uleb128 0x38
 1810 00c1 05       		.uleb128 0x5
 1811 00c2 00       		.byte	0
 1812 00c3 00       		.byte	0
 1813 00c4 11       		.uleb128 0x11
 1814 00c5 0D       		.uleb128 0xd
ARM GAS  /tmp/cc8e8YEY.s 			page 33


 1815 00c6 00       		.byte	0
 1816 00c7 03       		.uleb128 0x3
 1817 00c8 08       		.uleb128 0x8
 1818 00c9 3A       		.uleb128 0x3a
 1819 00ca 0B       		.uleb128 0xb
 1820 00cb 3B       		.uleb128 0x3b
 1821 00cc 05       		.uleb128 0x5
 1822 00cd 49       		.uleb128 0x49
 1823 00ce 13       		.uleb128 0x13
 1824 00cf 38       		.uleb128 0x38
 1825 00d0 05       		.uleb128 0x5
 1826 00d1 00       		.byte	0
 1827 00d2 00       		.byte	0
 1828 00d3 12       		.uleb128 0x12
 1829 00d4 13       		.uleb128 0x13
 1830 00d5 01       		.byte	0x1
 1831 00d6 0B       		.uleb128 0xb
 1832 00d7 05       		.uleb128 0x5
 1833 00d8 3A       		.uleb128 0x3a
 1834 00d9 0B       		.uleb128 0xb
 1835 00da 3B       		.uleb128 0x3b
 1836 00db 05       		.uleb128 0x5
 1837 00dc 01       		.uleb128 0x1
 1838 00dd 13       		.uleb128 0x13
 1839 00de 00       		.byte	0
 1840 00df 00       		.byte	0
 1841 00e0 13       		.uleb128 0x13
 1842 00e1 01       		.uleb128 0x1
 1843 00e2 01       		.byte	0x1
 1844 00e3 49       		.uleb128 0x49
 1845 00e4 13       		.uleb128 0x13
 1846 00e5 01       		.uleb128 0x1
 1847 00e6 13       		.uleb128 0x13
 1848 00e7 00       		.byte	0
 1849 00e8 00       		.byte	0
 1850 00e9 14       		.uleb128 0x14
 1851 00ea 21       		.uleb128 0x21
 1852 00eb 00       		.byte	0
 1853 00ec 49       		.uleb128 0x49
 1854 00ed 13       		.uleb128 0x13
 1855 00ee 2F       		.uleb128 0x2f
 1856 00ef 0B       		.uleb128 0xb
 1857 00f0 00       		.byte	0
 1858 00f1 00       		.byte	0
 1859 00f2 15       		.uleb128 0x15
 1860 00f3 21       		.uleb128 0x21
 1861 00f4 00       		.byte	0
 1862 00f5 49       		.uleb128 0x49
 1863 00f6 13       		.uleb128 0x13
 1864 00f7 2F       		.uleb128 0x2f
 1865 00f8 05       		.uleb128 0x5
 1866 00f9 00       		.byte	0
 1867 00fa 00       		.byte	0
 1868 00fb 16       		.uleb128 0x16
 1869 00fc 16       		.uleb128 0x16
 1870 00fd 00       		.byte	0
 1871 00fe 03       		.uleb128 0x3
ARM GAS  /tmp/cc8e8YEY.s 			page 34


 1872 00ff 0E       		.uleb128 0xe
 1873 0100 3A       		.uleb128 0x3a
 1874 0101 0B       		.uleb128 0xb
 1875 0102 3B       		.uleb128 0x3b
 1876 0103 05       		.uleb128 0x5
 1877 0104 49       		.uleb128 0x49
 1878 0105 13       		.uleb128 0x13
 1879 0106 00       		.byte	0
 1880 0107 00       		.byte	0
 1881 0108 17       		.uleb128 0x17
 1882 0109 13       		.uleb128 0x13
 1883 010a 01       		.byte	0x1
 1884 010b 0B       		.uleb128 0xb
 1885 010c 0B       		.uleb128 0xb
 1886 010d 3A       		.uleb128 0x3a
 1887 010e 0B       		.uleb128 0xb
 1888 010f 3B       		.uleb128 0x3b
 1889 0110 05       		.uleb128 0x5
 1890 0111 01       		.uleb128 0x1
 1891 0112 13       		.uleb128 0x13
 1892 0113 00       		.byte	0
 1893 0114 00       		.byte	0
 1894 0115 18       		.uleb128 0x18
 1895 0116 26       		.uleb128 0x26
 1896 0117 00       		.byte	0
 1897 0118 49       		.uleb128 0x49
 1898 0119 13       		.uleb128 0x13
 1899 011a 00       		.byte	0
 1900 011b 00       		.byte	0
 1901 011c 19       		.uleb128 0x19
 1902 011d 0D       		.uleb128 0xd
 1903 011e 00       		.byte	0
 1904 011f 03       		.uleb128 0x3
 1905 0120 08       		.uleb128 0x8
 1906 0121 3A       		.uleb128 0x3a
 1907 0122 0B       		.uleb128 0xb
 1908 0123 3B       		.uleb128 0x3b
 1909 0124 0B       		.uleb128 0xb
 1910 0125 49       		.uleb128 0x49
 1911 0126 13       		.uleb128 0x13
 1912 0127 38       		.uleb128 0x38
 1913 0128 0B       		.uleb128 0xb
 1914 0129 00       		.byte	0
 1915 012a 00       		.byte	0
 1916 012b 1A       		.uleb128 0x1a
 1917 012c 13       		.uleb128 0x13
 1918 012d 01       		.byte	0x1
 1919 012e 0B       		.uleb128 0xb
 1920 012f 0B       		.uleb128 0xb
 1921 0130 3A       		.uleb128 0x3a
 1922 0131 0B       		.uleb128 0xb
 1923 0132 3B       		.uleb128 0x3b
 1924 0133 0B       		.uleb128 0xb
 1925 0134 01       		.uleb128 0x1
 1926 0135 13       		.uleb128 0x13
 1927 0136 00       		.byte	0
 1928 0137 00       		.byte	0
ARM GAS  /tmp/cc8e8YEY.s 			page 35


 1929 0138 1B       		.uleb128 0x1b
 1930 0139 13       		.uleb128 0x13
 1931 013a 01       		.byte	0x1
 1932 013b 0B       		.uleb128 0xb
 1933 013c 05       		.uleb128 0x5
 1934 013d 3A       		.uleb128 0x3a
 1935 013e 0B       		.uleb128 0xb
 1936 013f 3B       		.uleb128 0x3b
 1937 0140 0B       		.uleb128 0xb
 1938 0141 01       		.uleb128 0x1
 1939 0142 13       		.uleb128 0x13
 1940 0143 00       		.byte	0
 1941 0144 00       		.byte	0
 1942 0145 1C       		.uleb128 0x1c
 1943 0146 17       		.uleb128 0x17
 1944 0147 01       		.byte	0x1
 1945 0148 0B       		.uleb128 0xb
 1946 0149 0B       		.uleb128 0xb
 1947 014a 3A       		.uleb128 0x3a
 1948 014b 0B       		.uleb128 0xb
 1949 014c 3B       		.uleb128 0x3b
 1950 014d 0B       		.uleb128 0xb
 1951 014e 01       		.uleb128 0x1
 1952 014f 13       		.uleb128 0x13
 1953 0150 00       		.byte	0
 1954 0151 00       		.byte	0
 1955 0152 1D       		.uleb128 0x1d
 1956 0153 0D       		.uleb128 0xd
 1957 0154 00       		.byte	0
 1958 0155 03       		.uleb128 0x3
 1959 0156 0E       		.uleb128 0xe
 1960 0157 3A       		.uleb128 0x3a
 1961 0158 0B       		.uleb128 0xb
 1962 0159 3B       		.uleb128 0x3b
 1963 015a 05       		.uleb128 0x5
 1964 015b 49       		.uleb128 0x49
 1965 015c 13       		.uleb128 0x13
 1966 015d 00       		.byte	0
 1967 015e 00       		.byte	0
 1968 015f 1E       		.uleb128 0x1e
 1969 0160 2E       		.uleb128 0x2e
 1970 0161 01       		.byte	0x1
 1971 0162 3F       		.uleb128 0x3f
 1972 0163 19       		.uleb128 0x19
 1973 0164 03       		.uleb128 0x3
 1974 0165 0E       		.uleb128 0xe
 1975 0166 3A       		.uleb128 0x3a
 1976 0167 0B       		.uleb128 0xb
 1977 0168 3B       		.uleb128 0x3b
 1978 0169 0B       		.uleb128 0xb
 1979 016a 27       		.uleb128 0x27
 1980 016b 19       		.uleb128 0x19
 1981 016c 11       		.uleb128 0x11
 1982 016d 01       		.uleb128 0x1
 1983 016e 12       		.uleb128 0x12
 1984 016f 06       		.uleb128 0x6
 1985 0170 40       		.uleb128 0x40
ARM GAS  /tmp/cc8e8YEY.s 			page 36


 1986 0171 18       		.uleb128 0x18
 1987 0172 9742     		.uleb128 0x2117
 1988 0174 19       		.uleb128 0x19
 1989 0175 01       		.uleb128 0x1
 1990 0176 13       		.uleb128 0x13
 1991 0177 00       		.byte	0
 1992 0178 00       		.byte	0
 1993 0179 1F       		.uleb128 0x1f
 1994 017a 05       		.uleb128 0x5
 1995 017b 00       		.byte	0
 1996 017c 03       		.uleb128 0x3
 1997 017d 08       		.uleb128 0x8
 1998 017e 3A       		.uleb128 0x3a
 1999 017f 0B       		.uleb128 0xb
 2000 0180 3B       		.uleb128 0x3b
 2001 0181 0B       		.uleb128 0xb
 2002 0182 49       		.uleb128 0x49
 2003 0183 13       		.uleb128 0x13
 2004 0184 02       		.uleb128 0x2
 2005 0185 18       		.uleb128 0x18
 2006 0186 00       		.byte	0
 2007 0187 00       		.byte	0
 2008 0188 20       		.uleb128 0x20
 2009 0189 05       		.uleb128 0x5
 2010 018a 00       		.byte	0
 2011 018b 03       		.uleb128 0x3
 2012 018c 0E       		.uleb128 0xe
 2013 018d 3A       		.uleb128 0x3a
 2014 018e 0B       		.uleb128 0xb
 2015 018f 3B       		.uleb128 0x3b
 2016 0190 0B       		.uleb128 0xb
 2017 0191 49       		.uleb128 0x49
 2018 0192 13       		.uleb128 0x13
 2019 0193 02       		.uleb128 0x2
 2020 0194 18       		.uleb128 0x18
 2021 0195 00       		.byte	0
 2022 0196 00       		.byte	0
 2023 0197 21       		.uleb128 0x21
 2024 0198 2E       		.uleb128 0x2e
 2025 0199 01       		.byte	0x1
 2026 019a 3F       		.uleb128 0x3f
 2027 019b 19       		.uleb128 0x19
 2028 019c 03       		.uleb128 0x3
 2029 019d 0E       		.uleb128 0xe
 2030 019e 3A       		.uleb128 0x3a
 2031 019f 0B       		.uleb128 0xb
 2032 01a0 3B       		.uleb128 0x3b
 2033 01a1 0B       		.uleb128 0xb
 2034 01a2 27       		.uleb128 0x27
 2035 01a3 19       		.uleb128 0x19
 2036 01a4 11       		.uleb128 0x11
 2037 01a5 01       		.uleb128 0x1
 2038 01a6 12       		.uleb128 0x12
 2039 01a7 06       		.uleb128 0x6
 2040 01a8 40       		.uleb128 0x40
 2041 01a9 18       		.uleb128 0x18
 2042 01aa 9642     		.uleb128 0x2116
ARM GAS  /tmp/cc8e8YEY.s 			page 37


 2043 01ac 19       		.uleb128 0x19
 2044 01ad 01       		.uleb128 0x1
 2045 01ae 13       		.uleb128 0x13
 2046 01af 00       		.byte	0
 2047 01b0 00       		.byte	0
 2048 01b1 22       		.uleb128 0x22
 2049 01b2 34       		.uleb128 0x34
 2050 01b3 00       		.byte	0
 2051 01b4 03       		.uleb128 0x3
 2052 01b5 0E       		.uleb128 0xe
 2053 01b6 49       		.uleb128 0x49
 2054 01b7 13       		.uleb128 0x13
 2055 01b8 34       		.uleb128 0x34
 2056 01b9 19       		.uleb128 0x19
 2057 01ba 02       		.uleb128 0x2
 2058 01bb 18       		.uleb128 0x18
 2059 01bc 00       		.byte	0
 2060 01bd 00       		.byte	0
 2061 01be 23       		.uleb128 0x23
 2062 01bf 34       		.uleb128 0x34
 2063 01c0 00       		.byte	0
 2064 01c1 03       		.uleb128 0x3
 2065 01c2 0E       		.uleb128 0xe
 2066 01c3 3A       		.uleb128 0x3a
 2067 01c4 0B       		.uleb128 0xb
 2068 01c5 3B       		.uleb128 0x3b
 2069 01c6 05       		.uleb128 0x5
 2070 01c7 49       		.uleb128 0x49
 2071 01c8 13       		.uleb128 0x13
 2072 01c9 3F       		.uleb128 0x3f
 2073 01ca 19       		.uleb128 0x19
 2074 01cb 3C       		.uleb128 0x3c
 2075 01cc 19       		.uleb128 0x19
 2076 01cd 00       		.byte	0
 2077 01ce 00       		.byte	0
 2078 01cf 24       		.uleb128 0x24
 2079 01d0 34       		.uleb128 0x34
 2080 01d1 00       		.byte	0
 2081 01d2 03       		.uleb128 0x3
 2082 01d3 08       		.uleb128 0x8
 2083 01d4 3A       		.uleb128 0x3a
 2084 01d5 0B       		.uleb128 0xb
 2085 01d6 3B       		.uleb128 0x3b
 2086 01d7 05       		.uleb128 0x5
 2087 01d8 49       		.uleb128 0x49
 2088 01d9 13       		.uleb128 0x13
 2089 01da 3F       		.uleb128 0x3f
 2090 01db 19       		.uleb128 0x19
 2091 01dc 3C       		.uleb128 0x3c
 2092 01dd 19       		.uleb128 0x19
 2093 01de 00       		.byte	0
 2094 01df 00       		.byte	0
 2095 01e0 00       		.byte	0
 2096              		.section	.debug_aranges,"",%progbits
 2097 0000 34000000 		.4byte	0x34
 2098 0004 0200     		.2byte	0x2
 2099 0006 00000000 		.4byte	.Ldebug_info0
ARM GAS  /tmp/cc8e8YEY.s 			page 38


 2100 000a 04       		.byte	0x4
 2101 000b 00       		.byte	0
 2102 000c 0000     		.2byte	0
 2103 000e 0000     		.2byte	0
 2104 0010 00000000 		.4byte	.LFB271
 2105 0014 50000000 		.4byte	.LFE271-.LFB271
 2106 0018 00000000 		.4byte	.LFB272
 2107 001c 34000000 		.4byte	.LFE272-.LFB272
 2108 0020 00000000 		.4byte	.LFB273
 2109 0024 34000000 		.4byte	.LFE273-.LFB273
 2110 0028 00000000 		.4byte	.LFB274
 2111 002c 24000000 		.4byte	.LFE274-.LFB274
 2112 0030 00000000 		.4byte	0
 2113 0034 00000000 		.4byte	0
 2114              		.section	.debug_ranges,"",%progbits
 2115              	.Ldebug_ranges0:
 2116 0000 00000000 		.4byte	.LFB271
 2117 0004 50000000 		.4byte	.LFE271
 2118 0008 00000000 		.4byte	.LFB272
 2119 000c 34000000 		.4byte	.LFE272
 2120 0010 00000000 		.4byte	.LFB273
 2121 0014 34000000 		.4byte	.LFE273
 2122 0018 00000000 		.4byte	.LFB274
 2123 001c 24000000 		.4byte	.LFE274
 2124 0020 00000000 		.4byte	0
 2125 0024 00000000 		.4byte	0
 2126              		.section	.debug_line,"",%progbits
 2127              	.Ldebug_line0:
 2128 0000 1E020000 		.section	.debug_str,"MS",%progbits,1
 2128      0200C601 
 2128      00000201 
 2128      FB0E0D00 
 2128      01010101 
 2129              	.LASF49:
 2130 0000 74687265 		.ascii	"threads_list_t\000"
 2130      6164735F 
 2130      6C697374 
 2130      5F7400
 2131              	.LASF92:
 2132 000f 49435052 		.ascii	"ICPR\000"
 2132      00
 2133              	.LASF54:
 2134 0014 72656164 		.ascii	"ready_list_t\000"
 2134      795F6C69 
 2134      73745F74 
 2134      00
 2135              	.LASF119:
 2136 0021 73655F74 		.ascii	"se_time\000"
 2136      696D6500 
 2137              	.LASF143:
 2138 0029 77747472 		.ascii	"wttrp\000"
 2138      7000
 2139              	.LASF140:
 2140 002f 7264796D 		.ascii	"rdymsg\000"
 2140      736700
 2141              	.LASF16:
 2142 0036 75696E74 		.ascii	"uint64_t\000"
ARM GAS  /tmp/cc8e8YEY.s 			page 39


 2142      36345F74 
 2142      00
 2143              	.LASF84:
 2144 003f 6B65726E 		.ascii	"kernel_stats\000"
 2144      656C5F73 
 2144      74617473 
 2144      00
 2145              	.LASF5:
 2146 004c 5F5F7569 		.ascii	"__uint8_t\000"
 2146      6E74385F 
 2146      7400
 2147              	.LASF118:
 2148 0056 706F7274 		.ascii	"port_intctx\000"
 2148      5F696E74 
 2148      63747800 
 2149              	.LASF53:
 2150 0062 63685F74 		.ascii	"ch_threads_queue\000"
 2150      68726561 
 2150      64735F71 
 2150      75657565 
 2150      00
 2151              	.LASF73:
 2152 0073 73797374 		.ascii	"system_debug_t\000"
 2152      656D5F64 
 2152      65627567 
 2152      5F7400
 2153              	.LASF131:
 2154 0082 776F7273 		.ascii	"worst\000"
 2154      7400
 2155              	.LASF134:
 2156 0088 74696D65 		.ascii	"time_measurement_t\000"
 2156      5F6D6561 
 2156      73757265 
 2156      6D656E74 
 2156      5F7400
 2157              	.LASF12:
 2158 009b 6C6F6E67 		.ascii	"long long unsigned int\000"
 2158      206C6F6E 
 2158      6720756E 
 2158      7369676E 
 2158      65642069 
 2159              	.LASF127:
 2160 00b2 63685F74 		.ascii	"ch_trace_buffer_t\000"
 2160      72616365 
 2160      5F627566 
 2160      6665725F 
 2160      7400
 2161              	.LASF122:
 2162 00c4 73655F73 		.ascii	"se_state\000"
 2162      74617465 
 2162      00
 2163              	.LASF141:
 2164 00cd 65786974 		.ascii	"exitcode\000"
 2164      636F6465 
 2164      00
 2165              	.LASF83:
 2166 00d6 6D61696E 		.ascii	"mainthread\000"
ARM GAS  /tmp/cc8e8YEY.s 			page 40


 2166      74687265 
 2166      616400
 2167              	.LASF70:
 2168 00e1 76697274 		.ascii	"virtual_timers_list_t\000"
 2168      75616C5F 
 2168      74696D65 
 2168      72735F6C 
 2168      6973745F 
 2169              	.LASF100:
 2170 00f7 43505549 		.ascii	"CPUID\000"
 2170      4400
 2171              	.LASF18:
 2172 00fd 72747469 		.ascii	"rttime_t\000"
 2172      6D655F74 
 2172      00
 2173              	.LASF90:
 2174 0106 49535052 		.ascii	"ISPR\000"
 2174      00
 2175              	.LASF31:
 2176 010b 705F7072 		.ascii	"p_prio\000"
 2176      696F00
 2177              	.LASF158:
 2178 0112 6E766963 		.ascii	"nvicEnableVector\000"
 2178      456E6162 
 2178      6C655665 
 2178      63746F72 
 2178      00
 2179              	.LASF112:
 2180 0123 49534152 		.ascii	"ISAR\000"
 2180      00
 2181              	.LASF10:
 2182 0128 6C6F6E67 		.ascii	"long long int\000"
 2182      206C6F6E 
 2182      6720696E 
 2182      7400
 2183              	.LASF1:
 2184 0136 7369676E 		.ascii	"signed char\000"
 2184      65642063 
 2184      68617200 
 2185              	.LASF46:
 2186 0142 705F6D70 		.ascii	"p_mpool\000"
 2186      6F6F6C00 
 2187              	.LASF151:
 2188 014a 6D5F7175 		.ascii	"m_queue\000"
 2188      65756500 
 2189              	.LASF162:
 2190 0152 6E766963 		.ascii	"nvicClearPending\000"
 2190      436C6561 
 2190      7250656E 
 2190      64696E67 
 2190      00
 2191              	.LASF82:
 2192 0163 76746C69 		.ascii	"vtlist\000"
 2192      737400
 2193              	.LASF80:
 2194 016a 63685F73 		.ascii	"ch_system\000"
 2194      79737465 
ARM GAS  /tmp/cc8e8YEY.s 			page 41


 2194      6D00
 2195              	.LASF7:
 2196 0174 6C6F6E67 		.ascii	"long int\000"
 2196      20696E74 
 2196      00
 2197              	.LASF20:
 2198 017d 74737461 		.ascii	"tstate_t\000"
 2198      74655F74 
 2198      00
 2199              	.LASF120:
 2200 0186 73655F74 		.ascii	"se_tp\000"
 2200      7000
 2201              	.LASF164:
 2202 018c 474E5520 		.ascii	"GNU C 4.8.4 20141219 (release) -mcpu=cortex-m4 -mno"
 2202      4320342E 
 2202      382E3420 
 2202      32303134 
 2202      31323139 
 2203 01bf 2D746875 		.ascii	"-thumb-interwork -mthumb -ggdb -O0 -fomit-frame-poi"
 2203      6D622D69 
 2203      6E746572 
 2203      776F726B 
 2203      202D6D74 
 2204 01f2 6E746572 		.ascii	"nter -falign-functions=16 -ffunction-sections -fdat"
 2204      202D6661 
 2204      6C69676E 
 2204      2D66756E 
 2204      6374696F 
 2205 0225 612D7365 		.ascii	"a-sections -fno-common\000"
 2205      6374696F 
 2205      6E73202D 
 2205      666E6F2D 
 2205      636F6D6D 
 2206              	.LASF33:
 2207 023c 705F6E65 		.ascii	"p_newer\000"
 2207      77657200 
 2208              	.LASF148:
 2209 0244 735F7175 		.ascii	"s_queue\000"
 2209      65756500 
 2210              	.LASF109:
 2211 024c 42464152 		.ascii	"BFAR\000"
 2211      00
 2212              	.LASF124:
 2213 0251 74625F73 		.ascii	"tb_size\000"
 2213      697A6500 
 2214              	.LASF110:
 2215 0259 41465352 		.ascii	"AFSR\000"
 2215      00
 2216              	.LASF59:
 2217 025e 725F6E65 		.ascii	"r_newer\000"
 2217      77657200 
 2218              	.LASF115:
 2219 0266 72656761 		.ascii	"regarm_t\000"
 2219      726D5F74 
 2219      00
 2220              	.LASF66:
 2221 026f 76745F70 		.ascii	"vt_prev\000"
ARM GAS  /tmp/cc8e8YEY.s 			page 42


 2221      72657600 
 2222              	.LASF114:
 2223 0277 5343425F 		.ascii	"SCB_Type\000"
 2223      54797065 
 2223      00
 2224              	.LASF74:
 2225 0280 63685F73 		.ascii	"ch_system_debug\000"
 2225      79737465 
 2225      6D5F6465 
 2225      62756700 
 2226              	.LASF165:
 2227 0290 2F686F6D 		.ascii	"/home/efe/ChibiOS/os/hal/ports/common/ARMCMx/nvic.c"
 2227      652F6566 
 2227      652F4368 
 2227      6962694F 
 2227      532F6F73 
 2228 02c3 00       		.ascii	"\000"
 2229              	.LASF155:
 2230 02c4 6D757465 		.ascii	"mutex_t\000"
 2230      785F7400 
 2231              	.LASF77:
 2232 02cc 6C6F636B 		.ascii	"lock_cnt\000"
 2232      5F636E74 
 2232      00
 2233              	.LASF85:
 2234 02d5 69646C65 		.ascii	"idle_thread_wa\000"
 2234      5F746872 
 2234      6561645F 
 2234      776100
 2235              	.LASF25:
 2236 02e4 636E745F 		.ascii	"cnt_t\000"
 2236      7400
 2237              	.LASF36:
 2238 02ea 705F7374 		.ascii	"p_stklimit\000"
 2238      6B6C696D 
 2238      697400
 2239              	.LASF0:
 2240 02f5 756E7369 		.ascii	"unsigned int\000"
 2240      676E6564 
 2240      20696E74 
 2240      00
 2241              	.LASF65:
 2242 0302 76745F6E 		.ascii	"vt_next\000"
 2242      65787400 
 2243              	.LASF159:
 2244 030a 6E766963 		.ascii	"nvicDisableVector\000"
 2244      44697361 
 2244      626C6556 
 2244      6563746F 
 2244      7200
 2245              	.LASF144:
 2246 031c 77747365 		.ascii	"wtsemp\000"
 2246      6D7000
 2247              	.LASF41:
 2248 0323 705F6D73 		.ascii	"p_msgqueue\000"
 2248      67717565 
 2248      756500
ARM GAS  /tmp/cc8e8YEY.s 			page 43


 2249              	.LASF135:
 2250 032e 6E5F6972 		.ascii	"n_irq\000"
 2250      7100
 2251              	.LASF102:
 2252 0334 56544F52 		.ascii	"VTOR\000"
 2252      00
 2253              	.LASF149:
 2254 0339 735F636E 		.ascii	"s_cnt\000"
 2254      7400
 2255              	.LASF139:
 2256 033f 6B65726E 		.ascii	"kernel_stats_t\000"
 2256      656C5F73 
 2256      74617473 
 2256      5F7400
 2257              	.LASF50:
 2258 034e 63685F74 		.ascii	"ch_thread\000"
 2258      68726561 
 2258      6400
 2259              	.LASF101:
 2260 0358 49435352 		.ascii	"ICSR\000"
 2260      00
 2261              	.LASF23:
 2262 035d 6D73675F 		.ascii	"msg_t\000"
 2262      7400
 2263              	.LASF103:
 2264 0363 41495243 		.ascii	"AIRCR\000"
 2264      5200
 2265              	.LASF107:
 2266 0369 44465352 		.ascii	"DFSR\000"
 2266      00
 2267              	.LASF26:
 2268 036e 75636E74 		.ascii	"ucnt_t\000"
 2268      5F7400
 2269              	.LASF108:
 2270 0375 4D4D4641 		.ascii	"MMFAR\000"
 2270      5200
 2271              	.LASF79:
 2272 037b 63685F73 		.ascii	"ch_system_t\000"
 2272      79737465 
 2272      6D5F7400 
 2273              	.LASF126:
 2274 0387 74625F62 		.ascii	"tb_buffer\000"
 2274      75666665 
 2274      7200
 2275              	.LASF138:
 2276 0391 6D5F6372 		.ascii	"m_crit_isr\000"
 2276      69745F69 
 2276      737200
 2277              	.LASF55:
 2278 039c 63685F72 		.ascii	"ch_ready_list\000"
 2278      65616479 
 2278      5F6C6973 
 2278      7400
 2279              	.LASF24:
 2280 03aa 6576656E 		.ascii	"eventmask_t\000"
 2280      746D6173 
 2280      6B5F7400 
ARM GAS  /tmp/cc8e8YEY.s 			page 44


 2281              	.LASF6:
 2282 03b6 5F5F696E 		.ascii	"__int32_t\000"
 2282      7433325F 
 2282      7400
 2283              	.LASF116:
 2284 03c0 73746B61 		.ascii	"stkalign_t\000"
 2284      6C69676E 
 2284      5F7400
 2285              	.LASF161:
 2286 03cb 68616E64 		.ascii	"handler\000"
 2286      6C657200 
 2287              	.LASF63:
 2288 03d3 76697274 		.ascii	"virtual_timer_t\000"
 2288      75616C5F 
 2288      74696D65 
 2288      725F7400 
 2289              	.LASF40:
 2290 03e3 705F7761 		.ascii	"p_waiting\000"
 2290      6974696E 
 2290      6700
 2291              	.LASF98:
 2292 03ed 73697A65 		.ascii	"sizetype\000"
 2292      74797065 
 2292      00
 2293              	.LASF48:
 2294 03f6 74687265 		.ascii	"thread_reference_t\000"
 2294      61645F72 
 2294      65666572 
 2294      656E6365 
 2294      5F7400
 2295              	.LASF71:
 2296 0409 63685F76 		.ascii	"ch_virtual_timers_list\000"
 2296      69727475 
 2296      616C5F74 
 2296      696D6572 
 2296      735F6C69 
 2297              	.LASF105:
 2298 0420 43465352 		.ascii	"CFSR\000"
 2298      00
 2299              	.LASF125:
 2300 0425 74625F70 		.ascii	"tb_ptr\000"
 2300      747200
 2301              	.LASF94:
 2302 042c 49414252 		.ascii	"IABR\000"
 2302      00
 2303              	.LASF123:
 2304 0431 63685F73 		.ascii	"ch_swc_event_t\000"
 2304      77635F65 
 2304      76656E74 
 2304      5F7400
 2305              	.LASF72:
 2306 0440 76745F6C 		.ascii	"vt_lasttime\000"
 2306      61737474 
 2306      696D6500 
 2307              	.LASF34:
 2308 044c 705F6F6C 		.ascii	"p_older\000"
 2308      64657200 
ARM GAS  /tmp/cc8e8YEY.s 			page 45


 2309              	.LASF58:
 2310 0454 725F6374 		.ascii	"r_ctx\000"
 2310      7800
 2311              	.LASF129:
 2312 045a 746D5F63 		.ascii	"tm_calibration_t\000"
 2312      616C6962 
 2312      72617469 
 2312      6F6E5F74 
 2312      00
 2313              	.LASF88:
 2314 046b 49434552 		.ascii	"ICER\000"
 2314      00
 2315              	.LASF157:
 2316 0470 7072696F 		.ascii	"prio\000"
 2316      00
 2317              	.LASF60:
 2318 0475 725F6F6C 		.ascii	"r_older\000"
 2318      64657200 
 2319              	.LASF11:
 2320 047d 5F5F7569 		.ascii	"__uint64_t\000"
 2320      6E743634 
 2320      5F7400
 2321              	.LASF133:
 2322 0488 63756D75 		.ascii	"cumulative\000"
 2322      6C617469 
 2322      766500
 2323              	.LASF21:
 2324 0493 74726566 		.ascii	"trefs_t\000"
 2324      735F7400 
 2325              	.LASF87:
 2326 049b 52455345 		.ascii	"RESERVED0\000"
 2326      52564544 
 2326      3000
 2327              	.LASF91:
 2328 04a5 52455345 		.ascii	"RESERVED2\000"
 2328      52564544 
 2328      3200
 2329              	.LASF93:
 2330 04af 52455345 		.ascii	"RESERVED3\000"
 2330      52564544 
 2330      3300
 2331              	.LASF95:
 2332 04b9 52455345 		.ascii	"RESERVED4\000"
 2332      52564544 
 2332      3400
 2333              	.LASF30:
 2334 04c3 705F7072 		.ascii	"p_prev\000"
 2334      657600
 2335              	.LASF22:
 2336 04ca 74707269 		.ascii	"tprio_t\000"
 2336      6F5F7400 
 2337              	.LASF136:
 2338 04d2 6E5F6374 		.ascii	"n_ctxswc\000"
 2338      78737763 
 2338      00
 2339              	.LASF156:
 2340 04db 5F426F6F 		.ascii	"_Bool\000"
ARM GAS  /tmp/cc8e8YEY.s 			page 46


 2340      6C00
 2341              	.LASF14:
 2342 04e1 696E7433 		.ascii	"int32_t\000"
 2342      325F7400 
 2343              	.LASF2:
 2344 04e9 756E7369 		.ascii	"unsigned char\000"
 2344      676E6564 
 2344      20636861 
 2344      7200
 2345              	.LASF104:
 2346 04f7 53484353 		.ascii	"SHCSR\000"
 2346      5200
 2347              	.LASF163:
 2348 04fd 49544D5F 		.ascii	"ITM_RxBuffer\000"
 2348      52784275 
 2348      66666572 
 2348      00
 2349              	.LASF37:
 2350 050a 705F7374 		.ascii	"p_state\000"
 2350      61746500 
 2351              	.LASF44:
 2352 0512 705F6D74 		.ascii	"p_mtxlist\000"
 2352      786C6973 
 2352      7400
 2353              	.LASF3:
 2354 051c 73686F72 		.ascii	"short int\000"
 2354      7420696E 
 2354      7400
 2355              	.LASF86:
 2356 0526 49534552 		.ascii	"ISER\000"
 2356      00
 2357              	.LASF99:
 2358 052b 4E564943 		.ascii	"NVIC_Type\000"
 2358      5F547970 
 2358      6500
 2359              	.LASF160:
 2360 0535 6E766963 		.ascii	"nvicSetSystemHandlerPriority\000"
 2360      53657453 
 2360      79737465 
 2360      6D48616E 
 2360      646C6572 
 2361              	.LASF57:
 2362 0552 725F7072 		.ascii	"r_prio\000"
 2362      696F00
 2363              	.LASF146:
 2364 0559 65776D61 		.ascii	"ewmask\000"
 2364      736B00
 2365              	.LASF29:
 2366 0560 705F6E65 		.ascii	"p_next\000"
 2366      787400
 2367              	.LASF19:
 2368 0567 746D6F64 		.ascii	"tmode_t\000"
 2368      655F7400 
 2369              	.LASF38:
 2370 056f 705F666C 		.ascii	"p_flags\000"
 2370      61677300 
 2371              	.LASF166:
ARM GAS  /tmp/cc8e8YEY.s 			page 47


 2372 0577 5F5F6675 		.ascii	"__func__\000"
 2372      6E635F5F 
 2372      00
 2373              	.LASF47:
 2374 0580 705F7374 		.ascii	"p_stats\000"
 2374      61747300 
 2375              	.LASF4:
 2376 0588 73686F72 		.ascii	"short unsigned int\000"
 2376      7420756E 
 2376      7369676E 
 2376      65642069 
 2376      6E7400
 2377              	.LASF64:
 2378 059b 63685F76 		.ascii	"ch_virtual_timer\000"
 2378      69727475 
 2378      616C5F74 
 2378      696D6572 
 2378      00
 2379              	.LASF147:
 2380 05ac 63685F73 		.ascii	"ch_semaphore\000"
 2380      656D6170 
 2380      686F7265 
 2380      00
 2381              	.LASF43:
 2382 05b9 705F6570 		.ascii	"p_epending\000"
 2382      656E6469 
 2382      6E6700
 2383              	.LASF96:
 2384 05c4 52455345 		.ascii	"RESERVED5\000"
 2384      52564544 
 2384      3500
 2385              	.LASF15:
 2386 05ce 75696E74 		.ascii	"uint32_t\000"
 2386      33325F74 
 2386      00
 2387              	.LASF145:
 2388 05d7 77746D74 		.ascii	"wtmtxp\000"
 2388      787000
 2389              	.LASF56:
 2390 05de 725F7175 		.ascii	"r_queue\000"
 2390      65756500 
 2391              	.LASF67:
 2392 05e6 76745F64 		.ascii	"vt_delta\000"
 2392      656C7461 
 2392      00
 2393              	.LASF51:
 2394 05ef 63685F74 		.ascii	"ch_threads_list\000"
 2394      68726561 
 2394      64735F6C 
 2394      69737400 
 2395              	.LASF9:
 2396 05ff 6C6F6E67 		.ascii	"long unsigned int\000"
 2396      20756E73 
 2396      69676E65 
 2396      6420696E 
 2396      7400
 2397              	.LASF61:
ARM GAS  /tmp/cc8e8YEY.s 			page 48


 2398 0611 725F6375 		.ascii	"r_current\000"
 2398      7272656E 
 2398      7400
 2399              	.LASF154:
 2400 061b 63686172 		.ascii	"char\000"
 2400      00
 2401              	.LASF28:
 2402 0620 74687265 		.ascii	"thread_t\000"
 2402      61645F74 
 2402      00
 2403              	.LASF130:
 2404 0629 62657374 		.ascii	"best\000"
 2404      00
 2405              	.LASF153:
 2406 062e 6D5F6E65 		.ascii	"m_next\000"
 2406      787400
 2407              	.LASF27:
 2408 0635 73797374 		.ascii	"systime_t\000"
 2408      696D655F 
 2408      7400
 2409              	.LASF45:
 2410 063f 705F7265 		.ascii	"p_realprio\000"
 2410      616C7072 
 2410      696F00
 2411              	.LASF62:
 2412 064a 76746675 		.ascii	"vtfunc_t\000"
 2412      6E635F74 
 2412      00
 2413              	.LASF8:
 2414 0653 5F5F7569 		.ascii	"__uint32_t\000"
 2414      6E743332 
 2414      5F7400
 2415              	.LASF132:
 2416 065e 6C617374 		.ascii	"last\000"
 2416      00
 2417              	.LASF75:
 2418 0663 70616E69 		.ascii	"panic_msg\000"
 2418      635F6D73 
 2418      6700
 2419              	.LASF128:
 2420 066d 6F666673 		.ascii	"offset\000"
 2420      657400
 2421              	.LASF117:
 2422 0674 636F6E74 		.ascii	"context\000"
 2422      65787400 
 2423              	.LASF17:
 2424 067c 7274636E 		.ascii	"rtcnt_t\000"
 2424      745F7400 
 2425              	.LASF69:
 2426 0684 76745F70 		.ascii	"vt_par\000"
 2426      617200
 2427              	.LASF52:
 2428 068b 74687265 		.ascii	"threads_queue_t\000"
 2428      6164735F 
 2428      71756575 
 2428      655F7400 
 2429              	.LASF150:
ARM GAS  /tmp/cc8e8YEY.s 			page 49


 2430 069b 63685F6D 		.ascii	"ch_mutex\000"
 2430      75746578 
 2430      00
 2431              	.LASF39:
 2432 06a4 705F7265 		.ascii	"p_refs\000"
 2432      667300
 2433              	.LASF76:
 2434 06ab 6973725F 		.ascii	"isr_cnt\000"
 2434      636E7400 
 2435              	.LASF111:
 2436 06b3 4D4D4652 		.ascii	"MMFR\000"
 2436      00
 2437              	.LASF81:
 2438 06b8 726C6973 		.ascii	"rlist\000"
 2438      7400
 2439              	.LASF13:
 2440 06be 75696E74 		.ascii	"uint8_t\000"
 2440      385F7400 
 2441              	.LASF89:
 2442 06c6 52534552 		.ascii	"RSERVED1\000"
 2442      56454431 
 2442      00
 2443              	.LASF97:
 2444 06cf 53544952 		.ascii	"STIR\000"
 2444      00
 2445              	.LASF142:
 2446 06d4 77746F62 		.ascii	"wtobjp\000"
 2446      6A7000
 2447              	.LASF35:
 2448 06db 705F6E61 		.ascii	"p_name\000"
 2448      6D6500
 2449              	.LASF78:
 2450 06e2 74726163 		.ascii	"trace_buffer\000"
 2450      655F6275 
 2450      66666572 
 2450      00
 2451              	.LASF42:
 2452 06ef 705F6D73 		.ascii	"p_msg\000"
 2452      6700
 2453              	.LASF113:
 2454 06f5 43504143 		.ascii	"CPACR\000"
 2454      5200
 2455              	.LASF106:
 2456 06fb 48465352 		.ascii	"HFSR\000"
 2456      00
 2457              	.LASF137:
 2458 0700 6D5F6372 		.ascii	"m_crit_thd\000"
 2458      69745F74 
 2458      686400
 2459              	.LASF152:
 2460 070b 6D5F6F77 		.ascii	"m_owner\000"
 2460      6E657200 
 2461              	.LASF121:
 2462 0713 73655F77 		.ascii	"se_wtobjp\000"
 2462      746F626A 
 2462      7000
 2463              	.LASF32:
ARM GAS  /tmp/cc8e8YEY.s 			page 50


 2464 071d 705F6374 		.ascii	"p_ctx\000"
 2464      7800
 2465              	.LASF68:
 2466 0723 76745F66 		.ascii	"vt_func\000"
 2466      756E6300 
 2467              		.ident	"GCC: (4.8.4-1+11-1) 4.8.4 20141219 (release)"
ARM GAS  /tmp/cc8e8YEY.s 			page 51


DEFINED SYMBOLS
                            *ABS*:0000000000000000 nvic.c
     /tmp/cc8e8YEY.s:19     .text.nvicEnableVector:0000000000000000 $t
     /tmp/cc8e8YEY.s:25     .text.nvicEnableVector:0000000000000000 nvicEnableVector
     /tmp/cc8e8YEY.s:73     .text.nvicEnableVector:000000000000004c $d
     /tmp/cc8e8YEY.s:78     .text.nvicDisableVector:0000000000000000 $t
     /tmp/cc8e8YEY.s:84     .text.nvicDisableVector:0000000000000000 nvicDisableVector
     /tmp/cc8e8YEY.s:118    .text.nvicDisableVector:0000000000000030 $d
     /tmp/cc8e8YEY.s:123    .text.nvicSetSystemHandlerPriority:0000000000000000 $t
     /tmp/cc8e8YEY.s:129    .text.nvicSetSystemHandlerPriority:0000000000000000 nvicSetSystemHandlerPriority
     /tmp/cc8e8YEY.s:167    .text.nvicSetSystemHandlerPriority:000000000000002c $d
     /tmp/cc8e8YEY.s:214    .rodata.__func__.7148:0000000000000000 __func__.7148
     /tmp/cc8e8YEY.s:173    .text.nvicClearPending:0000000000000000 $t
     /tmp/cc8e8YEY.s:179    .text.nvicClearPending:0000000000000000 nvicClearPending
     /tmp/cc8e8YEY.s:206    .text.nvicClearPending:0000000000000020 $d
     /tmp/cc8e8YEY.s:211    .rodata.__func__.7148:0000000000000000 $d
                     .debug_frame:0000000000000010 $d
     /tmp/cc8e8YEY.s:122    .text.nvicDisableVector:0000000000000034 $t
     /tmp/cc8e8YEY.s:172    .text.nvicSetSystemHandlerPriority:0000000000000034 $t
     /tmp/cc8e8YEY.s:210    .text.nvicClearPending:0000000000000024 $t

UNDEFINED SYMBOLS
chSysHalt
