ARM GAS  /tmp/cctuDh6q.s 			page 1


   1              		.syntax unified
   2              		.cpu cortex-m4
   3              		.fpu softvfp
   4              		.eabi_attribute 20, 1
   5              		.eabi_attribute 21, 1
   6              		.eabi_attribute 23, 3
   7              		.eabi_attribute 24, 1
   8              		.eabi_attribute 25, 1
   9              		.eabi_attribute 26, 1
  10              		.eabi_attribute 30, 6
  11              		.eabi_attribute 34, 1
  12              		.eabi_attribute 18, 4
  13              		.thumb
  14              		.file	"pal.c"
  15              		.text
  16              	.Ltext0:
  17              		.cfi_sections	.debug_frame
  18              		.section	.text.palReadBus,"ax",%progbits
  19              		.align	2
  20              		.p2align 4,,15
  21              		.global	palReadBus
  22              		.thumb
  23              		.thumb_func
  24              		.type	palReadBus, %function
  25              	palReadBus:
  26              	.LFB271:
  27              		.file 1 "/home/efe/ChibiOS/os/hal/src/pal.c"
  28              		.loc 1 65 0
  29              		.cfi_startproc
  30              		@ args = 0, pretend = 0, frame = 8
  31              		@ frame_needed = 0, uses_anonymous_args = 0
  32 0000 00B5     		push	{lr}
  33              		.cfi_def_cfa_offset 4
  34              		.cfi_offset 14, -4
  35 0002 83B0     		sub	sp, sp, #12
  36              		.cfi_def_cfa_offset 16
  37 0004 0190     		str	r0, [sp, #4]
  38              		.loc 1 67 0
  39 0006 019B     		ldr	r3, [sp, #4]
  40 0008 002B     		cmp	r3, #0
  41 000a 03D0     		beq	.L2
  42              		.loc 1 67 0 is_stmt 0 discriminator 2
  43 000c 019B     		ldr	r3, [sp, #4]
  44 000e 9B68     		ldr	r3, [r3, #8]
  45 0010 0F2B     		cmp	r3, #15
  46 0012 02D9     		bls	.L3
  47              	.L2:
  48              		.loc 1 67 0 discriminator 1
  49 0014 0748     		ldr	r0, .L5
  50 0016 FFF7FEFF 		bl	chSysHalt
  51              	.L3:
  52              		.loc 1 69 0 is_stmt 1
  53 001a 019B     		ldr	r3, [sp, #4]
  54 001c 1B68     		ldr	r3, [r3]
  55 001e 1A69     		ldr	r2, [r3, #16]
  56 0020 019B     		ldr	r3, [sp, #4]
  57 0022 9B68     		ldr	r3, [r3, #8]
ARM GAS  /tmp/cctuDh6q.s 			page 2


  58 0024 DA40     		lsrs	r2, r2, r3
  59 0026 019B     		ldr	r3, [sp, #4]
  60 0028 5B68     		ldr	r3, [r3, #4]
  61 002a 1340     		ands	r3, r3, r2
  62              		.loc 1 70 0
  63 002c 1846     		mov	r0, r3
  64 002e 03B0     		add	sp, sp, #12
  65              		@ sp needed
  66 0030 5DF804FB 		ldr	pc, [sp], #4
  67              	.L6:
  68              		.align	2
  69              	.L5:
  70 0034 00000000 		.word	__func__.7140
  71              		.cfi_endproc
  72              	.LFE271:
  73              		.size	palReadBus, .-palReadBus
  74 0038 AFF30080 		.section	.text.palWriteBus,"ax",%progbits
  74      AFF30080 
  75              		.align	2
  76              		.p2align 4,,15
  77              		.global	palWriteBus
  78              		.thumb
  79              		.thumb_func
  80              		.type	palWriteBus, %function
  81              	palWriteBus:
  82              	.LFB272:
  83              		.loc 1 90 0
  84              		.cfi_startproc
  85              		@ args = 0, pretend = 0, frame = 8
  86              		@ frame_needed = 0, uses_anonymous_args = 0
  87 0000 00B5     		push	{lr}
  88              		.cfi_def_cfa_offset 4
  89              		.cfi_offset 14, -4
  90 0002 83B0     		sub	sp, sp, #12
  91              		.cfi_def_cfa_offset 16
  92 0004 0190     		str	r0, [sp, #4]
  93 0006 0091     		str	r1, [sp]
  94              		.loc 1 92 0
  95 0008 019B     		ldr	r3, [sp, #4]
  96 000a 002B     		cmp	r3, #0
  97 000c 03D0     		beq	.L8
  98              		.loc 1 92 0 is_stmt 0 discriminator 2
  99 000e 019B     		ldr	r3, [sp, #4]
 100 0010 9B68     		ldr	r3, [r3, #8]
 101 0012 0F2B     		cmp	r3, #15
 102 0014 02D9     		bls	.L9
 103              	.L8:
 104              		.loc 1 92 0 discriminator 1
 105 0016 0D48     		ldr	r0, .L10
 106 0018 FFF7FEFF 		bl	chSysHalt
 107              	.L9:
 108              		.loc 1 94 0 is_stmt 1
 109 001c 019B     		ldr	r3, [sp, #4]
 110 001e 1B68     		ldr	r3, [r3]
 111 0020 009A     		ldr	r2, [sp]
 112 0022 D143     		mvns	r1, r2
 113 0024 019A     		ldr	r2, [sp, #4]
ARM GAS  /tmp/cctuDh6q.s 			page 3


 114 0026 5268     		ldr	r2, [r2, #4]
 115 0028 1140     		ands	r1, r1, r2
 116 002a 019A     		ldr	r2, [sp, #4]
 117 002c 9268     		ldr	r2, [r2, #8]
 118 002e 1032     		adds	r2, r2, #16
 119 0030 9140     		lsls	r1, r1, r2
 120 0032 019A     		ldr	r2, [sp, #4]
 121 0034 5068     		ldr	r0, [r2, #4]
 122 0036 009A     		ldr	r2, [sp]
 123 0038 1040     		ands	r0, r0, r2
 124 003a 019A     		ldr	r2, [sp, #4]
 125 003c 9268     		ldr	r2, [r2, #8]
 126 003e 00FA02F2 		lsl	r2, r0, r2
 127 0042 0A43     		orrs	r2, r2, r1
 128 0044 9A61     		str	r2, [r3, #24]
 129              		.loc 1 95 0
 130 0046 03B0     		add	sp, sp, #12
 131              		@ sp needed
 132 0048 5DF804FB 		ldr	pc, [sp], #4
 133              	.L11:
 134              		.align	2
 135              	.L10:
 136 004c 00000000 		.word	__func__.7145
 137              		.cfi_endproc
 138              	.LFE272:
 139              		.size	palWriteBus, .-palWriteBus
 140              		.section	.text.palSetBusMode,"ax",%progbits
 141              		.align	2
 142              		.p2align 4,,15
 143              		.global	palSetBusMode
 144              		.thumb
 145              		.thumb_func
 146              		.type	palSetBusMode, %function
 147              	palSetBusMode:
 148              	.LFB273:
 149              		.loc 1 113 0
 150              		.cfi_startproc
 151              		@ args = 0, pretend = 0, frame = 8
 152              		@ frame_needed = 0, uses_anonymous_args = 0
 153 0000 00B5     		push	{lr}
 154              		.cfi_def_cfa_offset 4
 155              		.cfi_offset 14, -4
 156 0002 83B0     		sub	sp, sp, #12
 157              		.cfi_def_cfa_offset 16
 158 0004 0190     		str	r0, [sp, #4]
 159 0006 0091     		str	r1, [sp]
 160              		.loc 1 115 0
 161 0008 019B     		ldr	r3, [sp, #4]
 162 000a 002B     		cmp	r3, #0
 163 000c 03D0     		beq	.L13
 164              		.loc 1 115 0 is_stmt 0 discriminator 2
 165 000e 019B     		ldr	r3, [sp, #4]
 166 0010 9B68     		ldr	r3, [r3, #8]
 167 0012 0F2B     		cmp	r3, #15
 168 0014 02D9     		bls	.L14
 169              	.L13:
 170              		.loc 1 115 0 discriminator 1
ARM GAS  /tmp/cctuDh6q.s 			page 4


 171 0016 0948     		ldr	r0, .L15
 172 0018 FFF7FEFF 		bl	chSysHalt
 173              	.L14:
 174              		.loc 1 117 0 is_stmt 1
 175 001c 019B     		ldr	r3, [sp, #4]
 176 001e 1A68     		ldr	r2, [r3]
 177 0020 019B     		ldr	r3, [sp, #4]
 178 0022 5968     		ldr	r1, [r3, #4]
 179 0024 019B     		ldr	r3, [sp, #4]
 180 0026 9B68     		ldr	r3, [r3, #8]
 181 0028 01FA03F3 		lsl	r3, r1, r3
 182 002c 1046     		mov	r0, r2
 183 002e 1946     		mov	r1, r3
 184 0030 009A     		ldr	r2, [sp]
 185 0032 FFF7FEFF 		bl	_pal_lld_setgroupmode
 186              		.loc 1 118 0
 187 0036 03B0     		add	sp, sp, #12
 188              		@ sp needed
 189 0038 5DF804FB 		ldr	pc, [sp], #4
 190              	.L16:
 191              		.align	2
 192              	.L15:
 193 003c 00000000 		.word	__func__.7150
 194              		.cfi_endproc
 195              	.LFE273:
 196              		.size	palSetBusMode, .-palSetBusMode
 197              		.section	.rodata.__func__.7140,"a",%progbits
 198              		.align	2
 199              		.type	__func__.7140, %object
 200              		.size	__func__.7140, 11
 201              	__func__.7140:
 202 0000 70616C52 		.ascii	"palReadBus\000"
 202      65616442 
 202      757300
 203 000b 00       		.section	.rodata.__func__.7145,"a",%progbits
 204              		.align	2
 205              		.type	__func__.7145, %object
 206              		.size	__func__.7145, 12
 207              	__func__.7145:
 208 0000 70616C57 		.ascii	"palWriteBus\000"
 208      72697465 
 208      42757300 
 209              		.section	.rodata.__func__.7150,"a",%progbits
 210              		.align	2
 211              		.type	__func__.7150, %object
 212              		.size	__func__.7150, 14
 213              	__func__.7150:
 214 0000 70616C53 		.ascii	"palSetBusMode\000"
 214      65744275 
 214      734D6F64 
 214      6500
 215 000e 0000     		.text
 216              	.Letext0:
 217              		.file 2 "/usr/include/newlib/machine/_default_types.h"
 218              		.file 3 "/usr/include/newlib/stdint.h"
 219              		.file 4 "/home/efe/ChibiOS/os/rt/ports/ARMCMx/compilers/GCC/chtypes.h"
 220              		.file 5 "/home/efe/ChibiOS/os/rt/include/chsystypes.h"
ARM GAS  /tmp/cctuDh6q.s 			page 5


 221              		.file 6 "/home/efe/ChibiOS/os/rt/include/chschd.h"
 222              		.file 7 "/home/efe/ChibiOS/os/rt/ports/ARMCMx/chcore.h"
 223              		.file 8 "/home/efe/ChibiOS/os/rt/ports/ARMCMx/chcore_v7m.h"
 224              		.file 9 "/home/efe/ChibiOS/os/rt/include/chdebug.h"
 225              		.file 10 "/home/efe/ChibiOS/os/rt/include/chtm.h"
 226              		.file 11 "/home/efe/ChibiOS/os/rt/include/chstats.h"
 227              		.file 12 "/home/efe/ChibiOS/os/rt/include/chsem.h"
 228              		.file 13 "/home/efe/ChibiOS/os/rt/include/chmtx.h"
 229              		.file 14 "/home/efe/ChibiOS/os/hal/ports/STM32/LLD/GPIOv2/pal_lld.h"
 230              		.file 15 "/home/efe/ChibiOS/os/hal/include/pal.h"
 231              		.file 16 "/home/efe/ChibiOS/os/ext/CMSIS/include/core_cm4.h"
 232              		.section	.debug_info,"",%progbits
 233              	.Ldebug_info0:
 234 0000 240A0000 		.4byte	0xa24
 235 0004 0400     		.2byte	0x4
 236 0006 00000000 		.4byte	.Ldebug_abbrev0
 237 000a 04       		.byte	0x4
 238 000b 01       		.uleb128 0x1
 239 000c A6010000 		.4byte	.LASF154
 240 0010 01       		.byte	0x1
 241 0011 1C000000 		.4byte	.LASF155
 242 0015 00000000 		.4byte	.Ldebug_ranges0+0
 243 0019 00000000 		.4byte	0
 244 001d 00000000 		.4byte	.Ldebug_line0
 245 0021 02       		.uleb128 0x2
 246 0022 04       		.byte	0x4
 247 0023 05       		.byte	0x5
 248 0024 696E7400 		.ascii	"int\000"
 249 0028 03       		.uleb128 0x3
 250 0029 04       		.byte	0x4
 251 002a 07       		.byte	0x7
 252 002b D9020000 		.4byte	.LASF0
 253 002f 03       		.uleb128 0x3
 254 0030 01       		.byte	0x1
 255 0031 06       		.byte	0x6
 256 0032 58010000 		.4byte	.LASF1
 257 0036 04       		.uleb128 0x4
 258 0037 62000000 		.4byte	.LASF4
 259 003b 02       		.byte	0x2
 260 003c 1D       		.byte	0x1d
 261 003d 41000000 		.4byte	0x41
 262 0041 03       		.uleb128 0x3
 263 0042 01       		.byte	0x1
 264 0043 08       		.byte	0x8
 265 0044 B8040000 		.4byte	.LASF2
 266 0048 03       		.uleb128 0x3
 267 0049 02       		.byte	0x2
 268 004a 05       		.byte	0x5
 269 004b D0040000 		.4byte	.LASF3
 270 004f 04       		.uleb128 0x4
 271 0050 A8050000 		.4byte	.LASF5
 272 0054 02       		.byte	0x2
 273 0055 2B       		.byte	0x2b
 274 0056 5A000000 		.4byte	0x5a
 275 005a 03       		.uleb128 0x3
 276 005b 02       		.byte	0x2
 277 005c 07       		.byte	0x7
ARM GAS  /tmp/cctuDh6q.s 			page 6


 278 005d 11030000 		.4byte	.LASF6
 279 0061 04       		.uleb128 0x4
 280 0062 88030000 		.4byte	.LASF7
 281 0066 02       		.byte	0x2
 282 0067 3F       		.byte	0x3f
 283 0068 6C000000 		.4byte	0x6c
 284 006c 03       		.uleb128 0x3
 285 006d 04       		.byte	0x4
 286 006e 05       		.byte	0x5
 287 006f 85010000 		.4byte	.LASF8
 288 0073 04       		.uleb128 0x4
 289 0074 E6050000 		.4byte	.LASF9
 290 0078 02       		.byte	0x2
 291 0079 41       		.byte	0x41
 292 007a 7E000000 		.4byte	0x7e
 293 007e 03       		.uleb128 0x3
 294 007f 04       		.byte	0x4
 295 0080 07       		.byte	0x7
 296 0081 81050000 		.4byte	.LASF10
 297 0085 03       		.uleb128 0x3
 298 0086 08       		.byte	0x8
 299 0087 05       		.byte	0x5
 300 0088 4A010000 		.4byte	.LASF11
 301 008c 04       		.uleb128 0x4
 302 008d AC030000 		.4byte	.LASF12
 303 0091 02       		.byte	0x2
 304 0092 5B       		.byte	0x5b
 305 0093 97000000 		.4byte	0x97
 306 0097 03       		.uleb128 0x3
 307 0098 08       		.byte	0x8
 308 0099 07       		.byte	0x7
 309 009a CB000000 		.4byte	.LASF13
 310 009e 04       		.uleb128 0x4
 311 009f 5E060000 		.4byte	.LASF14
 312 00a3 03       		.byte	0x3
 313 00a4 2A       		.byte	0x2a
 314 00a5 36000000 		.4byte	0x36
 315 00a9 04       		.uleb128 0x4
 316 00aa 9D010000 		.4byte	.LASF15
 317 00ae 03       		.byte	0x3
 318 00af 36       		.byte	0x36
 319 00b0 4F000000 		.4byte	0x4f
 320 00b4 04       		.uleb128 0x4
 321 00b5 B0040000 		.4byte	.LASF16
 322 00b9 03       		.byte	0x3
 323 00ba 41       		.byte	0x41
 324 00bb 61000000 		.4byte	0x61
 325 00bf 04       		.uleb128 0x4
 326 00c0 50050000 		.4byte	.LASF17
 327 00c4 03       		.byte	0x3
 328 00c5 42       		.byte	0x42
 329 00c6 73000000 		.4byte	0x73
 330 00ca 04       		.uleb128 0x4
 331 00cb 4C000000 		.4byte	.LASF18
 332 00cf 03       		.byte	0x3
 333 00d0 4E       		.byte	0x4e
 334 00d1 8C000000 		.4byte	0x8c
ARM GAS  /tmp/cctuDh6q.s 			page 7


 335 00d5 04       		.uleb128 0x4
 336 00d6 F7040000 		.4byte	.LASF19
 337 00da 03       		.byte	0x3
 338 00db 60       		.byte	0x60
 339 00dc 28000000 		.4byte	0x28
 340 00e0 05       		.uleb128 0x5
 341 00e1 B4000000 		.4byte	0xb4
 342 00e5 05       		.uleb128 0x5
 343 00e6 BF000000 		.4byte	0xbf
 344 00ea 04       		.uleb128 0x4
 345 00eb 15060000 		.4byte	.LASF20
 346 00ef 04       		.byte	0x4
 347 00f0 45       		.byte	0x45
 348 00f1 BF000000 		.4byte	0xbf
 349 00f5 04       		.uleb128 0x4
 350 00f6 3A010000 		.4byte	.LASF21
 351 00fa 04       		.byte	0x4
 352 00fb 46       		.byte	0x46
 353 00fc CA000000 		.4byte	0xca
 354 0100 04       		.uleb128 0x4
 355 0101 5B030000 		.4byte	.LASF22
 356 0105 04       		.byte	0x4
 357 0106 48       		.byte	0x48
 358 0107 9E000000 		.4byte	0x9e
 359 010b 04       		.uleb128 0x4
 360 010c 8E010000 		.4byte	.LASF23
 361 0110 04       		.byte	0x4
 362 0111 49       		.byte	0x49
 363 0112 9E000000 		.4byte	0x9e
 364 0116 04       		.uleb128 0x4
 365 0117 70040000 		.4byte	.LASF24
 366 011b 04       		.byte	0x4
 367 011c 4A       		.byte	0x4a
 368 011d 9E000000 		.4byte	0x9e
 369 0121 04       		.uleb128 0x4
 370 0122 99040000 		.4byte	.LASF25
 371 0126 04       		.byte	0x4
 372 0127 4C       		.byte	0x4c
 373 0128 BF000000 		.4byte	0xbf
 374 012c 04       		.uleb128 0x4
 375 012d 3D030000 		.4byte	.LASF26
 376 0131 04       		.byte	0x4
 377 0132 4D       		.byte	0x4d
 378 0133 B4000000 		.4byte	0xb4
 379 0137 04       		.uleb128 0x4
 380 0138 7C030000 		.4byte	.LASF27
 381 013c 04       		.byte	0x4
 382 013d 4F       		.byte	0x4f
 383 013e BF000000 		.4byte	0xbf
 384 0142 04       		.uleb128 0x4
 385 0143 C8020000 		.4byte	.LASF28
 386 0147 04       		.byte	0x4
 387 0148 51       		.byte	0x51
 388 0149 B4000000 		.4byte	0xb4
 389 014d 04       		.uleb128 0x4
 390 014e 48030000 		.4byte	.LASF29
 391 0152 04       		.byte	0x4
ARM GAS  /tmp/cctuDh6q.s 			page 8


 392 0153 52       		.byte	0x52
 393 0154 BF000000 		.4byte	0xbf
 394 0158 04       		.uleb128 0x4
 395 0159 C8050000 		.4byte	.LASF30
 396 015d 05       		.byte	0x5
 397 015e 33       		.byte	0x33
 398 015f BF000000 		.4byte	0xbf
 399 0163 04       		.uleb128 0x4
 400 0164 B3050000 		.4byte	.LASF31
 401 0168 05       		.byte	0x5
 402 0169 3F       		.byte	0x3f
 403 016a 6E010000 		.4byte	0x16e
 404 016e 06       		.uleb128 0x6
 405 016f 33030000 		.4byte	.LASF53
 406 0173 60       		.byte	0x60
 407 0174 06       		.byte	0x6
 408 0175 C2       		.byte	0xc2
 409 0176 74020000 		.4byte	0x274
 410 017a 07       		.uleb128 0x7
 411 017b F0040000 		.4byte	.LASF32
 412 017f 06       		.byte	0x6
 413 0180 C3       		.byte	0xc3
 414 0181 7F020000 		.4byte	0x27f
 415 0185 00       		.byte	0
 416 0186 07       		.uleb128 0x7
 417 0187 92040000 		.4byte	.LASF33
 418 018b 06       		.byte	0x6
 419 018c C5       		.byte	0xc5
 420 018d 7F020000 		.4byte	0x27f
 421 0191 04       		.byte	0x4
 422 0192 07       		.uleb128 0x7
 423 0193 43010000 		.4byte	.LASF34
 424 0197 06       		.byte	0x6
 425 0198 C7       		.byte	0xc7
 426 0199 21010000 		.4byte	0x121
 427 019d 08       		.byte	0x8
 428 019e 07       		.uleb128 0x7
 429 019f BC060000 		.4byte	.LASF35
 430 01a3 06       		.byte	0x6
 431 01a4 C8       		.byte	0xc8
 432 01a5 E8040000 		.4byte	0x4e8
 433 01a9 0C       		.byte	0xc
 434 01aa 07       		.uleb128 0x7
 435 01ab 56020000 		.4byte	.LASF36
 436 01af 06       		.byte	0x6
 437 01b0 CA       		.byte	0xca
 438 01b1 7F020000 		.4byte	0x27f
 439 01b5 10       		.byte	0x10
 440 01b6 07       		.uleb128 0x7
 441 01b7 15040000 		.4byte	.LASF37
 442 01bb 06       		.byte	0x6
 443 01bc CB       		.byte	0xcb
 444 01bd 7F020000 		.4byte	0x27f
 445 01c1 14       		.byte	0x14
 446 01c2 07       		.uleb128 0x7
 447 01c3 6D060000 		.4byte	.LASF38
 448 01c7 06       		.byte	0x6
ARM GAS  /tmp/cctuDh6q.s 			page 9


 449 01c8 D2       		.byte	0xd2
 450 01c9 8C070000 		.4byte	0x78c
 451 01cd 18       		.byte	0x18
 452 01ce 07       		.uleb128 0x7
 453 01cf CE020000 		.4byte	.LASF39
 454 01d3 06       		.byte	0x6
 455 01d4 D8       		.byte	0xd8
 456 01d5 9E070000 		.4byte	0x79e
 457 01d9 1C       		.byte	0x1c
 458 01da 07       		.uleb128 0x7
 459 01db DA040000 		.4byte	.LASF40
 460 01df 06       		.byte	0x6
 461 01e0 DD       		.byte	0xdd
 462 01e1 0B010000 		.4byte	0x10b
 463 01e5 20       		.byte	0x20
 464 01e6 07       		.uleb128 0x7
 465 01e7 04050000 		.4byte	.LASF41
 466 01eb 06       		.byte	0x6
 467 01ec E1       		.byte	0xe1
 468 01ed 00010000 		.4byte	0x100
 469 01f1 21       		.byte	0x21
 470 01f2 07       		.uleb128 0x7
 471 01f3 49060000 		.4byte	.LASF42
 472 01f7 06       		.byte	0x6
 473 01f8 E6       		.byte	0xe6
 474 01f9 16010000 		.4byte	0x116
 475 01fd 22       		.byte	0x22
 476 01fe 08       		.uleb128 0x8
 477 01ff 705F7500 		.ascii	"p_u\000"
 478 0203 06       		.byte	0x6
 479 0204 3101     		.2byte	0x131
 480 0206 C7060000 		.4byte	0x6c7
 481 020a 24       		.byte	0x24
 482 020b 09       		.uleb128 0x9
 483 020c B7030000 		.4byte	.LASF43
 484 0210 06       		.byte	0x6
 485 0211 3601     		.2byte	0x136
 486 0213 85020000 		.4byte	0x285
 487 0217 28       		.byte	0x28
 488 0218 09       		.uleb128 0x9
 489 0219 F5020000 		.4byte	.LASF44
 490 021d 06       		.byte	0x6
 491 021e 3C01     		.2byte	0x13c
 492 0220 A9020000 		.4byte	0x2a9
 493 0224 2C       		.byte	0x2c
 494 0225 09       		.uleb128 0x9
 495 0226 90060000 		.4byte	.LASF45
 496 022a 06       		.byte	0x6
 497 022b 4001     		.2byte	0x140
 498 022d 2C010000 		.4byte	0x12c
 499 0231 34       		.byte	0x34
 500 0232 09       		.uleb128 0x9
 501 0233 45050000 		.4byte	.LASF46
 502 0237 06       		.byte	0x6
 503 0238 4601     		.2byte	0x146
 504 023a 37010000 		.4byte	0x137
 505 023e 38       		.byte	0x38
ARM GAS  /tmp/cctuDh6q.s 			page 10


 506 023f 09       		.uleb128 0x9
 507 0240 C6040000 		.4byte	.LASF47
 508 0244 06       		.byte	0x6
 509 0245 4D01     		.2byte	0x14d
 510 0247 86070000 		.4byte	0x786
 511 024b 3C       		.byte	0x3c
 512 024c 09       		.uleb128 0x9
 513 024d D2050000 		.4byte	.LASF48
 514 0251 06       		.byte	0x6
 515 0252 5101     		.2byte	0x151
 516 0254 21010000 		.4byte	0x121
 517 0258 40       		.byte	0x40
 518 0259 09       		.uleb128 0x9
 519 025a 69010000 		.4byte	.LASF49
 520 025e 06       		.byte	0x6
 521 025f 5801     		.2byte	0x158
 522 0261 5C030000 		.4byte	0x35c
 523 0265 44       		.byte	0x44
 524 0266 09       		.uleb128 0x9
 525 0267 15050000 		.4byte	.LASF50
 526 026b 06       		.byte	0x6
 527 026c 5E01     		.2byte	0x15e
 528 026e 78060000 		.4byte	0x678
 529 0272 48       		.byte	0x48
 530 0273 00       		.byte	0
 531 0274 04       		.uleb128 0x4
 532 0275 CA030000 		.4byte	.LASF51
 533 0279 05       		.byte	0x5
 534 027a 44       		.byte	0x44
 535 027b 7F020000 		.4byte	0x27f
 536 027f 0A       		.uleb128 0xa
 537 0280 04       		.byte	0x4
 538 0281 63010000 		.4byte	0x163
 539 0285 04       		.uleb128 0x4
 540 0286 74060000 		.4byte	.LASF52
 541 028a 05       		.byte	0x5
 542 028b 49       		.byte	0x49
 543 028c 90020000 		.4byte	0x290
 544 0290 06       		.uleb128 0x6
 545 0291 71050000 		.4byte	.LASF54
 546 0295 04       		.byte	0x4
 547 0296 06       		.byte	0x6
 548 0297 B0       		.byte	0xb0
 549 0298 A9020000 		.4byte	0x2a9
 550 029c 07       		.uleb128 0x7
 551 029d F0040000 		.4byte	.LASF32
 552 02a1 06       		.byte	0x6
 553 02a2 B1       		.byte	0xb1
 554 02a3 7F020000 		.4byte	0x27f
 555 02a7 00       		.byte	0
 556 02a8 00       		.byte	0
 557 02a9 04       		.uleb128 0x4
 558 02aa 30060000 		.4byte	.LASF55
 559 02ae 05       		.byte	0x5
 560 02af 50       		.byte	0x50
 561 02b0 B4020000 		.4byte	0x2b4
 562 02b4 06       		.uleb128 0x6
ARM GAS  /tmp/cctuDh6q.s 			page 11


 563 02b5 7F000000 		.4byte	.LASF56
 564 02b9 08       		.byte	0x8
 565 02ba 06       		.byte	0x6
 566 02bb B7       		.byte	0xb7
 567 02bc D9020000 		.4byte	0x2d9
 568 02c0 07       		.uleb128 0x7
 569 02c1 F0040000 		.4byte	.LASF32
 570 02c5 06       		.byte	0x6
 571 02c6 B8       		.byte	0xb8
 572 02c7 7F020000 		.4byte	0x27f
 573 02cb 00       		.byte	0
 574 02cc 07       		.uleb128 0x7
 575 02cd 92040000 		.4byte	.LASF33
 576 02d1 06       		.byte	0x6
 577 02d2 B9       		.byte	0xb9
 578 02d3 7F020000 		.4byte	0x27f
 579 02d7 04       		.byte	0x4
 580 02d8 00       		.byte	0
 581 02d9 04       		.uleb128 0x4
 582 02da 07000000 		.4byte	.LASF57
 583 02de 05       		.byte	0x5
 584 02df 57       		.byte	0x57
 585 02e0 E4020000 		.4byte	0x2e4
 586 02e4 0B       		.uleb128 0xb
 587 02e5 6E030000 		.4byte	.LASF58
 588 02e9 1C       		.byte	0x1c
 589 02ea 06       		.byte	0x6
 590 02eb 9001     		.2byte	0x190
 591 02ed 40030000 		.4byte	0x340
 592 02f1 09       		.uleb128 0x9
 593 02f2 60050000 		.4byte	.LASF59
 594 02f6 06       		.byte	0x6
 595 02f7 9101     		.2byte	0x191
 596 02f9 A9020000 		.4byte	0x2a9
 597 02fd 00       		.byte	0
 598 02fe 09       		.uleb128 0x9
 599 02ff E2040000 		.4byte	.LASF60
 600 0303 06       		.byte	0x6
 601 0304 9201     		.2byte	0x192
 602 0306 21010000 		.4byte	0x121
 603 030a 08       		.byte	0x8
 604 030b 09       		.uleb128 0x9
 605 030c 1D040000 		.4byte	.LASF61
 606 0310 06       		.byte	0x6
 607 0311 9401     		.2byte	0x194
 608 0313 E8040000 		.4byte	0x4e8
 609 0317 0C       		.byte	0xc
 610 0318 09       		.uleb128 0x9
 611 0319 76020000 		.4byte	.LASF62
 612 031d 06       		.byte	0x6
 613 031e 9701     		.2byte	0x197
 614 0320 7F020000 		.4byte	0x27f
 615 0324 10       		.byte	0x10
 616 0325 09       		.uleb128 0x9
 617 0326 3E040000 		.4byte	.LASF63
 618 032a 06       		.byte	0x6
 619 032b 9801     		.2byte	0x198
ARM GAS  /tmp/cctuDh6q.s 			page 12


 620 032d 7F020000 		.4byte	0x27f
 621 0331 14       		.byte	0x14
 622 0332 09       		.uleb128 0x9
 623 0333 34040000 		.4byte	.LASF64
 624 0337 06       		.byte	0x6
 625 0338 9B01     		.2byte	0x19b
 626 033a 7F020000 		.4byte	0x27f
 627 033e 18       		.byte	0x18
 628 033f 00       		.byte	0
 629 0340 04       		.uleb128 0x4
 630 0341 DD050000 		.4byte	.LASF65
 631 0345 05       		.byte	0x5
 632 0346 5C       		.byte	0x5c
 633 0347 4B030000 		.4byte	0x34b
 634 034b 0A       		.uleb128 0xa
 635 034c 04       		.byte	0x4
 636 034d 51030000 		.4byte	0x351
 637 0351 0C       		.uleb128 0xc
 638 0352 5C030000 		.4byte	0x35c
 639 0356 0D       		.uleb128 0xd
 640 0357 5C030000 		.4byte	0x35c
 641 035b 00       		.byte	0
 642 035c 0E       		.uleb128 0xe
 643 035d 04       		.byte	0x4
 644 035e 04       		.uleb128 0x4
 645 035f 82040000 		.4byte	.LASF66
 646 0363 05       		.byte	0x5
 647 0364 61       		.byte	0x61
 648 0365 69030000 		.4byte	0x369
 649 0369 0B       		.uleb128 0xb
 650 036a 27050000 		.4byte	.LASF67
 651 036e 14       		.byte	0x14
 652 036f 06       		.byte	0x6
 653 0370 6B01     		.2byte	0x16b
 654 0372 B8030000 		.4byte	0x3b8
 655 0376 09       		.uleb128 0x9
 656 0377 E6020000 		.4byte	.LASF68
 657 037b 06       		.byte	0x6
 658 037c 6C01     		.2byte	0x16c
 659 037e A4070000 		.4byte	0x7a4
 660 0382 00       		.byte	0
 661 0383 09       		.uleb128 0x9
 662 0384 8C020000 		.4byte	.LASF69
 663 0388 06       		.byte	0x6
 664 0389 6D01     		.2byte	0x16d
 665 038b A4070000 		.4byte	0x7a4
 666 038f 04       		.byte	0x4
 667 0390 09       		.uleb128 0x9
 668 0391 68050000 		.4byte	.LASF70
 669 0395 06       		.byte	0x6
 670 0396 6E01     		.2byte	0x16e
 671 0398 58010000 		.4byte	0x158
 672 039c 08       		.byte	0x8
 673 039d 09       		.uleb128 0x9
 674 039e C2060000 		.4byte	.LASF71
 675 03a2 06       		.byte	0x6
 676 03a3 6F01     		.2byte	0x16f
ARM GAS  /tmp/cctuDh6q.s 			page 13


 677 03a5 40030000 		.4byte	0x340
 678 03a9 0C       		.byte	0xc
 679 03aa 09       		.uleb128 0x9
 680 03ab 1D060000 		.4byte	.LASF72
 681 03af 06       		.byte	0x6
 682 03b0 7101     		.2byte	0x171
 683 03b2 5C030000 		.4byte	0x35c
 684 03b6 10       		.byte	0x10
 685 03b7 00       		.byte	0
 686 03b8 04       		.uleb128 0x4
 687 03b9 17010000 		.4byte	.LASF73
 688 03bd 05       		.byte	0x5
 689 03be 66       		.byte	0x66
 690 03bf C3030000 		.4byte	0x3c3
 691 03c3 0B       		.uleb128 0xb
 692 03c4 DD030000 		.4byte	.LASF74
 693 03c8 10       		.byte	0x10
 694 03c9 06       		.byte	0x6
 695 03ca 7B01     		.2byte	0x17b
 696 03cc 05040000 		.4byte	0x405
 697 03d0 09       		.uleb128 0x9
 698 03d1 E6020000 		.4byte	.LASF68
 699 03d5 06       		.byte	0x6
 700 03d6 7C01     		.2byte	0x17c
 701 03d8 A4070000 		.4byte	0x7a4
 702 03dc 00       		.byte	0
 703 03dd 09       		.uleb128 0x9
 704 03de 8C020000 		.4byte	.LASF69
 705 03e2 06       		.byte	0x6
 706 03e3 7E01     		.2byte	0x17e
 707 03e5 A4070000 		.4byte	0x7a4
 708 03e9 04       		.byte	0x4
 709 03ea 09       		.uleb128 0x9
 710 03eb 68050000 		.4byte	.LASF70
 711 03ef 06       		.byte	0x6
 712 03f0 8001     		.2byte	0x180
 713 03f2 58010000 		.4byte	0x158
 714 03f6 08       		.byte	0x8
 715 03f7 09       		.uleb128 0x9
 716 03f8 09040000 		.4byte	.LASF75
 717 03fc 06       		.byte	0x6
 718 03fd 8801     		.2byte	0x188
 719 03ff 58010000 		.4byte	0x158
 720 0403 0C       		.byte	0xc
 721 0404 00       		.byte	0
 722 0405 04       		.uleb128 0x4
 723 0406 90000000 		.4byte	.LASF76
 724 040a 05       		.byte	0x5
 725 040b 6B       		.byte	0x6b
 726 040c 10040000 		.4byte	0x410
 727 0410 0F       		.uleb128 0xf
 728 0411 94020000 		.4byte	.LASF77
 729 0415 1404     		.2byte	0x414
 730 0417 06       		.byte	0x6
 731 0418 A201     		.2byte	0x1a2
 732 041a 53040000 		.4byte	0x453
 733 041e 09       		.uleb128 0x9
ARM GAS  /tmp/cctuDh6q.s 			page 14


 734 041f F1050000 		.4byte	.LASF78
 735 0423 06       		.byte	0x6
 736 0424 AA01     		.2byte	0x1aa
 737 0426 AA070000 		.4byte	0x7aa
 738 042a 00       		.byte	0
 739 042b 09       		.uleb128 0x9
 740 042c 50060000 		.4byte	.LASF79
 741 0430 06       		.byte	0x6
 742 0431 AF01     		.2byte	0x1af
 743 0433 42010000 		.4byte	0x142
 744 0437 04       		.byte	0x4
 745 0438 09       		.uleb128 0x9
 746 0439 B9020000 		.4byte	.LASF80
 747 043d 06       		.byte	0x6
 748 043e B301     		.2byte	0x1b3
 749 0440 42010000 		.4byte	0x142
 750 0444 08       		.byte	0x8
 751 0445 09       		.uleb128 0x9
 752 0446 83060000 		.4byte	.LASF81
 753 044a 06       		.byte	0x6
 754 044b B901     		.2byte	0x1b9
 755 044d 0A060000 		.4byte	0x60a
 756 0451 0C       		.byte	0xc
 757 0452 00       		.byte	0
 758 0453 04       		.uleb128 0x4
 759 0454 4F030000 		.4byte	.LASF82
 760 0458 05       		.byte	0x5
 761 0459 70       		.byte	0x70
 762 045a 5E040000 		.4byte	0x45e
 763 045e 0F       		.uleb128 0xf
 764 045f 1D050000 		.4byte	.LASF83
 765 0463 D805     		.2byte	0x5d8
 766 0465 06       		.byte	0x6
 767 0466 C201     		.2byte	0x1c2
 768 0468 CB040000 		.4byte	0x4cb
 769 046c 09       		.uleb128 0x9
 770 046d 58060000 		.4byte	.LASF84
 771 0471 06       		.byte	0x6
 772 0472 C601     		.2byte	0x1c6
 773 0474 D9020000 		.4byte	0x2d9
 774 0478 00       		.byte	0
 775 0479 09       		.uleb128 0x9
 776 047a 79010000 		.4byte	.LASF85
 777 047e 06       		.byte	0x6
 778 047f CA01     		.2byte	0x1ca
 779 0481 B8030000 		.4byte	0x3b8
 780 0485 1C       		.byte	0x1c
 781 0486 08       		.uleb128 0x8
 782 0487 64626700 		.ascii	"dbg\000"
 783 048b 06       		.byte	0x6
 784 048c CE01     		.2byte	0x1ce
 785 048e 05040000 		.4byte	0x405
 786 0492 2C       		.byte	0x2c
 787 0493 10       		.uleb128 0x10
 788 0494 0C010000 		.4byte	.LASF86
 789 0498 06       		.byte	0x6
 790 0499 D201     		.2byte	0x1d2
ARM GAS  /tmp/cctuDh6q.s 			page 15


 791 049b 63010000 		.4byte	0x163
 792 049f 4004     		.2byte	0x440
 793 04a1 11       		.uleb128 0x11
 794 04a2 746D00   		.ascii	"tm\000"
 795 04a5 06       		.byte	0x6
 796 04a6 D701     		.2byte	0x1d7
 797 04a8 2A060000 		.4byte	0x62a
 798 04ac A004     		.2byte	0x4a0
 799 04ae 10       		.uleb128 0x10
 800 04af 55000000 		.4byte	.LASF87
 801 04b3 06       		.byte	0x6
 802 04b4 DD01     		.2byte	0x1dd
 803 04b6 BC060000 		.4byte	0x6bc
 804 04ba A804     		.2byte	0x4a8
 805 04bc 10       		.uleb128 0x10
 806 04bd 92030000 		.4byte	.LASF88
 807 04c1 06       		.byte	0x6
 808 04c2 E301     		.2byte	0x1e3
 809 04c4 AF070000 		.4byte	0x7af
 810 04c8 E004     		.2byte	0x4e0
 811 04ca 00       		.byte	0
 812 04cb 03       		.uleb128 0x3
 813 04cc 04       		.byte	0x4
 814 04cd 07       		.byte	0x7
 815 04ce C1030000 		.4byte	.LASF89
 816 04d2 04       		.uleb128 0x4
 817 04d3 83020000 		.4byte	.LASF90
 818 04d7 07       		.byte	0x7
 819 04d8 65       		.byte	0x65
 820 04d9 5C030000 		.4byte	0x35c
 821 04dd 04       		.uleb128 0x4
 822 04de A1030000 		.4byte	.LASF91
 823 04e2 07       		.byte	0x7
 824 04e3 6D       		.byte	0x6d
 825 04e4 CA000000 		.4byte	0xca
 826 04e8 06       		.uleb128 0x6
 827 04e9 0D060000 		.4byte	.LASF92
 828 04ed 04       		.byte	0x4
 829 04ee 07       		.byte	0x7
 830 04ef 89       		.byte	0x89
 831 04f0 01050000 		.4byte	0x501
 832 04f4 12       		.uleb128 0x12
 833 04f5 72313300 		.ascii	"r13\000"
 834 04f9 07       		.byte	0x7
 835 04fa 8A       		.byte	0x8a
 836 04fb 7C050000 		.4byte	0x57c
 837 04ff 00       		.byte	0
 838 0500 00       		.byte	0
 839 0501 06       		.uleb128 0x6
 840 0502 73000000 		.4byte	.LASF93
 841 0506 24       		.byte	0x24
 842 0507 08       		.byte	0x8
 843 0508 FD       		.byte	0xfd
 844 0509 7C050000 		.4byte	0x57c
 845 050d 08       		.uleb128 0x8
 846 050e 723400   		.ascii	"r4\000"
 847 0511 08       		.byte	0x8
ARM GAS  /tmp/cctuDh6q.s 			page 16


 848 0512 1001     		.2byte	0x110
 849 0514 D2040000 		.4byte	0x4d2
 850 0518 00       		.byte	0
 851 0519 08       		.uleb128 0x8
 852 051a 723500   		.ascii	"r5\000"
 853 051d 08       		.byte	0x8
 854 051e 1101     		.2byte	0x111
 855 0520 D2040000 		.4byte	0x4d2
 856 0524 04       		.byte	0x4
 857 0525 08       		.uleb128 0x8
 858 0526 723600   		.ascii	"r6\000"
 859 0529 08       		.byte	0x8
 860 052a 1201     		.2byte	0x112
 861 052c D2040000 		.4byte	0x4d2
 862 0530 08       		.byte	0x8
 863 0531 08       		.uleb128 0x8
 864 0532 723700   		.ascii	"r7\000"
 865 0535 08       		.byte	0x8
 866 0536 1301     		.2byte	0x113
 867 0538 D2040000 		.4byte	0x4d2
 868 053c 0C       		.byte	0xc
 869 053d 08       		.uleb128 0x8
 870 053e 723800   		.ascii	"r8\000"
 871 0541 08       		.byte	0x8
 872 0542 1401     		.2byte	0x114
 873 0544 D2040000 		.4byte	0x4d2
 874 0548 10       		.byte	0x10
 875 0549 08       		.uleb128 0x8
 876 054a 723900   		.ascii	"r9\000"
 877 054d 08       		.byte	0x8
 878 054e 1501     		.2byte	0x115
 879 0550 D2040000 		.4byte	0x4d2
 880 0554 14       		.byte	0x14
 881 0555 08       		.uleb128 0x8
 882 0556 72313000 		.ascii	"r10\000"
 883 055a 08       		.byte	0x8
 884 055b 1601     		.2byte	0x116
 885 055d D2040000 		.4byte	0x4d2
 886 0561 18       		.byte	0x18
 887 0562 08       		.uleb128 0x8
 888 0563 72313100 		.ascii	"r11\000"
 889 0567 08       		.byte	0x8
 890 0568 1701     		.2byte	0x117
 891 056a D2040000 		.4byte	0x4d2
 892 056e 1C       		.byte	0x1c
 893 056f 08       		.uleb128 0x8
 894 0570 6C7200   		.ascii	"lr\000"
 895 0573 08       		.byte	0x8
 896 0574 1801     		.2byte	0x118
 897 0576 D2040000 		.4byte	0x4d2
 898 057a 20       		.byte	0x20
 899 057b 00       		.byte	0
 900 057c 0A       		.uleb128 0xa
 901 057d 04       		.byte	0x4
 902 057e 01050000 		.4byte	0x501
 903 0582 13       		.uleb128 0x13
 904 0583 10       		.byte	0x10
ARM GAS  /tmp/cctuDh6q.s 			page 17


 905 0584 09       		.byte	0x9
 906 0585 51       		.byte	0x51
 907 0586 BB050000 		.4byte	0x5bb
 908 058a 07       		.uleb128 0x7
 909 058b 14000000 		.4byte	.LASF94
 910 058f 09       		.byte	0x9
 911 0590 55       		.byte	0x55
 912 0591 58010000 		.4byte	0x158
 913 0595 00       		.byte	0
 914 0596 07       		.uleb128 0x7
 915 0597 97010000 		.4byte	.LASF95
 916 059b 09       		.byte	0x9
 917 059c 59       		.byte	0x59
 918 059d 7F020000 		.4byte	0x27f
 919 05a1 04       		.byte	0x4
 920 05a2 07       		.uleb128 0x7
 921 05a3 B2060000 		.4byte	.LASF96
 922 05a7 09       		.byte	0x9
 923 05a8 5D       		.byte	0x5d
 924 05a9 5C030000 		.4byte	0x35c
 925 05ad 08       		.byte	0x8
 926 05ae 07       		.uleb128 0x7
 927 05af F4000000 		.4byte	.LASF97
 928 05b3 09       		.byte	0x9
 929 05b4 61       		.byte	0x61
 930 05b5 9E000000 		.4byte	0x9e
 931 05b9 0C       		.byte	0xc
 932 05ba 00       		.byte	0
 933 05bb 04       		.uleb128 0x4
 934 05bc FA030000 		.4byte	.LASF98
 935 05c0 09       		.byte	0x9
 936 05c1 62       		.byte	0x62
 937 05c2 82050000 		.4byte	0x582
 938 05c6 14       		.uleb128 0x14
 939 05c7 0804     		.2byte	0x408
 940 05c9 09       		.byte	0x9
 941 05ca 67       		.byte	0x67
 942 05cb F4050000 		.4byte	0x5f4
 943 05cf 07       		.uleb128 0x7
 944 05d0 66020000 		.4byte	.LASF99
 945 05d4 09       		.byte	0x9
 946 05d5 6B       		.byte	0x6b
 947 05d6 28000000 		.4byte	0x28
 948 05da 00       		.byte	0
 949 05db 07       		.uleb128 0x7
 950 05dc 00000000 		.4byte	.LASF100
 951 05e0 09       		.byte	0x9
 952 05e1 6F       		.byte	0x6f
 953 05e2 F4050000 		.4byte	0x5f4
 954 05e6 04       		.byte	0x4
 955 05e7 07       		.uleb128 0x7
 956 05e8 78040000 		.4byte	.LASF101
 957 05ec 09       		.byte	0x9
 958 05ed 73       		.byte	0x73
 959 05ee FA050000 		.4byte	0x5fa
 960 05f2 08       		.byte	0x8
 961 05f3 00       		.byte	0
ARM GAS  /tmp/cctuDh6q.s 			page 18


 962 05f4 0A       		.uleb128 0xa
 963 05f5 04       		.byte	0x4
 964 05f6 BB050000 		.4byte	0x5bb
 965 05fa 15       		.uleb128 0x15
 966 05fb BB050000 		.4byte	0x5bb
 967 05ff 0A060000 		.4byte	0x60a
 968 0603 16       		.uleb128 0x16
 969 0604 CB040000 		.4byte	0x4cb
 970 0608 3F       		.byte	0x3f
 971 0609 00       		.byte	0
 972 060a 04       		.uleb128 0x4
 973 060b E2000000 		.4byte	.LASF102
 974 060f 09       		.byte	0x9
 975 0610 74       		.byte	0x74
 976 0611 C6050000 		.4byte	0x5c6
 977 0615 13       		.uleb128 0x13
 978 0616 04       		.byte	0x4
 979 0617 0A       		.byte	0xa
 980 0618 38       		.byte	0x38
 981 0619 2A060000 		.4byte	0x62a
 982 061d 07       		.uleb128 0x7
 983 061e FB050000 		.4byte	.LASF103
 984 0622 0A       		.byte	0xa
 985 0623 3C       		.byte	0x3c
 986 0624 EA000000 		.4byte	0xea
 987 0628 00       		.byte	0
 988 0629 00       		.byte	0
 989 062a 04       		.uleb128 0x4
 990 062b 23040000 		.4byte	.LASF104
 991 062f 0A       		.byte	0xa
 992 0630 3D       		.byte	0x3d
 993 0631 15060000 		.4byte	0x615
 994 0635 13       		.uleb128 0x13
 995 0636 18       		.byte	0x18
 996 0637 0A       		.byte	0xa
 997 0638 48       		.byte	0x48
 998 0639 78060000 		.4byte	0x678
 999 063d 07       		.uleb128 0x7
 1000 063e BC050000 		.4byte	.LASF105
 1001 0642 0A       		.byte	0xa
 1002 0643 49       		.byte	0x49
 1003 0644 EA000000 		.4byte	0xea
 1004 0648 00       		.byte	0
 1005 0649 07       		.uleb128 0x7
 1006 064a AC000000 		.4byte	.LASF106
 1007 064e 0A       		.byte	0xa
 1008 064f 4A       		.byte	0x4a
 1009 0650 EA000000 		.4byte	0xea
 1010 0654 04       		.byte	0x4
 1011 0655 07       		.uleb128 0x7
 1012 0656 43030000 		.4byte	.LASF107
 1013 065a 0A       		.byte	0xa
 1014 065b 4B       		.byte	0x4b
 1015 065c EA000000 		.4byte	0xea
 1016 0660 08       		.byte	0x8
 1017 0661 12       		.uleb128 0x12
 1018 0662 6E00     		.ascii	"n\000"
ARM GAS  /tmp/cctuDh6q.s 			page 19


 1019 0664 0A       		.byte	0xa
 1020 0665 4C       		.byte	0x4c
 1021 0666 4D010000 		.4byte	0x14d
 1022 066a 0C       		.byte	0xc
 1023 066b 07       		.uleb128 0x7
 1024 066c 52040000 		.4byte	.LASF108
 1025 0670 0A       		.byte	0xa
 1026 0671 4D       		.byte	0x4d
 1027 0672 F5000000 		.4byte	0xf5
 1028 0676 10       		.byte	0x10
 1029 0677 00       		.byte	0
 1030 0678 04       		.uleb128 0x4
 1031 0679 B2000000 		.4byte	.LASF109
 1032 067d 0A       		.byte	0xa
 1033 067e 4E       		.byte	0x4e
 1034 067f 35060000 		.4byte	0x635
 1035 0683 13       		.uleb128 0x13
 1036 0684 38       		.byte	0x38
 1037 0685 0B       		.byte	0xb
 1038 0686 38       		.byte	0x38
 1039 0687 BC060000 		.4byte	0x6bc
 1040 068b 07       		.uleb128 0x7
 1041 068c 05030000 		.4byte	.LASF110
 1042 0690 0B       		.byte	0xb
 1043 0691 39       		.byte	0x39
 1044 0692 4D010000 		.4byte	0x14d
 1045 0696 00       		.byte	0
 1046 0697 07       		.uleb128 0x7
 1047 0698 A1040000 		.4byte	.LASF111
 1048 069c 0B       		.byte	0xb
 1049 069d 3A       		.byte	0x3a
 1050 069e 4D010000 		.4byte	0x14d
 1051 06a2 04       		.byte	0x4
 1052 06a3 07       		.uleb128 0x7
 1053 06a4 9F060000 		.4byte	.LASF112
 1054 06a8 0B       		.byte	0xb
 1055 06a9 3B       		.byte	0x3b
 1056 06aa 78060000 		.4byte	0x678
 1057 06ae 08       		.byte	0x8
 1058 06af 07       		.uleb128 0x7
 1059 06b0 63030000 		.4byte	.LASF113
 1060 06b4 0B       		.byte	0xb
 1061 06b5 3D       		.byte	0x3d
 1062 06b6 78060000 		.4byte	0x678
 1063 06ba 20       		.byte	0x20
 1064 06bb 00       		.byte	0
 1065 06bc 04       		.uleb128 0x4
 1066 06bd 24030000 		.4byte	.LASF114
 1067 06c1 0B       		.byte	0xb
 1068 06c2 3F       		.byte	0x3f
 1069 06c3 83060000 		.4byte	0x683
 1070 06c7 17       		.uleb128 0x17
 1071 06c8 04       		.byte	0x4
 1072 06c9 06       		.byte	0x6
 1073 06ca FA       		.byte	0xfa
 1074 06cb 24070000 		.4byte	0x724
 1075 06cf 18       		.uleb128 0x18
ARM GAS  /tmp/cctuDh6q.s 			page 20


 1076 06d0 45000000 		.4byte	.LASF115
 1077 06d4 06       		.byte	0x6
 1078 06d5 0101     		.2byte	0x101
 1079 06d7 2C010000 		.4byte	0x12c
 1080 06db 18       		.uleb128 0x18
 1081 06dc 03010000 		.4byte	.LASF116
 1082 06e0 06       		.byte	0x6
 1083 06e1 0801     		.2byte	0x108
 1084 06e3 2C010000 		.4byte	0x12c
 1085 06e7 18       		.uleb128 0x18
 1086 06e8 66060000 		.4byte	.LASF117
 1087 06ec 06       		.byte	0x6
 1088 06ed 0F01     		.2byte	0x10f
 1089 06ef 5C030000 		.4byte	0x35c
 1090 06f3 18       		.uleb128 0x18
 1091 06f4 3F000000 		.4byte	.LASF118
 1092 06f8 06       		.byte	0x6
 1093 06f9 1601     		.2byte	0x116
 1094 06fb 24070000 		.4byte	0x724
 1095 06ff 18       		.uleb128 0x18
 1096 0700 EE020000 		.4byte	.LASF119
 1097 0704 06       		.byte	0x6
 1098 0705 1E01     		.2byte	0x11e
 1099 0707 4F070000 		.4byte	0x74f
 1100 070b 18       		.uleb128 0x18
 1101 070c 59050000 		.4byte	.LASF120
 1102 0710 06       		.byte	0x6
 1103 0711 2701     		.2byte	0x127
 1104 0713 86070000 		.4byte	0x786
 1105 0717 18       		.uleb128 0x18
 1106 0718 E9040000 		.4byte	.LASF121
 1107 071c 06       		.byte	0x6
 1108 071d 2F01     		.2byte	0x12f
 1109 071f 37010000 		.4byte	0x137
 1110 0723 00       		.byte	0
 1111 0724 0A       		.uleb128 0xa
 1112 0725 04       		.byte	0x4
 1113 0726 74020000 		.4byte	0x274
 1114 072a 06       		.uleb128 0x6
 1115 072b 38050000 		.4byte	.LASF122
 1116 072f 0C       		.byte	0xc
 1117 0730 0C       		.byte	0xc
 1118 0731 34       		.byte	0x34
 1119 0732 4F070000 		.4byte	0x74f
 1120 0736 07       		.uleb128 0x7
 1121 0737 5E020000 		.4byte	.LASF123
 1122 073b 0C       		.byte	0xc
 1123 073c 35       		.byte	0x35
 1124 073d A9020000 		.4byte	0x2a9
 1125 0741 00       		.byte	0
 1126 0742 07       		.uleb128 0x7
 1127 0743 0B030000 		.4byte	.LASF124
 1128 0747 0C       		.byte	0xc
 1129 0748 37       		.byte	0x37
 1130 0749 42010000 		.4byte	0x142
 1131 074d 08       		.byte	0x8
 1132 074e 00       		.byte	0
ARM GAS  /tmp/cctuDh6q.s 			page 21


 1133 074f 0A       		.uleb128 0xa
 1134 0750 04       		.byte	0x4
 1135 0751 2A070000 		.4byte	0x72a
 1136 0755 06       		.uleb128 0x6
 1137 0756 40060000 		.4byte	.LASF125
 1138 075a 10       		.byte	0x10
 1139 075b 0D       		.byte	0xd
 1140 075c 39       		.byte	0x39
 1141 075d 86070000 		.4byte	0x786
 1142 0761 07       		.uleb128 0x7
 1143 0762 71010000 		.4byte	.LASF126
 1144 0766 0D       		.byte	0xd
 1145 0767 3A       		.byte	0x3a
 1146 0768 A9020000 		.4byte	0x2a9
 1147 076c 00       		.byte	0
 1148 076d 07       		.uleb128 0x7
 1149 076e AA060000 		.4byte	.LASF127
 1150 0772 0D       		.byte	0xd
 1151 0773 3C       		.byte	0x3c
 1152 0774 7F020000 		.4byte	0x27f
 1153 0778 08       		.byte	0x8
 1154 0779 07       		.uleb128 0x7
 1155 077a C1050000 		.4byte	.LASF128
 1156 077e 0D       		.byte	0xd
 1157 077f 3E       		.byte	0x3e
 1158 0780 CA070000 		.4byte	0x7ca
 1159 0784 0C       		.byte	0xc
 1160 0785 00       		.byte	0
 1161 0786 0A       		.uleb128 0xa
 1162 0787 04       		.byte	0x4
 1163 0788 55070000 		.4byte	0x755
 1164 078c 0A       		.uleb128 0xa
 1165 078d 04       		.byte	0x4
 1166 078e 92070000 		.4byte	0x792
 1167 0792 19       		.uleb128 0x19
 1168 0793 97070000 		.4byte	0x797
 1169 0797 03       		.uleb128 0x3
 1170 0798 01       		.byte	0x1
 1171 0799 08       		.byte	0x8
 1172 079a 93050000 		.4byte	.LASF129
 1173 079e 0A       		.uleb128 0xa
 1174 079f 04       		.byte	0x4
 1175 07a0 DD040000 		.4byte	0x4dd
 1176 07a4 0A       		.uleb128 0xa
 1177 07a5 04       		.byte	0x4
 1178 07a6 5E030000 		.4byte	0x35e
 1179 07aa 05       		.uleb128 0x5
 1180 07ab 8C070000 		.4byte	0x78c
 1181 07af 15       		.uleb128 0x15
 1182 07b0 DD040000 		.4byte	0x4dd
 1183 07b4 BF070000 		.4byte	0x7bf
 1184 07b8 16       		.uleb128 0x16
 1185 07b9 CB040000 		.4byte	0x4cb
 1186 07bd 1E       		.byte	0x1e
 1187 07be 00       		.byte	0
 1188 07bf 04       		.uleb128 0x4
 1189 07c0 B1020000 		.4byte	.LASF130
ARM GAS  /tmp/cctuDh6q.s 			page 22


 1190 07c4 0D       		.byte	0xd
 1191 07c5 34       		.byte	0x34
 1192 07c6 55070000 		.4byte	0x755
 1193 07ca 0A       		.uleb128 0xa
 1194 07cb 04       		.byte	0x4
 1195 07cc BF070000 		.4byte	0x7bf
 1196 07d0 03       		.uleb128 0x3
 1197 07d1 01       		.byte	0x1
 1198 07d2 02       		.byte	0x2
 1199 07d3 AA040000 		.4byte	.LASF131
 1200 07d7 13       		.uleb128 0x13
 1201 07d8 04       		.byte	0x4
 1202 07d9 0E       		.byte	0xe
 1203 07da B7       		.byte	0xb7
 1204 07db F8070000 		.4byte	0x7f8
 1205 07df 12       		.uleb128 0x12
 1206 07e0 73657400 		.ascii	"set\000"
 1207 07e4 0E       		.byte	0xe
 1208 07e5 B8       		.byte	0xb8
 1209 07e6 A9000000 		.4byte	0xa9
 1210 07ea 00       		.byte	0
 1211 07eb 07       		.uleb128 0x7
 1212 07ec F4030000 		.4byte	.LASF132
 1213 07f0 0E       		.byte	0xe
 1214 07f1 B9       		.byte	0xb9
 1215 07f2 A9000000 		.4byte	0xa9
 1216 07f6 02       		.byte	0x2
 1217 07f7 00       		.byte	0
 1218 07f8 17       		.uleb128 0x17
 1219 07f9 04       		.byte	0x4
 1220 07fa 0E       		.byte	0xe
 1221 07fb B5       		.byte	0xb5
 1222 07fc 13080000 		.4byte	0x813
 1223 0800 1A       		.uleb128 0x1a
 1224 0801 5700     		.ascii	"W\000"
 1225 0803 0E       		.byte	0xe
 1226 0804 B6       		.byte	0xb6
 1227 0805 BF000000 		.4byte	0xbf
 1228 0809 1A       		.uleb128 0x1a
 1229 080a 4800     		.ascii	"H\000"
 1230 080c 0E       		.byte	0xe
 1231 080d BA       		.byte	0xba
 1232 080e D7070000 		.4byte	0x7d7
 1233 0812 00       		.byte	0
 1234 0813 13       		.uleb128 0x13
 1235 0814 2C       		.byte	0x2c
 1236 0815 0E       		.byte	0xe
 1237 0816 AD       		.byte	0xad
 1238 0817 A0080000 		.4byte	0x8a0
 1239 081b 07       		.uleb128 0x7
 1240 081c C5000000 		.4byte	.LASF133
 1241 0820 0E       		.byte	0xe
 1242 0821 AF       		.byte	0xaf
 1243 0822 E5000000 		.4byte	0xe5
 1244 0826 00       		.byte	0
 1245 0827 07       		.uleb128 0x7
 1246 0828 6C000000 		.4byte	.LASF134
ARM GAS  /tmp/cctuDh6q.s 			page 23


 1247 082c 0E       		.byte	0xe
 1248 082d B0       		.byte	0xb0
 1249 082e E5000000 		.4byte	0xe5
 1250 0832 04       		.byte	0x4
 1251 0833 07       		.uleb128 0x7
 1252 0834 6E020000 		.4byte	.LASF135
 1253 0838 0E       		.byte	0xe
 1254 0839 B1       		.byte	0xb1
 1255 083a E5000000 		.4byte	0xe5
 1256 083e 08       		.byte	0x8
 1257 083f 07       		.uleb128 0x7
 1258 0840 FD000000 		.4byte	.LASF136
 1259 0844 0E       		.byte	0xe
 1260 0845 B2       		.byte	0xb2
 1261 0846 E5000000 		.4byte	0xe5
 1262 084a 0C       		.byte	0xc
 1263 084b 12       		.uleb128 0x12
 1264 084c 49445200 		.ascii	"IDR\000"
 1265 0850 0E       		.byte	0xe
 1266 0851 B3       		.byte	0xb3
 1267 0852 E5000000 		.4byte	0xe5
 1268 0856 10       		.byte	0x10
 1269 0857 12       		.uleb128 0x12
 1270 0858 4F445200 		.ascii	"ODR\000"
 1271 085c 0E       		.byte	0xe
 1272 085d B4       		.byte	0xb4
 1273 085e E5000000 		.4byte	0xe5
 1274 0862 14       		.byte	0x14
 1275 0863 07       		.uleb128 0x7
 1276 0864 64010000 		.4byte	.LASF137
 1277 0868 0E       		.byte	0xe
 1278 0869 BB       		.byte	0xbb
 1279 086a A0080000 		.4byte	0x8a0
 1280 086e 18       		.byte	0x18
 1281 086f 07       		.uleb128 0x7
 1282 0870 00030000 		.4byte	.LASF138
 1283 0874 0E       		.byte	0xe
 1284 0875 BC       		.byte	0xbc
 1285 0876 E5000000 		.4byte	0xe5
 1286 087a 1C       		.byte	0x1c
 1287 087b 07       		.uleb128 0x7
 1288 087c 6B040000 		.4byte	.LASF139
 1289 0880 0E       		.byte	0xe
 1290 0881 BD       		.byte	0xbd
 1291 0882 E5000000 		.4byte	0xe5
 1292 0886 20       		.byte	0x20
 1293 0887 07       		.uleb128 0x7
 1294 0888 4D040000 		.4byte	.LASF140
 1295 088c 0E       		.byte	0xe
 1296 088d BE       		.byte	0xbe
 1297 088e E5000000 		.4byte	0xe5
 1298 0892 24       		.byte	0x24
 1299 0893 12       		.uleb128 0x12
 1300 0894 42525200 		.ascii	"BRR\000"
 1301 0898 0E       		.byte	0xe
 1302 0899 BF       		.byte	0xbf
 1303 089a E5000000 		.4byte	0xe5
ARM GAS  /tmp/cctuDh6q.s 			page 24


 1304 089e 28       		.byte	0x28
 1305 089f 00       		.byte	0
 1306 08a0 05       		.uleb128 0x5
 1307 08a1 F8070000 		.4byte	0x7f8
 1308 08a5 04       		.uleb128 0x4
 1309 08a6 A4020000 		.4byte	.LASF141
 1310 08aa 0E       		.byte	0xe
 1311 08ab C0       		.byte	0xc0
 1312 08ac 13080000 		.4byte	0x813
 1313 08b0 1B       		.uleb128 0x1b
 1314 08b1 9F000000 		.4byte	.LASF142
 1315 08b5 0E       		.byte	0xe
 1316 08b6 1A01     		.2byte	0x11a
 1317 08b8 BF000000 		.4byte	0xbf
 1318 08bc 1B       		.uleb128 0x1b
 1319 08bd 96060000 		.4byte	.LASF143
 1320 08c1 0E       		.byte	0xe
 1321 08c2 1F01     		.2byte	0x11f
 1322 08c4 BF000000 		.4byte	0xbf
 1323 08c8 1B       		.uleb128 0x1b
 1324 08c9 02060000 		.4byte	.LASF144
 1325 08cd 0E       		.byte	0xe
 1326 08ce 2701     		.2byte	0x127
 1327 08d0 D4080000 		.4byte	0x8d4
 1328 08d4 0A       		.uleb128 0xa
 1329 08d5 04       		.byte	0x4
 1330 08d6 A5080000 		.4byte	0x8a5
 1331 08da 13       		.uleb128 0x13
 1332 08db 0C       		.byte	0xc
 1333 08dc 0F       		.byte	0xf
 1334 08dd 7A       		.byte	0x7a
 1335 08de 07090000 		.4byte	0x907
 1336 08e2 07       		.uleb128 0x7
 1337 08e3 46040000 		.4byte	.LASF145
 1338 08e7 0F       		.byte	0xf
 1339 08e8 7E       		.byte	0x7e
 1340 08e9 C8080000 		.4byte	0x8c8
 1341 08ed 00       		.byte	0
 1342 08ee 07       		.uleb128 0x7
 1343 08ef 7E020000 		.4byte	.LASF146
 1344 08f3 0F       		.byte	0xf
 1345 08f4 84       		.byte	0x84
 1346 08f5 B0080000 		.4byte	0x8b0
 1347 08f9 04       		.byte	0x4
 1348 08fa 07       		.uleb128 0x7
 1349 08fb FB050000 		.4byte	.LASF103
 1350 08ff 0F       		.byte	0xf
 1351 0900 88       		.byte	0x88
 1352 0901 D5000000 		.4byte	0xd5
 1353 0905 08       		.byte	0x8
 1354 0906 00       		.byte	0
 1355 0907 04       		.uleb128 0x4
 1356 0908 C2020000 		.4byte	.LASF147
 1357 090c 0F       		.byte	0xf
 1358 090d 89       		.byte	0x89
 1359 090e DA080000 		.4byte	0x8da
 1360 0912 1C       		.uleb128 0x1c
ARM GAS  /tmp/cctuDh6q.s 			page 25


 1361 0913 9D050000 		.4byte	.LASF156
 1362 0917 01       		.byte	0x1
 1363 0918 41       		.byte	0x41
 1364 0919 B0080000 		.4byte	0x8b0
 1365 091d 00000000 		.4byte	.LFB271
 1366 0921 38000000 		.4byte	.LFE271-.LFB271
 1367 0925 01       		.uleb128 0x1
 1368 0926 9C       		.byte	0x9c
 1369 0927 49090000 		.4byte	0x949
 1370 092b 1D       		.uleb128 0x1d
 1371 092c 62757300 		.ascii	"bus\000"
 1372 0930 01       		.byte	0x1
 1373 0931 41       		.byte	0x41
 1374 0932 49090000 		.4byte	0x949
 1375 0936 02       		.uleb128 0x2
 1376 0937 91       		.byte	0x91
 1377 0938 74       		.sleb128 -12
 1378 0939 1E       		.uleb128 0x1e
 1379 093a 0C050000 		.4byte	.LASF149
 1380 093e 5F090000 		.4byte	0x95f
 1381 0942 05       		.uleb128 0x5
 1382 0943 03       		.byte	0x3
 1383 0944 00000000 		.4byte	__func__.7140
 1384 0948 00       		.byte	0
 1385 0949 0A       		.uleb128 0xa
 1386 094a 04       		.byte	0x4
 1387 094b 07090000 		.4byte	0x907
 1388 094f 15       		.uleb128 0x15
 1389 0950 97070000 		.4byte	0x797
 1390 0954 5F090000 		.4byte	0x95f
 1391 0958 16       		.uleb128 0x16
 1392 0959 CB040000 		.4byte	0x4cb
 1393 095d 0A       		.byte	0xa
 1394 095e 00       		.byte	0
 1395 095f 19       		.uleb128 0x19
 1396 0960 4F090000 		.4byte	0x94f
 1397 0964 1F       		.uleb128 0x1f
 1398 0965 24060000 		.4byte	.LASF150
 1399 0969 01       		.byte	0x1
 1400 096a 5A       		.byte	0x5a
 1401 096b 00000000 		.4byte	.LFB272
 1402 096f 50000000 		.4byte	.LFE272-.LFB272
 1403 0973 01       		.uleb128 0x1
 1404 0974 9C       		.byte	0x9c
 1405 0975 A5090000 		.4byte	0x9a5
 1406 0979 1D       		.uleb128 0x1d
 1407 097a 62757300 		.ascii	"bus\000"
 1408 097e 01       		.byte	0x1
 1409 097f 5A       		.byte	0x5a
 1410 0980 49090000 		.4byte	0x949
 1411 0984 02       		.uleb128 0x2
 1412 0985 91       		.byte	0x91
 1413 0986 74       		.sleb128 -12
 1414 0987 20       		.uleb128 0x20
 1415 0988 80010000 		.4byte	.LASF148
 1416 098c 01       		.byte	0x1
 1417 098d 5A       		.byte	0x5a
ARM GAS  /tmp/cctuDh6q.s 			page 26


 1418 098e B0080000 		.4byte	0x8b0
 1419 0992 02       		.uleb128 0x2
 1420 0993 91       		.byte	0x91
 1421 0994 70       		.sleb128 -16
 1422 0995 1E       		.uleb128 0x1e
 1423 0996 0C050000 		.4byte	.LASF149
 1424 099a B5090000 		.4byte	0x9b5
 1425 099e 05       		.uleb128 0x5
 1426 099f 03       		.byte	0x3
 1427 09a0 00000000 		.4byte	__func__.7145
 1428 09a4 00       		.byte	0
 1429 09a5 15       		.uleb128 0x15
 1430 09a6 97070000 		.4byte	0x797
 1431 09aa B5090000 		.4byte	0x9b5
 1432 09ae 16       		.uleb128 0x16
 1433 09af CB040000 		.4byte	0x4cb
 1434 09b3 0B       		.byte	0xb
 1435 09b4 00       		.byte	0
 1436 09b5 19       		.uleb128 0x19
 1437 09b6 A5090000 		.4byte	0x9a5
 1438 09ba 1F       		.uleb128 0x1f
 1439 09bb 5D040000 		.4byte	.LASF151
 1440 09bf 01       		.byte	0x1
 1441 09c0 71       		.byte	0x71
 1442 09c1 00000000 		.4byte	.LFB273
 1443 09c5 40000000 		.4byte	.LFE273-.LFB273
 1444 09c9 01       		.uleb128 0x1
 1445 09ca 9C       		.byte	0x9c
 1446 09cb FB090000 		.4byte	0x9fb
 1447 09cf 1D       		.uleb128 0x1d
 1448 09d0 62757300 		.ascii	"bus\000"
 1449 09d4 01       		.byte	0x1
 1450 09d5 71       		.byte	0x71
 1451 09d6 49090000 		.4byte	0x949
 1452 09da 02       		.uleb128 0x2
 1453 09db 91       		.byte	0x91
 1454 09dc 74       		.sleb128 -12
 1455 09dd 20       		.uleb128 0x20
 1456 09de 98050000 		.4byte	.LASF152
 1457 09e2 01       		.byte	0x1
 1458 09e3 71       		.byte	0x71
 1459 09e4 BC080000 		.4byte	0x8bc
 1460 09e8 02       		.uleb128 0x2
 1461 09e9 91       		.byte	0x91
 1462 09ea 70       		.sleb128 -16
 1463 09eb 1E       		.uleb128 0x1e
 1464 09ec 0C050000 		.4byte	.LASF149
 1465 09f0 0B0A0000 		.4byte	0xa0b
 1466 09f4 05       		.uleb128 0x5
 1467 09f5 03       		.byte	0x3
 1468 09f6 00000000 		.4byte	__func__.7150
 1469 09fa 00       		.byte	0
 1470 09fb 15       		.uleb128 0x15
 1471 09fc 97070000 		.4byte	0x797
 1472 0a00 0B0A0000 		.4byte	0xa0b
 1473 0a04 16       		.uleb128 0x16
 1474 0a05 CB040000 		.4byte	0x4cb
ARM GAS  /tmp/cctuDh6q.s 			page 27


 1475 0a09 0D       		.byte	0xd
 1476 0a0a 00       		.byte	0
 1477 0a0b 19       		.uleb128 0x19
 1478 0a0c FB090000 		.4byte	0x9fb
 1479 0a10 21       		.uleb128 0x21
 1480 0a11 2D010000 		.4byte	.LASF153
 1481 0a15 10       		.byte	0x10
 1482 0a16 FA06     		.2byte	0x6fa
 1483 0a18 E0000000 		.4byte	0xe0
 1484 0a1c 22       		.uleb128 0x22
 1485 0a1d 636800   		.ascii	"ch\000"
 1486 0a20 06       		.byte	0x6
 1487 0a21 0902     		.2byte	0x209
 1488 0a23 53040000 		.4byte	0x453
 1489 0a27 00       		.byte	0
 1490              		.section	.debug_abbrev,"",%progbits
 1491              	.Ldebug_abbrev0:
 1492 0000 01       		.uleb128 0x1
 1493 0001 11       		.uleb128 0x11
 1494 0002 01       		.byte	0x1
 1495 0003 25       		.uleb128 0x25
 1496 0004 0E       		.uleb128 0xe
 1497 0005 13       		.uleb128 0x13
 1498 0006 0B       		.uleb128 0xb
 1499 0007 03       		.uleb128 0x3
 1500 0008 0E       		.uleb128 0xe
 1501 0009 55       		.uleb128 0x55
 1502 000a 17       		.uleb128 0x17
 1503 000b 11       		.uleb128 0x11
 1504 000c 01       		.uleb128 0x1
 1505 000d 10       		.uleb128 0x10
 1506 000e 17       		.uleb128 0x17
 1507 000f 00       		.byte	0
 1508 0010 00       		.byte	0
 1509 0011 02       		.uleb128 0x2
 1510 0012 24       		.uleb128 0x24
 1511 0013 00       		.byte	0
 1512 0014 0B       		.uleb128 0xb
 1513 0015 0B       		.uleb128 0xb
 1514 0016 3E       		.uleb128 0x3e
 1515 0017 0B       		.uleb128 0xb
 1516 0018 03       		.uleb128 0x3
 1517 0019 08       		.uleb128 0x8
 1518 001a 00       		.byte	0
 1519 001b 00       		.byte	0
 1520 001c 03       		.uleb128 0x3
 1521 001d 24       		.uleb128 0x24
 1522 001e 00       		.byte	0
 1523 001f 0B       		.uleb128 0xb
 1524 0020 0B       		.uleb128 0xb
 1525 0021 3E       		.uleb128 0x3e
 1526 0022 0B       		.uleb128 0xb
 1527 0023 03       		.uleb128 0x3
 1528 0024 0E       		.uleb128 0xe
 1529 0025 00       		.byte	0
 1530 0026 00       		.byte	0
 1531 0027 04       		.uleb128 0x4
ARM GAS  /tmp/cctuDh6q.s 			page 28


 1532 0028 16       		.uleb128 0x16
 1533 0029 00       		.byte	0
 1534 002a 03       		.uleb128 0x3
 1535 002b 0E       		.uleb128 0xe
 1536 002c 3A       		.uleb128 0x3a
 1537 002d 0B       		.uleb128 0xb
 1538 002e 3B       		.uleb128 0x3b
 1539 002f 0B       		.uleb128 0xb
 1540 0030 49       		.uleb128 0x49
 1541 0031 13       		.uleb128 0x13
 1542 0032 00       		.byte	0
 1543 0033 00       		.byte	0
 1544 0034 05       		.uleb128 0x5
 1545 0035 35       		.uleb128 0x35
 1546 0036 00       		.byte	0
 1547 0037 49       		.uleb128 0x49
 1548 0038 13       		.uleb128 0x13
 1549 0039 00       		.byte	0
 1550 003a 00       		.byte	0
 1551 003b 06       		.uleb128 0x6
 1552 003c 13       		.uleb128 0x13
 1553 003d 01       		.byte	0x1
 1554 003e 03       		.uleb128 0x3
 1555 003f 0E       		.uleb128 0xe
 1556 0040 0B       		.uleb128 0xb
 1557 0041 0B       		.uleb128 0xb
 1558 0042 3A       		.uleb128 0x3a
 1559 0043 0B       		.uleb128 0xb
 1560 0044 3B       		.uleb128 0x3b
 1561 0045 0B       		.uleb128 0xb
 1562 0046 01       		.uleb128 0x1
 1563 0047 13       		.uleb128 0x13
 1564 0048 00       		.byte	0
 1565 0049 00       		.byte	0
 1566 004a 07       		.uleb128 0x7
 1567 004b 0D       		.uleb128 0xd
 1568 004c 00       		.byte	0
 1569 004d 03       		.uleb128 0x3
 1570 004e 0E       		.uleb128 0xe
 1571 004f 3A       		.uleb128 0x3a
 1572 0050 0B       		.uleb128 0xb
 1573 0051 3B       		.uleb128 0x3b
 1574 0052 0B       		.uleb128 0xb
 1575 0053 49       		.uleb128 0x49
 1576 0054 13       		.uleb128 0x13
 1577 0055 38       		.uleb128 0x38
 1578 0056 0B       		.uleb128 0xb
 1579 0057 00       		.byte	0
 1580 0058 00       		.byte	0
 1581 0059 08       		.uleb128 0x8
 1582 005a 0D       		.uleb128 0xd
 1583 005b 00       		.byte	0
 1584 005c 03       		.uleb128 0x3
 1585 005d 08       		.uleb128 0x8
 1586 005e 3A       		.uleb128 0x3a
 1587 005f 0B       		.uleb128 0xb
 1588 0060 3B       		.uleb128 0x3b
ARM GAS  /tmp/cctuDh6q.s 			page 29


 1589 0061 05       		.uleb128 0x5
 1590 0062 49       		.uleb128 0x49
 1591 0063 13       		.uleb128 0x13
 1592 0064 38       		.uleb128 0x38
 1593 0065 0B       		.uleb128 0xb
 1594 0066 00       		.byte	0
 1595 0067 00       		.byte	0
 1596 0068 09       		.uleb128 0x9
 1597 0069 0D       		.uleb128 0xd
 1598 006a 00       		.byte	0
 1599 006b 03       		.uleb128 0x3
 1600 006c 0E       		.uleb128 0xe
 1601 006d 3A       		.uleb128 0x3a
 1602 006e 0B       		.uleb128 0xb
 1603 006f 3B       		.uleb128 0x3b
 1604 0070 05       		.uleb128 0x5
 1605 0071 49       		.uleb128 0x49
 1606 0072 13       		.uleb128 0x13
 1607 0073 38       		.uleb128 0x38
 1608 0074 0B       		.uleb128 0xb
 1609 0075 00       		.byte	0
 1610 0076 00       		.byte	0
 1611 0077 0A       		.uleb128 0xa
 1612 0078 0F       		.uleb128 0xf
 1613 0079 00       		.byte	0
 1614 007a 0B       		.uleb128 0xb
 1615 007b 0B       		.uleb128 0xb
 1616 007c 49       		.uleb128 0x49
 1617 007d 13       		.uleb128 0x13
 1618 007e 00       		.byte	0
 1619 007f 00       		.byte	0
 1620 0080 0B       		.uleb128 0xb
 1621 0081 13       		.uleb128 0x13
 1622 0082 01       		.byte	0x1
 1623 0083 03       		.uleb128 0x3
 1624 0084 0E       		.uleb128 0xe
 1625 0085 0B       		.uleb128 0xb
 1626 0086 0B       		.uleb128 0xb
 1627 0087 3A       		.uleb128 0x3a
 1628 0088 0B       		.uleb128 0xb
 1629 0089 3B       		.uleb128 0x3b
 1630 008a 05       		.uleb128 0x5
 1631 008b 01       		.uleb128 0x1
 1632 008c 13       		.uleb128 0x13
 1633 008d 00       		.byte	0
 1634 008e 00       		.byte	0
 1635 008f 0C       		.uleb128 0xc
 1636 0090 15       		.uleb128 0x15
 1637 0091 01       		.byte	0x1
 1638 0092 27       		.uleb128 0x27
 1639 0093 19       		.uleb128 0x19
 1640 0094 01       		.uleb128 0x1
 1641 0095 13       		.uleb128 0x13
 1642 0096 00       		.byte	0
 1643 0097 00       		.byte	0
 1644 0098 0D       		.uleb128 0xd
 1645 0099 05       		.uleb128 0x5
ARM GAS  /tmp/cctuDh6q.s 			page 30


 1646 009a 00       		.byte	0
 1647 009b 49       		.uleb128 0x49
 1648 009c 13       		.uleb128 0x13
 1649 009d 00       		.byte	0
 1650 009e 00       		.byte	0
 1651 009f 0E       		.uleb128 0xe
 1652 00a0 0F       		.uleb128 0xf
 1653 00a1 00       		.byte	0
 1654 00a2 0B       		.uleb128 0xb
 1655 00a3 0B       		.uleb128 0xb
 1656 00a4 00       		.byte	0
 1657 00a5 00       		.byte	0
 1658 00a6 0F       		.uleb128 0xf
 1659 00a7 13       		.uleb128 0x13
 1660 00a8 01       		.byte	0x1
 1661 00a9 03       		.uleb128 0x3
 1662 00aa 0E       		.uleb128 0xe
 1663 00ab 0B       		.uleb128 0xb
 1664 00ac 05       		.uleb128 0x5
 1665 00ad 3A       		.uleb128 0x3a
 1666 00ae 0B       		.uleb128 0xb
 1667 00af 3B       		.uleb128 0x3b
 1668 00b0 05       		.uleb128 0x5
 1669 00b1 01       		.uleb128 0x1
 1670 00b2 13       		.uleb128 0x13
 1671 00b3 00       		.byte	0
 1672 00b4 00       		.byte	0
 1673 00b5 10       		.uleb128 0x10
 1674 00b6 0D       		.uleb128 0xd
 1675 00b7 00       		.byte	0
 1676 00b8 03       		.uleb128 0x3
 1677 00b9 0E       		.uleb128 0xe
 1678 00ba 3A       		.uleb128 0x3a
 1679 00bb 0B       		.uleb128 0xb
 1680 00bc 3B       		.uleb128 0x3b
 1681 00bd 05       		.uleb128 0x5
 1682 00be 49       		.uleb128 0x49
 1683 00bf 13       		.uleb128 0x13
 1684 00c0 38       		.uleb128 0x38
 1685 00c1 05       		.uleb128 0x5
 1686 00c2 00       		.byte	0
 1687 00c3 00       		.byte	0
 1688 00c4 11       		.uleb128 0x11
 1689 00c5 0D       		.uleb128 0xd
 1690 00c6 00       		.byte	0
 1691 00c7 03       		.uleb128 0x3
 1692 00c8 08       		.uleb128 0x8
 1693 00c9 3A       		.uleb128 0x3a
 1694 00ca 0B       		.uleb128 0xb
 1695 00cb 3B       		.uleb128 0x3b
 1696 00cc 05       		.uleb128 0x5
 1697 00cd 49       		.uleb128 0x49
 1698 00ce 13       		.uleb128 0x13
 1699 00cf 38       		.uleb128 0x38
 1700 00d0 05       		.uleb128 0x5
 1701 00d1 00       		.byte	0
 1702 00d2 00       		.byte	0
ARM GAS  /tmp/cctuDh6q.s 			page 31


 1703 00d3 12       		.uleb128 0x12
 1704 00d4 0D       		.uleb128 0xd
 1705 00d5 00       		.byte	0
 1706 00d6 03       		.uleb128 0x3
 1707 00d7 08       		.uleb128 0x8
 1708 00d8 3A       		.uleb128 0x3a
 1709 00d9 0B       		.uleb128 0xb
 1710 00da 3B       		.uleb128 0x3b
 1711 00db 0B       		.uleb128 0xb
 1712 00dc 49       		.uleb128 0x49
 1713 00dd 13       		.uleb128 0x13
 1714 00de 38       		.uleb128 0x38
 1715 00df 0B       		.uleb128 0xb
 1716 00e0 00       		.byte	0
 1717 00e1 00       		.byte	0
 1718 00e2 13       		.uleb128 0x13
 1719 00e3 13       		.uleb128 0x13
 1720 00e4 01       		.byte	0x1
 1721 00e5 0B       		.uleb128 0xb
 1722 00e6 0B       		.uleb128 0xb
 1723 00e7 3A       		.uleb128 0x3a
 1724 00e8 0B       		.uleb128 0xb
 1725 00e9 3B       		.uleb128 0x3b
 1726 00ea 0B       		.uleb128 0xb
 1727 00eb 01       		.uleb128 0x1
 1728 00ec 13       		.uleb128 0x13
 1729 00ed 00       		.byte	0
 1730 00ee 00       		.byte	0
 1731 00ef 14       		.uleb128 0x14
 1732 00f0 13       		.uleb128 0x13
 1733 00f1 01       		.byte	0x1
 1734 00f2 0B       		.uleb128 0xb
 1735 00f3 05       		.uleb128 0x5
 1736 00f4 3A       		.uleb128 0x3a
 1737 00f5 0B       		.uleb128 0xb
 1738 00f6 3B       		.uleb128 0x3b
 1739 00f7 0B       		.uleb128 0xb
 1740 00f8 01       		.uleb128 0x1
 1741 00f9 13       		.uleb128 0x13
 1742 00fa 00       		.byte	0
 1743 00fb 00       		.byte	0
 1744 00fc 15       		.uleb128 0x15
 1745 00fd 01       		.uleb128 0x1
 1746 00fe 01       		.byte	0x1
 1747 00ff 49       		.uleb128 0x49
 1748 0100 13       		.uleb128 0x13
 1749 0101 01       		.uleb128 0x1
 1750 0102 13       		.uleb128 0x13
 1751 0103 00       		.byte	0
 1752 0104 00       		.byte	0
 1753 0105 16       		.uleb128 0x16
 1754 0106 21       		.uleb128 0x21
 1755 0107 00       		.byte	0
 1756 0108 49       		.uleb128 0x49
 1757 0109 13       		.uleb128 0x13
 1758 010a 2F       		.uleb128 0x2f
 1759 010b 0B       		.uleb128 0xb
ARM GAS  /tmp/cctuDh6q.s 			page 32


 1760 010c 00       		.byte	0
 1761 010d 00       		.byte	0
 1762 010e 17       		.uleb128 0x17
 1763 010f 17       		.uleb128 0x17
 1764 0110 01       		.byte	0x1
 1765 0111 0B       		.uleb128 0xb
 1766 0112 0B       		.uleb128 0xb
 1767 0113 3A       		.uleb128 0x3a
 1768 0114 0B       		.uleb128 0xb
 1769 0115 3B       		.uleb128 0x3b
 1770 0116 0B       		.uleb128 0xb
 1771 0117 01       		.uleb128 0x1
 1772 0118 13       		.uleb128 0x13
 1773 0119 00       		.byte	0
 1774 011a 00       		.byte	0
 1775 011b 18       		.uleb128 0x18
 1776 011c 0D       		.uleb128 0xd
 1777 011d 00       		.byte	0
 1778 011e 03       		.uleb128 0x3
 1779 011f 0E       		.uleb128 0xe
 1780 0120 3A       		.uleb128 0x3a
 1781 0121 0B       		.uleb128 0xb
 1782 0122 3B       		.uleb128 0x3b
 1783 0123 05       		.uleb128 0x5
 1784 0124 49       		.uleb128 0x49
 1785 0125 13       		.uleb128 0x13
 1786 0126 00       		.byte	0
 1787 0127 00       		.byte	0
 1788 0128 19       		.uleb128 0x19
 1789 0129 26       		.uleb128 0x26
 1790 012a 00       		.byte	0
 1791 012b 49       		.uleb128 0x49
 1792 012c 13       		.uleb128 0x13
 1793 012d 00       		.byte	0
 1794 012e 00       		.byte	0
 1795 012f 1A       		.uleb128 0x1a
 1796 0130 0D       		.uleb128 0xd
 1797 0131 00       		.byte	0
 1798 0132 03       		.uleb128 0x3
 1799 0133 08       		.uleb128 0x8
 1800 0134 3A       		.uleb128 0x3a
 1801 0135 0B       		.uleb128 0xb
 1802 0136 3B       		.uleb128 0x3b
 1803 0137 0B       		.uleb128 0xb
 1804 0138 49       		.uleb128 0x49
 1805 0139 13       		.uleb128 0x13
 1806 013a 00       		.byte	0
 1807 013b 00       		.byte	0
 1808 013c 1B       		.uleb128 0x1b
 1809 013d 16       		.uleb128 0x16
 1810 013e 00       		.byte	0
 1811 013f 03       		.uleb128 0x3
 1812 0140 0E       		.uleb128 0xe
 1813 0141 3A       		.uleb128 0x3a
 1814 0142 0B       		.uleb128 0xb
 1815 0143 3B       		.uleb128 0x3b
 1816 0144 05       		.uleb128 0x5
ARM GAS  /tmp/cctuDh6q.s 			page 33


 1817 0145 49       		.uleb128 0x49
 1818 0146 13       		.uleb128 0x13
 1819 0147 00       		.byte	0
 1820 0148 00       		.byte	0
 1821 0149 1C       		.uleb128 0x1c
 1822 014a 2E       		.uleb128 0x2e
 1823 014b 01       		.byte	0x1
 1824 014c 3F       		.uleb128 0x3f
 1825 014d 19       		.uleb128 0x19
 1826 014e 03       		.uleb128 0x3
 1827 014f 0E       		.uleb128 0xe
 1828 0150 3A       		.uleb128 0x3a
 1829 0151 0B       		.uleb128 0xb
 1830 0152 3B       		.uleb128 0x3b
 1831 0153 0B       		.uleb128 0xb
 1832 0154 27       		.uleb128 0x27
 1833 0155 19       		.uleb128 0x19
 1834 0156 49       		.uleb128 0x49
 1835 0157 13       		.uleb128 0x13
 1836 0158 11       		.uleb128 0x11
 1837 0159 01       		.uleb128 0x1
 1838 015a 12       		.uleb128 0x12
 1839 015b 06       		.uleb128 0x6
 1840 015c 40       		.uleb128 0x40
 1841 015d 18       		.uleb128 0x18
 1842 015e 9642     		.uleb128 0x2116
 1843 0160 19       		.uleb128 0x19
 1844 0161 01       		.uleb128 0x1
 1845 0162 13       		.uleb128 0x13
 1846 0163 00       		.byte	0
 1847 0164 00       		.byte	0
 1848 0165 1D       		.uleb128 0x1d
 1849 0166 05       		.uleb128 0x5
 1850 0167 00       		.byte	0
 1851 0168 03       		.uleb128 0x3
 1852 0169 08       		.uleb128 0x8
 1853 016a 3A       		.uleb128 0x3a
 1854 016b 0B       		.uleb128 0xb
 1855 016c 3B       		.uleb128 0x3b
 1856 016d 0B       		.uleb128 0xb
 1857 016e 49       		.uleb128 0x49
 1858 016f 13       		.uleb128 0x13
 1859 0170 02       		.uleb128 0x2
 1860 0171 18       		.uleb128 0x18
 1861 0172 00       		.byte	0
 1862 0173 00       		.byte	0
 1863 0174 1E       		.uleb128 0x1e
 1864 0175 34       		.uleb128 0x34
 1865 0176 00       		.byte	0
 1866 0177 03       		.uleb128 0x3
 1867 0178 0E       		.uleb128 0xe
 1868 0179 49       		.uleb128 0x49
 1869 017a 13       		.uleb128 0x13
 1870 017b 34       		.uleb128 0x34
 1871 017c 19       		.uleb128 0x19
 1872 017d 02       		.uleb128 0x2
 1873 017e 18       		.uleb128 0x18
ARM GAS  /tmp/cctuDh6q.s 			page 34


 1874 017f 00       		.byte	0
 1875 0180 00       		.byte	0
 1876 0181 1F       		.uleb128 0x1f
 1877 0182 2E       		.uleb128 0x2e
 1878 0183 01       		.byte	0x1
 1879 0184 3F       		.uleb128 0x3f
 1880 0185 19       		.uleb128 0x19
 1881 0186 03       		.uleb128 0x3
 1882 0187 0E       		.uleb128 0xe
 1883 0188 3A       		.uleb128 0x3a
 1884 0189 0B       		.uleb128 0xb
 1885 018a 3B       		.uleb128 0x3b
 1886 018b 0B       		.uleb128 0xb
 1887 018c 27       		.uleb128 0x27
 1888 018d 19       		.uleb128 0x19
 1889 018e 11       		.uleb128 0x11
 1890 018f 01       		.uleb128 0x1
 1891 0190 12       		.uleb128 0x12
 1892 0191 06       		.uleb128 0x6
 1893 0192 40       		.uleb128 0x40
 1894 0193 18       		.uleb128 0x18
 1895 0194 9642     		.uleb128 0x2116
 1896 0196 19       		.uleb128 0x19
 1897 0197 01       		.uleb128 0x1
 1898 0198 13       		.uleb128 0x13
 1899 0199 00       		.byte	0
 1900 019a 00       		.byte	0
 1901 019b 20       		.uleb128 0x20
 1902 019c 05       		.uleb128 0x5
 1903 019d 00       		.byte	0
 1904 019e 03       		.uleb128 0x3
 1905 019f 0E       		.uleb128 0xe
 1906 01a0 3A       		.uleb128 0x3a
 1907 01a1 0B       		.uleb128 0xb
 1908 01a2 3B       		.uleb128 0x3b
 1909 01a3 0B       		.uleb128 0xb
 1910 01a4 49       		.uleb128 0x49
 1911 01a5 13       		.uleb128 0x13
 1912 01a6 02       		.uleb128 0x2
 1913 01a7 18       		.uleb128 0x18
 1914 01a8 00       		.byte	0
 1915 01a9 00       		.byte	0
 1916 01aa 21       		.uleb128 0x21
 1917 01ab 34       		.uleb128 0x34
 1918 01ac 00       		.byte	0
 1919 01ad 03       		.uleb128 0x3
 1920 01ae 0E       		.uleb128 0xe
 1921 01af 3A       		.uleb128 0x3a
 1922 01b0 0B       		.uleb128 0xb
 1923 01b1 3B       		.uleb128 0x3b
 1924 01b2 05       		.uleb128 0x5
 1925 01b3 49       		.uleb128 0x49
 1926 01b4 13       		.uleb128 0x13
 1927 01b5 3F       		.uleb128 0x3f
 1928 01b6 19       		.uleb128 0x19
 1929 01b7 3C       		.uleb128 0x3c
 1930 01b8 19       		.uleb128 0x19
ARM GAS  /tmp/cctuDh6q.s 			page 35


 1931 01b9 00       		.byte	0
 1932 01ba 00       		.byte	0
 1933 01bb 22       		.uleb128 0x22
 1934 01bc 34       		.uleb128 0x34
 1935 01bd 00       		.byte	0
 1936 01be 03       		.uleb128 0x3
 1937 01bf 08       		.uleb128 0x8
 1938 01c0 3A       		.uleb128 0x3a
 1939 01c1 0B       		.uleb128 0xb
 1940 01c2 3B       		.uleb128 0x3b
 1941 01c3 05       		.uleb128 0x5
 1942 01c4 49       		.uleb128 0x49
 1943 01c5 13       		.uleb128 0x13
 1944 01c6 3F       		.uleb128 0x3f
 1945 01c7 19       		.uleb128 0x19
 1946 01c8 3C       		.uleb128 0x3c
 1947 01c9 19       		.uleb128 0x19
 1948 01ca 00       		.byte	0
 1949 01cb 00       		.byte	0
 1950 01cc 00       		.byte	0
 1951              		.section	.debug_aranges,"",%progbits
 1952 0000 2C000000 		.4byte	0x2c
 1953 0004 0200     		.2byte	0x2
 1954 0006 00000000 		.4byte	.Ldebug_info0
 1955 000a 04       		.byte	0x4
 1956 000b 00       		.byte	0
 1957 000c 0000     		.2byte	0
 1958 000e 0000     		.2byte	0
 1959 0010 00000000 		.4byte	.LFB271
 1960 0014 38000000 		.4byte	.LFE271-.LFB271
 1961 0018 00000000 		.4byte	.LFB272
 1962 001c 50000000 		.4byte	.LFE272-.LFB272
 1963 0020 00000000 		.4byte	.LFB273
 1964 0024 40000000 		.4byte	.LFE273-.LFB273
 1965 0028 00000000 		.4byte	0
 1966 002c 00000000 		.4byte	0
 1967              		.section	.debug_ranges,"",%progbits
 1968              	.Ldebug_ranges0:
 1969 0000 00000000 		.4byte	.LFB271
 1970 0004 38000000 		.4byte	.LFE271
 1971 0008 00000000 		.4byte	.LFB272
 1972 000c 50000000 		.4byte	.LFE272
 1973 0010 00000000 		.4byte	.LFB273
 1974 0014 40000000 		.4byte	.LFE273
 1975 0018 00000000 		.4byte	0
 1976 001c 00000000 		.4byte	0
 1977              		.section	.debug_line,"",%progbits
 1978              	.Ldebug_line0:
 1979 0000 80020000 		.section	.debug_str,"MS",%progbits,1
 1979      02001C02 
 1979      00000201 
 1979      FB0E0D00 
 1979      01010101 
 1980              	.LASF100:
 1981 0000 74625F70 		.ascii	"tb_ptr\000"
 1981      747200
 1982              	.LASF57:
ARM GAS  /tmp/cctuDh6q.s 			page 36


 1983 0007 72656164 		.ascii	"ready_list_t\000"
 1983      795F6C69 
 1983      73745F74 
 1983      00
 1984              	.LASF94:
 1985 0014 73655F74 		.ascii	"se_time\000"
 1985      696D6500 
 1986              	.LASF155:
 1987 001c 2F686F6D 		.ascii	"/home/efe/ChibiOS/os/hal/src/pal.c\000"
 1987      652F6566 
 1987      652F4368 
 1987      6962694F 
 1987      532F6F73 
 1988              	.LASF118:
 1989 003f 77747472 		.ascii	"wttrp\000"
 1989      7000
 1990              	.LASF115:
 1991 0045 7264796D 		.ascii	"rdymsg\000"
 1991      736700
 1992              	.LASF18:
 1993 004c 75696E74 		.ascii	"uint64_t\000"
 1993      36345F74 
 1993      00
 1994              	.LASF87:
 1995 0055 6B65726E 		.ascii	"kernel_stats\000"
 1995      656C5F73 
 1995      74617473 
 1995      00
 1996              	.LASF4:
 1997 0062 5F5F7569 		.ascii	"__uint8_t\000"
 1997      6E74385F 
 1997      7400
 1998              	.LASF134:
 1999 006c 4F545950 		.ascii	"OTYPER\000"
 1999      455200
 2000              	.LASF93:
 2001 0073 706F7274 		.ascii	"port_intctx\000"
 2001      5F696E74 
 2001      63747800 
 2002              	.LASF56:
 2003 007f 63685F74 		.ascii	"ch_threads_queue\000"
 2003      68726561 
 2003      64735F71 
 2003      75657565 
 2003      00
 2004              	.LASF76:
 2005 0090 73797374 		.ascii	"system_debug_t\000"
 2005      656D5F64 
 2005      65627567 
 2005      5F7400
 2006              	.LASF142:
 2007 009f 696F706F 		.ascii	"ioportmask_t\000"
 2007      72746D61 
 2007      736B5F74 
 2007      00
 2008              	.LASF106:
 2009 00ac 776F7273 		.ascii	"worst\000"
ARM GAS  /tmp/cctuDh6q.s 			page 37


 2009      7400
 2010              	.LASF109:
 2011 00b2 74696D65 		.ascii	"time_measurement_t\000"
 2011      5F6D6561 
 2011      73757265 
 2011      6D656E74 
 2011      5F7400
 2012              	.LASF133:
 2013 00c5 4D4F4445 		.ascii	"MODER\000"
 2013      5200
 2014              	.LASF13:
 2015 00cb 6C6F6E67 		.ascii	"long long unsigned int\000"
 2015      206C6F6E 
 2015      6720756E 
 2015      7369676E 
 2015      65642069 
 2016              	.LASF102:
 2017 00e2 63685F74 		.ascii	"ch_trace_buffer_t\000"
 2017      72616365 
 2017      5F627566 
 2017      6665725F 
 2017      7400
 2018              	.LASF97:
 2019 00f4 73655F73 		.ascii	"se_state\000"
 2019      74617465 
 2019      00
 2020              	.LASF136:
 2021 00fd 50555044 		.ascii	"PUPDR\000"
 2021      5200
 2022              	.LASF116:
 2023 0103 65786974 		.ascii	"exitcode\000"
 2023      636F6465 
 2023      00
 2024              	.LASF86:
 2025 010c 6D61696E 		.ascii	"mainthread\000"
 2025      74687265 
 2025      616400
 2026              	.LASF73:
 2027 0117 76697274 		.ascii	"virtual_timers_list_t\000"
 2027      75616C5F 
 2027      74696D65 
 2027      72735F6C 
 2027      6973745F 
 2028              	.LASF153:
 2029 012d 49544D5F 		.ascii	"ITM_RxBuffer\000"
 2029      52784275 
 2029      66666572 
 2029      00
 2030              	.LASF21:
 2031 013a 72747469 		.ascii	"rttime_t\000"
 2031      6D655F74 
 2031      00
 2032              	.LASF34:
 2033 0143 705F7072 		.ascii	"p_prio\000"
 2033      696F00
 2034              	.LASF11:
 2035 014a 6C6F6E67 		.ascii	"long long int\000"
ARM GAS  /tmp/cctuDh6q.s 			page 38


 2035      206C6F6E 
 2035      6720696E 
 2035      7400
 2036              	.LASF1:
 2037 0158 7369676E 		.ascii	"signed char\000"
 2037      65642063 
 2037      68617200 
 2038              	.LASF137:
 2039 0164 42535252 		.ascii	"BSRR\000"
 2039      00
 2040              	.LASF49:
 2041 0169 705F6D70 		.ascii	"p_mpool\000"
 2041      6F6F6C00 
 2042              	.LASF126:
 2043 0171 6D5F7175 		.ascii	"m_queue\000"
 2043      65756500 
 2044              	.LASF85:
 2045 0179 76746C69 		.ascii	"vtlist\000"
 2045      737400
 2046              	.LASF148:
 2047 0180 62697473 		.ascii	"bits\000"
 2047      00
 2048              	.LASF8:
 2049 0185 6C6F6E67 		.ascii	"long int\000"
 2049      20696E74 
 2049      00
 2050              	.LASF23:
 2051 018e 74737461 		.ascii	"tstate_t\000"
 2051      74655F74 
 2051      00
 2052              	.LASF95:
 2053 0197 73655F74 		.ascii	"se_tp\000"
 2053      7000
 2054              	.LASF15:
 2055 019d 75696E74 		.ascii	"uint16_t\000"
 2055      31365F74 
 2055      00
 2056              	.LASF154:
 2057 01a6 474E5520 		.ascii	"GNU C 4.8.4 20141219 (release) -mcpu=cortex-m4 -mno"
 2057      4320342E 
 2057      382E3420 
 2057      32303134 
 2057      31323139 
 2058 01d9 2D746875 		.ascii	"-thumb-interwork -mthumb -ggdb -O0 -fomit-frame-poi"
 2058      6D622D69 
 2058      6E746572 
 2058      776F726B 
 2058      202D6D74 
 2059 020c 6E746572 		.ascii	"nter -falign-functions=16 -ffunction-sections -fdat"
 2059      202D6661 
 2059      6C69676E 
 2059      2D66756E 
 2059      6374696F 
 2060 023f 612D7365 		.ascii	"a-sections -fno-common\000"
 2060      6374696F 
 2060      6E73202D 
 2060      666E6F2D 
ARM GAS  /tmp/cctuDh6q.s 			page 39


 2060      636F6D6D 
 2061              	.LASF36:
 2062 0256 705F6E65 		.ascii	"p_newer\000"
 2062      77657200 
 2063              	.LASF123:
 2064 025e 735F7175 		.ascii	"s_queue\000"
 2064      65756500 
 2065              	.LASF99:
 2066 0266 74625F73 		.ascii	"tb_size\000"
 2066      697A6500 
 2067              	.LASF135:
 2068 026e 4F535045 		.ascii	"OSPEEDR\000"
 2068      45445200 
 2069              	.LASF62:
 2070 0276 725F6E65 		.ascii	"r_newer\000"
 2070      77657200 
 2071              	.LASF146:
 2072 027e 6D61736B 		.ascii	"mask\000"
 2072      00
 2073              	.LASF90:
 2074 0283 72656761 		.ascii	"regarm_t\000"
 2074      726D5F74 
 2074      00
 2075              	.LASF69:
 2076 028c 76745F70 		.ascii	"vt_prev\000"
 2076      72657600 
 2077              	.LASF77:
 2078 0294 63685F73 		.ascii	"ch_system_debug\000"
 2078      79737465 
 2078      6D5F6465 
 2078      62756700 
 2079              	.LASF141:
 2080 02a4 73746D33 		.ascii	"stm32_gpio_t\000"
 2080      325F6770 
 2080      696F5F74 
 2080      00
 2081              	.LASF130:
 2082 02b1 6D757465 		.ascii	"mutex_t\000"
 2082      785F7400 
 2083              	.LASF80:
 2084 02b9 6C6F636B 		.ascii	"lock_cnt\000"
 2084      5F636E74 
 2084      00
 2085              	.LASF147:
 2086 02c2 494F4275 		.ascii	"IOBus\000"
 2086      7300
 2087              	.LASF28:
 2088 02c8 636E745F 		.ascii	"cnt_t\000"
 2088      7400
 2089              	.LASF39:
 2090 02ce 705F7374 		.ascii	"p_stklimit\000"
 2090      6B6C696D 
 2090      697400
 2091              	.LASF0:
 2092 02d9 756E7369 		.ascii	"unsigned int\000"
 2092      676E6564 
 2092      20696E74 
ARM GAS  /tmp/cctuDh6q.s 			page 40


 2092      00
 2093              	.LASF68:
 2094 02e6 76745F6E 		.ascii	"vt_next\000"
 2094      65787400 
 2095              	.LASF119:
 2096 02ee 77747365 		.ascii	"wtsemp\000"
 2096      6D7000
 2097              	.LASF44:
 2098 02f5 705F6D73 		.ascii	"p_msgqueue\000"
 2098      67717565 
 2098      756500
 2099              	.LASF138:
 2100 0300 4C434B52 		.ascii	"LCKR\000"
 2100      00
 2101              	.LASF110:
 2102 0305 6E5F6972 		.ascii	"n_irq\000"
 2102      7100
 2103              	.LASF124:
 2104 030b 735F636E 		.ascii	"s_cnt\000"
 2104      7400
 2105              	.LASF6:
 2106 0311 73686F72 		.ascii	"short unsigned int\000"
 2106      7420756E 
 2106      7369676E 
 2106      65642069 
 2106      6E7400
 2107              	.LASF114:
 2108 0324 6B65726E 		.ascii	"kernel_stats_t\000"
 2108      656C5F73 
 2108      74617473 
 2108      5F7400
 2109              	.LASF53:
 2110 0333 63685F74 		.ascii	"ch_thread\000"
 2110      68726561 
 2110      6400
 2111              	.LASF26:
 2112 033d 6D73675F 		.ascii	"msg_t\000"
 2112      7400
 2113              	.LASF107:
 2114 0343 6C617374 		.ascii	"last\000"
 2114      00
 2115              	.LASF29:
 2116 0348 75636E74 		.ascii	"ucnt_t\000"
 2116      5F7400
 2117              	.LASF82:
 2118 034f 63685F73 		.ascii	"ch_system_t\000"
 2118      79737465 
 2118      6D5F7400 
 2119              	.LASF22:
 2120 035b 746D6F64 		.ascii	"tmode_t\000"
 2120      655F7400 
 2121              	.LASF113:
 2122 0363 6D5F6372 		.ascii	"m_crit_isr\000"
 2122      69745F69 
 2122      737200
 2123              	.LASF58:
 2124 036e 63685F72 		.ascii	"ch_ready_list\000"
ARM GAS  /tmp/cctuDh6q.s 			page 41


 2124      65616479 
 2124      5F6C6973 
 2124      7400
 2125              	.LASF27:
 2126 037c 6576656E 		.ascii	"eventmask_t\000"
 2126      746D6173 
 2126      6B5F7400 
 2127              	.LASF7:
 2128 0388 5F5F696E 		.ascii	"__int32_t\000"
 2128      7433325F 
 2128      7400
 2129              	.LASF88:
 2130 0392 69646C65 		.ascii	"idle_thread_wa\000"
 2130      5F746872 
 2130      6561645F 
 2130      776100
 2131              	.LASF91:
 2132 03a1 73746B61 		.ascii	"stkalign_t\000"
 2132      6C69676E 
 2132      5F7400
 2133              	.LASF12:
 2134 03ac 5F5F7569 		.ascii	"__uint64_t\000"
 2134      6E743634 
 2134      5F7400
 2135              	.LASF43:
 2136 03b7 705F7761 		.ascii	"p_waiting\000"
 2136      6974696E 
 2136      6700
 2137              	.LASF89:
 2138 03c1 73697A65 		.ascii	"sizetype\000"
 2138      74797065 
 2138      00
 2139              	.LASF51:
 2140 03ca 74687265 		.ascii	"thread_reference_t\000"
 2140      61645F72 
 2140      65666572 
 2140      656E6365 
 2140      5F7400
 2141              	.LASF74:
 2142 03dd 63685F76 		.ascii	"ch_virtual_timers_list\000"
 2142      69727475 
 2142      616C5F74 
 2142      696D6572 
 2142      735F6C69 
 2143              	.LASF132:
 2144 03f4 636C6561 		.ascii	"clear\000"
 2144      7200
 2145              	.LASF98:
 2146 03fa 63685F73 		.ascii	"ch_swc_event_t\000"
 2146      77635F65 
 2146      76656E74 
 2146      5F7400
 2147              	.LASF75:
 2148 0409 76745F6C 		.ascii	"vt_lasttime\000"
 2148      61737474 
 2148      696D6500 
 2149              	.LASF37:
ARM GAS  /tmp/cctuDh6q.s 			page 42


 2150 0415 705F6F6C 		.ascii	"p_older\000"
 2150      64657200 
 2151              	.LASF61:
 2152 041d 725F6374 		.ascii	"r_ctx\000"
 2152      7800
 2153              	.LASF104:
 2154 0423 746D5F63 		.ascii	"tm_calibration_t\000"
 2154      616C6962 
 2154      72617469 
 2154      6F6E5F74 
 2154      00
 2155              	.LASF64:
 2156 0434 725F6375 		.ascii	"r_current\000"
 2156      7272656E 
 2156      7400
 2157              	.LASF63:
 2158 043e 725F6F6C 		.ascii	"r_older\000"
 2158      64657200 
 2159              	.LASF145:
 2160 0446 706F7274 		.ascii	"portid\000"
 2160      696400
 2161              	.LASF140:
 2162 044d 41465248 		.ascii	"AFRH\000"
 2162      00
 2163              	.LASF108:
 2164 0452 63756D75 		.ascii	"cumulative\000"
 2164      6C617469 
 2164      766500
 2165              	.LASF151:
 2166 045d 70616C53 		.ascii	"palSetBusMode\000"
 2166      65744275 
 2166      734D6F64 
 2166      6500
 2167              	.LASF139:
 2168 046b 4146524C 		.ascii	"AFRL\000"
 2168      00
 2169              	.LASF24:
 2170 0470 74726566 		.ascii	"trefs_t\000"
 2170      735F7400 
 2171              	.LASF101:
 2172 0478 74625F62 		.ascii	"tb_buffer\000"
 2172      75666665 
 2172      7200
 2173              	.LASF66:
 2174 0482 76697274 		.ascii	"virtual_timer_t\000"
 2174      75616C5F 
 2174      74696D65 
 2174      725F7400 
 2175              	.LASF33:
 2176 0492 705F7072 		.ascii	"p_prev\000"
 2176      657600
 2177              	.LASF25:
 2178 0499 74707269 		.ascii	"tprio_t\000"
 2178      6F5F7400 
 2179              	.LASF111:
 2180 04a1 6E5F6374 		.ascii	"n_ctxswc\000"
 2180      78737763 
ARM GAS  /tmp/cctuDh6q.s 			page 43


 2180      00
 2181              	.LASF131:
 2182 04aa 5F426F6F 		.ascii	"_Bool\000"
 2182      6C00
 2183              	.LASF16:
 2184 04b0 696E7433 		.ascii	"int32_t\000"
 2184      325F7400 
 2185              	.LASF2:
 2186 04b8 756E7369 		.ascii	"unsigned char\000"
 2186      676E6564 
 2186      20636861 
 2186      7200
 2187              	.LASF47:
 2188 04c6 705F6D74 		.ascii	"p_mtxlist\000"
 2188      786C6973 
 2188      7400
 2189              	.LASF3:
 2190 04d0 73686F72 		.ascii	"short int\000"
 2190      7420696E 
 2190      7400
 2191              	.LASF40:
 2192 04da 705F7374 		.ascii	"p_state\000"
 2192      61746500 
 2193              	.LASF60:
 2194 04e2 725F7072 		.ascii	"r_prio\000"
 2194      696F00
 2195              	.LASF121:
 2196 04e9 65776D61 		.ascii	"ewmask\000"
 2196      736B00
 2197              	.LASF32:
 2198 04f0 705F6E65 		.ascii	"p_next\000"
 2198      787400
 2199              	.LASF19:
 2200 04f7 75696E74 		.ascii	"uint_fast8_t\000"
 2200      5F666173 
 2200      74385F74 
 2200      00
 2201              	.LASF41:
 2202 0504 705F666C 		.ascii	"p_flags\000"
 2202      61677300 
 2203              	.LASF149:
 2204 050c 5F5F6675 		.ascii	"__func__\000"
 2204      6E635F5F 
 2204      00
 2205              	.LASF50:
 2206 0515 705F7374 		.ascii	"p_stats\000"
 2206      61747300 
 2207              	.LASF83:
 2208 051d 63685F73 		.ascii	"ch_system\000"
 2208      79737465 
 2208      6D00
 2209              	.LASF67:
 2210 0527 63685F76 		.ascii	"ch_virtual_timer\000"
 2210      69727475 
 2210      616C5F74 
 2210      696D6572 
 2210      00
ARM GAS  /tmp/cctuDh6q.s 			page 44


 2211              	.LASF122:
 2212 0538 63685F73 		.ascii	"ch_semaphore\000"
 2212      656D6170 
 2212      686F7265 
 2212      00
 2213              	.LASF46:
 2214 0545 705F6570 		.ascii	"p_epending\000"
 2214      656E6469 
 2214      6E6700
 2215              	.LASF17:
 2216 0550 75696E74 		.ascii	"uint32_t\000"
 2216      33325F74 
 2216      00
 2217              	.LASF120:
 2218 0559 77746D74 		.ascii	"wtmtxp\000"
 2218      787000
 2219              	.LASF59:
 2220 0560 725F7175 		.ascii	"r_queue\000"
 2220      65756500 
 2221              	.LASF70:
 2222 0568 76745F64 		.ascii	"vt_delta\000"
 2222      656C7461 
 2222      00
 2223              	.LASF54:
 2224 0571 63685F74 		.ascii	"ch_threads_list\000"
 2224      68726561 
 2224      64735F6C 
 2224      69737400 
 2225              	.LASF10:
 2226 0581 6C6F6E67 		.ascii	"long unsigned int\000"
 2226      20756E73 
 2226      69676E65 
 2226      6420696E 
 2226      7400
 2227              	.LASF129:
 2228 0593 63686172 		.ascii	"char\000"
 2228      00
 2229              	.LASF152:
 2230 0598 6D6F6465 		.ascii	"mode\000"
 2230      00
 2231              	.LASF156:
 2232 059d 70616C52 		.ascii	"palReadBus\000"
 2232      65616442 
 2232      757300
 2233              	.LASF5:
 2234 05a8 5F5F7569 		.ascii	"__uint16_t\000"
 2234      6E743136 
 2234      5F7400
 2235              	.LASF31:
 2236 05b3 74687265 		.ascii	"thread_t\000"
 2236      61645F74 
 2236      00
 2237              	.LASF105:
 2238 05bc 62657374 		.ascii	"best\000"
 2238      00
 2239              	.LASF128:
 2240 05c1 6D5F6E65 		.ascii	"m_next\000"
ARM GAS  /tmp/cctuDh6q.s 			page 45


 2240      787400
 2241              	.LASF30:
 2242 05c8 73797374 		.ascii	"systime_t\000"
 2242      696D655F 
 2242      7400
 2243              	.LASF48:
 2244 05d2 705F7265 		.ascii	"p_realprio\000"
 2244      616C7072 
 2244      696F00
 2245              	.LASF65:
 2246 05dd 76746675 		.ascii	"vtfunc_t\000"
 2246      6E635F74 
 2246      00
 2247              	.LASF9:
 2248 05e6 5F5F7569 		.ascii	"__uint32_t\000"
 2248      6E743332 
 2248      5F7400
 2249              	.LASF78:
 2250 05f1 70616E69 		.ascii	"panic_msg\000"
 2250      635F6D73 
 2250      6700
 2251              	.LASF103:
 2252 05fb 6F666673 		.ascii	"offset\000"
 2252      657400
 2253              	.LASF144:
 2254 0602 696F706F 		.ascii	"ioportid_t\000"
 2254      72746964 
 2254      5F7400
 2255              	.LASF92:
 2256 060d 636F6E74 		.ascii	"context\000"
 2256      65787400 
 2257              	.LASF20:
 2258 0615 7274636E 		.ascii	"rtcnt_t\000"
 2258      745F7400 
 2259              	.LASF72:
 2260 061d 76745F70 		.ascii	"vt_par\000"
 2260      617200
 2261              	.LASF150:
 2262 0624 70616C57 		.ascii	"palWriteBus\000"
 2262      72697465 
 2262      42757300 
 2263              	.LASF55:
 2264 0630 74687265 		.ascii	"threads_queue_t\000"
 2264      6164735F 
 2264      71756575 
 2264      655F7400 
 2265              	.LASF125:
 2266 0640 63685F6D 		.ascii	"ch_mutex\000"
 2266      75746578 
 2266      00
 2267              	.LASF42:
 2268 0649 705F7265 		.ascii	"p_refs\000"
 2268      667300
 2269              	.LASF79:
 2270 0650 6973725F 		.ascii	"isr_cnt\000"
 2270      636E7400 
 2271              	.LASF84:
ARM GAS  /tmp/cctuDh6q.s 			page 46


 2272 0658 726C6973 		.ascii	"rlist\000"
 2272      7400
 2273              	.LASF14:
 2274 065e 75696E74 		.ascii	"uint8_t\000"
 2274      385F7400 
 2275              	.LASF117:
 2276 0666 77746F62 		.ascii	"wtobjp\000"
 2276      6A7000
 2277              	.LASF38:
 2278 066d 705F6E61 		.ascii	"p_name\000"
 2278      6D6500
 2279              	.LASF52:
 2280 0674 74687265 		.ascii	"threads_list_t\000"
 2280      6164735F 
 2280      6C697374 
 2280      5F7400
 2281              	.LASF81:
 2282 0683 74726163 		.ascii	"trace_buffer\000"
 2282      655F6275 
 2282      66666572 
 2282      00
 2283              	.LASF45:
 2284 0690 705F6D73 		.ascii	"p_msg\000"
 2284      6700
 2285              	.LASF143:
 2286 0696 696F6D6F 		.ascii	"iomode_t\000"
 2286      64655F74 
 2286      00
 2287              	.LASF112:
 2288 069f 6D5F6372 		.ascii	"m_crit_thd\000"
 2288      69745F74 
 2288      686400
 2289              	.LASF127:
 2290 06aa 6D5F6F77 		.ascii	"m_owner\000"
 2290      6E657200 
 2291              	.LASF96:
 2292 06b2 73655F77 		.ascii	"se_wtobjp\000"
 2292      746F626A 
 2292      7000
 2293              	.LASF35:
 2294 06bc 705F6374 		.ascii	"p_ctx\000"
 2294      7800
 2295              	.LASF71:
 2296 06c2 76745F66 		.ascii	"vt_func\000"
 2296      756E6300 
 2297              		.ident	"GCC: (4.8.4-1+11-1) 4.8.4 20141219 (release)"
ARM GAS  /tmp/cctuDh6q.s 			page 47


DEFINED SYMBOLS
                            *ABS*:0000000000000000 pal.c
     /tmp/cctuDh6q.s:19     .text.palReadBus:0000000000000000 $t
     /tmp/cctuDh6q.s:25     .text.palReadBus:0000000000000000 palReadBus
     /tmp/cctuDh6q.s:70     .text.palReadBus:0000000000000034 $d
     /tmp/cctuDh6q.s:201    .rodata.__func__.7140:0000000000000000 __func__.7140
     /tmp/cctuDh6q.s:75     .text.palWriteBus:0000000000000000 $t
     /tmp/cctuDh6q.s:81     .text.palWriteBus:0000000000000000 palWriteBus
     /tmp/cctuDh6q.s:136    .text.palWriteBus:000000000000004c $d
     /tmp/cctuDh6q.s:207    .rodata.__func__.7145:0000000000000000 __func__.7145
     /tmp/cctuDh6q.s:141    .text.palSetBusMode:0000000000000000 $t
     /tmp/cctuDh6q.s:147    .text.palSetBusMode:0000000000000000 palSetBusMode
     /tmp/cctuDh6q.s:193    .text.palSetBusMode:000000000000003c $d
     /tmp/cctuDh6q.s:213    .rodata.__func__.7150:0000000000000000 __func__.7150
     /tmp/cctuDh6q.s:198    .rodata.__func__.7140:0000000000000000 $d
     /tmp/cctuDh6q.s:204    .rodata.__func__.7145:0000000000000000 $d
     /tmp/cctuDh6q.s:210    .rodata.__func__.7150:0000000000000000 $d
                     .debug_frame:0000000000000010 $d
     /tmp/cctuDh6q.s:74     .text.palReadBus:0000000000000038 $t

UNDEFINED SYMBOLS
chSysHalt
_pal_lld_setgroupmode
