ARM GAS  /tmp/cctuDh6q.s 			page 1


   1              		.syntax unified
   2              		.cpu cortex-m4
   3              		.fpu softvfp
   4              		.eabi_attribute 20, 1
   5              		.eabi_attribute 21, 1
   6              		.eabi_attribute 23, 3
   7              		.eabi_attribute 24, 1
   8              		.eabi_attribute 25, 1
   9              		.eabi_attribute 26, 1
  10              		.eabi_attribute 30, 6
  11              		.eabi_attribute 34, 1
  12              		.eabi_attribute 18, 4
  13              		.thumb
  14              		.file	"pal.c"
  15              		.text
  16              	.Ltext0:
  17              		.cfi_sections	.debug_frame
  18              		.section	.text.palReadBus,"ax",%progbits
  19              		.align	2
  20              		.p2align 4,,15
  21              		.global	palReadBus
  22              		.thumb
  23              		.thumb_func
  24              		.type	palReadBus, %function
  25              	palReadBus:
  26              	.LFB271:
  27              		.file 1 "/home/efe/ChibiOS/os/hal/src/pal.c"
  28              		.loc 1 65 0
  29              		.cfi_startproc
  30              		@ args = 0, pretend = 0, frame = 8
  31              		@ frame_needed = 0, uses_anonymous_args = 0
  32 0000 00B5     		push	{lr}
  33              		.cfi_def_cfa_offset 4
  34              		.cfi_offset 14, -4
  35 0002 83B0     		sub	sp, sp, #12
  36              		.cfi_def_cfa_offset 16
  37 0004 0190     		str	r0, [sp, #4]
  38              		.loc 1 67 0
  39 0006 019B     		ldr	r3, [sp, #4]
  40 0008 002B     		cmp	r3, #0
  41 000a 03D0     		beq	.L2
  42              		.loc 1 67 0 is_stmt 0 discriminator 2
  43 000c 019B     		ldr	r3, [sp, #4]
  44 000e 9B68     		ldr	r3, [r3, #8]
  45 0010 0F2B     		cmp	r3, #15
  46 0012 02D9     		bls	.L3
  47              	.L2:
  48              		.loc 1 67 0 discriminator 1
  49 0014 0748     		ldr	r0, .L5
  50 0016 FFF7FEFF 		bl	chSysHalt
  51              	.L3:
  52              		.loc 1 69 0 is_stmt 1
  53 001a 019B     		ldr	r3, [sp, #4]
  54 001c 1B68     		ldr	r3, [r3]
  55 001e 1A69     		ldr	r2, [r3, #16]
  56 0020 019B     		ldr	r3, [sp, #4]
  57 0022 9B68     		ldr	r3, [r3, #8]
ARM GAS  /tmp/cctuDh6q.s 			page 2


  58 0024 DA40     		lsrs	r2, r2, r3
  59 0026 019B     		ldr	r3, [sp, #4]
  60 0028 5B68     		ldr	r3, [r3, #4]
  61 002a 1340     		ands	r3, r3, r2
  62              		.loc 1 70 0
  63 002c 1846     		mov	r0, r3
  64 002e 03B0     		add	sp, sp, #12
  65              		@ sp needed
  66 0030 5DF804FB 		ldr	pc, [sp], #4
  67              	.L6:
  68              		.align	2
  69              	.L5:
  70 0034 00000000 		.word	__func__.7140
  71              		.cfi_endproc
  72              	.LFE271:
  73              		.size	palReadBus, .-palReadBus
  74 0038 AFF30080 		.section	.text.palWriteBus,"ax",%progbits
  74      AFF30080 
  75              		.align	2
  76              		.p2align 4,,15
  77              		.global	palWriteBus
  78              		.thumb
  79              		.thumb_func
  80              		.type	palWriteBus, %function
  81              	palWriteBus:
  82              	.LFB272:
  83              		.loc 1 90 0
  84              		.cfi_startproc
  85              		@ args = 0, pretend = 0, frame = 8
  86              		@ frame_needed = 0, uses_anonymous_args = 0
  87 0000 00B5     		push	{lr}
  88              		.cfi_def_cfa_offset 4
  89              		.cfi_offset 14, -4
  90 0002 83B0     		sub	sp, sp, #12
  91              		.cfi_def_cfa_offset 16
  92 0004 0190     		str	r0, [sp, #4]
  93 0006 0091     		str	r1, [sp]
  94              		.loc 1 92 0
  95 0008 019B     		ldr	r3, [sp, #4]
  96 000a 002B     		cmp	r3, #0
  97 000c 03D0     		beq	.L8
  98              		.loc 1 92 0 is_stmt 0 discriminator 2
  99 000e 019B     		ldr	r3, [sp, #4]
 100 0010 9B68     		ldr	r3, [r3, #8]
 101 0012 0F2B     		cmp	r3, #15
 102 0014 02D9     		bls	.L9
 103              	.L8:
 104              		.loc 1 92 0 discriminator 1
 105 0016 0D48     		ldr	r0, .L10
 106 0018 FFF7FEFF 		bl	chSysHalt
 107              	.L9:
 108              		.loc 1 94 0 is_stmt 1
 109 001c 019B     		ldr	r3, [sp, #4]
 110 001e 1B68     		ldr	r3, [r3]
 111 0020 009A     		ldr	r2, [sp]
 112 0022 D143     		mvns	r1, r2
 113 0024 019A     		ldr	r2, [sp, #4]
ARM GAS  /tmp/cctuDh6q.s 			page 3


 114 0026 5268     		ldr	r2, [r2, #4]
 115 0028 1140     		ands	r1, r1, r2
 116 002a 019A     		ldr	r2, [sp, #4]
 117 002c 9268     		ldr	r2, [r2, #8]
 118 002e 1032     		adds	r2, r2, #16
 119 0030 9140     		lsls	r1, r1, r2
 120 0032 019A     		ldr	r2, [sp, #4]
 121 0034 5068     		ldr	r0, [r2, #4]
 122 0036 009A     		ldr	r2, [sp]
 123 0038 1040     		ands	r0, r0, r2
 124 003a 019A     		ldr	r2, [sp, #4]
 125 003c 9268     		ldr	r2, [r2, #8]
 126 003e 00FA02F2 		lsl	r2, r0, r2
 127 0042 0A43     		orrs	r2, r2, r1
 128 0044 9A61     		str	r2, [r3, #24]
 129              		.loc 1 95 0
 130 0046 03B0     		add	sp, sp, #12
 131              		@ sp needed
 132 0048 5DF804FB 		ldr	pc, [sp], #4
 133              	.L11:
 134              		.align	2
 135              	.L10:
 136 004c 00000000 		.word	__func__.7145
 137              		.cfi_endproc
 138              	.LFE272:
 139              		.size	palWriteBus, .-palWriteBus
 140              		.section	.text.palSetBusMode,"ax",%progbits
 141              		.align	2
 142              		.p2align 4,,15
 143              		.global	palSetBusMode
 144              		.thumb
 145              		.thumb_func
 146              		.type	palSetBusMode, %function
 147              	palSetBusMode:
 148              	.LFB273:
 149              		.loc 1 113 0
 150              		.cfi_startproc
 151              		@ args = 0, pretend = 0, frame = 8
 152              		@ frame_needed = 0, uses_anonymous_args = 0
 153 0000 00B5     		push	{lr}
 154              		.cfi_def_cfa_offset 4
 155              		.cfi_offset 14, -4
 156 0002 83B0     		sub	sp, sp, #12
 157              		.cfi_def_cfa_offset 16
 158 0004 0190     		str	r0, [sp, #4]
 159 0006 0091     		str	r1, [sp]
 160              		.loc 1 115 0
 161 0008 019B     		ldr	r3, [sp, #4]
 162 000a 002B     		cmp	r3, #0
 163 000c 03D0     		beq	.L13
 164              		.loc 1 115 0 is_stmt 0 discriminator 2
 165 000e 019B     		ldr	r3, [sp, #4]
 166 0010 9B68     		ldr	r3, [r3, #8]
 167 0012 0F2B     		cmp	r3, #15
 168 0014 02D9     		bls	.L14
 169              	.L13:
 170              		.loc 1 115 0 discriminator 1
ARM GAS  /tmp/cctuDh6q.s 			page 4


 171 0016 0948     		ldr	r0, .L15
 172 0018 FFF7FEFF 		bl	chSysHalt
 173              	.L14:
 174              		.loc 1 117 0 is_stmt 1
 175 001c 019B     		ldr	r3, [sp, #4]
 176 001e 1A68     		ldr	r2, [r3]
 177 0020 019B     		ldr	r3, [sp, #4]
 178 0022 5968     		ldr	r1, [r3, #4]
 179 0024 019B     		ldr	r3, [sp, #4]
 180 0026 9B68     		ldr	r3, [r3, #8]
 181 0028 01FA03F3 		lsl	r3, r1, r3
 182 002c 1046     		mov	r0, r2
 183 002e 1946     		mov	r1, r3
 184 0030 009A     		ldr	r2, [sp]
 185 0032 FFF7FEFF 		bl	_pal_lld_setgroupmode
 186              		.loc 1 118 0
 187 0036 03B0     		add	sp, sp, #12
 188              		@ sp needed
 189 0038 5DF804FB 		ldr	pc, [sp], #4
 190              	.L16:
 191              		.align	2
 192              	.L15:
 193 003c 00000000 		.word	__func__.7150
 194              		.cfi_endproc
 195              	.LFE273:
 196              		.size	palSetBusMode, .-palSetBusMode
 197              		.section	.rodata.__func__.7140,"a",%progbits
 198              		.align	2
 199              		.type	__func__.7140, %object
 200              		.size	__func__.7140, 11
 201              	__func__.7140:
 202 0000 70616C52 		.ascii	"palReadBus\000"
 202      65616442 
 202      757300
 203 000b 00       		.section	.rodata.__func__.7145,"a",%progbits
 204              		.align	2
 205              		.type	__func__.7145, %object
 206              		.size	__func__.7145, 12
 207              	__func__.7145:
 208 0000 70616C57 		.ascii	"palWriteBus\000"
 208      72697465 
 208      42757300 
 209              		.section	.rodata.__func__.7150,"a",%progbits
 210              		.align	2
 211              		.type	__func__.7150, %object
 212              		.size	__func__.7150, 14
 213              	__func__.7150:
 214 0000 70616C53 		.ascii	"palSetBusMode\000"
 214      65744275 
 214      734D6F64 
 214      6500
 215 000e 0000     		.text
 216              	.Letext0:
 217              		.file 2 "/usr/include/newlib/machine/_default_types.h"
 218              		.file 3 "/usr/include/newlib/stdint.h"
 219              		.file 4 "/home/efe/ChibiOS/os/rt/ports/ARMCMx/compilers/GCC/chtypes.h"
 220              		.file 5 "/home/efe/ChibiOS/os/rt/include/chsystypes.h"
ARM GAS  /tmp/cctuDh6q.s 			page 5


 221              		.file 6 "/home/efe/ChibiOS/os/rt/include/chschd.h"
 222              		.file 7 "/home/efe/ChibiOS/os/rt/ports/ARMCMx/chcore.h"
 223              		.file 8 "/home/efe/ChibiOS/os/rt/ports/ARMCMx/chcore_v7m.h"
 224              		.file 9 "/home/efe/ChibiOS/os/rt/include/chdebug.h"
 225              		.file 10 "/home/efe/ChibiOS/os/rt/include/chtm.h"
 226              		.file 11 "/home/efe/ChibiOS/os/rt/include/chstats.h"
 227              		.file 12 "/home/efe/ChibiOS/os/rt/include/chsem.h"
 228              		.file 13 "/home/efe/ChibiOS/os/rt/include/chmtx.h"
 229              		.file 14 "/home/efe/ChibiOS/os/hal/ports/STM32/LLD/GPIOv2/pal_lld.h"
 230              		.file 15 "/home/efe/ChibiOS/os/hal/include/pal.h"
 231              		.file 16 "/home/efe/ChibiOS/os/ext/CMSIS/include/core_cm4.h"