ARM GAS  /tmp/ccwSLn2e.s 			page 1


   1              		.syntax unified
   2              		.cpu cortex-m4
   3              		.fpu softvfp
   4              		.eabi_attribute 20, 1
   5              		.eabi_attribute 21, 1
   6              		.eabi_attribute 23, 3
   7              		.eabi_attribute 24, 1
   8              		.eabi_attribute 25, 1
   9              		.eabi_attribute 26, 1
  10              		.eabi_attribute 30, 6
  11              		.eabi_attribute 34, 1
  12              		.eabi_attribute 18, 4
  13              		.thumb
  14              		.file	"pal_lld.c"
  15              		.text
  16              	.Ltext0:
  17              		.cfi_sections	.debug_frame
  18              		.section	.text.initgpio,"ax",%progbits
  19              		.align	2
  20              		.p2align 4,,15
  21              		.thumb
  22              		.thumb_func
  23              		.type	initgpio, %function
  24              	initgpio:
  25              	.LFB271:
  26              		.file 1 "/home/efe/ChibiOS/os/hal/ports/STM32/LLD/GPIOv2/pal_lld.c"
  27              		.loc 1 61 0
  28              		.cfi_startproc
  29              		@ args = 0, pretend = 0, frame = 8
  30              		@ frame_needed = 0, uses_anonymous_args = 0
  31              		@ link register save eliminated.
  32 0000 82B0     		sub	sp, sp, #8
  33              		.cfi_def_cfa_offset 8
  34 0002 0190     		str	r0, [sp, #4]
  35 0004 0091     		str	r1, [sp]
  36              		.loc 1 63 0
  37 0006 009B     		ldr	r3, [sp]
  38 0008 5A68     		ldr	r2, [r3, #4]
  39 000a 019B     		ldr	r3, [sp, #4]
  40 000c 5A60     		str	r2, [r3, #4]
  41              		.loc 1 64 0
  42 000e 009B     		ldr	r3, [sp]
  43 0010 9A68     		ldr	r2, [r3, #8]
  44 0012 019B     		ldr	r3, [sp, #4]
  45 0014 9A60     		str	r2, [r3, #8]
  46              		.loc 1 65 0
  47 0016 009B     		ldr	r3, [sp]
  48 0018 DA68     		ldr	r2, [r3, #12]
  49 001a 019B     		ldr	r3, [sp, #4]
  50 001c DA60     		str	r2, [r3, #12]
  51              		.loc 1 66 0
  52 001e 009B     		ldr	r3, [sp]
  53 0020 1A69     		ldr	r2, [r3, #16]
  54 0022 019B     		ldr	r3, [sp, #4]
  55 0024 5A61     		str	r2, [r3, #20]
  56              		.loc 1 67 0
  57 0026 009B     		ldr	r3, [sp]
ARM GAS  /tmp/ccwSLn2e.s 			page 2


  58 0028 5A69     		ldr	r2, [r3, #20]
  59 002a 019B     		ldr	r3, [sp, #4]
  60 002c 1A62     		str	r2, [r3, #32]
  61              		.loc 1 68 0
  62 002e 009B     		ldr	r3, [sp]
  63 0030 9A69     		ldr	r2, [r3, #24]
  64 0032 019B     		ldr	r3, [sp, #4]
  65 0034 5A62     		str	r2, [r3, #36]
  66              		.loc 1 69 0
  67 0036 009B     		ldr	r3, [sp]
  68 0038 1A68     		ldr	r2, [r3]
  69 003a 019B     		ldr	r3, [sp, #4]
  70 003c 1A60     		str	r2, [r3]
  71              		.loc 1 70 0
  72 003e 02B0     		add	sp, sp, #8
  73              		@ sp needed
  74 0040 7047     		bx	lr
  75              		.cfi_endproc
  76              	.LFE271:
  77              		.size	initgpio, .-initgpio
  78 0042 00BFAFF3 		.section	.text._pal_lld_init,"ax",%progbits
  78      0080AFF3 
  78      0080AFF3 
  78      0080
  79              		.align	2
  80              		.p2align 4,,15
  81              		.global	_pal_lld_init
  82              		.thumb
  83              		.thumb_func
  84              		.type	_pal_lld_init, %function
  85              	_pal_lld_init:
  86              	.LFB272:
  87              		.loc 1 88 0
  88              		.cfi_startproc
  89              		@ args = 0, pretend = 0, frame = 8
  90              		@ frame_needed = 0, uses_anonymous_args = 0
  91 0000 00B5     		push	{lr}
  92              		.cfi_def_cfa_offset 4
  93              		.cfi_offset 14, -4
  94 0002 83B0     		sub	sp, sp, #12
  95              		.cfi_def_cfa_offset 16
  96 0004 0190     		str	r0, [sp, #4]
  97              		.loc 1 104 0
  98 0006 244A     		ldr	r2, .L3
  99 0008 234B     		ldr	r3, .L3
 100 000a 1B6B     		ldr	r3, [r3, #48]
 101 000c 6FEA5323 		mvn	r3, r3, lsr #9
 102 0010 6FEA4323 		mvn	r3, r3, lsl #9
 103 0014 1363     		str	r3, [r2, #48]
 104              		.loc 1 105 0
 105 0016 204A     		ldr	r2, .L3
 106 0018 1F4B     		ldr	r3, .L3
 107 001a 1B6D     		ldr	r3, [r3, #80]
 108 001c 6FEA5323 		mvn	r3, r3, lsr #9
 109 0020 6FEA4323 		mvn	r3, r3, lsl #9
 110 0024 1365     		str	r3, [r2, #80]
 111              		.loc 1 112 0
ARM GAS  /tmp/ccwSLn2e.s 			page 3


 112 0026 019B     		ldr	r3, [sp, #4]
 113 0028 1C48     		ldr	r0, .L3+4
 114 002a 1946     		mov	r1, r3
 115 002c FFF7FEFF 		bl	initgpio
 116              		.loc 1 115 0
 117 0030 019B     		ldr	r3, [sp, #4]
 118 0032 1C33     		adds	r3, r3, #28
 119 0034 1A48     		ldr	r0, .L3+8
 120 0036 1946     		mov	r1, r3
 121 0038 FFF7FEFF 		bl	initgpio
 122              		.loc 1 118 0
 123 003c 019B     		ldr	r3, [sp, #4]
 124 003e 3833     		adds	r3, r3, #56
 125 0040 1848     		ldr	r0, .L3+12
 126 0042 1946     		mov	r1, r3
 127 0044 FFF7FEFF 		bl	initgpio
 128              		.loc 1 121 0
 129 0048 019B     		ldr	r3, [sp, #4]
 130 004a 5433     		adds	r3, r3, #84
 131 004c 1648     		ldr	r0, .L3+16
 132 004e 1946     		mov	r1, r3
 133 0050 FFF7FEFF 		bl	initgpio
 134              		.loc 1 124 0
 135 0054 019B     		ldr	r3, [sp, #4]
 136 0056 7033     		adds	r3, r3, #112
 137 0058 1448     		ldr	r0, .L3+20
 138 005a 1946     		mov	r1, r3
 139 005c FFF7FEFF 		bl	initgpio
 140              		.loc 1 127 0
 141 0060 019B     		ldr	r3, [sp, #4]
 142 0062 8C33     		adds	r3, r3, #140
 143 0064 1248     		ldr	r0, .L3+24
 144 0066 1946     		mov	r1, r3
 145 0068 FFF7FEFF 		bl	initgpio
 146              		.loc 1 130 0
 147 006c 019B     		ldr	r3, [sp, #4]
 148 006e A833     		adds	r3, r3, #168
 149 0070 1048     		ldr	r0, .L3+28
 150 0072 1946     		mov	r1, r3
 151 0074 FFF7FEFF 		bl	initgpio
 152              		.loc 1 133 0
 153 0078 019B     		ldr	r3, [sp, #4]
 154 007a C433     		adds	r3, r3, #196
 155 007c 0E48     		ldr	r0, .L3+32
 156 007e 1946     		mov	r1, r3
 157 0080 FFF7FEFF 		bl	initgpio
 158              		.loc 1 136 0
 159 0084 019B     		ldr	r3, [sp, #4]
 160 0086 E033     		adds	r3, r3, #224
 161 0088 0C48     		ldr	r0, .L3+36
 162 008a 1946     		mov	r1, r3
 163 008c FFF7FEFF 		bl	initgpio
 164              		.loc 1 144 0
 165 0090 03B0     		add	sp, sp, #12
 166              		@ sp needed
 167 0092 5DF804FB 		ldr	pc, [sp], #4
 168              	.L4:
ARM GAS  /tmp/ccwSLn2e.s 			page 4


 169 0096 00BF     		.align	2
 170              	.L3:
 171 0098 00380240 		.word	1073887232
 172 009c 00000240 		.word	1073872896
 173 00a0 00040240 		.word	1073873920
 174 00a4 00080240 		.word	1073874944
 175 00a8 000C0240 		.word	1073875968
 176 00ac 00100240 		.word	1073876992
 177 00b0 00140240 		.word	1073878016
 178 00b4 00180240 		.word	1073879040
 179 00b8 001C0240 		.word	1073880064
 180 00bc 00200240 		.word	1073881088
 181              		.cfi_endproc
 182              	.LFE272:
 183              		.size	_pal_lld_init, .-_pal_lld_init
 184              		.section	.text._pal_lld_setgroupmode,"ax",%progbits
 185              		.align	2
 186              		.p2align 4,,15
 187              		.global	_pal_lld_setgroupmode
 188              		.thumb
 189              		.thumb_func
 190              		.type	_pal_lld_setgroupmode, %function
 191              	_pal_lld_setgroupmode:
 192              	.LFB273:
 193              		.loc 1 162 0
 194              		.cfi_startproc
 195              		@ args = 0, pretend = 0, frame = 56
 196              		@ frame_needed = 0, uses_anonymous_args = 0
 197              		@ link register save eliminated.
 198 0000 8EB0     		sub	sp, sp, #56
 199              		.cfi_def_cfa_offset 56
 200 0002 0390     		str	r0, [sp, #12]
 201 0004 0291     		str	r1, [sp, #8]
 202 0006 0192     		str	r2, [sp, #4]
 203              		.loc 1 164 0
 204 0008 019B     		ldr	r3, [sp, #4]
 205 000a 03F00303 		and	r3, r3, #3
 206 000e 0D93     		str	r3, [sp, #52]
 207              		.loc 1 165 0
 208 0010 019B     		ldr	r3, [sp, #4]
 209 0012 03F00403 		and	r3, r3, #4
 210 0016 9B08     		lsrs	r3, r3, #2
 211 0018 0C93     		str	r3, [sp, #48]
 212              		.loc 1 166 0
 213 001a 019B     		ldr	r3, [sp, #4]
 214 001c 03F01803 		and	r3, r3, #24
 215 0020 DB08     		lsrs	r3, r3, #3
 216 0022 0B93     		str	r3, [sp, #44]
 217              		.loc 1 167 0
 218 0024 019B     		ldr	r3, [sp, #4]
 219 0026 03F06003 		and	r3, r3, #96
 220 002a 5B09     		lsrs	r3, r3, #5
 221 002c 0A93     		str	r3, [sp, #40]
 222              		.loc 1 168 0
 223 002e 019B     		ldr	r3, [sp, #4]
 224 0030 03F4F063 		and	r3, r3, #1920
 225 0034 DB09     		lsrs	r3, r3, #7
ARM GAS  /tmp/ccwSLn2e.s 			page 5


 226 0036 0893     		str	r3, [sp, #32]
 227              		.loc 1 169 0
 228 0038 0023     		movs	r3, #0
 229 003a 0993     		str	r3, [sp, #36]
 230              	.L11:
 231              		.loc 1 171 0
 232 003c 029B     		ldr	r3, [sp, #8]
 233 003e 03F00103 		and	r3, r3, #1
 234 0042 002B     		cmp	r3, #0
 235 0044 54D0     		beq	.L6
 236              	.LBB2:
 237              		.loc 1 174 0
 238 0046 099B     		ldr	r3, [sp, #36]
 239 0048 03F00703 		and	r3, r3, #7
 240 004c 9B00     		lsls	r3, r3, #2
 241 004e 089A     		ldr	r2, [sp, #32]
 242 0050 02FA03F3 		lsl	r3, r2, r3
 243 0054 0793     		str	r3, [sp, #28]
 244              		.loc 1 175 0
 245 0056 099B     		ldr	r3, [sp, #36]
 246 0058 03F00703 		and	r3, r3, #7
 247 005c 9B00     		lsls	r3, r3, #2
 248 005e 0F22     		movs	r2, #15
 249 0060 02FA03F3 		lsl	r3, r2, r3
 250 0064 0693     		str	r3, [sp, #24]
 251              		.loc 1 176 0
 252 0066 099B     		ldr	r3, [sp, #36]
 253 0068 072B     		cmp	r3, #7
 254 006a 09D8     		bhi	.L7
 255              		.loc 1 177 0
 256 006c 039B     		ldr	r3, [sp, #12]
 257 006e 1A6A     		ldr	r2, [r3, #32]
 258 0070 069B     		ldr	r3, [sp, #24]
 259 0072 DB43     		mvns	r3, r3
 260 0074 1A40     		ands	r2, r2, r3
 261 0076 079B     		ldr	r3, [sp, #28]
 262 0078 1A43     		orrs	r2, r2, r3
 263 007a 039B     		ldr	r3, [sp, #12]
 264 007c 1A62     		str	r2, [r3, #32]
 265 007e 08E0     		b	.L8
 266              	.L7:
 267              		.loc 1 179 0
 268 0080 039B     		ldr	r3, [sp, #12]
 269 0082 5A6A     		ldr	r2, [r3, #36]
 270 0084 069B     		ldr	r3, [sp, #24]
 271 0086 DB43     		mvns	r3, r3
 272 0088 1A40     		ands	r2, r2, r3
 273 008a 079B     		ldr	r3, [sp, #28]
 274 008c 1A43     		orrs	r2, r2, r3
 275 008e 039B     		ldr	r3, [sp, #12]
 276 0090 5A62     		str	r2, [r3, #36]
 277              	.L8:
 278              		.loc 1 180 0
 279 0092 099B     		ldr	r3, [sp, #36]
 280 0094 0122     		movs	r2, #1
 281 0096 02FA03F3 		lsl	r3, r2, r3
 282 009a 0593     		str	r3, [sp, #20]
ARM GAS  /tmp/ccwSLn2e.s 			page 6


 283              		.loc 1 181 0
 284 009c 039B     		ldr	r3, [sp, #12]
 285 009e 5A68     		ldr	r2, [r3, #4]
 286 00a0 059B     		ldr	r3, [sp, #20]
 287 00a2 DB43     		mvns	r3, r3
 288 00a4 1A40     		ands	r2, r2, r3
 289 00a6 0C9B     		ldr	r3, [sp, #48]
 290 00a8 1A43     		orrs	r2, r2, r3
 291 00aa 039B     		ldr	r3, [sp, #12]
 292 00ac 5A60     		str	r2, [r3, #4]
 293              		.loc 1 182 0
 294 00ae 099B     		ldr	r3, [sp, #36]
 295 00b0 5B00     		lsls	r3, r3, #1
 296 00b2 0322     		movs	r2, #3
 297 00b4 02FA03F3 		lsl	r3, r2, r3
 298 00b8 0493     		str	r3, [sp, #16]
 299              		.loc 1 183 0
 300 00ba 039B     		ldr	r3, [sp, #12]
 301 00bc 9A68     		ldr	r2, [r3, #8]
 302 00be 049B     		ldr	r3, [sp, #16]
 303 00c0 DB43     		mvns	r3, r3
 304 00c2 1A40     		ands	r2, r2, r3
 305 00c4 0B9B     		ldr	r3, [sp, #44]
 306 00c6 1A43     		orrs	r2, r2, r3
 307 00c8 039B     		ldr	r3, [sp, #12]
 308 00ca 9A60     		str	r2, [r3, #8]
 309              		.loc 1 184 0
 310 00cc 039B     		ldr	r3, [sp, #12]
 311 00ce DA68     		ldr	r2, [r3, #12]
 312 00d0 049B     		ldr	r3, [sp, #16]
 313 00d2 DB43     		mvns	r3, r3
 314 00d4 1A40     		ands	r2, r2, r3
 315 00d6 0A9B     		ldr	r3, [sp, #40]
 316 00d8 1A43     		orrs	r2, r2, r3
 317 00da 039B     		ldr	r3, [sp, #12]
 318 00dc DA60     		str	r2, [r3, #12]
 319              		.loc 1 185 0
 320 00de 039B     		ldr	r3, [sp, #12]
 321 00e0 1A68     		ldr	r2, [r3]
 322 00e2 049B     		ldr	r3, [sp, #16]
 323 00e4 DB43     		mvns	r3, r3
 324 00e6 1A40     		ands	r2, r2, r3
 325 00e8 0D9B     		ldr	r3, [sp, #52]
 326 00ea 1A43     		orrs	r2, r2, r3
 327 00ec 039B     		ldr	r3, [sp, #12]
 328 00ee 1A60     		str	r2, [r3]
 329              	.L6:
 330              	.LBE2:
 331              		.loc 1 187 0
 332 00f0 029B     		ldr	r3, [sp, #8]
 333 00f2 5B08     		lsrs	r3, r3, #1
 334 00f4 0293     		str	r3, [sp, #8]
 335              		.loc 1 188 0
 336 00f6 029B     		ldr	r3, [sp, #8]
 337 00f8 002B     		cmp	r3, #0
 338 00fa 00D1     		bne	.L9
 339              		.loc 1 189 0
ARM GAS  /tmp/ccwSLn2e.s 			page 7


 340 00fc 0FE0     		b	.L12
 341              	.L9:
 342              		.loc 1 190 0
 343 00fe 0C9B     		ldr	r3, [sp, #48]
 344 0100 5B00     		lsls	r3, r3, #1
 345 0102 0C93     		str	r3, [sp, #48]
 346              		.loc 1 191 0
 347 0104 0B9B     		ldr	r3, [sp, #44]
 348 0106 9B00     		lsls	r3, r3, #2
 349 0108 0B93     		str	r3, [sp, #44]
 350              		.loc 1 192 0
 351 010a 0A9B     		ldr	r3, [sp, #40]
 352 010c 9B00     		lsls	r3, r3, #2
 353 010e 0A93     		str	r3, [sp, #40]
 354              		.loc 1 193 0
 355 0110 0D9B     		ldr	r3, [sp, #52]
 356 0112 9B00     		lsls	r3, r3, #2
 357 0114 0D93     		str	r3, [sp, #52]
 358              		.loc 1 194 0
 359 0116 099B     		ldr	r3, [sp, #36]
 360 0118 0133     		adds	r3, r3, #1
 361 011a 0993     		str	r3, [sp, #36]
 362              		.loc 1 195 0
 363 011c 8EE7     		b	.L11
 364              	.L12:
 365              		.loc 1 196 0
 366 011e 0EB0     		add	sp, sp, #56
 367              		@ sp needed
 368 0120 7047     		bx	lr
 369              		.cfi_endproc
 370              	.LFE273:
 371              		.size	_pal_lld_setgroupmode, .-_pal_lld_setgroupmode
 372 0122 00BFAFF3 		.text
 372      0080AFF3 
 372      0080AFF3 
 372      0080
 373              	.Letext0:
 374              		.file 2 "/usr/include/newlib/machine/_default_types.h"
 375              		.file 3 "/usr/include/newlib/stdint.h"
 376              		.file 4 "/home/efe/ChibiOS/os/rt/ports/ARMCMx/compilers/GCC/chtypes.h"
 377              		.file 5 "/home/efe/ChibiOS/os/rt/include/chsystypes.h"
 378              		.file 6 "/home/efe/ChibiOS/os/rt/include/chschd.h"
 379              		.file 7 "/home/efe/ChibiOS/os/ext/CMSIS/ST/stm32f407xx.h"
 380              		.file 8 "/home/efe/ChibiOS/os/rt/ports/ARMCMx/chcore.h"
 381              		.file 9 "/home/efe/ChibiOS/os/rt/ports/ARMCMx/chcore_v7m.h"
 382              		.file 10 "/home/efe/ChibiOS/os/rt/include/chdebug.h"
 383              		.file 11 "/home/efe/ChibiOS/os/rt/include/chtm.h"
 384              		.file 12 "/home/efe/ChibiOS/os/rt/include/chstats.h"
 385              		.file 13 "/home/efe/ChibiOS/os/rt/include/chsem.h"
 386              		.file 14 "/home/efe/ChibiOS/os/rt/include/chmtx.h"
 387              		.file 15 "/home/efe/ChibiOS/os/hal/ports/STM32/LLD/GPIOv2/pal_lld.h"
 388              		.file 16 "/home/efe/ChibiOS/os/ext/CMSIS/include/core_cm4.h"
 389              		.section	.debug_info,"",%progbits
 390              	.Ldebug_info0:
 391 0000 B70C0000 		.4byte	0xcb7
 392 0004 0400     		.2byte	0x4
 393 0006 00000000 		.4byte	.Ldebug_abbrev0
ARM GAS  /tmp/ccwSLn2e.s 			page 8


 394 000a 04       		.byte	0x4
 395 000b 01       		.uleb128 0x1
 396 000c CD010000 		.4byte	.LASF199
 397 0010 01       		.byte	0x1
 398 0011 0B030000 		.4byte	.LASF200
 399 0015 00000000 		.4byte	.Ldebug_ranges0+0
 400 0019 00000000 		.4byte	0
 401 001d 00000000 		.4byte	.Ldebug_line0
 402 0021 02       		.uleb128 0x2
 403 0022 04       		.byte	0x4
 404 0023 05       		.byte	0x5
 405 0024 696E7400 		.ascii	"int\000"
 406 0028 03       		.uleb128 0x3
 407 0029 04       		.byte	0x4
 408 002a 07       		.byte	0x7
 409 002b 50030000 		.4byte	.LASF0
 410 002f 03       		.uleb128 0x3
 411 0030 01       		.byte	0x1
 412 0031 06       		.byte	0x6
 413 0032 4C010000 		.4byte	.LASF1
 414 0036 04       		.uleb128 0x4
 415 0037 45000000 		.4byte	.LASF4
 416 003b 02       		.byte	0x2
 417 003c 1D       		.byte	0x1d
 418 003d 41000000 		.4byte	0x41
 419 0041 03       		.uleb128 0x3
 420 0042 01       		.byte	0x1
 421 0043 08       		.byte	0x8
 422 0044 BA050000 		.4byte	.LASF2
 423 0048 03       		.uleb128 0x3
 424 0049 02       		.byte	0x2
 425 004a 05       		.byte	0x5
 426 004b DD050000 		.4byte	.LASF3
 427 004f 04       		.uleb128 0x4
 428 0050 CE060000 		.4byte	.LASF5
 429 0054 02       		.byte	0x2
 430 0055 2B       		.byte	0x2b
 431 0056 5A000000 		.4byte	0x5a
 432 005a 03       		.uleb128 0x3
 433 005b 02       		.byte	0x2
 434 005c 07       		.byte	0x7
 435 005d 91030000 		.4byte	.LASF6
 436 0061 04       		.uleb128 0x4
 437 0062 2C040000 		.4byte	.LASF7
 438 0066 02       		.byte	0x2
 439 0067 3F       		.byte	0x3f
 440 0068 6C000000 		.4byte	0x6c
 441 006c 03       		.uleb128 0x3
 442 006d 04       		.byte	0x4
 443 006e 05       		.byte	0x5
 444 006f 92010000 		.4byte	.LASF8
 445 0073 04       		.uleb128 0x4
 446 0074 15070000 		.4byte	.LASF9
 447 0078 02       		.byte	0x2
 448 0079 41       		.byte	0x41
 449 007a 7E000000 		.4byte	0x7e
 450 007e 03       		.uleb128 0x3
ARM GAS  /tmp/ccwSLn2e.s 			page 9


 451 007f 04       		.byte	0x4
 452 0080 07       		.byte	0x7
 453 0081 A6060000 		.4byte	.LASF10
 454 0085 03       		.uleb128 0x3
 455 0086 08       		.byte	0x8
 456 0087 05       		.byte	0x5
 457 0088 3E010000 		.4byte	.LASF11
 458 008c 04       		.uleb128 0x4
 459 008d 23050000 		.4byte	.LASF12
 460 0091 02       		.byte	0x2
 461 0092 5B       		.byte	0x5b
 462 0093 97000000 		.4byte	0x97
 463 0097 03       		.uleb128 0x3
 464 0098 08       		.byte	0x8
 465 0099 07       		.byte	0x7
 466 009a B5000000 		.4byte	.LASF13
 467 009e 04       		.uleb128 0x4
 468 009f E0070000 		.4byte	.LASF14
 469 00a3 03       		.byte	0x3
 470 00a4 2A       		.byte	0x2a
 471 00a5 36000000 		.4byte	0x36
 472 00a9 04       		.uleb128 0x4
 473 00aa BB010000 		.4byte	.LASF15
 474 00ae 03       		.byte	0x3
 475 00af 36       		.byte	0x36
 476 00b0 4F000000 		.4byte	0x4f
 477 00b4 04       		.uleb128 0x4
 478 00b5 B2050000 		.4byte	.LASF16
 479 00b9 03       		.byte	0x3
 480 00ba 41       		.byte	0x41
 481 00bb 61000000 		.4byte	0x61
 482 00bf 04       		.uleb128 0x4
 483 00c0 75060000 		.4byte	.LASF17
 484 00c4 03       		.byte	0x3
 485 00c5 42       		.byte	0x42
 486 00c6 73000000 		.4byte	0x73
 487 00ca 04       		.uleb128 0x4
 488 00cb 3C000000 		.4byte	.LASF18
 489 00cf 03       		.byte	0x3
 490 00d0 4E       		.byte	0x4e
 491 00d1 8C000000 		.4byte	0x8c
 492 00d5 05       		.uleb128 0x5
 493 00d6 B4000000 		.4byte	0xb4
 494 00da 05       		.uleb128 0x5
 495 00db BF000000 		.4byte	0xbf
 496 00df 04       		.uleb128 0x4
 497 00e0 80070000 		.4byte	.LASF19
 498 00e4 04       		.byte	0x4
 499 00e5 45       		.byte	0x45
 500 00e6 BF000000 		.4byte	0xbf
 501 00ea 04       		.uleb128 0x4
 502 00eb 24010000 		.4byte	.LASF20
 503 00ef 04       		.byte	0x4
 504 00f0 46       		.byte	0x46
 505 00f1 CA000000 		.4byte	0xca
 506 00f5 04       		.uleb128 0x4
 507 00f6 15060000 		.4byte	.LASF21
ARM GAS  /tmp/ccwSLn2e.s 			page 10


 508 00fa 04       		.byte	0x4
 509 00fb 48       		.byte	0x48
 510 00fc 9E000000 		.4byte	0x9e
 511 0100 04       		.uleb128 0x4
 512 0101 AC010000 		.4byte	.LASF22
 513 0105 04       		.byte	0x4
 514 0106 49       		.byte	0x49
 515 0107 9E000000 		.4byte	0x9e
 516 010b 04       		.uleb128 0x4
 517 010c 50050000 		.4byte	.LASF23
 518 0110 04       		.byte	0x4
 519 0111 4A       		.byte	0x4a
 520 0112 9E000000 		.4byte	0x9e
 521 0116 04       		.uleb128 0x4
 522 0117 9B050000 		.4byte	.LASF24
 523 011b 04       		.byte	0x4
 524 011c 4C       		.byte	0x4c
 525 011d BF000000 		.4byte	0xbf
 526 0121 04       		.uleb128 0x4
 527 0122 D1030000 		.4byte	.LASF25
 528 0126 04       		.byte	0x4
 529 0127 4D       		.byte	0x4d
 530 0128 B4000000 		.4byte	0xb4
 531 012c 04       		.uleb128 0x4
 532 012d 20040000 		.4byte	.LASF26
 533 0131 04       		.byte	0x4
 534 0132 4F       		.byte	0x4f
 535 0133 BF000000 		.4byte	0xbf
 536 0137 04       		.uleb128 0x4
 537 0138 B2040000 		.4byte	.LASF27
 538 013c 04       		.byte	0x4
 539 013d 51       		.byte	0x51
 540 013e B4000000 		.4byte	0xb4
 541 0142 04       		.uleb128 0x4
 542 0143 E0030000 		.4byte	.LASF28
 543 0147 04       		.byte	0x4
 544 0148 52       		.byte	0x52
 545 0149 BF000000 		.4byte	0xbf
 546 014d 04       		.uleb128 0x4
 547 014e F7060000 		.4byte	.LASF29
 548 0152 05       		.byte	0x5
 549 0153 33       		.byte	0x33
 550 0154 BF000000 		.4byte	0xbf
 551 0158 04       		.uleb128 0x4
 552 0159 E2060000 		.4byte	.LASF30
 553 015d 05       		.byte	0x5
 554 015e 3F       		.byte	0x3f
 555 015f 63010000 		.4byte	0x163
 556 0163 06       		.uleb128 0x6
 557 0164 B3030000 		.4byte	.LASF52
 558 0168 60       		.byte	0x60
 559 0169 06       		.byte	0x6
 560 016a C2       		.byte	0xc2
 561 016b 69020000 		.4byte	0x269
 562 016f 07       		.uleb128 0x7
 563 0170 0E060000 		.4byte	.LASF31
 564 0174 06       		.byte	0x6
ARM GAS  /tmp/ccwSLn2e.s 			page 11


 565 0175 C3       		.byte	0xc3
 566 0176 74020000 		.4byte	0x274
 567 017a 00       		.byte	0
 568 017b 07       		.uleb128 0x7
 569 017c 8A050000 		.4byte	.LASF32
 570 0180 06       		.byte	0x6
 571 0181 C5       		.byte	0xc5
 572 0182 74020000 		.4byte	0x274
 573 0186 04       		.byte	0x4
 574 0187 07       		.uleb128 0x7
 575 0188 37010000 		.4byte	.LASF33
 576 018c 06       		.byte	0x6
 577 018d C7       		.byte	0xc7
 578 018e 16010000 		.4byte	0x116
 579 0192 08       		.byte	0x8
 580 0193 07       		.uleb128 0x7
 581 0194 50080000 		.4byte	.LASF34
 582 0198 06       		.byte	0x6
 583 0199 C8       		.byte	0xc8
 584 019a 88060000 		.4byte	0x688
 585 019e 0C       		.byte	0xc
 586 019f 07       		.uleb128 0x7
 587 01a0 7D020000 		.4byte	.LASF35
 588 01a4 06       		.byte	0x6
 589 01a5 CA       		.byte	0xca
 590 01a6 74020000 		.4byte	0x274
 591 01aa 10       		.byte	0x10
 592 01ab 07       		.uleb128 0x7
 593 01ac DB040000 		.4byte	.LASF36
 594 01b0 06       		.byte	0x6
 595 01b1 CB       		.byte	0xcb
 596 01b2 74020000 		.4byte	0x274
 597 01b6 14       		.byte	0x14
 598 01b7 07       		.uleb128 0x7
 599 01b8 F5070000 		.4byte	.LASF37
 600 01bc 06       		.byte	0x6
 601 01bd D2       		.byte	0xd2
 602 01be 2C090000 		.4byte	0x92c
 603 01c2 18       		.byte	0x18
 604 01c3 07       		.uleb128 0x7
 605 01c4 45030000 		.4byte	.LASF38
 606 01c8 06       		.byte	0x6
 607 01c9 D8       		.byte	0xd8
 608 01ca 3E090000 		.4byte	0x93e
 609 01ce 1C       		.byte	0x1c
 610 01cf 07       		.uleb128 0x7
 611 01d0 E7050000 		.4byte	.LASF39
 612 01d4 06       		.byte	0x6
 613 01d5 DD       		.byte	0xdd
 614 01d6 00010000 		.4byte	0x100
 615 01da 20       		.byte	0x20
 616 01db 07       		.uleb128 0x7
 617 01dc 1D060000 		.4byte	.LASF40
 618 01e0 06       		.byte	0x6
 619 01e1 E1       		.byte	0xe1
 620 01e2 F5000000 		.4byte	0xf5
 621 01e6 21       		.byte	0x21
ARM GAS  /tmp/ccwSLn2e.s 			page 12


 622 01e7 07       		.uleb128 0x7
 623 01e8 B8070000 		.4byte	.LASF41
 624 01ec 06       		.byte	0x6
 625 01ed E6       		.byte	0xe6
 626 01ee 0B010000 		.4byte	0x10b
 627 01f2 22       		.byte	0x22
 628 01f3 08       		.uleb128 0x8
 629 01f4 705F7500 		.ascii	"p_u\000"
 630 01f8 06       		.byte	0x6
 631 01f9 3101     		.2byte	0x131
 632 01fb 67080000 		.4byte	0x867
 633 01ff 24       		.byte	0x24
 634 0200 09       		.uleb128 0x9
 635 0201 6F040000 		.4byte	.LASF42
 636 0205 06       		.byte	0x6
 637 0206 3601     		.2byte	0x136
 638 0208 7A020000 		.4byte	0x27a
 639 020c 28       		.byte	0x28
 640 020d 09       		.uleb128 0x9
 641 020e 6C030000 		.4byte	.LASF43
 642 0212 06       		.byte	0x6
 643 0213 3C01     		.2byte	0x13c
 644 0215 9E020000 		.4byte	0x29e
 645 0219 2C       		.byte	0x2c
 646 021a 09       		.uleb128 0x9
 647 021b 1D080000 		.4byte	.LASF44
 648 021f 06       		.byte	0x6
 649 0220 4001     		.2byte	0x140
 650 0222 21010000 		.4byte	0x121
 651 0226 34       		.byte	0x34
 652 0227 09       		.uleb128 0x9
 653 0228 60060000 		.4byte	.LASF45
 654 022c 06       		.byte	0x6
 655 022d 4601     		.2byte	0x146
 656 022f 2C010000 		.4byte	0x12c
 657 0233 38       		.byte	0x38
 658 0234 09       		.uleb128 0x9
 659 0235 D3050000 		.4byte	.LASF46
 660 0239 06       		.byte	0x6
 661 023a 4D01     		.2byte	0x14d
 662 023c 26090000 		.4byte	0x926
 663 0240 3C       		.byte	0x3c
 664 0241 09       		.uleb128 0x9
 665 0242 01070000 		.4byte	.LASF47
 666 0246 06       		.byte	0x6
 667 0247 5101     		.2byte	0x151
 668 0249 16010000 		.4byte	0x116
 669 024d 40       		.byte	0x40
 670 024e 09       		.uleb128 0x9
 671 024f 66010000 		.4byte	.LASF48
 672 0253 06       		.byte	0x6
 673 0254 5801     		.2byte	0x158
 674 0256 51030000 		.4byte	0x351
 675 025a 44       		.byte	0x44
 676 025b 09       		.uleb128 0x9
 677 025c 25060000 		.4byte	.LASF49
 678 0260 06       		.byte	0x6
ARM GAS  /tmp/ccwSLn2e.s 			page 13


 679 0261 5E01     		.2byte	0x15e
 680 0263 18080000 		.4byte	0x818
 681 0267 48       		.byte	0x48
 682 0268 00       		.byte	0
 683 0269 04       		.uleb128 0x4
 684 026a 82040000 		.4byte	.LASF50
 685 026e 05       		.byte	0x5
 686 026f 44       		.byte	0x44
 687 0270 74020000 		.4byte	0x274
 688 0274 0A       		.uleb128 0xa
 689 0275 04       		.byte	0x4
 690 0276 58010000 		.4byte	0x158
 691 027a 04       		.uleb128 0x4
 692 027b 48040000 		.4byte	.LASF51
 693 027f 05       		.byte	0x5
 694 0280 49       		.byte	0x49
 695 0281 85020000 		.4byte	0x285
 696 0285 06       		.uleb128 0x6
 697 0286 96060000 		.4byte	.LASF53
 698 028a 04       		.byte	0x4
 699 028b 06       		.byte	0x6
 700 028c B0       		.byte	0xb0
 701 028d 9E020000 		.4byte	0x29e
 702 0291 07       		.uleb128 0x7
 703 0292 0E060000 		.4byte	.LASF31
 704 0296 06       		.byte	0x6
 705 0297 B1       		.byte	0xb1
 706 0298 74020000 		.4byte	0x274
 707 029c 00       		.byte	0
 708 029d 00       		.byte	0
 709 029e 04       		.uleb128 0x4
 710 029f 9F070000 		.4byte	.LASF54
 711 02a3 05       		.byte	0x5
 712 02a4 50       		.byte	0x50
 713 02a5 A9020000 		.4byte	0x2a9
 714 02a9 06       		.uleb128 0x6
 715 02aa 62000000 		.4byte	.LASF55
 716 02ae 08       		.byte	0x8
 717 02af 06       		.byte	0x6
 718 02b0 B7       		.byte	0xb7
 719 02b1 CE020000 		.4byte	0x2ce
 720 02b5 07       		.uleb128 0x7
 721 02b6 0E060000 		.4byte	.LASF31
 722 02ba 06       		.byte	0x6
 723 02bb B8       		.byte	0xb8
 724 02bc 74020000 		.4byte	0x274
 725 02c0 00       		.byte	0
 726 02c1 07       		.uleb128 0x7
 727 02c2 8A050000 		.4byte	.LASF32
 728 02c6 06       		.byte	0x6
 729 02c7 B9       		.byte	0xb9
 730 02c8 74020000 		.4byte	0x274
 731 02cc 04       		.byte	0x4
 732 02cd 00       		.byte	0
 733 02ce 04       		.uleb128 0x4
 734 02cf 1A000000 		.4byte	.LASF56
 735 02d3 05       		.byte	0x5
ARM GAS  /tmp/ccwSLn2e.s 			page 14


 736 02d4 57       		.byte	0x57
 737 02d5 D9020000 		.4byte	0x2d9
 738 02d9 0B       		.uleb128 0xb
 739 02da 12040000 		.4byte	.LASF57
 740 02de 1C       		.byte	0x1c
 741 02df 06       		.byte	0x6
 742 02e0 9001     		.2byte	0x190
 743 02e2 35030000 		.4byte	0x335
 744 02e6 09       		.uleb128 0x9
 745 02e7 85060000 		.4byte	.LASF58
 746 02eb 06       		.byte	0x6
 747 02ec 9101     		.2byte	0x191
 748 02ee 9E020000 		.4byte	0x29e
 749 02f2 00       		.byte	0
 750 02f3 09       		.uleb128 0x9
 751 02f4 F9050000 		.4byte	.LASF59
 752 02f8 06       		.byte	0x6
 753 02f9 9201     		.2byte	0x192
 754 02fb 16010000 		.4byte	0x116
 755 02ff 08       		.byte	0x8
 756 0300 09       		.uleb128 0x9
 757 0301 E3040000 		.4byte	.LASF60
 758 0305 06       		.byte	0x6
 759 0306 9401     		.2byte	0x194
 760 0308 88060000 		.4byte	0x688
 761 030c 0C       		.byte	0xc
 762 030d 09       		.uleb128 0x9
 763 030e 9D020000 		.4byte	.LASF61
 764 0312 06       		.byte	0x6
 765 0313 9701     		.2byte	0x197
 766 0315 74020000 		.4byte	0x274
 767 0319 10       		.byte	0x10
 768 031a 09       		.uleb128 0x9
 769 031b 62070000 		.4byte	.LASF62
 770 031f 06       		.byte	0x6
 771 0320 9801     		.2byte	0x198
 772 0322 74020000 		.4byte	0x274
 773 0326 14       		.byte	0x14
 774 0327 09       		.uleb128 0x9
 775 0328 10050000 		.4byte	.LASF63
 776 032c 06       		.byte	0x6
 777 032d 9B01     		.2byte	0x19b
 778 032f 74020000 		.4byte	0x274
 779 0333 18       		.byte	0x18
 780 0334 00       		.byte	0
 781 0335 04       		.uleb128 0x4
 782 0336 0C070000 		.4byte	.LASF64
 783 033a 05       		.byte	0x5
 784 033b 5C       		.byte	0x5c
 785 033c 40030000 		.4byte	0x340
 786 0340 0A       		.uleb128 0xa
 787 0341 04       		.byte	0x4
 788 0342 46030000 		.4byte	0x346
 789 0346 0C       		.uleb128 0xc
 790 0347 51030000 		.4byte	0x351
 791 034b 0D       		.uleb128 0xd
 792 034c 51030000 		.4byte	0x351
ARM GAS  /tmp/ccwSLn2e.s 			page 15


 793 0350 00       		.byte	0
 794 0351 0E       		.uleb128 0xe
 795 0352 04       		.byte	0x4
 796 0353 04       		.uleb128 0x4
 797 0354 57040000 		.4byte	.LASF65
 798 0358 05       		.byte	0x5
 799 0359 61       		.byte	0x61
 800 035a 5E030000 		.4byte	0x35e
 801 035e 0B       		.uleb128 0xb
 802 035f 42060000 		.4byte	.LASF66
 803 0363 14       		.byte	0x14
 804 0364 06       		.byte	0x6
 805 0365 6B01     		.2byte	0x16b
 806 0367 AD030000 		.4byte	0x3ad
 807 036b 09       		.uleb128 0x9
 808 036c 5D030000 		.4byte	.LASF67
 809 0370 06       		.byte	0x6
 810 0371 6C01     		.2byte	0x16c
 811 0373 44090000 		.4byte	0x944
 812 0377 00       		.byte	0
 813 0378 09       		.uleb128 0x9
 814 0379 B3020000 		.4byte	.LASF68
 815 037d 06       		.byte	0x6
 816 037e 6D01     		.2byte	0x16d
 817 0380 44090000 		.4byte	0x944
 818 0384 04       		.byte	0x4
 819 0385 09       		.uleb128 0x9
 820 0386 8D060000 		.4byte	.LASF69
 821 038a 06       		.byte	0x6
 822 038b 6E01     		.2byte	0x16e
 823 038d 4D010000 		.4byte	0x14d
 824 0391 08       		.byte	0x8
 825 0392 09       		.uleb128 0x9
 826 0393 56080000 		.4byte	.LASF70
 827 0397 06       		.byte	0x6
 828 0398 6F01     		.2byte	0x16f
 829 039a 35030000 		.4byte	0x335
 830 039e 0C       		.byte	0xc
 831 039f 09       		.uleb128 0x9
 832 03a0 88070000 		.4byte	.LASF71
 833 03a4 06       		.byte	0x6
 834 03a5 7101     		.2byte	0x171
 835 03a7 51030000 		.4byte	0x351
 836 03ab 10       		.byte	0x10
 837 03ac 00       		.byte	0
 838 03ad 04       		.uleb128 0x4
 839 03ae 01010000 		.4byte	.LASF72
 840 03b2 05       		.byte	0x5
 841 03b3 66       		.byte	0x66
 842 03b4 B8030000 		.4byte	0x3b8
 843 03b8 0B       		.uleb128 0xb
 844 03b9 95040000 		.4byte	.LASF73
 845 03bd 10       		.byte	0x10
 846 03be 06       		.byte	0x6
 847 03bf 7B01     		.2byte	0x17b
 848 03c1 FA030000 		.4byte	0x3fa
 849 03c5 09       		.uleb128 0x9
ARM GAS  /tmp/ccwSLn2e.s 			page 16


 850 03c6 5D030000 		.4byte	.LASF67
 851 03ca 06       		.byte	0x6
 852 03cb 7C01     		.2byte	0x17c
 853 03cd 44090000 		.4byte	0x944
 854 03d1 00       		.byte	0
 855 03d2 09       		.uleb128 0x9
 856 03d3 B3020000 		.4byte	.LASF68
 857 03d7 06       		.byte	0x6
 858 03d8 7E01     		.2byte	0x17e
 859 03da 44090000 		.4byte	0x944
 860 03de 04       		.byte	0x4
 861 03df 09       		.uleb128 0x9
 862 03e0 8D060000 		.4byte	.LASF69
 863 03e4 06       		.byte	0x6
 864 03e5 8001     		.2byte	0x180
 865 03e7 4D010000 		.4byte	0x14d
 866 03eb 08       		.byte	0x8
 867 03ec 09       		.uleb128 0x9
 868 03ed CF040000 		.4byte	.LASF74
 869 03f1 06       		.byte	0x6
 870 03f2 8801     		.2byte	0x188
 871 03f4 4D010000 		.4byte	0x14d
 872 03f8 0C       		.byte	0xc
 873 03f9 00       		.byte	0
 874 03fa 04       		.uleb128 0x4
 875 03fb 73000000 		.4byte	.LASF75
 876 03ff 05       		.byte	0x5
 877 0400 6B       		.byte	0x6b
 878 0401 05040000 		.4byte	0x405
 879 0405 0F       		.uleb128 0xf
 880 0406 C2020000 		.4byte	.LASF76
 881 040a 1404     		.2byte	0x414
 882 040c 06       		.byte	0x6
 883 040d A201     		.2byte	0x1a2
 884 040f 48040000 		.4byte	0x448
 885 0413 09       		.uleb128 0x9
 886 0414 2E070000 		.4byte	.LASF77
 887 0418 06       		.byte	0x6
 888 0419 AA01     		.2byte	0x1aa
 889 041b 4A090000 		.4byte	0x94a
 890 041f 00       		.byte	0
 891 0420 09       		.uleb128 0x9
 892 0421 BF070000 		.4byte	.LASF78
 893 0425 06       		.byte	0x6
 894 0426 AF01     		.2byte	0x1af
 895 0428 37010000 		.4byte	0x137
 896 042c 04       		.byte	0x4
 897 042d 09       		.uleb128 0x9
 898 042e F3020000 		.4byte	.LASF79
 899 0432 06       		.byte	0x6
 900 0433 B301     		.2byte	0x1b3
 901 0435 37010000 		.4byte	0x137
 902 0439 08       		.byte	0x8
 903 043a 09       		.uleb128 0x9
 904 043b 10080000 		.4byte	.LASF80
 905 043f 06       		.byte	0x6
 906 0440 B901     		.2byte	0x1b9
ARM GAS  /tmp/ccwSLn2e.s 			page 17


 907 0442 AA070000 		.4byte	0x7aa
 908 0446 0C       		.byte	0xc
 909 0447 00       		.byte	0
 910 0448 04       		.uleb128 0x4
 911 0449 E7030000 		.4byte	.LASF81
 912 044d 05       		.byte	0x5
 913 044e 70       		.byte	0x70
 914 044f 53040000 		.4byte	0x453
 915 0453 0F       		.uleb128 0xf
 916 0454 88010000 		.4byte	.LASF82
 917 0458 D805     		.2byte	0x5d8
 918 045a 06       		.byte	0x6
 919 045b C201     		.2byte	0x1c2
 920 045d C0040000 		.4byte	0x4c0
 921 0461 09       		.uleb128 0x9
 922 0462 DA070000 		.4byte	.LASF83
 923 0466 06       		.byte	0x6
 924 0467 C601     		.2byte	0x1c6
 925 0469 CE020000 		.4byte	0x2ce
 926 046d 00       		.byte	0
 927 046e 09       		.uleb128 0x9
 928 046f BB020000 		.4byte	.LASF84
 929 0473 06       		.byte	0x6
 930 0474 CA01     		.2byte	0x1ca
 931 0476 AD030000 		.4byte	0x3ad
 932 047a 1C       		.byte	0x1c
 933 047b 08       		.uleb128 0x8
 934 047c 64626700 		.ascii	"dbg\000"
 935 0480 06       		.byte	0x6
 936 0481 CE01     		.2byte	0x1ce
 937 0483 FA030000 		.4byte	0x3fa
 938 0487 2C       		.byte	0x2c
 939 0488 10       		.uleb128 0x10
 940 0489 F6000000 		.4byte	.LASF85
 941 048d 06       		.byte	0x6
 942 048e D201     		.2byte	0x1d2
 943 0490 58010000 		.4byte	0x158
 944 0494 4004     		.2byte	0x440
 945 0496 11       		.uleb128 0x11
 946 0497 746D00   		.ascii	"tm\000"
 947 049a 06       		.byte	0x6
 948 049b D701     		.2byte	0x1d7
 949 049d CA070000 		.4byte	0x7ca
 950 04a1 A004     		.2byte	0x4a0
 951 04a3 10       		.uleb128 0x10
 952 04a4 43050000 		.4byte	.LASF86
 953 04a8 06       		.byte	0x6
 954 04a9 DD01     		.2byte	0x1dd
 955 04ab 5C080000 		.4byte	0x85c
 956 04af A804     		.2byte	0x4a8
 957 04b1 10       		.uleb128 0x10
 958 04b2 FC020000 		.4byte	.LASF87
 959 04b6 06       		.byte	0x6
 960 04b7 E301     		.2byte	0x1e3
 961 04b9 4F090000 		.4byte	0x94f
 962 04bd E004     		.2byte	0x4e0
 963 04bf 00       		.byte	0
ARM GAS  /tmp/ccwSLn2e.s 			page 18


 964 04c0 03       		.uleb128 0x3
 965 04c1 04       		.byte	0x4
 966 04c2 07       		.byte	0x7
 967 04c3 79040000 		.4byte	.LASF88
 968 04c7 12       		.uleb128 0x12
 969 04c8 BF000000 		.4byte	0xbf
 970 04cc D7040000 		.4byte	0x4d7
 971 04d0 13       		.uleb128 0x13
 972 04d1 C0040000 		.4byte	0x4c0
 973 04d5 01       		.byte	0x1
 974 04d6 00       		.byte	0
 975 04d7 14       		.uleb128 0x14
 976 04d8 88       		.byte	0x88
 977 04d9 07       		.byte	0x7
 978 04da 6702     		.2byte	0x267
 979 04dc 66060000 		.4byte	0x666
 980 04e0 08       		.uleb128 0x8
 981 04e1 435200   		.ascii	"CR\000"
 982 04e4 07       		.byte	0x7
 983 04e5 6902     		.2byte	0x269
 984 04e7 DA000000 		.4byte	0xda
 985 04eb 00       		.byte	0
 986 04ec 09       		.uleb128 0x9
 987 04ed 85020000 		.4byte	.LASF89
 988 04f1 07       		.byte	0x7
 989 04f2 6A02     		.2byte	0x26a
 990 04f4 DA000000 		.4byte	0xda
 991 04f8 04       		.byte	0x4
 992 04f9 09       		.uleb128 0x9
 993 04fa 0B080000 		.4byte	.LASF90
 994 04fe 07       		.byte	0x7
 995 04ff 6B02     		.2byte	0x26b
 996 0501 DA000000 		.4byte	0xda
 997 0505 08       		.byte	0x8
 998 0506 08       		.uleb128 0x8
 999 0507 43495200 		.ascii	"CIR\000"
 1000 050b 07       		.byte	0x7
 1001 050c 6C02     		.2byte	0x26c
 1002 050e DA000000 		.4byte	0xda
 1003 0512 0C       		.byte	0xc
 1004 0513 09       		.uleb128 0x9
 1005 0514 5D010000 		.4byte	.LASF91
 1006 0518 07       		.byte	0x7
 1007 0519 6D02     		.2byte	0x26d
 1008 051b DA000000 		.4byte	0xda
 1009 051f 10       		.byte	0x10
 1010 0520 09       		.uleb128 0x9
 1011 0521 D9060000 		.4byte	.LASF92
 1012 0525 07       		.byte	0x7
 1013 0526 6E02     		.2byte	0x26e
 1014 0528 DA000000 		.4byte	0xda
 1015 052c 14       		.byte	0x14
 1016 052d 09       		.uleb128 0x9
 1017 052e D7030000 		.4byte	.LASF93
 1018 0532 07       		.byte	0x7
 1019 0533 6F02     		.2byte	0x26f
 1020 0535 DA000000 		.4byte	0xda
ARM GAS  /tmp/ccwSLn2e.s 			page 19


 1021 0539 18       		.byte	0x18
 1022 053a 09       		.uleb128 0x9
 1023 053b 58050000 		.4byte	.LASF94
 1024 053f 07       		.byte	0x7
 1025 0540 7002     		.2byte	0x270
 1026 0542 BF000000 		.4byte	0xbf
 1027 0546 1C       		.byte	0x1c
 1028 0547 09       		.uleb128 0x9
 1029 0548 1A050000 		.4byte	.LASF95
 1030 054c 07       		.byte	0x7
 1031 054d 7102     		.2byte	0x271
 1032 054f DA000000 		.4byte	0xda
 1033 0553 20       		.byte	0x20
 1034 0554 09       		.uleb128 0x9
 1035 0555 C8030000 		.4byte	.LASF96
 1036 0559 07       		.byte	0x7
 1037 055a 7202     		.2byte	0x272
 1038 055c DA000000 		.4byte	0xda
 1039 0560 24       		.byte	0x24
 1040 0561 09       		.uleb128 0x9
 1041 0562 62050000 		.4byte	.LASF97
 1042 0566 07       		.byte	0x7
 1043 0567 7302     		.2byte	0x273
 1044 0569 C7040000 		.4byte	0x4c7
 1045 056d 28       		.byte	0x28
 1046 056e 09       		.uleb128 0x9
 1047 056f FC070000 		.4byte	.LASF98
 1048 0573 07       		.byte	0x7
 1049 0574 7402     		.2byte	0x274
 1050 0576 DA000000 		.4byte	0xda
 1051 057a 30       		.byte	0x30
 1052 057b 09       		.uleb128 0x9
 1053 057c 52070000 		.4byte	.LASF99
 1054 0580 07       		.byte	0x7
 1055 0581 7502     		.2byte	0x275
 1056 0583 DA000000 		.4byte	0xda
 1057 0587 34       		.byte	0x34
 1058 0588 09       		.uleb128 0x9
 1059 0589 C7040000 		.4byte	.LASF100
 1060 058d 07       		.byte	0x7
 1061 058e 7602     		.2byte	0x276
 1062 0590 DA000000 		.4byte	0xda
 1063 0594 38       		.byte	0x38
 1064 0595 09       		.uleb128 0x9
 1065 0596 6C050000 		.4byte	.LASF101
 1066 059a 07       		.byte	0x7
 1067 059b 7702     		.2byte	0x277
 1068 059d BF000000 		.4byte	0xbf
 1069 05a1 3C       		.byte	0x3c
 1070 05a2 09       		.uleb128 0x9
 1071 05a3 3F070000 		.4byte	.LASF102
 1072 05a7 07       		.byte	0x7
 1073 05a8 7802     		.2byte	0x278
 1074 05aa DA000000 		.4byte	0xda
 1075 05ae 40       		.byte	0x40
 1076 05af 09       		.uleb128 0x9
 1077 05b0 33060000 		.4byte	.LASF103
ARM GAS  /tmp/ccwSLn2e.s 			page 20


 1078 05b4 07       		.byte	0x7
 1079 05b5 7902     		.2byte	0x279
 1080 05b7 DA000000 		.4byte	0xda
 1081 05bb 44       		.byte	0x44
 1082 05bc 09       		.uleb128 0x9
 1083 05bd 76050000 		.4byte	.LASF104
 1084 05c1 07       		.byte	0x7
 1085 05c2 7A02     		.2byte	0x27a
 1086 05c4 C7040000 		.4byte	0x4c7
 1087 05c8 48       		.byte	0x48
 1088 05c9 09       		.uleb128 0x9
 1089 05ca 2D010000 		.4byte	.LASF105
 1090 05ce 07       		.byte	0x7
 1091 05cf 7B02     		.2byte	0x27b
 1092 05d1 DA000000 		.4byte	0xda
 1093 05d5 50       		.byte	0x50
 1094 05d6 09       		.uleb128 0x9
 1095 05d7 E9040000 		.4byte	.LASF106
 1096 05db 07       		.byte	0x7
 1097 05dc 7C02     		.2byte	0x27c
 1098 05de DA000000 		.4byte	0xda
 1099 05e2 54       		.byte	0x54
 1100 05e3 09       		.uleb128 0x9
 1101 05e4 EF050000 		.4byte	.LASF107
 1102 05e8 07       		.byte	0x7
 1103 05e9 7D02     		.2byte	0x27d
 1104 05eb DA000000 		.4byte	0xda
 1105 05ef 58       		.byte	0x58
 1106 05f0 09       		.uleb128 0x9
 1107 05f1 80050000 		.4byte	.LASF108
 1108 05f5 07       		.byte	0x7
 1109 05f6 7E02     		.2byte	0x27e
 1110 05f8 BF000000 		.4byte	0xbf
 1111 05fc 5C       		.byte	0x5c
 1112 05fd 09       		.uleb128 0x9
 1113 05fe A2010000 		.4byte	.LASF109
 1114 0602 07       		.byte	0x7
 1115 0603 7F02     		.2byte	0x27f
 1116 0605 DA000000 		.4byte	0xda
 1117 0609 60       		.byte	0x60
 1118 060a 09       		.uleb128 0x9
 1119 060b FD030000 		.4byte	.LASF110
 1120 060f 07       		.byte	0x7
 1121 0610 8002     		.2byte	0x280
 1122 0612 DA000000 		.4byte	0xda
 1123 0616 64       		.byte	0x64
 1124 0617 09       		.uleb128 0x9
 1125 0618 6B060000 		.4byte	.LASF111
 1126 061c 07       		.byte	0x7
 1127 061d 8102     		.2byte	0x281
 1128 061f C7040000 		.4byte	0x4c7
 1129 0623 68       		.byte	0x68
 1130 0624 09       		.uleb128 0x9
 1131 0625 D5070000 		.4byte	.LASF112
 1132 0629 07       		.byte	0x7
 1133 062a 8202     		.2byte	0x282
 1134 062c DA000000 		.4byte	0xda
ARM GAS  /tmp/ccwSLn2e.s 			page 21


 1135 0630 70       		.byte	0x70
 1136 0631 08       		.uleb128 0x8
 1137 0632 43535200 		.ascii	"CSR\000"
 1138 0636 07       		.byte	0x7
 1139 0637 8302     		.2byte	0x283
 1140 0639 DA000000 		.4byte	0xda
 1141 063d 74       		.byte	0x74
 1142 063e 09       		.uleb128 0x9
 1143 063f 91050000 		.4byte	.LASF113
 1144 0643 07       		.byte	0x7
 1145 0644 8402     		.2byte	0x284
 1146 0646 C7040000 		.4byte	0x4c7
 1147 064a 78       		.byte	0x78
 1148 064b 09       		.uleb128 0x9
 1149 064c 99070000 		.4byte	.LASF114
 1150 0650 07       		.byte	0x7
 1151 0651 8502     		.2byte	0x285
 1152 0653 DA000000 		.4byte	0xda
 1153 0657 80       		.byte	0x80
 1154 0658 09       		.uleb128 0x9
 1155 0659 BD030000 		.4byte	.LASF115
 1156 065d 07       		.byte	0x7
 1157 065e 8602     		.2byte	0x286
 1158 0660 DA000000 		.4byte	0xda
 1159 0664 84       		.byte	0x84
 1160 0665 00       		.byte	0
 1161 0666 15       		.uleb128 0x15
 1162 0667 7C010000 		.4byte	.LASF116
 1163 066b 07       		.byte	0x7
 1164 066c 8802     		.2byte	0x288
 1165 066e D7040000 		.4byte	0x4d7
 1166 0672 04       		.uleb128 0x4
 1167 0673 AA020000 		.4byte	.LASF117
 1168 0677 08       		.byte	0x8
 1169 0678 65       		.byte	0x65
 1170 0679 51030000 		.4byte	0x351
 1171 067d 04       		.uleb128 0x4
 1172 067e 3D040000 		.4byte	.LASF118
 1173 0682 08       		.byte	0x8
 1174 0683 6D       		.byte	0x6d
 1175 0684 CA000000 		.4byte	0xca
 1176 0688 06       		.uleb128 0x6
 1177 0689 5A070000 		.4byte	.LASF119
 1178 068d 04       		.byte	0x4
 1179 068e 08       		.byte	0x8
 1180 068f 89       		.byte	0x89
 1181 0690 A1060000 		.4byte	0x6a1
 1182 0694 16       		.uleb128 0x16
 1183 0695 72313300 		.ascii	"r13\000"
 1184 0699 08       		.byte	0x8
 1185 069a 8A       		.byte	0x8a
 1186 069b 1C070000 		.4byte	0x71c
 1187 069f 00       		.byte	0
 1188 06a0 00       		.byte	0
 1189 06a1 06       		.uleb128 0x6
 1190 06a2 56000000 		.4byte	.LASF120
 1191 06a6 24       		.byte	0x24
ARM GAS  /tmp/ccwSLn2e.s 			page 22


 1192 06a7 09       		.byte	0x9
 1193 06a8 FD       		.byte	0xfd
 1194 06a9 1C070000 		.4byte	0x71c
 1195 06ad 08       		.uleb128 0x8
 1196 06ae 723400   		.ascii	"r4\000"
 1197 06b1 09       		.byte	0x9
 1198 06b2 1001     		.2byte	0x110
 1199 06b4 72060000 		.4byte	0x672
 1200 06b8 00       		.byte	0
 1201 06b9 08       		.uleb128 0x8
 1202 06ba 723500   		.ascii	"r5\000"
 1203 06bd 09       		.byte	0x9
 1204 06be 1101     		.2byte	0x111
 1205 06c0 72060000 		.4byte	0x672
 1206 06c4 04       		.byte	0x4
 1207 06c5 08       		.uleb128 0x8
 1208 06c6 723600   		.ascii	"r6\000"
 1209 06c9 09       		.byte	0x9
 1210 06ca 1201     		.2byte	0x112
 1211 06cc 72060000 		.4byte	0x672
 1212 06d0 08       		.byte	0x8
 1213 06d1 08       		.uleb128 0x8
 1214 06d2 723700   		.ascii	"r7\000"
 1215 06d5 09       		.byte	0x9
 1216 06d6 1301     		.2byte	0x113
 1217 06d8 72060000 		.4byte	0x672
 1218 06dc 0C       		.byte	0xc
 1219 06dd 08       		.uleb128 0x8
 1220 06de 723800   		.ascii	"r8\000"
 1221 06e1 09       		.byte	0x9
 1222 06e2 1401     		.2byte	0x114
 1223 06e4 72060000 		.4byte	0x672
 1224 06e8 10       		.byte	0x10
 1225 06e9 08       		.uleb128 0x8
 1226 06ea 723900   		.ascii	"r9\000"
 1227 06ed 09       		.byte	0x9
 1228 06ee 1501     		.2byte	0x115
 1229 06f0 72060000 		.4byte	0x672
 1230 06f4 14       		.byte	0x14
 1231 06f5 08       		.uleb128 0x8
 1232 06f6 72313000 		.ascii	"r10\000"
 1233 06fa 09       		.byte	0x9
 1234 06fb 1601     		.2byte	0x116
 1235 06fd 72060000 		.4byte	0x672
 1236 0701 18       		.byte	0x18
 1237 0702 08       		.uleb128 0x8
 1238 0703 72313100 		.ascii	"r11\000"
 1239 0707 09       		.byte	0x9
 1240 0708 1701     		.2byte	0x117
 1241 070a 72060000 		.4byte	0x672
 1242 070e 1C       		.byte	0x1c
 1243 070f 08       		.uleb128 0x8
 1244 0710 6C7200   		.ascii	"lr\000"
 1245 0713 09       		.byte	0x9
 1246 0714 1801     		.2byte	0x118
 1247 0716 72060000 		.4byte	0x672
 1248 071a 20       		.byte	0x20
ARM GAS  /tmp/ccwSLn2e.s 			page 23


 1249 071b 00       		.byte	0
 1250 071c 0A       		.uleb128 0xa
 1251 071d 04       		.byte	0x4
 1252 071e A1060000 		.4byte	0x6a1
 1253 0722 17       		.uleb128 0x17
 1254 0723 10       		.byte	0x10
 1255 0724 0A       		.byte	0xa
 1256 0725 51       		.byte	0x51
 1257 0726 5B070000 		.4byte	0x75b
 1258 072a 07       		.uleb128 0x7
 1259 072b 27000000 		.4byte	.LASF121
 1260 072f 0A       		.byte	0xa
 1261 0730 55       		.byte	0x55
 1262 0731 4D010000 		.4byte	0x14d
 1263 0735 00       		.byte	0
 1264 0736 07       		.uleb128 0x7
 1265 0737 B5010000 		.4byte	.LASF122
 1266 073b 0A       		.byte	0xa
 1267 073c 59       		.byte	0x59
 1268 073d 74020000 		.4byte	0x274
 1269 0741 04       		.byte	0x4
 1270 0742 07       		.uleb128 0x7
 1271 0743 46080000 		.4byte	.LASF123
 1272 0747 0A       		.byte	0xa
 1273 0748 5D       		.byte	0x5d
 1274 0749 51030000 		.4byte	0x351
 1275 074d 08       		.byte	0x8
 1276 074e 07       		.uleb128 0x7
 1277 074f DE000000 		.4byte	.LASF124
 1278 0753 0A       		.byte	0xa
 1279 0754 61       		.byte	0x61
 1280 0755 9E000000 		.4byte	0x9e
 1281 0759 0C       		.byte	0xc
 1282 075a 00       		.byte	0
 1283 075b 04       		.uleb128 0x4
 1284 075c B8040000 		.4byte	.LASF125
 1285 0760 0A       		.byte	0xa
 1286 0761 62       		.byte	0x62
 1287 0762 22070000 		.4byte	0x722
 1288 0766 18       		.uleb128 0x18
 1289 0767 0804     		.2byte	0x408
 1290 0769 0A       		.byte	0xa
 1291 076a 67       		.byte	0x67
 1292 076b 94070000 		.4byte	0x794
 1293 076f 07       		.uleb128 0x7
 1294 0770 8D020000 		.4byte	.LASF126
 1295 0774 0A       		.byte	0xa
 1296 0775 6B       		.byte	0x6b
 1297 0776 28000000 		.4byte	0x28
 1298 077a 00       		.byte	0
 1299 077b 07       		.uleb128 0x7
 1300 077c 13000000 		.4byte	.LASF127
 1301 0780 0A       		.byte	0xa
 1302 0781 6F       		.byte	0x6f
 1303 0782 94070000 		.4byte	0x794
 1304 0786 04       		.byte	0x4
 1305 0787 07       		.uleb128 0x7
ARM GAS  /tmp/ccwSLn2e.s 			page 24


 1306 0788 F3030000 		.4byte	.LASF128
 1307 078c 0A       		.byte	0xa
 1308 078d 73       		.byte	0x73
 1309 078e 9A070000 		.4byte	0x79a
 1310 0792 08       		.byte	0x8
 1311 0793 00       		.byte	0
 1312 0794 0A       		.uleb128 0xa
 1313 0795 04       		.byte	0x4
 1314 0796 5B070000 		.4byte	0x75b
 1315 079a 12       		.uleb128 0x12
 1316 079b 5B070000 		.4byte	0x75b
 1317 079f AA070000 		.4byte	0x7aa
 1318 07a3 13       		.uleb128 0x13
 1319 07a4 C0040000 		.4byte	0x4c0
 1320 07a8 3F       		.byte	0x3f
 1321 07a9 00       		.byte	0
 1322 07aa 04       		.uleb128 0x4
 1323 07ab CC000000 		.4byte	.LASF129
 1324 07af 0A       		.byte	0xa
 1325 07b0 74       		.byte	0x74
 1326 07b1 66070000 		.4byte	0x766
 1327 07b5 17       		.uleb128 0x17
 1328 07b6 04       		.byte	0x4
 1329 07b7 0B       		.byte	0xb
 1330 07b8 38       		.byte	0x38
 1331 07b9 CA070000 		.4byte	0x7ca
 1332 07bd 07       		.uleb128 0x7
 1333 07be 38070000 		.4byte	.LASF130
 1334 07c2 0B       		.byte	0xb
 1335 07c3 3C       		.byte	0x3c
 1336 07c4 DF000000 		.4byte	0xdf
 1337 07c8 00       		.byte	0
 1338 07c9 00       		.byte	0
 1339 07ca 04       		.uleb128 0x4
 1340 07cb F3040000 		.4byte	.LASF131
 1341 07cf 0B       		.byte	0xb
 1342 07d0 3D       		.byte	0x3d
 1343 07d1 B5070000 		.4byte	0x7b5
 1344 07d5 17       		.uleb128 0x17
 1345 07d6 18       		.byte	0x18
 1346 07d7 0B       		.byte	0xb
 1347 07d8 48       		.byte	0x48
 1348 07d9 18080000 		.4byte	0x818
 1349 07dd 07       		.uleb128 0x7
 1350 07de EB060000 		.4byte	.LASF132
 1351 07e2 0B       		.byte	0xb
 1352 07e3 49       		.byte	0x49
 1353 07e4 DF000000 		.4byte	0xdf
 1354 07e8 00       		.byte	0
 1355 07e9 07       		.uleb128 0x7
 1356 07ea 8F000000 		.4byte	.LASF133
 1357 07ee 0B       		.byte	0xb
 1358 07ef 4A       		.byte	0x4a
 1359 07f0 DF000000 		.4byte	0xdf
 1360 07f4 04       		.byte	0x4
 1361 07f5 07       		.uleb128 0x7
 1362 07f6 20070000 		.4byte	.LASF134
ARM GAS  /tmp/ccwSLn2e.s 			page 25


 1363 07fa 0B       		.byte	0xb
 1364 07fb 4B       		.byte	0x4b
 1365 07fc DF000000 		.4byte	0xdf
 1366 0800 08       		.byte	0x8
 1367 0801 16       		.uleb128 0x16
 1368 0802 6E00     		.ascii	"n\000"
 1369 0804 0B       		.byte	0xb
 1370 0805 4C       		.byte	0x4c
 1371 0806 42010000 		.4byte	0x142
 1372 080a 0C       		.byte	0xc
 1373 080b 07       		.uleb128 0x7
 1374 080c 33050000 		.4byte	.LASF135
 1375 0810 0B       		.byte	0xb
 1376 0811 4D       		.byte	0x4d
 1377 0812 EA000000 		.4byte	0xea
 1378 0816 10       		.byte	0x10
 1379 0817 00       		.byte	0
 1380 0818 04       		.uleb128 0x4
 1381 0819 9C000000 		.4byte	.LASF136
 1382 081d 0B       		.byte	0xb
 1383 081e 4E       		.byte	0x4e
 1384 081f D5070000 		.4byte	0x7d5
 1385 0823 17       		.uleb128 0x17
 1386 0824 38       		.byte	0x38
 1387 0825 0C       		.byte	0xc
 1388 0826 38       		.byte	0x38
 1389 0827 5C080000 		.4byte	0x85c
 1390 082b 07       		.uleb128 0x7
 1391 082c 84030000 		.4byte	.LASF137
 1392 0830 0C       		.byte	0xc
 1393 0831 39       		.byte	0x39
 1394 0832 42010000 		.4byte	0x142
 1395 0836 00       		.byte	0
 1396 0837 07       		.uleb128 0x7
 1397 0838 A3050000 		.4byte	.LASF138
 1398 083c 0C       		.byte	0xc
 1399 083d 3A       		.byte	0x3a
 1400 083e 42010000 		.4byte	0x142
 1401 0842 04       		.byte	0x4
 1402 0843 07       		.uleb128 0x7
 1403 0844 33080000 		.4byte	.LASF139
 1404 0848 0C       		.byte	0xc
 1405 0849 3B       		.byte	0x3b
 1406 084a 18080000 		.4byte	0x818
 1407 084e 08       		.byte	0x8
 1408 084f 07       		.uleb128 0x7
 1409 0850 07040000 		.4byte	.LASF140
 1410 0854 0C       		.byte	0xc
 1411 0855 3D       		.byte	0x3d
 1412 0856 18080000 		.4byte	0x818
 1413 085a 20       		.byte	0x20
 1414 085b 00       		.byte	0
 1415 085c 04       		.uleb128 0x4
 1416 085d A4030000 		.4byte	.LASF141
 1417 0861 0C       		.byte	0xc
 1418 0862 3F       		.byte	0x3f
 1419 0863 23080000 		.4byte	0x823
ARM GAS  /tmp/ccwSLn2e.s 			page 26


 1420 0867 19       		.uleb128 0x19
 1421 0868 04       		.byte	0x4
 1422 0869 06       		.byte	0x6
 1423 086a FA       		.byte	0xfa
 1424 086b C4080000 		.4byte	0x8c4
 1425 086f 1A       		.uleb128 0x1a
 1426 0870 35000000 		.4byte	.LASF142
 1427 0874 06       		.byte	0x6
 1428 0875 0101     		.2byte	0x101
 1429 0877 21010000 		.4byte	0x121
 1430 087b 1A       		.uleb128 0x1a
 1431 087c ED000000 		.4byte	.LASF143
 1432 0880 06       		.byte	0x6
 1433 0881 0801     		.2byte	0x108
 1434 0883 21010000 		.4byte	0x121
 1435 0887 1A       		.uleb128 0x1a
 1436 0888 EE070000 		.4byte	.LASF144
 1437 088c 06       		.byte	0x6
 1438 088d 0F01     		.2byte	0x10f
 1439 088f 51030000 		.4byte	0x351
 1440 0893 1A       		.uleb128 0x1a
 1441 0894 2F000000 		.4byte	.LASF145
 1442 0898 06       		.byte	0x6
 1443 0899 1601     		.2byte	0x116
 1444 089b C4080000 		.4byte	0x8c4
 1445 089f 1A       		.uleb128 0x1a
 1446 08a0 65030000 		.4byte	.LASF146
 1447 08a4 06       		.byte	0x6
 1448 08a5 1E01     		.2byte	0x11e
 1449 08a7 EF080000 		.4byte	0x8ef
 1450 08ab 1A       		.uleb128 0x1a
 1451 08ac 7E060000 		.4byte	.LASF147
 1452 08b0 06       		.byte	0x6
 1453 08b1 2701     		.2byte	0x127
 1454 08b3 26090000 		.4byte	0x926
 1455 08b7 1A       		.uleb128 0x1a
 1456 08b8 07060000 		.4byte	.LASF148
 1457 08bc 06       		.byte	0x6
 1458 08bd 2F01     		.2byte	0x12f
 1459 08bf 2C010000 		.4byte	0x12c
 1460 08c3 00       		.byte	0
 1461 08c4 0A       		.uleb128 0xa
 1462 08c5 04       		.byte	0x4
 1463 08c6 69020000 		.4byte	0x269
 1464 08ca 06       		.uleb128 0x6
 1465 08cb 53060000 		.4byte	.LASF149
 1466 08cf 0C       		.byte	0xc
 1467 08d0 0D       		.byte	0xd
 1468 08d1 34       		.byte	0x34
 1469 08d2 EF080000 		.4byte	0x8ef
 1470 08d6 07       		.uleb128 0x7
 1471 08d7 67040000 		.4byte	.LASF150
 1472 08db 0D       		.byte	0xd
 1473 08dc 35       		.byte	0x35
 1474 08dd 9E020000 		.4byte	0x29e
 1475 08e1 00       		.byte	0
 1476 08e2 07       		.uleb128 0x7
ARM GAS  /tmp/ccwSLn2e.s 			page 27


 1477 08e3 CD050000 		.4byte	.LASF151
 1478 08e7 0D       		.byte	0xd
 1479 08e8 37       		.byte	0x37
 1480 08e9 37010000 		.4byte	0x137
 1481 08ed 08       		.byte	0x8
 1482 08ee 00       		.byte	0
 1483 08ef 0A       		.uleb128 0xa
 1484 08f0 04       		.byte	0x4
 1485 08f1 CA080000 		.4byte	0x8ca
 1486 08f5 06       		.uleb128 0x6
 1487 08f6 AF070000 		.4byte	.LASF152
 1488 08fa 10       		.byte	0x10
 1489 08fb 0E       		.byte	0xe
 1490 08fc 39       		.byte	0x39
 1491 08fd 26090000 		.4byte	0x926
 1492 0901 07       		.uleb128 0x7
 1493 0902 6E010000 		.4byte	.LASF153
 1494 0906 0E       		.byte	0xe
 1495 0907 3A       		.byte	0x3a
 1496 0908 9E020000 		.4byte	0x29e
 1497 090c 00       		.byte	0
 1498 090d 07       		.uleb128 0x7
 1499 090e 3E080000 		.4byte	.LASF154
 1500 0912 0E       		.byte	0xe
 1501 0913 3C       		.byte	0x3c
 1502 0914 74020000 		.4byte	0x274
 1503 0918 08       		.byte	0x8
 1504 0919 07       		.uleb128 0x7
 1505 091a F0060000 		.4byte	.LASF155
 1506 091e 0E       		.byte	0xe
 1507 091f 3E       		.byte	0x3e
 1508 0920 6A090000 		.4byte	0x96a
 1509 0924 0C       		.byte	0xc
 1510 0925 00       		.byte	0
 1511 0926 0A       		.uleb128 0xa
 1512 0927 04       		.byte	0x4
 1513 0928 F5080000 		.4byte	0x8f5
 1514 092c 0A       		.uleb128 0xa
 1515 092d 04       		.byte	0x4
 1516 092e 32090000 		.4byte	0x932
 1517 0932 1B       		.uleb128 0x1b
 1518 0933 37090000 		.4byte	0x937
 1519 0937 03       		.uleb128 0x3
 1520 0938 01       		.byte	0x1
 1521 0939 08       		.byte	0x8
 1522 093a BD060000 		.4byte	.LASF156
 1523 093e 0A       		.uleb128 0xa
 1524 093f 04       		.byte	0x4
 1525 0940 7D060000 		.4byte	0x67d
 1526 0944 0A       		.uleb128 0xa
 1527 0945 04       		.byte	0x4
 1528 0946 53030000 		.4byte	0x353
 1529 094a 05       		.uleb128 0x5
 1530 094b 2C090000 		.4byte	0x92c
 1531 094f 12       		.uleb128 0x12
 1532 0950 7D060000 		.4byte	0x67d
 1533 0954 5F090000 		.4byte	0x95f
ARM GAS  /tmp/ccwSLn2e.s 			page 28


 1534 0958 13       		.uleb128 0x13
 1535 0959 C0040000 		.4byte	0x4c0
 1536 095d 1E       		.byte	0x1e
 1537 095e 00       		.byte	0
 1538 095f 04       		.uleb128 0x4
 1539 0960 E4020000 		.4byte	.LASF157
 1540 0964 0E       		.byte	0xe
 1541 0965 34       		.byte	0x34
 1542 0966 F5080000 		.4byte	0x8f5
 1543 096a 0A       		.uleb128 0xa
 1544 096b 04       		.byte	0x4
 1545 096c 5F090000 		.4byte	0x95f
 1546 0970 03       		.uleb128 0x3
 1547 0971 01       		.byte	0x1
 1548 0972 02       		.byte	0x2
 1549 0973 AC050000 		.4byte	.LASF158
 1550 0977 17       		.uleb128 0x17
 1551 0978 04       		.byte	0x4
 1552 0979 0F       		.byte	0xf
 1553 097a B7       		.byte	0xb7
 1554 097b 98090000 		.4byte	0x998
 1555 097f 16       		.uleb128 0x16
 1556 0980 73657400 		.ascii	"set\000"
 1557 0984 0F       		.byte	0xf
 1558 0985 B8       		.byte	0xb8
 1559 0986 A9000000 		.4byte	0xa9
 1560 098a 00       		.byte	0
 1561 098b 07       		.uleb128 0x7
 1562 098c AC040000 		.4byte	.LASF159
 1563 0990 0F       		.byte	0xf
 1564 0991 B9       		.byte	0xb9
 1565 0992 A9000000 		.4byte	0xa9
 1566 0996 02       		.byte	0x2
 1567 0997 00       		.byte	0
 1568 0998 19       		.uleb128 0x19
 1569 0999 04       		.byte	0x4
 1570 099a 0F       		.byte	0xf
 1571 099b B5       		.byte	0xb5
 1572 099c B3090000 		.4byte	0x9b3
 1573 09a0 1C       		.uleb128 0x1c
 1574 09a1 5700     		.ascii	"W\000"
 1575 09a3 0F       		.byte	0xf
 1576 09a4 B6       		.byte	0xb6
 1577 09a5 BF000000 		.4byte	0xbf
 1578 09a9 1C       		.uleb128 0x1c
 1579 09aa 4800     		.ascii	"H\000"
 1580 09ac 0F       		.byte	0xf
 1581 09ad BA       		.byte	0xba
 1582 09ae 77090000 		.4byte	0x977
 1583 09b2 00       		.byte	0
 1584 09b3 17       		.uleb128 0x17
 1585 09b4 2C       		.byte	0x2c
 1586 09b5 0F       		.byte	0xf
 1587 09b6 AD       		.byte	0xad
 1588 09b7 400A0000 		.4byte	0xa40
 1589 09bb 07       		.uleb128 0x7
 1590 09bc AF000000 		.4byte	.LASF160
ARM GAS  /tmp/ccwSLn2e.s 			page 29


 1591 09c0 0F       		.byte	0xf
 1592 09c1 AF       		.byte	0xaf
 1593 09c2 DA000000 		.4byte	0xda
 1594 09c6 00       		.byte	0
 1595 09c7 07       		.uleb128 0x7
 1596 09c8 4F000000 		.4byte	.LASF161
 1597 09cc 0F       		.byte	0xf
 1598 09cd B0       		.byte	0xb0
 1599 09ce DA000000 		.4byte	0xda
 1600 09d2 04       		.byte	0x4
 1601 09d3 07       		.uleb128 0x7
 1602 09d4 95020000 		.4byte	.LASF162
 1603 09d8 0F       		.byte	0xf
 1604 09d9 B1       		.byte	0xb1
 1605 09da DA000000 		.4byte	0xda
 1606 09de 08       		.byte	0x8
 1607 09df 07       		.uleb128 0x7
 1608 09e0 E7000000 		.4byte	.LASF163
 1609 09e4 0F       		.byte	0xf
 1610 09e5 B2       		.byte	0xb2
 1611 09e6 DA000000 		.4byte	0xda
 1612 09ea 0C       		.byte	0xc
 1613 09eb 16       		.uleb128 0x16
 1614 09ec 49445200 		.ascii	"IDR\000"
 1615 09f0 0F       		.byte	0xf
 1616 09f1 B3       		.byte	0xb3
 1617 09f2 DA000000 		.4byte	0xda
 1618 09f6 10       		.byte	0x10
 1619 09f7 16       		.uleb128 0x16
 1620 09f8 4F445200 		.ascii	"ODR\000"
 1621 09fc 0F       		.byte	0xf
 1622 09fd B4       		.byte	0xb4
 1623 09fe DA000000 		.4byte	0xda
 1624 0a02 14       		.byte	0x14
 1625 0a03 07       		.uleb128 0x7
 1626 0a04 58010000 		.4byte	.LASF164
 1627 0a08 0F       		.byte	0xf
 1628 0a09 BB       		.byte	0xbb
 1629 0a0a 400A0000 		.4byte	0xa40
 1630 0a0e 18       		.byte	0x18
 1631 0a0f 07       		.uleb128 0x7
 1632 0a10 7F030000 		.4byte	.LASF165
 1633 0a14 0F       		.byte	0xf
 1634 0a15 BC       		.byte	0xbc
 1635 0a16 DA000000 		.4byte	0xda
 1636 0a1a 1C       		.byte	0x1c
 1637 0a1b 07       		.uleb128 0x7
 1638 0a1c 3E050000 		.4byte	.LASF166
 1639 0a20 0F       		.byte	0xf
 1640 0a21 BD       		.byte	0xbd
 1641 0a22 DA000000 		.4byte	0xda
 1642 0a26 20       		.byte	0x20
 1643 0a27 07       		.uleb128 0x7
 1644 0a28 2E050000 		.4byte	.LASF167
 1645 0a2c 0F       		.byte	0xf
 1646 0a2d BE       		.byte	0xbe
 1647 0a2e DA000000 		.4byte	0xda
ARM GAS  /tmp/ccwSLn2e.s 			page 30


 1648 0a32 24       		.byte	0x24
 1649 0a33 16       		.uleb128 0x16
 1650 0a34 42525200 		.ascii	"BRR\000"
 1651 0a38 0F       		.byte	0xf
 1652 0a39 BF       		.byte	0xbf
 1653 0a3a DA000000 		.4byte	0xda
 1654 0a3e 28       		.byte	0x28
 1655 0a3f 00       		.byte	0
 1656 0a40 05       		.uleb128 0x5
 1657 0a41 98090000 		.4byte	0x998
 1658 0a45 04       		.uleb128 0x4
 1659 0a46 D2020000 		.4byte	.LASF168
 1660 0a4a 0F       		.byte	0xf
 1661 0a4b C0       		.byte	0xc0
 1662 0a4c B3090000 		.4byte	0x9b3
 1663 0a50 17       		.uleb128 0x17
 1664 0a51 1C       		.byte	0x1c
 1665 0a52 0F       		.byte	0xf
 1666 0a53 C5       		.byte	0xc5
 1667 0a54 AD0A0000 		.4byte	0xaad
 1668 0a58 07       		.uleb128 0x7
 1669 0a59 76010000 		.4byte	.LASF169
 1670 0a5d 0F       		.byte	0xf
 1671 0a5e C7       		.byte	0xc7
 1672 0a5f BF000000 		.4byte	0xbf
 1673 0a63 00       		.byte	0
 1674 0a64 07       		.uleb128 0x7
 1675 0a65 8A030000 		.4byte	.LASF170
 1676 0a69 0F       		.byte	0xf
 1677 0a6a C9       		.byte	0xc9
 1678 0a6b BF000000 		.4byte	0xbf
 1679 0a6f 04       		.byte	0x4
 1680 0a70 07       		.uleb128 0x7
 1681 0a71 77030000 		.4byte	.LASF171
 1682 0a75 0F       		.byte	0xf
 1683 0a76 CB       		.byte	0xcb
 1684 0a77 BF000000 		.4byte	0xbf
 1685 0a7b 08       		.byte	0x8
 1686 0a7c 07       		.uleb128 0x7
 1687 0a7d E8070000 		.4byte	.LASF172
 1688 0a81 0F       		.byte	0xf
 1689 0a82 CD       		.byte	0xcd
 1690 0a83 BF000000 		.4byte	0xbf
 1691 0a87 0C       		.byte	0xc
 1692 0a88 16       		.uleb128 0x16
 1693 0a89 6F647200 		.ascii	"odr\000"
 1694 0a8d 0F       		.byte	0xf
 1695 0a8e CF       		.byte	0xcf
 1696 0a8f BF000000 		.4byte	0xbf
 1697 0a93 10       		.byte	0x10
 1698 0a94 07       		.uleb128 0x7
 1699 0a95 C8050000 		.4byte	.LASF173
 1700 0a99 0F       		.byte	0xf
 1701 0a9a D1       		.byte	0xd1
 1702 0a9b BF000000 		.4byte	0xbf
 1703 0a9f 14       		.byte	0x14
 1704 0aa0 07       		.uleb128 0x7
ARM GAS  /tmp/ccwSLn2e.s 			page 31


 1705 0aa1 04050000 		.4byte	.LASF174
 1706 0aa5 0F       		.byte	0xf
 1707 0aa6 D3       		.byte	0xd3
 1708 0aa7 BF000000 		.4byte	0xbf
 1709 0aab 18       		.byte	0x18
 1710 0aac 00       		.byte	0
 1711 0aad 04       		.uleb128 0x4
 1712 0aae 00000000 		.4byte	.LASF175
 1713 0ab2 0F       		.byte	0xf
 1714 0ab3 D4       		.byte	0xd4
 1715 0ab4 500A0000 		.4byte	0xa50
 1716 0ab8 17       		.uleb128 0x17
 1717 0ab9 FC       		.byte	0xfc
 1718 0aba 0F       		.byte	0xf
 1719 0abb DD       		.byte	0xdd
 1720 0abc 2E0B0000 		.4byte	0xb2e
 1721 0ac0 07       		.uleb128 0x7
 1722 0ac1 00060000 		.4byte	.LASF176
 1723 0ac5 0F       		.byte	0xf
 1724 0ac6 E0       		.byte	0xe0
 1725 0ac7 AD0A0000 		.4byte	0xaad
 1726 0acb 00       		.byte	0
 1727 0acc 07       		.uleb128 0x7
 1728 0acd EC020000 		.4byte	.LASF177
 1729 0ad1 0F       		.byte	0xf
 1730 0ad2 E4       		.byte	0xe4
 1731 0ad3 AD0A0000 		.4byte	0xaad
 1732 0ad7 1C       		.byte	0x1c
 1733 0ad8 07       		.uleb128 0x7
 1734 0ad9 04080000 		.4byte	.LASF178
 1735 0add 0F       		.byte	0xf
 1736 0ade E8       		.byte	0xe8
 1737 0adf AD0A0000 		.4byte	0xaad
 1738 0ae3 38       		.byte	0x38
 1739 0ae4 07       		.uleb128 0x7
 1740 0ae5 09050000 		.4byte	.LASF179
 1741 0ae9 0F       		.byte	0xf
 1742 0aea EC       		.byte	0xec
 1743 0aeb AD0A0000 		.4byte	0xaad
 1744 0aef 54       		.byte	0x54
 1745 0af0 07       		.uleb128 0x7
 1746 0af1 9B010000 		.4byte	.LASF180
 1747 0af5 0F       		.byte	0xf
 1748 0af6 F0       		.byte	0xf0
 1749 0af7 AD0A0000 		.4byte	0xaad
 1750 0afb 70       		.byte	0x70
 1751 0afc 07       		.uleb128 0x7
 1752 0afd 23080000 		.4byte	.LASF181
 1753 0b01 0F       		.byte	0xf
 1754 0b02 F4       		.byte	0xf4
 1755 0b03 AD0A0000 		.4byte	0xaad
 1756 0b07 8C       		.byte	0x8c
 1757 0b08 07       		.uleb128 0x7
 1758 0b09 36040000 		.4byte	.LASF182
 1759 0b0d 0F       		.byte	0xf
 1760 0b0e F8       		.byte	0xf8
 1761 0b0f AD0A0000 		.4byte	0xaad
ARM GAS  /tmp/ccwSLn2e.s 			page 32


 1762 0b13 A8       		.byte	0xa8
 1763 0b14 07       		.uleb128 0x7
 1764 0b15 95000000 		.4byte	.LASF183
 1765 0b19 0F       		.byte	0xf
 1766 0b1a FC       		.byte	0xfc
 1767 0b1b AD0A0000 		.4byte	0xaad
 1768 0b1f C4       		.byte	0xc4
 1769 0b20 09       		.uleb128 0x9
 1770 0b21 3B060000 		.4byte	.LASF184
 1771 0b25 0F       		.byte	0xf
 1772 0b26 0001     		.2byte	0x100
 1773 0b28 AD0A0000 		.4byte	0xaad
 1774 0b2c E0       		.byte	0xe0
 1775 0b2d 00       		.byte	0
 1776 0b2e 15       		.uleb128 0x15
 1777 0b2f 8F070000 		.4byte	.LASF185
 1778 0b33 0F       		.byte	0xf
 1779 0b34 0A01     		.2byte	0x10a
 1780 0b36 B80A0000 		.4byte	0xab8
 1781 0b3a 15       		.uleb128 0x15
 1782 0b3b 82000000 		.4byte	.LASF186
 1783 0b3f 0F       		.byte	0xf
 1784 0b40 1A01     		.2byte	0x11a
 1785 0b42 BF000000 		.4byte	0xbf
 1786 0b46 15       		.uleb128 0x15
 1787 0b47 2A080000 		.4byte	.LASF187
 1788 0b4b 0F       		.byte	0xf
 1789 0b4c 1F01     		.2byte	0x11f
 1790 0b4e BF000000 		.4byte	0xbf
 1791 0b52 15       		.uleb128 0x15
 1792 0b53 47070000 		.4byte	.LASF188
 1793 0b57 0F       		.byte	0xf
 1794 0b58 2701     		.2byte	0x127
 1795 0b5a 5E0B0000 		.4byte	0xb5e
 1796 0b5e 0A       		.uleb128 0xa
 1797 0b5f 04       		.byte	0x4
 1798 0b60 450A0000 		.4byte	0xa45
 1799 0b64 1D       		.uleb128 0x1d
 1800 0b65 25070000 		.4byte	.LASF201
 1801 0b69 01       		.byte	0x1
 1802 0b6a 3D       		.byte	0x3d
 1803 0b6b 00000000 		.4byte	.LFB271
 1804 0b6f 42000000 		.4byte	.LFE271-.LFB271
 1805 0b73 01       		.uleb128 0x1
 1806 0b74 9C       		.byte	0x9c
 1807 0b75 960B0000 		.4byte	0xb96
 1808 0b79 1E       		.uleb128 0x1e
 1809 0b7a 2D060000 		.4byte	.LASF189
 1810 0b7e 01       		.byte	0x1
 1811 0b7f 3D       		.byte	0x3d
 1812 0b80 5E0B0000 		.4byte	0xb5e
 1813 0b84 02       		.uleb128 0x2
 1814 0b85 91       		.byte	0x91
 1815 0b86 7C       		.sleb128 -4
 1816 0b87 1E       		.uleb128 0x1e
 1817 0b88 C7060000 		.4byte	.LASF190
 1818 0b8c 01       		.byte	0x1
ARM GAS  /tmp/ccwSLn2e.s 			page 33


 1819 0b8d 3D       		.byte	0x3d
 1820 0b8e 960B0000 		.4byte	0xb96
 1821 0b92 02       		.uleb128 0x2
 1822 0b93 91       		.byte	0x91
 1823 0b94 78       		.sleb128 -8
 1824 0b95 00       		.byte	0
 1825 0b96 0A       		.uleb128 0xa
 1826 0b97 04       		.byte	0x4
 1827 0b98 9C0B0000 		.4byte	0xb9c
 1828 0b9c 1B       		.uleb128 0x1b
 1829 0b9d AD0A0000 		.4byte	0xaad
 1830 0ba1 1F       		.uleb128 0x1f
 1831 0ba2 C7070000 		.4byte	.LASF191
 1832 0ba6 01       		.byte	0x1
 1833 0ba7 58       		.byte	0x58
 1834 0ba8 00000000 		.4byte	.LFB272
 1835 0bac C0000000 		.4byte	.LFE272-.LFB272
 1836 0bb0 01       		.uleb128 0x1
 1837 0bb1 9C       		.byte	0x9c
 1838 0bb2 C50B0000 		.4byte	0xbc5
 1839 0bb6 1E       		.uleb128 0x1e
 1840 0bb7 C7060000 		.4byte	.LASF190
 1841 0bbb 01       		.byte	0x1
 1842 0bbc 58       		.byte	0x58
 1843 0bbd C50B0000 		.4byte	0xbc5
 1844 0bc1 02       		.uleb128 0x2
 1845 0bc2 91       		.byte	0x91
 1846 0bc3 74       		.sleb128 -12
 1847 0bc4 00       		.byte	0
 1848 0bc5 0A       		.uleb128 0xa
 1849 0bc6 04       		.byte	0x4
 1850 0bc7 CB0B0000 		.4byte	0xbcb
 1851 0bcb 1B       		.uleb128 0x1b
 1852 0bcc 2E0B0000 		.4byte	0xb2e
 1853 0bd0 20       		.uleb128 0x20
 1854 0bd1 6A070000 		.4byte	.LASF192
 1855 0bd5 01       		.byte	0x1
 1856 0bd6 A0       		.byte	0xa0
 1857 0bd7 00000000 		.4byte	.LFB273
 1858 0bdb 22010000 		.4byte	.LFE273-.LFB273
 1859 0bdf 01       		.uleb128 0x1
 1860 0be0 9C       		.byte	0x9c
 1861 0be1 A30C0000 		.4byte	0xca3
 1862 0be5 1E       		.uleb128 0x1e
 1863 0be6 DF020000 		.4byte	.LASF193
 1864 0bea 01       		.byte	0x1
 1865 0beb A0       		.byte	0xa0
 1866 0bec 520B0000 		.4byte	0xb52
 1867 0bf0 02       		.uleb128 0x2
 1868 0bf1 91       		.byte	0x91
 1869 0bf2 54       		.sleb128 -44
 1870 0bf3 1E       		.uleb128 0x1e
 1871 0bf4 A5020000 		.4byte	.LASF194
 1872 0bf8 01       		.byte	0x1
 1873 0bf9 A1       		.byte	0xa1
 1874 0bfa 3A0B0000 		.4byte	0xb3a
 1875 0bfe 02       		.uleb128 0x2
ARM GAS  /tmp/ccwSLn2e.s 			page 34


 1876 0bff 91       		.byte	0x91
 1877 0c00 50       		.sleb128 -48
 1878 0c01 1E       		.uleb128 0x1e
 1879 0c02 C2060000 		.4byte	.LASF195
 1880 0c06 01       		.byte	0x1
 1881 0c07 A2       		.byte	0xa2
 1882 0c08 460B0000 		.4byte	0xb46
 1883 0c0c 02       		.uleb128 0x2
 1884 0c0d 91       		.byte	0x91
 1885 0c0e 4C       		.sleb128 -52
 1886 0c0f 21       		.uleb128 0x21
 1887 0c10 76010000 		.4byte	.LASF169
 1888 0c14 01       		.byte	0x1
 1889 0c15 A4       		.byte	0xa4
 1890 0c16 BF000000 		.4byte	0xbf
 1891 0c1a 02       		.uleb128 0x2
 1892 0c1b 91       		.byte	0x91
 1893 0c1c 7C       		.sleb128 -4
 1894 0c1d 21       		.uleb128 0x21
 1895 0c1e 8A030000 		.4byte	.LASF170
 1896 0c22 01       		.byte	0x1
 1897 0c23 A5       		.byte	0xa5
 1898 0c24 BF000000 		.4byte	0xbf
 1899 0c28 02       		.uleb128 0x2
 1900 0c29 91       		.byte	0x91
 1901 0c2a 78       		.sleb128 -8
 1902 0c2b 21       		.uleb128 0x21
 1903 0c2c 77030000 		.4byte	.LASF171
 1904 0c30 01       		.byte	0x1
 1905 0c31 A6       		.byte	0xa6
 1906 0c32 BF000000 		.4byte	0xbf
 1907 0c36 02       		.uleb128 0x2
 1908 0c37 91       		.byte	0x91
 1909 0c38 74       		.sleb128 -12
 1910 0c39 21       		.uleb128 0x21
 1911 0c3a E8070000 		.4byte	.LASF172
 1912 0c3e 01       		.byte	0x1
 1913 0c3f A7       		.byte	0xa7
 1914 0c40 BF000000 		.4byte	0xbf
 1915 0c44 02       		.uleb128 0x2
 1916 0c45 91       		.byte	0x91
 1917 0c46 70       		.sleb128 -16
 1918 0c47 21       		.uleb128 0x21
 1919 0c48 B8060000 		.4byte	.LASF196
 1920 0c4c 01       		.byte	0x1
 1921 0c4d A8       		.byte	0xa8
 1922 0c4e BF000000 		.4byte	0xbf
 1923 0c52 02       		.uleb128 0x2
 1924 0c53 91       		.byte	0x91
 1925 0c54 68       		.sleb128 -24
 1926 0c55 22       		.uleb128 0x22
 1927 0c56 62697400 		.ascii	"bit\000"
 1928 0c5a 01       		.byte	0x1
 1929 0c5b A9       		.byte	0xa9
 1930 0c5c BF000000 		.4byte	0xbf
 1931 0c60 02       		.uleb128 0x2
 1932 0c61 91       		.byte	0x91
ARM GAS  /tmp/ccwSLn2e.s 			page 35


 1933 0c62 6C       		.sleb128 -20
 1934 0c63 23       		.uleb128 0x23
 1935 0c64 46000000 		.4byte	.LBB2
 1936 0c68 AA000000 		.4byte	.LBE2-.LBB2
 1937 0c6c 21       		.uleb128 0x21
 1938 0c6d C4010000 		.4byte	.LASF197
 1939 0c71 01       		.byte	0x1
 1940 0c72 AC       		.byte	0xac
 1941 0c73 BF000000 		.4byte	0xbf
 1942 0c77 02       		.uleb128 0x2
 1943 0c78 91       		.byte	0x91
 1944 0c79 64       		.sleb128 -28
 1945 0c7a 22       		.uleb128 0x22
 1946 0c7b 6D3100   		.ascii	"m1\000"
 1947 0c7e 01       		.byte	0x1
 1948 0c7f AC       		.byte	0xac
 1949 0c80 BF000000 		.4byte	0xbf
 1950 0c84 02       		.uleb128 0x2
 1951 0c85 91       		.byte	0x91
 1952 0c86 5C       		.sleb128 -36
 1953 0c87 22       		.uleb128 0x22
 1954 0c88 6D3200   		.ascii	"m2\000"
 1955 0c8b 01       		.byte	0x1
 1956 0c8c AC       		.byte	0xac
 1957 0c8d BF000000 		.4byte	0xbf
 1958 0c91 02       		.uleb128 0x2
 1959 0c92 91       		.byte	0x91
 1960 0c93 58       		.sleb128 -40
 1961 0c94 22       		.uleb128 0x22
 1962 0c95 6D3400   		.ascii	"m4\000"
 1963 0c98 01       		.byte	0x1
 1964 0c99 AC       		.byte	0xac
 1965 0c9a BF000000 		.4byte	0xbf
 1966 0c9e 02       		.uleb128 0x2
 1967 0c9f 91       		.byte	0x91
 1968 0ca0 60       		.sleb128 -32
 1969 0ca1 00       		.byte	0
 1970 0ca2 00       		.byte	0
 1971 0ca3 24       		.uleb128 0x24
 1972 0ca4 17010000 		.4byte	.LASF198
 1973 0ca8 10       		.byte	0x10
 1974 0ca9 FA06     		.2byte	0x6fa
 1975 0cab D5000000 		.4byte	0xd5
 1976 0caf 25       		.uleb128 0x25
 1977 0cb0 636800   		.ascii	"ch\000"
 1978 0cb3 06       		.byte	0x6
 1979 0cb4 0902     		.2byte	0x209
 1980 0cb6 48040000 		.4byte	0x448
 1981 0cba 00       		.byte	0
 1982              		.section	.debug_abbrev,"",%progbits
 1983              	.Ldebug_abbrev0:
 1984 0000 01       		.uleb128 0x1
 1985 0001 11       		.uleb128 0x11
 1986 0002 01       		.byte	0x1
 1987 0003 25       		.uleb128 0x25
 1988 0004 0E       		.uleb128 0xe
 1989 0005 13       		.uleb128 0x13
ARM GAS  /tmp/ccwSLn2e.s 			page 36


 1990 0006 0B       		.uleb128 0xb
 1991 0007 03       		.uleb128 0x3
 1992 0008 0E       		.uleb128 0xe
 1993 0009 55       		.uleb128 0x55
 1994 000a 17       		.uleb128 0x17
 1995 000b 11       		.uleb128 0x11
 1996 000c 01       		.uleb128 0x1
 1997 000d 10       		.uleb128 0x10
 1998 000e 17       		.uleb128 0x17
 1999 000f 00       		.byte	0
 2000 0010 00       		.byte	0
 2001 0011 02       		.uleb128 0x2
 2002 0012 24       		.uleb128 0x24
 2003 0013 00       		.byte	0
 2004 0014 0B       		.uleb128 0xb
 2005 0015 0B       		.uleb128 0xb
 2006 0016 3E       		.uleb128 0x3e
 2007 0017 0B       		.uleb128 0xb
 2008 0018 03       		.uleb128 0x3
 2009 0019 08       		.uleb128 0x8
 2010 001a 00       		.byte	0
 2011 001b 00       		.byte	0
 2012 001c 03       		.uleb128 0x3
 2013 001d 24       		.uleb128 0x24
 2014 001e 00       		.byte	0
 2015 001f 0B       		.uleb128 0xb
 2016 0020 0B       		.uleb128 0xb
 2017 0021 3E       		.uleb128 0x3e
 2018 0022 0B       		.uleb128 0xb
 2019 0023 03       		.uleb128 0x3
 2020 0024 0E       		.uleb128 0xe
 2021 0025 00       		.byte	0
 2022 0026 00       		.byte	0
 2023 0027 04       		.uleb128 0x4
 2024 0028 16       		.uleb128 0x16
 2025 0029 00       		.byte	0
 2026 002a 03       		.uleb128 0x3
 2027 002b 0E       		.uleb128 0xe
 2028 002c 3A       		.uleb128 0x3a
 2029 002d 0B       		.uleb128 0xb
 2030 002e 3B       		.uleb128 0x3b
 2031 002f 0B       		.uleb128 0xb
 2032 0030 49       		.uleb128 0x49
 2033 0031 13       		.uleb128 0x13
 2034 0032 00       		.byte	0
 2035 0033 00       		.byte	0
 2036 0034 05       		.uleb128 0x5
 2037 0035 35       		.uleb128 0x35
 2038 0036 00       		.byte	0
 2039 0037 49       		.uleb128 0x49
 2040 0038 13       		.uleb128 0x13
 2041 0039 00       		.byte	0
 2042 003a 00       		.byte	0
 2043 003b 06       		.uleb128 0x6
 2044 003c 13       		.uleb128 0x13
 2045 003d 01       		.byte	0x1
 2046 003e 03       		.uleb128 0x3
ARM GAS  /tmp/ccwSLn2e.s 			page 37


 2047 003f 0E       		.uleb128 0xe
 2048 0040 0B       		.uleb128 0xb
 2049 0041 0B       		.uleb128 0xb
 2050 0042 3A       		.uleb128 0x3a
 2051 0043 0B       		.uleb128 0xb
 2052 0044 3B       		.uleb128 0x3b
 2053 0045 0B       		.uleb128 0xb
 2054 0046 01       		.uleb128 0x1
 2055 0047 13       		.uleb128 0x13
 2056 0048 00       		.byte	0
 2057 0049 00       		.byte	0
 2058 004a 07       		.uleb128 0x7
 2059 004b 0D       		.uleb128 0xd
 2060 004c 00       		.byte	0
 2061 004d 03       		.uleb128 0x3
 2062 004e 0E       		.uleb128 0xe
 2063 004f 3A       		.uleb128 0x3a
 2064 0050 0B       		.uleb128 0xb
 2065 0051 3B       		.uleb128 0x3b
 2066 0052 0B       		.uleb128 0xb
 2067 0053 49       		.uleb128 0x49
 2068 0054 13       		.uleb128 0x13
 2069 0055 38       		.uleb128 0x38
 2070 0056 0B       		.uleb128 0xb
 2071 0057 00       		.byte	0
 2072 0058 00       		.byte	0
 2073 0059 08       		.uleb128 0x8
 2074 005a 0D       		.uleb128 0xd
 2075 005b 00       		.byte	0
 2076 005c 03       		.uleb128 0x3
 2077 005d 08       		.uleb128 0x8
 2078 005e 3A       		.uleb128 0x3a
 2079 005f 0B       		.uleb128 0xb
 2080 0060 3B       		.uleb128 0x3b
 2081 0061 05       		.uleb128 0x5
 2082 0062 49       		.uleb128 0x49
 2083 0063 13       		.uleb128 0x13
 2084 0064 38       		.uleb128 0x38
 2085 0065 0B       		.uleb128 0xb
 2086 0066 00       		.byte	0
 2087 0067 00       		.byte	0
 2088 0068 09       		.uleb128 0x9
 2089 0069 0D       		.uleb128 0xd
 2090 006a 00       		.byte	0
 2091 006b 03       		.uleb128 0x3
 2092 006c 0E       		.uleb128 0xe
 2093 006d 3A       		.uleb128 0x3a
 2094 006e 0B       		.uleb128 0xb
 2095 006f 3B       		.uleb128 0x3b
 2096 0070 05       		.uleb128 0x5
 2097 0071 49       		.uleb128 0x49
 2098 0072 13       		.uleb128 0x13
 2099 0073 38       		.uleb128 0x38
 2100 0074 0B       		.uleb128 0xb
 2101 0075 00       		.byte	0
 2102 0076 00       		.byte	0
 2103 0077 0A       		.uleb128 0xa
ARM GAS  /tmp/ccwSLn2e.s 			page 38


 2104 0078 0F       		.uleb128 0xf
 2105 0079 00       		.byte	0
 2106 007a 0B       		.uleb128 0xb
 2107 007b 0B       		.uleb128 0xb
 2108 007c 49       		.uleb128 0x49
 2109 007d 13       		.uleb128 0x13
 2110 007e 00       		.byte	0
 2111 007f 00       		.byte	0
 2112 0080 0B       		.uleb128 0xb
 2113 0081 13       		.uleb128 0x13
 2114 0082 01       		.byte	0x1
 2115 0083 03       		.uleb128 0x3
 2116 0084 0E       		.uleb128 0xe
 2117 0085 0B       		.uleb128 0xb
 2118 0086 0B       		.uleb128 0xb
 2119 0087 3A       		.uleb128 0x3a
 2120 0088 0B       		.uleb128 0xb
 2121 0089 3B       		.uleb128 0x3b
 2122 008a 05       		.uleb128 0x5
 2123 008b 01       		.uleb128 0x1
 2124 008c 13       		.uleb128 0x13
 2125 008d 00       		.byte	0
 2126 008e 00       		.byte	0
 2127 008f 0C       		.uleb128 0xc
 2128 0090 15       		.uleb128 0x15
 2129 0091 01       		.byte	0x1
 2130 0092 27       		.uleb128 0x27
 2131 0093 19       		.uleb128 0x19
 2132 0094 01       		.uleb128 0x1
 2133 0095 13       		.uleb128 0x13
 2134 0096 00       		.byte	0
 2135 0097 00       		.byte	0
 2136 0098 0D       		.uleb128 0xd
 2137 0099 05       		.uleb128 0x5
 2138 009a 00       		.byte	0
 2139 009b 49       		.uleb128 0x49
 2140 009c 13       		.uleb128 0x13
 2141 009d 00       		.byte	0
 2142 009e 00       		.byte	0
 2143 009f 0E       		.uleb128 0xe
 2144 00a0 0F       		.uleb128 0xf
 2145 00a1 00       		.byte	0
 2146 00a2 0B       		.uleb128 0xb
 2147 00a3 0B       		.uleb128 0xb
 2148 00a4 00       		.byte	0
 2149 00a5 00       		.byte	0
 2150 00a6 0F       		.uleb128 0xf
 2151 00a7 13       		.uleb128 0x13
 2152 00a8 01       		.byte	0x1
 2153 00a9 03       		.uleb128 0x3
 2154 00aa 0E       		.uleb128 0xe
 2155 00ab 0B       		.uleb128 0xb
 2156 00ac 05       		.uleb128 0x5
 2157 00ad 3A       		.uleb128 0x3a
 2158 00ae 0B       		.uleb128 0xb
 2159 00af 3B       		.uleb128 0x3b
 2160 00b0 05       		.uleb128 0x5
ARM GAS  /tmp/ccwSLn2e.s 			page 39


 2161 00b1 01       		.uleb128 0x1
 2162 00b2 13       		.uleb128 0x13
 2163 00b3 00       		.byte	0
 2164 00b4 00       		.byte	0
 2165 00b5 10       		.uleb128 0x10
 2166 00b6 0D       		.uleb128 0xd
 2167 00b7 00       		.byte	0
 2168 00b8 03       		.uleb128 0x3
 2169 00b9 0E       		.uleb128 0xe
 2170 00ba 3A       		.uleb128 0x3a
 2171 00bb 0B       		.uleb128 0xb
 2172 00bc 3B       		.uleb128 0x3b
 2173 00bd 05       		.uleb128 0x5
 2174 00be 49       		.uleb128 0x49
 2175 00bf 13       		.uleb128 0x13
 2176 00c0 38       		.uleb128 0x38
 2177 00c1 05       		.uleb128 0x5
 2178 00c2 00       		.byte	0
 2179 00c3 00       		.byte	0
 2180 00c4 11       		.uleb128 0x11
 2181 00c5 0D       		.uleb128 0xd
 2182 00c6 00       		.byte	0
 2183 00c7 03       		.uleb128 0x3
 2184 00c8 08       		.uleb128 0x8
 2185 00c9 3A       		.uleb128 0x3a
 2186 00ca 0B       		.uleb128 0xb
 2187 00cb 3B       		.uleb128 0x3b
 2188 00cc 05       		.uleb128 0x5
 2189 00cd 49       		.uleb128 0x49
 2190 00ce 13       		.uleb128 0x13
 2191 00cf 38       		.uleb128 0x38
 2192 00d0 05       		.uleb128 0x5
 2193 00d1 00       		.byte	0
 2194 00d2 00       		.byte	0
 2195 00d3 12       		.uleb128 0x12
 2196 00d4 01       		.uleb128 0x1
 2197 00d5 01       		.byte	0x1
 2198 00d6 49       		.uleb128 0x49
 2199 00d7 13       		.uleb128 0x13
 2200 00d8 01       		.uleb128 0x1
 2201 00d9 13       		.uleb128 0x13
 2202 00da 00       		.byte	0
 2203 00db 00       		.byte	0
 2204 00dc 13       		.uleb128 0x13
 2205 00dd 21       		.uleb128 0x21
 2206 00de 00       		.byte	0
 2207 00df 49       		.uleb128 0x49
 2208 00e0 13       		.uleb128 0x13
 2209 00e1 2F       		.uleb128 0x2f
 2210 00e2 0B       		.uleb128 0xb
 2211 00e3 00       		.byte	0
 2212 00e4 00       		.byte	0
 2213 00e5 14       		.uleb128 0x14
 2214 00e6 13       		.uleb128 0x13
 2215 00e7 01       		.byte	0x1
 2216 00e8 0B       		.uleb128 0xb
 2217 00e9 0B       		.uleb128 0xb
ARM GAS  /tmp/ccwSLn2e.s 			page 40


 2218 00ea 3A       		.uleb128 0x3a
 2219 00eb 0B       		.uleb128 0xb
 2220 00ec 3B       		.uleb128 0x3b
 2221 00ed 05       		.uleb128 0x5
 2222 00ee 01       		.uleb128 0x1
 2223 00ef 13       		.uleb128 0x13
 2224 00f0 00       		.byte	0
 2225 00f1 00       		.byte	0
 2226 00f2 15       		.uleb128 0x15
 2227 00f3 16       		.uleb128 0x16
 2228 00f4 00       		.byte	0
 2229 00f5 03       		.uleb128 0x3
 2230 00f6 0E       		.uleb128 0xe
 2231 00f7 3A       		.uleb128 0x3a
 2232 00f8 0B       		.uleb128 0xb
 2233 00f9 3B       		.uleb128 0x3b
 2234 00fa 05       		.uleb128 0x5
 2235 00fb 49       		.uleb128 0x49
 2236 00fc 13       		.uleb128 0x13
 2237 00fd 00       		.byte	0
 2238 00fe 00       		.byte	0
 2239 00ff 16       		.uleb128 0x16
 2240 0100 0D       		.uleb128 0xd
 2241 0101 00       		.byte	0
 2242 0102 03       		.uleb128 0x3
 2243 0103 08       		.uleb128 0x8
 2244 0104 3A       		.uleb128 0x3a
 2245 0105 0B       		.uleb128 0xb
 2246 0106 3B       		.uleb128 0x3b
 2247 0107 0B       		.uleb128 0xb
 2248 0108 49       		.uleb128 0x49
 2249 0109 13       		.uleb128 0x13
 2250 010a 38       		.uleb128 0x38
 2251 010b 0B       		.uleb128 0xb
 2252 010c 00       		.byte	0
 2253 010d 00       		.byte	0
 2254 010e 17       		.uleb128 0x17
 2255 010f 13       		.uleb128 0x13
 2256 0110 01       		.byte	0x1
 2257 0111 0B       		.uleb128 0xb
 2258 0112 0B       		.uleb128 0xb
 2259 0113 3A       		.uleb128 0x3a
 2260 0114 0B       		.uleb128 0xb
 2261 0115 3B       		.uleb128 0x3b
 2262 0116 0B       		.uleb128 0xb
 2263 0117 01       		.uleb128 0x1
 2264 0118 13       		.uleb128 0x13
 2265 0119 00       		.byte	0
 2266 011a 00       		.byte	0
 2267 011b 18       		.uleb128 0x18
 2268 011c 13       		.uleb128 0x13
 2269 011d 01       		.byte	0x1
 2270 011e 0B       		.uleb128 0xb
 2271 011f 05       		.uleb128 0x5
 2272 0120 3A       		.uleb128 0x3a
 2273 0121 0B       		.uleb128 0xb
 2274 0122 3B       		.uleb128 0x3b
ARM GAS  /tmp/ccwSLn2e.s 			page 41


 2275 0123 0B       		.uleb128 0xb
 2276 0124 01       		.uleb128 0x1
 2277 0125 13       		.uleb128 0x13
 2278 0126 00       		.byte	0
 2279 0127 00       		.byte	0
 2280 0128 19       		.uleb128 0x19
 2281 0129 17       		.uleb128 0x17
 2282 012a 01       		.byte	0x1
 2283 012b 0B       		.uleb128 0xb
 2284 012c 0B       		.uleb128 0xb
 2285 012d 3A       		.uleb128 0x3a
 2286 012e 0B       		.uleb128 0xb
 2287 012f 3B       		.uleb128 0x3b
 2288 0130 0B       		.uleb128 0xb
 2289 0131 01       		.uleb128 0x1
 2290 0132 13       		.uleb128 0x13
 2291 0133 00       		.byte	0
 2292 0134 00       		.byte	0
 2293 0135 1A       		.uleb128 0x1a
 2294 0136 0D       		.uleb128 0xd
 2295 0137 00       		.byte	0
 2296 0138 03       		.uleb128 0x3
 2297 0139 0E       		.uleb128 0xe
 2298 013a 3A       		.uleb128 0x3a
 2299 013b 0B       		.uleb128 0xb
 2300 013c 3B       		.uleb128 0x3b
 2301 013d 05       		.uleb128 0x5
 2302 013e 49       		.uleb128 0x49
 2303 013f 13       		.uleb128 0x13
 2304 0140 00       		.byte	0
 2305 0141 00       		.byte	0
 2306 0142 1B       		.uleb128 0x1b
 2307 0143 26       		.uleb128 0x26
 2308 0144 00       		.byte	0
 2309 0145 49       		.uleb128 0x49
 2310 0146 13       		.uleb128 0x13
 2311 0147 00       		.byte	0
 2312 0148 00       		.byte	0
 2313 0149 1C       		.uleb128 0x1c
 2314 014a 0D       		.uleb128 0xd
 2315 014b 00       		.byte	0
 2316 014c 03       		.uleb128 0x3
 2317 014d 08       		.uleb128 0x8
 2318 014e 3A       		.uleb128 0x3a
 2319 014f 0B       		.uleb128 0xb
 2320 0150 3B       		.uleb128 0x3b
 2321 0151 0B       		.uleb128 0xb
 2322 0152 49       		.uleb128 0x49
 2323 0153 13       		.uleb128 0x13
 2324 0154 00       		.byte	0
 2325 0155 00       		.byte	0
 2326 0156 1D       		.uleb128 0x1d
 2327 0157 2E       		.uleb128 0x2e
 2328 0158 01       		.byte	0x1
 2329 0159 03       		.uleb128 0x3
 2330 015a 0E       		.uleb128 0xe
 2331 015b 3A       		.uleb128 0x3a
ARM GAS  /tmp/ccwSLn2e.s 			page 42


 2332 015c 0B       		.uleb128 0xb
 2333 015d 3B       		.uleb128 0x3b
 2334 015e 0B       		.uleb128 0xb
 2335 015f 27       		.uleb128 0x27
 2336 0160 19       		.uleb128 0x19
 2337 0161 11       		.uleb128 0x11
 2338 0162 01       		.uleb128 0x1
 2339 0163 12       		.uleb128 0x12
 2340 0164 06       		.uleb128 0x6
 2341 0165 40       		.uleb128 0x40
 2342 0166 18       		.uleb128 0x18
 2343 0167 9742     		.uleb128 0x2117
 2344 0169 19       		.uleb128 0x19
 2345 016a 01       		.uleb128 0x1
 2346 016b 13       		.uleb128 0x13
 2347 016c 00       		.byte	0
 2348 016d 00       		.byte	0
 2349 016e 1E       		.uleb128 0x1e
 2350 016f 05       		.uleb128 0x5
 2351 0170 00       		.byte	0
 2352 0171 03       		.uleb128 0x3
 2353 0172 0E       		.uleb128 0xe
 2354 0173 3A       		.uleb128 0x3a
 2355 0174 0B       		.uleb128 0xb
 2356 0175 3B       		.uleb128 0x3b
 2357 0176 0B       		.uleb128 0xb
 2358 0177 49       		.uleb128 0x49
 2359 0178 13       		.uleb128 0x13
 2360 0179 02       		.uleb128 0x2
 2361 017a 18       		.uleb128 0x18
 2362 017b 00       		.byte	0
 2363 017c 00       		.byte	0
 2364 017d 1F       		.uleb128 0x1f
 2365 017e 2E       		.uleb128 0x2e
 2366 017f 01       		.byte	0x1
 2367 0180 3F       		.uleb128 0x3f
 2368 0181 19       		.uleb128 0x19
 2369 0182 03       		.uleb128 0x3
 2370 0183 0E       		.uleb128 0xe
 2371 0184 3A       		.uleb128 0x3a
 2372 0185 0B       		.uleb128 0xb
 2373 0186 3B       		.uleb128 0x3b
 2374 0187 0B       		.uleb128 0xb
 2375 0188 27       		.uleb128 0x27
 2376 0189 19       		.uleb128 0x19
 2377 018a 11       		.uleb128 0x11
 2378 018b 01       		.uleb128 0x1
 2379 018c 12       		.uleb128 0x12
 2380 018d 06       		.uleb128 0x6
 2381 018e 40       		.uleb128 0x40
 2382 018f 18       		.uleb128 0x18
 2383 0190 9642     		.uleb128 0x2116
 2384 0192 19       		.uleb128 0x19
 2385 0193 01       		.uleb128 0x1
 2386 0194 13       		.uleb128 0x13
 2387 0195 00       		.byte	0
 2388 0196 00       		.byte	0
ARM GAS  /tmp/ccwSLn2e.s 			page 43


 2389 0197 20       		.uleb128 0x20
 2390 0198 2E       		.uleb128 0x2e
 2391 0199 01       		.byte	0x1
 2392 019a 3F       		.uleb128 0x3f
 2393 019b 19       		.uleb128 0x19
 2394 019c 03       		.uleb128 0x3
 2395 019d 0E       		.uleb128 0xe
 2396 019e 3A       		.uleb128 0x3a
 2397 019f 0B       		.uleb128 0xb
 2398 01a0 3B       		.uleb128 0x3b
 2399 01a1 0B       		.uleb128 0xb
 2400 01a2 27       		.uleb128 0x27
 2401 01a3 19       		.uleb128 0x19
 2402 01a4 11       		.uleb128 0x11
 2403 01a5 01       		.uleb128 0x1
 2404 01a6 12       		.uleb128 0x12
 2405 01a7 06       		.uleb128 0x6
 2406 01a8 40       		.uleb128 0x40
 2407 01a9 18       		.uleb128 0x18
 2408 01aa 9742     		.uleb128 0x2117
 2409 01ac 19       		.uleb128 0x19
 2410 01ad 01       		.uleb128 0x1
 2411 01ae 13       		.uleb128 0x13
 2412 01af 00       		.byte	0
 2413 01b0 00       		.byte	0
 2414 01b1 21       		.uleb128 0x21
 2415 01b2 34       		.uleb128 0x34
 2416 01b3 00       		.byte	0
 2417 01b4 03       		.uleb128 0x3
 2418 01b5 0E       		.uleb128 0xe
 2419 01b6 3A       		.uleb128 0x3a
 2420 01b7 0B       		.uleb128 0xb
 2421 01b8 3B       		.uleb128 0x3b
 2422 01b9 0B       		.uleb128 0xb
 2423 01ba 49       		.uleb128 0x49
 2424 01bb 13       		.uleb128 0x13
 2425 01bc 02       		.uleb128 0x2
 2426 01bd 18       		.uleb128 0x18
 2427 01be 00       		.byte	0
 2428 01bf 00       		.byte	0
 2429 01c0 22       		.uleb128 0x22
 2430 01c1 34       		.uleb128 0x34
 2431 01c2 00       		.byte	0
 2432 01c3 03       		.uleb128 0x3
 2433 01c4 08       		.uleb128 0x8
 2434 01c5 3A       		.uleb128 0x3a
 2435 01c6 0B       		.uleb128 0xb
 2436 01c7 3B       		.uleb128 0x3b
 2437 01c8 0B       		.uleb128 0xb
 2438 01c9 49       		.uleb128 0x49
 2439 01ca 13       		.uleb128 0x13
 2440 01cb 02       		.uleb128 0x2
 2441 01cc 18       		.uleb128 0x18
 2442 01cd 00       		.byte	0
 2443 01ce 00       		.byte	0
 2444 01cf 23       		.uleb128 0x23
 2445 01d0 0B       		.uleb128 0xb
ARM GAS  /tmp/ccwSLn2e.s 			page 44


 2446 01d1 01       		.byte	0x1
 2447 01d2 11       		.uleb128 0x11
 2448 01d3 01       		.uleb128 0x1
 2449 01d4 12       		.uleb128 0x12
 2450 01d5 06       		.uleb128 0x6
 2451 01d6 00       		.byte	0
 2452 01d7 00       		.byte	0
 2453 01d8 24       		.uleb128 0x24
 2454 01d9 34       		.uleb128 0x34
 2455 01da 00       		.byte	0
 2456 01db 03       		.uleb128 0x3
 2457 01dc 0E       		.uleb128 0xe
 2458 01dd 3A       		.uleb128 0x3a
 2459 01de 0B       		.uleb128 0xb
 2460 01df 3B       		.uleb128 0x3b
 2461 01e0 05       		.uleb128 0x5
 2462 01e1 49       		.uleb128 0x49
 2463 01e2 13       		.uleb128 0x13
 2464 01e3 3F       		.uleb128 0x3f
 2465 01e4 19       		.uleb128 0x19
 2466 01e5 3C       		.uleb128 0x3c
 2467 01e6 19       		.uleb128 0x19
 2468 01e7 00       		.byte	0
 2469 01e8 00       		.byte	0
 2470 01e9 25       		.uleb128 0x25
 2471 01ea 34       		.uleb128 0x34
 2472 01eb 00       		.byte	0
 2473 01ec 03       		.uleb128 0x3
 2474 01ed 08       		.uleb128 0x8
 2475 01ee 3A       		.uleb128 0x3a
 2476 01ef 0B       		.uleb128 0xb
 2477 01f0 3B       		.uleb128 0x3b
 2478 01f1 05       		.uleb128 0x5
 2479 01f2 49       		.uleb128 0x49
 2480 01f3 13       		.uleb128 0x13
 2481 01f4 3F       		.uleb128 0x3f
 2482 01f5 19       		.uleb128 0x19
 2483 01f6 3C       		.uleb128 0x3c
 2484 01f7 19       		.uleb128 0x19
 2485 01f8 00       		.byte	0
 2486 01f9 00       		.byte	0
 2487 01fa 00       		.byte	0
 2488              		.section	.debug_aranges,"",%progbits
 2489 0000 2C000000 		.4byte	0x2c
 2490 0004 0200     		.2byte	0x2
 2491 0006 00000000 		.4byte	.Ldebug_info0
 2492 000a 04       		.byte	0x4
 2493 000b 00       		.byte	0
 2494 000c 0000     		.2byte	0
 2495 000e 0000     		.2byte	0
 2496 0010 00000000 		.4byte	.LFB271
 2497 0014 42000000 		.4byte	.LFE271-.LFB271
 2498 0018 00000000 		.4byte	.LFB272
 2499 001c C0000000 		.4byte	.LFE272-.LFB272
 2500 0020 00000000 		.4byte	.LFB273
 2501 0024 22010000 		.4byte	.LFE273-.LFB273
 2502 0028 00000000 		.4byte	0
ARM GAS  /tmp/ccwSLn2e.s 			page 45


 2503 002c 00000000 		.4byte	0
 2504              		.section	.debug_ranges,"",%progbits
 2505              	.Ldebug_ranges0:
 2506 0000 00000000 		.4byte	.LFB271
 2507 0004 42000000 		.4byte	.LFE271
 2508 0008 00000000 		.4byte	.LFB272
 2509 000c C0000000 		.4byte	.LFE272
 2510 0010 00000000 		.4byte	.LFB273
 2511 0014 22010000 		.4byte	.LFE273
 2512 0018 00000000 		.4byte	0
 2513 001c 00000000 		.4byte	0
 2514              		.section	.debug_line,"",%progbits
 2515              	.Ldebug_line0:
 2516 0000 73020000 		.section	.debug_str,"MS",%progbits,1
 2516      02000C02 
 2516      00000201 
 2516      FB0E0D00 
 2516      01010101 
 2517              	.LASF175:
 2518 0000 73746D33 		.ascii	"stm32_gpio_setup_t\000"
 2518      325F6770 
 2518      696F5F73 
 2518      65747570 
 2518      5F7400
 2519              	.LASF127:
 2520 0013 74625F70 		.ascii	"tb_ptr\000"
 2520      747200
 2521              	.LASF56:
 2522 001a 72656164 		.ascii	"ready_list_t\000"
 2522      795F6C69 
 2522      73745F74 
 2522      00
 2523              	.LASF121:
 2524 0027 73655F74 		.ascii	"se_time\000"
 2524      696D6500 
 2525              	.LASF145:
 2526 002f 77747472 		.ascii	"wttrp\000"
 2526      7000
 2527              	.LASF142:
 2528 0035 7264796D 		.ascii	"rdymsg\000"
 2528      736700
 2529              	.LASF18:
 2530 003c 75696E74 		.ascii	"uint64_t\000"
 2530      36345F74 
 2530      00
 2531              	.LASF4:
 2532 0045 5F5F7569 		.ascii	"__uint8_t\000"
 2532      6E74385F 
 2532      7400
 2533              	.LASF161:
 2534 004f 4F545950 		.ascii	"OTYPER\000"
 2534      455200
 2535              	.LASF120:
 2536 0056 706F7274 		.ascii	"port_intctx\000"
 2536      5F696E74 
 2536      63747800 
 2537              	.LASF55:
ARM GAS  /tmp/ccwSLn2e.s 			page 46


 2538 0062 63685F74 		.ascii	"ch_threads_queue\000"
 2538      68726561 
 2538      64735F71 
 2538      75657565 
 2538      00
 2539              	.LASF75:
 2540 0073 73797374 		.ascii	"system_debug_t\000"
 2540      656D5F64 
 2540      65627567 
 2540      5F7400
 2541              	.LASF186:
 2542 0082 696F706F 		.ascii	"ioportmask_t\000"
 2542      72746D61 
 2542      736B5F74 
 2542      00
 2543              	.LASF133:
 2544 008f 776F7273 		.ascii	"worst\000"
 2544      7400
 2545              	.LASF183:
 2546 0095 50484461 		.ascii	"PHData\000"
 2546      746100
 2547              	.LASF136:
 2548 009c 74696D65 		.ascii	"time_measurement_t\000"
 2548      5F6D6561 
 2548      73757265 
 2548      6D656E74 
 2548      5F7400
 2549              	.LASF160:
 2550 00af 4D4F4445 		.ascii	"MODER\000"
 2550      5200
 2551              	.LASF13:
 2552 00b5 6C6F6E67 		.ascii	"long long unsigned int\000"
 2552      206C6F6E 
 2552      6720756E 
 2552      7369676E 
 2552      65642069 
 2553              	.LASF129:
 2554 00cc 63685F74 		.ascii	"ch_trace_buffer_t\000"
 2554      72616365 
 2554      5F627566 
 2554      6665725F 
 2554      7400
 2555              	.LASF124:
 2556 00de 73655F73 		.ascii	"se_state\000"
 2556      74617465 
 2556      00
 2557              	.LASF163:
 2558 00e7 50555044 		.ascii	"PUPDR\000"
 2558      5200
 2559              	.LASF143:
 2560 00ed 65786974 		.ascii	"exitcode\000"
 2560      636F6465 
 2560      00
 2561              	.LASF85:
 2562 00f6 6D61696E 		.ascii	"mainthread\000"
 2562      74687265 
 2562      616400
ARM GAS  /tmp/ccwSLn2e.s 			page 47


 2563              	.LASF72:
 2564 0101 76697274 		.ascii	"virtual_timers_list_t\000"
 2564      75616C5F 
 2564      74696D65 
 2564      72735F6C 
 2564      6973745F 
 2565              	.LASF198:
 2566 0117 49544D5F 		.ascii	"ITM_RxBuffer\000"
 2566      52784275 
 2566      66666572 
 2566      00
 2567              	.LASF20:
 2568 0124 72747469 		.ascii	"rttime_t\000"
 2568      6D655F74 
 2568      00
 2569              	.LASF105:
 2570 012d 41484231 		.ascii	"AHB1LPENR\000"
 2570      4C50454E 
 2570      5200
 2571              	.LASF33:
 2572 0137 705F7072 		.ascii	"p_prio\000"
 2572      696F00
 2573              	.LASF11:
 2574 013e 6C6F6E67 		.ascii	"long long int\000"
 2574      206C6F6E 
 2574      6720696E 
 2574      7400
 2575              	.LASF1:
 2576 014c 7369676E 		.ascii	"signed char\000"
 2576      65642063 
 2576      68617200 
 2577              	.LASF164:
 2578 0158 42535252 		.ascii	"BSRR\000"
 2578      00
 2579              	.LASF91:
 2580 015d 41484231 		.ascii	"AHB1RSTR\000"
 2580      52535452 
 2580      00
 2581              	.LASF48:
 2582 0166 705F6D70 		.ascii	"p_mpool\000"
 2582      6F6F6C00 
 2583              	.LASF153:
 2584 016e 6D5F7175 		.ascii	"m_queue\000"
 2584      65756500 
 2585              	.LASF169:
 2586 0176 6D6F6465 		.ascii	"moder\000"
 2586      7200
 2587              	.LASF116:
 2588 017c 5243435F 		.ascii	"RCC_TypeDef\000"
 2588      54797065 
 2588      44656600 
 2589              	.LASF82:
 2590 0188 63685F73 		.ascii	"ch_system\000"
 2590      79737465 
 2590      6D00
 2591              	.LASF8:
 2592 0192 6C6F6E67 		.ascii	"long int\000"
ARM GAS  /tmp/ccwSLn2e.s 			page 48


 2592      20696E74 
 2592      00
 2593              	.LASF180:
 2594 019b 50454461 		.ascii	"PEData\000"
 2594      746100
 2595              	.LASF109:
 2596 01a2 41504231 		.ascii	"APB1LPENR\000"
 2596      4C50454E 
 2596      5200
 2597              	.LASF22:
 2598 01ac 74737461 		.ascii	"tstate_t\000"
 2598      74655F74 
 2598      00
 2599              	.LASF122:
 2600 01b5 73655F74 		.ascii	"se_tp\000"
 2600      7000
 2601              	.LASF15:
 2602 01bb 75696E74 		.ascii	"uint16_t\000"
 2602      31365F74 
 2602      00
 2603              	.LASF197:
 2604 01c4 616C7472 		.ascii	"altrmask\000"
 2604      6D61736B 
 2604      00
 2605              	.LASF199:
 2606 01cd 474E5520 		.ascii	"GNU C 4.8.4 20141219 (release) -mcpu=cortex-m4 -mno"
 2606      4320342E 
 2606      382E3420 
 2606      32303134 
 2606      31323139 
 2607 0200 2D746875 		.ascii	"-thumb-interwork -mthumb -ggdb -O0 -fomit-frame-poi"
 2607      6D622D69 
 2607      6E746572 
 2607      776F726B 
 2607      202D6D74 
 2608 0233 6E746572 		.ascii	"nter -falign-functions=16 -ffunction-sections -fdat"
 2608      202D6661 
 2608      6C69676E 
 2608      2D66756E 
 2608      6374696F 
 2609 0266 612D7365 		.ascii	"a-sections -fno-common\000"
 2609      6374696F 
 2609      6E73202D 
 2609      666E6F2D 
 2609      636F6D6D 
 2610              	.LASF35:
 2611 027d 705F6E65 		.ascii	"p_newer\000"
 2611      77657200 
 2612              	.LASF89:
 2613 0285 504C4C43 		.ascii	"PLLCFGR\000"
 2613      46475200 
 2614              	.LASF126:
 2615 028d 74625F73 		.ascii	"tb_size\000"
 2615      697A6500 
 2616              	.LASF162:
 2617 0295 4F535045 		.ascii	"OSPEEDR\000"
 2617      45445200 
ARM GAS  /tmp/ccwSLn2e.s 			page 49


 2618              	.LASF61:
 2619 029d 725F6E65 		.ascii	"r_newer\000"
 2619      77657200 
 2620              	.LASF194:
 2621 02a5 6D61736B 		.ascii	"mask\000"
 2621      00
 2622              	.LASF117:
 2623 02aa 72656761 		.ascii	"regarm_t\000"
 2623      726D5F74 
 2623      00
 2624              	.LASF68:
 2625 02b3 76745F70 		.ascii	"vt_prev\000"
 2625      72657600 
 2626              	.LASF84:
 2627 02bb 76746C69 		.ascii	"vtlist\000"
 2627      737400
 2628              	.LASF76:
 2629 02c2 63685F73 		.ascii	"ch_system_debug\000"
 2629      79737465 
 2629      6D5F6465 
 2629      62756700 
 2630              	.LASF168:
 2631 02d2 73746D33 		.ascii	"stm32_gpio_t\000"
 2631      325F6770 
 2631      696F5F74 
 2631      00
 2632              	.LASF193:
 2633 02df 706F7274 		.ascii	"port\000"
 2633      00
 2634              	.LASF157:
 2635 02e4 6D757465 		.ascii	"mutex_t\000"
 2635      785F7400 
 2636              	.LASF177:
 2637 02ec 50424461 		.ascii	"PBData\000"
 2637      746100
 2638              	.LASF79:
 2639 02f3 6C6F636B 		.ascii	"lock_cnt\000"
 2639      5F636E74 
 2639      00
 2640              	.LASF87:
 2641 02fc 69646C65 		.ascii	"idle_thread_wa\000"
 2641      5F746872 
 2641      6561645F 
 2641      776100
 2642              	.LASF200:
 2643 030b 2F686F6D 		.ascii	"/home/efe/ChibiOS/os/hal/ports/STM32/LLD/GPIOv2/pal"
 2643      652F6566 
 2643      652F4368 
 2643      6962694F 
 2643      532F6F73 
 2644 033e 5F6C6C64 		.ascii	"_lld.c\000"
 2644      2E6300
 2645              	.LASF38:
 2646 0345 705F7374 		.ascii	"p_stklimit\000"
 2646      6B6C696D 
 2646      697400
 2647              	.LASF0:
ARM GAS  /tmp/ccwSLn2e.s 			page 50


 2648 0350 756E7369 		.ascii	"unsigned int\000"
 2648      676E6564 
 2648      20696E74 
 2648      00
 2649              	.LASF67:
 2650 035d 76745F6E 		.ascii	"vt_next\000"
 2650      65787400 
 2651              	.LASF146:
 2652 0365 77747365 		.ascii	"wtsemp\000"
 2652      6D7000
 2653              	.LASF43:
 2654 036c 705F6D73 		.ascii	"p_msgqueue\000"
 2654      67717565 
 2654      756500
 2655              	.LASF171:
 2656 0377 6F737065 		.ascii	"ospeedr\000"
 2656      65647200 
 2657              	.LASF165:
 2658 037f 4C434B52 		.ascii	"LCKR\000"
 2658      00
 2659              	.LASF137:
 2660 0384 6E5F6972 		.ascii	"n_irq\000"
 2660      7100
 2661              	.LASF170:
 2662 038a 6F747970 		.ascii	"otyper\000"
 2662      657200
 2663              	.LASF6:
 2664 0391 73686F72 		.ascii	"short unsigned int\000"
 2664      7420756E 
 2664      7369676E 
 2664      65642069 
 2664      6E7400
 2665              	.LASF141:
 2666 03a4 6B65726E 		.ascii	"kernel_stats_t\000"
 2666      656C5F73 
 2666      74617473 
 2666      5F7400
 2667              	.LASF52:
 2668 03b3 63685F74 		.ascii	"ch_thread\000"
 2668      68726561 
 2668      6400
 2669              	.LASF115:
 2670 03bd 504C4C49 		.ascii	"PLLI2SCFGR\000"
 2670      32534346 
 2670      475200
 2671              	.LASF96:
 2672 03c8 41504232 		.ascii	"APB2RSTR\000"
 2672      52535452 
 2672      00
 2673              	.LASF25:
 2674 03d1 6D73675F 		.ascii	"msg_t\000"
 2674      7400
 2675              	.LASF93:
 2676 03d7 41484233 		.ascii	"AHB3RSTR\000"
 2676      52535452 
 2676      00
 2677              	.LASF28:
ARM GAS  /tmp/ccwSLn2e.s 			page 51


 2678 03e0 75636E74 		.ascii	"ucnt_t\000"
 2678      5F7400
 2679              	.LASF81:
 2680 03e7 63685F73 		.ascii	"ch_system_t\000"
 2680      79737465 
 2680      6D5F7400 
 2681              	.LASF128:
 2682 03f3 74625F62 		.ascii	"tb_buffer\000"
 2682      75666665 
 2682      7200
 2683              	.LASF110:
 2684 03fd 41504232 		.ascii	"APB2LPENR\000"
 2684      4C50454E 
 2684      5200
 2685              	.LASF140:
 2686 0407 6D5F6372 		.ascii	"m_crit_isr\000"
 2686      69745F69 
 2686      737200
 2687              	.LASF57:
 2688 0412 63685F72 		.ascii	"ch_ready_list\000"
 2688      65616479 
 2688      5F6C6973 
 2688      7400
 2689              	.LASF26:
 2690 0420 6576656E 		.ascii	"eventmask_t\000"
 2690      746D6173 
 2690      6B5F7400 
 2691              	.LASF7:
 2692 042c 5F5F696E 		.ascii	"__int32_t\000"
 2692      7433325F 
 2692      7400
 2693              	.LASF182:
 2694 0436 50474461 		.ascii	"PGData\000"
 2694      746100
 2695              	.LASF118:
 2696 043d 73746B61 		.ascii	"stkalign_t\000"
 2696      6C69676E 
 2696      5F7400
 2697              	.LASF51:
 2698 0448 74687265 		.ascii	"threads_list_t\000"
 2698      6164735F 
 2698      6C697374 
 2698      5F7400
 2699              	.LASF65:
 2700 0457 76697274 		.ascii	"virtual_timer_t\000"
 2700      75616C5F 
 2700      74696D65 
 2700      725F7400 
 2701              	.LASF150:
 2702 0467 735F7175 		.ascii	"s_queue\000"
 2702      65756500 
 2703              	.LASF42:
 2704 046f 705F7761 		.ascii	"p_waiting\000"
 2704      6974696E 
 2704      6700
 2705              	.LASF88:
 2706 0479 73697A65 		.ascii	"sizetype\000"
ARM GAS  /tmp/ccwSLn2e.s 			page 52


 2706      74797065 
 2706      00
 2707              	.LASF50:
 2708 0482 74687265 		.ascii	"thread_reference_t\000"
 2708      61645F72 
 2708      65666572 
 2708      656E6365 
 2708      5F7400
 2709              	.LASF73:
 2710 0495 63685F76 		.ascii	"ch_virtual_timers_list\000"
 2710      69727475 
 2710      616C5F74 
 2710      696D6572 
 2710      735F6C69 
 2711              	.LASF159:
 2712 04ac 636C6561 		.ascii	"clear\000"
 2712      7200
 2713              	.LASF27:
 2714 04b2 636E745F 		.ascii	"cnt_t\000"
 2714      7400
 2715              	.LASF125:
 2716 04b8 63685F73 		.ascii	"ch_swc_event_t\000"
 2716      77635F65 
 2716      76656E74 
 2716      5F7400
 2717              	.LASF100:
 2718 04c7 41484233 		.ascii	"AHB3ENR\000"
 2718      454E5200 
 2719              	.LASF74:
 2720 04cf 76745F6C 		.ascii	"vt_lasttime\000"
 2720      61737474 
 2720      696D6500 
 2721              	.LASF36:
 2722 04db 705F6F6C 		.ascii	"p_older\000"
 2722      64657200 
 2723              	.LASF60:
 2724 04e3 725F6374 		.ascii	"r_ctx\000"
 2724      7800
 2725              	.LASF106:
 2726 04e9 41484232 		.ascii	"AHB2LPENR\000"
 2726      4C50454E 
 2726      5200
 2727              	.LASF131:
 2728 04f3 746D5F63 		.ascii	"tm_calibration_t\000"
 2728      616C6962 
 2728      72617469 
 2728      6F6E5F74 
 2728      00
 2729              	.LASF174:
 2730 0504 61667268 		.ascii	"afrh\000"
 2730      00
 2731              	.LASF179:
 2732 0509 50444461 		.ascii	"PDData\000"
 2732      746100
 2733              	.LASF63:
 2734 0510 725F6375 		.ascii	"r_current\000"
 2734      7272656E 
ARM GAS  /tmp/ccwSLn2e.s 			page 53


 2734      7400
 2735              	.LASF95:
 2736 051a 41504231 		.ascii	"APB1RSTR\000"
 2736      52535452 
 2736      00
 2737              	.LASF12:
 2738 0523 5F5F7569 		.ascii	"__uint64_t\000"
 2738      6E743634 
 2738      5F7400
 2739              	.LASF167:
 2740 052e 41465248 		.ascii	"AFRH\000"
 2740      00
 2741              	.LASF135:
 2742 0533 63756D75 		.ascii	"cumulative\000"
 2742      6C617469 
 2742      766500
 2743              	.LASF166:
 2744 053e 4146524C 		.ascii	"AFRL\000"
 2744      00
 2745              	.LASF86:
 2746 0543 6B65726E 		.ascii	"kernel_stats\000"
 2746      656C5F73 
 2746      74617473 
 2746      00
 2747              	.LASF23:
 2748 0550 74726566 		.ascii	"trefs_t\000"
 2748      735F7400 
 2749              	.LASF94:
 2750 0558 52455345 		.ascii	"RESERVED0\000"
 2750      52564544 
 2750      3000
 2751              	.LASF97:
 2752 0562 52455345 		.ascii	"RESERVED1\000"
 2752      52564544 
 2752      3100
 2753              	.LASF101:
 2754 056c 52455345 		.ascii	"RESERVED2\000"
 2754      52564544 
 2754      3200
 2755              	.LASF104:
 2756 0576 52455345 		.ascii	"RESERVED3\000"
 2756      52564544 
 2756      3300
 2757              	.LASF108:
 2758 0580 52455345 		.ascii	"RESERVED4\000"
 2758      52564544 
 2758      3400
 2759              	.LASF32:
 2760 058a 705F7072 		.ascii	"p_prev\000"
 2760      657600
 2761              	.LASF113:
 2762 0591 52455345 		.ascii	"RESERVED6\000"
 2762      52564544 
 2762      3600
 2763              	.LASF24:
 2764 059b 74707269 		.ascii	"tprio_t\000"
 2764      6F5F7400 
ARM GAS  /tmp/ccwSLn2e.s 			page 54


 2765              	.LASF138:
 2766 05a3 6E5F6374 		.ascii	"n_ctxswc\000"
 2766      78737763 
 2766      00
 2767              	.LASF158:
 2768 05ac 5F426F6F 		.ascii	"_Bool\000"
 2768      6C00
 2769              	.LASF16:
 2770 05b2 696E7433 		.ascii	"int32_t\000"
 2770      325F7400 
 2771              	.LASF2:
 2772 05ba 756E7369 		.ascii	"unsigned char\000"
 2772      676E6564 
 2772      20636861 
 2772      7200
 2773              	.LASF173:
 2774 05c8 6166726C 		.ascii	"afrl\000"
 2774      00
 2775              	.LASF151:
 2776 05cd 735F636E 		.ascii	"s_cnt\000"
 2776      7400
 2777              	.LASF46:
 2778 05d3 705F6D74 		.ascii	"p_mtxlist\000"
 2778      786C6973 
 2778      7400
 2779              	.LASF3:
 2780 05dd 73686F72 		.ascii	"short int\000"
 2780      7420696E 
 2780      7400
 2781              	.LASF39:
 2782 05e7 705F7374 		.ascii	"p_state\000"
 2782      61746500 
 2783              	.LASF107:
 2784 05ef 41484233 		.ascii	"AHB3LPENR\000"
 2784      4C50454E 
 2784      5200
 2785              	.LASF59:
 2786 05f9 725F7072 		.ascii	"r_prio\000"
 2786      696F00
 2787              	.LASF176:
 2788 0600 50414461 		.ascii	"PAData\000"
 2788      746100
 2789              	.LASF148:
 2790 0607 65776D61 		.ascii	"ewmask\000"
 2790      736B00
 2791              	.LASF31:
 2792 060e 705F6E65 		.ascii	"p_next\000"
 2792      787400
 2793              	.LASF21:
 2794 0615 746D6F64 		.ascii	"tmode_t\000"
 2794      655F7400 
 2795              	.LASF40:
 2796 061d 705F666C 		.ascii	"p_flags\000"
 2796      61677300 
 2797              	.LASF49:
 2798 0625 705F7374 		.ascii	"p_stats\000"
 2798      61747300 
ARM GAS  /tmp/ccwSLn2e.s 			page 55


 2799              	.LASF189:
 2800 062d 6770696F 		.ascii	"gpiop\000"
 2800      7000
 2801              	.LASF103:
 2802 0633 41504232 		.ascii	"APB2ENR\000"
 2802      454E5200 
 2803              	.LASF184:
 2804 063b 50494461 		.ascii	"PIData\000"
 2804      746100
 2805              	.LASF66:
 2806 0642 63685F76 		.ascii	"ch_virtual_timer\000"
 2806      69727475 
 2806      616C5F74 
 2806      696D6572 
 2806      00
 2807              	.LASF149:
 2808 0653 63685F73 		.ascii	"ch_semaphore\000"
 2808      656D6170 
 2808      686F7265 
 2808      00
 2809              	.LASF45:
 2810 0660 705F6570 		.ascii	"p_epending\000"
 2810      656E6469 
 2810      6E6700
 2811              	.LASF111:
 2812 066b 52455345 		.ascii	"RESERVED5\000"
 2812      52564544 
 2812      3500
 2813              	.LASF17:
 2814 0675 75696E74 		.ascii	"uint32_t\000"
 2814      33325F74 
 2814      00
 2815              	.LASF147:
 2816 067e 77746D74 		.ascii	"wtmtxp\000"
 2816      787000
 2817              	.LASF58:
 2818 0685 725F7175 		.ascii	"r_queue\000"
 2818      65756500 
 2819              	.LASF69:
 2820 068d 76745F64 		.ascii	"vt_delta\000"
 2820      656C7461 
 2820      00
 2821              	.LASF53:
 2822 0696 63685F74 		.ascii	"ch_threads_list\000"
 2822      68726561 
 2822      64735F6C 
 2822      69737400 
 2823              	.LASF10:
 2824 06a6 6C6F6E67 		.ascii	"long unsigned int\000"
 2824      20756E73 
 2824      69676E65 
 2824      6420696E 
 2824      7400
 2825              	.LASF196:
 2826 06b8 616C7472 		.ascii	"altr\000"
 2826      00
 2827              	.LASF156:
ARM GAS  /tmp/ccwSLn2e.s 			page 56


 2828 06bd 63686172 		.ascii	"char\000"
 2828      00
 2829              	.LASF195:
 2830 06c2 6D6F6465 		.ascii	"mode\000"
 2830      00
 2831              	.LASF190:
 2832 06c7 636F6E66 		.ascii	"config\000"
 2832      696700
 2833              	.LASF5:
 2834 06ce 5F5F7569 		.ascii	"__uint16_t\000"
 2834      6E743136 
 2834      5F7400
 2835              	.LASF92:
 2836 06d9 41484232 		.ascii	"AHB2RSTR\000"
 2836      52535452 
 2836      00
 2837              	.LASF30:
 2838 06e2 74687265 		.ascii	"thread_t\000"
 2838      61645F74 
 2838      00
 2839              	.LASF132:
 2840 06eb 62657374 		.ascii	"best\000"
 2840      00
 2841              	.LASF155:
 2842 06f0 6D5F6E65 		.ascii	"m_next\000"
 2842      787400
 2843              	.LASF29:
 2844 06f7 73797374 		.ascii	"systime_t\000"
 2844      696D655F 
 2844      7400
 2845              	.LASF47:
 2846 0701 705F7265 		.ascii	"p_realprio\000"
 2846      616C7072 
 2846      696F00
 2847              	.LASF64:
 2848 070c 76746675 		.ascii	"vtfunc_t\000"
 2848      6E635F74 
 2848      00
 2849              	.LASF9:
 2850 0715 5F5F7569 		.ascii	"__uint32_t\000"
 2850      6E743332 
 2850      5F7400
 2851              	.LASF134:
 2852 0720 6C617374 		.ascii	"last\000"
 2852      00
 2853              	.LASF201:
 2854 0725 696E6974 		.ascii	"initgpio\000"
 2854      6770696F 
 2854      00
 2855              	.LASF77:
 2856 072e 70616E69 		.ascii	"panic_msg\000"
 2856      635F6D73 
 2856      6700
 2857              	.LASF130:
 2858 0738 6F666673 		.ascii	"offset\000"
 2858      657400
 2859              	.LASF102:
ARM GAS  /tmp/ccwSLn2e.s 			page 57


 2860 073f 41504231 		.ascii	"APB1ENR\000"
 2860      454E5200 
 2861              	.LASF188:
 2862 0747 696F706F 		.ascii	"ioportid_t\000"
 2862      72746964 
 2862      5F7400
 2863              	.LASF99:
 2864 0752 41484232 		.ascii	"AHB2ENR\000"
 2864      454E5200 
 2865              	.LASF119:
 2866 075a 636F6E74 		.ascii	"context\000"
 2866      65787400 
 2867              	.LASF62:
 2868 0762 725F6F6C 		.ascii	"r_older\000"
 2868      64657200 
 2869              	.LASF192:
 2870 076a 5F70616C 		.ascii	"_pal_lld_setgroupmode\000"
 2870      5F6C6C64 
 2870      5F736574 
 2870      67726F75 
 2870      706D6F64 
 2871              	.LASF19:
 2872 0780 7274636E 		.ascii	"rtcnt_t\000"
 2872      745F7400 
 2873              	.LASF71:
 2874 0788 76745F70 		.ascii	"vt_par\000"
 2874      617200
 2875              	.LASF185:
 2876 078f 50414C43 		.ascii	"PALConfig\000"
 2876      6F6E6669 
 2876      6700
 2877              	.LASF114:
 2878 0799 53534347 		.ascii	"SSCGR\000"
 2878      5200
 2879              	.LASF54:
 2880 079f 74687265 		.ascii	"threads_queue_t\000"
 2880      6164735F 
 2880      71756575 
 2880      655F7400 
 2881              	.LASF152:
 2882 07af 63685F6D 		.ascii	"ch_mutex\000"
 2882      75746578 
 2882      00
 2883              	.LASF41:
 2884 07b8 705F7265 		.ascii	"p_refs\000"
 2884      667300
 2885              	.LASF78:
 2886 07bf 6973725F 		.ascii	"isr_cnt\000"
 2886      636E7400 
 2887              	.LASF191:
 2888 07c7 5F70616C 		.ascii	"_pal_lld_init\000"
 2888      5F6C6C64 
 2888      5F696E69 
 2888      7400
 2889              	.LASF112:
 2890 07d5 42444352 		.ascii	"BDCR\000"
 2890      00
ARM GAS  /tmp/ccwSLn2e.s 			page 58


 2891              	.LASF83:
 2892 07da 726C6973 		.ascii	"rlist\000"
 2892      7400
 2893              	.LASF14:
 2894 07e0 75696E74 		.ascii	"uint8_t\000"
 2894      385F7400 
 2895              	.LASF172:
 2896 07e8 70757064 		.ascii	"pupdr\000"
 2896      7200
 2897              	.LASF144:
 2898 07ee 77746F62 		.ascii	"wtobjp\000"
 2898      6A7000
 2899              	.LASF37:
 2900 07f5 705F6E61 		.ascii	"p_name\000"
 2900      6D6500
 2901              	.LASF98:
 2902 07fc 41484231 		.ascii	"AHB1ENR\000"
 2902      454E5200 
 2903              	.LASF178:
 2904 0804 50434461 		.ascii	"PCData\000"
 2904      746100
 2905              	.LASF90:
 2906 080b 43464752 		.ascii	"CFGR\000"
 2906      00
 2907              	.LASF80:
 2908 0810 74726163 		.ascii	"trace_buffer\000"
 2908      655F6275 
 2908      66666572 
 2908      00
 2909              	.LASF44:
 2910 081d 705F6D73 		.ascii	"p_msg\000"
 2910      6700
 2911              	.LASF181:
 2912 0823 50464461 		.ascii	"PFData\000"
 2912      746100
 2913              	.LASF187:
 2914 082a 696F6D6F 		.ascii	"iomode_t\000"
 2914      64655F74 
 2914      00
 2915              	.LASF139:
 2916 0833 6D5F6372 		.ascii	"m_crit_thd\000"
 2916      69745F74 
 2916      686400
 2917              	.LASF154:
 2918 083e 6D5F6F77 		.ascii	"m_owner\000"
 2918      6E657200 
 2919              	.LASF123:
 2920 0846 73655F77 		.ascii	"se_wtobjp\000"
 2920      746F626A 
 2920      7000
 2921              	.LASF34:
 2922 0850 705F6374 		.ascii	"p_ctx\000"
 2922      7800
 2923              	.LASF70:
 2924 0856 76745F66 		.ascii	"vt_func\000"
 2924      756E6300 
 2925              		.ident	"GCC: (4.8.4-1+11-1) 4.8.4 20141219 (release)"
ARM GAS  /tmp/ccwSLn2e.s 			page 59


ARM GAS  /tmp/ccwSLn2e.s 			page 60


DEFINED SYMBOLS
                            *ABS*:0000000000000000 pal_lld.c
     /tmp/ccwSLn2e.s:19     .text.initgpio:0000000000000000 $t
     /tmp/ccwSLn2e.s:24     .text.initgpio:0000000000000000 initgpio
     /tmp/ccwSLn2e.s:79     .text._pal_lld_init:0000000000000000 $t
     /tmp/ccwSLn2e.s:85     .text._pal_lld_init:0000000000000000 _pal_lld_init
     /tmp/ccwSLn2e.s:171    .text._pal_lld_init:0000000000000098 $d
     /tmp/ccwSLn2e.s:185    .text._pal_lld_setgroupmode:0000000000000000 $t
     /tmp/ccwSLn2e.s:191    .text._pal_lld_setgroupmode:0000000000000000 _pal_lld_setgroupmode
                     .debug_frame:0000000000000010 $d

NO UNDEFINED SYMBOLS
