ARM GAS  /tmp/ccwSLn2e.s 			page 1


   1              		.syntax unified
   2              		.cpu cortex-m4
   3              		.fpu softvfp
   4              		.eabi_attribute 20, 1
   5              		.eabi_attribute 21, 1
   6              		.eabi_attribute 23, 3
   7              		.eabi_attribute 24, 1
   8              		.eabi_attribute 25, 1
   9              		.eabi_attribute 26, 1
  10              		.eabi_attribute 30, 6
  11              		.eabi_attribute 34, 1
  12              		.eabi_attribute 18, 4
  13              		.thumb
  14              		.file	"pal_lld.c"
  15              		.text
  16              	.Ltext0:
  17              		.cfi_sections	.debug_frame
  18              		.section	.text.initgpio,"ax",%progbits
  19              		.align	2
  20              		.p2align 4,,15
  21              		.thumb
  22              		.thumb_func
  23              		.type	initgpio, %function
  24              	initgpio:
  25              	.LFB271:
  26              		.file 1 "/home/efe/ChibiOS/os/hal/ports/STM32/LLD/GPIOv2/pal_lld.c"
  27              		.loc 1 61 0
  28              		.cfi_startproc
  29              		@ args = 0, pretend = 0, frame = 8
  30              		@ frame_needed = 0, uses_anonymous_args = 0
  31              		@ link register save eliminated.
  32 0000 82B0     		sub	sp, sp, #8
  33              		.cfi_def_cfa_offset 8
  34 0002 0190     		str	r0, [sp, #4]
  35 0004 0091     		str	r1, [sp]
  36              		.loc 1 63 0
  37 0006 009B     		ldr	r3, [sp]
  38 0008 5A68     		ldr	r2, [r3, #4]
  39 000a 019B     		ldr	r3, [sp, #4]
  40 000c 5A60     		str	r2, [r3, #4]
  41              		.loc 1 64 0
  42 000e 009B     		ldr	r3, [sp]
  43 0010 9A68     		ldr	r2, [r3, #8]
  44 0012 019B     		ldr	r3, [sp, #4]
  45 0014 9A60     		str	r2, [r3, #8]
  46              		.loc 1 65 0
  47 0016 009B     		ldr	r3, [sp]
  48 0018 DA68     		ldr	r2, [r3, #12]
  49 001a 019B     		ldr	r3, [sp, #4]
  50 001c DA60     		str	r2, [r3, #12]
  51              		.loc 1 66 0
  52 001e 009B     		ldr	r3, [sp]
  53 0020 1A69     		ldr	r2, [r3, #16]
  54 0022 019B     		ldr	r3, [sp, #4]
  55 0024 5A61     		str	r2, [r3, #20]
  56              		.loc 1 67 0
  57 0026 009B     		ldr	r3, [sp]
ARM GAS  /tmp/ccwSLn2e.s 			page 2


  58 0028 5A69     		ldr	r2, [r3, #20]
  59 002a 019B     		ldr	r3, [sp, #4]
  60 002c 1A62     		str	r2, [r3, #32]
  61              		.loc 1 68 0
  62 002e 009B     		ldr	r3, [sp]
  63 0030 9A69     		ldr	r2, [r3, #24]
  64 0032 019B     		ldr	r3, [sp, #4]
  65 0034 5A62     		str	r2, [r3, #36]
  66              		.loc 1 69 0
  67 0036 009B     		ldr	r3, [sp]
  68 0038 1A68     		ldr	r2, [r3]
  69 003a 019B     		ldr	r3, [sp, #4]
  70 003c 1A60     		str	r2, [r3]
  71              		.loc 1 70 0
  72 003e 02B0     		add	sp, sp, #8
  73              		@ sp needed
  74 0040 7047     		bx	lr
  75              		.cfi_endproc
  76              	.LFE271:
  77              		.size	initgpio, .-initgpio
  78 0042 00BFAFF3 		.section	.text._pal_lld_init,"ax",%progbits
  78      0080AFF3 
  78      0080AFF3 
  78      0080
  79              		.align	2
  80              		.p2align 4,,15
  81              		.global	_pal_lld_init
  82              		.thumb
  83              		.thumb_func
  84              		.type	_pal_lld_init, %function
  85              	_pal_lld_init:
  86              	.LFB272:
  87              		.loc 1 88 0
  88              		.cfi_startproc
  89              		@ args = 0, pretend = 0, frame = 8
  90              		@ frame_needed = 0, uses_anonymous_args = 0
  91 0000 00B5     		push	{lr}
  92              		.cfi_def_cfa_offset 4
  93              		.cfi_offset 14, -4
  94 0002 83B0     		sub	sp, sp, #12
  95              		.cfi_def_cfa_offset 16
  96 0004 0190     		str	r0, [sp, #4]
  97              		.loc 1 104 0
  98 0006 244A     		ldr	r2, .L3
  99 0008 234B     		ldr	r3, .L3
 100 000a 1B6B     		ldr	r3, [r3, #48]
 101 000c 6FEA5323 		mvn	r3, r3, lsr #9
 102 0010 6FEA4323 		mvn	r3, r3, lsl #9
 103 0014 1363     		str	r3, [r2, #48]
 104              		.loc 1 105 0
 105 0016 204A     		ldr	r2, .L3
 106 0018 1F4B     		ldr	r3, .L3
 107 001a 1B6D     		ldr	r3, [r3, #80]
 108 001c 6FEA5323 		mvn	r3, r3, lsr #9
 109 0020 6FEA4323 		mvn	r3, r3, lsl #9
 110 0024 1365     		str	r3, [r2, #80]
 111              		.loc 1 112 0
ARM GAS  /tmp/ccwSLn2e.s 			page 3


 112 0026 019B     		ldr	r3, [sp, #4]
 113 0028 1C48     		ldr	r0, .L3+4
 114 002a 1946     		mov	r1, r3
 115 002c FFF7FEFF 		bl	initgpio
 116              		.loc 1 115 0
 117 0030 019B     		ldr	r3, [sp, #4]
 118 0032 1C33     		adds	r3, r3, #28
 119 0034 1A48     		ldr	r0, .L3+8
 120 0036 1946     		mov	r1, r3
 121 0038 FFF7FEFF 		bl	initgpio
 122              		.loc 1 118 0
 123 003c 019B     		ldr	r3, [sp, #4]
 124 003e 3833     		adds	r3, r3, #56
 125 0040 1848     		ldr	r0, .L3+12
 126 0042 1946     		mov	r1, r3
 127 0044 FFF7FEFF 		bl	initgpio
 128              		.loc 1 121 0
 129 0048 019B     		ldr	r3, [sp, #4]
 130 004a 5433     		adds	r3, r3, #84
 131 004c 1648     		ldr	r0, .L3+16
 132 004e 1946     		mov	r1, r3
 133 0050 FFF7FEFF 		bl	initgpio
 134              		.loc 1 124 0
 135 0054 019B     		ldr	r3, [sp, #4]
 136 0056 7033     		adds	r3, r3, #112
 137 0058 1448     		ldr	r0, .L3+20
 138 005a 1946     		mov	r1, r3
 139 005c FFF7FEFF 		bl	initgpio
 140              		.loc 1 127 0
 141 0060 019B     		ldr	r3, [sp, #4]
 142 0062 8C33     		adds	r3, r3, #140
 143 0064 1248     		ldr	r0, .L3+24
 144 0066 1946     		mov	r1, r3
 145 0068 FFF7FEFF 		bl	initgpio
 146              		.loc 1 130 0
 147 006c 019B     		ldr	r3, [sp, #4]
 148 006e A833     		adds	r3, r3, #168
 149 0070 1048     		ldr	r0, .L3+28
 150 0072 1946     		mov	r1, r3
 151 0074 FFF7FEFF 		bl	initgpio
 152              		.loc 1 133 0
 153 0078 019B     		ldr	r3, [sp, #4]
 154 007a C433     		adds	r3, r3, #196
 155 007c 0E48     		ldr	r0, .L3+32
 156 007e 1946     		mov	r1, r3
 157 0080 FFF7FEFF 		bl	initgpio
 158              		.loc 1 136 0
 159 0084 019B     		ldr	r3, [sp, #4]
 160 0086 E033     		adds	r3, r3, #224
 161 0088 0C48     		ldr	r0, .L3+36
 162 008a 1946     		mov	r1, r3
 163 008c FFF7FEFF 		bl	initgpio
 164              		.loc 1 144 0
 165 0090 03B0     		add	sp, sp, #12
 166              		@ sp needed
 167 0092 5DF804FB 		ldr	pc, [sp], #4
 168              	.L4:
ARM GAS  /tmp/ccwSLn2e.s 			page 4


 169 0096 00BF     		.align	2
 170              	.L3:
 171 0098 00380240 		.word	1073887232
 172 009c 00000240 		.word	1073872896
 173 00a0 00040240 		.word	1073873920
 174 00a4 00080240 		.word	1073874944
 175 00a8 000C0240 		.word	1073875968
 176 00ac 00100240 		.word	1073876992
 177 00b0 00140240 		.word	1073878016
 178 00b4 00180240 		.word	1073879040
 179 00b8 001C0240 		.word	1073880064
 180 00bc 00200240 		.word	1073881088
 181              		.cfi_endproc
 182              	.LFE272:
 183              		.size	_pal_lld_init, .-_pal_lld_init
 184              		.section	.text._pal_lld_setgroupmode,"ax",%progbits
 185              		.align	2
 186              		.p2align 4,,15
 187              		.global	_pal_lld_setgroupmode
 188              		.thumb
 189              		.thumb_func
 190              		.type	_pal_lld_setgroupmode, %function
 191              	_pal_lld_setgroupmode:
 192              	.LFB273:
 193              		.loc 1 162 0
 194              		.cfi_startproc
 195              		@ args = 0, pretend = 0, frame = 56
 196              		@ frame_needed = 0, uses_anonymous_args = 0
 197              		@ link register save eliminated.
 198 0000 8EB0     		sub	sp, sp, #56
 199              		.cfi_def_cfa_offset 56
 200 0002 0390     		str	r0, [sp, #12]
 201 0004 0291     		str	r1, [sp, #8]
 202 0006 0192     		str	r2, [sp, #4]
 203              		.loc 1 164 0
 204 0008 019B     		ldr	r3, [sp, #4]
 205 000a 03F00303 		and	r3, r3, #3
 206 000e 0D93     		str	r3, [sp, #52]
 207              		.loc 1 165 0
 208 0010 019B     		ldr	r3, [sp, #4]
 209 0012 03F00403 		and	r3, r3, #4
 210 0016 9B08     		lsrs	r3, r3, #2
 211 0018 0C93     		str	r3, [sp, #48]
 212              		.loc 1 166 0
 213 001a 019B     		ldr	r3, [sp, #4]
 214 001c 03F01803 		and	r3, r3, #24
 215 0020 DB08     		lsrs	r3, r3, #3
 216 0022 0B93     		str	r3, [sp, #44]
 217              		.loc 1 167 0
 218 0024 019B     		ldr	r3, [sp, #4]
 219 0026 03F06003 		and	r3, r3, #96
 220 002a 5B09     		lsrs	r3, r3, #5
 221 002c 0A93     		str	r3, [sp, #40]
 222              		.loc 1 168 0
 223 002e 019B     		ldr	r3, [sp, #4]
 224 0030 03F4F063 		and	r3, r3, #1920
 225 0034 DB09     		lsrs	r3, r3, #7
ARM GAS  /tmp/ccwSLn2e.s 			page 5


 226 0036 0893     		str	r3, [sp, #32]
 227              		.loc 1 169 0
 228 0038 0023     		movs	r3, #0
 229 003a 0993     		str	r3, [sp, #36]
 230              	.L11:
 231              		.loc 1 171 0
 232 003c 029B     		ldr	r3, [sp, #8]
 233 003e 03F00103 		and	r3, r3, #1
 234 0042 002B     		cmp	r3, #0
 235 0044 54D0     		beq	.L6
 236              	.LBB2:
 237              		.loc 1 174 0
 238 0046 099B     		ldr	r3, [sp, #36]
 239 0048 03F00703 		and	r3, r3, #7
 240 004c 9B00     		lsls	r3, r3, #2
 241 004e 089A     		ldr	r2, [sp, #32]
 242 0050 02FA03F3 		lsl	r3, r2, r3
 243 0054 0793     		str	r3, [sp, #28]
 244              		.loc 1 175 0
 245 0056 099B     		ldr	r3, [sp, #36]
 246 0058 03F00703 		and	r3, r3, #7
 247 005c 9B00     		lsls	r3, r3, #2
 248 005e 0F22     		movs	r2, #15
 249 0060 02FA03F3 		lsl	r3, r2, r3
 250 0064 0693     		str	r3, [sp, #24]
 251              		.loc 1 176 0
 252 0066 099B     		ldr	r3, [sp, #36]
 253 0068 072B     		cmp	r3, #7
 254 006a 09D8     		bhi	.L7
 255              		.loc 1 177 0
 256 006c 039B     		ldr	r3, [sp, #12]
 257 006e 1A6A     		ldr	r2, [r3, #32]
 258 0070 069B     		ldr	r3, [sp, #24]
 259 0072 DB43     		mvns	r3, r3
 260 0074 1A40     		ands	r2, r2, r3
 261 0076 079B     		ldr	r3, [sp, #28]
 262 0078 1A43     		orrs	r2, r2, r3
 263 007a 039B     		ldr	r3, [sp, #12]
 264 007c 1A62     		str	r2, [r3, #32]
 265 007e 08E0     		b	.L8
 266              	.L7:
 267              		.loc 1 179 0
 268 0080 039B     		ldr	r3, [sp, #12]
 269 0082 5A6A     		ldr	r2, [r3, #36]
 270 0084 069B     		ldr	r3, [sp, #24]
 271 0086 DB43     		mvns	r3, r3
 272 0088 1A40     		ands	r2, r2, r3
 273 008a 079B     		ldr	r3, [sp, #28]
 274 008c 1A43     		orrs	r2, r2, r3
 275 008e 039B     		ldr	r3, [sp, #12]
 276 0090 5A62     		str	r2, [r3, #36]
 277              	.L8:
 278              		.loc 1 180 0
 279 0092 099B     		ldr	r3, [sp, #36]
 280 0094 0122     		movs	r2, #1
 281 0096 02FA03F3 		lsl	r3, r2, r3
 282 009a 0593     		str	r3, [sp, #20]
ARM GAS  /tmp/ccwSLn2e.s 			page 6


 283              		.loc 1 181 0
 284 009c 039B     		ldr	r3, [sp, #12]
 285 009e 5A68     		ldr	r2, [r3, #4]
 286 00a0 059B     		ldr	r3, [sp, #20]
 287 00a2 DB43     		mvns	r3, r3
 288 00a4 1A40     		ands	r2, r2, r3
 289 00a6 0C9B     		ldr	r3, [sp, #48]
 290 00a8 1A43     		orrs	r2, r2, r3
 291 00aa 039B     		ldr	r3, [sp, #12]
 292 00ac 5A60     		str	r2, [r3, #4]
 293              		.loc 1 182 0
 294 00ae 099B     		ldr	r3, [sp, #36]
 295 00b0 5B00     		lsls	r3, r3, #1
 296 00b2 0322     		movs	r2, #3
 297 00b4 02FA03F3 		lsl	r3, r2, r3
 298 00b8 0493     		str	r3, [sp, #16]
 299              		.loc 1 183 0
 300 00ba 039B     		ldr	r3, [sp, #12]
 301 00bc 9A68     		ldr	r2, [r3, #8]
 302 00be 049B     		ldr	r3, [sp, #16]
 303 00c0 DB43     		mvns	r3, r3
 304 00c2 1A40     		ands	r2, r2, r3
 305 00c4 0B9B     		ldr	r3, [sp, #44]
 306 00c6 1A43     		orrs	r2, r2, r3
 307 00c8 039B     		ldr	r3, [sp, #12]
 308 00ca 9A60     		str	r2, [r3, #8]
 309              		.loc 1 184 0
 310 00cc 039B     		ldr	r3, [sp, #12]
 311 00ce DA68     		ldr	r2, [r3, #12]
 312 00d0 049B     		ldr	r3, [sp, #16]
 313 00d2 DB43     		mvns	r3, r3
 314 00d4 1A40     		ands	r2, r2, r3
 315 00d6 0A9B     		ldr	r3, [sp, #40]
 316 00d8 1A43     		orrs	r2, r2, r3
 317 00da 039B     		ldr	r3, [sp, #12]
 318 00dc DA60     		str	r2, [r3, #12]
 319              		.loc 1 185 0
 320 00de 039B     		ldr	r3, [sp, #12]
 321 00e0 1A68     		ldr	r2, [r3]
 322 00e2 049B     		ldr	r3, [sp, #16]
 323 00e4 DB43     		mvns	r3, r3
 324 00e6 1A40     		ands	r2, r2, r3
 325 00e8 0D9B     		ldr	r3, [sp, #52]
 326 00ea 1A43     		orrs	r2, r2, r3
 327 00ec 039B     		ldr	r3, [sp, #12]
 328 00ee 1A60     		str	r2, [r3]
 329              	.L6:
 330              	.LBE2:
 331              		.loc 1 187 0
 332 00f0 029B     		ldr	r3, [sp, #8]
 333 00f2 5B08     		lsrs	r3, r3, #1
 334 00f4 0293     		str	r3, [sp, #8]
 335              		.loc 1 188 0
 336 00f6 029B     		ldr	r3, [sp, #8]
 337 00f8 002B     		cmp	r3, #0
 338 00fa 00D1     		bne	.L9
 339              		.loc 1 189 0
ARM GAS  /tmp/ccwSLn2e.s 			page 7


 340 00fc 0FE0     		b	.L12
 341              	.L9:
 342              		.loc 1 190 0
 343 00fe 0C9B     		ldr	r3, [sp, #48]
 344 0100 5B00     		lsls	r3, r3, #1
 345 0102 0C93     		str	r3, [sp, #48]
 346              		.loc 1 191 0
 347 0104 0B9B     		ldr	r3, [sp, #44]
 348 0106 9B00     		lsls	r3, r3, #2
 349 0108 0B93     		str	r3, [sp, #44]
 350              		.loc 1 192 0
 351 010a 0A9B     		ldr	r3, [sp, #40]
 352 010c 9B00     		lsls	r3, r3, #2
 353 010e 0A93     		str	r3, [sp, #40]
 354              		.loc 1 193 0
 355 0110 0D9B     		ldr	r3, [sp, #52]
 356 0112 9B00     		lsls	r3, r3, #2
 357 0114 0D93     		str	r3, [sp, #52]
 358              		.loc 1 194 0
 359 0116 099B     		ldr	r3, [sp, #36]
 360 0118 0133     		adds	r3, r3, #1
 361 011a 0993     		str	r3, [sp, #36]
 362              		.loc 1 195 0
 363 011c 8EE7     		b	.L11
 364              	.L12:
 365              		.loc 1 196 0
 366 011e 0EB0     		add	sp, sp, #56
 367              		@ sp needed
 368 0120 7047     		bx	lr
 369              		.cfi_endproc
 370              	.LFE273:
 371              		.size	_pal_lld_setgroupmode, .-_pal_lld_setgroupmode
 372 0122 00BFAFF3 		.text
 372      0080AFF3 
 372      0080AFF3 
 372      0080
 373              	.Letext0:
 374              		.file 2 "/usr/include/newlib/machine/_default_types.h"
 375              		.file 3 "/usr/include/newlib/stdint.h"
 376              		.file 4 "/home/efe/ChibiOS/os/rt/ports/ARMCMx/compilers/GCC/chtypes.h"
 377              		.file 5 "/home/efe/ChibiOS/os/rt/include/chsystypes.h"
 378              		.file 6 "/home/efe/ChibiOS/os/rt/include/chschd.h"
 379              		.file 7 "/home/efe/ChibiOS/os/ext/CMSIS/ST/stm32f407xx.h"
 380              		.file 8 "/home/efe/ChibiOS/os/rt/ports/ARMCMx/chcore.h"
 381              		.file 9 "/home/efe/ChibiOS/os/rt/ports/ARMCMx/chcore_v7m.h"
 382              		.file 10 "/home/efe/ChibiOS/os/rt/include/chdebug.h"
 383              		.file 11 "/home/efe/ChibiOS/os/rt/include/chtm.h"
 384              		.file 12 "/home/efe/ChibiOS/os/rt/include/chstats.h"
 385              		.file 13 "/home/efe/ChibiOS/os/rt/include/chsem.h"
 386              		.file 14 "/home/efe/ChibiOS/os/rt/include/chmtx.h"
 387              		.file 15 "/home/efe/ChibiOS/os/hal/ports/STM32/LLD/GPIOv2/pal_lld.h"
 388              		.file 16 "/home/efe/ChibiOS/os/ext/CMSIS/include/core_cm4.h"