ARM GAS  /tmp/ccCksuHK.s 			page 1


   1              		.syntax unified
   2              		.cpu cortex-m4
   3              		.fpu softvfp
   4              		.eabi_attribute 20, 1
   5              		.eabi_attribute 21, 1
   6              		.eabi_attribute 23, 3
   7              		.eabi_attribute 24, 1
   8              		.eabi_attribute 25, 1
   9              		.eabi_attribute 26, 1
  10              		.eabi_attribute 30, 6
  11              		.eabi_attribute 34, 1
  12              		.eabi_attribute 18, 4
  13              		.thumb
  14              		.file	"protocol.c"
  15              		.text
  16              	.Ltext0:
  17              		.cfi_sections	.debug_frame
  18              		.global	txMailboxArea
  19              		.section	.bss.txMailboxArea,"aw",%nobits
  20              		.align	2
  21              		.type	txMailboxArea, %object
  22              		.size	txMailboxArea, 64
  23              	txMailboxArea:
  24 0000 00000000 		.space	64
  24      00000000 
  24      00000000 
  24      00000000 
  24      00000000 
  25              		.global	serialMbox
  26              		.section	.bss.serialMbox,"aw",%nobits
  27              		.align	2
  28              		.type	serialMbox, %object
  29              		.size	serialMbox, 40
  30              	serialMbox:
  31 0000 00000000 		.space	40
  31      00000000 
  31      00000000 
  31      00000000 
  31      00000000 
  32              		.global	mpool
  33              		.section	.data.mpool,"aw",%progbits
  34              		.align	2
  35              		.type	mpool, %object
  36              		.size	mpool, 12
  37              	mpool:
  38 0000 00000000 		.word	0
  39 0004 04000000 		.word	4
  40 0008 00000000 		.word	0
  41              		.global	protocol_01_buffer
  42              		.section	.bss.protocol_01_buffer,"aw",%nobits
  43              		.align	3
  44              		.type	protocol_01_buffer, %object
  45              		.size	protocol_01_buffer, 64
  46              	protocol_01_buffer:
  47 0000 00000000 		.space	64
  47      00000000 
  47      00000000 
ARM GAS  /tmp/ccCksuHK.s 			page 2


  47      00000000 
  47      00000000 
  48              		.section	.text.init_protocol,"ax",%progbits
  49              		.align	2
  50              		.p2align 4,,15
  51              		.global	init_protocol
  52              		.thumb
  53              		.thumb_func
  54              		.type	init_protocol, %function
  55              	init_protocol:
  56              	.LFB271:
  57              		.file 1 "protocol.c"
  58              		.loc 1 11 0
  59              		.cfi_startproc
  60              		@ args = 0, pretend = 0, frame = 0
  61              		@ frame_needed = 0, uses_anonymous_args = 0
  62 0000 08B5     		push	{r3, lr}
  63              		.cfi_def_cfa_offset 8
  64              		.cfi_offset 3, -8
  65              		.cfi_offset 14, -4
  66              		.loc 1 13 0
  67 0002 1148     		ldr	r0, .L3
  68 0004 1149     		ldr	r1, .L3+4
  69 0006 1022     		movs	r2, #16
  70 0008 FFF7FEFF 		bl	chMBObjectInit
  71              		.loc 1 16 0
  72 000c 1048     		ldr	r0, .L3+8
  73 000e 0421     		movs	r1, #4
  74 0010 0022     		movs	r2, #0
  75 0012 FFF7FEFF 		bl	chPoolObjectInit
  76              		.loc 1 21 0
  77 0016 0E48     		ldr	r0, .L3+8
  78 0018 0E49     		ldr	r1, .L3+12
  79 001a 4022     		movs	r2, #64
  80 001c FFF7FEFF 		bl	chPoolLoadArray
  81              		.loc 1 25 0
  82 0020 0D48     		ldr	r0, .L3+16
  83 0022 4FF48061 		mov	r1, #1024
  84 0026 40F28232 		movw	r2, #898
  85 002a FFF7FEFF 		bl	_pal_lld_setgroupmode
  86              		.loc 1 26 0
  87 002e 0A48     		ldr	r0, .L3+16
  88 0030 4FF40061 		mov	r1, #2048
  89 0034 40F28232 		movw	r2, #898
  90 0038 FFF7FEFF 		bl	_pal_lld_setgroupmode
  91              		.loc 1 28 0
  92 003c 0748     		ldr	r0, .L3+20
  93 003e 0021     		movs	r1, #0
  94 0040 FFF7FEFF 		bl	sdStart
  95              		.loc 1 29 0
  96 0044 00BF     		nop
  97              		.loc 1 30 0
  98 0046 08BD     		pop	{r3, pc}
  99              	.L4:
 100              		.align	2
 101              	.L3:
 102 0048 00000000 		.word	serialMbox
ARM GAS  /tmp/ccCksuHK.s 			page 3


 103 004c 00000000 		.word	txMailboxArea
 104 0050 00000000 		.word	mpool
 105 0054 00000000 		.word	protocol_01_buffer
 106 0058 00040240 		.word	1073873920
 107 005c 00000000 		.word	SD3
 108              		.cfi_endproc
 109              	.LFE271:
 110              		.size	init_protocol, .-init_protocol
 111              		.section	.text.rxListen,"ax",%progbits
 112              		.align	2
 113              		.p2align 4,,15
 114              		.global	rxListen
 115              		.thumb
 116              		.thumb_func
 117              		.type	rxListen, %function
 118              	rxListen:
 119              	.LFB272:
 120              		.loc 1 33 0
 121              		.cfi_startproc
 122              		@ args = 0, pretend = 0, frame = 16
 123              		@ frame_needed = 0, uses_anonymous_args = 0
 124 0000 00B5     		push	{lr}
 125              		.cfi_def_cfa_offset 4
 126              		.cfi_offset 14, -4
 127 0002 85B0     		sub	sp, sp, #20
 128              		.cfi_def_cfa_offset 24
 129 0004 0190     		str	r0, [sp, #4]
 130              	.L7:
 131              		.loc 1 37 0
 132 0006 0D48     		ldr	r0, .L8
 133 0008 FFF7FEFF 		bl	chPoolAlloc
 134 000c 0390     		str	r0, [sp, #12]
 135              		.loc 1 38 0
 136 000e 039B     		ldr	r3, [sp, #12]
 137 0010 002B     		cmp	r3, #0
 138 0012 12D0     		beq	.L6
 139              		.loc 1 40 0
 140 0014 0A48     		ldr	r0, .L8+4
 141 0016 0399     		ldr	r1, [sp, #12]
 142 0018 0122     		movs	r2, #1
 143 001a 4FF0FF33 		mov	r3, #-1
 144 001e FFF7FEFF 		bl	chIQReadTimeout
 145              		.loc 1 41 0
 146 0022 039B     		ldr	r3, [sp, #12]
 147 0024 0748     		ldr	r0, .L8+8
 148 0026 1946     		mov	r1, r3
 149 0028 4FF0FF32 		mov	r2, #-1
 150 002c FFF7FEFF 		bl	chMBPost
 151              		.loc 1 42 0
 152 0030 4FF47A70 		mov	r0, #1000
 153 0034 FFF7FEFF 		bl	chThdSleep
 154              		.loc 1 44 0
 155 0038 E5E7     		b	.L7
 156              	.L6:
 157 003a E4E7     		b	.L7
 158              	.L9:
 159              		.align	2
ARM GAS  /tmp/ccCksuHK.s 			page 4


 160              	.L8:
 161 003c 00000000 		.word	mpool
 162 0040 0C000000 		.word	SD3+12
 163 0044 00000000 		.word	serialMbox
 164              		.cfi_endproc
 165              	.LFE272:
 166              		.size	rxListen, .-rxListen
 167 0048 AFF30080 		.section	.text.txWrite,"ax",%progbits
 167      AFF30080 
 168              		.align	2
 169              		.p2align 4,,15
 170              		.global	txWrite
 171              		.thumb
 172              		.thumb_func
 173              		.type	txWrite, %function
 174              	txWrite:
 175              	.LFB273:
 176              		.loc 1 49 0
 177              		.cfi_startproc
 178              		@ args = 0, pretend = 0, frame = 16
 179              		@ frame_needed = 0, uses_anonymous_args = 0
 180 0000 00B5     		push	{lr}
 181              		.cfi_def_cfa_offset 4
 182              		.cfi_offset 14, -4
 183 0002 85B0     		sub	sp, sp, #20
 184              		.cfi_def_cfa_offset 24
 185 0004 0190     		str	r0, [sp, #4]
 186              	.L12:
 187              		.loc 1 53 0
 188 0006 03AB     		add	r3, sp, #12
 189 0008 0D48     		ldr	r0, .L13
 190 000a 1946     		mov	r1, r3
 191 000c 4FF0FF32 		mov	r2, #-1
 192 0010 FFF7FEFF 		bl	chMBFetch
 193 0014 0346     		mov	r3, r0
 194 0016 002B     		cmp	r3, #0
 195 0018 0CD1     		bne	.L11
 196              		.loc 1 55 0
 197 001a 039B     		ldr	r3, [sp, #12]
 198 001c 0948     		ldr	r0, .L13+4
 199 001e 1946     		mov	r1, r3
 200 0020 0122     		movs	r2, #1
 201 0022 4FF0FF33 		mov	r3, #-1
 202 0026 FFF7FEFF 		bl	chOQWriteTimeout
 203              		.loc 1 56 0
 204 002a 039B     		ldr	r3, [sp, #12]
 205 002c 0648     		ldr	r0, .L13+8
 206 002e 1946     		mov	r1, r3
 207 0030 FFF7FEFF 		bl	chPoolFree
 208              	.L11:
 209              		.loc 1 58 0
 210 0034 41F28830 		movw	r0, #5000
 211 0038 FFF7FEFF 		bl	chThdSleep
 212              		.loc 1 59 0
 213 003c E3E7     		b	.L12
 214              	.L14:
 215 003e 00BF     		.align	2
ARM GAS  /tmp/ccCksuHK.s 			page 5


 216              	.L13:
 217 0040 00000000 		.word	serialMbox
 218 0044 30000000 		.word	SD3+48
 219 0048 00000000 		.word	mpool
 220              		.cfi_endproc
 221              	.LFE273:
 222              		.size	txWrite, .-txWrite
 223 004c AFF30080 		.text
 224              	.Letext0:
 225              		.file 2 "/usr/lib/gcc/arm-none-eabi/4.8/include/stddef.h"
 226              		.file 3 "/usr/include/newlib/machine/_default_types.h"
 227              		.file 4 "/usr/include/newlib/stdint.h"
 228              		.file 5 "/home/efe/ChibiOS/os/rt/ports/ARMCMx/compilers/GCC/chtypes.h"
 229              		.file 6 "/home/efe/ChibiOS/os/rt/include/chsystypes.h"
 230              		.file 7 "/home/efe/ChibiOS/os/rt/include/chschd.h"
 231              		.file 8 "/home/efe/ChibiOS/os/ext/CMSIS/ST/stm32f407xx.h"
 232              		.file 9 "/home/efe/ChibiOS/os/rt/ports/ARMCMx/chcore.h"
 233              		.file 10 "/home/efe/ChibiOS/os/rt/ports/ARMCMx/chcore_v7m.h"
 234              		.file 11 "/home/efe/ChibiOS/os/rt/include/chdebug.h"
 235              		.file 12 "/home/efe/ChibiOS/os/rt/include/chtm.h"
 236              		.file 13 "/home/efe/ChibiOS/os/rt/include/chstats.h"
 237              		.file 14 "/home/efe/ChibiOS/os/rt/include/chsem.h"
 238              		.file 15 "/home/efe/ChibiOS/os/rt/include/chmtx.h"
 239              		.file 16 "/home/efe/ChibiOS/os/rt/include/chevents.h"
 240              		.file 17 "/home/efe/ChibiOS/os/rt/include/chmboxes.h"
 241              		.file 18 "/home/efe/ChibiOS/os/rt/include/chmemcore.h"
 242              		.file 19 "/home/efe/ChibiOS/os/rt/include/chmempools.h"
 243              		.file 20 "/home/efe/ChibiOS/os/rt/include/chqueues.h"
 244              		.file 21 "/home/efe/ChibiOS/os/hal/ports/STM32/LLD/GPIOv2/pal_lld.h"
 245              		.file 22 "/home/efe/ChibiOS/os/hal/include/serial.h"
 246              		.file 23 "/home/efe/ChibiOS/os/hal/ports/STM32/LLD/USARTv1/serial_lld.h"
 247              		.file 24 "/home/efe/ChibiOS/os/ext/CMSIS/include/core_cm4.h"
 248              		.section	.debug_info,"",%progbits
 249              	.Ldebug_info0:
 250 0000 790E0000 		.4byte	0xe79
 251 0004 0400     		.2byte	0x4
 252 0006 00000000 		.4byte	.Ldebug_abbrev0
 253 000a 04       		.byte	0x4
 254 000b 01       		.uleb128 0x1
 255 000c C3010000 		.4byte	.LASF210
 256 0010 01       		.byte	0x1
 257 0011 91010000 		.4byte	.LASF211
 258 0015 65030000 		.4byte	.LASF212
 259 0019 00000000 		.4byte	.Ldebug_ranges0+0
 260 001d 00000000 		.4byte	0
 261 0021 00000000 		.4byte	.Ldebug_line0
 262 0025 02       		.uleb128 0x2
 263 0026 04       		.byte	0x4
 264 0027 05       		.byte	0x5
 265 0028 696E7400 		.ascii	"int\000"
 266 002c 03       		.uleb128 0x3
 267 002d 1C000000 		.4byte	.LASF2
 268 0031 02       		.byte	0x2
 269 0032 D4       		.byte	0xd4
 270 0033 37000000 		.4byte	0x37
 271 0037 04       		.uleb128 0x4
 272 0038 04       		.byte	0x4
ARM GAS  /tmp/ccCksuHK.s 			page 6


 273 0039 07       		.byte	0x7
 274 003a 30030000 		.4byte	.LASF0
 275 003e 04       		.uleb128 0x4
 276 003f 01       		.byte	0x1
 277 0040 06       		.byte	0x6
 278 0041 44010000 		.4byte	.LASF1
 279 0045 03       		.uleb128 0x3
 280 0046 47000000 		.4byte	.LASF3
 281 004a 03       		.byte	0x3
 282 004b 1D       		.byte	0x1d
 283 004c 50000000 		.4byte	0x50
 284 0050 04       		.uleb128 0x4
 285 0051 01       		.byte	0x1
 286 0052 08       		.byte	0x8
 287 0053 41060000 		.4byte	.LASF4
 288 0057 04       		.uleb128 0x4
 289 0058 02       		.byte	0x2
 290 0059 05       		.byte	0x5
 291 005a 82060000 		.4byte	.LASF5
 292 005e 03       		.uleb128 0x3
 293 005f 60070000 		.4byte	.LASF6
 294 0063 03       		.byte	0x3
 295 0064 2B       		.byte	0x2b
 296 0065 69000000 		.4byte	0x69
 297 0069 04       		.uleb128 0x4
 298 006a 02       		.byte	0x2
 299 006b 07       		.byte	0x7
 300 006c C8030000 		.4byte	.LASF7
 301 0070 03       		.uleb128 0x3
 302 0071 82040000 		.4byte	.LASF8
 303 0075 03       		.byte	0x3
 304 0076 3F       		.byte	0x3f
 305 0077 7B000000 		.4byte	0x7b
 306 007b 04       		.uleb128 0x4
 307 007c 04       		.byte	0x4
 308 007d 05       		.byte	0x5
 309 007e 88010000 		.4byte	.LASF9
 310 0082 03       		.uleb128 0x3
 311 0083 A2070000 		.4byte	.LASF10
 312 0087 03       		.byte	0x3
 313 0088 41       		.byte	0x41
 314 0089 8D000000 		.4byte	0x8d
 315 008d 04       		.uleb128 0x4
 316 008e 04       		.byte	0x4
 317 008f 07       		.byte	0x7
 318 0090 44070000 		.4byte	.LASF11
 319 0094 04       		.uleb128 0x4
 320 0095 08       		.byte	0x8
 321 0096 05       		.byte	0x5
 322 0097 36010000 		.4byte	.LASF12
 323 009b 03       		.uleb128 0x3
 324 009c CA050000 		.4byte	.LASF13
 325 00a0 03       		.byte	0x3
 326 00a1 5B       		.byte	0x5b
 327 00a2 A6000000 		.4byte	0xa6
 328 00a6 04       		.uleb128 0x4
 329 00a7 08       		.byte	0x8
ARM GAS  /tmp/ccCksuHK.s 			page 7


 330 00a8 07       		.byte	0x7
 331 00a9 A3000000 		.4byte	.LASF14
 332 00ad 03       		.uleb128 0x3
 333 00ae 98080000 		.4byte	.LASF15
 334 00b2 04       		.byte	0x4
 335 00b3 2A       		.byte	0x2a
 336 00b4 45000000 		.4byte	0x45
 337 00b8 03       		.uleb128 0x3
 338 00b9 45030000 		.4byte	.LASF16
 339 00bd 04       		.byte	0x4
 340 00be 36       		.byte	0x36
 341 00bf 5E000000 		.4byte	0x5e
 342 00c3 03       		.uleb128 0x3
 343 00c4 39060000 		.4byte	.LASF17
 344 00c8 04       		.byte	0x4
 345 00c9 41       		.byte	0x41
 346 00ca 70000000 		.4byte	0x70
 347 00ce 03       		.uleb128 0x3
 348 00cf 30080000 		.4byte	.LASF18
 349 00d3 04       		.byte	0x4
 350 00d4 42       		.byte	0x42
 351 00d5 82000000 		.4byte	0x82
 352 00d9 03       		.uleb128 0x3
 353 00da 31000000 		.4byte	.LASF19
 354 00de 04       		.byte	0x4
 355 00df 4E       		.byte	0x4e
 356 00e0 9B000000 		.4byte	0x9b
 357 00e4 05       		.uleb128 0x5
 358 00e5 C3000000 		.4byte	0xc3
 359 00e9 05       		.uleb128 0x5
 360 00ea CE000000 		.4byte	0xce
 361 00ee 03       		.uleb128 0x3
 362 00ef FE070000 		.4byte	.LASF20
 363 00f3 05       		.byte	0x5
 364 00f4 45       		.byte	0x45
 365 00f5 CE000000 		.4byte	0xce
 366 00f9 03       		.uleb128 0x3
 367 00fa 16010000 		.4byte	.LASF21
 368 00fe 05       		.byte	0x5
 369 00ff 46       		.byte	0x46
 370 0100 D9000000 		.4byte	0xd9
 371 0104 03       		.uleb128 0x3
 372 0105 55040000 		.4byte	.LASF22
 373 0109 05       		.byte	0x5
 374 010a 48       		.byte	0x48
 375 010b AD000000 		.4byte	0xad
 376 010f 03       		.uleb128 0x3
 377 0110 9C010000 		.4byte	.LASF23
 378 0114 05       		.byte	0x5
 379 0115 49       		.byte	0x49
 380 0116 AD000000 		.4byte	0xad
 381 011a 03       		.uleb128 0x3
 382 011b EA050000 		.4byte	.LASF24
 383 011f 05       		.byte	0x5
 384 0120 4A       		.byte	0x4a
 385 0121 AD000000 		.4byte	0xad
 386 0125 03       		.uleb128 0x3
ARM GAS  /tmp/ccCksuHK.s 			page 8


 387 0126 13060000 		.4byte	.LASF25
 388 012a 05       		.byte	0x5
 389 012b 4C       		.byte	0x4c
 390 012c CE000000 		.4byte	0xce
 391 0130 03       		.uleb128 0x3
 392 0131 0A040000 		.4byte	.LASF26
 393 0135 05       		.byte	0x5
 394 0136 4D       		.byte	0x4d
 395 0137 C3000000 		.4byte	0xc3
 396 013b 03       		.uleb128 0x3
 397 013c 76040000 		.4byte	.LASF27
 398 0140 05       		.byte	0x5
 399 0141 4F       		.byte	0x4f
 400 0142 CE000000 		.4byte	0xce
 401 0146 03       		.uleb128 0x3
 402 0147 23080000 		.4byte	.LASF28
 403 014b 05       		.byte	0x5
 404 014c 50       		.byte	0x50
 405 014d CE000000 		.4byte	0xce
 406 0151 03       		.uleb128 0x3
 407 0152 24030000 		.4byte	.LASF29
 408 0156 05       		.byte	0x5
 409 0157 51       		.byte	0x51
 410 0158 C3000000 		.4byte	0xc3
 411 015c 03       		.uleb128 0x3
 412 015d 17040000 		.4byte	.LASF30
 413 0161 05       		.byte	0x5
 414 0162 52       		.byte	0x52
 415 0163 CE000000 		.4byte	0xce
 416 0167 03       		.uleb128 0x3
 417 0168 84070000 		.4byte	.LASF31
 418 016c 06       		.byte	0x6
 419 016d 33       		.byte	0x33
 420 016e CE000000 		.4byte	0xce
 421 0172 03       		.uleb128 0x3
 422 0173 6B070000 		.4byte	.LASF32
 423 0177 06       		.byte	0x6
 424 0178 3F       		.byte	0x3f
 425 0179 7D010000 		.4byte	0x17d
 426 017d 06       		.uleb128 0x6
 427 017e EA030000 		.4byte	.LASF54
 428 0182 60       		.byte	0x60
 429 0183 07       		.byte	0x7
 430 0184 C2       		.byte	0xc2
 431 0185 83020000 		.4byte	0x283
 432 0189 07       		.uleb128 0x7
 433 018a A8060000 		.4byte	.LASF33
 434 018e 07       		.byte	0x7
 435 018f C3       		.byte	0xc3
 436 0190 8E020000 		.4byte	0x28e
 437 0194 00       		.byte	0
 438 0195 07       		.uleb128 0x7
 439 0196 0C060000 		.4byte	.LASF34
 440 019a 07       		.byte	0x7
 441 019b C5       		.byte	0xc5
 442 019c 8E020000 		.4byte	0x28e
 443 01a0 04       		.byte	0x4
ARM GAS  /tmp/ccCksuHK.s 			page 9


 444 01a1 07       		.uleb128 0x7
 445 01a2 1F010000 		.4byte	.LASF35
 446 01a6 07       		.byte	0x7
 447 01a7 C7       		.byte	0xc7
 448 01a8 25010000 		.4byte	0x125
 449 01ac 08       		.byte	0x8
 450 01ad 07       		.uleb128 0x7
 451 01ae F5080000 		.4byte	.LASF36
 452 01b2 07       		.byte	0x7
 453 01b3 C8       		.byte	0xc8
 454 01b4 66050000 		.4byte	0x566
 455 01b8 0C       		.byte	0xc
 456 01b9 07       		.uleb128 0x7
 457 01ba 88020000 		.4byte	.LASF37
 458 01be 07       		.byte	0x7
 459 01bf CA       		.byte	0xca
 460 01c0 8E020000 		.4byte	0x28e
 461 01c4 10       		.byte	0x10
 462 01c5 07       		.uleb128 0x7
 463 01c6 5C050000 		.4byte	.LASF38
 464 01ca 07       		.byte	0x7
 465 01cb CB       		.byte	0xcb
 466 01cc 8E020000 		.4byte	0x28e
 467 01d0 14       		.byte	0x14
 468 01d1 07       		.uleb128 0x7
 469 01d2 23060000 		.4byte	.LASF39
 470 01d6 07       		.byte	0x7
 471 01d7 D2       		.byte	0xd2
 472 01d8 0A080000 		.4byte	0x80a
 473 01dc 18       		.byte	0x18
 474 01dd 07       		.uleb128 0x7
 475 01de 94050000 		.4byte	.LASF40
 476 01e2 07       		.byte	0x7
 477 01e3 D8       		.byte	0xd8
 478 01e4 1C080000 		.4byte	0x81c
 479 01e8 1C       		.byte	0x1c
 480 01e9 07       		.uleb128 0x7
 481 01ea 8C060000 		.4byte	.LASF41
 482 01ee 07       		.byte	0x7
 483 01ef DD       		.byte	0xdd
 484 01f0 0F010000 		.4byte	0x10f
 485 01f4 20       		.byte	0x20
 486 01f5 07       		.uleb128 0x7
 487 01f6 AF060000 		.4byte	.LASF42
 488 01fa 07       		.byte	0x7
 489 01fb E1       		.byte	0xe1
 490 01fc 04010000 		.4byte	0x104
 491 0200 21       		.byte	0x21
 492 0201 07       		.uleb128 0x7
 493 0202 A5010000 		.4byte	.LASF43
 494 0206 07       		.byte	0x7
 495 0207 E6       		.byte	0xe6
 496 0208 1A010000 		.4byte	0x11a
 497 020c 22       		.byte	0x22
 498 020d 08       		.uleb128 0x8
 499 020e 705F7500 		.ascii	"p_u\000"
 500 0212 07       		.byte	0x7
ARM GAS  /tmp/ccCksuHK.s 			page 10


 501 0213 3101     		.2byte	0x131
 502 0215 45070000 		.4byte	0x745
 503 0219 24       		.byte	0x24
 504 021a 09       		.uleb128 0x9
 505 021b DF040000 		.4byte	.LASF44
 506 021f 07       		.byte	0x7
 507 0220 3601     		.2byte	0x136
 508 0222 94020000 		.4byte	0x294
 509 0226 28       		.byte	0x28
 510 0227 09       		.uleb128 0x9
 511 0228 98030000 		.4byte	.LASF45
 512 022c 07       		.byte	0x7
 513 022d 3C01     		.2byte	0x13c
 514 022f B8020000 		.4byte	0x2b8
 515 0233 2C       		.byte	0x2c
 516 0234 09       		.uleb128 0x9
 517 0235 CB080000 		.4byte	.LASF46
 518 0239 07       		.byte	0x7
 519 023a 4001     		.2byte	0x140
 520 023c 30010000 		.4byte	0x130
 521 0240 34       		.byte	0x34
 522 0241 09       		.uleb128 0x9
 523 0242 F0060000 		.4byte	.LASF47
 524 0246 07       		.byte	0x7
 525 0247 4601     		.2byte	0x146
 526 0249 3B010000 		.4byte	0x13b
 527 024d 38       		.byte	0x38
 528 024e 09       		.uleb128 0x9
 529 024f 78060000 		.4byte	.LASF48
 530 0253 07       		.byte	0x7
 531 0254 4D01     		.2byte	0x14d
 532 0256 04080000 		.4byte	0x804
 533 025a 3C       		.byte	0x3c
 534 025b 09       		.uleb128 0x9
 535 025c 8E070000 		.4byte	.LASF49
 536 0260 07       		.byte	0x7
 537 0261 5101     		.2byte	0x151
 538 0263 25010000 		.4byte	0x125
 539 0267 40       		.byte	0x40
 540 0268 09       		.uleb128 0x9
 541 0269 61010000 		.4byte	.LASF50
 542 026d 07       		.byte	0x7
 543 026e 5801     		.2byte	0x158
 544 0270 6B030000 		.4byte	0x36b
 545 0274 44       		.byte	0x44
 546 0275 09       		.uleb128 0x9
 547 0276 B7060000 		.4byte	.LASF51
 548 027a 07       		.byte	0x7
 549 027b 5E01     		.2byte	0x15e
 550 027d F6060000 		.4byte	0x6f6
 551 0281 48       		.byte	0x48
 552 0282 00       		.byte	0
 553 0283 03       		.uleb128 0x3
 554 0284 FB040000 		.4byte	.LASF52
 555 0288 06       		.byte	0x6
 556 0289 44       		.byte	0x44
 557 028a 8E020000 		.4byte	0x28e
ARM GAS  /tmp/ccCksuHK.s 			page 11


 558 028e 0A       		.uleb128 0xa
 559 028f 04       		.byte	0x4
 560 0290 72010000 		.4byte	0x172
 561 0294 03       		.uleb128 0x3
 562 0295 AF080000 		.4byte	.LASF53
 563 0299 06       		.byte	0x6
 564 029a 49       		.byte	0x49
 565 029b 9F020000 		.4byte	0x29f
 566 029f 06       		.uleb128 0x6
 567 02a0 27070000 		.4byte	.LASF55
 568 02a4 04       		.byte	0x4
 569 02a5 07       		.byte	0x7
 570 02a6 B0       		.byte	0xb0
 571 02a7 B8020000 		.4byte	0x2b8
 572 02ab 07       		.uleb128 0x7
 573 02ac A8060000 		.4byte	.LASF33
 574 02b0 07       		.byte	0x7
 575 02b1 B1       		.byte	0xb1
 576 02b2 8E020000 		.4byte	0x28e
 577 02b6 00       		.byte	0
 578 02b7 00       		.byte	0
 579 02b8 03       		.uleb128 0x3
 580 02b9 CE060000 		.4byte	.LASF56
 581 02bd 06       		.byte	0x6
 582 02be 50       		.byte	0x50
 583 02bf C3020000 		.4byte	0x2c3
 584 02c3 06       		.uleb128 0x6
 585 02c4 64000000 		.4byte	.LASF57
 586 02c8 08       		.byte	0x8
 587 02c9 07       		.byte	0x7
 588 02ca B7       		.byte	0xb7
 589 02cb E8020000 		.4byte	0x2e8
 590 02cf 07       		.uleb128 0x7
 591 02d0 A8060000 		.4byte	.LASF33
 592 02d4 07       		.byte	0x7
 593 02d5 B8       		.byte	0xb8
 594 02d6 8E020000 		.4byte	0x28e
 595 02da 00       		.byte	0
 596 02db 07       		.uleb128 0x7
 597 02dc 0C060000 		.4byte	.LASF34
 598 02e0 07       		.byte	0x7
 599 02e1 B9       		.byte	0xb9
 600 02e2 8E020000 		.4byte	0x28e
 601 02e6 04       		.byte	0x4
 602 02e7 00       		.byte	0
 603 02e8 03       		.uleb128 0x3
 604 02e9 07000000 		.4byte	.LASF58
 605 02ed 06       		.byte	0x6
 606 02ee 57       		.byte	0x57
 607 02ef F3020000 		.4byte	0x2f3
 608 02f3 0B       		.uleb128 0xb
 609 02f4 68040000 		.4byte	.LASF59
 610 02f8 1C       		.byte	0x1c
 611 02f9 07       		.byte	0x7
 612 02fa 9001     		.2byte	0x190
 613 02fc 4F030000 		.4byte	0x34f
 614 0300 09       		.uleb128 0x9
ARM GAS  /tmp/ccCksuHK.s 			page 12


 615 0301 16070000 		.4byte	.LASF60
 616 0305 07       		.byte	0x7
 617 0306 9101     		.2byte	0x191
 618 0308 B8020000 		.4byte	0x2b8
 619 030c 00       		.byte	0
 620 030d 09       		.uleb128 0x9
 621 030e 9A060000 		.4byte	.LASF61
 622 0312 07       		.byte	0x7
 623 0313 9201     		.2byte	0x192
 624 0315 25010000 		.4byte	0x125
 625 0319 08       		.byte	0x8
 626 031a 09       		.uleb128 0x9
 627 031b 64050000 		.4byte	.LASF62
 628 031f 07       		.byte	0x7
 629 0320 9401     		.2byte	0x194
 630 0322 66050000 		.4byte	0x566
 631 0326 0C       		.byte	0xc
 632 0327 09       		.uleb128 0x9
 633 0328 A8020000 		.4byte	.LASF63
 634 032c 07       		.byte	0x7
 635 032d 9701     		.2byte	0x197
 636 032f 8E020000 		.4byte	0x28e
 637 0333 10       		.byte	0x10
 638 0334 09       		.uleb128 0x9
 639 0335 B3050000 		.4byte	.LASF64
 640 0339 07       		.byte	0x7
 641 033a 9801     		.2byte	0x198
 642 033c 8E020000 		.4byte	0x28e
 643 0340 14       		.byte	0x14
 644 0341 09       		.uleb128 0x9
 645 0342 A9050000 		.4byte	.LASF65
 646 0346 07       		.byte	0x7
 647 0347 9B01     		.2byte	0x19b
 648 0349 8E020000 		.4byte	0x28e
 649 034d 18       		.byte	0x18
 650 034e 00       		.byte	0
 651 034f 03       		.uleb128 0x3
 652 0350 99070000 		.4byte	.LASF66
 653 0354 06       		.byte	0x6
 654 0355 5C       		.byte	0x5c
 655 0356 5A030000 		.4byte	0x35a
 656 035a 0A       		.uleb128 0xa
 657 035b 04       		.byte	0x4
 658 035c 60030000 		.4byte	0x360
 659 0360 0C       		.uleb128 0xc
 660 0361 6B030000 		.4byte	0x36b
 661 0365 0D       		.uleb128 0xd
 662 0366 6B030000 		.4byte	0x36b
 663 036a 00       		.byte	0
 664 036b 0E       		.uleb128 0xe
 665 036c 04       		.byte	0x4
 666 036d 03       		.uleb128 0x3
 667 036e FC050000 		.4byte	.LASF67
 668 0372 06       		.byte	0x6
 669 0373 61       		.byte	0x61
 670 0374 78030000 		.4byte	0x378
 671 0378 0B       		.uleb128 0xb
ARM GAS  /tmp/ccCksuHK.s 			page 13


 672 0379 ED070000 		.4byte	.LASF68
 673 037d 14       		.byte	0x14
 674 037e 07       		.byte	0x7
 675 037f 6B01     		.2byte	0x16b
 676 0381 C7030000 		.4byte	0x3c7
 677 0385 09       		.uleb128 0x9
 678 0386 3D030000 		.4byte	.LASF69
 679 038a 07       		.byte	0x7
 680 038b 6C01     		.2byte	0x16c
 681 038d 22080000 		.4byte	0x822
 682 0391 00       		.byte	0
 683 0392 09       		.uleb128 0x9
 684 0393 C5020000 		.4byte	.LASF70
 685 0397 07       		.byte	0x7
 686 0398 6D01     		.2byte	0x16d
 687 039a 22080000 		.4byte	0x822
 688 039e 04       		.byte	0x4
 689 039f 09       		.uleb128 0x9
 690 03a0 1E070000 		.4byte	.LASF71
 691 03a4 07       		.byte	0x7
 692 03a5 6E01     		.2byte	0x16e
 693 03a7 67010000 		.4byte	0x167
 694 03ab 08       		.byte	0x8
 695 03ac 09       		.uleb128 0x9
 696 03ad FB080000 		.4byte	.LASF72
 697 03b1 07       		.byte	0x7
 698 03b2 6F01     		.2byte	0x16f
 699 03b4 4F030000 		.4byte	0x34f
 700 03b8 0C       		.byte	0xc
 701 03b9 09       		.uleb128 0x9
 702 03ba 1C080000 		.4byte	.LASF73
 703 03be 07       		.byte	0x7
 704 03bf 7101     		.2byte	0x171
 705 03c1 6B030000 		.4byte	0x36b
 706 03c5 10       		.byte	0x10
 707 03c6 00       		.byte	0
 708 03c7 03       		.uleb128 0x3
 709 03c8 96040000 		.4byte	.LASF74
 710 03cc 06       		.byte	0x6
 711 03cd 66       		.byte	0x66
 712 03ce D2030000 		.4byte	0x3d2
 713 03d2 0B       		.uleb128 0xb
 714 03d3 0E050000 		.4byte	.LASF75
 715 03d7 10       		.byte	0x10
 716 03d8 07       		.byte	0x7
 717 03d9 7B01     		.2byte	0x17b
 718 03db 14040000 		.4byte	0x414
 719 03df 09       		.uleb128 0x9
 720 03e0 3D030000 		.4byte	.LASF69
 721 03e4 07       		.byte	0x7
 722 03e5 7C01     		.2byte	0x17c
 723 03e7 22080000 		.4byte	0x822
 724 03eb 00       		.byte	0
 725 03ec 09       		.uleb128 0x9
 726 03ed C5020000 		.4byte	.LASF70
 727 03f1 07       		.byte	0x7
 728 03f2 7E01     		.2byte	0x17e
ARM GAS  /tmp/ccCksuHK.s 			page 14


 729 03f4 22080000 		.4byte	0x822
 730 03f8 04       		.byte	0x4
 731 03f9 09       		.uleb128 0x9
 732 03fa 1E070000 		.4byte	.LASF71
 733 03fe 07       		.byte	0x7
 734 03ff 8001     		.2byte	0x180
 735 0401 67010000 		.4byte	0x167
 736 0405 08       		.byte	0x8
 737 0406 09       		.uleb128 0x9
 738 0407 50050000 		.4byte	.LASF76
 739 040b 07       		.byte	0x7
 740 040c 8801     		.2byte	0x188
 741 040e 67010000 		.4byte	0x167
 742 0412 0C       		.byte	0xc
 743 0413 00       		.byte	0
 744 0414 03       		.uleb128 0x3
 745 0415 75000000 		.4byte	.LASF77
 746 0419 06       		.byte	0x6
 747 041a 6B       		.byte	0x6b
 748 041b 1F040000 		.4byte	0x41f
 749 041f 0F       		.uleb128 0xf
 750 0420 CD020000 		.4byte	.LASF78
 751 0424 1404     		.2byte	0x414
 752 0426 07       		.byte	0x7
 753 0427 A201     		.2byte	0x1a2
 754 0429 62040000 		.4byte	0x462
 755 042d 09       		.uleb128 0x9
 756 042e B2070000 		.4byte	.LASF79
 757 0432 07       		.byte	0x7
 758 0433 AA01     		.2byte	0x1aa
 759 0435 28080000 		.4byte	0x828
 760 0439 00       		.byte	0
 761 043a 09       		.uleb128 0x9
 762 043b 68080000 		.4byte	.LASF80
 763 043f 07       		.byte	0x7
 764 0440 AF01     		.2byte	0x1af
 765 0442 51010000 		.4byte	0x151
 766 0446 04       		.byte	0x4
 767 0447 09       		.uleb128 0x9
 768 0448 FD020000 		.4byte	.LASF81
 769 044c 07       		.byte	0x7
 770 044d B301     		.2byte	0x1b3
 771 044f 51010000 		.4byte	0x151
 772 0453 08       		.byte	0x8
 773 0454 09       		.uleb128 0x9
 774 0455 BE080000 		.4byte	.LASF82
 775 0459 07       		.byte	0x7
 776 045a B901     		.2byte	0x1b9
 777 045c 88060000 		.4byte	0x688
 778 0460 0C       		.byte	0xc
 779 0461 00       		.byte	0
 780 0462 03       		.uleb128 0x3
 781 0463 26040000 		.4byte	.LASF83
 782 0467 06       		.byte	0x6
 783 0468 70       		.byte	0x70
 784 0469 6D040000 		.4byte	0x46d
 785 046d 0F       		.uleb128 0xf
ARM GAS  /tmp/ccCksuHK.s 			page 15


 786 046e 7E010000 		.4byte	.LASF84
 787 0472 D805     		.2byte	0x5d8
 788 0474 07       		.byte	0x7
 789 0475 C201     		.2byte	0x1c2
 790 0477 DA040000 		.4byte	0x4da
 791 047b 09       		.uleb128 0x9
 792 047c 85080000 		.4byte	.LASF85
 793 0480 07       		.byte	0x7
 794 0481 C601     		.2byte	0x1c6
 795 0483 E8020000 		.4byte	0x2e8
 796 0487 00       		.byte	0
 797 0488 09       		.uleb128 0x9
 798 0489 71010000 		.4byte	.LASF86
 799 048d 07       		.byte	0x7
 800 048e CA01     		.2byte	0x1ca
 801 0490 C7030000 		.4byte	0x3c7
 802 0494 1C       		.byte	0x1c
 803 0495 08       		.uleb128 0x8
 804 0496 64626700 		.ascii	"dbg\000"
 805 049a 07       		.byte	0x7
 806 049b CE01     		.2byte	0x1ce
 807 049d 14040000 		.4byte	0x414
 808 04a1 2C       		.byte	0x2c
 809 04a2 10       		.uleb128 0x10
 810 04a3 E4000000 		.4byte	.LASF87
 811 04a7 07       		.byte	0x7
 812 04a8 D201     		.2byte	0x1d2
 813 04aa 72010000 		.4byte	0x172
 814 04ae 4004     		.2byte	0x440
 815 04b0 11       		.uleb128 0x11
 816 04b1 746D00   		.ascii	"tm\000"
 817 04b4 07       		.byte	0x7
 818 04b5 D701     		.2byte	0x1d7
 819 04b7 A8060000 		.4byte	0x6a8
 820 04bb A004     		.2byte	0x4a0
 821 04bd 10       		.uleb128 0x10
 822 04be 3A000000 		.4byte	.LASF88
 823 04c2 07       		.byte	0x7
 824 04c3 DD01     		.2byte	0x1dd
 825 04c5 3A070000 		.4byte	0x73a
 826 04c9 A804     		.2byte	0x4a8
 827 04cb 10       		.uleb128 0x10
 828 04cc 15030000 		.4byte	.LASF89
 829 04d0 07       		.byte	0x7
 830 04d1 E301     		.2byte	0x1e3
 831 04d3 2D080000 		.4byte	0x82d
 832 04d7 E004     		.2byte	0x4e0
 833 04d9 00       		.byte	0
 834 04da 04       		.uleb128 0x4
 835 04db 04       		.byte	0x4
 836 04dc 07       		.byte	0x7
 837 04dd F2040000 		.4byte	.LASF90
 838 04e1 12       		.uleb128 0x12
 839 04e2 1C       		.byte	0x1c
 840 04e3 08       		.byte	0x8
 841 04e4 0903     		.2byte	0x309
 842 04e6 44050000 		.4byte	0x544
ARM GAS  /tmp/ccCksuHK.s 			page 16


 843 04ea 08       		.uleb128 0x8
 844 04eb 535200   		.ascii	"SR\000"
 845 04ee 08       		.byte	0x8
 846 04ef 0B03     		.2byte	0x30b
 847 04f1 E9000000 		.4byte	0xe9
 848 04f5 00       		.byte	0
 849 04f6 08       		.uleb128 0x8
 850 04f7 445200   		.ascii	"DR\000"
 851 04fa 08       		.byte	0x8
 852 04fb 0C03     		.2byte	0x30c
 853 04fd E9000000 		.4byte	0xe9
 854 0501 04       		.byte	0x4
 855 0502 08       		.uleb128 0x8
 856 0503 42525200 		.ascii	"BRR\000"
 857 0507 08       		.byte	0x8
 858 0508 0D03     		.2byte	0x30d
 859 050a E9000000 		.4byte	0xe9
 860 050e 08       		.byte	0x8
 861 050f 08       		.uleb128 0x8
 862 0510 43523100 		.ascii	"CR1\000"
 863 0514 08       		.byte	0x8
 864 0515 0E03     		.2byte	0x30e
 865 0517 E9000000 		.4byte	0xe9
 866 051b 0C       		.byte	0xc
 867 051c 08       		.uleb128 0x8
 868 051d 43523200 		.ascii	"CR2\000"
 869 0521 08       		.byte	0x8
 870 0522 0F03     		.2byte	0x30f
 871 0524 E9000000 		.4byte	0xe9
 872 0528 10       		.byte	0x10
 873 0529 08       		.uleb128 0x8
 874 052a 43523300 		.ascii	"CR3\000"
 875 052e 08       		.byte	0x8
 876 052f 1003     		.2byte	0x310
 877 0531 E9000000 		.4byte	0xe9
 878 0535 14       		.byte	0x14
 879 0536 09       		.uleb128 0x9
 880 0537 55010000 		.4byte	.LASF91
 881 053b 08       		.byte	0x8
 882 053c 1103     		.2byte	0x311
 883 053e E9000000 		.4byte	0xe9
 884 0542 18       		.byte	0x18
 885 0543 00       		.byte	0
 886 0544 13       		.uleb128 0x13
 887 0545 40040000 		.4byte	.LASF92
 888 0549 08       		.byte	0x8
 889 054a 1203     		.2byte	0x312
 890 054c E1040000 		.4byte	0x4e1
 891 0550 03       		.uleb128 0x3
 892 0551 BC020000 		.4byte	.LASF93
 893 0555 09       		.byte	0x9
 894 0556 65       		.byte	0x65
 895 0557 6B030000 		.4byte	0x36b
 896 055b 03       		.uleb128 0x3
 897 055c AC040000 		.4byte	.LASF94
 898 0560 09       		.byte	0x9
 899 0561 6D       		.byte	0x6d
ARM GAS  /tmp/ccCksuHK.s 			page 17


 900 0562 D9000000 		.4byte	0xd9
 901 0566 06       		.uleb128 0x6
 902 0567 E5070000 		.4byte	.LASF95
 903 056b 04       		.byte	0x4
 904 056c 09       		.byte	0x9
 905 056d 89       		.byte	0x89
 906 056e 7F050000 		.4byte	0x57f
 907 0572 14       		.uleb128 0x14
 908 0573 72313300 		.ascii	"r13\000"
 909 0577 09       		.byte	0x9
 910 0578 8A       		.byte	0x8a
 911 0579 FA050000 		.4byte	0x5fa
 912 057d 00       		.byte	0
 913 057e 00       		.byte	0
 914 057f 06       		.uleb128 0x6
 915 0580 58000000 		.4byte	.LASF96
 916 0584 24       		.byte	0x24
 917 0585 0A       		.byte	0xa
 918 0586 FD       		.byte	0xfd
 919 0587 FA050000 		.4byte	0x5fa
 920 058b 08       		.uleb128 0x8
 921 058c 723400   		.ascii	"r4\000"
 922 058f 0A       		.byte	0xa
 923 0590 1001     		.2byte	0x110
 924 0592 50050000 		.4byte	0x550
 925 0596 00       		.byte	0
 926 0597 08       		.uleb128 0x8
 927 0598 723500   		.ascii	"r5\000"
 928 059b 0A       		.byte	0xa
 929 059c 1101     		.2byte	0x111
 930 059e 50050000 		.4byte	0x550
 931 05a2 04       		.byte	0x4
 932 05a3 08       		.uleb128 0x8
 933 05a4 723600   		.ascii	"r6\000"
 934 05a7 0A       		.byte	0xa
 935 05a8 1201     		.2byte	0x112
 936 05aa 50050000 		.4byte	0x550
 937 05ae 08       		.byte	0x8
 938 05af 08       		.uleb128 0x8
 939 05b0 723700   		.ascii	"r7\000"
 940 05b3 0A       		.byte	0xa
 941 05b4 1301     		.2byte	0x113
 942 05b6 50050000 		.4byte	0x550
 943 05ba 0C       		.byte	0xc
 944 05bb 08       		.uleb128 0x8
 945 05bc 723800   		.ascii	"r8\000"
 946 05bf 0A       		.byte	0xa
 947 05c0 1401     		.2byte	0x114
 948 05c2 50050000 		.4byte	0x550
 949 05c6 10       		.byte	0x10
 950 05c7 08       		.uleb128 0x8
 951 05c8 723900   		.ascii	"r9\000"
 952 05cb 0A       		.byte	0xa
 953 05cc 1501     		.2byte	0x115
 954 05ce 50050000 		.4byte	0x550
 955 05d2 14       		.byte	0x14
 956 05d3 08       		.uleb128 0x8
ARM GAS  /tmp/ccCksuHK.s 			page 18


 957 05d4 72313000 		.ascii	"r10\000"
 958 05d8 0A       		.byte	0xa
 959 05d9 1601     		.2byte	0x116
 960 05db 50050000 		.4byte	0x550
 961 05df 18       		.byte	0x18
 962 05e0 08       		.uleb128 0x8
 963 05e1 72313100 		.ascii	"r11\000"
 964 05e5 0A       		.byte	0xa
 965 05e6 1701     		.2byte	0x117
 966 05e8 50050000 		.4byte	0x550
 967 05ec 1C       		.byte	0x1c
 968 05ed 08       		.uleb128 0x8
 969 05ee 6C7200   		.ascii	"lr\000"
 970 05f1 0A       		.byte	0xa
 971 05f2 1801     		.2byte	0x118
 972 05f4 50050000 		.4byte	0x550
 973 05f8 20       		.byte	0x20
 974 05f9 00       		.byte	0
 975 05fa 0A       		.uleb128 0xa
 976 05fb 04       		.byte	0x4
 977 05fc 7F050000 		.4byte	0x57f
 978 0600 15       		.uleb128 0x15
 979 0601 10       		.byte	0x10
 980 0602 0B       		.byte	0xb
 981 0603 51       		.byte	0x51
 982 0604 39060000 		.4byte	0x639
 983 0608 07       		.uleb128 0x7
 984 0609 14000000 		.4byte	.LASF97
 985 060d 0B       		.byte	0xb
 986 060e 55       		.byte	0x55
 987 060f 67010000 		.4byte	0x167
 988 0613 00       		.byte	0
 989 0614 07       		.uleb128 0x7
 990 0615 AC010000 		.4byte	.LASF98
 991 0619 0B       		.byte	0xb
 992 061a 59       		.byte	0x59
 993 061b 8E020000 		.4byte	0x28e
 994 061f 04       		.byte	0x4
 995 0620 07       		.uleb128 0x7
 996 0621 EB080000 		.4byte	.LASF99
 997 0625 0B       		.byte	0xb
 998 0626 5D       		.byte	0x5d
 999 0627 6B030000 		.4byte	0x36b
 1000 062b 08       		.byte	0x8
 1001 062c 07       		.uleb128 0x7
 1002 062d CC000000 		.4byte	.LASF100
 1003 0631 0B       		.byte	0xb
 1004 0632 61       		.byte	0x61
 1005 0633 AD000000 		.4byte	0xad
 1006 0637 0C       		.byte	0xc
 1007 0638 00       		.byte	0
 1008 0639 03       		.uleb128 0x3
 1009 063a 34050000 		.4byte	.LASF101
 1010 063e 0B       		.byte	0xb
 1011 063f 62       		.byte	0x62
 1012 0640 00060000 		.4byte	0x600
 1013 0644 16       		.uleb128 0x16
ARM GAS  /tmp/ccCksuHK.s 			page 19


 1014 0645 0804     		.2byte	0x408
 1015 0647 0B       		.byte	0xb
 1016 0648 67       		.byte	0x67
 1017 0649 72060000 		.4byte	0x672
 1018 064d 07       		.uleb128 0x7
 1019 064e 98020000 		.4byte	.LASF102
 1020 0652 0B       		.byte	0xb
 1021 0653 6B       		.byte	0x6b
 1022 0654 37000000 		.4byte	0x37
 1023 0658 00       		.byte	0
 1024 0659 07       		.uleb128 0x7
 1025 065a 00000000 		.4byte	.LASF103
 1026 065e 0B       		.byte	0xb
 1027 065f 6F       		.byte	0x6f
 1028 0660 72060000 		.4byte	0x672
 1029 0664 04       		.byte	0x4
 1030 0665 07       		.uleb128 0x7
 1031 0666 F2050000 		.4byte	.LASF104
 1032 066a 0B       		.byte	0xb
 1033 066b 73       		.byte	0x73
 1034 066c 78060000 		.4byte	0x678
 1035 0670 08       		.byte	0x8
 1036 0671 00       		.byte	0
 1037 0672 0A       		.uleb128 0xa
 1038 0673 04       		.byte	0x4
 1039 0674 39060000 		.4byte	0x639
 1040 0678 17       		.uleb128 0x17
 1041 0679 39060000 		.4byte	0x639
 1042 067d 88060000 		.4byte	0x688
 1043 0681 18       		.uleb128 0x18
 1044 0682 DA040000 		.4byte	0x4da
 1045 0686 3F       		.byte	0x3f
 1046 0687 00       		.byte	0
 1047 0688 03       		.uleb128 0x3
 1048 0689 BA000000 		.4byte	.LASF105
 1049 068d 0B       		.byte	0xb
 1050 068e 74       		.byte	0x74
 1051 068f 44060000 		.4byte	0x644
 1052 0693 15       		.uleb128 0x15
 1053 0694 04       		.byte	0x4
 1054 0695 0C       		.byte	0xc
 1055 0696 38       		.byte	0x38
 1056 0697 A8060000 		.4byte	0x6a8
 1057 069b 07       		.uleb128 0x7
 1058 069c BC070000 		.4byte	.LASF106
 1059 06a0 0C       		.byte	0xc
 1060 06a1 3C       		.byte	0x3c
 1061 06a2 EE000000 		.4byte	0xee
 1062 06a6 00       		.byte	0
 1063 06a7 00       		.byte	0
 1064 06a8 03       		.uleb128 0x3
 1065 06a9 83050000 		.4byte	.LASF107
 1066 06ad 0C       		.byte	0xc
 1067 06ae 3D       		.byte	0x3d
 1068 06af 93060000 		.4byte	0x693
 1069 06b3 15       		.uleb128 0x15
 1070 06b4 18       		.byte	0x18
ARM GAS  /tmp/ccCksuHK.s 			page 20


 1071 06b5 0C       		.byte	0xc
 1072 06b6 48       		.byte	0x48
 1073 06b7 F6060000 		.4byte	0x6f6
 1074 06bb 07       		.uleb128 0x7
 1075 06bc BB050000 		.4byte	.LASF108
 1076 06c0 0C       		.byte	0xc
 1077 06c1 49       		.byte	0x49
 1078 06c2 EE000000 		.4byte	0xee
 1079 06c6 00       		.byte	0
 1080 06c7 07       		.uleb128 0x7
 1081 06c8 84000000 		.4byte	.LASF109
 1082 06cc 0C       		.byte	0xc
 1083 06cd 4A       		.byte	0x4a
 1084 06ce EE000000 		.4byte	0xee
 1085 06d2 04       		.byte	0x4
 1086 06d3 07       		.uleb128 0x7
 1087 06d4 AD070000 		.4byte	.LASF110
 1088 06d8 0C       		.byte	0xc
 1089 06d9 4B       		.byte	0x4b
 1090 06da EE000000 		.4byte	0xee
 1091 06de 08       		.byte	0x8
 1092 06df 14       		.uleb128 0x14
 1093 06e0 6E00     		.ascii	"n\000"
 1094 06e2 0C       		.byte	0xc
 1095 06e3 4C       		.byte	0x4c
 1096 06e4 5C010000 		.4byte	0x15c
 1097 06e8 0C       		.byte	0xc
 1098 06e9 07       		.uleb128 0x7
 1099 06ea DA050000 		.4byte	.LASF111
 1100 06ee 0C       		.byte	0xc
 1101 06ef 4D       		.byte	0x4d
 1102 06f0 F9000000 		.4byte	0xf9
 1103 06f4 10       		.byte	0x10
 1104 06f5 00       		.byte	0
 1105 06f6 03       		.uleb128 0x3
 1106 06f7 8A000000 		.4byte	.LASF112
 1107 06fb 0C       		.byte	0xc
 1108 06fc 4E       		.byte	0x4e
 1109 06fd B3060000 		.4byte	0x6b3
 1110 0701 15       		.uleb128 0x15
 1111 0702 38       		.byte	0x38
 1112 0703 0D       		.byte	0xd
 1113 0704 38       		.byte	0x38
 1114 0705 3A070000 		.4byte	0x73a
 1115 0709 07       		.uleb128 0x7
 1116 070a B0030000 		.4byte	.LASF113
 1117 070e 0D       		.byte	0xd
 1118 070f 39       		.byte	0x39
 1119 0710 5C010000 		.4byte	0x15c
 1120 0714 00       		.byte	0
 1121 0715 07       		.uleb128 0x7
 1122 0716 2A060000 		.4byte	.LASF114
 1123 071a 0D       		.byte	0xd
 1124 071b 3A       		.byte	0x3a
 1125 071c 5C010000 		.4byte	0x15c
 1126 0720 04       		.byte	0x4
 1127 0721 07       		.uleb128 0x7
ARM GAS  /tmp/ccCksuHK.s 			page 21


 1128 0722 D8080000 		.4byte	.LASF115
 1129 0726 0D       		.byte	0xd
 1130 0727 3B       		.byte	0x3b
 1131 0728 F6060000 		.4byte	0x6f6
 1132 072c 08       		.byte	0x8
 1133 072d 07       		.uleb128 0x7
 1134 072e 5D040000 		.4byte	.LASF116
 1135 0732 0D       		.byte	0xd
 1136 0733 3D       		.byte	0x3d
 1137 0734 F6060000 		.4byte	0x6f6
 1138 0738 20       		.byte	0x20
 1139 0739 00       		.byte	0
 1140 073a 03       		.uleb128 0x3
 1141 073b DB030000 		.4byte	.LASF117
 1142 073f 0D       		.byte	0xd
 1143 0740 3F       		.byte	0x3f
 1144 0741 01070000 		.4byte	0x701
 1145 0745 19       		.uleb128 0x19
 1146 0746 04       		.byte	0x4
 1147 0747 07       		.byte	0x7
 1148 0748 FA       		.byte	0xfa
 1149 0749 A2070000 		.4byte	0x7a2
 1150 074d 1A       		.uleb128 0x1a
 1151 074e C7060000 		.4byte	.LASF118
 1152 0752 07       		.byte	0x7
 1153 0753 0101     		.2byte	0x101
 1154 0755 30010000 		.4byte	0x130
 1155 0759 1A       		.uleb128 0x1a
 1156 075a DB000000 		.4byte	.LASF119
 1157 075e 07       		.byte	0x7
 1158 075f 0801     		.2byte	0x108
 1159 0761 30010000 		.4byte	0x130
 1160 0765 1A       		.uleb128 0x1a
 1161 0766 A0080000 		.4byte	.LASF120
 1162 076a 07       		.byte	0x7
 1163 076b 0F01     		.2byte	0x10f
 1164 076d 6B030000 		.4byte	0x36b
 1165 0771 1A       		.uleb128 0x1a
 1166 0772 94060000 		.4byte	.LASF121
 1167 0776 07       		.byte	0x7
 1168 0777 1601     		.2byte	0x116
 1169 0779 A2070000 		.4byte	0x7a2
 1170 077d 1A       		.uleb128 0x1a
 1171 077e 5E030000 		.4byte	.LASF122
 1172 0782 07       		.byte	0x7
 1173 0783 1E01     		.2byte	0x11e
 1174 0785 CD070000 		.4byte	0x7cd
 1175 0789 1A       		.uleb128 0x1a
 1176 078a 0F070000 		.4byte	.LASF123
 1177 078e 07       		.byte	0x7
 1178 078f 2701     		.2byte	0x127
 1179 0791 04080000 		.4byte	0x804
 1180 0795 1A       		.uleb128 0x1a
 1181 0796 A1060000 		.4byte	.LASF124
 1182 079a 07       		.byte	0x7
 1183 079b 2F01     		.2byte	0x12f
 1184 079d 3B010000 		.4byte	0x13b
ARM GAS  /tmp/ccCksuHK.s 			page 22


 1185 07a1 00       		.byte	0
 1186 07a2 0A       		.uleb128 0xa
 1187 07a3 04       		.byte	0x4
 1188 07a4 83020000 		.4byte	0x283
 1189 07a8 06       		.uleb128 0x6
 1190 07a9 E3060000 		.4byte	.LASF125
 1191 07ad 0C       		.byte	0xc
 1192 07ae 0E       		.byte	0xe
 1193 07af 34       		.byte	0x34
 1194 07b0 CD070000 		.4byte	0x7cd
 1195 07b4 07       		.uleb128 0x7
 1196 07b5 90020000 		.4byte	.LASF126
 1197 07b9 0E       		.byte	0xe
 1198 07ba 35       		.byte	0x35
 1199 07bb B8020000 		.4byte	0x2b8
 1200 07bf 00       		.byte	0
 1201 07c0 07       		.uleb128 0x7
 1202 07c1 B6030000 		.4byte	.LASF127
 1203 07c5 0E       		.byte	0xe
 1204 07c6 37       		.byte	0x37
 1205 07c7 51010000 		.4byte	0x151
 1206 07cb 08       		.byte	0x8
 1207 07cc 00       		.byte	0
 1208 07cd 0A       		.uleb128 0xa
 1209 07ce 04       		.byte	0x4
 1210 07cf A8070000 		.4byte	0x7a8
 1211 07d3 06       		.uleb128 0x6
 1212 07d4 C3070000 		.4byte	.LASF128
 1213 07d8 10       		.byte	0x10
 1214 07d9 0F       		.byte	0xf
 1215 07da 39       		.byte	0x39
 1216 07db 04080000 		.4byte	0x804
 1217 07df 07       		.uleb128 0x7
 1218 07e0 69010000 		.4byte	.LASF129
 1219 07e4 0F       		.byte	0xf
 1220 07e5 3A       		.byte	0x3a
 1221 07e6 B8020000 		.4byte	0x2b8
 1222 07ea 00       		.byte	0
 1223 07eb 07       		.uleb128 0x7
 1224 07ec E3080000 		.4byte	.LASF130
 1225 07f0 0F       		.byte	0xf
 1226 07f1 3C       		.byte	0x3c
 1227 07f2 8E020000 		.4byte	0x28e
 1228 07f6 08       		.byte	0x8
 1229 07f7 07       		.uleb128 0x7
 1230 07f8 7D070000 		.4byte	.LASF131
 1231 07fc 0F       		.byte	0xf
 1232 07fd 3E       		.byte	0x3e
 1233 07fe 53080000 		.4byte	0x853
 1234 0802 0C       		.byte	0xc
 1235 0803 00       		.byte	0
 1236 0804 0A       		.uleb128 0xa
 1237 0805 04       		.byte	0x4
 1238 0806 D3070000 		.4byte	0x7d3
 1239 080a 0A       		.uleb128 0xa
 1240 080b 04       		.byte	0x4
 1241 080c 10080000 		.4byte	0x810
ARM GAS  /tmp/ccCksuHK.s 			page 23


 1242 0810 1B       		.uleb128 0x1b
 1243 0811 15080000 		.4byte	0x815
 1244 0815 04       		.uleb128 0x4
 1245 0816 01       		.byte	0x1
 1246 0817 08       		.byte	0x8
 1247 0818 5B070000 		.4byte	.LASF132
 1248 081c 0A       		.uleb128 0xa
 1249 081d 04       		.byte	0x4
 1250 081e 5B050000 		.4byte	0x55b
 1251 0822 0A       		.uleb128 0xa
 1252 0823 04       		.byte	0x4
 1253 0824 6D030000 		.4byte	0x36d
 1254 0828 05       		.uleb128 0x5
 1255 0829 0A080000 		.4byte	0x80a
 1256 082d 17       		.uleb128 0x17
 1257 082e 5B050000 		.4byte	0x55b
 1258 0832 3D080000 		.4byte	0x83d
 1259 0836 18       		.uleb128 0x18
 1260 0837 DA040000 		.4byte	0x4da
 1261 083b 1E       		.byte	0x1e
 1262 083c 00       		.byte	0
 1263 083d 03       		.uleb128 0x3
 1264 083e 70080000 		.4byte	.LASF133
 1265 0842 0E       		.byte	0xe
 1266 0843 38       		.byte	0x38
 1267 0844 A8070000 		.4byte	0x7a8
 1268 0848 03       		.uleb128 0x3
 1269 0849 EA020000 		.4byte	.LASF134
 1270 084d 0F       		.byte	0xf
 1271 084e 34       		.byte	0x34
 1272 084f D3070000 		.4byte	0x7d3
 1273 0853 0A       		.uleb128 0xa
 1274 0854 04       		.byte	0x4
 1275 0855 48080000 		.4byte	0x848
 1276 0859 03       		.uleb128 0x3
 1277 085a CC070000 		.4byte	.LASF135
 1278 085e 10       		.byte	0x10
 1279 085f 34       		.byte	0x34
 1280 0860 64080000 		.4byte	0x864
 1281 0864 06       		.uleb128 0x6
 1282 0865 03090000 		.4byte	.LASF136
 1283 0869 14       		.byte	0x14
 1284 086a 10       		.byte	0x10
 1285 086b 39       		.byte	0x39
 1286 086c AD080000 		.4byte	0x8ad
 1287 0870 07       		.uleb128 0x7
 1288 0871 1E040000 		.4byte	.LASF137
 1289 0875 10       		.byte	0x10
 1290 0876 3A       		.byte	0x3a
 1291 0877 AD080000 		.4byte	0x8ad
 1292 087b 00       		.byte	0
 1293 087c 07       		.uleb128 0x7
 1294 087d 56060000 		.4byte	.LASF138
 1295 0881 10       		.byte	0x10
 1296 0882 3D       		.byte	0x3d
 1297 0883 8E020000 		.4byte	0x28e
 1298 0887 04       		.byte	0x4
ARM GAS  /tmp/ccCksuHK.s 			page 24


 1299 0888 07       		.uleb128 0x7
 1300 0889 C0050000 		.4byte	.LASF139
 1301 088d 10       		.byte	0x10
 1302 088e 3F       		.byte	0x3f
 1303 088f 3B010000 		.4byte	0x13b
 1304 0893 08       		.byte	0x8
 1305 0894 07       		.uleb128 0x7
 1306 0895 6F060000 		.4byte	.LASF140
 1307 0899 10       		.byte	0x10
 1308 089a 41       		.byte	0x41
 1309 089b 46010000 		.4byte	0x146
 1310 089f 0C       		.byte	0xc
 1311 08a0 07       		.uleb128 0x7
 1312 08a1 00040000 		.4byte	.LASF141
 1313 08a5 10       		.byte	0x10
 1314 08a6 43       		.byte	0x43
 1315 08a7 46010000 		.4byte	0x146
 1316 08ab 10       		.byte	0x10
 1317 08ac 00       		.byte	0
 1318 08ad 0A       		.uleb128 0xa
 1319 08ae 04       		.byte	0x4
 1320 08af 59080000 		.4byte	0x859
 1321 08b3 06       		.uleb128 0x6
 1322 08b4 8B080000 		.4byte	.LASF142
 1323 08b8 04       		.byte	0x4
 1324 08b9 10       		.byte	0x10
 1325 08ba 4A       		.byte	0x4a
 1326 08bb CC080000 		.4byte	0x8cc
 1327 08bf 07       		.uleb128 0x7
 1328 08c0 60080000 		.4byte	.LASF143
 1329 08c4 10       		.byte	0x10
 1330 08c5 4B       		.byte	0x4b
 1331 08c6 AD080000 		.4byte	0x8ad
 1332 08ca 00       		.byte	0
 1333 08cb 00       		.byte	0
 1334 08cc 03       		.uleb128 0x3
 1335 08cd 06030000 		.4byte	.LASF144
 1336 08d1 10       		.byte	0x10
 1337 08d2 4E       		.byte	0x4e
 1338 08d3 B3080000 		.4byte	0x8b3
 1339 08d7 15       		.uleb128 0x15
 1340 08d8 28       		.byte	0x28
 1341 08d9 11       		.byte	0x11
 1342 08da 38       		.byte	0x38
 1343 08db 28090000 		.4byte	0x928
 1344 08df 07       		.uleb128 0x7
 1345 08e0 9F050000 		.4byte	.LASF145
 1346 08e4 11       		.byte	0x11
 1347 08e5 39       		.byte	0x39
 1348 08e6 28090000 		.4byte	0x928
 1349 08ea 00       		.byte	0
 1350 08eb 07       		.uleb128 0x7
 1351 08ec 4F060000 		.4byte	.LASF146
 1352 08f0 11       		.byte	0x11
 1353 08f1 3B       		.byte	0x3b
 1354 08f2 28090000 		.4byte	0x928
 1355 08f6 04       		.byte	0x4
ARM GAS  /tmp/ccCksuHK.s 			page 25


 1356 08f7 07       		.uleb128 0x7
 1357 08f8 02010000 		.4byte	.LASF147
 1358 08fc 11       		.byte	0x11
 1359 08fd 3D       		.byte	0x3d
 1360 08fe 28090000 		.4byte	0x928
 1361 0902 08       		.byte	0x8
 1362 0903 07       		.uleb128 0x7
 1363 0904 2B050000 		.4byte	.LASF148
 1364 0908 11       		.byte	0x11
 1365 0909 3E       		.byte	0x3e
 1366 090a 28090000 		.4byte	0x928
 1367 090e 0C       		.byte	0xc
 1368 090f 07       		.uleb128 0x7
 1369 0910 43080000 		.4byte	.LASF149
 1370 0914 11       		.byte	0x11
 1371 0915 3F       		.byte	0x3f
 1372 0916 3D080000 		.4byte	0x83d
 1373 091a 10       		.byte	0x10
 1374 091b 07       		.uleb128 0x7
 1375 091c F4030000 		.4byte	.LASF150
 1376 0920 11       		.byte	0x11
 1377 0921 41       		.byte	0x41
 1378 0922 3D080000 		.4byte	0x83d
 1379 0926 1C       		.byte	0x1c
 1380 0927 00       		.byte	0
 1381 0928 0A       		.uleb128 0xa
 1382 0929 04       		.byte	0x4
 1383 092a 30010000 		.4byte	0x130
 1384 092e 03       		.uleb128 0x3
 1385 092f 6A050000 		.4byte	.LASF151
 1386 0933 11       		.byte	0x11
 1387 0934 43       		.byte	0x43
 1388 0935 D7080000 		.4byte	0x8d7
 1389 0939 03       		.uleb128 0x3
 1390 093a 06080000 		.4byte	.LASF152
 1391 093e 12       		.byte	0x12
 1392 093f 36       		.byte	0x36
 1393 0940 44090000 		.4byte	0x944
 1394 0944 0A       		.uleb128 0xa
 1395 0945 04       		.byte	0x4
 1396 0946 4A090000 		.4byte	0x94a
 1397 094a 1C       		.uleb128 0x1c
 1398 094b 6B030000 		.4byte	0x36b
 1399 094f 59090000 		.4byte	0x959
 1400 0953 0D       		.uleb128 0xd
 1401 0954 2C000000 		.4byte	0x2c
 1402 0958 00       		.byte	0
 1403 0959 06       		.uleb128 0x6
 1404 095a 54080000 		.4byte	.LASF153
 1405 095e 04       		.byte	0x4
 1406 095f 13       		.byte	0x13
 1407 0960 38       		.byte	0x38
 1408 0961 72090000 		.4byte	0x972
 1409 0965 07       		.uleb128 0x7
 1410 0966 A7080000 		.4byte	.LASF154
 1411 096a 13       		.byte	0x13
 1412 096b 39       		.byte	0x39
ARM GAS  /tmp/ccCksuHK.s 			page 26


 1413 096c 72090000 		.4byte	0x972
 1414 0970 00       		.byte	0
 1415 0971 00       		.byte	0
 1416 0972 0A       		.uleb128 0xa
 1417 0973 04       		.byte	0x4
 1418 0974 59090000 		.4byte	0x959
 1419 0978 15       		.uleb128 0x15
 1420 0979 0C       		.byte	0xc
 1421 097a 13       		.byte	0x13
 1422 097b 40       		.byte	0x40
 1423 097c A5090000 		.4byte	0x9a5
 1424 0980 07       		.uleb128 0x7
 1425 0981 DD070000 		.4byte	.LASF155
 1426 0985 13       		.byte	0x13
 1427 0986 41       		.byte	0x41
 1428 0987 72090000 		.4byte	0x972
 1429 098b 00       		.byte	0
 1430 098c 07       		.uleb128 0x7
 1431 098d 74050000 		.4byte	.LASF156
 1432 0991 13       		.byte	0x13
 1433 0992 42       		.byte	0x42
 1434 0993 2C000000 		.4byte	0x2c
 1435 0997 04       		.byte	0x4
 1436 0998 07       		.uleb128 0x7
 1437 0999 B0020000 		.4byte	.LASF157
 1438 099d 13       		.byte	0x13
 1439 099e 44       		.byte	0x44
 1440 099f 39090000 		.4byte	0x939
 1441 09a3 08       		.byte	0x8
 1442 09a4 00       		.byte	0
 1443 09a5 03       		.uleb128 0x3
 1444 09a6 7A020000 		.4byte	.LASF158
 1445 09aa 13       		.byte	0x13
 1446 09ab 46       		.byte	0x46
 1447 09ac 78090000 		.4byte	0x978
 1448 09b0 03       		.uleb128 0x3
 1449 09b1 0B010000 		.4byte	.LASF159
 1450 09b5 14       		.byte	0x14
 1451 09b6 3F       		.byte	0x3f
 1452 09b7 BB090000 		.4byte	0x9bb
 1453 09bb 06       		.uleb128 0x6
 1454 09bc E9040000 		.4byte	.LASF160
 1455 09c0 24       		.byte	0x24
 1456 09c1 14       		.byte	0x14
 1457 09c2 4D       		.byte	0x4d
 1458 09c3 280A0000 		.4byte	0xa28
 1459 09c7 07       		.uleb128 0x7
 1460 09c8 2C010000 		.4byte	.LASF161
 1461 09cc 14       		.byte	0x14
 1462 09cd 4E       		.byte	0x4e
 1463 09ce B8020000 		.4byte	0x2b8
 1464 09d2 00       		.byte	0
 1465 09d3 07       		.uleb128 0x7
 1466 09d4 05070000 		.4byte	.LASF162
 1467 09d8 14       		.byte	0x14
 1468 09d9 4F       		.byte	0x4f
 1469 09da 4A0A0000 		.4byte	0xa4a
ARM GAS  /tmp/ccCksuHK.s 			page 27


 1470 09de 08       		.byte	0x8
 1471 09df 07       		.uleb128 0x7
 1472 09e0 B2010000 		.4byte	.LASF163
 1473 09e4 14       		.byte	0x14
 1474 09e5 50       		.byte	0x50
 1475 09e6 4F0A0000 		.4byte	0xa4f
 1476 09ea 0C       		.byte	0xc
 1477 09eb 07       		.uleb128 0x7
 1478 09ec 4E080000 		.4byte	.LASF164
 1479 09f0 14       		.byte	0x14
 1480 09f1 51       		.byte	0x51
 1481 09f2 4F0A0000 		.4byte	0xa4f
 1482 09f6 10       		.byte	0x10
 1483 09f7 07       		.uleb128 0x7
 1484 09f8 BB010000 		.4byte	.LASF165
 1485 09fc 14       		.byte	0x14
 1486 09fd 53       		.byte	0x53
 1487 09fe 4F0A0000 		.4byte	0xa4f
 1488 0a02 14       		.byte	0x14
 1489 0a03 07       		.uleb128 0x7
 1490 0a04 1B060000 		.4byte	.LASF166
 1491 0a08 14       		.byte	0x14
 1492 0a09 54       		.byte	0x54
 1493 0a0a 4F0A0000 		.4byte	0xa4f
 1494 0a0e 18       		.byte	0x18
 1495 0a0f 07       		.uleb128 0x7
 1496 0a10 7C080000 		.4byte	.LASF167
 1497 0a14 14       		.byte	0x14
 1498 0a15 55       		.byte	0x55
 1499 0a16 280A0000 		.4byte	0xa28
 1500 0a1a 1C       		.byte	0x1c
 1501 0a1b 07       		.uleb128 0x7
 1502 0a1c D1080000 		.4byte	.LASF168
 1503 0a20 14       		.byte	0x14
 1504 0a21 56       		.byte	0x56
 1505 0a22 6B030000 		.4byte	0x36b
 1506 0a26 20       		.byte	0x20
 1507 0a27 00       		.byte	0
 1508 0a28 03       		.uleb128 0x3
 1509 0a29 8C040000 		.4byte	.LASF169
 1510 0a2d 14       		.byte	0x14
 1511 0a2e 42       		.byte	0x42
 1512 0a2f 330A0000 		.4byte	0xa33
 1513 0a33 0A       		.uleb128 0xa
 1514 0a34 04       		.byte	0x4
 1515 0a35 390A0000 		.4byte	0xa39
 1516 0a39 0C       		.uleb128 0xc
 1517 0a3a 440A0000 		.4byte	0xa44
 1518 0a3e 0D       		.uleb128 0xd
 1519 0a3f 440A0000 		.4byte	0xa44
 1520 0a43 00       		.byte	0
 1521 0a44 0A       		.uleb128 0xa
 1522 0a45 04       		.byte	0x4
 1523 0a46 B0090000 		.4byte	0x9b0
 1524 0a4a 05       		.uleb128 0x5
 1525 0a4b 2C000000 		.4byte	0x2c
 1526 0a4f 0A       		.uleb128 0xa
ARM GAS  /tmp/ccCksuHK.s 			page 28


 1527 0a50 04       		.byte	0x4
 1528 0a51 AD000000 		.4byte	0xad
 1529 0a55 03       		.uleb128 0x3
 1530 0a56 BD040000 		.4byte	.LASF170
 1531 0a5a 14       		.byte	0x14
 1532 0a5b 64       		.byte	0x64
 1533 0a5c B0090000 		.4byte	0x9b0
 1534 0a60 03       		.uleb128 0x3
 1535 0a61 D0040000 		.4byte	.LASF171
 1536 0a65 14       		.byte	0x14
 1537 0a66 71       		.byte	0x71
 1538 0a67 B0090000 		.4byte	0x9b0
 1539 0a6b 1C       		.uleb128 0x1c
 1540 0a6c 2C000000 		.4byte	0x2c
 1541 0a70 840A0000 		.4byte	0xa84
 1542 0a74 0D       		.uleb128 0xd
 1543 0a75 6B030000 		.4byte	0x36b
 1544 0a79 0D       		.uleb128 0xd
 1545 0a7a 840A0000 		.4byte	0xa84
 1546 0a7e 0D       		.uleb128 0xd
 1547 0a7f 2C000000 		.4byte	0x2c
 1548 0a83 00       		.byte	0
 1549 0a84 0A       		.uleb128 0xa
 1550 0a85 04       		.byte	0x4
 1551 0a86 8A0A0000 		.4byte	0xa8a
 1552 0a8a 1B       		.uleb128 0x1b
 1553 0a8b AD000000 		.4byte	0xad
 1554 0a8f 0A       		.uleb128 0xa
 1555 0a90 04       		.byte	0x4
 1556 0a91 6B0A0000 		.4byte	0xa6b
 1557 0a95 1C       		.uleb128 0x1c
 1558 0a96 2C000000 		.4byte	0x2c
 1559 0a9a AE0A0000 		.4byte	0xaae
 1560 0a9e 0D       		.uleb128 0xd
 1561 0a9f 6B030000 		.4byte	0x36b
 1562 0aa3 0D       		.uleb128 0xd
 1563 0aa4 4F0A0000 		.4byte	0xa4f
 1564 0aa8 0D       		.uleb128 0xd
 1565 0aa9 2C000000 		.4byte	0x2c
 1566 0aad 00       		.byte	0
 1567 0aae 0A       		.uleb128 0xa
 1568 0aaf 04       		.byte	0x4
 1569 0ab0 950A0000 		.4byte	0xa95
 1570 0ab4 1C       		.uleb128 0x1c
 1571 0ab5 30010000 		.4byte	0x130
 1572 0ab9 C80A0000 		.4byte	0xac8
 1573 0abd 0D       		.uleb128 0xd
 1574 0abe 6B030000 		.4byte	0x36b
 1575 0ac2 0D       		.uleb128 0xd
 1576 0ac3 AD000000 		.4byte	0xad
 1577 0ac7 00       		.byte	0
 1578 0ac8 0A       		.uleb128 0xa
 1579 0ac9 04       		.byte	0x4
 1580 0aca B40A0000 		.4byte	0xab4
 1581 0ace 1C       		.uleb128 0x1c
 1582 0acf 30010000 		.4byte	0x130
 1583 0ad3 DD0A0000 		.4byte	0xadd
ARM GAS  /tmp/ccCksuHK.s 			page 29


 1584 0ad7 0D       		.uleb128 0xd
 1585 0ad8 6B030000 		.4byte	0x36b
 1586 0adc 00       		.byte	0
 1587 0add 0A       		.uleb128 0xa
 1588 0ade 04       		.byte	0x4
 1589 0adf CE0A0000 		.4byte	0xace
 1590 0ae3 1C       		.uleb128 0x1c
 1591 0ae4 30010000 		.4byte	0x130
 1592 0ae8 FC0A0000 		.4byte	0xafc
 1593 0aec 0D       		.uleb128 0xd
 1594 0aed 6B030000 		.4byte	0x36b
 1595 0af1 0D       		.uleb128 0xd
 1596 0af2 AD000000 		.4byte	0xad
 1597 0af6 0D       		.uleb128 0xd
 1598 0af7 67010000 		.4byte	0x167
 1599 0afb 00       		.byte	0
 1600 0afc 0A       		.uleb128 0xa
 1601 0afd 04       		.byte	0x4
 1602 0afe E30A0000 		.4byte	0xae3
 1603 0b02 1C       		.uleb128 0x1c
 1604 0b03 30010000 		.4byte	0x130
 1605 0b07 160B0000 		.4byte	0xb16
 1606 0b0b 0D       		.uleb128 0xd
 1607 0b0c 6B030000 		.4byte	0x36b
 1608 0b10 0D       		.uleb128 0xd
 1609 0b11 67010000 		.4byte	0x167
 1610 0b15 00       		.byte	0
 1611 0b16 0A       		.uleb128 0xa
 1612 0b17 04       		.byte	0x4
 1613 0b18 020B0000 		.4byte	0xb02
 1614 0b1c 1C       		.uleb128 0x1c
 1615 0b1d 2C000000 		.4byte	0x2c
 1616 0b21 3A0B0000 		.4byte	0xb3a
 1617 0b25 0D       		.uleb128 0xd
 1618 0b26 6B030000 		.4byte	0x36b
 1619 0b2a 0D       		.uleb128 0xd
 1620 0b2b 840A0000 		.4byte	0xa84
 1621 0b2f 0D       		.uleb128 0xd
 1622 0b30 2C000000 		.4byte	0x2c
 1623 0b34 0D       		.uleb128 0xd
 1624 0b35 67010000 		.4byte	0x167
 1625 0b39 00       		.byte	0
 1626 0b3a 0A       		.uleb128 0xa
 1627 0b3b 04       		.byte	0x4
 1628 0b3c 1C0B0000 		.4byte	0xb1c
 1629 0b40 1C       		.uleb128 0x1c
 1630 0b41 2C000000 		.4byte	0x2c
 1631 0b45 5E0B0000 		.4byte	0xb5e
 1632 0b49 0D       		.uleb128 0xd
 1633 0b4a 6B030000 		.4byte	0x36b
 1634 0b4e 0D       		.uleb128 0xd
 1635 0b4f 4F0A0000 		.4byte	0xa4f
 1636 0b53 0D       		.uleb128 0xd
 1637 0b54 2C000000 		.4byte	0x2c
 1638 0b58 0D       		.uleb128 0xd
 1639 0b59 67010000 		.4byte	0x167
 1640 0b5d 00       		.byte	0
ARM GAS  /tmp/ccCksuHK.s 			page 30


 1641 0b5e 0A       		.uleb128 0xa
 1642 0b5f 04       		.byte	0x4
 1643 0b60 400B0000 		.4byte	0xb40
 1644 0b64 04       		.uleb128 0x4
 1645 0b65 01       		.byte	0x1
 1646 0b66 02       		.byte	0x2
 1647 0b67 33060000 		.4byte	.LASF172
 1648 0b6b 15       		.uleb128 0x15
 1649 0b6c 04       		.byte	0x4
 1650 0b6d 15       		.byte	0x15
 1651 0b6e B7       		.byte	0xb7
 1652 0b6f 8C0B0000 		.4byte	0xb8c
 1653 0b73 14       		.uleb128 0x14
 1654 0b74 73657400 		.ascii	"set\000"
 1655 0b78 15       		.byte	0x15
 1656 0b79 B8       		.byte	0xb8
 1657 0b7a B8000000 		.4byte	0xb8
 1658 0b7e 00       		.byte	0
 1659 0b7f 07       		.uleb128 0x7
 1660 0b80 25050000 		.4byte	.LASF173
 1661 0b84 15       		.byte	0x15
 1662 0b85 B9       		.byte	0xb9
 1663 0b86 B8000000 		.4byte	0xb8
 1664 0b8a 02       		.byte	0x2
 1665 0b8b 00       		.byte	0
 1666 0b8c 19       		.uleb128 0x19
 1667 0b8d 04       		.byte	0x4
 1668 0b8e 15       		.byte	0x15
 1669 0b8f B5       		.byte	0xb5
 1670 0b90 A70B0000 		.4byte	0xba7
 1671 0b94 1D       		.uleb128 0x1d
 1672 0b95 5700     		.ascii	"W\000"
 1673 0b97 15       		.byte	0x15
 1674 0b98 B6       		.byte	0xb6
 1675 0b99 CE000000 		.4byte	0xce
 1676 0b9d 1D       		.uleb128 0x1d
 1677 0b9e 4800     		.ascii	"H\000"
 1678 0ba0 15       		.byte	0x15
 1679 0ba1 BA       		.byte	0xba
 1680 0ba2 6B0B0000 		.4byte	0xb6b
 1681 0ba6 00       		.byte	0
 1682 0ba7 15       		.uleb128 0x15
 1683 0ba8 2C       		.byte	0x2c
 1684 0ba9 15       		.byte	0x15
 1685 0baa AD       		.byte	0xad
 1686 0bab 340C0000 		.4byte	0xc34
 1687 0baf 07       		.uleb128 0x7
 1688 0bb0 9D000000 		.4byte	.LASF174
 1689 0bb4 15       		.byte	0x15
 1690 0bb5 AF       		.byte	0xaf
 1691 0bb6 E9000000 		.4byte	0xe9
 1692 0bba 00       		.byte	0
 1693 0bbb 07       		.uleb128 0x7
 1694 0bbc 51000000 		.4byte	.LASF175
 1695 0bc0 15       		.byte	0x15
 1696 0bc1 B0       		.byte	0xb0
 1697 0bc2 E9000000 		.4byte	0xe9
ARM GAS  /tmp/ccCksuHK.s 			page 31


 1698 0bc6 04       		.byte	0x4
 1699 0bc7 07       		.uleb128 0x7
 1700 0bc8 A0020000 		.4byte	.LASF176
 1701 0bcc 15       		.byte	0x15
 1702 0bcd B1       		.byte	0xb1
 1703 0bce E9000000 		.4byte	0xe9
 1704 0bd2 08       		.byte	0x8
 1705 0bd3 07       		.uleb128 0x7
 1706 0bd4 D5000000 		.4byte	.LASF177
 1707 0bd8 15       		.byte	0x15
 1708 0bd9 B2       		.byte	0xb2
 1709 0bda E9000000 		.4byte	0xe9
 1710 0bde 0C       		.byte	0xc
 1711 0bdf 14       		.uleb128 0x14
 1712 0be0 49445200 		.ascii	"IDR\000"
 1713 0be4 15       		.byte	0x15
 1714 0be5 B3       		.byte	0xb3
 1715 0be6 E9000000 		.4byte	0xe9
 1716 0bea 10       		.byte	0x10
 1717 0beb 14       		.uleb128 0x14
 1718 0bec 4F445200 		.ascii	"ODR\000"
 1719 0bf0 15       		.byte	0x15
 1720 0bf1 B4       		.byte	0xb4
 1721 0bf2 E9000000 		.4byte	0xe9
 1722 0bf6 14       		.byte	0x14
 1723 0bf7 07       		.uleb128 0x7
 1724 0bf8 50010000 		.4byte	.LASF178
 1725 0bfc 15       		.byte	0x15
 1726 0bfd BB       		.byte	0xbb
 1727 0bfe 340C0000 		.4byte	0xc34
 1728 0c02 18       		.byte	0x18
 1729 0c03 07       		.uleb128 0x7
 1730 0c04 DE060000 		.4byte	.LASF179
 1731 0c08 15       		.byte	0x15
 1732 0c09 BC       		.byte	0xbc
 1733 0c0a E9000000 		.4byte	0xe9
 1734 0c0e 1C       		.byte	0x1c
 1735 0c0f 07       		.uleb128 0x7
 1736 0c10 E5050000 		.4byte	.LASF180
 1737 0c14 15       		.byte	0x15
 1738 0c15 BD       		.byte	0xbd
 1739 0c16 E9000000 		.4byte	0xe9
 1740 0c1a 20       		.byte	0x20
 1741 0c1b 07       		.uleb128 0x7
 1742 0c1c D5050000 		.4byte	.LASF181
 1743 0c20 15       		.byte	0x15
 1744 0c21 BE       		.byte	0xbe
 1745 0c22 E9000000 		.4byte	0xe9
 1746 0c26 24       		.byte	0x24
 1747 0c27 14       		.uleb128 0x14
 1748 0c28 42525200 		.ascii	"BRR\000"
 1749 0c2c 15       		.byte	0x15
 1750 0c2d BF       		.byte	0xbf
 1751 0c2e E9000000 		.4byte	0xe9
 1752 0c32 28       		.byte	0x28
 1753 0c33 00       		.byte	0
 1754 0c34 05       		.uleb128 0x5
ARM GAS  /tmp/ccCksuHK.s 			page 32


 1755 0c35 8C0B0000 		.4byte	0xb8c
 1756 0c39 03       		.uleb128 0x3
 1757 0c3a DD020000 		.4byte	.LASF182
 1758 0c3e 15       		.byte	0x15
 1759 0c3f C0       		.byte	0xc0
 1760 0c40 A70B0000 		.4byte	0xba7
 1761 0c44 13       		.uleb128 0x13
 1762 0c45 43050000 		.4byte	.LASF183
 1763 0c49 15       		.byte	0x15
 1764 0c4a 1A01     		.2byte	0x11a
 1765 0c4c CE000000 		.4byte	0xce
 1766 0c50 1E       		.uleb128 0x1e
 1767 0c51 01       		.byte	0x1
 1768 0c52 16       		.byte	0x16
 1769 0c53 55       		.byte	0x55
 1770 0c54 6B0C0000 		.4byte	0xc6b
 1771 0c58 1F       		.uleb128 0x1f
 1772 0c59 FB060000 		.4byte	.LASF184
 1773 0c5d 00       		.sleb128 0
 1774 0c5e 1F       		.uleb128 0x1f
 1775 0c5f BF060000 		.4byte	.LASF185
 1776 0c63 01       		.sleb128 1
 1777 0c64 1F       		.uleb128 0x1f
 1778 0c65 13080000 		.4byte	.LASF186
 1779 0c69 02       		.sleb128 2
 1780 0c6a 00       		.byte	0
 1781 0c6b 03       		.uleb128 0x3
 1782 0c6c 39080000 		.4byte	.LASF187
 1783 0c70 16       		.byte	0x16
 1784 0c71 59       		.byte	0x59
 1785 0c72 500C0000 		.4byte	0xc50
 1786 0c76 03       		.uleb128 0x3
 1787 0c77 37070000 		.4byte	.LASF188
 1788 0c7b 16       		.byte	0x16
 1789 0c7c 5E       		.byte	0x5e
 1790 0c7d 810C0000 		.4byte	0xc81
 1791 0c81 06       		.uleb128 0x6
 1792 0c82 37070000 		.4byte	.LASF188
 1793 0c86 D8       		.byte	0xd8
 1794 0c87 16       		.byte	0x16
 1795 0c88 78       		.byte	0x78
 1796 0c89 EC0C0000 		.4byte	0xcec
 1797 0c8d 14       		.uleb128 0x14
 1798 0c8e 766D7400 		.ascii	"vmt\000"
 1799 0c92 16       		.byte	0x16
 1800 0c93 7A       		.byte	0x7a
 1801 0c94 590D0000 		.4byte	0xd59
 1802 0c98 00       		.byte	0
 1803 0c99 07       		.uleb128 0x7
 1804 0c9a C2030000 		.4byte	.LASF189
 1805 0c9e 16       		.byte	0x16
 1806 0c9f 7B       		.byte	0x7b
 1807 0ca0 CC080000 		.4byte	0x8cc
 1808 0ca4 04       		.byte	0x4
 1809 0ca5 07       		.uleb128 0x7
 1810 0ca6 78010000 		.4byte	.LASF190
 1811 0caa 16       		.byte	0x16
ARM GAS  /tmp/ccCksuHK.s 			page 33


 1812 0cab 7B       		.byte	0x7b
 1813 0cac 6B0C0000 		.4byte	0xc6b
 1814 0cb0 08       		.byte	0x8
 1815 0cb1 07       		.uleb128 0x7
 1816 0cb2 91030000 		.4byte	.LASF191
 1817 0cb6 16       		.byte	0x16
 1818 0cb7 7B       		.byte	0x7b
 1819 0cb8 550A0000 		.4byte	0xa55
 1820 0cbc 0C       		.byte	0xc
 1821 0cbd 07       		.uleb128 0x7
 1822 0cbe 10040000 		.4byte	.LASF192
 1823 0cc2 16       		.byte	0x16
 1824 0cc3 7B       		.byte	0x7b
 1825 0cc4 600A0000 		.4byte	0xa60
 1826 0cc8 30       		.byte	0x30
 1827 0cc9 14       		.uleb128 0x14
 1828 0cca 696200   		.ascii	"ib\000"
 1829 0ccd 16       		.byte	0x16
 1830 0cce 7B       		.byte	0x7b
 1831 0ccf 640D0000 		.4byte	0xd64
 1832 0cd3 54       		.byte	0x54
 1833 0cd4 14       		.uleb128 0x14
 1834 0cd5 6F6200   		.ascii	"ob\000"
 1835 0cd8 16       		.byte	0x16
 1836 0cd9 7B       		.byte	0x7b
 1837 0cda 640D0000 		.4byte	0xd64
 1838 0cde 94       		.byte	0x94
 1839 0cdf 07       		.uleb128 0x7
 1840 0ce0 2A030000 		.4byte	.LASF193
 1841 0ce4 16       		.byte	0x16
 1842 0ce5 7B       		.byte	0x7b
 1843 0ce6 740D0000 		.4byte	0xd74
 1844 0cea D4       		.byte	0xd4
 1845 0ceb 00       		.byte	0
 1846 0cec 06       		.uleb128 0x6
 1847 0ced 4E030000 		.4byte	.LASF194
 1848 0cf1 20       		.byte	0x20
 1849 0cf2 16       		.byte	0x16
 1850 0cf3 6D       		.byte	0x6d
 1851 0cf4 590D0000 		.4byte	0xd59
 1852 0cf8 07       		.uleb128 0x7
 1853 0cf9 B7040000 		.4byte	.LASF195
 1854 0cfd 16       		.byte	0x16
 1855 0cfe 6E       		.byte	0x6e
 1856 0cff 8F0A0000 		.4byte	0xa8f
 1857 0d03 00       		.byte	0
 1858 0d04 07       		.uleb128 0x7
 1859 0d05 56070000 		.4byte	.LASF196
 1860 0d09 16       		.byte	0x16
 1861 0d0a 6E       		.byte	0x6e
 1862 0d0b AE0A0000 		.4byte	0xaae
 1863 0d0f 04       		.byte	0x4
 1864 0d10 14       		.uleb128 0x14
 1865 0d11 70757400 		.ascii	"put\000"
 1866 0d15 16       		.byte	0x16
 1867 0d16 6E       		.byte	0x6e
 1868 0d17 C80A0000 		.4byte	0xac8
ARM GAS  /tmp/ccCksuHK.s 			page 34


 1869 0d1b 08       		.byte	0x8
 1870 0d1c 14       		.uleb128 0x14
 1871 0d1d 67657400 		.ascii	"get\000"
 1872 0d21 16       		.byte	0x16
 1873 0d22 6E       		.byte	0x6e
 1874 0d23 DD0A0000 		.4byte	0xadd
 1875 0d27 0C       		.byte	0xc
 1876 0d28 07       		.uleb128 0x7
 1877 0d29 CB040000 		.4byte	.LASF197
 1878 0d2d 16       		.byte	0x16
 1879 0d2e 6E       		.byte	0x6e
 1880 0d2f FC0A0000 		.4byte	0xafc
 1881 0d33 10       		.byte	0x10
 1882 0d34 07       		.uleb128 0x7
 1883 0d35 AB030000 		.4byte	.LASF198
 1884 0d39 16       		.byte	0x16
 1885 0d3a 6E       		.byte	0x6e
 1886 0d3b 160B0000 		.4byte	0xb16
 1887 0d3f 14       		.byte	0x14
 1888 0d40 07       		.uleb128 0x7
 1889 0d41 4E040000 		.4byte	.LASF199
 1890 0d45 16       		.byte	0x16
 1891 0d46 6E       		.byte	0x6e
 1892 0d47 3A0B0000 		.4byte	0xb3a
 1893 0d4b 18       		.byte	0x18
 1894 0d4c 07       		.uleb128 0x7
 1895 0d4d 26010000 		.4byte	.LASF200
 1896 0d51 16       		.byte	0x16
 1897 0d52 6E       		.byte	0x6e
 1898 0d53 5E0B0000 		.4byte	0xb5e
 1899 0d57 1C       		.byte	0x1c
 1900 0d58 00       		.byte	0
 1901 0d59 0A       		.uleb128 0xa
 1902 0d5a 04       		.byte	0x4
 1903 0d5b 5F0D0000 		.4byte	0xd5f
 1904 0d5f 1B       		.uleb128 0x1b
 1905 0d60 EC0C0000 		.4byte	0xcec
 1906 0d64 17       		.uleb128 0x17
 1907 0d65 AD000000 		.4byte	0xad
 1908 0d69 740D0000 		.4byte	0xd74
 1909 0d6d 18       		.uleb128 0x18
 1910 0d6e DA040000 		.4byte	0x4da
 1911 0d72 3F       		.byte	0x3f
 1912 0d73 00       		.byte	0
 1913 0d74 0A       		.uleb128 0xa
 1914 0d75 04       		.byte	0x4
 1915 0d76 44050000 		.4byte	0x544
 1916 0d7a 20       		.uleb128 0x20
 1917 0d7b 23000000 		.4byte	.LASF213
 1918 0d7f 01       		.byte	0x1
 1919 0d80 0A       		.byte	0xa
 1920 0d81 00000000 		.4byte	.LFB271
 1921 0d85 60000000 		.4byte	.LFE271-.LFB271
 1922 0d89 01       		.uleb128 0x1
 1923 0d8a 9C       		.byte	0x9c
 1924 0d8b 990D0000 		.4byte	0xd99
 1925 0d8f 21       		.uleb128 0x21
ARM GAS  /tmp/ccCksuHK.s 			page 35


 1926 0d90 6900     		.ascii	"i\000"
 1927 0d92 01       		.byte	0x1
 1928 0d93 0C       		.byte	0xc
 1929 0d94 25000000 		.4byte	0x25
 1930 0d98 00       		.byte	0
 1931 0d99 22       		.uleb128 0x22
 1932 0d9a 74070000 		.4byte	.LASF201
 1933 0d9e 01       		.byte	0x1
 1934 0d9f 20       		.byte	0x20
 1935 0da0 6B030000 		.4byte	0x36b
 1936 0da4 00000000 		.4byte	.LFB272
 1937 0da8 48000000 		.4byte	.LFE272-.LFB272
 1938 0dac 01       		.uleb128 0x1
 1939 0dad 9C       		.byte	0x9c
 1940 0dae CF0D0000 		.4byte	0xdcf
 1941 0db2 23       		.uleb128 0x23
 1942 0db3 61726700 		.ascii	"arg\000"
 1943 0db7 01       		.byte	0x1
 1944 0db8 20       		.byte	0x20
 1945 0db9 6B030000 		.4byte	0x36b
 1946 0dbd 02       		.uleb128 0x2
 1947 0dbe 91       		.byte	0x91
 1948 0dbf 6C       		.sleb128 -20
 1949 0dc0 24       		.uleb128 0x24
 1950 0dc1 73020000 		.4byte	.LASF203
 1951 0dc5 01       		.byte	0x1
 1952 0dc6 22       		.byte	0x22
 1953 0dc7 4F0A0000 		.4byte	0xa4f
 1954 0dcb 02       		.uleb128 0x2
 1955 0dcc 91       		.byte	0x91
 1956 0dcd 74       		.sleb128 -12
 1957 0dce 00       		.byte	0
 1958 0dcf 22       		.uleb128 0x22
 1959 0dd0 A3030000 		.4byte	.LASF202
 1960 0dd4 01       		.byte	0x1
 1961 0dd5 30       		.byte	0x30
 1962 0dd6 6B030000 		.4byte	0x36b
 1963 0dda 00000000 		.4byte	.LFB273
 1964 0dde 4C000000 		.4byte	.LFE273-.LFB273
 1965 0de2 01       		.uleb128 0x1
 1966 0de3 9C       		.byte	0x9c
 1967 0de4 050E0000 		.4byte	0xe05
 1968 0de8 23       		.uleb128 0x23
 1969 0de9 61726700 		.ascii	"arg\000"
 1970 0ded 01       		.byte	0x1
 1971 0dee 30       		.byte	0x30
 1972 0def 6B030000 		.4byte	0x36b
 1973 0df3 02       		.uleb128 0x2
 1974 0df4 91       		.byte	0x91
 1975 0df5 6C       		.sleb128 -20
 1976 0df6 24       		.uleb128 0x24
 1977 0df7 5A010000 		.4byte	.LASF204
 1978 0dfb 01       		.byte	0x1
 1979 0dfc 32       		.byte	0x32
 1980 0dfd 4F0A0000 		.4byte	0xa4f
 1981 0e01 02       		.uleb128 0x2
 1982 0e02 91       		.byte	0x91
ARM GAS  /tmp/ccCksuHK.s 			page 36


 1983 0e03 74       		.sleb128 -12
 1984 0e04 00       		.byte	0
 1985 0e05 25       		.uleb128 0x25
 1986 0e06 62060000 		.4byte	.LASF205
 1987 0e0a 18       		.byte	0x18
 1988 0e0b FA06     		.2byte	0x6fa
 1989 0e0d E4000000 		.4byte	0xe4
 1990 0e11 26       		.uleb128 0x26
 1991 0e12 636800   		.ascii	"ch\000"
 1992 0e15 07       		.byte	0x7
 1993 0e16 0902     		.2byte	0x209
 1994 0e18 62040000 		.4byte	0x462
 1995 0e1c 26       		.uleb128 0x26
 1996 0e1d 53443300 		.ascii	"SD3\000"
 1997 0e21 17       		.byte	0x17
 1998 0e22 4801     		.2byte	0x148
 1999 0e24 760C0000 		.4byte	0xc76
 2000 0e28 17       		.uleb128 0x17
 2001 0e29 4F0A0000 		.4byte	0xa4f
 2002 0e2d 380E0000 		.4byte	0xe38
 2003 0e31 18       		.uleb128 0x18
 2004 0e32 DA040000 		.4byte	0x4da
 2005 0e36 0F       		.byte	0xf
 2006 0e37 00       		.byte	0
 2007 0e38 27       		.uleb128 0x27
 2008 0e39 32040000 		.4byte	.LASF206
 2009 0e3d 01       		.byte	0x1
 2010 0e3e 03       		.byte	0x3
 2011 0e3f 280E0000 		.4byte	0xe28
 2012 0e43 05       		.uleb128 0x5
 2013 0e44 03       		.byte	0x3
 2014 0e45 00000000 		.4byte	txMailboxArea
 2015 0e49 27       		.uleb128 0x27
 2016 0e4a F2020000 		.4byte	.LASF207
 2017 0e4e 01       		.byte	0x1
 2018 0e4f 04       		.byte	0x4
 2019 0e50 2E090000 		.4byte	0x92e
 2020 0e54 05       		.uleb128 0x5
 2021 0e55 03       		.byte	0x3
 2022 0e56 00000000 		.4byte	serialMbox
 2023 0e5a 27       		.uleb128 0x27
 2024 0e5b BC030000 		.4byte	.LASF208
 2025 0e5f 01       		.byte	0x1
 2026 0e60 07       		.byte	0x7
 2027 0e61 A5090000 		.4byte	0x9a5
 2028 0e65 05       		.uleb128 0x5
 2029 0e66 03       		.byte	0x3
 2030 0e67 00000000 		.4byte	mpool
 2031 0e6b 27       		.uleb128 0x27
 2032 0e6c EF000000 		.4byte	.LASF209
 2033 0e70 01       		.byte	0x1
 2034 0e71 08       		.byte	0x8
 2035 0e72 640D0000 		.4byte	0xd64
 2036 0e76 05       		.uleb128 0x5
 2037 0e77 03       		.byte	0x3
 2038 0e78 00000000 		.4byte	protocol_01_buffer
 2039 0e7c 00       		.byte	0
ARM GAS  /tmp/ccCksuHK.s 			page 37


 2040              		.section	.debug_abbrev,"",%progbits
 2041              	.Ldebug_abbrev0:
 2042 0000 01       		.uleb128 0x1
 2043 0001 11       		.uleb128 0x11
 2044 0002 01       		.byte	0x1
 2045 0003 25       		.uleb128 0x25
 2046 0004 0E       		.uleb128 0xe
 2047 0005 13       		.uleb128 0x13
 2048 0006 0B       		.uleb128 0xb
 2049 0007 03       		.uleb128 0x3
 2050 0008 0E       		.uleb128 0xe
 2051 0009 1B       		.uleb128 0x1b
 2052 000a 0E       		.uleb128 0xe
 2053 000b 55       		.uleb128 0x55
 2054 000c 17       		.uleb128 0x17
 2055 000d 11       		.uleb128 0x11
 2056 000e 01       		.uleb128 0x1
 2057 000f 10       		.uleb128 0x10
 2058 0010 17       		.uleb128 0x17
 2059 0011 00       		.byte	0
 2060 0012 00       		.byte	0
 2061 0013 02       		.uleb128 0x2
 2062 0014 24       		.uleb128 0x24
 2063 0015 00       		.byte	0
 2064 0016 0B       		.uleb128 0xb
 2065 0017 0B       		.uleb128 0xb
 2066 0018 3E       		.uleb128 0x3e
 2067 0019 0B       		.uleb128 0xb
 2068 001a 03       		.uleb128 0x3
 2069 001b 08       		.uleb128 0x8
 2070 001c 00       		.byte	0
 2071 001d 00       		.byte	0
 2072 001e 03       		.uleb128 0x3
 2073 001f 16       		.uleb128 0x16
 2074 0020 00       		.byte	0
 2075 0021 03       		.uleb128 0x3
 2076 0022 0E       		.uleb128 0xe
 2077 0023 3A       		.uleb128 0x3a
 2078 0024 0B       		.uleb128 0xb
 2079 0025 3B       		.uleb128 0x3b
 2080 0026 0B       		.uleb128 0xb
 2081 0027 49       		.uleb128 0x49
 2082 0028 13       		.uleb128 0x13
 2083 0029 00       		.byte	0
 2084 002a 00       		.byte	0
 2085 002b 04       		.uleb128 0x4
 2086 002c 24       		.uleb128 0x24
 2087 002d 00       		.byte	0
 2088 002e 0B       		.uleb128 0xb
 2089 002f 0B       		.uleb128 0xb
 2090 0030 3E       		.uleb128 0x3e
 2091 0031 0B       		.uleb128 0xb
 2092 0032 03       		.uleb128 0x3
 2093 0033 0E       		.uleb128 0xe
 2094 0034 00       		.byte	0
 2095 0035 00       		.byte	0
 2096 0036 05       		.uleb128 0x5
ARM GAS  /tmp/ccCksuHK.s 			page 38


 2097 0037 35       		.uleb128 0x35
 2098 0038 00       		.byte	0
 2099 0039 49       		.uleb128 0x49
 2100 003a 13       		.uleb128 0x13
 2101 003b 00       		.byte	0
 2102 003c 00       		.byte	0
 2103 003d 06       		.uleb128 0x6
 2104 003e 13       		.uleb128 0x13
 2105 003f 01       		.byte	0x1
 2106 0040 03       		.uleb128 0x3
 2107 0041 0E       		.uleb128 0xe
 2108 0042 0B       		.uleb128 0xb
 2109 0043 0B       		.uleb128 0xb
 2110 0044 3A       		.uleb128 0x3a
 2111 0045 0B       		.uleb128 0xb
 2112 0046 3B       		.uleb128 0x3b
 2113 0047 0B       		.uleb128 0xb
 2114 0048 01       		.uleb128 0x1
 2115 0049 13       		.uleb128 0x13
 2116 004a 00       		.byte	0
 2117 004b 00       		.byte	0
 2118 004c 07       		.uleb128 0x7
 2119 004d 0D       		.uleb128 0xd
 2120 004e 00       		.byte	0
 2121 004f 03       		.uleb128 0x3
 2122 0050 0E       		.uleb128 0xe
 2123 0051 3A       		.uleb128 0x3a
 2124 0052 0B       		.uleb128 0xb
 2125 0053 3B       		.uleb128 0x3b
 2126 0054 0B       		.uleb128 0xb
 2127 0055 49       		.uleb128 0x49
 2128 0056 13       		.uleb128 0x13
 2129 0057 38       		.uleb128 0x38
 2130 0058 0B       		.uleb128 0xb
 2131 0059 00       		.byte	0
 2132 005a 00       		.byte	0
 2133 005b 08       		.uleb128 0x8
 2134 005c 0D       		.uleb128 0xd
 2135 005d 00       		.byte	0
 2136 005e 03       		.uleb128 0x3
 2137 005f 08       		.uleb128 0x8
 2138 0060 3A       		.uleb128 0x3a
 2139 0061 0B       		.uleb128 0xb
 2140 0062 3B       		.uleb128 0x3b
 2141 0063 05       		.uleb128 0x5
 2142 0064 49       		.uleb128 0x49
 2143 0065 13       		.uleb128 0x13
 2144 0066 38       		.uleb128 0x38
 2145 0067 0B       		.uleb128 0xb
 2146 0068 00       		.byte	0
 2147 0069 00       		.byte	0
 2148 006a 09       		.uleb128 0x9
 2149 006b 0D       		.uleb128 0xd
 2150 006c 00       		.byte	0
 2151 006d 03       		.uleb128 0x3
 2152 006e 0E       		.uleb128 0xe
 2153 006f 3A       		.uleb128 0x3a
ARM GAS  /tmp/ccCksuHK.s 			page 39


 2154 0070 0B       		.uleb128 0xb
 2155 0071 3B       		.uleb128 0x3b
 2156 0072 05       		.uleb128 0x5
 2157 0073 49       		.uleb128 0x49
 2158 0074 13       		.uleb128 0x13
 2159 0075 38       		.uleb128 0x38
 2160 0076 0B       		.uleb128 0xb
 2161 0077 00       		.byte	0
 2162 0078 00       		.byte	0
 2163 0079 0A       		.uleb128 0xa
 2164 007a 0F       		.uleb128 0xf
 2165 007b 00       		.byte	0
 2166 007c 0B       		.uleb128 0xb
 2167 007d 0B       		.uleb128 0xb
 2168 007e 49       		.uleb128 0x49
 2169 007f 13       		.uleb128 0x13
 2170 0080 00       		.byte	0
 2171 0081 00       		.byte	0
 2172 0082 0B       		.uleb128 0xb
 2173 0083 13       		.uleb128 0x13
 2174 0084 01       		.byte	0x1
 2175 0085 03       		.uleb128 0x3
 2176 0086 0E       		.uleb128 0xe
 2177 0087 0B       		.uleb128 0xb
 2178 0088 0B       		.uleb128 0xb
 2179 0089 3A       		.uleb128 0x3a
 2180 008a 0B       		.uleb128 0xb
 2181 008b 3B       		.uleb128 0x3b
 2182 008c 05       		.uleb128 0x5
 2183 008d 01       		.uleb128 0x1
 2184 008e 13       		.uleb128 0x13
 2185 008f 00       		.byte	0
 2186 0090 00       		.byte	0
 2187 0091 0C       		.uleb128 0xc
 2188 0092 15       		.uleb128 0x15
 2189 0093 01       		.byte	0x1
 2190 0094 27       		.uleb128 0x27
 2191 0095 19       		.uleb128 0x19
 2192 0096 01       		.uleb128 0x1
 2193 0097 13       		.uleb128 0x13
 2194 0098 00       		.byte	0
 2195 0099 00       		.byte	0
 2196 009a 0D       		.uleb128 0xd
 2197 009b 05       		.uleb128 0x5
 2198 009c 00       		.byte	0
 2199 009d 49       		.uleb128 0x49
 2200 009e 13       		.uleb128 0x13
 2201 009f 00       		.byte	0
 2202 00a0 00       		.byte	0
 2203 00a1 0E       		.uleb128 0xe
 2204 00a2 0F       		.uleb128 0xf
 2205 00a3 00       		.byte	0
 2206 00a4 0B       		.uleb128 0xb
 2207 00a5 0B       		.uleb128 0xb
 2208 00a6 00       		.byte	0
 2209 00a7 00       		.byte	0
 2210 00a8 0F       		.uleb128 0xf
ARM GAS  /tmp/ccCksuHK.s 			page 40


 2211 00a9 13       		.uleb128 0x13
 2212 00aa 01       		.byte	0x1
 2213 00ab 03       		.uleb128 0x3
 2214 00ac 0E       		.uleb128 0xe
 2215 00ad 0B       		.uleb128 0xb
 2216 00ae 05       		.uleb128 0x5
 2217 00af 3A       		.uleb128 0x3a
 2218 00b0 0B       		.uleb128 0xb
 2219 00b1 3B       		.uleb128 0x3b
 2220 00b2 05       		.uleb128 0x5
 2221 00b3 01       		.uleb128 0x1
 2222 00b4 13       		.uleb128 0x13
 2223 00b5 00       		.byte	0
 2224 00b6 00       		.byte	0
 2225 00b7 10       		.uleb128 0x10
 2226 00b8 0D       		.uleb128 0xd
 2227 00b9 00       		.byte	0
 2228 00ba 03       		.uleb128 0x3
 2229 00bb 0E       		.uleb128 0xe
 2230 00bc 3A       		.uleb128 0x3a
 2231 00bd 0B       		.uleb128 0xb
 2232 00be 3B       		.uleb128 0x3b
 2233 00bf 05       		.uleb128 0x5
 2234 00c0 49       		.uleb128 0x49
 2235 00c1 13       		.uleb128 0x13
 2236 00c2 38       		.uleb128 0x38
 2237 00c3 05       		.uleb128 0x5
 2238 00c4 00       		.byte	0
 2239 00c5 00       		.byte	0
 2240 00c6 11       		.uleb128 0x11
 2241 00c7 0D       		.uleb128 0xd
 2242 00c8 00       		.byte	0
 2243 00c9 03       		.uleb128 0x3
 2244 00ca 08       		.uleb128 0x8
 2245 00cb 3A       		.uleb128 0x3a
 2246 00cc 0B       		.uleb128 0xb
 2247 00cd 3B       		.uleb128 0x3b
 2248 00ce 05       		.uleb128 0x5
 2249 00cf 49       		.uleb128 0x49
 2250 00d0 13       		.uleb128 0x13
 2251 00d1 38       		.uleb128 0x38
 2252 00d2 05       		.uleb128 0x5
 2253 00d3 00       		.byte	0
 2254 00d4 00       		.byte	0
 2255 00d5 12       		.uleb128 0x12
 2256 00d6 13       		.uleb128 0x13
 2257 00d7 01       		.byte	0x1
 2258 00d8 0B       		.uleb128 0xb
 2259 00d9 0B       		.uleb128 0xb
 2260 00da 3A       		.uleb128 0x3a
 2261 00db 0B       		.uleb128 0xb
 2262 00dc 3B       		.uleb128 0x3b
 2263 00dd 05       		.uleb128 0x5
 2264 00de 01       		.uleb128 0x1
 2265 00df 13       		.uleb128 0x13
 2266 00e0 00       		.byte	0
 2267 00e1 00       		.byte	0
ARM GAS  /tmp/ccCksuHK.s 			page 41


 2268 00e2 13       		.uleb128 0x13
 2269 00e3 16       		.uleb128 0x16
 2270 00e4 00       		.byte	0
 2271 00e5 03       		.uleb128 0x3
 2272 00e6 0E       		.uleb128 0xe
 2273 00e7 3A       		.uleb128 0x3a
 2274 00e8 0B       		.uleb128 0xb
 2275 00e9 3B       		.uleb128 0x3b
 2276 00ea 05       		.uleb128 0x5
 2277 00eb 49       		.uleb128 0x49
 2278 00ec 13       		.uleb128 0x13
 2279 00ed 00       		.byte	0
 2280 00ee 00       		.byte	0
 2281 00ef 14       		.uleb128 0x14
 2282 00f0 0D       		.uleb128 0xd
 2283 00f1 00       		.byte	0
 2284 00f2 03       		.uleb128 0x3
 2285 00f3 08       		.uleb128 0x8
 2286 00f4 3A       		.uleb128 0x3a
 2287 00f5 0B       		.uleb128 0xb
 2288 00f6 3B       		.uleb128 0x3b
 2289 00f7 0B       		.uleb128 0xb
 2290 00f8 49       		.uleb128 0x49
 2291 00f9 13       		.uleb128 0x13
 2292 00fa 38       		.uleb128 0x38
 2293 00fb 0B       		.uleb128 0xb
 2294 00fc 00       		.byte	0
 2295 00fd 00       		.byte	0
 2296 00fe 15       		.uleb128 0x15
 2297 00ff 13       		.uleb128 0x13
 2298 0100 01       		.byte	0x1
 2299 0101 0B       		.uleb128 0xb
 2300 0102 0B       		.uleb128 0xb
 2301 0103 3A       		.uleb128 0x3a
 2302 0104 0B       		.uleb128 0xb
 2303 0105 3B       		.uleb128 0x3b
 2304 0106 0B       		.uleb128 0xb
 2305 0107 01       		.uleb128 0x1
 2306 0108 13       		.uleb128 0x13
 2307 0109 00       		.byte	0
 2308 010a 00       		.byte	0
 2309 010b 16       		.uleb128 0x16
 2310 010c 13       		.uleb128 0x13
 2311 010d 01       		.byte	0x1
 2312 010e 0B       		.uleb128 0xb
 2313 010f 05       		.uleb128 0x5
 2314 0110 3A       		.uleb128 0x3a
 2315 0111 0B       		.uleb128 0xb
 2316 0112 3B       		.uleb128 0x3b
 2317 0113 0B       		.uleb128 0xb
 2318 0114 01       		.uleb128 0x1
 2319 0115 13       		.uleb128 0x13
 2320 0116 00       		.byte	0
 2321 0117 00       		.byte	0
 2322 0118 17       		.uleb128 0x17
 2323 0119 01       		.uleb128 0x1
 2324 011a 01       		.byte	0x1
ARM GAS  /tmp/ccCksuHK.s 			page 42


 2325 011b 49       		.uleb128 0x49
 2326 011c 13       		.uleb128 0x13
 2327 011d 01       		.uleb128 0x1
 2328 011e 13       		.uleb128 0x13
 2329 011f 00       		.byte	0
 2330 0120 00       		.byte	0
 2331 0121 18       		.uleb128 0x18
 2332 0122 21       		.uleb128 0x21
 2333 0123 00       		.byte	0
 2334 0124 49       		.uleb128 0x49
 2335 0125 13       		.uleb128 0x13
 2336 0126 2F       		.uleb128 0x2f
 2337 0127 0B       		.uleb128 0xb
 2338 0128 00       		.byte	0
 2339 0129 00       		.byte	0
 2340 012a 19       		.uleb128 0x19
 2341 012b 17       		.uleb128 0x17
 2342 012c 01       		.byte	0x1
 2343 012d 0B       		.uleb128 0xb
 2344 012e 0B       		.uleb128 0xb
 2345 012f 3A       		.uleb128 0x3a
 2346 0130 0B       		.uleb128 0xb
 2347 0131 3B       		.uleb128 0x3b
 2348 0132 0B       		.uleb128 0xb
 2349 0133 01       		.uleb128 0x1
 2350 0134 13       		.uleb128 0x13
 2351 0135 00       		.byte	0
 2352 0136 00       		.byte	0
 2353 0137 1A       		.uleb128 0x1a
 2354 0138 0D       		.uleb128 0xd
 2355 0139 00       		.byte	0
 2356 013a 03       		.uleb128 0x3
 2357 013b 0E       		.uleb128 0xe
 2358 013c 3A       		.uleb128 0x3a
 2359 013d 0B       		.uleb128 0xb
 2360 013e 3B       		.uleb128 0x3b
 2361 013f 05       		.uleb128 0x5
 2362 0140 49       		.uleb128 0x49
 2363 0141 13       		.uleb128 0x13
 2364 0142 00       		.byte	0
 2365 0143 00       		.byte	0
 2366 0144 1B       		.uleb128 0x1b
 2367 0145 26       		.uleb128 0x26
 2368 0146 00       		.byte	0
 2369 0147 49       		.uleb128 0x49
 2370 0148 13       		.uleb128 0x13
 2371 0149 00       		.byte	0
 2372 014a 00       		.byte	0
 2373 014b 1C       		.uleb128 0x1c
 2374 014c 15       		.uleb128 0x15
 2375 014d 01       		.byte	0x1
 2376 014e 27       		.uleb128 0x27
 2377 014f 19       		.uleb128 0x19
 2378 0150 49       		.uleb128 0x49
 2379 0151 13       		.uleb128 0x13
 2380 0152 01       		.uleb128 0x1
 2381 0153 13       		.uleb128 0x13
ARM GAS  /tmp/ccCksuHK.s 			page 43


 2382 0154 00       		.byte	0
 2383 0155 00       		.byte	0
 2384 0156 1D       		.uleb128 0x1d
 2385 0157 0D       		.uleb128 0xd
 2386 0158 00       		.byte	0
 2387 0159 03       		.uleb128 0x3
 2388 015a 08       		.uleb128 0x8
 2389 015b 3A       		.uleb128 0x3a
 2390 015c 0B       		.uleb128 0xb
 2391 015d 3B       		.uleb128 0x3b
 2392 015e 0B       		.uleb128 0xb
 2393 015f 49       		.uleb128 0x49
 2394 0160 13       		.uleb128 0x13
 2395 0161 00       		.byte	0
 2396 0162 00       		.byte	0
 2397 0163 1E       		.uleb128 0x1e
 2398 0164 04       		.uleb128 0x4
 2399 0165 01       		.byte	0x1
 2400 0166 0B       		.uleb128 0xb
 2401 0167 0B       		.uleb128 0xb
 2402 0168 3A       		.uleb128 0x3a
 2403 0169 0B       		.uleb128 0xb
 2404 016a 3B       		.uleb128 0x3b
 2405 016b 0B       		.uleb128 0xb
 2406 016c 01       		.uleb128 0x1
 2407 016d 13       		.uleb128 0x13
 2408 016e 00       		.byte	0
 2409 016f 00       		.byte	0
 2410 0170 1F       		.uleb128 0x1f
 2411 0171 28       		.uleb128 0x28
 2412 0172 00       		.byte	0
 2413 0173 03       		.uleb128 0x3
 2414 0174 0E       		.uleb128 0xe
 2415 0175 1C       		.uleb128 0x1c
 2416 0176 0D       		.uleb128 0xd
 2417 0177 00       		.byte	0
 2418 0178 00       		.byte	0
 2419 0179 20       		.uleb128 0x20
 2420 017a 2E       		.uleb128 0x2e
 2421 017b 01       		.byte	0x1
 2422 017c 3F       		.uleb128 0x3f
 2423 017d 19       		.uleb128 0x19
 2424 017e 03       		.uleb128 0x3
 2425 017f 0E       		.uleb128 0xe
 2426 0180 3A       		.uleb128 0x3a
 2427 0181 0B       		.uleb128 0xb
 2428 0182 3B       		.uleb128 0x3b
 2429 0183 0B       		.uleb128 0xb
 2430 0184 27       		.uleb128 0x27
 2431 0185 19       		.uleb128 0x19
 2432 0186 11       		.uleb128 0x11
 2433 0187 01       		.uleb128 0x1
 2434 0188 12       		.uleb128 0x12
 2435 0189 06       		.uleb128 0x6
 2436 018a 40       		.uleb128 0x40
 2437 018b 18       		.uleb128 0x18
 2438 018c 9642     		.uleb128 0x2116
ARM GAS  /tmp/ccCksuHK.s 			page 44


 2439 018e 19       		.uleb128 0x19
 2440 018f 01       		.uleb128 0x1
 2441 0190 13       		.uleb128 0x13
 2442 0191 00       		.byte	0
 2443 0192 00       		.byte	0
 2444 0193 21       		.uleb128 0x21
 2445 0194 34       		.uleb128 0x34
 2446 0195 00       		.byte	0
 2447 0196 03       		.uleb128 0x3
 2448 0197 08       		.uleb128 0x8
 2449 0198 3A       		.uleb128 0x3a
 2450 0199 0B       		.uleb128 0xb
 2451 019a 3B       		.uleb128 0x3b
 2452 019b 0B       		.uleb128 0xb
 2453 019c 49       		.uleb128 0x49
 2454 019d 13       		.uleb128 0x13
 2455 019e 00       		.byte	0
 2456 019f 00       		.byte	0
 2457 01a0 22       		.uleb128 0x22
 2458 01a1 2E       		.uleb128 0x2e
 2459 01a2 01       		.byte	0x1
 2460 01a3 3F       		.uleb128 0x3f
 2461 01a4 19       		.uleb128 0x19
 2462 01a5 03       		.uleb128 0x3
 2463 01a6 0E       		.uleb128 0xe
 2464 01a7 3A       		.uleb128 0x3a
 2465 01a8 0B       		.uleb128 0xb
 2466 01a9 3B       		.uleb128 0x3b
 2467 01aa 0B       		.uleb128 0xb
 2468 01ab 27       		.uleb128 0x27
 2469 01ac 19       		.uleb128 0x19
 2470 01ad 49       		.uleb128 0x49
 2471 01ae 13       		.uleb128 0x13
 2472 01af 11       		.uleb128 0x11
 2473 01b0 01       		.uleb128 0x1
 2474 01b1 12       		.uleb128 0x12
 2475 01b2 06       		.uleb128 0x6
 2476 01b3 40       		.uleb128 0x40
 2477 01b4 18       		.uleb128 0x18
 2478 01b5 9642     		.uleb128 0x2116
 2479 01b7 19       		.uleb128 0x19
 2480 01b8 01       		.uleb128 0x1
 2481 01b9 13       		.uleb128 0x13
 2482 01ba 00       		.byte	0
 2483 01bb 00       		.byte	0
 2484 01bc 23       		.uleb128 0x23
 2485 01bd 05       		.uleb128 0x5
 2486 01be 00       		.byte	0
 2487 01bf 03       		.uleb128 0x3
 2488 01c0 08       		.uleb128 0x8
 2489 01c1 3A       		.uleb128 0x3a
 2490 01c2 0B       		.uleb128 0xb
 2491 01c3 3B       		.uleb128 0x3b
 2492 01c4 0B       		.uleb128 0xb
 2493 01c5 49       		.uleb128 0x49
 2494 01c6 13       		.uleb128 0x13
 2495 01c7 02       		.uleb128 0x2
ARM GAS  /tmp/ccCksuHK.s 			page 45


 2496 01c8 18       		.uleb128 0x18
 2497 01c9 00       		.byte	0
 2498 01ca 00       		.byte	0
 2499 01cb 24       		.uleb128 0x24
 2500 01cc 34       		.uleb128 0x34
 2501 01cd 00       		.byte	0
 2502 01ce 03       		.uleb128 0x3
 2503 01cf 0E       		.uleb128 0xe
 2504 01d0 3A       		.uleb128 0x3a
 2505 01d1 0B       		.uleb128 0xb
 2506 01d2 3B       		.uleb128 0x3b
 2507 01d3 0B       		.uleb128 0xb
 2508 01d4 49       		.uleb128 0x49
 2509 01d5 13       		.uleb128 0x13
 2510 01d6 02       		.uleb128 0x2
 2511 01d7 18       		.uleb128 0x18
 2512 01d8 00       		.byte	0
 2513 01d9 00       		.byte	0
 2514 01da 25       		.uleb128 0x25
 2515 01db 34       		.uleb128 0x34
 2516 01dc 00       		.byte	0
 2517 01dd 03       		.uleb128 0x3
 2518 01de 0E       		.uleb128 0xe
 2519 01df 3A       		.uleb128 0x3a
 2520 01e0 0B       		.uleb128 0xb
 2521 01e1 3B       		.uleb128 0x3b
 2522 01e2 05       		.uleb128 0x5
 2523 01e3 49       		.uleb128 0x49
 2524 01e4 13       		.uleb128 0x13
 2525 01e5 3F       		.uleb128 0x3f
 2526 01e6 19       		.uleb128 0x19
 2527 01e7 3C       		.uleb128 0x3c
 2528 01e8 19       		.uleb128 0x19
 2529 01e9 00       		.byte	0
 2530 01ea 00       		.byte	0
 2531 01eb 26       		.uleb128 0x26
 2532 01ec 34       		.uleb128 0x34
 2533 01ed 00       		.byte	0
 2534 01ee 03       		.uleb128 0x3
 2535 01ef 08       		.uleb128 0x8
 2536 01f0 3A       		.uleb128 0x3a
 2537 01f1 0B       		.uleb128 0xb
 2538 01f2 3B       		.uleb128 0x3b
 2539 01f3 05       		.uleb128 0x5
 2540 01f4 49       		.uleb128 0x49
 2541 01f5 13       		.uleb128 0x13
 2542 01f6 3F       		.uleb128 0x3f
 2543 01f7 19       		.uleb128 0x19
 2544 01f8 3C       		.uleb128 0x3c
 2545 01f9 19       		.uleb128 0x19
 2546 01fa 00       		.byte	0
 2547 01fb 00       		.byte	0
 2548 01fc 27       		.uleb128 0x27
 2549 01fd 34       		.uleb128 0x34
 2550 01fe 00       		.byte	0
 2551 01ff 03       		.uleb128 0x3
 2552 0200 0E       		.uleb128 0xe
ARM GAS  /tmp/ccCksuHK.s 			page 46


 2553 0201 3A       		.uleb128 0x3a
 2554 0202 0B       		.uleb128 0xb
 2555 0203 3B       		.uleb128 0x3b
 2556 0204 0B       		.uleb128 0xb
 2557 0205 49       		.uleb128 0x49
 2558 0206 13       		.uleb128 0x13
 2559 0207 3F       		.uleb128 0x3f
 2560 0208 19       		.uleb128 0x19
 2561 0209 02       		.uleb128 0x2
 2562 020a 18       		.uleb128 0x18
 2563 020b 00       		.byte	0
 2564 020c 00       		.byte	0
 2565 020d 00       		.byte	0
 2566              		.section	.debug_aranges,"",%progbits
 2567 0000 2C000000 		.4byte	0x2c
 2568 0004 0200     		.2byte	0x2
 2569 0006 00000000 		.4byte	.Ldebug_info0
 2570 000a 04       		.byte	0x4
 2571 000b 00       		.byte	0
 2572 000c 0000     		.2byte	0
 2573 000e 0000     		.2byte	0
 2574 0010 00000000 		.4byte	.LFB271
 2575 0014 60000000 		.4byte	.LFE271-.LFB271
 2576 0018 00000000 		.4byte	.LFB272
 2577 001c 48000000 		.4byte	.LFE272-.LFB272
 2578 0020 00000000 		.4byte	.LFB273
 2579 0024 4C000000 		.4byte	.LFE273-.LFB273
 2580 0028 00000000 		.4byte	0
 2581 002c 00000000 		.4byte	0
 2582              		.section	.debug_ranges,"",%progbits
 2583              	.Ldebug_ranges0:
 2584 0000 00000000 		.4byte	.LFB271
 2585 0004 60000000 		.4byte	.LFE271
 2586 0008 00000000 		.4byte	.LFB272
 2587 000c 48000000 		.4byte	.LFE272
 2588 0010 00000000 		.4byte	.LFB273
 2589 0014 4C000000 		.4byte	.LFE273
 2590 0018 00000000 		.4byte	0
 2591 001c 00000000 		.4byte	0
 2592              		.section	.debug_line,"",%progbits
 2593              	.Ldebug_line0:
 2594 0000 3D030000 		.section	.debug_str,"MS",%progbits,1
 2594      0200F702 
 2594      00000201 
 2594      FB0E0D00 
 2594      01010101 
 2595              	.LASF103:
 2596 0000 74625F70 		.ascii	"tb_ptr\000"
 2596      747200
 2597              	.LASF58:
 2598 0007 72656164 		.ascii	"ready_list_t\000"
 2598      795F6C69 
 2598      73745F74 
 2598      00
 2599              	.LASF97:
 2600 0014 73655F74 		.ascii	"se_time\000"
 2600      696D6500 
ARM GAS  /tmp/ccCksuHK.s 			page 47


 2601              	.LASF2:
 2602 001c 73697A65 		.ascii	"size_t\000"
 2602      5F7400
 2603              	.LASF213:
 2604 0023 696E6974 		.ascii	"init_protocol\000"
 2604      5F70726F 
 2604      746F636F 
 2604      6C00
 2605              	.LASF19:
 2606 0031 75696E74 		.ascii	"uint64_t\000"
 2606      36345F74 
 2606      00
 2607              	.LASF88:
 2608 003a 6B65726E 		.ascii	"kernel_stats\000"
 2608      656C5F73 
 2608      74617473 
 2608      00
 2609              	.LASF3:
 2610 0047 5F5F7569 		.ascii	"__uint8_t\000"
 2610      6E74385F 
 2610      7400
 2611              	.LASF175:
 2612 0051 4F545950 		.ascii	"OTYPER\000"
 2612      455200
 2613              	.LASF96:
 2614 0058 706F7274 		.ascii	"port_intctx\000"
 2614      5F696E74 
 2614      63747800 
 2615              	.LASF57:
 2616 0064 63685F74 		.ascii	"ch_threads_queue\000"
 2616      68726561 
 2616      64735F71 
 2616      75657565 
 2616      00
 2617              	.LASF77:
 2618 0075 73797374 		.ascii	"system_debug_t\000"
 2618      656D5F64 
 2618      65627567 
 2618      5F7400
 2619              	.LASF109:
 2620 0084 776F7273 		.ascii	"worst\000"
 2620      7400
 2621              	.LASF112:
 2622 008a 74696D65 		.ascii	"time_measurement_t\000"
 2622      5F6D6561 
 2622      73757265 
 2622      6D656E74 
 2622      5F7400
 2623              	.LASF174:
 2624 009d 4D4F4445 		.ascii	"MODER\000"
 2624      5200
 2625              	.LASF14:
 2626 00a3 6C6F6E67 		.ascii	"long long unsigned int\000"
 2626      206C6F6E 
 2626      6720756E 
 2626      7369676E 
 2626      65642069 
ARM GAS  /tmp/ccCksuHK.s 			page 48


 2627              	.LASF105:
 2628 00ba 63685F74 		.ascii	"ch_trace_buffer_t\000"
 2628      72616365 
 2628      5F627566 
 2628      6665725F 
 2628      7400
 2629              	.LASF100:
 2630 00cc 73655F73 		.ascii	"se_state\000"
 2630      74617465 
 2630      00
 2631              	.LASF177:
 2632 00d5 50555044 		.ascii	"PUPDR\000"
 2632      5200
 2633              	.LASF119:
 2634 00db 65786974 		.ascii	"exitcode\000"
 2634      636F6465 
 2634      00
 2635              	.LASF87:
 2636 00e4 6D61696E 		.ascii	"mainthread\000"
 2636      74687265 
 2636      616400
 2637              	.LASF209:
 2638 00ef 70726F74 		.ascii	"protocol_01_buffer\000"
 2638      6F636F6C 
 2638      5F30315F 
 2638      62756666 
 2638      657200
 2639              	.LASF147:
 2640 0102 6D625F77 		.ascii	"mb_wrptr\000"
 2640      72707472 
 2640      00
 2641              	.LASF159:
 2642 010b 696F5F71 		.ascii	"io_queue_t\000"
 2642      75657565 
 2642      5F7400
 2643              	.LASF21:
 2644 0116 72747469 		.ascii	"rttime_t\000"
 2644      6D655F74 
 2644      00
 2645              	.LASF35:
 2646 011f 705F7072 		.ascii	"p_prio\000"
 2646      696F00
 2647              	.LASF200:
 2648 0126 72656164 		.ascii	"readt\000"
 2648      7400
 2649              	.LASF161:
 2650 012c 715F7761 		.ascii	"q_waiting\000"
 2650      6974696E 
 2650      6700
 2651              	.LASF12:
 2652 0136 6C6F6E67 		.ascii	"long long int\000"
 2652      206C6F6E 
 2652      6720696E 
 2652      7400
 2653              	.LASF1:
 2654 0144 7369676E 		.ascii	"signed char\000"
 2654      65642063 
ARM GAS  /tmp/ccCksuHK.s 			page 49


 2654      68617200 
 2655              	.LASF178:
 2656 0150 42535252 		.ascii	"BSRR\000"
 2656      00
 2657              	.LASF91:
 2658 0155 47545052 		.ascii	"GTPR\000"
 2658      00
 2659              	.LASF204:
 2660 015a 746F5365 		.ascii	"toSend\000"
 2660      6E6400
 2661              	.LASF50:
 2662 0161 705F6D70 		.ascii	"p_mpool\000"
 2662      6F6F6C00 
 2663              	.LASF129:
 2664 0169 6D5F7175 		.ascii	"m_queue\000"
 2664      65756500 
 2665              	.LASF86:
 2666 0171 76746C69 		.ascii	"vtlist\000"
 2666      737400
 2667              	.LASF190:
 2668 0178 73746174 		.ascii	"state\000"
 2668      6500
 2669              	.LASF84:
 2670 017e 63685F73 		.ascii	"ch_system\000"
 2670      79737465 
 2670      6D00
 2671              	.LASF9:
 2672 0188 6C6F6E67 		.ascii	"long int\000"
 2672      20696E74 
 2672      00
 2673              	.LASF211:
 2674 0191 70726F74 		.ascii	"protocol.c\000"
 2674      6F636F6C 
 2674      2E6300
 2675              	.LASF23:
 2676 019c 74737461 		.ascii	"tstate_t\000"
 2676      74655F74 
 2676      00
 2677              	.LASF43:
 2678 01a5 705F7265 		.ascii	"p_refs\000"
 2678      667300
 2679              	.LASF98:
 2680 01ac 73655F74 		.ascii	"se_tp\000"
 2680      7000
 2681              	.LASF163:
 2682 01b2 715F6275 		.ascii	"q_buffer\000"
 2682      66666572 
 2682      00
 2683              	.LASF165:
 2684 01bb 715F7772 		.ascii	"q_wrptr\000"
 2684      70747200 
 2685              	.LASF210:
 2686 01c3 474E5520 		.ascii	"GNU C 4.8.4 20141219 (release) -mcpu=cortex-m4 -mno"
 2686      4320342E 
 2686      382E3420 
 2686      32303134 
 2686      31323139 
ARM GAS  /tmp/ccCksuHK.s 			page 50


 2687 01f6 2D746875 		.ascii	"-thumb-interwork -mthumb -ggdb -O0 -fomit-frame-poi"
 2687      6D622D69 
 2687      6E746572 
 2687      776F726B 
 2687      202D6D74 
 2688 0229 6E746572 		.ascii	"nter -falign-functions=16 -ffunction-sections -fdat"
 2688      202D6661 
 2688      6C69676E 
 2688      2D66756E 
 2688      6374696F 
 2689 025c 612D7365 		.ascii	"a-sections -fno-common\000"
 2689      6374696F 
 2689      6E73202D 
 2689      666E6F2D 
 2689      636F6D6D 
 2690              	.LASF203:
 2691 0273 62756666 		.ascii	"buffer\000"
 2691      657200
 2692              	.LASF158:
 2693 027a 6D656D6F 		.ascii	"memory_pool_t\000"
 2693      72795F70 
 2693      6F6F6C5F 
 2693      7400
 2694              	.LASF37:
 2695 0288 705F6E65 		.ascii	"p_newer\000"
 2695      77657200 
 2696              	.LASF126:
 2697 0290 735F7175 		.ascii	"s_queue\000"
 2697      65756500 
 2698              	.LASF102:
 2699 0298 74625F73 		.ascii	"tb_size\000"
 2699      697A6500 
 2700              	.LASF176:
 2701 02a0 4F535045 		.ascii	"OSPEEDR\000"
 2701      45445200 
 2702              	.LASF63:
 2703 02a8 725F6E65 		.ascii	"r_newer\000"
 2703      77657200 
 2704              	.LASF157:
 2705 02b0 6D705F70 		.ascii	"mp_provider\000"
 2705      726F7669 
 2705      64657200 
 2706              	.LASF93:
 2707 02bc 72656761 		.ascii	"regarm_t\000"
 2707      726D5F74 
 2707      00
 2708              	.LASF70:
 2709 02c5 76745F70 		.ascii	"vt_prev\000"
 2709      72657600 
 2710              	.LASF78:
 2711 02cd 63685F73 		.ascii	"ch_system_debug\000"
 2711      79737465 
 2711      6D5F6465 
 2711      62756700 
 2712              	.LASF182:
 2713 02dd 73746D33 		.ascii	"stm32_gpio_t\000"
 2713      325F6770 
ARM GAS  /tmp/ccCksuHK.s 			page 51


 2713      696F5F74 
 2713      00
 2714              	.LASF134:
 2715 02ea 6D757465 		.ascii	"mutex_t\000"
 2715      785F7400 
 2716              	.LASF207:
 2717 02f2 73657269 		.ascii	"serialMbox\000"
 2717      616C4D62 
 2717      6F7800
 2718              	.LASF81:
 2719 02fd 6C6F636B 		.ascii	"lock_cnt\000"
 2719      5F636E74 
 2719      00
 2720              	.LASF144:
 2721 0306 6576656E 		.ascii	"event_source_t\000"
 2721      745F736F 
 2721      75726365 
 2721      5F7400
 2722              	.LASF89:
 2723 0315 69646C65 		.ascii	"idle_thread_wa\000"
 2723      5F746872 
 2723      6561645F 
 2723      776100
 2724              	.LASF29:
 2725 0324 636E745F 		.ascii	"cnt_t\000"
 2725      7400
 2726              	.LASF193:
 2727 032a 75736172 		.ascii	"usart\000"
 2727      7400
 2728              	.LASF0:
 2729 0330 756E7369 		.ascii	"unsigned int\000"
 2729      676E6564 
 2729      20696E74 
 2729      00
 2730              	.LASF69:
 2731 033d 76745F6E 		.ascii	"vt_next\000"
 2731      65787400 
 2732              	.LASF16:
 2733 0345 75696E74 		.ascii	"uint16_t\000"
 2733      31365F74 
 2733      00
 2734              	.LASF194:
 2735 034e 53657269 		.ascii	"SerialDriverVMT\000"
 2735      616C4472 
 2735      69766572 
 2735      564D5400 
 2736              	.LASF122:
 2737 035e 77747365 		.ascii	"wtsemp\000"
 2737      6D7000
 2738              	.LASF212:
 2739 0365 2F686F6D 		.ascii	"/home/efe/projeler/io-expander.dev.efe-rev2\000"
 2739      652F6566 
 2739      652F7072 
 2739      6F6A656C 
 2739      65722F69 
 2740              	.LASF191:
 2741 0391 69717565 		.ascii	"iqueue\000"
ARM GAS  /tmp/ccCksuHK.s 			page 52


 2741      756500
 2742              	.LASF45:
 2743 0398 705F6D73 		.ascii	"p_msgqueue\000"
 2743      67717565 
 2743      756500
 2744              	.LASF202:
 2745 03a3 74785772 		.ascii	"txWrite\000"
 2745      69746500 
 2746              	.LASF198:
 2747 03ab 67657474 		.ascii	"gett\000"
 2747      00
 2748              	.LASF113:
 2749 03b0 6E5F6972 		.ascii	"n_irq\000"
 2749      7100
 2750              	.LASF127:
 2751 03b6 735F636E 		.ascii	"s_cnt\000"
 2751      7400
 2752              	.LASF208:
 2753 03bc 6D706F6F 		.ascii	"mpool\000"
 2753      6C00
 2754              	.LASF189:
 2755 03c2 6576656E 		.ascii	"event\000"
 2755      7400
 2756              	.LASF7:
 2757 03c8 73686F72 		.ascii	"short unsigned int\000"
 2757      7420756E 
 2757      7369676E 
 2757      65642069 
 2757      6E7400
 2758              	.LASF117:
 2759 03db 6B65726E 		.ascii	"kernel_stats_t\000"
 2759      656C5F73 
 2759      74617473 
 2759      5F7400
 2760              	.LASF54:
 2761 03ea 63685F74 		.ascii	"ch_thread\000"
 2761      68726561 
 2761      6400
 2762              	.LASF150:
 2763 03f4 6D625F65 		.ascii	"mb_emptysem\000"
 2763      6D707479 
 2763      73656D00 
 2764              	.LASF141:
 2765 0400 656C5F77 		.ascii	"el_wflags\000"
 2765      666C6167 
 2765      7300
 2766              	.LASF26:
 2767 040a 6D73675F 		.ascii	"msg_t\000"
 2767      7400
 2768              	.LASF192:
 2769 0410 6F717565 		.ascii	"oqueue\000"
 2769      756500
 2770              	.LASF30:
 2771 0417 75636E74 		.ascii	"ucnt_t\000"
 2771      5F7400
 2772              	.LASF137:
 2773 041e 656C5F6E 		.ascii	"el_next\000"
ARM GAS  /tmp/ccCksuHK.s 			page 53


 2773      65787400 
 2774              	.LASF83:
 2775 0426 63685F73 		.ascii	"ch_system_t\000"
 2775      79737465 
 2775      6D5F7400 
 2776              	.LASF206:
 2777 0432 74784D61 		.ascii	"txMailboxArea\000"
 2777      696C626F 
 2777      78417265 
 2777      6100
 2778              	.LASF92:
 2779 0440 55534152 		.ascii	"USART_TypeDef\000"
 2779      545F5479 
 2779      70654465 
 2779      6600
 2780              	.LASF199:
 2781 044e 77726974 		.ascii	"writet\000"
 2781      657400
 2782              	.LASF22:
 2783 0455 746D6F64 		.ascii	"tmode_t\000"
 2783      655F7400 
 2784              	.LASF116:
 2785 045d 6D5F6372 		.ascii	"m_crit_isr\000"
 2785      69745F69 
 2785      737200
 2786              	.LASF59:
 2787 0468 63685F72 		.ascii	"ch_ready_list\000"
 2787      65616479 
 2787      5F6C6973 
 2787      7400
 2788              	.LASF27:
 2789 0476 6576656E 		.ascii	"eventmask_t\000"
 2789      746D6173 
 2789      6B5F7400 
 2790              	.LASF8:
 2791 0482 5F5F696E 		.ascii	"__int32_t\000"
 2791      7433325F 
 2791      7400
 2792              	.LASF169:
 2793 048c 716E6F74 		.ascii	"qnotify_t\000"
 2793      6966795F 
 2793      7400
 2794              	.LASF74:
 2795 0496 76697274 		.ascii	"virtual_timers_list_t\000"
 2795      75616C5F 
 2795      74696D65 
 2795      72735F6C 
 2795      6973745F 
 2796              	.LASF94:
 2797 04ac 73746B61 		.ascii	"stkalign_t\000"
 2797      6C69676E 
 2797      5F7400
 2798              	.LASF195:
 2799 04b7 77726974 		.ascii	"write\000"
 2799      6500
 2800              	.LASF170:
 2801 04bd 696E7075 		.ascii	"input_queue_t\000"
ARM GAS  /tmp/ccCksuHK.s 			page 54


 2801      745F7175 
 2801      6575655F 
 2801      7400
 2802              	.LASF197:
 2803 04cb 70757474 		.ascii	"putt\000"
 2803      00
 2804              	.LASF171:
 2805 04d0 6F757470 		.ascii	"output_queue_t\000"
 2805      75745F71 
 2805      75657565 
 2805      5F7400
 2806              	.LASF44:
 2807 04df 705F7761 		.ascii	"p_waiting\000"
 2807      6974696E 
 2807      6700
 2808              	.LASF160:
 2809 04e9 696F5F71 		.ascii	"io_queue\000"
 2809      75657565 
 2809      00
 2810              	.LASF90:
 2811 04f2 73697A65 		.ascii	"sizetype\000"
 2811      74797065 
 2811      00
 2812              	.LASF52:
 2813 04fb 74687265 		.ascii	"thread_reference_t\000"
 2813      61645F72 
 2813      65666572 
 2813      656E6365 
 2813      5F7400
 2814              	.LASF75:
 2815 050e 63685F76 		.ascii	"ch_virtual_timers_list\000"
 2815      69727475 
 2815      616C5F74 
 2815      696D6572 
 2815      735F6C69 
 2816              	.LASF173:
 2817 0525 636C6561 		.ascii	"clear\000"
 2817      7200
 2818              	.LASF148:
 2819 052b 6D625F72 		.ascii	"mb_rdptr\000"
 2819      64707472 
 2819      00
 2820              	.LASF101:
 2821 0534 63685F73 		.ascii	"ch_swc_event_t\000"
 2821      77635F65 
 2821      76656E74 
 2821      5F7400
 2822              	.LASF183:
 2823 0543 696F706F 		.ascii	"ioportmask_t\000"
 2823      72746D61 
 2823      736B5F74 
 2823      00
 2824              	.LASF76:
 2825 0550 76745F6C 		.ascii	"vt_lasttime\000"
 2825      61737474 
 2825      696D6500 
 2826              	.LASF38:
ARM GAS  /tmp/ccCksuHK.s 			page 55


 2827 055c 705F6F6C 		.ascii	"p_older\000"
 2827      64657200 
 2828              	.LASF62:
 2829 0564 725F6374 		.ascii	"r_ctx\000"
 2829      7800
 2830              	.LASF151:
 2831 056a 6D61696C 		.ascii	"mailbox_t\000"
 2831      626F785F 
 2831      7400
 2832              	.LASF156:
 2833 0574 6D705F6F 		.ascii	"mp_object_size\000"
 2833      626A6563 
 2833      745F7369 
 2833      7A6500
 2834              	.LASF107:
 2835 0583 746D5F63 		.ascii	"tm_calibration_t\000"
 2835      616C6962 
 2835      72617469 
 2835      6F6E5F74 
 2835      00
 2836              	.LASF40:
 2837 0594 705F7374 		.ascii	"p_stklimit\000"
 2837      6B6C696D 
 2837      697400
 2838              	.LASF145:
 2839 059f 6D625F62 		.ascii	"mb_buffer\000"
 2839      75666665 
 2839      7200
 2840              	.LASF65:
 2841 05a9 725F6375 		.ascii	"r_current\000"
 2841      7272656E 
 2841      7400
 2842              	.LASF64:
 2843 05b3 725F6F6C 		.ascii	"r_older\000"
 2843      64657200 
 2844              	.LASF108:
 2845 05bb 62657374 		.ascii	"best\000"
 2845      00
 2846              	.LASF139:
 2847 05c0 656C5F65 		.ascii	"el_events\000"
 2847      76656E74 
 2847      7300
 2848              	.LASF13:
 2849 05ca 5F5F7569 		.ascii	"__uint64_t\000"
 2849      6E743634 
 2849      5F7400
 2850              	.LASF181:
 2851 05d5 41465248 		.ascii	"AFRH\000"
 2851      00
 2852              	.LASF111:
 2853 05da 63756D75 		.ascii	"cumulative\000"
 2853      6C617469 
 2853      766500
 2854              	.LASF180:
 2855 05e5 4146524C 		.ascii	"AFRL\000"
 2855      00
 2856              	.LASF24:
ARM GAS  /tmp/ccCksuHK.s 			page 56


 2857 05ea 74726566 		.ascii	"trefs_t\000"
 2857      735F7400 
 2858              	.LASF104:
 2859 05f2 74625F62 		.ascii	"tb_buffer\000"
 2859      75666665 
 2859      7200
 2860              	.LASF67:
 2861 05fc 76697274 		.ascii	"virtual_timer_t\000"
 2861      75616C5F 
 2861      74696D65 
 2861      725F7400 
 2862              	.LASF34:
 2863 060c 705F7072 		.ascii	"p_prev\000"
 2863      657600
 2864              	.LASF25:
 2865 0613 74707269 		.ascii	"tprio_t\000"
 2865      6F5F7400 
 2866              	.LASF166:
 2867 061b 715F7264 		.ascii	"q_rdptr\000"
 2867      70747200 
 2868              	.LASF39:
 2869 0623 705F6E61 		.ascii	"p_name\000"
 2869      6D6500
 2870              	.LASF114:
 2871 062a 6E5F6374 		.ascii	"n_ctxswc\000"
 2871      78737763 
 2871      00
 2872              	.LASF172:
 2873 0633 5F426F6F 		.ascii	"_Bool\000"
 2873      6C00
 2874              	.LASF17:
 2875 0639 696E7433 		.ascii	"int32_t\000"
 2875      325F7400 
 2876              	.LASF4:
 2877 0641 756E7369 		.ascii	"unsigned char\000"
 2877      676E6564 
 2877      20636861 
 2877      7200
 2878              	.LASF146:
 2879 064f 6D625F74 		.ascii	"mb_top\000"
 2879      6F7000
 2880              	.LASF138:
 2881 0656 656C5F6C 		.ascii	"el_listener\000"
 2881      69737465 
 2881      6E657200 
 2882              	.LASF205:
 2883 0662 49544D5F 		.ascii	"ITM_RxBuffer\000"
 2883      52784275 
 2883      66666572 
 2883      00
 2884              	.LASF140:
 2885 066f 656C5F66 		.ascii	"el_flags\000"
 2885      6C616773 
 2885      00
 2886              	.LASF48:
 2887 0678 705F6D74 		.ascii	"p_mtxlist\000"
 2887      786C6973 
ARM GAS  /tmp/ccCksuHK.s 			page 57


 2887      7400
 2888              	.LASF5:
 2889 0682 73686F72 		.ascii	"short int\000"
 2889      7420696E 
 2889      7400
 2890              	.LASF41:
 2891 068c 705F7374 		.ascii	"p_state\000"
 2891      61746500 
 2892              	.LASF121:
 2893 0694 77747472 		.ascii	"wttrp\000"
 2893      7000
 2894              	.LASF61:
 2895 069a 725F7072 		.ascii	"r_prio\000"
 2895      696F00
 2896              	.LASF124:
 2897 06a1 65776D61 		.ascii	"ewmask\000"
 2897      736B00
 2898              	.LASF33:
 2899 06a8 705F6E65 		.ascii	"p_next\000"
 2899      787400
 2900              	.LASF42:
 2901 06af 705F666C 		.ascii	"p_flags\000"
 2901      61677300 
 2902              	.LASF51:
 2903 06b7 705F7374 		.ascii	"p_stats\000"
 2903      61747300 
 2904              	.LASF185:
 2905 06bf 53445F53 		.ascii	"SD_STOP\000"
 2905      544F5000 
 2906              	.LASF118:
 2907 06c7 7264796D 		.ascii	"rdymsg\000"
 2907      736700
 2908              	.LASF56:
 2909 06ce 74687265 		.ascii	"threads_queue_t\000"
 2909      6164735F 
 2909      71756575 
 2909      655F7400 
 2910              	.LASF179:
 2911 06de 4C434B52 		.ascii	"LCKR\000"
 2911      00
 2912              	.LASF125:
 2913 06e3 63685F73 		.ascii	"ch_semaphore\000"
 2913      656D6170 
 2913      686F7265 
 2913      00
 2914              	.LASF47:
 2915 06f0 705F6570 		.ascii	"p_epending\000"
 2915      656E6469 
 2915      6E6700
 2916              	.LASF184:
 2917 06fb 53445F55 		.ascii	"SD_UNINIT\000"
 2917      4E494E49 
 2917      5400
 2918              	.LASF162:
 2919 0705 715F636F 		.ascii	"q_counter\000"
 2919      756E7465 
 2919      7200
ARM GAS  /tmp/ccCksuHK.s 			page 58


 2920              	.LASF123:
 2921 070f 77746D74 		.ascii	"wtmtxp\000"
 2921      787000
 2922              	.LASF60:
 2923 0716 725F7175 		.ascii	"r_queue\000"
 2923      65756500 
 2924              	.LASF71:
 2925 071e 76745F64 		.ascii	"vt_delta\000"
 2925      656C7461 
 2925      00
 2926              	.LASF55:
 2927 0727 63685F74 		.ascii	"ch_threads_list\000"
 2927      68726561 
 2927      64735F6C 
 2927      69737400 
 2928              	.LASF188:
 2929 0737 53657269 		.ascii	"SerialDriver\000"
 2929      616C4472 
 2929      69766572 
 2929      00
 2930              	.LASF11:
 2931 0744 6C6F6E67 		.ascii	"long unsigned int\000"
 2931      20756E73 
 2931      69676E65 
 2931      6420696E 
 2931      7400
 2932              	.LASF196:
 2933 0756 72656164 		.ascii	"read\000"
 2933      00
 2934              	.LASF132:
 2935 075b 63686172 		.ascii	"char\000"
 2935      00
 2936              	.LASF6:
 2937 0760 5F5F7569 		.ascii	"__uint16_t\000"
 2937      6E743136 
 2937      5F7400
 2938              	.LASF32:
 2939 076b 74687265 		.ascii	"thread_t\000"
 2939      61645F74 
 2939      00
 2940              	.LASF201:
 2941 0774 72784C69 		.ascii	"rxListen\000"
 2941      7374656E 
 2941      00
 2942              	.LASF131:
 2943 077d 6D5F6E65 		.ascii	"m_next\000"
 2943      787400
 2944              	.LASF31:
 2945 0784 73797374 		.ascii	"systime_t\000"
 2945      696D655F 
 2945      7400
 2946              	.LASF49:
 2947 078e 705F7265 		.ascii	"p_realprio\000"
 2947      616C7072 
 2947      696F00
 2948              	.LASF66:
 2949 0799 76746675 		.ascii	"vtfunc_t\000"
ARM GAS  /tmp/ccCksuHK.s 			page 59


 2949      6E635F74 
 2949      00
 2950              	.LASF10:
 2951 07a2 5F5F7569 		.ascii	"__uint32_t\000"
 2951      6E743332 
 2951      5F7400
 2952              	.LASF110:
 2953 07ad 6C617374 		.ascii	"last\000"
 2953      00
 2954              	.LASF79:
 2955 07b2 70616E69 		.ascii	"panic_msg\000"
 2955      635F6D73 
 2955      6700
 2956              	.LASF106:
 2957 07bc 6F666673 		.ascii	"offset\000"
 2957      657400
 2958              	.LASF128:
 2959 07c3 63685F6D 		.ascii	"ch_mutex\000"
 2959      75746578 
 2959      00
 2960              	.LASF135:
 2961 07cc 6576656E 		.ascii	"event_listener_t\000"
 2961      745F6C69 
 2961      7374656E 
 2961      65725F74 
 2961      00
 2962              	.LASF155:
 2963 07dd 6D705F6E 		.ascii	"mp_next\000"
 2963      65787400 
 2964              	.LASF95:
 2965 07e5 636F6E74 		.ascii	"context\000"
 2965      65787400 
 2966              	.LASF68:
 2967 07ed 63685F76 		.ascii	"ch_virtual_timer\000"
 2967      69727475 
 2967      616C5F74 
 2967      696D6572 
 2967      00
 2968              	.LASF20:
 2969 07fe 7274636E 		.ascii	"rtcnt_t\000"
 2969      745F7400 
 2970              	.LASF152:
 2971 0806 6D656D67 		.ascii	"memgetfunc_t\000"
 2971      65746675 
 2971      6E635F74 
 2971      00
 2972              	.LASF186:
 2973 0813 53445F52 		.ascii	"SD_READY\000"
 2973      45414459 
 2973      00
 2974              	.LASF73:
 2975 081c 76745F70 		.ascii	"vt_par\000"
 2975      617200
 2976              	.LASF28:
 2977 0823 6576656E 		.ascii	"eventflags_t\000"
 2977      74666C61 
 2977      67735F74 
ARM GAS  /tmp/ccCksuHK.s 			page 60


 2977      00
 2978              	.LASF18:
 2979 0830 75696E74 		.ascii	"uint32_t\000"
 2979      33325F74 
 2979      00
 2980              	.LASF187:
 2981 0839 73647374 		.ascii	"sdstate_t\000"
 2981      6174655F 
 2981      7400
 2982              	.LASF149:
 2983 0843 6D625F66 		.ascii	"mb_fullsem\000"
 2983      756C6C73 
 2983      656D00
 2984              	.LASF164:
 2985 084e 715F746F 		.ascii	"q_top\000"
 2985      7000
 2986              	.LASF153:
 2987 0854 706F6F6C 		.ascii	"pool_header\000"
 2987      5F686561 
 2987      64657200 
 2988              	.LASF143:
 2989 0860 65735F6E 		.ascii	"es_next\000"
 2989      65787400 
 2990              	.LASF80:
 2991 0868 6973725F 		.ascii	"isr_cnt\000"
 2991      636E7400 
 2992              	.LASF133:
 2993 0870 73656D61 		.ascii	"semaphore_t\000"
 2993      70686F72 
 2993      655F7400 
 2994              	.LASF167:
 2995 087c 715F6E6F 		.ascii	"q_notify\000"
 2995      74696679 
 2995      00
 2996              	.LASF85:
 2997 0885 726C6973 		.ascii	"rlist\000"
 2997      7400
 2998              	.LASF142:
 2999 088b 6576656E 		.ascii	"event_source\000"
 2999      745F736F 
 2999      75726365 
 2999      00
 3000              	.LASF15:
 3001 0898 75696E74 		.ascii	"uint8_t\000"
 3001      385F7400 
 3002              	.LASF120:
 3003 08a0 77746F62 		.ascii	"wtobjp\000"
 3003      6A7000
 3004              	.LASF154:
 3005 08a7 70685F6E 		.ascii	"ph_next\000"
 3005      65787400 
 3006              	.LASF53:
 3007 08af 74687265 		.ascii	"threads_list_t\000"
 3007      6164735F 
 3007      6C697374 
 3007      5F7400
 3008              	.LASF82:
ARM GAS  /tmp/ccCksuHK.s 			page 61


 3009 08be 74726163 		.ascii	"trace_buffer\000"
 3009      655F6275 
 3009      66666572 
 3009      00
 3010              	.LASF46:
 3011 08cb 705F6D73 		.ascii	"p_msg\000"
 3011      6700
 3012              	.LASF168:
 3013 08d1 715F6C69 		.ascii	"q_link\000"
 3013      6E6B00
 3014              	.LASF115:
 3015 08d8 6D5F6372 		.ascii	"m_crit_thd\000"
 3015      69745F74 
 3015      686400
 3016              	.LASF130:
 3017 08e3 6D5F6F77 		.ascii	"m_owner\000"
 3017      6E657200 
 3018              	.LASF99:
 3019 08eb 73655F77 		.ascii	"se_wtobjp\000"
 3019      746F626A 
 3019      7000
 3020              	.LASF36:
 3021 08f5 705F6374 		.ascii	"p_ctx\000"
 3021      7800
 3022              	.LASF72:
 3023 08fb 76745F66 		.ascii	"vt_func\000"
 3023      756E6300 
 3024              	.LASF136:
 3025 0903 6576656E 		.ascii	"event_listener\000"
 3025      745F6C69 
 3025      7374656E 
 3025      657200
 3026              		.ident	"GCC: (4.8.4-1+11-1) 4.8.4 20141219 (release)"
ARM GAS  /tmp/ccCksuHK.s 			page 62


DEFINED SYMBOLS
                            *ABS*:0000000000000000 protocol.c
     /tmp/ccCksuHK.s:23     .bss.txMailboxArea:0000000000000000 txMailboxArea
     /tmp/ccCksuHK.s:20     .bss.txMailboxArea:0000000000000000 $d
     /tmp/ccCksuHK.s:30     .bss.serialMbox:0000000000000000 serialMbox
     /tmp/ccCksuHK.s:27     .bss.serialMbox:0000000000000000 $d
     /tmp/ccCksuHK.s:37     .data.mpool:0000000000000000 mpool
     /tmp/ccCksuHK.s:34     .data.mpool:0000000000000000 $d
     /tmp/ccCksuHK.s:46     .bss.protocol_01_buffer:0000000000000000 protocol_01_buffer
     /tmp/ccCksuHK.s:43     .bss.protocol_01_buffer:0000000000000000 $d
     /tmp/ccCksuHK.s:49     .text.init_protocol:0000000000000000 $t
     /tmp/ccCksuHK.s:55     .text.init_protocol:0000000000000000 init_protocol
     /tmp/ccCksuHK.s:102    .text.init_protocol:0000000000000048 $d
     /tmp/ccCksuHK.s:112    .text.rxListen:0000000000000000 $t
     /tmp/ccCksuHK.s:118    .text.rxListen:0000000000000000 rxListen
     /tmp/ccCksuHK.s:161    .text.rxListen:000000000000003c $d
     /tmp/ccCksuHK.s:168    .text.txWrite:0000000000000000 $t
     /tmp/ccCksuHK.s:174    .text.txWrite:0000000000000000 txWrite
     /tmp/ccCksuHK.s:217    .text.txWrite:0000000000000040 $d
                     .debug_frame:0000000000000010 $d
     /tmp/ccCksuHK.s:167    .text.rxListen:0000000000000048 $t
     /tmp/ccCksuHK.s:223    .text.txWrite:000000000000004c $t

UNDEFINED SYMBOLS
chMBObjectInit
chPoolObjectInit
chPoolLoadArray
_pal_lld_setgroupmode
sdStart
SD3
chPoolAlloc
chIQReadTimeout
chMBPost
chThdSleep
chMBFetch
chOQWriteTimeout
chPoolFree
