ARM GAS  /tmp/ccRXj7ty.s 			page 1


   1              		.syntax unified
   2              		.cpu cortex-m4
   3              		.fpu softvfp
   4              		.eabi_attribute 20, 1
   5              		.eabi_attribute 21, 1
   6              		.eabi_attribute 23, 3
   7              		.eabi_attribute 24, 1
   8              		.eabi_attribute 25, 1
   9              		.eabi_attribute 26, 1
  10              		.eabi_attribute 30, 6
  11              		.eabi_attribute 34, 1
  12              		.eabi_attribute 18, 4
  13              		.thumb
  14              		.file	"protocol.c"
  15              		.text
  16              	.Ltext0:
  17              		.cfi_sections	.debug_frame
  18              		.global	recieveboxArea
  19              		.section	.bss.recieveboxArea,"aw",%nobits
  20              		.align	2
  21              		.type	recieveboxArea, %object
  22              		.size	recieveboxArea, 64
  23              	recieveboxArea:
  24 0000 00000000 		.space	64
  24      00000000 
  24      00000000 
  24      00000000 
  24      00000000 
  25              		.global	recievebox
  26              		.section	.bss.recievebox,"aw",%nobits
  27              		.align	2
  28              		.type	recievebox, %object
  29              		.size	recievebox, 40
  30              	recievebox:
  31 0000 00000000 		.space	40
  31      00000000 
  31      00000000 
  31      00000000 
  31      00000000 
  32              		.global	packetPool
  33              		.section	.bss.packetPool,"aw",%nobits
  34              		.align	2
  35              		.type	packetPool, %object
  36              		.size	packetPool, 12
  37              	packetPool:
  38 0000 00000000 		.space	12
  38      00000000 
  38      00000000 
  39              		.global	protocol_01_buffer
  40              		.section	.bss.protocol_01_buffer,"aw",%nobits
  41              		.align	3
  42              		.type	protocol_01_buffer, %object
  43              		.size	protocol_01_buffer, 1024
  44              	protocol_01_buffer:
  45 0000 00000000 		.space	1024
  45      00000000 
  45      00000000 
ARM GAS  /tmp/ccRXj7ty.s 			page 2


  45      00000000 
  45      00000000 
  46              		.section	.text.init_protocol,"ax",%progbits
  47              		.align	2
  48              		.p2align 4,,15
  49              		.global	init_protocol
  50              		.thumb
  51              		.thumb_func
  52              		.type	init_protocol, %function
  53              	init_protocol:
  54              	.LFB271:
  55              		.file 1 "protocol.c"
  56              		.loc 1 18 0
  57              		.cfi_startproc
  58              		@ args = 0, pretend = 0, frame = 0
  59              		@ frame_needed = 0, uses_anonymous_args = 0
  60 0000 08B5     		push	{r3, lr}
  61              		.cfi_def_cfa_offset 8
  62              		.cfi_offset 3, -8
  63              		.cfi_offset 14, -4
  64              		.loc 1 27 0
  65 0002 1148     		ldr	r0, .L3
  66 0004 1149     		ldr	r1, .L3+4
  67 0006 1022     		movs	r2, #16
  68 0008 FFF7FEFF 		bl	chMBObjectInit
  69              		.loc 1 28 0
  70 000c 1048     		ldr	r0, .L3+8
  71 000e 2021     		movs	r1, #32
  72 0010 0022     		movs	r2, #0
  73 0012 FFF7FEFF 		bl	chPoolObjectInit
  74              		.loc 1 29 0
  75 0016 0E48     		ldr	r0, .L3+8
  76 0018 0E49     		ldr	r1, .L3+12
  77 001a 2022     		movs	r2, #32
  78 001c FFF7FEFF 		bl	chPoolLoadArray
  79              		.loc 1 31 0
  80 0020 0D48     		ldr	r0, .L3+16
  81 0022 4FF48061 		mov	r1, #1024
  82 0026 40F28232 		movw	r2, #898
  83 002a FFF7FEFF 		bl	_pal_lld_setgroupmode
  84              		.loc 1 32 0
  85 002e 0A48     		ldr	r0, .L3+16
  86 0030 4FF40061 		mov	r1, #2048
  87 0034 40F28232 		movw	r2, #898
  88 0038 FFF7FEFF 		bl	_pal_lld_setgroupmode
  89              		.loc 1 33 0
  90 003c 0748     		ldr	r0, .L3+20
  91 003e 0021     		movs	r1, #0
  92 0040 FFF7FEFF 		bl	sdStart
  93              		.loc 1 34 0
  94 0044 00BF     		nop
  95              		.loc 1 35 0
  96 0046 08BD     		pop	{r3, pc}
  97              	.L4:
  98              		.align	2
  99              	.L3:
 100 0048 00000000 		.word	recievebox
ARM GAS  /tmp/ccRXj7ty.s 			page 3


 101 004c 00000000 		.word	recieveboxArea
 102 0050 00000000 		.word	packetPool
 103 0054 00000000 		.word	protocol_01_buffer
 104 0058 00040240 		.word	1073873920
 105 005c 00000000 		.word	SD3
 106              		.cfi_endproc
 107              	.LFE271:
 108              		.size	init_protocol, .-init_protocol
 109              		.section	.text.new_protocol_01,"ax",%progbits
 110              		.align	2
 111              		.p2align 4,,15
 112              		.global	new_protocol_01
 113              		.thumb
 114              		.thumb_func
 115              		.type	new_protocol_01, %function
 116              	new_protocol_01:
 117              	.LFB272:
 118              		.loc 1 38 0
 119              		.cfi_startproc
 120              		@ args = 0, pretend = 0, frame = 16
 121              		@ frame_needed = 0, uses_anonymous_args = 0
 122 0000 00B5     		push	{lr}
 123              		.cfi_def_cfa_offset 4
 124              		.cfi_offset 14, -4
 125 0002 85B0     		sub	sp, sp, #20
 126              		.cfi_def_cfa_offset 24
 127 0004 0190     		str	r0, [sp, #4]
 128              		.loc 1 39 0
 129 0006 0C48     		ldr	r0, .L7
 130 0008 FFF7FEFF 		bl	chPoolAlloc
 131 000c 0390     		str	r0, [sp, #12]
 132              		.loc 1 40 0
 133 000e 039B     		ldr	r3, [sp, #12]
 134 0010 0122     		movs	r2, #1
 135 0012 5A70     		strb	r2, [r3, #1]
 136              		.loc 1 41 0
 137 0014 039B     		ldr	r3, [sp, #12]
 138 0016 019A     		ldr	r2, [sp, #4]
 139 0018 5A60     		str	r2, [r3, #4]
 140              		.loc 1 42 0
 141 001a 039B     		ldr	r3, [sp, #12]
 142 001c 0122     		movs	r2, #1
 143 001e 1A70     		strb	r2, [r3]
 144              		.loc 1 43 0
 145 0020 039B     		ldr	r3, [sp, #12]
 146 0022 0422     		movs	r2, #4
 147 0024 9A70     		strb	r2, [r3, #2]
 148              		.loc 1 44 0
 149 0026 039B     		ldr	r3, [sp, #12]
 150 0028 1922     		movs	r2, #25
 151 002a DA61     		str	r2, [r3, #28]
 152              		.loc 1 45 0
 153 002c 039B     		ldr	r3, [sp, #12]
 154              		.loc 1 46 0
 155 002e 1846     		mov	r0, r3
 156 0030 05B0     		add	sp, sp, #20
 157              		@ sp needed
ARM GAS  /tmp/ccRXj7ty.s 			page 4


 158 0032 5DF804FB 		ldr	pc, [sp], #4
 159              	.L8:
 160 0036 00BF     		.align	2
 161              	.L7:
 162 0038 00000000 		.word	packetPool
 163              		.cfi_endproc
 164              	.LFE272:
 165              		.size	new_protocol_01, .-new_protocol_01
 166 003c AFF30080 		.section	.text.del_protocol_01,"ax",%progbits
 167              		.align	2
 168              		.p2align 4,,15
 169              		.global	del_protocol_01
 170              		.thumb
 171              		.thumb_func
 172              		.type	del_protocol_01, %function
 173              	del_protocol_01:
 174              	.LFB273:
 175              		.loc 1 50 0
 176              		.cfi_startproc
 177              		@ args = 0, pretend = 0, frame = 8
 178              		@ frame_needed = 0, uses_anonymous_args = 0
 179 0000 00B5     		push	{lr}
 180              		.cfi_def_cfa_offset 4
 181              		.cfi_offset 14, -4
 182 0002 83B0     		sub	sp, sp, #12
 183              		.cfi_def_cfa_offset 16
 184 0004 0190     		str	r0, [sp, #4]
 185              		.loc 1 51 0
 186 0006 0448     		ldr	r0, .L11
 187 0008 0199     		ldr	r1, [sp, #4]
 188 000a FFF7FEFF 		bl	chPoolFree
 189              		.loc 1 52 0
 190 000e 00BF     		nop
 191              		.loc 1 53 0
 192 0010 03B0     		add	sp, sp, #12
 193              		@ sp needed
 194 0012 5DF804FB 		ldr	pc, [sp], #4
 195              	.L12:
 196 0016 00BF     		.align	2
 197              	.L11:
 198 0018 00000000 		.word	packetPool
 199              		.cfi_endproc
 200              	.LFE273:
 201              		.size	del_protocol_01, .-del_protocol_01
 202 001c AFF30080 		.section	.text.rxListen,"ax",%progbits
 203              		.align	2
 204              		.p2align 4,,15
 205              		.global	rxListen
 206              		.thumb
 207              		.thumb_func
 208              		.type	rxListen, %function
 209              	rxListen:
 210              	.LFB274:
 211              		.loc 1 57 0
 212              		.cfi_startproc
 213              		@ args = 0, pretend = 0, frame = 88
 214              		@ frame_needed = 0, uses_anonymous_args = 0
ARM GAS  /tmp/ccRXj7ty.s 			page 5


 215 0000 00B5     		push	{lr}
 216              		.cfi_def_cfa_offset 4
 217              		.cfi_offset 14, -4
 218 0002 97B0     		sub	sp, sp, #92
 219              		.cfi_def_cfa_offset 96
 220 0004 0190     		str	r0, [sp, #4]
 221              		.loc 1 59 0
 222 0006 0023     		movs	r3, #0
 223 0008 8DF85730 		strb	r3, [sp, #87]
 224              		.loc 1 64 0
 225 000c 10E0     		b	.L14
 226              	.L27:
 227 000e 0FE0     		b	.L14
 228              	.L15:
 229              		.loc 1 66 0
 230 0010 9DF85730 		ldrb	r3, [sp, #87]	@ zero_extendqisi2
 231 0014 02AA     		add	r2, sp, #8
 232 0016 1344     		add	r3, r3, r2
 233 0018 AE48     		ldr	r0, .L28
 234 001a 1946     		mov	r1, r3
 235 001c 0122     		movs	r2, #1
 236 001e 4FF0FF33 		mov	r3, #-1
 237 0022 FFF7FEFF 		bl	chIQReadTimeout
 238              		.loc 1 67 0
 239 0026 9DF85730 		ldrb	r3, [sp, #87]	@ zero_extendqisi2
 240 002a 0133     		adds	r3, r3, #1
 241 002c 8DF85730 		strb	r3, [sp, #87]
 242              	.L14:
 243              		.loc 1 64 0 discriminator 1
 244 0030 9DF85730 		ldrb	r3, [sp, #87]	@ zero_extendqisi2
 245 0034 182B     		cmp	r3, #24
 246 0036 EBD9     		bls	.L15
 247              		.loc 1 70 0
 248 0038 9DF80830 		ldrb	r3, [sp, #8]	@ zero_extendqisi2
 249 003c 012B     		cmp	r3, #1
 250 003e 03D1     		bne	.L16
 251              		.loc 1 70 0 is_stmt 0 discriminator 1
 252 0040 9DF82030 		ldrb	r3, [sp, #32]	@ zero_extendqisi2
 253 0044 042B     		cmp	r3, #4
 254 0046 38D0     		beq	.L17
 255              	.L16:
 256              	.LBB2:
 257              		.loc 1 72 0 is_stmt 1
 258 0048 9DF85730 		ldrb	r3, [sp, #87]
 259 004c 8DF84B30 		strb	r3, [sp, #75]
 260              		.loc 1 73 0
 261 0050 0023     		movs	r3, #0
 262 0052 8DF85730 		strb	r3, [sp, #87]
 263              		.loc 1 74 0
 264 0056 04E0     		b	.L18
 265              	.L19:
 266              		.loc 1 75 0
 267 0058 9DF85730 		ldrb	r3, [sp, #87]	@ zero_extendqisi2
 268 005c 0133     		adds	r3, r3, #1
 269 005e 8DF85730 		strb	r3, [sp, #87]
 270              	.L18:
 271              		.loc 1 74 0 discriminator 1
ARM GAS  /tmp/ccRXj7ty.s 			page 6


 272 0062 9DF85730 		ldrb	r3, [sp, #87]	@ zero_extendqisi2
 273 0066 16A9     		add	r1, sp, #88
 274 0068 0B44     		add	r3, r3, r1
 275 006a 13F8503C 		ldrb	r3, [r3, #-80]	@ zero_extendqisi2
 276 006e 012B     		cmp	r3, #1
 277 0070 F2D1     		bne	.L19
 278              		.loc 1 76 0
 279 0072 0023     		movs	r3, #0
 280 0074 8DF85630 		strb	r3, [sp, #86]
 281 0078 13E0     		b	.L20
 282              	.L21:
 283              		.loc 1 77 0 discriminator 2
 284 007a 9DF85610 		ldrb	r1, [sp, #86]	@ zero_extendqisi2
 285 007e 9DF85730 		ldrb	r3, [sp, #87]	@ zero_extendqisi2
 286 0082 5A1C     		adds	r2, r3, #1
 287 0084 8DF85720 		strb	r2, [sp, #87]
 288 0088 16AA     		add	r2, sp, #88
 289 008a 1344     		add	r3, r3, r2
 290 008c 13F8502C 		ldrb	r2, [r3, #-80]	@ zero_extendqisi2
 291 0090 16AB     		add	r3, sp, #88
 292 0092 0B44     		add	r3, r3, r1
 293 0094 03F8502C 		strb	r2, [r3, #-80]
 294              		.loc 1 76 0 discriminator 2
 295 0098 9DF85630 		ldrb	r3, [sp, #86]	@ zero_extendqisi2
 296 009c 0133     		adds	r3, r3, #1
 297 009e 8DF85630 		strb	r3, [sp, #86]
 298              	.L20:
 299              		.loc 1 76 0 is_stmt 0 discriminator 1
 300 00a2 9DF85620 		ldrb	r2, [sp, #86]	@ zero_extendqisi2
 301 00a6 9DF84B30 		ldrb	r3, [sp, #75]	@ zero_extendqisi2
 302 00aa 9A42     		cmp	r2, r3
 303 00ac E5D3     		bcc	.L21
 304              		.loc 1 78 0 is_stmt 1
 305 00ae 9DF85630 		ldrb	r3, [sp, #86]
 306 00b2 8DF85730 		strb	r3, [sp, #87]
 307              		.loc 1 79 0
 308 00b6 00BF     		nop
 309              	.LBE2:
 310              		.loc 1 140 0
 311 00b8 A9E7     		b	.L27
 312              	.L17:
 313              	.LBB3:
 314              		.loc 1 86 0
 315 00ba 0023     		movs	r3, #0
 316 00bc ADF85230 		strh	r3, [sp, #82]	@ movhi
 317              		.loc 1 87 0
 318 00c0 8548     		ldr	r0, .L28+4
 319 00c2 FFF7FEFF 		bl	chPoolAlloc
 320 00c6 1390     		str	r0, [sp, #76]
 321              		.loc 1 89 0
 322 00c8 139B     		ldr	r3, [sp, #76]
 323 00ca 0022     		movs	r2, #0
 324 00cc 9A60     		str	r2, [r3, #8]
 325              		.loc 1 90 0
 326 00ce 139B     		ldr	r3, [sp, #76]
 327 00d0 0022     		movs	r2, #0
 328 00d2 DA60     		str	r2, [r3, #12]
ARM GAS  /tmp/ccRXj7ty.s 			page 7


 329              		.loc 1 91 0
 330 00d4 139B     		ldr	r3, [sp, #76]
 331 00d6 0022     		movs	r2, #0
 332 00d8 1A61     		str	r2, [r3, #16]
 333              		.loc 1 92 0
 334 00da 139B     		ldr	r3, [sp, #76]
 335 00dc 0022     		movs	r2, #0
 336 00de 9A82     		strh	r2, [r3, #20]	@ movhi
 337              		.loc 1 93 0
 338 00e0 139B     		ldr	r3, [sp, #76]
 339 00e2 0022     		movs	r2, #0
 340 00e4 DA82     		strh	r2, [r3, #22]	@ movhi
 341              		.loc 1 94 0
 342 00e6 139B     		ldr	r3, [sp, #76]
 343 00e8 0022     		movs	r2, #0
 344 00ea 1A83     		strh	r2, [r3, #24]	@ movhi
 345              		.loc 1 95 0
 346 00ec 139B     		ldr	r3, [sp, #76]
 347 00ee 0022     		movs	r2, #0
 348 00f0 5A83     		strh	r2, [r3, #26]	@ movhi
 349              		.loc 1 97 0
 350 00f2 139B     		ldr	r3, [sp, #76]
 351 00f4 9A68     		ldr	r2, [r3, #8]
 352 00f6 9DF80A30 		ldrb	r3, [sp, #10]	@ zero_extendqisi2
 353 00fa 1B06     		lsls	r3, r3, #24
 354 00fc 1A40     		ands	r2, r2, r3
 355 00fe 139B     		ldr	r3, [sp, #76]
 356 0100 9A60     		str	r2, [r3, #8]
 357              		.loc 1 98 0
 358 0102 139B     		ldr	r3, [sp, #76]
 359 0104 9A68     		ldr	r2, [r3, #8]
 360 0106 9DF80B30 		ldrb	r3, [sp, #11]	@ zero_extendqisi2
 361 010a 1B04     		lsls	r3, r3, #16
 362 010c 1A40     		ands	r2, r2, r3
 363 010e 139B     		ldr	r3, [sp, #76]
 364 0110 9A60     		str	r2, [r3, #8]
 365              		.loc 1 99 0
 366 0112 139B     		ldr	r3, [sp, #76]
 367 0114 9A68     		ldr	r2, [r3, #8]
 368 0116 9DF80C30 		ldrb	r3, [sp, #12]	@ zero_extendqisi2
 369 011a 1B02     		lsls	r3, r3, #8
 370 011c 1A40     		ands	r2, r2, r3
 371 011e 139B     		ldr	r3, [sp, #76]
 372 0120 9A60     		str	r2, [r3, #8]
 373              		.loc 1 100 0
 374 0122 139B     		ldr	r3, [sp, #76]
 375 0124 9A68     		ldr	r2, [r3, #8]
 376 0126 9DF80D30 		ldrb	r3, [sp, #13]	@ zero_extendqisi2
 377 012a 1A40     		ands	r2, r2, r3
 378 012c 139B     		ldr	r3, [sp, #76]
 379 012e 9A60     		str	r2, [r3, #8]
 380              		.loc 1 101 0
 381 0130 139B     		ldr	r3, [sp, #76]
 382 0132 DA68     		ldr	r2, [r3, #12]
 383 0134 9DF80E30 		ldrb	r3, [sp, #14]	@ zero_extendqisi2
 384 0138 1B06     		lsls	r3, r3, #24
 385 013a 1A40     		ands	r2, r2, r3
ARM GAS  /tmp/ccRXj7ty.s 			page 8


 386 013c 139B     		ldr	r3, [sp, #76]
 387 013e DA60     		str	r2, [r3, #12]
 388              		.loc 1 102 0
 389 0140 139B     		ldr	r3, [sp, #76]
 390 0142 DA68     		ldr	r2, [r3, #12]
 391 0144 9DF80F30 		ldrb	r3, [sp, #15]	@ zero_extendqisi2
 392 0148 1B04     		lsls	r3, r3, #16
 393 014a 1A40     		ands	r2, r2, r3
 394 014c 139B     		ldr	r3, [sp, #76]
 395 014e DA60     		str	r2, [r3, #12]
 396              		.loc 1 103 0
 397 0150 139B     		ldr	r3, [sp, #76]
 398 0152 DA68     		ldr	r2, [r3, #12]
 399 0154 9DF81030 		ldrb	r3, [sp, #16]	@ zero_extendqisi2
 400 0158 1B02     		lsls	r3, r3, #8
 401 015a 1A40     		ands	r2, r2, r3
 402 015c 139B     		ldr	r3, [sp, #76]
 403 015e DA60     		str	r2, [r3, #12]
 404              		.loc 1 104 0
 405 0160 139B     		ldr	r3, [sp, #76]
 406 0162 DA68     		ldr	r2, [r3, #12]
 407 0164 9DF81130 		ldrb	r3, [sp, #17]	@ zero_extendqisi2
 408 0168 1A40     		ands	r2, r2, r3
 409 016a 139B     		ldr	r3, [sp, #76]
 410 016c DA60     		str	r2, [r3, #12]
 411              		.loc 1 105 0
 412 016e 139B     		ldr	r3, [sp, #76]
 413 0170 1A69     		ldr	r2, [r3, #16]
 414 0172 9DF81230 		ldrb	r3, [sp, #18]	@ zero_extendqisi2
 415 0176 1B06     		lsls	r3, r3, #24
 416 0178 1A40     		ands	r2, r2, r3
 417 017a 139B     		ldr	r3, [sp, #76]
 418 017c 1A61     		str	r2, [r3, #16]
 419              		.loc 1 106 0
 420 017e 139B     		ldr	r3, [sp, #76]
 421 0180 1A69     		ldr	r2, [r3, #16]
 422 0182 9DF81330 		ldrb	r3, [sp, #19]	@ zero_extendqisi2
 423 0186 1B04     		lsls	r3, r3, #16
 424 0188 1A40     		ands	r2, r2, r3
 425 018a 139B     		ldr	r3, [sp, #76]
 426 018c 1A61     		str	r2, [r3, #16]
 427              		.loc 1 107 0
 428 018e 139B     		ldr	r3, [sp, #76]
 429 0190 1A69     		ldr	r2, [r3, #16]
 430 0192 9DF81430 		ldrb	r3, [sp, #20]	@ zero_extendqisi2
 431 0196 1B02     		lsls	r3, r3, #8
 432 0198 1A40     		ands	r2, r2, r3
 433 019a 139B     		ldr	r3, [sp, #76]
 434 019c 1A61     		str	r2, [r3, #16]
 435              		.loc 1 108 0
 436 019e 139B     		ldr	r3, [sp, #76]
 437 01a0 1A69     		ldr	r2, [r3, #16]
 438 01a2 9DF81530 		ldrb	r3, [sp, #21]	@ zero_extendqisi2
 439 01a6 1A40     		ands	r2, r2, r3
 440 01a8 139B     		ldr	r3, [sp, #76]
 441 01aa 1A61     		str	r2, [r3, #16]
 442              		.loc 1 109 0
ARM GAS  /tmp/ccRXj7ty.s 			page 9


 443 01ac 139B     		ldr	r3, [sp, #76]
 444 01ae 9B8A     		ldrh	r3, [r3, #20]
 445 01b0 9AB2     		uxth	r2, r3
 446 01b2 9DF81630 		ldrb	r3, [sp, #22]	@ zero_extendqisi2
 447 01b6 1B02     		lsls	r3, r3, #8
 448 01b8 9BB2     		uxth	r3, r3
 449 01ba 1340     		ands	r3, r3, r2
 450 01bc 9BB2     		uxth	r3, r3
 451 01be 9AB2     		uxth	r2, r3
 452 01c0 139B     		ldr	r3, [sp, #76]
 453 01c2 9A82     		strh	r2, [r3, #20]	@ movhi
 454              		.loc 1 110 0
 455 01c4 139B     		ldr	r3, [sp, #76]
 456 01c6 9A8A     		ldrh	r2, [r3, #20]
 457 01c8 9DF81730 		ldrb	r3, [sp, #23]	@ zero_extendqisi2
 458 01cc 1340     		ands	r3, r3, r2
 459 01ce 9AB2     		uxth	r2, r3
 460 01d0 139B     		ldr	r3, [sp, #76]
 461 01d2 9A82     		strh	r2, [r3, #20]	@ movhi
 462              		.loc 1 111 0
 463 01d4 139B     		ldr	r3, [sp, #76]
 464 01d6 DB8A     		ldrh	r3, [r3, #22]
 465 01d8 9AB2     		uxth	r2, r3
 466 01da 9DF81830 		ldrb	r3, [sp, #24]	@ zero_extendqisi2
 467 01de 1B02     		lsls	r3, r3, #8
 468 01e0 9BB2     		uxth	r3, r3
 469 01e2 1340     		ands	r3, r3, r2
 470 01e4 9BB2     		uxth	r3, r3
 471 01e6 9AB2     		uxth	r2, r3
 472 01e8 139B     		ldr	r3, [sp, #76]
 473 01ea DA82     		strh	r2, [r3, #22]	@ movhi
 474              		.loc 1 112 0
 475 01ec 139B     		ldr	r3, [sp, #76]
 476 01ee DA8A     		ldrh	r2, [r3, #22]
 477 01f0 9DF81930 		ldrb	r3, [sp, #25]	@ zero_extendqisi2
 478 01f4 1340     		ands	r3, r3, r2
 479 01f6 9AB2     		uxth	r2, r3
 480 01f8 139B     		ldr	r3, [sp, #76]
 481 01fa DA82     		strh	r2, [r3, #22]	@ movhi
 482              		.loc 1 113 0
 483 01fc 139B     		ldr	r3, [sp, #76]
 484 01fe 1B8B     		ldrh	r3, [r3, #24]
 485 0200 9AB2     		uxth	r2, r3
 486 0202 9DF81A30 		ldrb	r3, [sp, #26]	@ zero_extendqisi2
 487 0206 1B02     		lsls	r3, r3, #8
 488 0208 9BB2     		uxth	r3, r3
 489 020a 1340     		ands	r3, r3, r2
 490 020c 9BB2     		uxth	r3, r3
 491 020e 9AB2     		uxth	r2, r3
 492 0210 139B     		ldr	r3, [sp, #76]
 493 0212 1A83     		strh	r2, [r3, #24]	@ movhi
 494              		.loc 1 114 0
 495 0214 139B     		ldr	r3, [sp, #76]
 496 0216 1A8B     		ldrh	r2, [r3, #24]
 497 0218 9DF81B30 		ldrb	r3, [sp, #27]	@ zero_extendqisi2
 498 021c 1340     		ands	r3, r3, r2
 499 021e 9AB2     		uxth	r2, r3
ARM GAS  /tmp/ccRXj7ty.s 			page 10


 500 0220 139B     		ldr	r3, [sp, #76]
 501 0222 1A83     		strh	r2, [r3, #24]	@ movhi
 502              		.loc 1 115 0
 503 0224 139B     		ldr	r3, [sp, #76]
 504 0226 5B8B     		ldrh	r3, [r3, #26]
 505 0228 9AB2     		uxth	r2, r3
 506 022a 9DF81C30 		ldrb	r3, [sp, #28]	@ zero_extendqisi2
 507 022e 1B02     		lsls	r3, r3, #8
 508 0230 9BB2     		uxth	r3, r3
 509 0232 1340     		ands	r3, r3, r2
 510 0234 9BB2     		uxth	r3, r3
 511 0236 9AB2     		uxth	r2, r3
 512 0238 139B     		ldr	r3, [sp, #76]
 513 023a 5A83     		strh	r2, [r3, #26]	@ movhi
 514              		.loc 1 116 0
 515 023c 139B     		ldr	r3, [sp, #76]
 516 023e 5A8B     		ldrh	r2, [r3, #26]
 517 0240 9DF81D30 		ldrb	r3, [sp, #29]	@ zero_extendqisi2
 518 0244 1340     		ands	r3, r3, r2
 519 0246 9AB2     		uxth	r2, r3
 520 0248 139B     		ldr	r3, [sp, #76]
 521 024a 5A83     		strh	r2, [r3, #26]	@ movhi
 522              		.loc 1 117 0
 523 024c 9DF81E30 		ldrb	r3, [sp, #30]	@ zero_extendqisi2
 524 0250 1B02     		lsls	r3, r3, #8
 525 0252 9AB2     		uxth	r2, r3
 526 0254 BDF85230 		ldrh	r3, [sp, #82]
 527 0258 1340     		ands	r3, r3, r2
 528 025a 9BB2     		uxth	r3, r3
 529 025c ADF85230 		strh	r3, [sp, #82]	@ movhi
 530              		.loc 1 118 0
 531 0260 9DF81F30 		ldrb	r3, [sp, #31]	@ zero_extendqisi2
 532 0264 1A46     		mov	r2, r3
 533 0266 BDF85230 		ldrh	r3, [sp, #82]	@ movhi
 534 026a 1340     		ands	r3, r3, r2
 535 026c ADF85230 		strh	r3, [sp, #82]	@ movhi
 536              		.loc 1 124 0
 537 0270 139B     		ldr	r3, [sp, #76]
 538 0272 1A48     		ldr	r0, .L28+8
 539 0274 1946     		mov	r1, r3
 540 0276 4FF0FF32 		mov	r2, #-1
 541 027a FFF7FEFF 		bl	chMBPost
 542              		.loc 1 127 0
 543 027e 0023     		movs	r3, #0
 544 0280 ADF85430 		strh	r3, [sp, #84]	@ movhi
 545 0284 11E0     		b	.L23
 546              	.L24:
 547              		.loc 1 128 0 discriminator 2
 548 0286 BDF85430 		ldrh	r3, [sp, #84]
 549 028a BDF85420 		ldrh	r2, [sp, #84]
 550 028e 1932     		adds	r2, r2, #25
 551 0290 16A9     		add	r1, sp, #88
 552 0292 0A44     		add	r2, r2, r1
 553 0294 12F8502C 		ldrb	r2, [r2, #-80]	@ zero_extendqisi2
 554 0298 16A9     		add	r1, sp, #88
 555 029a 0B44     		add	r3, r3, r1
 556 029c 03F8502C 		strb	r2, [r3, #-80]
ARM GAS  /tmp/ccRXj7ty.s 			page 11


 557              		.loc 1 127 0 discriminator 2
 558 02a0 BDF85430 		ldrh	r3, [sp, #84]
 559 02a4 0133     		adds	r3, r3, #1
 560 02a6 ADF85430 		strh	r3, [sp, #84]	@ movhi
 561              	.L23:
 562              		.loc 1 127 0 is_stmt 0 discriminator 1
 563 02aa BDF85430 		ldrh	r3, [sp, #84]
 564 02ae 03F11902 		add	r2, r3, #25
 565 02b2 9DF85730 		ldrb	r3, [sp, #87]	@ zero_extendqisi2
 566 02b6 9A42     		cmp	r2, r3
 567 02b8 E5DB     		blt	.L24
 568              		.loc 1 129 0 is_stmt 1
 569 02ba 9DF85730 		ldrb	r3, [sp, #87]
 570 02be 193B     		subs	r3, r3, #25
 571 02c0 8DF85730 		strb	r3, [sp, #87]
 572              		.loc 1 133 0
 573 02c4 0448     		ldr	r0, .L28+4
 574 02c6 1399     		ldr	r1, [sp, #76]
 575 02c8 FFF7FEFF 		bl	chPoolFree
 576              		.loc 1 135 0
 577 02cc 0023     		movs	r3, #0
 578 02ce ADF85430 		strh	r3, [sp, #84]	@ movhi
 579 02d2 17E0     		b	.L25
 580              	.L29:
 581              		.align	2
 582              	.L28:
 583 02d4 0C000000 		.word	SD3+12
 584 02d8 00000000 		.word	packetPool
 585 02dc 00000000 		.word	recievebox
 586              	.L26:
 587              		.loc 1 136 0 discriminator 2
 588 02e0 BDF85430 		ldrh	r3, [sp, #84]
 589 02e4 BDF85420 		ldrh	r2, [sp, #84]
 590 02e8 0132     		adds	r2, r2, #1
 591 02ea 16A9     		add	r1, sp, #88
 592 02ec 0A44     		add	r2, r2, r1
 593 02ee 12F8502C 		ldrb	r2, [r2, #-80]	@ zero_extendqisi2
 594 02f2 16A9     		add	r1, sp, #88
 595 02f4 0B44     		add	r3, r3, r1
 596 02f6 03F8502C 		strb	r2, [r3, #-80]
 597              		.loc 1 135 0 discriminator 2
 598 02fa BDF85430 		ldrh	r3, [sp, #84]
 599 02fe 0133     		adds	r3, r3, #1
 600 0300 ADF85430 		strh	r3, [sp, #84]	@ movhi
 601              	.L25:
 602              		.loc 1 135 0 is_stmt 0 discriminator 1
 603 0304 BDF85430 		ldrh	r3, [sp, #84]
 604 0308 5A1C     		adds	r2, r3, #1
 605 030a 9DF85730 		ldrb	r3, [sp, #87]	@ zero_extendqisi2
 606 030e 9A42     		cmp	r2, r3
 607 0310 E6DB     		blt	.L26
 608              		.loc 1 137 0 is_stmt 1
 609 0312 9DF85730 		ldrb	r3, [sp, #87]
 610 0316 013B     		subs	r3, r3, #1
 611 0318 8DF85730 		strb	r3, [sp, #87]
 612              	.LBE3:
 613              		.loc 1 140 0
ARM GAS  /tmp/ccRXj7ty.s 			page 12


 614 031c 77E6     		b	.L27
 615              		.cfi_endproc
 616              	.LFE274:
 617              		.size	rxListen, .-rxListen
 618 031e 00BF     		.section	.text.txWrite,"ax",%progbits
 619              		.align	2
 620              		.p2align 4,,15
 621              		.global	txWrite
 622              		.thumb
 623              		.thumb_func
 624              		.type	txWrite, %function
 625              	txWrite:
 626              	.LFB275:
 627              		.loc 1 146 0
 628              		.cfi_startproc
 629              		@ args = 0, pretend = 0, frame = 16
 630              		@ frame_needed = 0, uses_anonymous_args = 0
 631 0000 00B5     		push	{lr}
 632              		.cfi_def_cfa_offset 4
 633              		.cfi_offset 14, -4
 634 0002 85B0     		sub	sp, sp, #20
 635              		.cfi_def_cfa_offset 24
 636 0004 0190     		str	r0, [sp, #4]
 637              	.L32:
 638              		.loc 1 151 0
 639 0006 03AB     		add	r3, sp, #12
 640 0008 0B48     		ldr	r0, .L33
 641 000a 1946     		mov	r1, r3
 642 000c 4FF0FF32 		mov	r2, #-1
 643 0010 FFF7FEFF 		bl	chMBFetch
 644 0014 0346     		mov	r3, r0
 645 0016 002B     		cmp	r3, #0
 646 0018 0DD1     		bne	.L31
 647              		.loc 1 153 0
 648 001a 039B     		ldr	r3, [sp, #12]
 649 001c 0748     		ldr	r0, .L33+4
 650 001e 1946     		mov	r1, r3
 651 0020 0122     		movs	r2, #1
 652 0022 4FF0FF33 		mov	r3, #-1
 653 0026 FFF7FEFF 		bl	chOQWriteTimeout
 654              		.loc 1 154 0
 655 002a 039B     		ldr	r3, [sp, #12]
 656 002c 0448     		ldr	r0, .L33+8
 657 002e 1946     		mov	r1, r3
 658 0030 FFF7FEFF 		bl	chPoolFree
 659              		.loc 1 156 0
 660 0034 E7E7     		b	.L32
 661              	.L31:
 662 0036 E6E7     		b	.L32
 663              	.L34:
 664              		.align	2
 665              	.L33:
 666 0038 00000000 		.word	recievebox
 667 003c 30000000 		.word	SD3+48
 668 0040 00000000 		.word	packetPool
 669              		.cfi_endproc
 670              	.LFE275:
ARM GAS  /tmp/ccRXj7ty.s 			page 13


 671              		.size	txWrite, .-txWrite
 672 0044 AFF30080 		.text
 672      AFF30080 
 672      AFF30080 
 673              	.Letext0:
 674              		.file 2 "/usr/lib/gcc/arm-none-eabi/4.8/include/stddef.h"
 675              		.file 3 "/usr/include/newlib/machine/_default_types.h"
 676              		.file 4 "/usr/include/newlib/stdint.h"
 677              		.file 5 "/home/efe/ChibiOS/os/rt/ports/ARMCMx/compilers/GCC/chtypes.h"
 678              		.file 6 "/home/efe/ChibiOS/os/rt/include/chsystypes.h"
 679              		.file 7 "/home/efe/ChibiOS/os/rt/include/chschd.h"
 680              		.file 8 "/home/efe/ChibiOS/os/ext/CMSIS/ST/stm32f407xx.h"
 681              		.file 9 "/home/efe/ChibiOS/os/rt/ports/ARMCMx/chcore.h"
 682              		.file 10 "/home/efe/ChibiOS/os/rt/ports/ARMCMx/chcore_v7m.h"
 683              		.file 11 "/home/efe/ChibiOS/os/rt/include/chdebug.h"
 684              		.file 12 "/home/efe/ChibiOS/os/rt/include/chtm.h"
 685              		.file 13 "/home/efe/ChibiOS/os/rt/include/chstats.h"
 686              		.file 14 "/home/efe/ChibiOS/os/rt/include/chsem.h"
 687              		.file 15 "/home/efe/ChibiOS/os/rt/include/chmtx.h"
 688              		.file 16 "/home/efe/ChibiOS/os/rt/include/chevents.h"
 689              		.file 17 "/home/efe/ChibiOS/os/rt/include/chmboxes.h"
 690              		.file 18 "/home/efe/ChibiOS/os/rt/include/chmemcore.h"
 691              		.file 19 "/home/efe/ChibiOS/os/rt/include/chmempools.h"
 692              		.file 20 "/home/efe/ChibiOS/os/rt/include/chqueues.h"
 693              		.file 21 "/home/efe/ChibiOS/os/hal/ports/STM32/LLD/GPIOv2/pal_lld.h"
 694              		.file 22 "/home/efe/ChibiOS/os/hal/include/serial.h"
 695              		.file 23 "protocol.h"
 696              		.file 24 "/home/efe/ChibiOS/os/hal/ports/STM32/LLD/USARTv1/serial_lld.h"
 697              		.file 25 "/home/efe/ChibiOS/os/ext/CMSIS/include/core_cm4.h"
 698              		.section	.debug_info,"",%progbits
 699              	.Ldebug_info0:
 700 0000 04100000 		.4byte	0x1004
 701 0004 0400     		.2byte	0x4
 702 0006 00000000 		.4byte	.Ldebug_abbrev0
 703 000a 04       		.byte	0x4
 704 000b 01       		.uleb128 0x1
 705 000c 95000000 		.4byte	.LASF227
 706 0010 01       		.byte	0x1
 707 0011 C2060000 		.4byte	.LASF228
 708 0015 02030000 		.4byte	.LASF229
 709 0019 00000000 		.4byte	.Ldebug_ranges0+0
 710 001d 00000000 		.4byte	0
 711 0021 00000000 		.4byte	.Ldebug_line0
 712 0025 02       		.uleb128 0x2
 713 0026 04       		.byte	0x4
 714 0027 05       		.byte	0x5
 715 0028 696E7400 		.ascii	"int\000"
 716 002c 03       		.uleb128 0x3
 717 002d 08000000 		.4byte	.LASF2
 718 0031 02       		.byte	0x2
 719 0032 D4       		.byte	0xd4
 720 0033 37000000 		.4byte	0x37
 721 0037 04       		.uleb128 0x4
 722 0038 04       		.byte	0x4
 723 0039 07       		.byte	0x7
 724 003a 0F060000 		.4byte	.LASF0
 725 003e 04       		.uleb128 0x4
ARM GAS  /tmp/ccRXj7ty.s 			page 14


 726 003f 01       		.byte	0x1
 727 0040 06       		.byte	0x6
 728 0041 60020000 		.4byte	.LASF1
 729 0045 03       		.uleb128 0x3
 730 0046 B5010000 		.4byte	.LASF3
 731 004a 03       		.byte	0x3
 732 004b 1D       		.byte	0x1d
 733 004c 50000000 		.4byte	0x50
 734 0050 04       		.uleb128 0x4
 735 0051 01       		.byte	0x1
 736 0052 08       		.byte	0x8
 737 0053 A8020000 		.4byte	.LASF4
 738 0057 04       		.uleb128 0x4
 739 0058 02       		.byte	0x2
 740 0059 05       		.byte	0x5
 741 005a 14080000 		.4byte	.LASF5
 742 005e 03       		.uleb128 0x3
 743 005f 50030000 		.4byte	.LASF6
 744 0063 03       		.byte	0x3
 745 0064 2B       		.byte	0x2b
 746 0065 69000000 		.4byte	0x69
 747 0069 04       		.uleb128 0x4
 748 006a 02       		.byte	0x2
 749 006b 07       		.byte	0x7
 750 006c 03090000 		.4byte	.LASF7
 751 0070 03       		.uleb128 0x3
 752 0071 44090000 		.4byte	.LASF8
 753 0075 03       		.byte	0x3
 754 0076 3F       		.byte	0x3f
 755 0077 7B000000 		.4byte	0x7b
 756 007b 04       		.uleb128 0x4
 757 007c 04       		.byte	0x4
 758 007d 05       		.byte	0x5
 759 007e EB010000 		.4byte	.LASF9
 760 0082 03       		.uleb128 0x3
 761 0083 49050000 		.4byte	.LASF10
 762 0087 03       		.byte	0x3
 763 0088 41       		.byte	0x41
 764 0089 8D000000 		.4byte	0x8d
 765 008d 04       		.uleb128 0x4
 766 008e 04       		.byte	0x4
 767 008f 07       		.byte	0x7
 768 0090 70040000 		.4byte	.LASF11
 769 0094 04       		.uleb128 0x4
 770 0095 08       		.byte	0x8
 771 0096 05       		.byte	0x5
 772 0097 54050000 		.4byte	.LASF12
 773 009b 03       		.uleb128 0x3
 774 009c 65040000 		.4byte	.LASF13
 775 00a0 03       		.byte	0x3
 776 00a1 5B       		.byte	0x5b
 777 00a2 A6000000 		.4byte	0xa6
 778 00a6 04       		.uleb128 0x4
 779 00a7 08       		.byte	0x8
 780 00a8 07       		.byte	0x7
 781 00a9 F1060000 		.4byte	.LASF14
 782 00ad 03       		.uleb128 0x3
ARM GAS  /tmp/ccRXj7ty.s 			page 15


 783 00ae 73020000 		.4byte	.LASF15
 784 00b2 04       		.byte	0x4
 785 00b3 2A       		.byte	0x2a
 786 00b4 45000000 		.4byte	0x45
 787 00b8 03       		.uleb128 0x3
 788 00b9 10070000 		.4byte	.LASF16
 789 00bd 04       		.byte	0x4
 790 00be 36       		.byte	0x36
 791 00bf 5E000000 		.4byte	0x5e
 792 00c3 03       		.uleb128 0x3
 793 00c4 50000000 		.4byte	.LASF17
 794 00c8 04       		.byte	0x4
 795 00c9 41       		.byte	0x41
 796 00ca 70000000 		.4byte	0x70
 797 00ce 03       		.uleb128 0x3
 798 00cf C4080000 		.4byte	.LASF18
 799 00d3 04       		.byte	0x4
 800 00d4 42       		.byte	0x42
 801 00d5 82000000 		.4byte	0x82
 802 00d9 03       		.uleb128 0x3
 803 00da 2B080000 		.4byte	.LASF19
 804 00de 04       		.byte	0x4
 805 00df 4E       		.byte	0x4e
 806 00e0 9B000000 		.4byte	0x9b
 807 00e4 05       		.uleb128 0x5
 808 00e5 C3000000 		.4byte	0xc3
 809 00e9 05       		.uleb128 0x5
 810 00ea CE000000 		.4byte	0xce
 811 00ee 03       		.uleb128 0x3
 812 00ef 1C060000 		.4byte	.LASF20
 813 00f3 05       		.byte	0x5
 814 00f4 45       		.byte	0x45
 815 00f5 CE000000 		.4byte	0xce
 816 00f9 03       		.uleb128 0x3
 817 00fa 13020000 		.4byte	.LASF21
 818 00fe 05       		.byte	0x5
 819 00ff 46       		.byte	0x46
 820 0100 D9000000 		.4byte	0xd9
 821 0104 03       		.uleb128 0x3
 822 0105 D8070000 		.4byte	.LASF22
 823 0109 05       		.byte	0x5
 824 010a 48       		.byte	0x48
 825 010b AD000000 		.4byte	0xad
 826 010f 03       		.uleb128 0x3
 827 0110 0A020000 		.4byte	.LASF23
 828 0114 05       		.byte	0x5
 829 0115 49       		.byte	0x49
 830 0116 AD000000 		.4byte	0xad
 831 011a 03       		.uleb128 0x3
 832 011b A3080000 		.4byte	.LASF24
 833 011f 05       		.byte	0x5
 834 0120 4A       		.byte	0x4a
 835 0121 AD000000 		.4byte	0xad
 836 0125 03       		.uleb128 0x3
 837 0126 37000000 		.4byte	.LASF25
 838 012a 05       		.byte	0x5
 839 012b 4C       		.byte	0x4c
ARM GAS  /tmp/ccRXj7ty.s 			page 16


 840 012c CE000000 		.4byte	0xce
 841 0130 03       		.uleb128 0x3
 842 0131 19070000 		.4byte	.LASF26
 843 0135 05       		.byte	0x5
 844 0136 4D       		.byte	0x4d
 845 0137 C3000000 		.4byte	0xc3
 846 013b 03       		.uleb128 0x3
 847 013c 84020000 		.4byte	.LASF27
 848 0140 05       		.byte	0x5
 849 0141 4F       		.byte	0x4f
 850 0142 CE000000 		.4byte	0xce
 851 0146 03       		.uleb128 0x3
 852 0147 30070000 		.4byte	.LASF28
 853 014b 05       		.byte	0x5
 854 014c 50       		.byte	0x50
 855 014d CE000000 		.4byte	0xce
 856 0151 03       		.uleb128 0x3
 857 0152 CC030000 		.4byte	.LASF29
 858 0156 05       		.byte	0x5
 859 0157 51       		.byte	0x51
 860 0158 C3000000 		.4byte	0xc3
 861 015c 03       		.uleb128 0x3
 862 015d EF040000 		.4byte	.LASF30
 863 0161 05       		.byte	0x5
 864 0162 52       		.byte	0x52
 865 0163 CE000000 		.4byte	0xce
 866 0167 03       		.uleb128 0x3
 867 0168 1F000000 		.4byte	.LASF31
 868 016c 06       		.byte	0x6
 869 016d 33       		.byte	0x33
 870 016e CE000000 		.4byte	0xce
 871 0172 03       		.uleb128 0x3
 872 0173 7F060000 		.4byte	.LASF32
 873 0177 06       		.byte	0x6
 874 0178 3F       		.byte	0x3f
 875 0179 7D010000 		.4byte	0x17d
 876 017d 06       		.uleb128 0x6
 877 017e 94040000 		.4byte	.LASF54
 878 0182 60       		.byte	0x60
 879 0183 07       		.byte	0x7
 880 0184 C2       		.byte	0xc2
 881 0185 83020000 		.4byte	0x283
 882 0189 07       		.uleb128 0x7
 883 018a F4010000 		.4byte	.LASF33
 884 018e 07       		.byte	0x7
 885 018f C3       		.byte	0xc3
 886 0190 8E020000 		.4byte	0x28e
 887 0194 00       		.byte	0
 888 0195 07       		.uleb128 0x7
 889 0196 03020000 		.4byte	.LASF34
 890 019a 07       		.byte	0x7
 891 019b C5       		.byte	0xc5
 892 019c 8E020000 		.4byte	0x28e
 893 01a0 04       		.byte	0x4
 894 01a1 07       		.uleb128 0x7
 895 01a2 49030000 		.4byte	.LASF35
 896 01a6 07       		.byte	0x7
ARM GAS  /tmp/ccRXj7ty.s 			page 17


 897 01a7 C7       		.byte	0xc7
 898 01a8 25010000 		.4byte	0x125
 899 01ac 08       		.byte	0x8
 900 01ad 07       		.uleb128 0x7
 901 01ae 31000000 		.4byte	.LASF36
 902 01b2 07       		.byte	0x7
 903 01b3 C8       		.byte	0xc8
 904 01b4 66050000 		.4byte	0x566
 905 01b8 0C       		.byte	0xc
 906 01b9 07       		.uleb128 0x7
 907 01ba E3010000 		.4byte	.LASF37
 908 01be 07       		.byte	0x7
 909 01bf CA       		.byte	0xca
 910 01c0 8E020000 		.4byte	0x28e
 911 01c4 10       		.byte	0x10
 912 01c5 07       		.uleb128 0x7
 913 01c6 08070000 		.4byte	.LASF38
 914 01ca 07       		.byte	0x7
 915 01cb CB       		.byte	0xcb
 916 01cc 8E020000 		.4byte	0x28e
 917 01d0 14       		.byte	0x14
 918 01d1 07       		.uleb128 0x7
 919 01d2 7A090000 		.4byte	.LASF39
 920 01d6 07       		.byte	0x7
 921 01d7 D2       		.byte	0xd2
 922 01d8 0A080000 		.4byte	0x80a
 923 01dc 18       		.byte	0x18
 924 01dd 07       		.uleb128 0x7
 925 01de 31090000 		.4byte	.LASF40
 926 01e2 07       		.byte	0x7
 927 01e3 D8       		.byte	0xd8
 928 01e4 1C080000 		.4byte	0x81c
 929 01e8 1C       		.byte	0x1c
 930 01e9 07       		.uleb128 0x7
 931 01ea C8090000 		.4byte	.LASF41
 932 01ee 07       		.byte	0x7
 933 01ef DD       		.byte	0xdd
 934 01f0 0F010000 		.4byte	0x10f
 935 01f4 20       		.byte	0x20
 936 01f5 07       		.uleb128 0x7
 937 01f6 F3050000 		.4byte	.LASF42
 938 01fa 07       		.byte	0x7
 939 01fb E1       		.byte	0xe1
 940 01fc 04010000 		.4byte	0x104
 941 0200 21       		.byte	0x21
 942 0201 07       		.uleb128 0x7
 943 0202 2C060000 		.4byte	.LASF43
 944 0206 07       		.byte	0x7
 945 0207 E6       		.byte	0xe6
 946 0208 1A010000 		.4byte	0x11a
 947 020c 22       		.byte	0x22
 948 020d 08       		.uleb128 0x8
 949 020e 705F7500 		.ascii	"p_u\000"
 950 0212 07       		.byte	0x7
 951 0213 3101     		.2byte	0x131
 952 0215 45070000 		.4byte	0x745
 953 0219 24       		.byte	0x24
ARM GAS  /tmp/ccRXj7ty.s 			page 18


 954 021a 09       		.uleb128 0x9
 955 021b D9050000 		.4byte	.LASF44
 956 021f 07       		.byte	0x7
 957 0220 3601     		.2byte	0x136
 958 0222 94020000 		.4byte	0x294
 959 0226 28       		.byte	0x28
 960 0227 09       		.uleb128 0x9
 961 0228 3F000000 		.4byte	.LASF45
 962 022c 07       		.byte	0x7
 963 022d 3C01     		.2byte	0x13c
 964 022f B8020000 		.4byte	0x2b8
 965 0233 2C       		.byte	0x2c
 966 0234 09       		.uleb128 0x9
 967 0235 B6090000 		.4byte	.LASF46
 968 0239 07       		.byte	0x7
 969 023a 4001     		.2byte	0x140
 970 023c 30010000 		.4byte	0x130
 971 0240 34       		.byte	0x34
 972 0241 09       		.uleb128 0x9
 973 0242 F3030000 		.4byte	.LASF47
 974 0246 07       		.byte	0x7
 975 0247 4601     		.2byte	0x146
 976 0249 3B010000 		.4byte	0x13b
 977 024d 38       		.byte	0x38
 978 024e 09       		.uleb128 0x9
 979 024f 2C020000 		.4byte	.LASF48
 980 0253 07       		.byte	0x7
 981 0254 4D01     		.2byte	0x14d
 982 0256 04080000 		.4byte	0x804
 983 025a 3C       		.byte	0x3c
 984 025b 09       		.uleb128 0x9
 985 025c 9B060000 		.4byte	.LASF49
 986 0260 07       		.byte	0x7
 987 0261 5101     		.2byte	0x151
 988 0263 25010000 		.4byte	0x125
 989 0267 40       		.byte	0x40
 990 0268 09       		.uleb128 0x9
 991 0269 24060000 		.4byte	.LASF50
 992 026d 07       		.byte	0x7
 993 026e 5801     		.2byte	0x158
 994 0270 6B030000 		.4byte	0x36b
 995 0274 44       		.byte	0x44
 996 0275 09       		.uleb128 0x9
 997 0276 00000000 		.4byte	.LASF51
 998 027a 07       		.byte	0x7
 999 027b 5E01     		.2byte	0x15e
 1000 027d F6060000 		.4byte	0x6f6
 1001 0281 48       		.byte	0x48
 1002 0282 00       		.byte	0
 1003 0283 03       		.uleb128 0x3
 1004 0284 88060000 		.4byte	.LASF52
 1005 0288 06       		.byte	0x6
 1006 0289 44       		.byte	0x44
 1007 028a 8E020000 		.4byte	0x28e
 1008 028e 0A       		.uleb128 0xa
 1009 028f 04       		.byte	0x4
 1010 0290 72010000 		.4byte	0x172
ARM GAS  /tmp/ccRXj7ty.s 			page 19


 1011 0294 03       		.uleb128 0x3
 1012 0295 AB080000 		.4byte	.LASF53
 1013 0299 06       		.byte	0x6
 1014 029a 49       		.byte	0x49
 1015 029b 9F020000 		.4byte	0x29f
 1016 029f 06       		.uleb128 0x6
 1017 02a0 12050000 		.4byte	.LASF55
 1018 02a4 04       		.byte	0x4
 1019 02a5 07       		.byte	0x7
 1020 02a6 B0       		.byte	0xb0
 1021 02a7 B8020000 		.4byte	0x2b8
 1022 02ab 07       		.uleb128 0x7
 1023 02ac F4010000 		.4byte	.LASF33
 1024 02b0 07       		.byte	0x7
 1025 02b1 B1       		.byte	0xb1
 1026 02b2 8E020000 		.4byte	0x28e
 1027 02b6 00       		.byte	0
 1028 02b7 00       		.byte	0
 1029 02b8 03       		.uleb128 0x3
 1030 02b9 1C020000 		.4byte	.LASF56
 1031 02bd 06       		.byte	0x6
 1032 02be 50       		.byte	0x50
 1033 02bf C3020000 		.4byte	0x2c3
 1034 02c3 06       		.uleb128 0x6
 1035 02c4 1F070000 		.4byte	.LASF57
 1036 02c8 08       		.byte	0x8
 1037 02c9 07       		.byte	0x7
 1038 02ca B7       		.byte	0xb7
 1039 02cb E8020000 		.4byte	0x2e8
 1040 02cf 07       		.uleb128 0x7
 1041 02d0 F4010000 		.4byte	.LASF33
 1042 02d4 07       		.byte	0x7
 1043 02d5 B8       		.byte	0xb8
 1044 02d6 8E020000 		.4byte	0x28e
 1045 02da 00       		.byte	0
 1046 02db 07       		.uleb128 0x7
 1047 02dc 03020000 		.4byte	.LASF34
 1048 02e0 07       		.byte	0x7
 1049 02e1 B9       		.byte	0xb9
 1050 02e2 8E020000 		.4byte	0x28e
 1051 02e6 04       		.byte	0x4
 1052 02e7 00       		.byte	0
 1053 02e8 03       		.uleb128 0x3
 1054 02e9 D5040000 		.4byte	.LASF58
 1055 02ed 06       		.byte	0x6
 1056 02ee 57       		.byte	0x57
 1057 02ef F3020000 		.4byte	0x2f3
 1058 02f3 0B       		.uleb128 0xb
 1059 02f4 05040000 		.4byte	.LASF59
 1060 02f8 1C       		.byte	0x1c
 1061 02f9 07       		.byte	0x7
 1062 02fa 9001     		.2byte	0x190
 1063 02fc 4F030000 		.4byte	0x34f
 1064 0300 09       		.uleb128 0x9
 1065 0301 99070000 		.4byte	.LASF60
 1066 0305 07       		.byte	0x7
 1067 0306 9101     		.2byte	0x191
ARM GAS  /tmp/ccRXj7ty.s 			page 20


 1068 0308 B8020000 		.4byte	0x2b8
 1069 030c 00       		.byte	0
 1070 030d 09       		.uleb128 0x9
 1071 030e 44080000 		.4byte	.LASF61
 1072 0312 07       		.byte	0x7
 1073 0313 9201     		.2byte	0x192
 1074 0315 25010000 		.4byte	0x125
 1075 0319 08       		.byte	0x8
 1076 031a 09       		.uleb128 0x9
 1077 031b 4A000000 		.4byte	.LASF62
 1078 031f 07       		.byte	0x7
 1079 0320 9401     		.2byte	0x194
 1080 0322 66050000 		.4byte	0x566
 1081 0326 0C       		.byte	0xc
 1082 0327 09       		.uleb128 0x9
 1083 0328 E1020000 		.4byte	.LASF63
 1084 032c 07       		.byte	0x7
 1085 032d 9701     		.2byte	0x197
 1086 032f 8E020000 		.4byte	0x28e
 1087 0333 10       		.byte	0x10
 1088 0334 09       		.uleb128 0x9
 1089 0335 F3070000 		.4byte	.LASF64
 1090 0339 07       		.byte	0x7
 1091 033a 9801     		.2byte	0x198
 1092 033c 8E020000 		.4byte	0x28e
 1093 0340 14       		.byte	0x14
 1094 0341 09       		.uleb128 0x9
 1095 0342 3D070000 		.4byte	.LASF65
 1096 0346 07       		.byte	0x7
 1097 0347 9B01     		.2byte	0x19b
 1098 0349 8E020000 		.4byte	0x28e
 1099 034d 18       		.byte	0x18
 1100 034e 00       		.byte	0
 1101 034f 03       		.uleb128 0x3
 1102 0350 5F000000 		.4byte	.LASF66
 1103 0354 06       		.byte	0x6
 1104 0355 5C       		.byte	0x5c
 1105 0356 5A030000 		.4byte	0x35a
 1106 035a 0A       		.uleb128 0xa
 1107 035b 04       		.byte	0x4
 1108 035c 60030000 		.4byte	0x360
 1109 0360 0C       		.uleb128 0xc
 1110 0361 6B030000 		.4byte	0x36b
 1111 0365 0D       		.uleb128 0xd
 1112 0366 6B030000 		.4byte	0x36b
 1113 036a 00       		.byte	0
 1114 036b 0E       		.uleb128 0xe
 1115 036c 04       		.byte	0x4
 1116 036d 03       		.uleb128 0x3
 1117 036e C5040000 		.4byte	.LASF67
 1118 0372 06       		.byte	0x6
 1119 0373 61       		.byte	0x61
 1120 0374 78030000 		.4byte	0x378
 1121 0378 0B       		.uleb128 0xb
 1122 0379 CD060000 		.4byte	.LASF68
 1123 037d 14       		.byte	0x14
 1124 037e 07       		.byte	0x7
ARM GAS  /tmp/ccRXj7ty.s 			page 21


 1125 037f 6B01     		.2byte	0x16b
 1126 0381 C7030000 		.4byte	0x3c7
 1127 0385 09       		.uleb128 0x9
 1128 0386 75050000 		.4byte	.LASF69
 1129 038a 07       		.byte	0x7
 1130 038b 6C01     		.2byte	0x16c
 1131 038d 22080000 		.4byte	0x822
 1132 0391 00       		.byte	0
 1133 0392 09       		.uleb128 0x9
 1134 0393 86050000 		.4byte	.LASF70
 1135 0397 07       		.byte	0x7
 1136 0398 6D01     		.2byte	0x16d
 1137 039a 22080000 		.4byte	0x822
 1138 039e 04       		.byte	0x4
 1139 039f 09       		.uleb128 0x9
 1140 03a0 B9060000 		.4byte	.LASF71
 1141 03a4 07       		.byte	0x7
 1142 03a5 6E01     		.2byte	0x16e
 1143 03a7 67010000 		.4byte	0x167
 1144 03ab 08       		.byte	0x8
 1145 03ac 09       		.uleb128 0x9
 1146 03ad D2030000 		.4byte	.LASF72
 1147 03b1 07       		.byte	0x7
 1148 03b2 6F01     		.2byte	0x16f
 1149 03b4 4F030000 		.4byte	0x34f
 1150 03b8 0C       		.byte	0xc
 1151 03b9 09       		.uleb128 0x9
 1152 03ba 9D010000 		.4byte	.LASF73
 1153 03be 07       		.byte	0x7
 1154 03bf 7101     		.2byte	0x171
 1155 03c1 6B030000 		.4byte	0x36b
 1156 03c5 10       		.byte	0x10
 1157 03c6 00       		.byte	0
 1158 03c7 03       		.uleb128 0x3
 1159 03c8 9E040000 		.4byte	.LASF74
 1160 03cc 06       		.byte	0x6
 1161 03cd 66       		.byte	0x66
 1162 03ce D2030000 		.4byte	0x3d2
 1163 03d2 0B       		.uleb128 0xb
 1164 03d3 78000000 		.4byte	.LASF75
 1165 03d7 10       		.byte	0x10
 1166 03d8 07       		.byte	0x7
 1167 03d9 7B01     		.2byte	0x17b
 1168 03db 14040000 		.4byte	0x414
 1169 03df 09       		.uleb128 0x9
 1170 03e0 75050000 		.4byte	.LASF69
 1171 03e4 07       		.byte	0x7
 1172 03e5 7C01     		.2byte	0x17c
 1173 03e7 22080000 		.4byte	0x822
 1174 03eb 00       		.byte	0
 1175 03ec 09       		.uleb128 0x9
 1176 03ed 86050000 		.4byte	.LASF70
 1177 03f1 07       		.byte	0x7
 1178 03f2 7E01     		.2byte	0x17e
 1179 03f4 22080000 		.4byte	0x822
 1180 03f8 04       		.byte	0x4
 1181 03f9 09       		.uleb128 0x9
ARM GAS  /tmp/ccRXj7ty.s 			page 22


 1182 03fa B9060000 		.4byte	.LASF71
 1183 03fe 07       		.byte	0x7
 1184 03ff 8001     		.2byte	0x180
 1185 0401 67010000 		.4byte	0x167
 1186 0405 08       		.byte	0x8
 1187 0406 09       		.uleb128 0x9
 1188 0407 F7080000 		.4byte	.LASF76
 1189 040b 07       		.byte	0x7
 1190 040c 8801     		.2byte	0x188
 1191 040e 67010000 		.4byte	0x167
 1192 0412 0C       		.byte	0xc
 1193 0413 00       		.byte	0
 1194 0414 03       		.uleb128 0x3
 1195 0415 E9020000 		.4byte	.LASF77
 1196 0419 06       		.byte	0x6
 1197 041a 6B       		.byte	0x6b
 1198 041b 1F040000 		.4byte	0x41f
 1199 041f 0F       		.uleb128 0xf
 1200 0420 4B080000 		.4byte	.LASF78
 1201 0424 1404     		.2byte	0x414
 1202 0426 07       		.byte	0x7
 1203 0427 A201     		.2byte	0x1a2
 1204 0429 62040000 		.4byte	0x462
 1205 042d 09       		.uleb128 0x9
 1206 042e CA020000 		.4byte	.LASF79
 1207 0432 07       		.byte	0x7
 1208 0433 AA01     		.2byte	0x1aa
 1209 0435 28080000 		.4byte	0x828
 1210 0439 00       		.byte	0
 1211 043a 09       		.uleb128 0x9
 1212 043b 26040000 		.4byte	.LASF80
 1213 043f 07       		.byte	0x7
 1214 0440 AF01     		.2byte	0x1af
 1215 0442 51010000 		.4byte	0x151
 1216 0446 04       		.byte	0x4
 1217 0447 09       		.uleb128 0x9
 1218 0448 68010000 		.4byte	.LASF81
 1219 044c 07       		.byte	0x7
 1220 044d B301     		.2byte	0x1b3
 1221 044f 51010000 		.4byte	0x151
 1222 0453 08       		.byte	0x8
 1223 0454 09       		.uleb128 0x9
 1224 0455 D4020000 		.4byte	.LASF82
 1225 0459 07       		.byte	0x7
 1226 045a B901     		.2byte	0x1b9
 1227 045c 88060000 		.4byte	0x688
 1228 0460 0C       		.byte	0xc
 1229 0461 00       		.byte	0
 1230 0462 03       		.uleb128 0x3
 1231 0463 16090000 		.4byte	.LASF83
 1232 0467 06       		.byte	0x6
 1233 0468 70       		.byte	0x70
 1234 0469 6D040000 		.4byte	0x46d
 1235 046d 0F       		.uleb128 0xf
 1236 046e BA080000 		.4byte	.LASF84
 1237 0472 D805     		.2byte	0x5d8
 1238 0474 07       		.byte	0x7
ARM GAS  /tmp/ccRXj7ty.s 			page 23


 1239 0475 C201     		.2byte	0x1c2
 1240 0477 DA040000 		.4byte	0x4da
 1241 047b 09       		.uleb128 0x9
 1242 047c D2070000 		.4byte	.LASF85
 1243 0480 07       		.byte	0x7
 1244 0481 C601     		.2byte	0x1c6
 1245 0483 E8020000 		.4byte	0x2e8
 1246 0487 00       		.byte	0
 1247 0488 09       		.uleb128 0x9
 1248 0489 77080000 		.4byte	.LASF86
 1249 048d 07       		.byte	0x7
 1250 048e CA01     		.2byte	0x1ca
 1251 0490 C7030000 		.4byte	0x3c7
 1252 0494 1C       		.byte	0x1c
 1253 0495 08       		.uleb128 0x8
 1254 0496 64626700 		.ascii	"dbg\000"
 1255 049a 07       		.byte	0x7
 1256 049b CE01     		.2byte	0x1ce
 1257 049d 14040000 		.4byte	0x414
 1258 04a1 2C       		.byte	0x2c
 1259 04a2 10       		.uleb128 0x10
 1260 04a3 89070000 		.4byte	.LASF87
 1261 04a7 07       		.byte	0x7
 1262 04a8 D201     		.2byte	0x1d2
 1263 04aa 72010000 		.4byte	0x172
 1264 04ae 4004     		.2byte	0x440
 1265 04b0 11       		.uleb128 0x11
 1266 04b1 746D00   		.ascii	"tm\000"
 1267 04b4 07       		.byte	0x7
 1268 04b5 D701     		.2byte	0x1d7
 1269 04b7 A8060000 		.4byte	0x6a8
 1270 04bb A004     		.2byte	0x4a0
 1271 04bd 10       		.uleb128 0x10
 1272 04be E4060000 		.4byte	.LASF88
 1273 04c2 07       		.byte	0x7
 1274 04c3 DD01     		.2byte	0x1dd
 1275 04c5 3A070000 		.4byte	0x73a
 1276 04c9 A804     		.2byte	0x4a8
 1277 04cb 10       		.uleb128 0x10
 1278 04cc 00060000 		.4byte	.LASF89
 1279 04d0 07       		.byte	0x7
 1280 04d1 E301     		.2byte	0x1e3
 1281 04d3 2D080000 		.4byte	0x82d
 1282 04d7 E004     		.2byte	0x4e0
 1283 04d9 00       		.byte	0
 1284 04da 04       		.uleb128 0x4
 1285 04db 04       		.byte	0x4
 1286 04dc 07       		.byte	0x7
 1287 04dd 0F000000 		.4byte	.LASF90
 1288 04e1 12       		.uleb128 0x12
 1289 04e2 1C       		.byte	0x1c
 1290 04e3 08       		.byte	0x8
 1291 04e4 0903     		.2byte	0x309
 1292 04e6 44050000 		.4byte	0x544
 1293 04ea 08       		.uleb128 0x8
 1294 04eb 535200   		.ascii	"SR\000"
 1295 04ee 08       		.byte	0x8
ARM GAS  /tmp/ccRXj7ty.s 			page 24


 1296 04ef 0B03     		.2byte	0x30b
 1297 04f1 E9000000 		.4byte	0xe9
 1298 04f5 00       		.byte	0
 1299 04f6 08       		.uleb128 0x8
 1300 04f7 445200   		.ascii	"DR\000"
 1301 04fa 08       		.byte	0x8
 1302 04fb 0C03     		.2byte	0x30c
 1303 04fd E9000000 		.4byte	0xe9
 1304 0501 04       		.byte	0x4
 1305 0502 08       		.uleb128 0x8
 1306 0503 42525200 		.ascii	"BRR\000"
 1307 0507 08       		.byte	0x8
 1308 0508 0D03     		.2byte	0x30d
 1309 050a E9000000 		.4byte	0xe9
 1310 050e 08       		.byte	0x8
 1311 050f 08       		.uleb128 0x8
 1312 0510 43523100 		.ascii	"CR1\000"
 1313 0514 08       		.byte	0x8
 1314 0515 0E03     		.2byte	0x30e
 1315 0517 E9000000 		.4byte	0xe9
 1316 051b 0C       		.byte	0xc
 1317 051c 08       		.uleb128 0x8
 1318 051d 43523200 		.ascii	"CR2\000"
 1319 0521 08       		.byte	0x8
 1320 0522 0F03     		.2byte	0x30f
 1321 0524 E9000000 		.4byte	0xe9
 1322 0528 10       		.byte	0x10
 1323 0529 08       		.uleb128 0x8
 1324 052a 43523300 		.ascii	"CR3\000"
 1325 052e 08       		.byte	0x8
 1326 052f 1003     		.2byte	0x310
 1327 0531 E9000000 		.4byte	0xe9
 1328 0535 14       		.byte	0x14
 1329 0536 09       		.uleb128 0x9
 1330 0537 8E050000 		.4byte	.LASF91
 1331 053b 08       		.byte	0x8
 1332 053c 1103     		.2byte	0x311
 1333 053e E9000000 		.4byte	0xe9
 1334 0542 18       		.byte	0x18
 1335 0543 00       		.byte	0
 1336 0544 13       		.uleb128 0x13
 1337 0545 87030000 		.4byte	.LASF92
 1338 0549 08       		.byte	0x8
 1339 054a 1203     		.2byte	0x312
 1340 054c E1040000 		.4byte	0x4e1
 1341 0550 03       		.uleb128 0x3
 1342 0551 3D020000 		.4byte	.LASF93
 1343 0555 09       		.byte	0x9
 1344 0556 65       		.byte	0x65
 1345 0557 6B030000 		.4byte	0x36b
 1346 055b 03       		.uleb128 0x3
 1347 055c 7C030000 		.4byte	.LASF94
 1348 0560 09       		.byte	0x9
 1349 0561 6D       		.byte	0x6d
 1350 0562 D9000000 		.4byte	0xd9
 1351 0566 06       		.uleb128 0x6
 1352 0567 9A020000 		.4byte	.LASF95
ARM GAS  /tmp/ccRXj7ty.s 			page 25


 1353 056b 04       		.byte	0x4
 1354 056c 09       		.byte	0x9
 1355 056d 89       		.byte	0x89
 1356 056e 7F050000 		.4byte	0x57f
 1357 0572 14       		.uleb128 0x14
 1358 0573 72313300 		.ascii	"r13\000"
 1359 0577 09       		.byte	0x9
 1360 0578 8A       		.byte	0x8a
 1361 0579 FA050000 		.4byte	0x5fa
 1362 057d 00       		.byte	0
 1363 057e 00       		.byte	0
 1364 057f 06       		.uleb128 0x6
 1365 0580 A6060000 		.4byte	.LASF96
 1366 0584 24       		.byte	0x24
 1367 0585 0A       		.byte	0xa
 1368 0586 FD       		.byte	0xfd
 1369 0587 FA050000 		.4byte	0x5fa
 1370 058b 08       		.uleb128 0x8
 1371 058c 723400   		.ascii	"r4\000"
 1372 058f 0A       		.byte	0xa
 1373 0590 1001     		.2byte	0x110
 1374 0592 50050000 		.4byte	0x550
 1375 0596 00       		.byte	0
 1376 0597 08       		.uleb128 0x8
 1377 0598 723500   		.ascii	"r5\000"
 1378 059b 0A       		.byte	0xa
 1379 059c 1101     		.2byte	0x111
 1380 059e 50050000 		.4byte	0x550
 1381 05a2 04       		.byte	0x4
 1382 05a3 08       		.uleb128 0x8
 1383 05a4 723600   		.ascii	"r6\000"
 1384 05a7 0A       		.byte	0xa
 1385 05a8 1201     		.2byte	0x112
 1386 05aa 50050000 		.4byte	0x550
 1387 05ae 08       		.byte	0x8
 1388 05af 08       		.uleb128 0x8
 1389 05b0 723700   		.ascii	"r7\000"
 1390 05b3 0A       		.byte	0xa
 1391 05b4 1301     		.2byte	0x113
 1392 05b6 50050000 		.4byte	0x550
 1393 05ba 0C       		.byte	0xc
 1394 05bb 08       		.uleb128 0x8
 1395 05bc 723800   		.ascii	"r8\000"
 1396 05bf 0A       		.byte	0xa
 1397 05c0 1401     		.2byte	0x114
 1398 05c2 50050000 		.4byte	0x550
 1399 05c6 10       		.byte	0x10
 1400 05c7 08       		.uleb128 0x8
 1401 05c8 723900   		.ascii	"r9\000"
 1402 05cb 0A       		.byte	0xa
 1403 05cc 1501     		.2byte	0x115
 1404 05ce 50050000 		.4byte	0x550
 1405 05d2 14       		.byte	0x14
 1406 05d3 08       		.uleb128 0x8
 1407 05d4 72313000 		.ascii	"r10\000"
 1408 05d8 0A       		.byte	0xa
 1409 05d9 1601     		.2byte	0x116
ARM GAS  /tmp/ccRXj7ty.s 			page 26


 1410 05db 50050000 		.4byte	0x550
 1411 05df 18       		.byte	0x18
 1412 05e0 08       		.uleb128 0x8
 1413 05e1 72313100 		.ascii	"r11\000"
 1414 05e5 0A       		.byte	0xa
 1415 05e6 1701     		.2byte	0x117
 1416 05e8 50050000 		.4byte	0x550
 1417 05ec 1C       		.byte	0x1c
 1418 05ed 08       		.uleb128 0x8
 1419 05ee 6C7200   		.ascii	"lr\000"
 1420 05f1 0A       		.byte	0xa
 1421 05f2 1801     		.2byte	0x118
 1422 05f4 50050000 		.4byte	0x550
 1423 05f8 20       		.byte	0x20
 1424 05f9 00       		.byte	0
 1425 05fa 0A       		.uleb128 0xa
 1426 05fb 04       		.byte	0x4
 1427 05fc 7F050000 		.4byte	0x57f
 1428 0600 15       		.uleb128 0x15
 1429 0601 10       		.byte	0x10
 1430 0602 0B       		.byte	0xb
 1431 0603 51       		.byte	0x51
 1432 0604 39060000 		.4byte	0x639
 1433 0608 07       		.uleb128 0x7
 1434 0609 67090000 		.4byte	.LASF97
 1435 060d 0B       		.byte	0xb
 1436 060e 55       		.byte	0x55
 1437 060f 67010000 		.4byte	0x167
 1438 0613 00       		.byte	0
 1439 0614 07       		.uleb128 0x7
 1440 0615 76010000 		.4byte	.LASF98
 1441 0619 0B       		.byte	0xb
 1442 061a 59       		.byte	0x59
 1443 061b 8E020000 		.4byte	0x28e
 1444 061f 04       		.byte	0x4
 1445 0620 07       		.uleb128 0x7
 1446 0621 E9050000 		.4byte	.LASF99
 1447 0625 0B       		.byte	0xb
 1448 0626 5D       		.byte	0x5d
 1449 0627 6B030000 		.4byte	0x36b
 1450 062b 08       		.byte	0x8
 1451 062c 07       		.uleb128 0x7
 1452 062d 51040000 		.4byte	.LASF100
 1453 0631 0B       		.byte	0xb
 1454 0632 61       		.byte	0x61
 1455 0633 AD000000 		.4byte	0xad
 1456 0637 0C       		.byte	0xc
 1457 0638 00       		.byte	0
 1458 0639 03       		.uleb128 0x3
 1459 063a 22050000 		.4byte	.LASF101
 1460 063e 0B       		.byte	0xb
 1461 063f 62       		.byte	0x62
 1462 0640 00060000 		.4byte	0x600
 1463 0644 16       		.uleb128 0x16
 1464 0645 0804     		.2byte	0x408
 1465 0647 0B       		.byte	0xb
 1466 0648 67       		.byte	0x67
ARM GAS  /tmp/ccRXj7ty.s 			page 27


 1467 0649 72060000 		.4byte	0x672
 1468 064d 07       		.uleb128 0x7
 1469 064e 93050000 		.4byte	.LASF102
 1470 0652 0B       		.byte	0xb
 1471 0653 6B       		.byte	0x6b
 1472 0654 37000000 		.4byte	0x37
 1473 0658 00       		.byte	0
 1474 0659 07       		.uleb128 0x7
 1475 065a 92090000 		.4byte	.LASF103
 1476 065e 0B       		.byte	0xb
 1477 065f 6F       		.byte	0x6f
 1478 0660 72060000 		.4byte	0x672
 1479 0664 04       		.byte	0x4
 1480 0665 07       		.uleb128 0x7
 1481 0666 68060000 		.4byte	.LASF104
 1482 066a 0B       		.byte	0xb
 1483 066b 73       		.byte	0x73
 1484 066c 78060000 		.4byte	0x678
 1485 0670 08       		.byte	0x8
 1486 0671 00       		.byte	0
 1487 0672 0A       		.uleb128 0xa
 1488 0673 04       		.byte	0x4
 1489 0674 39060000 		.4byte	0x639
 1490 0678 17       		.uleb128 0x17
 1491 0679 39060000 		.4byte	0x639
 1492 067d 88060000 		.4byte	0x688
 1493 0681 18       		.uleb128 0x18
 1494 0682 DA040000 		.4byte	0x4da
 1495 0686 3F       		.byte	0x3f
 1496 0687 00       		.byte	0
 1497 0688 03       		.uleb128 0x3
 1498 0689 E1030000 		.4byte	.LASF105
 1499 068d 0B       		.byte	0xb
 1500 068e 74       		.byte	0x74
 1501 068f 44060000 		.4byte	0x644
 1502 0693 15       		.uleb128 0x15
 1503 0694 04       		.byte	0x4
 1504 0695 0C       		.byte	0xc
 1505 0696 38       		.byte	0x38
 1506 0697 A8060000 		.4byte	0x6a8
 1507 069b 07       		.uleb128 0x7
 1508 069c 56060000 		.4byte	.LASF106
 1509 06a0 0C       		.byte	0xc
 1510 06a1 3C       		.byte	0x3c
 1511 06a2 EE000000 		.4byte	0xee
 1512 06a6 00       		.byte	0
 1513 06a7 00       		.byte	0
 1514 06a8 03       		.uleb128 0x3
 1515 06a9 FB070000 		.4byte	.LASF107
 1516 06ad 0C       		.byte	0xc
 1517 06ae 3D       		.byte	0x3d
 1518 06af 93060000 		.4byte	0x693
 1519 06b3 15       		.uleb128 0x15
 1520 06b4 18       		.byte	0x18
 1521 06b5 0C       		.byte	0xc
 1522 06b6 48       		.byte	0x48
 1523 06b7 F6060000 		.4byte	0x6f6
ARM GAS  /tmp/ccRXj7ty.s 			page 28


 1524 06bb 07       		.uleb128 0x7
 1525 06bc 94070000 		.4byte	.LASF108
 1526 06c0 0C       		.byte	0xc
 1527 06c1 49       		.byte	0x49
 1528 06c2 EE000000 		.4byte	0xee
 1529 06c6 00       		.byte	0
 1530 06c7 07       		.uleb128 0x7
 1531 06c8 A8030000 		.4byte	.LASF109
 1532 06cc 0C       		.byte	0xc
 1533 06cd 4A       		.byte	0x4a
 1534 06ce EE000000 		.4byte	0xee
 1535 06d2 04       		.byte	0x4
 1536 06d3 07       		.uleb128 0x7
 1537 06d4 B1090000 		.4byte	.LASF110
 1538 06d8 0C       		.byte	0xc
 1539 06d9 4B       		.byte	0x4b
 1540 06da EE000000 		.4byte	0xee
 1541 06de 08       		.byte	0x8
 1542 06df 14       		.uleb128 0x14
 1543 06e0 6E00     		.ascii	"n\000"
 1544 06e2 0C       		.byte	0xc
 1545 06e3 4C       		.byte	0x4c
 1546 06e4 5C010000 		.4byte	0x15c
 1547 06e8 0C       		.byte	0xc
 1548 06e9 07       		.uleb128 0x7
 1549 06ea 55020000 		.4byte	.LASF111
 1550 06ee 0C       		.byte	0xc
 1551 06ef 4D       		.byte	0x4d
 1552 06f0 F9000000 		.4byte	0xf9
 1553 06f4 10       		.byte	0x10
 1554 06f5 00       		.byte	0
 1555 06f6 03       		.uleb128 0x3
 1556 06f7 7C010000 		.4byte	.LASF112
 1557 06fb 0C       		.byte	0xc
 1558 06fc 4E       		.byte	0x4e
 1559 06fd B3060000 		.4byte	0x6b3
 1560 0701 15       		.uleb128 0x15
 1561 0702 38       		.byte	0x38
 1562 0703 0D       		.byte	0xd
 1563 0704 38       		.byte	0x38
 1564 0705 3A070000 		.4byte	0x73a
 1565 0709 07       		.uleb128 0x7
 1566 070a 31050000 		.4byte	.LASF113
 1567 070e 0D       		.byte	0xd
 1568 070f 39       		.byte	0x39
 1569 0710 5C010000 		.4byte	0x15c
 1570 0714 00       		.byte	0
 1571 0715 07       		.uleb128 0x7
 1572 0716 6E030000 		.4byte	.LASF114
 1573 071a 0D       		.byte	0xd
 1574 071b 3A       		.byte	0x3a
 1575 071c 5C010000 		.4byte	0x15c
 1576 0720 04       		.byte	0x4
 1577 0721 07       		.uleb128 0x7
 1578 0722 5A040000 		.4byte	.LASF115
 1579 0726 0D       		.byte	0xd
 1580 0727 3B       		.byte	0x3b
ARM GAS  /tmp/ccRXj7ty.s 			page 29


 1581 0728 F6060000 		.4byte	0x6f6
 1582 072c 08       		.byte	0x8
 1583 072d 07       		.uleb128 0x7
 1584 072e 34040000 		.4byte	.LASF116
 1585 0732 0D       		.byte	0xd
 1586 0733 3D       		.byte	0x3d
 1587 0734 F6060000 		.4byte	0x6f6
 1588 0738 20       		.byte	0x20
 1589 0739 00       		.byte	0
 1590 073a 03       		.uleb128 0x3
 1591 073b 3D060000 		.4byte	.LASF117
 1592 073f 0D       		.byte	0xd
 1593 0740 3F       		.byte	0x3f
 1594 0741 01070000 		.4byte	0x701
 1595 0745 19       		.uleb128 0x19
 1596 0746 04       		.byte	0x4
 1597 0747 07       		.byte	0x7
 1598 0748 FA       		.byte	0xfa
 1599 0749 A2070000 		.4byte	0x7a2
 1600 074d 1A       		.uleb128 0x1a
 1601 074e F0080000 		.4byte	.LASF118
 1602 0752 07       		.byte	0x7
 1603 0753 0101     		.2byte	0x101
 1604 0755 30010000 		.4byte	0x130
 1605 0759 1A       		.uleb128 0x1a
 1606 075a A4010000 		.4byte	.LASF119
 1607 075e 07       		.byte	0x7
 1608 075f 0801     		.2byte	0x108
 1609 0761 30010000 		.4byte	0x130
 1610 0765 1A       		.uleb128 0x1a
 1611 0766 67030000 		.4byte	.LASF120
 1612 076a 07       		.byte	0x7
 1613 076b 0F01     		.2byte	0x10f
 1614 076d 6B030000 		.4byte	0x36b
 1615 0771 1A       		.uleb128 0x1a
 1616 0772 A2020000 		.4byte	.LASF121
 1617 0776 07       		.byte	0x7
 1618 0777 1601     		.2byte	0x116
 1619 0779 A2070000 		.4byte	0x7a2
 1620 077d 1A       		.uleb128 0x1a
 1621 077e 18000000 		.4byte	.LASF122
 1622 0782 07       		.byte	0x7
 1623 0783 1E01     		.2byte	0x11e
 1624 0785 CD070000 		.4byte	0x7cd
 1625 0789 1A       		.uleb128 0x1a
 1626 078a FE030000 		.4byte	.LASF123
 1627 078e 07       		.byte	0x7
 1628 078f 2701     		.2byte	0x127
 1629 0791 04080000 		.4byte	0x804
 1630 0795 1A       		.uleb128 0x1a
 1631 0796 6C020000 		.4byte	.LASF124
 1632 079a 07       		.byte	0x7
 1633 079b 2F01     		.2byte	0x12f
 1634 079d 3B010000 		.4byte	0x13b
 1635 07a1 00       		.byte	0
 1636 07a2 0A       		.uleb128 0xa
 1637 07a3 04       		.byte	0x4
ARM GAS  /tmp/ccRXj7ty.s 			page 30


 1638 07a4 83020000 		.4byte	0x283
 1639 07a8 06       		.uleb128 0x6
 1640 07a9 87040000 		.4byte	.LASF125
 1641 07ad 0C       		.byte	0xc
 1642 07ae 0E       		.byte	0xe
 1643 07af 34       		.byte	0x34
 1644 07b0 CD070000 		.4byte	0x7cd
 1645 07b4 07       		.uleb128 0x7
 1646 07b5 0C080000 		.4byte	.LASF126
 1647 07b9 0E       		.byte	0xe
 1648 07ba 35       		.byte	0x35
 1649 07bb B8020000 		.4byte	0x2b8
 1650 07bf 00       		.byte	0
 1651 07c0 07       		.uleb128 0x7
 1652 07c1 DE060000 		.4byte	.LASF127
 1653 07c5 0E       		.byte	0xe
 1654 07c6 37       		.byte	0x37
 1655 07c7 51010000 		.4byte	0x151
 1656 07cb 08       		.byte	0x8
 1657 07cc 00       		.byte	0
 1658 07cd 0A       		.uleb128 0xa
 1659 07ce 04       		.byte	0x4
 1660 07cf A8070000 		.4byte	0x7a8
 1661 07d3 06       		.uleb128 0x6
 1662 07d4 34080000 		.4byte	.LASF128
 1663 07d8 10       		.byte	0x10
 1664 07d9 0F       		.byte	0xf
 1665 07da 39       		.byte	0x39
 1666 07db 04080000 		.4byte	0x804
 1667 07df 07       		.uleb128 0x7
 1668 07e0 6D050000 		.4byte	.LASF129
 1669 07e4 0F       		.byte	0xf
 1670 07e5 3A       		.byte	0x3a
 1671 07e6 B8020000 		.4byte	0x2b8
 1672 07ea 00       		.byte	0
 1673 07eb 07       		.uleb128 0x7
 1674 07ec 95010000 		.4byte	.LASF130
 1675 07f0 0F       		.byte	0xf
 1676 07f1 3C       		.byte	0x3c
 1677 07f2 8E020000 		.4byte	0x28e
 1678 07f6 08       		.byte	0x8
 1679 07f7 07       		.uleb128 0x7
 1680 07f8 8B090000 		.4byte	.LASF131
 1681 07fc 0F       		.byte	0xf
 1682 07fd 3E       		.byte	0x3e
 1683 07fe 53080000 		.4byte	0x853
 1684 0802 0C       		.byte	0xc
 1685 0803 00       		.byte	0
 1686 0804 0A       		.uleb128 0xa
 1687 0805 04       		.byte	0x4
 1688 0806 D3070000 		.4byte	0x7d3
 1689 080a 0A       		.uleb128 0xa
 1690 080b 04       		.byte	0x4
 1691 080c 10080000 		.4byte	0x810
 1692 0810 1B       		.uleb128 0x1b
 1693 0811 15080000 		.4byte	0x815
 1694 0815 04       		.uleb128 0x4
ARM GAS  /tmp/ccRXj7ty.s 			page 31


 1695 0816 01       		.byte	0x1
 1696 0817 08       		.byte	0x8
 1697 0818 34030000 		.4byte	.LASF132
 1698 081c 0A       		.uleb128 0xa
 1699 081d 04       		.byte	0x4
 1700 081e 5B050000 		.4byte	0x55b
 1701 0822 0A       		.uleb128 0xa
 1702 0823 04       		.byte	0x4
 1703 0824 6D030000 		.4byte	0x36d
 1704 0828 05       		.uleb128 0x5
 1705 0829 0A080000 		.4byte	0x80a
 1706 082d 17       		.uleb128 0x17
 1707 082e 5B050000 		.4byte	0x55b
 1708 0832 3D080000 		.4byte	0x83d
 1709 0836 18       		.uleb128 0x18
 1710 0837 DA040000 		.4byte	0x4da
 1711 083b 1E       		.byte	0x1e
 1712 083c 00       		.byte	0
 1713 083d 03       		.uleb128 0x3
 1714 083e 99090000 		.4byte	.LASF133
 1715 0842 0E       		.byte	0xe
 1716 0843 38       		.byte	0x38
 1717 0844 A8070000 		.4byte	0x7a8
 1718 0848 03       		.uleb128 0x3
 1719 0849 9B080000 		.4byte	.LASF134
 1720 084d 0F       		.byte	0xf
 1721 084e 34       		.byte	0x34
 1722 084f D3070000 		.4byte	0x7d3
 1723 0853 0A       		.uleb128 0xa
 1724 0854 04       		.byte	0x4
 1725 0855 48080000 		.4byte	0x848
 1726 0859 03       		.uleb128 0x3
 1727 085a AE030000 		.4byte	.LASF135
 1728 085e 10       		.byte	0x10
 1729 085f 34       		.byte	0x34
 1730 0860 64080000 		.4byte	0x864
 1731 0864 06       		.uleb128 0x6
 1732 0865 E1080000 		.4byte	.LASF136
 1733 0869 14       		.byte	0x14
 1734 086a 10       		.byte	0x10
 1735 086b 39       		.byte	0x39
 1736 086c AD080000 		.4byte	0x8ad
 1737 0870 07       		.uleb128 0x7
 1738 0871 B4040000 		.4byte	.LASF137
 1739 0875 10       		.byte	0x10
 1740 0876 3A       		.byte	0x3a
 1741 0877 AD080000 		.4byte	0x8ad
 1742 087b 00       		.byte	0
 1743 087c 07       		.uleb128 0x7
 1744 087d BC090000 		.4byte	.LASF138
 1745 0881 10       		.byte	0x10
 1746 0882 3D       		.byte	0x3d
 1747 0883 8E020000 		.4byte	0x28e
 1748 0887 04       		.byte	0x4
 1749 0888 07       		.uleb128 0x7
 1750 0889 4C060000 		.4byte	.LASF139
 1751 088d 10       		.byte	0x10
ARM GAS  /tmp/ccRXj7ty.s 			page 32


 1752 088e 3F       		.byte	0x3f
 1753 088f 3B010000 		.4byte	0x13b
 1754 0893 08       		.byte	0x8
 1755 0894 07       		.uleb128 0x7
 1756 0895 4F010000 		.4byte	.LASF140
 1757 0899 10       		.byte	0x10
 1758 089a 41       		.byte	0x41
 1759 089b 46010000 		.4byte	0x146
 1760 089f 0C       		.byte	0xc
 1761 08a0 07       		.uleb128 0x7
 1762 08a1 33060000 		.4byte	.LASF141
 1763 08a5 10       		.byte	0x10
 1764 08a6 43       		.byte	0x43
 1765 08a7 46010000 		.4byte	0x146
 1766 08ab 10       		.byte	0x10
 1767 08ac 00       		.byte	0
 1768 08ad 0A       		.uleb128 0xa
 1769 08ae 04       		.byte	0x4
 1770 08af 59080000 		.4byte	0x859
 1771 08b3 06       		.uleb128 0x6
 1772 08b4 1E080000 		.4byte	.LASF142
 1773 08b8 04       		.byte	0x4
 1774 08b9 10       		.byte	0x10
 1775 08ba 4A       		.byte	0x4a
 1776 08bb CC080000 		.4byte	0x8cc
 1777 08bf 07       		.uleb128 0x7
 1778 08c0 3F040000 		.4byte	.LASF143
 1779 08c4 10       		.byte	0x10
 1780 08c5 4B       		.byte	0x4b
 1781 08c6 AD080000 		.4byte	0x8ad
 1782 08ca 00       		.byte	0
 1783 08cb 00       		.byte	0
 1784 08cc 03       		.uleb128 0x3
 1785 08cd 9B050000 		.4byte	.LASF144
 1786 08d1 10       		.byte	0x10
 1787 08d2 4E       		.byte	0x4e
 1788 08d3 B3080000 		.4byte	0x8b3
 1789 08d7 15       		.uleb128 0x15
 1790 08d8 28       		.byte	0x28
 1791 08d9 11       		.byte	0x11
 1792 08da 38       		.byte	0x38
 1793 08db 28090000 		.4byte	0x928
 1794 08df 07       		.uleb128 0x7
 1795 08e0 45010000 		.4byte	.LASF145
 1796 08e4 11       		.byte	0x11
 1797 08e5 39       		.byte	0x39
 1798 08e6 28090000 		.4byte	0x928
 1799 08ea 00       		.byte	0
 1800 08eb 07       		.uleb128 0x7
 1801 08ec B2060000 		.4byte	.LASF146
 1802 08f0 11       		.byte	0x11
 1803 08f1 3B       		.byte	0x3b
 1804 08f2 28090000 		.4byte	0x928
 1805 08f6 04       		.byte	0x4
 1806 08f7 07       		.uleb128 0x7
 1807 08f8 7D050000 		.4byte	.LASF147
 1808 08fc 11       		.byte	0x11
ARM GAS  /tmp/ccRXj7ty.s 			page 33


 1809 08fd 3D       		.byte	0x3d
 1810 08fe 28090000 		.4byte	0x928
 1811 0902 08       		.byte	0x8
 1812 0903 07       		.uleb128 0x7
 1813 0904 7B020000 		.4byte	.LASF148
 1814 0908 11       		.byte	0x11
 1815 0909 3E       		.byte	0x3e
 1816 090a 28090000 		.4byte	0x928
 1817 090e 0C       		.byte	0xc
 1818 090f 07       		.uleb128 0x7
 1819 0910 37050000 		.4byte	.LASF149
 1820 0914 11       		.byte	0x11
 1821 0915 3F       		.byte	0x3f
 1822 0916 3D080000 		.4byte	0x83d
 1823 091a 10       		.byte	0x10
 1824 091b 07       		.uleb128 0x7
 1825 091c 5B030000 		.4byte	.LASF150
 1826 0920 11       		.byte	0x11
 1827 0921 41       		.byte	0x41
 1828 0922 3D080000 		.4byte	0x83d
 1829 0926 1C       		.byte	0x1c
 1830 0927 00       		.byte	0
 1831 0928 0A       		.uleb128 0xa
 1832 0929 04       		.byte	0x4
 1833 092a 30010000 		.4byte	0x130
 1834 092e 03       		.uleb128 0x3
 1835 092f 81090000 		.4byte	.LASF151
 1836 0933 11       		.byte	0x11
 1837 0934 43       		.byte	0x43
 1838 0935 D7080000 		.4byte	0x8d7
 1839 0939 03       		.uleb128 0x3
 1840 093a 72060000 		.4byte	.LASF152
 1841 093e 12       		.byte	0x12
 1842 093f 36       		.byte	0x36
 1843 0940 44090000 		.4byte	0x944
 1844 0944 0A       		.uleb128 0xa
 1845 0945 04       		.byte	0x4
 1846 0946 4A090000 		.4byte	0x94a
 1847 094a 1C       		.uleb128 0x1c
 1848 094b 6B030000 		.4byte	0x36b
 1849 094f 59090000 		.4byte	0x959
 1850 0953 0D       		.uleb128 0xd
 1851 0954 2C000000 		.4byte	0x2c
 1852 0958 00       		.byte	0
 1853 0959 06       		.uleb128 0x6
 1854 095a F6040000 		.4byte	.LASF153
 1855 095e 04       		.byte	0x4
 1856 095f 13       		.byte	0x13
 1857 0960 38       		.byte	0x38
 1858 0961 72090000 		.4byte	0x972
 1859 0965 07       		.uleb128 0x7
 1860 0966 AA050000 		.4byte	.LASF154
 1861 096a 13       		.byte	0x13
 1862 096b 39       		.byte	0x39
 1863 096c 72090000 		.4byte	0x972
 1864 0970 00       		.byte	0
 1865 0971 00       		.byte	0
ARM GAS  /tmp/ccRXj7ty.s 			page 34


 1866 0972 0A       		.uleb128 0xa
 1867 0973 04       		.byte	0x4
 1868 0974 59090000 		.4byte	0x959
 1869 0978 15       		.uleb128 0x15
 1870 0979 0C       		.byte	0xc
 1871 097a 13       		.byte	0x13
 1872 097b 40       		.byte	0x40
 1873 097c A5090000 		.4byte	0x9a5
 1874 0980 07       		.uleb128 0x7
 1875 0981 3C090000 		.4byte	.LASF155
 1876 0985 13       		.byte	0x13
 1877 0986 41       		.byte	0x41
 1878 0987 72090000 		.4byte	0x972
 1879 098b 00       		.byte	0
 1880 098c 07       		.uleb128 0x7
 1881 098d 7E080000 		.4byte	.LASF156
 1882 0991 13       		.byte	0x13
 1883 0992 42       		.byte	0x42
 1884 0993 2C000000 		.4byte	0x2c
 1885 0997 04       		.byte	0x4
 1886 0998 07       		.uleb128 0x7
 1887 0999 A5090000 		.4byte	.LASF157
 1888 099d 13       		.byte	0x13
 1889 099e 44       		.byte	0x44
 1890 099f 39090000 		.4byte	0x939
 1891 09a3 08       		.byte	0x8
 1892 09a4 00       		.byte	0
 1893 09a5 03       		.uleb128 0x3
 1894 09a6 B3070000 		.4byte	.LASF158
 1895 09aa 13       		.byte	0x13
 1896 09ab 46       		.byte	0x46
 1897 09ac 78090000 		.4byte	0x978
 1898 09b0 03       		.uleb128 0x3
 1899 09b1 5B080000 		.4byte	.LASF159
 1900 09b5 14       		.byte	0x14
 1901 09b6 3F       		.byte	0x3f
 1902 09b7 BB090000 		.4byte	0x9bb
 1903 09bb 06       		.uleb128 0x6
 1904 09bc 46020000 		.4byte	.LASF160
 1905 09c0 24       		.byte	0x24
 1906 09c1 14       		.byte	0x14
 1907 09c2 4D       		.byte	0x4d
 1908 09c3 280A0000 		.4byte	0xa28
 1909 09c7 07       		.uleb128 0x7
 1910 09c8 C8070000 		.4byte	.LASF161
 1911 09cc 14       		.byte	0x14
 1912 09cd 4E       		.byte	0x4e
 1913 09ce B8020000 		.4byte	0x2b8
 1914 09d2 00       		.byte	0
 1915 09d3 07       		.uleb128 0x7
 1916 09d4 47040000 		.4byte	.LASF162
 1917 09d8 14       		.byte	0x14
 1918 09d9 4F       		.byte	0x4f
 1919 09da 4A0A0000 		.4byte	0xa4a
 1920 09de 08       		.byte	0x8
 1921 09df 07       		.uleb128 0x7
 1922 09e0 D1010000 		.4byte	.LASF163
ARM GAS  /tmp/ccRXj7ty.s 			page 35


 1923 09e4 14       		.byte	0x14
 1924 09e5 50       		.byte	0x50
 1925 09e6 4F0A0000 		.4byte	0xa4f
 1926 09ea 0C       		.byte	0xc
 1927 09eb 07       		.uleb128 0x7
 1928 09ec BF010000 		.4byte	.LASF164
 1929 09f0 14       		.byte	0x14
 1930 09f1 51       		.byte	0x51
 1931 09f2 4F0A0000 		.4byte	0xa4f
 1932 09f6 10       		.byte	0x10
 1933 09f7 07       		.uleb128 0x7
 1934 09f8 E2040000 		.4byte	.LASF165
 1935 09fc 14       		.byte	0x14
 1936 09fd 53       		.byte	0x53
 1937 09fe 4F0A0000 		.4byte	0xa4f
 1938 0a02 14       		.byte	0x14
 1939 0a03 07       		.uleb128 0x7
 1940 0a04 FB010000 		.4byte	.LASF166
 1941 0a08 14       		.byte	0x14
 1942 0a09 54       		.byte	0x54
 1943 0a0a 4F0A0000 		.4byte	0xa4f
 1944 0a0e 18       		.byte	0x18
 1945 0a0f 07       		.uleb128 0x7
 1946 0a10 DA010000 		.4byte	.LASF167
 1947 0a14 14       		.byte	0x14
 1948 0a15 55       		.byte	0x55
 1949 0a16 280A0000 		.4byte	0xa28
 1950 0a1a 1C       		.byte	0x1c
 1951 0a1b 07       		.uleb128 0x7
 1952 0a1c B6020000 		.4byte	.LASF168
 1953 0a20 14       		.byte	0x14
 1954 0a21 56       		.byte	0x56
 1955 0a22 6B030000 		.4byte	0x36b
 1956 0a26 20       		.byte	0x20
 1957 0a27 00       		.byte	0
 1958 0a28 03       		.uleb128 0x3
 1959 0a29 CF050000 		.4byte	.LASF169
 1960 0a2d 14       		.byte	0x14
 1961 0a2e 42       		.byte	0x42
 1962 0a2f 330A0000 		.4byte	0xa33
 1963 0a33 0A       		.uleb128 0xa
 1964 0a34 04       		.byte	0x4
 1965 0a35 390A0000 		.4byte	0xa39
 1966 0a39 0C       		.uleb128 0xc
 1967 0a3a 440A0000 		.4byte	0xa44
 1968 0a3e 0D       		.uleb128 0xd
 1969 0a3f 440A0000 		.4byte	0xa44
 1970 0a43 00       		.byte	0
 1971 0a44 0A       		.uleb128 0xa
 1972 0a45 04       		.byte	0x4
 1973 0a46 B0090000 		.4byte	0x9b0
 1974 0a4a 05       		.uleb128 0x5
 1975 0a4b 2C000000 		.4byte	0x2c
 1976 0a4f 0A       		.uleb128 0xa
 1977 0a50 04       		.byte	0x4
 1978 0a51 AD000000 		.4byte	0xad
 1979 0a55 03       		.uleb128 0x3
ARM GAS  /tmp/ccRXj7ty.s 			page 36


 1980 0a56 D3080000 		.4byte	.LASF170
 1981 0a5a 14       		.byte	0x14
 1982 0a5b 64       		.byte	0x64
 1983 0a5c B0090000 		.4byte	0x9b0
 1984 0a60 03       		.uleb128 0x3
 1985 0a61 22090000 		.4byte	.LASF171
 1986 0a65 14       		.byte	0x14
 1987 0a66 71       		.byte	0x71
 1988 0a67 B0090000 		.4byte	0x9b0
 1989 0a6b 1C       		.uleb128 0x1c
 1990 0a6c 2C000000 		.4byte	0x2c
 1991 0a70 840A0000 		.4byte	0xa84
 1992 0a74 0D       		.uleb128 0xd
 1993 0a75 6B030000 		.4byte	0x36b
 1994 0a79 0D       		.uleb128 0xd
 1995 0a7a 840A0000 		.4byte	0xa84
 1996 0a7e 0D       		.uleb128 0xd
 1997 0a7f 2C000000 		.4byte	0x2c
 1998 0a83 00       		.byte	0
 1999 0a84 0A       		.uleb128 0xa
 2000 0a85 04       		.byte	0x4
 2001 0a86 8A0A0000 		.4byte	0xa8a
 2002 0a8a 1B       		.uleb128 0x1b
 2003 0a8b AD000000 		.4byte	0xad
 2004 0a8f 0A       		.uleb128 0xa
 2005 0a90 04       		.byte	0x4
 2006 0a91 6B0A0000 		.4byte	0xa6b
 2007 0a95 1C       		.uleb128 0x1c
 2008 0a96 2C000000 		.4byte	0x2c
 2009 0a9a AE0A0000 		.4byte	0xaae
 2010 0a9e 0D       		.uleb128 0xd
 2011 0a9f 6B030000 		.4byte	0x36b
 2012 0aa3 0D       		.uleb128 0xd
 2013 0aa4 4F0A0000 		.4byte	0xa4f
 2014 0aa8 0D       		.uleb128 0xd
 2015 0aa9 2C000000 		.4byte	0x2c
 2016 0aad 00       		.byte	0
 2017 0aae 0A       		.uleb128 0xa
 2018 0aaf 04       		.byte	0x4
 2019 0ab0 950A0000 		.4byte	0xa95
 2020 0ab4 1C       		.uleb128 0x1c
 2021 0ab5 30010000 		.4byte	0x130
 2022 0ab9 C80A0000 		.4byte	0xac8
 2023 0abd 0D       		.uleb128 0xd
 2024 0abe 6B030000 		.4byte	0x36b
 2025 0ac2 0D       		.uleb128 0xd
 2026 0ac3 AD000000 		.4byte	0xad
 2027 0ac7 00       		.byte	0
 2028 0ac8 0A       		.uleb128 0xa
 2029 0ac9 04       		.byte	0x4
 2030 0aca B40A0000 		.4byte	0xab4
 2031 0ace 1C       		.uleb128 0x1c
 2032 0acf 30010000 		.4byte	0x130
 2033 0ad3 DD0A0000 		.4byte	0xadd
 2034 0ad7 0D       		.uleb128 0xd
 2035 0ad8 6B030000 		.4byte	0x36b
 2036 0adc 00       		.byte	0
ARM GAS  /tmp/ccRXj7ty.s 			page 37


 2037 0add 0A       		.uleb128 0xa
 2038 0ade 04       		.byte	0x4
 2039 0adf CE0A0000 		.4byte	0xace
 2040 0ae3 1C       		.uleb128 0x1c
 2041 0ae4 30010000 		.4byte	0x130
 2042 0ae8 FC0A0000 		.4byte	0xafc
 2043 0aec 0D       		.uleb128 0xd
 2044 0aed 6B030000 		.4byte	0x36b
 2045 0af1 0D       		.uleb128 0xd
 2046 0af2 AD000000 		.4byte	0xad
 2047 0af6 0D       		.uleb128 0xd
 2048 0af7 67010000 		.4byte	0x167
 2049 0afb 00       		.byte	0
 2050 0afc 0A       		.uleb128 0xa
 2051 0afd 04       		.byte	0x4
 2052 0afe E30A0000 		.4byte	0xae3
 2053 0b02 1C       		.uleb128 0x1c
 2054 0b03 30010000 		.4byte	0x130
 2055 0b07 160B0000 		.4byte	0xb16
 2056 0b0b 0D       		.uleb128 0xd
 2057 0b0c 6B030000 		.4byte	0x36b
 2058 0b10 0D       		.uleb128 0xd
 2059 0b11 67010000 		.4byte	0x167
 2060 0b15 00       		.byte	0
 2061 0b16 0A       		.uleb128 0xa
 2062 0b17 04       		.byte	0x4
 2063 0b18 020B0000 		.4byte	0xb02
 2064 0b1c 1C       		.uleb128 0x1c
 2065 0b1d 2C000000 		.4byte	0x2c
 2066 0b21 3A0B0000 		.4byte	0xb3a
 2067 0b25 0D       		.uleb128 0xd
 2068 0b26 6B030000 		.4byte	0x36b
 2069 0b2a 0D       		.uleb128 0xd
 2070 0b2b 840A0000 		.4byte	0xa84
 2071 0b2f 0D       		.uleb128 0xd
 2072 0b30 2C000000 		.4byte	0x2c
 2073 0b34 0D       		.uleb128 0xd
 2074 0b35 67010000 		.4byte	0x167
 2075 0b39 00       		.byte	0
 2076 0b3a 0A       		.uleb128 0xa
 2077 0b3b 04       		.byte	0x4
 2078 0b3c 1C0B0000 		.4byte	0xb1c
 2079 0b40 1C       		.uleb128 0x1c
 2080 0b41 2C000000 		.4byte	0x2c
 2081 0b45 5E0B0000 		.4byte	0xb5e
 2082 0b49 0D       		.uleb128 0xd
 2083 0b4a 6B030000 		.4byte	0x36b
 2084 0b4e 0D       		.uleb128 0xd
 2085 0b4f 4F0A0000 		.4byte	0xa4f
 2086 0b53 0D       		.uleb128 0xd
 2087 0b54 2C000000 		.4byte	0x2c
 2088 0b58 0D       		.uleb128 0xd
 2089 0b59 67010000 		.4byte	0x167
 2090 0b5d 00       		.byte	0
 2091 0b5e 0A       		.uleb128 0xa
 2092 0b5f 04       		.byte	0x4
 2093 0b60 400B0000 		.4byte	0xb40
ARM GAS  /tmp/ccRXj7ty.s 			page 38


 2094 0b64 04       		.uleb128 0x4
 2095 0b65 01       		.byte	0x1
 2096 0b66 02       		.byte	0x2
 2097 0b67 2E030000 		.4byte	.LASF172
 2098 0b6b 15       		.uleb128 0x15
 2099 0b6c 04       		.byte	0x4
 2100 0b6d 15       		.byte	0x15
 2101 0b6e B7       		.byte	0xb7
 2102 0b6f 8C0B0000 		.4byte	0xb8c
 2103 0b73 14       		.uleb128 0x14
 2104 0b74 73657400 		.ascii	"set\000"
 2105 0b78 15       		.byte	0x15
 2106 0b79 B8       		.byte	0xb8
 2107 0b7a B8000000 		.4byte	0xb8
 2108 0b7e 00       		.byte	0
 2109 0b7f 07       		.uleb128 0x7
 2110 0b80 13040000 		.4byte	.LASF173
 2111 0b84 15       		.byte	0x15
 2112 0b85 B9       		.byte	0xb9
 2113 0b86 B8000000 		.4byte	0xb8
 2114 0b8a 02       		.byte	0x2
 2115 0b8b 00       		.byte	0
 2116 0b8c 19       		.uleb128 0x19
 2117 0b8d 04       		.byte	0x4
 2118 0b8e 15       		.byte	0x15
 2119 0b8f B5       		.byte	0xb5
 2120 0b90 A70B0000 		.4byte	0xba7
 2121 0b94 1D       		.uleb128 0x1d
 2122 0b95 5700     		.ascii	"W\000"
 2123 0b97 15       		.byte	0x15
 2124 0b98 B6       		.byte	0xb6
 2125 0b99 CE000000 		.4byte	0xce
 2126 0b9d 1D       		.uleb128 0x1d
 2127 0b9e 4800     		.ascii	"H\000"
 2128 0ba0 15       		.byte	0x15
 2129 0ba1 BA       		.byte	0xba
 2130 0ba2 6B0B0000 		.4byte	0xb6b
 2131 0ba6 00       		.byte	0
 2132 0ba7 15       		.uleb128 0x15
 2133 0ba8 2C       		.byte	0x2c
 2134 0ba9 15       		.byte	0x15
 2135 0baa AD       		.byte	0xad
 2136 0bab 340C0000 		.4byte	0xc34
 2137 0baf 07       		.uleb128 0x7
 2138 0bb0 CD080000 		.4byte	.LASF174
 2139 0bb4 15       		.byte	0x15
 2140 0bb5 AF       		.byte	0xaf
 2141 0bb6 E9000000 		.4byte	0xe9
 2142 0bba 00       		.byte	0
 2143 0bbb 07       		.uleb128 0x7
 2144 0bbc C1070000 		.4byte	.LASF175
 2145 0bc0 15       		.byte	0x15
 2146 0bc1 B0       		.byte	0xb0
 2147 0bc2 E9000000 		.4byte	0xe9
 2148 0bc6 04       		.byte	0x4
 2149 0bc7 07       		.uleb128 0x7
 2150 0bc8 29000000 		.4byte	.LASF176
ARM GAS  /tmp/ccRXj7ty.s 			page 39


 2151 0bcc 15       		.byte	0x15
 2152 0bcd B1       		.byte	0xb1
 2153 0bce E9000000 		.4byte	0xe9
 2154 0bd2 08       		.byte	0x8
 2155 0bd3 07       		.uleb128 0x7
 2156 0bd4 C5010000 		.4byte	.LASF177
 2157 0bd8 15       		.byte	0x15
 2158 0bd9 B2       		.byte	0xb2
 2159 0bda E9000000 		.4byte	0xe9
 2160 0bde 0C       		.byte	0xc
 2161 0bdf 14       		.uleb128 0x14
 2162 0be0 49445200 		.ascii	"IDR\000"
 2163 0be4 15       		.byte	0x15
 2164 0be5 B3       		.byte	0xb3
 2165 0be6 E9000000 		.4byte	0xe9
 2166 0bea 10       		.byte	0x10
 2167 0beb 14       		.uleb128 0x14
 2168 0bec 4F445200 		.ascii	"ODR\000"
 2169 0bf0 15       		.byte	0x15
 2170 0bf1 B4       		.byte	0xb4
 2171 0bf2 E9000000 		.4byte	0xe9
 2172 0bf6 14       		.byte	0x14
 2173 0bf7 07       		.uleb128 0x7
 2174 0bf8 66080000 		.4byte	.LASF178
 2175 0bfc 15       		.byte	0x15
 2176 0bfd BB       		.byte	0xbb
 2177 0bfe 340C0000 		.4byte	0xc34
 2178 0c02 18       		.byte	0x18
 2179 0c03 07       		.uleb128 0x7
 2180 0c04 EA040000 		.4byte	.LASF179
 2181 0c08 15       		.byte	0x15
 2182 0c09 BC       		.byte	0xbc
 2183 0c0a E9000000 		.4byte	0xe9
 2184 0c0e 1C       		.byte	0x1c
 2185 0c0f 07       		.uleb128 0x7
 2186 0c10 57070000 		.4byte	.LASF180
 2187 0c14 15       		.byte	0x15
 2188 0c15 BD       		.byte	0xbd
 2189 0c16 E9000000 		.4byte	0xe9
 2190 0c1a 20       		.byte	0x20
 2191 0c1b 07       		.uleb128 0x7
 2192 0c1c 52070000 		.4byte	.LASF181
 2193 0c20 15       		.byte	0x15
 2194 0c21 BE       		.byte	0xbe
 2195 0c22 E9000000 		.4byte	0xe9
 2196 0c26 24       		.byte	0x24
 2197 0c27 14       		.uleb128 0x14
 2198 0c28 42525200 		.ascii	"BRR\000"
 2199 0c2c 15       		.byte	0x15
 2200 0c2d BF       		.byte	0xbf
 2201 0c2e E9000000 		.4byte	0xe9
 2202 0c32 28       		.byte	0x28
 2203 0c33 00       		.byte	0
 2204 0c34 05       		.uleb128 0x5
 2205 0c35 8C0B0000 		.4byte	0xb8c
 2206 0c39 03       		.uleb128 0x3
 2207 0c3a BD020000 		.4byte	.LASF182
ARM GAS  /tmp/ccRXj7ty.s 			page 40


 2208 0c3e 15       		.byte	0x15
 2209 0c3f C0       		.byte	0xc0
 2210 0c40 A70B0000 		.4byte	0xba7
 2211 0c44 13       		.uleb128 0x13
 2212 0c45 BF030000 		.4byte	.LASF183
 2213 0c49 15       		.byte	0x15
 2214 0c4a 1A01     		.2byte	0x11a
 2215 0c4c CE000000 		.4byte	0xce
 2216 0c50 1E       		.uleb128 0x1e
 2217 0c51 01       		.byte	0x1
 2218 0c52 16       		.byte	0x16
 2219 0c53 55       		.byte	0x55
 2220 0c54 6B0C0000 		.4byte	0xc6b
 2221 0c58 1F       		.uleb128 0x1f
 2222 0c59 F8020000 		.4byte	.LASF184
 2223 0c5d 00       		.sleb128 0
 2224 0c5e 1F       		.uleb128 0x1f
 2225 0c5f 4E090000 		.4byte	.LASF185
 2226 0c63 01       		.sleb128 1
 2227 0c64 1F       		.uleb128 0x1f
 2228 0c65 EA070000 		.4byte	.LASF186
 2229 0c69 02       		.sleb128 2
 2230 0c6a 00       		.byte	0
 2231 0c6b 03       		.uleb128 0x3
 2232 0c6c E0070000 		.4byte	.LASF187
 2233 0c70 16       		.byte	0x16
 2234 0c71 59       		.byte	0x59
 2235 0c72 500C0000 		.4byte	0xc50
 2236 0c76 03       		.uleb128 0x3
 2237 0c77 A6070000 		.4byte	.LASF188
 2238 0c7b 16       		.byte	0x16
 2239 0c7c 5E       		.byte	0x5e
 2240 0c7d 810C0000 		.4byte	0xc81
 2241 0c81 06       		.uleb128 0x6
 2242 0c82 A6070000 		.4byte	.LASF188
 2243 0c86 D8       		.byte	0xd8
 2244 0c87 16       		.byte	0x16
 2245 0c88 78       		.byte	0x78
 2246 0c89 EC0C0000 		.4byte	0xcec
 2247 0c8d 14       		.uleb128 0x14
 2248 0c8e 766D7400 		.ascii	"vmt\000"
 2249 0c92 16       		.byte	0x16
 2250 0c93 7A       		.byte	0x7a
 2251 0c94 590D0000 		.4byte	0xd59
 2252 0c98 00       		.byte	0
 2253 0c99 07       		.uleb128 0x7
 2254 0c9a E3050000 		.4byte	.LASF189
 2255 0c9e 16       		.byte	0x16
 2256 0c9f 7B       		.byte	0x7b
 2257 0ca0 CC080000 		.4byte	0x8cc
 2258 0ca4 04       		.byte	0x4
 2259 0ca5 07       		.uleb128 0x7
 2260 0ca6 62010000 		.4byte	.LASF190
 2261 0caa 16       		.byte	0x16
 2262 0cab 7B       		.byte	0x7b
 2263 0cac 6B0C0000 		.4byte	0xc6b
 2264 0cb0 08       		.byte	0x8
ARM GAS  /tmp/ccRXj7ty.s 			page 41


 2265 0cb1 07       		.uleb128 0x7
 2266 0cb2 3D080000 		.4byte	.LASF191
 2267 0cb6 16       		.byte	0x16
 2268 0cb7 7B       		.byte	0x7b
 2269 0cb8 550A0000 		.4byte	0xa55
 2270 0cbc 0C       		.byte	0xc
 2271 0cbd 07       		.uleb128 0x7
 2272 0cbe 36020000 		.4byte	.LASF192
 2273 0cc2 16       		.byte	0x16
 2274 0cc3 7B       		.byte	0x7b
 2275 0cc4 600A0000 		.4byte	0xa60
 2276 0cc8 30       		.byte	0x30
 2277 0cc9 14       		.uleb128 0x14
 2278 0cca 696200   		.ascii	"ib\000"
 2279 0ccd 16       		.byte	0x16
 2280 0cce 7B       		.byte	0x7b
 2281 0ccf 640D0000 		.4byte	0xd64
 2282 0cd3 54       		.byte	0x54
 2283 0cd4 14       		.uleb128 0x14
 2284 0cd5 6F6200   		.ascii	"ob\000"
 2285 0cd8 16       		.byte	0x16
 2286 0cd9 7B       		.byte	0x7b
 2287 0cda 640D0000 		.4byte	0xd64
 2288 0cde 94       		.byte	0x94
 2289 0cdf 07       		.uleb128 0x7
 2290 0ce0 4F020000 		.4byte	.LASF193
 2291 0ce4 16       		.byte	0x16
 2292 0ce5 7B       		.byte	0x7b
 2293 0ce6 740D0000 		.4byte	0xd74
 2294 0cea D4       		.byte	0xd4
 2295 0ceb 00       		.byte	0
 2296 0cec 06       		.uleb128 0x6
 2297 0ced B2050000 		.4byte	.LASF194
 2298 0cf1 20       		.byte	0x20
 2299 0cf2 16       		.byte	0x16
 2300 0cf3 6D       		.byte	0x6d
 2301 0cf4 590D0000 		.4byte	0xd59
 2302 0cf8 07       		.uleb128 0x7
 2303 0cf9 8F000000 		.4byte	.LASF195
 2304 0cfd 16       		.byte	0x16
 2305 0cfe 6E       		.byte	0x6e
 2306 0cff 8F0A0000 		.4byte	0xa8f
 2307 0d03 00       		.byte	0
 2308 0d04 07       		.uleb128 0x7
 2309 0d05 FB050000 		.4byte	.LASF196
 2310 0d09 16       		.byte	0x16
 2311 0d0a 6E       		.byte	0x6e
 2312 0d0b AE0A0000 		.4byte	0xaae
 2313 0d0f 04       		.byte	0x4
 2314 0d10 14       		.uleb128 0x14
 2315 0d11 70757400 		.ascii	"put\000"
 2316 0d15 16       		.byte	0x16
 2317 0d16 6E       		.byte	0x6e
 2318 0d17 C80A0000 		.4byte	0xac8
 2319 0d1b 08       		.byte	0x8
 2320 0d1c 14       		.uleb128 0x14
 2321 0d1d 67657400 		.ascii	"get\000"
ARM GAS  /tmp/ccRXj7ty.s 			page 42


 2322 0d21 16       		.byte	0x16
 2323 0d22 6E       		.byte	0x6e
 2324 0d23 DD0A0000 		.4byte	0xadd
 2325 0d27 0C       		.byte	0xc
 2326 0d28 07       		.uleb128 0x7
 2327 0d29 71010000 		.4byte	.LASF197
 2328 0d2d 16       		.byte	0x16
 2329 0d2e 6E       		.byte	0x6e
 2330 0d2f FC0A0000 		.4byte	0xafc
 2331 0d33 10       		.byte	0x10
 2332 0d34 07       		.uleb128 0x7
 2333 0d35 77030000 		.4byte	.LASF198
 2334 0d39 16       		.byte	0x16
 2335 0d3a 6E       		.byte	0x6e
 2336 0d3b 160B0000 		.4byte	0xb16
 2337 0d3f 14       		.byte	0x14
 2338 0d40 07       		.uleb128 0x7
 2339 0d41 58000000 		.4byte	.LASF199
 2340 0d45 16       		.byte	0x16
 2341 0d46 6E       		.byte	0x6e
 2342 0d47 3A0B0000 		.4byte	0xb3a
 2343 0d4b 18       		.byte	0x18
 2344 0d4c 07       		.uleb128 0x7
 2345 0d4d CB010000 		.4byte	.LASF200
 2346 0d51 16       		.byte	0x16
 2347 0d52 6E       		.byte	0x6e
 2348 0d53 5E0B0000 		.4byte	0xb5e
 2349 0d57 1C       		.byte	0x1c
 2350 0d58 00       		.byte	0
 2351 0d59 0A       		.uleb128 0xa
 2352 0d5a 04       		.byte	0x4
 2353 0d5b 5F0D0000 		.4byte	0xd5f
 2354 0d5f 1B       		.uleb128 0x1b
 2355 0d60 EC0C0000 		.4byte	0xcec
 2356 0d64 17       		.uleb128 0x17
 2357 0d65 AD000000 		.4byte	0xad
 2358 0d69 740D0000 		.4byte	0xd74
 2359 0d6d 18       		.uleb128 0x18
 2360 0d6e DA040000 		.4byte	0x4da
 2361 0d72 3F       		.byte	0x3f
 2362 0d73 00       		.byte	0
 2363 0d74 0A       		.uleb128 0xa
 2364 0d75 04       		.byte	0x4
 2365 0d76 44050000 		.4byte	0x544
 2366 0d7a 06       		.uleb128 0x6
 2367 0d7b 02050000 		.4byte	.LASF201
 2368 0d7f 08       		.byte	0x8
 2369 0d80 17       		.byte	0x17
 2370 0d81 4C       		.byte	0x4c
 2371 0d82 B70D0000 		.4byte	0xdb7
 2372 0d86 07       		.uleb128 0x7
 2373 0d87 75070000 		.4byte	.LASF202
 2374 0d8b 17       		.byte	0x17
 2375 0d8c 4E       		.byte	0x4e
 2376 0d8d 15080000 		.4byte	0x815
 2377 0d91 00       		.byte	0
 2378 0d92 07       		.uleb128 0x7
ARM GAS  /tmp/ccRXj7ty.s 			page 43


 2379 0d93 6B080000 		.4byte	.LASF203
 2380 0d97 17       		.byte	0x17
 2381 0d98 4F       		.byte	0x4f
 2382 0d99 15080000 		.4byte	0x815
 2383 0d9d 01       		.byte	0x1
 2384 0d9e 07       		.uleb128 0x7
 2385 0d9f 90020000 		.4byte	.LASF204
 2386 0da3 17       		.byte	0x17
 2387 0da4 50       		.byte	0x50
 2388 0da5 15080000 		.4byte	0x815
 2389 0da9 02       		.byte	0x2
 2390 0daa 07       		.uleb128 0x7
 2391 0dab 81070000 		.4byte	.LASF205
 2392 0daf 17       		.byte	0x17
 2393 0db0 52       		.byte	0x52
 2394 0db1 CE000000 		.4byte	0xce
 2395 0db5 04       		.byte	0x4
 2396 0db6 00       		.byte	0
 2397 0db7 06       		.uleb128 0x6
 2398 0db8 56090000 		.4byte	.LASF206
 2399 0dbc 20       		.byte	0x20
 2400 0dbd 17       		.byte	0x17
 2401 0dbe 55       		.byte	0x55
 2402 0dbf 0C0E0000 		.4byte	0xe0c
 2403 0dc3 07       		.uleb128 0x7
 2404 0dc4 8F010000 		.4byte	.LASF207
 2405 0dc8 17       		.byte	0x17
 2406 0dc9 57       		.byte	0x57
 2407 0dca 7A0D0000 		.4byte	0xd7a
 2408 0dce 00       		.byte	0
 2409 0dcf 14       		.uleb128 0x14
 2410 0dd0 73726300 		.ascii	"src\000"
 2411 0dd4 17       		.byte	0x17
 2412 0dd5 58       		.byte	0x58
 2413 0dd6 CE000000 		.4byte	0xce
 2414 0dda 08       		.byte	0x8
 2415 0ddb 07       		.uleb128 0x7
 2416 0ddc A1070000 		.4byte	.LASF208
 2417 0de0 17       		.byte	0x17
 2418 0de1 59       		.byte	0x59
 2419 0de2 CE000000 		.4byte	0xce
 2420 0de6 0C       		.byte	0xc
 2421 0de7 07       		.uleb128 0x7
 2422 0de8 47070000 		.4byte	.LASF209
 2423 0dec 17       		.byte	0x17
 2424 0ded 5A       		.byte	0x5a
 2425 0dee CE000000 		.4byte	0xce
 2426 0df2 10       		.byte	0x10
 2427 0df3 07       		.uleb128 0x7
 2428 0df4 58010000 		.4byte	.LASF210
 2429 0df8 17       		.byte	0x17
 2430 0df9 5B       		.byte	0x5b
 2431 0dfa 0C0E0000 		.4byte	0xe0c
 2432 0dfe 14       		.byte	0x14
 2433 0dff 07       		.uleb128 0x7
 2434 0e00 6F090000 		.4byte	.LASF211
 2435 0e04 17       		.byte	0x17
ARM GAS  /tmp/ccRXj7ty.s 			page 44


 2436 0e05 62       		.byte	0x62
 2437 0e06 25000000 		.4byte	0x25
 2438 0e0a 1C       		.byte	0x1c
 2439 0e0b 00       		.byte	0
 2440 0e0c 17       		.uleb128 0x17
 2441 0e0d B8000000 		.4byte	0xb8
 2442 0e11 1C0E0000 		.4byte	0xe1c
 2443 0e15 18       		.uleb128 0x18
 2444 0e16 DA040000 		.4byte	0x4da
 2445 0e1a 03       		.byte	0x3
 2446 0e1b 00       		.byte	0
 2447 0e1c 03       		.uleb128 0x3
 2448 0e1d 56090000 		.4byte	.LASF206
 2449 0e21 17       		.byte	0x17
 2450 0e22 63       		.byte	0x63
 2451 0e23 B70D0000 		.4byte	0xdb7
 2452 0e27 20       		.uleb128 0x20
 2453 0e28 8D080000 		.4byte	.LASF230
 2454 0e2c 01       		.byte	0x1
 2455 0e2d 11       		.byte	0x11
 2456 0e2e 00000000 		.4byte	.LFB271
 2457 0e32 60000000 		.4byte	.LFE271-.LFB271
 2458 0e36 01       		.uleb128 0x1
 2459 0e37 9C       		.byte	0x9c
 2460 0e38 21       		.uleb128 0x21
 2461 0e39 39030000 		.4byte	.LASF214
 2462 0e3d 01       		.byte	0x1
 2463 0e3e 25       		.byte	0x25
 2464 0e3f 6E0E0000 		.4byte	0xe6e
 2465 0e43 00000000 		.4byte	.LFB272
 2466 0e47 3C000000 		.4byte	.LFE272-.LFB272
 2467 0e4b 01       		.uleb128 0x1
 2468 0e4c 9C       		.byte	0x9c
 2469 0e4d 6E0E0000 		.4byte	0xe6e
 2470 0e51 22       		.uleb128 0x22
 2471 0e52 6B070000 		.4byte	.LASF212
 2472 0e56 01       		.byte	0x1
 2473 0e57 25       		.byte	0x25
 2474 0e58 CE000000 		.4byte	0xce
 2475 0e5c 02       		.uleb128 0x2
 2476 0e5d 91       		.byte	0x91
 2477 0e5e 6C       		.sleb128 -20
 2478 0e5f 23       		.uleb128 0x23
 2479 0e60 82040000 		.4byte	.LASF216
 2480 0e64 01       		.byte	0x1
 2481 0e65 27       		.byte	0x27
 2482 0e66 6E0E0000 		.4byte	0xe6e
 2483 0e6a 02       		.uleb128 0x2
 2484 0e6b 91       		.byte	0x91
 2485 0e6c 74       		.sleb128 -12
 2486 0e6d 00       		.byte	0
 2487 0e6e 0A       		.uleb128 0xa
 2488 0e6f 04       		.byte	0x4
 2489 0e70 1C0E0000 		.4byte	0xe1c
 2490 0e74 24       		.uleb128 0x24
 2491 0e75 68000000 		.4byte	.LASF231
 2492 0e79 01       		.byte	0x1
ARM GAS  /tmp/ccRXj7ty.s 			page 45


 2493 0e7a 31       		.byte	0x31
 2494 0e7b 00000000 		.4byte	.LFB273
 2495 0e7f 1C000000 		.4byte	.LFE273-.LFB273
 2496 0e83 01       		.uleb128 0x1
 2497 0e84 9C       		.byte	0x9c
 2498 0e85 980E0000 		.4byte	0xe98
 2499 0e89 22       		.uleb128 0x22
 2500 0e8a 19040000 		.4byte	.LASF213
 2501 0e8e 01       		.byte	0x1
 2502 0e8f 31       		.byte	0x31
 2503 0e90 6E0E0000 		.4byte	0xe6e
 2504 0e94 02       		.uleb128 0x2
 2505 0e95 91       		.byte	0x91
 2506 0e96 74       		.sleb128 -12
 2507 0e97 00       		.byte	0
 2508 0e98 21       		.uleb128 0x21
 2509 0e99 BC040000 		.4byte	.LASF215
 2510 0e9d 01       		.byte	0x1
 2511 0e9e 38       		.byte	0x38
 2512 0e9f 6B030000 		.4byte	0x36b
 2513 0ea3 00000000 		.4byte	.LFB274
 2514 0ea7 1E030000 		.4byte	.LFE274-.LFB274
 2515 0eab 01       		.uleb128 0x1
 2516 0eac 9C       		.byte	0x9c
 2517 0ead 3A0F0000 		.4byte	0xf3a
 2518 0eb1 25       		.uleb128 0x25
 2519 0eb2 61726700 		.ascii	"arg\000"
 2520 0eb6 01       		.byte	0x1
 2521 0eb7 38       		.byte	0x38
 2522 0eb8 6B030000 		.4byte	0x36b
 2523 0ebc 03       		.uleb128 0x3
 2524 0ebd 91       		.byte	0x91
 2525 0ebe A47F     		.sleb128 -92
 2526 0ec0 26       		.uleb128 0x26
 2527 0ec1 6900     		.ascii	"i\000"
 2528 0ec3 01       		.byte	0x1
 2529 0ec4 3B       		.byte	0x3b
 2530 0ec5 AD000000 		.4byte	0xad
 2531 0ec9 02       		.uleb128 0x2
 2532 0eca 91       		.byte	0x91
 2533 0ecb 77       		.sleb128 -9
 2534 0ecc 23       		.uleb128 0x23
 2535 0ecd DA030000 		.4byte	.LASF217
 2536 0ed1 01       		.byte	0x1
 2537 0ed2 3C       		.byte	0x3c
 2538 0ed3 3A0F0000 		.4byte	0xf3a
 2539 0ed7 03       		.uleb128 0x3
 2540 0ed8 91       		.byte	0x91
 2541 0ed9 A87F     		.sleb128 -88
 2542 0edb 23       		.uleb128 0x23
 2543 0edc 62090000 		.4byte	.LASF218
 2544 0ee0 01       		.byte	0x1
 2545 0ee1 3D       		.byte	0x3d
 2546 0ee2 6E0E0000 		.4byte	0xe6e
 2547 0ee6 02       		.uleb128 0x2
 2548 0ee7 91       		.byte	0x91
 2549 0ee8 6C       		.sleb128 -20
ARM GAS  /tmp/ccRXj7ty.s 			page 46


 2550 0ee9 27       		.uleb128 0x27
 2551 0eea 48000000 		.4byte	.LBB2
 2552 0eee 70000000 		.4byte	.LBE2-.LBB2
 2553 0ef2 130F0000 		.4byte	0xf13
 2554 0ef6 23       		.uleb128 0x23
 2555 0ef7 B1090000 		.4byte	.LASF110
 2556 0efb 01       		.byte	0x1
 2557 0efc 48       		.byte	0x48
 2558 0efd AD000000 		.4byte	0xad
 2559 0f01 02       		.uleb128 0x2
 2560 0f02 91       		.byte	0x91
 2561 0f03 6B       		.sleb128 -21
 2562 0f04 23       		.uleb128 0x23
 2563 0f05 2E040000 		.4byte	.LASF219
 2564 0f09 01       		.byte	0x1
 2565 0f0a 48       		.byte	0x48
 2566 0f0b AD000000 		.4byte	0xad
 2567 0f0f 02       		.uleb128 0x2
 2568 0f10 91       		.byte	0x91
 2569 0f11 76       		.sleb128 -10
 2570 0f12 00       		.byte	0
 2571 0f13 28       		.uleb128 0x28
 2572 0f14 BA000000 		.4byte	.LBB3
 2573 0f18 62020000 		.4byte	.LBE3-.LBB3
 2574 0f1c 26       		.uleb128 0x26
 2575 0f1d 63726300 		.ascii	"crc\000"
 2576 0f21 01       		.byte	0x1
 2577 0f22 56       		.byte	0x56
 2578 0f23 B8000000 		.4byte	0xb8
 2579 0f27 02       		.uleb128 0x2
 2580 0f28 91       		.byte	0x91
 2581 0f29 72       		.sleb128 -14
 2582 0f2a 23       		.uleb128 0x23
 2583 0f2b 2E040000 		.4byte	.LASF219
 2584 0f2f 01       		.byte	0x1
 2585 0f30 56       		.byte	0x56
 2586 0f31 B8000000 		.4byte	0xb8
 2587 0f35 02       		.uleb128 0x2
 2588 0f36 91       		.byte	0x91
 2589 0f37 74       		.sleb128 -12
 2590 0f38 00       		.byte	0
 2591 0f39 00       		.byte	0
 2592 0f3a 17       		.uleb128 0x17
 2593 0f3b 15080000 		.4byte	0x815
 2594 0f3f 4A0F0000 		.4byte	0xf4a
 2595 0f43 18       		.uleb128 0x18
 2596 0f44 DA040000 		.4byte	0x4da
 2597 0f48 3F       		.byte	0x3f
 2598 0f49 00       		.byte	0
 2599 0f4a 21       		.uleb128 0x21
 2600 0f4b AD010000 		.4byte	.LASF220
 2601 0f4f 01       		.byte	0x1
 2602 0f50 91       		.byte	0x91
 2603 0f51 6B030000 		.4byte	0x36b
 2604 0f55 00000000 		.4byte	.LFB275
 2605 0f59 44000000 		.4byte	.LFE275-.LFB275
 2606 0f5d 01       		.uleb128 0x1
ARM GAS  /tmp/ccRXj7ty.s 			page 47


 2607 0f5e 9C       		.byte	0x9c
 2608 0f5f 800F0000 		.4byte	0xf80
 2609 0f63 25       		.uleb128 0x25
 2610 0f64 61726700 		.ascii	"arg\000"
 2611 0f68 01       		.byte	0x1
 2612 0f69 91       		.byte	0x91
 2613 0f6a 6B030000 		.4byte	0x36b
 2614 0f6e 02       		.uleb128 0x2
 2615 0f6f 91       		.byte	0x91
 2616 0f70 6C       		.sleb128 -20
 2617 0f71 23       		.uleb128 0x23
 2618 0f72 42050000 		.4byte	.LASF221
 2619 0f76 01       		.byte	0x1
 2620 0f77 94       		.byte	0x94
 2621 0f78 6E0E0000 		.4byte	0xe6e
 2622 0f7c 02       		.uleb128 0x2
 2623 0f7d 91       		.byte	0x91
 2624 0f7e 74       		.sleb128 -12
 2625 0f7f 00       		.byte	0
 2626 0f80 29       		.uleb128 0x29
 2627 0f81 C2050000 		.4byte	.LASF222
 2628 0f85 19       		.byte	0x19
 2629 0f86 FA06     		.2byte	0x6fa
 2630 0f88 E4000000 		.4byte	0xe4
 2631 0f8c 2A       		.uleb128 0x2a
 2632 0f8d 636800   		.ascii	"ch\000"
 2633 0f90 07       		.byte	0x7
 2634 0f91 0902     		.2byte	0x209
 2635 0f93 62040000 		.4byte	0x462
 2636 0f97 2A       		.uleb128 0x2a
 2637 0f98 53443300 		.ascii	"SD3\000"
 2638 0f9c 18       		.byte	0x18
 2639 0f9d 4801     		.2byte	0x148
 2640 0f9f 760C0000 		.4byte	0xc76
 2641 0fa3 17       		.uleb128 0x17
 2642 0fa4 6E0E0000 		.4byte	0xe6e
 2643 0fa8 B30F0000 		.4byte	0xfb3
 2644 0fac 18       		.uleb128 0x18
 2645 0fad DA040000 		.4byte	0x4da
 2646 0fb1 0F       		.byte	0xf
 2647 0fb2 00       		.byte	0
 2648 0fb3 2B       		.uleb128 0x2b
 2649 0fb4 5C070000 		.4byte	.LASF223
 2650 0fb8 01       		.byte	0x1
 2651 0fb9 03       		.byte	0x3
 2652 0fba A30F0000 		.4byte	0xfa3
 2653 0fbe 05       		.uleb128 0x5
 2654 0fbf 03       		.byte	0x3
 2655 0fc0 00000000 		.4byte	recieveboxArea
 2656 0fc4 2B       		.uleb128 0x2b
 2657 0fc5 5D060000 		.4byte	.LASF224
 2658 0fc9 01       		.byte	0x1
 2659 0fca 04       		.byte	0x4
 2660 0fcb 2E090000 		.4byte	0x92e
 2661 0fcf 05       		.uleb128 0x5
 2662 0fd0 03       		.byte	0x3
 2663 0fd1 00000000 		.4byte	recievebox
ARM GAS  /tmp/ccRXj7ty.s 			page 48


 2664 0fd5 2B       		.uleb128 0x2b
 2665 0fd6 62050000 		.4byte	.LASF225
 2666 0fda 01       		.byte	0x1
 2667 0fdb 06       		.byte	0x6
 2668 0fdc A5090000 		.4byte	0x9a5
 2669 0fe0 05       		.uleb128 0x5
 2670 0fe1 03       		.byte	0x3
 2671 0fe2 00000000 		.4byte	packetPool
 2672 0fe6 17       		.uleb128 0x17
 2673 0fe7 1C0E0000 		.4byte	0xe1c
 2674 0feb F60F0000 		.4byte	0xff6
 2675 0fef 18       		.uleb128 0x18
 2676 0ff0 DA040000 		.4byte	0x4da
 2677 0ff4 1F       		.byte	0x1f
 2678 0ff5 00       		.byte	0
 2679 0ff6 2B       		.uleb128 0x2b
 2680 0ff7 95030000 		.4byte	.LASF226
 2681 0ffb 01       		.byte	0x1
 2682 0ffc 07       		.byte	0x7
 2683 0ffd E60F0000 		.4byte	0xfe6
 2684 1001 05       		.uleb128 0x5
 2685 1002 03       		.byte	0x3
 2686 1003 00000000 		.4byte	protocol_01_buffer
 2687 1007 00       		.byte	0
 2688              		.section	.debug_abbrev,"",%progbits
 2689              	.Ldebug_abbrev0:
 2690 0000 01       		.uleb128 0x1
 2691 0001 11       		.uleb128 0x11
 2692 0002 01       		.byte	0x1
 2693 0003 25       		.uleb128 0x25
 2694 0004 0E       		.uleb128 0xe
 2695 0005 13       		.uleb128 0x13
 2696 0006 0B       		.uleb128 0xb
 2697 0007 03       		.uleb128 0x3
 2698 0008 0E       		.uleb128 0xe
 2699 0009 1B       		.uleb128 0x1b
 2700 000a 0E       		.uleb128 0xe
 2701 000b 55       		.uleb128 0x55
 2702 000c 17       		.uleb128 0x17
 2703 000d 11       		.uleb128 0x11
 2704 000e 01       		.uleb128 0x1
 2705 000f 10       		.uleb128 0x10
 2706 0010 17       		.uleb128 0x17
 2707 0011 00       		.byte	0
 2708 0012 00       		.byte	0
 2709 0013 02       		.uleb128 0x2
 2710 0014 24       		.uleb128 0x24
 2711 0015 00       		.byte	0
 2712 0016 0B       		.uleb128 0xb
 2713 0017 0B       		.uleb128 0xb
 2714 0018 3E       		.uleb128 0x3e
 2715 0019 0B       		.uleb128 0xb
 2716 001a 03       		.uleb128 0x3
 2717 001b 08       		.uleb128 0x8
 2718 001c 00       		.byte	0
 2719 001d 00       		.byte	0
 2720 001e 03       		.uleb128 0x3
ARM GAS  /tmp/ccRXj7ty.s 			page 49


 2721 001f 16       		.uleb128 0x16
 2722 0020 00       		.byte	0
 2723 0021 03       		.uleb128 0x3
 2724 0022 0E       		.uleb128 0xe
 2725 0023 3A       		.uleb128 0x3a
 2726 0024 0B       		.uleb128 0xb
 2727 0025 3B       		.uleb128 0x3b
 2728 0026 0B       		.uleb128 0xb
 2729 0027 49       		.uleb128 0x49
 2730 0028 13       		.uleb128 0x13
 2731 0029 00       		.byte	0
 2732 002a 00       		.byte	0
 2733 002b 04       		.uleb128 0x4
 2734 002c 24       		.uleb128 0x24
 2735 002d 00       		.byte	0
 2736 002e 0B       		.uleb128 0xb
 2737 002f 0B       		.uleb128 0xb
 2738 0030 3E       		.uleb128 0x3e
 2739 0031 0B       		.uleb128 0xb
 2740 0032 03       		.uleb128 0x3
 2741 0033 0E       		.uleb128 0xe
 2742 0034 00       		.byte	0
 2743 0035 00       		.byte	0
 2744 0036 05       		.uleb128 0x5
 2745 0037 35       		.uleb128 0x35
 2746 0038 00       		.byte	0
 2747 0039 49       		.uleb128 0x49
 2748 003a 13       		.uleb128 0x13
 2749 003b 00       		.byte	0
 2750 003c 00       		.byte	0
 2751 003d 06       		.uleb128 0x6
 2752 003e 13       		.uleb128 0x13
 2753 003f 01       		.byte	0x1
 2754 0040 03       		.uleb128 0x3
 2755 0041 0E       		.uleb128 0xe
 2756 0042 0B       		.uleb128 0xb
 2757 0043 0B       		.uleb128 0xb
 2758 0044 3A       		.uleb128 0x3a
 2759 0045 0B       		.uleb128 0xb
 2760 0046 3B       		.uleb128 0x3b
 2761 0047 0B       		.uleb128 0xb
 2762 0048 01       		.uleb128 0x1
 2763 0049 13       		.uleb128 0x13
 2764 004a 00       		.byte	0
 2765 004b 00       		.byte	0
 2766 004c 07       		.uleb128 0x7
 2767 004d 0D       		.uleb128 0xd
 2768 004e 00       		.byte	0
 2769 004f 03       		.uleb128 0x3
 2770 0050 0E       		.uleb128 0xe
 2771 0051 3A       		.uleb128 0x3a
 2772 0052 0B       		.uleb128 0xb
 2773 0053 3B       		.uleb128 0x3b
 2774 0054 0B       		.uleb128 0xb
 2775 0055 49       		.uleb128 0x49
 2776 0056 13       		.uleb128 0x13
 2777 0057 38       		.uleb128 0x38
ARM GAS  /tmp/ccRXj7ty.s 			page 50


 2778 0058 0B       		.uleb128 0xb
 2779 0059 00       		.byte	0
 2780 005a 00       		.byte	0
 2781 005b 08       		.uleb128 0x8
 2782 005c 0D       		.uleb128 0xd
 2783 005d 00       		.byte	0
 2784 005e 03       		.uleb128 0x3
 2785 005f 08       		.uleb128 0x8
 2786 0060 3A       		.uleb128 0x3a
 2787 0061 0B       		.uleb128 0xb
 2788 0062 3B       		.uleb128 0x3b
 2789 0063 05       		.uleb128 0x5
 2790 0064 49       		.uleb128 0x49
 2791 0065 13       		.uleb128 0x13
 2792 0066 38       		.uleb128 0x38
 2793 0067 0B       		.uleb128 0xb
 2794 0068 00       		.byte	0
 2795 0069 00       		.byte	0
 2796 006a 09       		.uleb128 0x9
 2797 006b 0D       		.uleb128 0xd
 2798 006c 00       		.byte	0
 2799 006d 03       		.uleb128 0x3
 2800 006e 0E       		.uleb128 0xe
 2801 006f 3A       		.uleb128 0x3a
 2802 0070 0B       		.uleb128 0xb
 2803 0071 3B       		.uleb128 0x3b
 2804 0072 05       		.uleb128 0x5
 2805 0073 49       		.uleb128 0x49
 2806 0074 13       		.uleb128 0x13
 2807 0075 38       		.uleb128 0x38
 2808 0076 0B       		.uleb128 0xb
 2809 0077 00       		.byte	0
 2810 0078 00       		.byte	0
 2811 0079 0A       		.uleb128 0xa
 2812 007a 0F       		.uleb128 0xf
 2813 007b 00       		.byte	0
 2814 007c 0B       		.uleb128 0xb
 2815 007d 0B       		.uleb128 0xb
 2816 007e 49       		.uleb128 0x49
 2817 007f 13       		.uleb128 0x13
 2818 0080 00       		.byte	0
 2819 0081 00       		.byte	0
 2820 0082 0B       		.uleb128 0xb
 2821 0083 13       		.uleb128 0x13
 2822 0084 01       		.byte	0x1
 2823 0085 03       		.uleb128 0x3
 2824 0086 0E       		.uleb128 0xe
 2825 0087 0B       		.uleb128 0xb
 2826 0088 0B       		.uleb128 0xb
 2827 0089 3A       		.uleb128 0x3a
 2828 008a 0B       		.uleb128 0xb
 2829 008b 3B       		.uleb128 0x3b
 2830 008c 05       		.uleb128 0x5
 2831 008d 01       		.uleb128 0x1
 2832 008e 13       		.uleb128 0x13
 2833 008f 00       		.byte	0
 2834 0090 00       		.byte	0
ARM GAS  /tmp/ccRXj7ty.s 			page 51


 2835 0091 0C       		.uleb128 0xc
 2836 0092 15       		.uleb128 0x15
 2837 0093 01       		.byte	0x1
 2838 0094 27       		.uleb128 0x27
 2839 0095 19       		.uleb128 0x19
 2840 0096 01       		.uleb128 0x1
 2841 0097 13       		.uleb128 0x13
 2842 0098 00       		.byte	0
 2843 0099 00       		.byte	0
 2844 009a 0D       		.uleb128 0xd
 2845 009b 05       		.uleb128 0x5
 2846 009c 00       		.byte	0
 2847 009d 49       		.uleb128 0x49
 2848 009e 13       		.uleb128 0x13
 2849 009f 00       		.byte	0
 2850 00a0 00       		.byte	0
 2851 00a1 0E       		.uleb128 0xe
 2852 00a2 0F       		.uleb128 0xf
 2853 00a3 00       		.byte	0
 2854 00a4 0B       		.uleb128 0xb
 2855 00a5 0B       		.uleb128 0xb
 2856 00a6 00       		.byte	0
 2857 00a7 00       		.byte	0
 2858 00a8 0F       		.uleb128 0xf
 2859 00a9 13       		.uleb128 0x13
 2860 00aa 01       		.byte	0x1
 2861 00ab 03       		.uleb128 0x3
 2862 00ac 0E       		.uleb128 0xe
 2863 00ad 0B       		.uleb128 0xb
 2864 00ae 05       		.uleb128 0x5
 2865 00af 3A       		.uleb128 0x3a
 2866 00b0 0B       		.uleb128 0xb
 2867 00b1 3B       		.uleb128 0x3b
 2868 00b2 05       		.uleb128 0x5
 2869 00b3 01       		.uleb128 0x1
 2870 00b4 13       		.uleb128 0x13
 2871 00b5 00       		.byte	0
 2872 00b6 00       		.byte	0
 2873 00b7 10       		.uleb128 0x10
 2874 00b8 0D       		.uleb128 0xd
 2875 00b9 00       		.byte	0
 2876 00ba 03       		.uleb128 0x3
 2877 00bb 0E       		.uleb128 0xe
 2878 00bc 3A       		.uleb128 0x3a
 2879 00bd 0B       		.uleb128 0xb
 2880 00be 3B       		.uleb128 0x3b
 2881 00bf 05       		.uleb128 0x5
 2882 00c0 49       		.uleb128 0x49
 2883 00c1 13       		.uleb128 0x13
 2884 00c2 38       		.uleb128 0x38
 2885 00c3 05       		.uleb128 0x5
 2886 00c4 00       		.byte	0
 2887 00c5 00       		.byte	0
 2888 00c6 11       		.uleb128 0x11
 2889 00c7 0D       		.uleb128 0xd
 2890 00c8 00       		.byte	0
 2891 00c9 03       		.uleb128 0x3
ARM GAS  /tmp/ccRXj7ty.s 			page 52


 2892 00ca 08       		.uleb128 0x8
 2893 00cb 3A       		.uleb128 0x3a
 2894 00cc 0B       		.uleb128 0xb
 2895 00cd 3B       		.uleb128 0x3b
 2896 00ce 05       		.uleb128 0x5
 2897 00cf 49       		.uleb128 0x49
 2898 00d0 13       		.uleb128 0x13
 2899 00d1 38       		.uleb128 0x38
 2900 00d2 05       		.uleb128 0x5
 2901 00d3 00       		.byte	0
 2902 00d4 00       		.byte	0
 2903 00d5 12       		.uleb128 0x12
 2904 00d6 13       		.uleb128 0x13
 2905 00d7 01       		.byte	0x1
 2906 00d8 0B       		.uleb128 0xb
 2907 00d9 0B       		.uleb128 0xb
 2908 00da 3A       		.uleb128 0x3a
 2909 00db 0B       		.uleb128 0xb
 2910 00dc 3B       		.uleb128 0x3b
 2911 00dd 05       		.uleb128 0x5
 2912 00de 01       		.uleb128 0x1
 2913 00df 13       		.uleb128 0x13
 2914 00e0 00       		.byte	0
 2915 00e1 00       		.byte	0
 2916 00e2 13       		.uleb128 0x13
 2917 00e3 16       		.uleb128 0x16
 2918 00e4 00       		.byte	0
 2919 00e5 03       		.uleb128 0x3
 2920 00e6 0E       		.uleb128 0xe
 2921 00e7 3A       		.uleb128 0x3a
 2922 00e8 0B       		.uleb128 0xb
 2923 00e9 3B       		.uleb128 0x3b
 2924 00ea 05       		.uleb128 0x5
 2925 00eb 49       		.uleb128 0x49
 2926 00ec 13       		.uleb128 0x13
 2927 00ed 00       		.byte	0
 2928 00ee 00       		.byte	0
 2929 00ef 14       		.uleb128 0x14
 2930 00f0 0D       		.uleb128 0xd
 2931 00f1 00       		.byte	0
 2932 00f2 03       		.uleb128 0x3
 2933 00f3 08       		.uleb128 0x8
 2934 00f4 3A       		.uleb128 0x3a
 2935 00f5 0B       		.uleb128 0xb
 2936 00f6 3B       		.uleb128 0x3b
 2937 00f7 0B       		.uleb128 0xb
 2938 00f8 49       		.uleb128 0x49
 2939 00f9 13       		.uleb128 0x13
 2940 00fa 38       		.uleb128 0x38
 2941 00fb 0B       		.uleb128 0xb
 2942 00fc 00       		.byte	0
 2943 00fd 00       		.byte	0
 2944 00fe 15       		.uleb128 0x15
 2945 00ff 13       		.uleb128 0x13
 2946 0100 01       		.byte	0x1
 2947 0101 0B       		.uleb128 0xb
 2948 0102 0B       		.uleb128 0xb
ARM GAS  /tmp/ccRXj7ty.s 			page 53


 2949 0103 3A       		.uleb128 0x3a
 2950 0104 0B       		.uleb128 0xb
 2951 0105 3B       		.uleb128 0x3b
 2952 0106 0B       		.uleb128 0xb
 2953 0107 01       		.uleb128 0x1
 2954 0108 13       		.uleb128 0x13
 2955 0109 00       		.byte	0
 2956 010a 00       		.byte	0
 2957 010b 16       		.uleb128 0x16
 2958 010c 13       		.uleb128 0x13
 2959 010d 01       		.byte	0x1
 2960 010e 0B       		.uleb128 0xb
 2961 010f 05       		.uleb128 0x5
 2962 0110 3A       		.uleb128 0x3a
 2963 0111 0B       		.uleb128 0xb
 2964 0112 3B       		.uleb128 0x3b
 2965 0113 0B       		.uleb128 0xb
 2966 0114 01       		.uleb128 0x1
 2967 0115 13       		.uleb128 0x13
 2968 0116 00       		.byte	0
 2969 0117 00       		.byte	0
 2970 0118 17       		.uleb128 0x17
 2971 0119 01       		.uleb128 0x1
 2972 011a 01       		.byte	0x1
 2973 011b 49       		.uleb128 0x49
 2974 011c 13       		.uleb128 0x13
 2975 011d 01       		.uleb128 0x1
 2976 011e 13       		.uleb128 0x13
 2977 011f 00       		.byte	0
 2978 0120 00       		.byte	0
 2979 0121 18       		.uleb128 0x18
 2980 0122 21       		.uleb128 0x21
 2981 0123 00       		.byte	0
 2982 0124 49       		.uleb128 0x49
 2983 0125 13       		.uleb128 0x13
 2984 0126 2F       		.uleb128 0x2f
 2985 0127 0B       		.uleb128 0xb
 2986 0128 00       		.byte	0
 2987 0129 00       		.byte	0
 2988 012a 19       		.uleb128 0x19
 2989 012b 17       		.uleb128 0x17
 2990 012c 01       		.byte	0x1
 2991 012d 0B       		.uleb128 0xb
 2992 012e 0B       		.uleb128 0xb
 2993 012f 3A       		.uleb128 0x3a
 2994 0130 0B       		.uleb128 0xb
 2995 0131 3B       		.uleb128 0x3b
 2996 0132 0B       		.uleb128 0xb
 2997 0133 01       		.uleb128 0x1
 2998 0134 13       		.uleb128 0x13
 2999 0135 00       		.byte	0
 3000 0136 00       		.byte	0
 3001 0137 1A       		.uleb128 0x1a
 3002 0138 0D       		.uleb128 0xd
 3003 0139 00       		.byte	0
 3004 013a 03       		.uleb128 0x3
 3005 013b 0E       		.uleb128 0xe
ARM GAS  /tmp/ccRXj7ty.s 			page 54


 3006 013c 3A       		.uleb128 0x3a
 3007 013d 0B       		.uleb128 0xb
 3008 013e 3B       		.uleb128 0x3b
 3009 013f 05       		.uleb128 0x5
 3010 0140 49       		.uleb128 0x49
 3011 0141 13       		.uleb128 0x13
 3012 0142 00       		.byte	0
 3013 0143 00       		.byte	0
 3014 0144 1B       		.uleb128 0x1b
 3015 0145 26       		.uleb128 0x26
 3016 0146 00       		.byte	0
 3017 0147 49       		.uleb128 0x49
 3018 0148 13       		.uleb128 0x13
 3019 0149 00       		.byte	0
 3020 014a 00       		.byte	0
 3021 014b 1C       		.uleb128 0x1c
 3022 014c 15       		.uleb128 0x15
 3023 014d 01       		.byte	0x1
 3024 014e 27       		.uleb128 0x27
 3025 014f 19       		.uleb128 0x19
 3026 0150 49       		.uleb128 0x49
 3027 0151 13       		.uleb128 0x13
 3028 0152 01       		.uleb128 0x1
 3029 0153 13       		.uleb128 0x13
 3030 0154 00       		.byte	0
 3031 0155 00       		.byte	0
 3032 0156 1D       		.uleb128 0x1d
 3033 0157 0D       		.uleb128 0xd
 3034 0158 00       		.byte	0
 3035 0159 03       		.uleb128 0x3
 3036 015a 08       		.uleb128 0x8
 3037 015b 3A       		.uleb128 0x3a
 3038 015c 0B       		.uleb128 0xb
 3039 015d 3B       		.uleb128 0x3b
 3040 015e 0B       		.uleb128 0xb
 3041 015f 49       		.uleb128 0x49
 3042 0160 13       		.uleb128 0x13
 3043 0161 00       		.byte	0
 3044 0162 00       		.byte	0
 3045 0163 1E       		.uleb128 0x1e
 3046 0164 04       		.uleb128 0x4
 3047 0165 01       		.byte	0x1
 3048 0166 0B       		.uleb128 0xb
 3049 0167 0B       		.uleb128 0xb
 3050 0168 3A       		.uleb128 0x3a
 3051 0169 0B       		.uleb128 0xb
 3052 016a 3B       		.uleb128 0x3b
 3053 016b 0B       		.uleb128 0xb
 3054 016c 01       		.uleb128 0x1
 3055 016d 13       		.uleb128 0x13
 3056 016e 00       		.byte	0
 3057 016f 00       		.byte	0
 3058 0170 1F       		.uleb128 0x1f
 3059 0171 28       		.uleb128 0x28
 3060 0172 00       		.byte	0
 3061 0173 03       		.uleb128 0x3
 3062 0174 0E       		.uleb128 0xe
ARM GAS  /tmp/ccRXj7ty.s 			page 55


 3063 0175 1C       		.uleb128 0x1c
 3064 0176 0D       		.uleb128 0xd
 3065 0177 00       		.byte	0
 3066 0178 00       		.byte	0
 3067 0179 20       		.uleb128 0x20
 3068 017a 2E       		.uleb128 0x2e
 3069 017b 00       		.byte	0
 3070 017c 3F       		.uleb128 0x3f
 3071 017d 19       		.uleb128 0x19
 3072 017e 03       		.uleb128 0x3
 3073 017f 0E       		.uleb128 0xe
 3074 0180 3A       		.uleb128 0x3a
 3075 0181 0B       		.uleb128 0xb
 3076 0182 3B       		.uleb128 0x3b
 3077 0183 0B       		.uleb128 0xb
 3078 0184 27       		.uleb128 0x27
 3079 0185 19       		.uleb128 0x19
 3080 0186 11       		.uleb128 0x11
 3081 0187 01       		.uleb128 0x1
 3082 0188 12       		.uleb128 0x12
 3083 0189 06       		.uleb128 0x6
 3084 018a 40       		.uleb128 0x40
 3085 018b 18       		.uleb128 0x18
 3086 018c 9642     		.uleb128 0x2116
 3087 018e 19       		.uleb128 0x19
 3088 018f 00       		.byte	0
 3089 0190 00       		.byte	0
 3090 0191 21       		.uleb128 0x21
 3091 0192 2E       		.uleb128 0x2e
 3092 0193 01       		.byte	0x1
 3093 0194 3F       		.uleb128 0x3f
 3094 0195 19       		.uleb128 0x19
 3095 0196 03       		.uleb128 0x3
 3096 0197 0E       		.uleb128 0xe
 3097 0198 3A       		.uleb128 0x3a
 3098 0199 0B       		.uleb128 0xb
 3099 019a 3B       		.uleb128 0x3b
 3100 019b 0B       		.uleb128 0xb
 3101 019c 27       		.uleb128 0x27
 3102 019d 19       		.uleb128 0x19
 3103 019e 49       		.uleb128 0x49
 3104 019f 13       		.uleb128 0x13
 3105 01a0 11       		.uleb128 0x11
 3106 01a1 01       		.uleb128 0x1
 3107 01a2 12       		.uleb128 0x12
 3108 01a3 06       		.uleb128 0x6
 3109 01a4 40       		.uleb128 0x40
 3110 01a5 18       		.uleb128 0x18
 3111 01a6 9642     		.uleb128 0x2116
 3112 01a8 19       		.uleb128 0x19
 3113 01a9 01       		.uleb128 0x1
 3114 01aa 13       		.uleb128 0x13
 3115 01ab 00       		.byte	0
 3116 01ac 00       		.byte	0
 3117 01ad 22       		.uleb128 0x22
 3118 01ae 05       		.uleb128 0x5
 3119 01af 00       		.byte	0
ARM GAS  /tmp/ccRXj7ty.s 			page 56


 3120 01b0 03       		.uleb128 0x3
 3121 01b1 0E       		.uleb128 0xe
 3122 01b2 3A       		.uleb128 0x3a
 3123 01b3 0B       		.uleb128 0xb
 3124 01b4 3B       		.uleb128 0x3b
 3125 01b5 0B       		.uleb128 0xb
 3126 01b6 49       		.uleb128 0x49
 3127 01b7 13       		.uleb128 0x13
 3128 01b8 02       		.uleb128 0x2
 3129 01b9 18       		.uleb128 0x18
 3130 01ba 00       		.byte	0
 3131 01bb 00       		.byte	0
 3132 01bc 23       		.uleb128 0x23
 3133 01bd 34       		.uleb128 0x34
 3134 01be 00       		.byte	0
 3135 01bf 03       		.uleb128 0x3
 3136 01c0 0E       		.uleb128 0xe
 3137 01c1 3A       		.uleb128 0x3a
 3138 01c2 0B       		.uleb128 0xb
 3139 01c3 3B       		.uleb128 0x3b
 3140 01c4 0B       		.uleb128 0xb
 3141 01c5 49       		.uleb128 0x49
 3142 01c6 13       		.uleb128 0x13
 3143 01c7 02       		.uleb128 0x2
 3144 01c8 18       		.uleb128 0x18
 3145 01c9 00       		.byte	0
 3146 01ca 00       		.byte	0
 3147 01cb 24       		.uleb128 0x24
 3148 01cc 2E       		.uleb128 0x2e
 3149 01cd 01       		.byte	0x1
 3150 01ce 3F       		.uleb128 0x3f
 3151 01cf 19       		.uleb128 0x19
 3152 01d0 03       		.uleb128 0x3
 3153 01d1 0E       		.uleb128 0xe
 3154 01d2 3A       		.uleb128 0x3a
 3155 01d3 0B       		.uleb128 0xb
 3156 01d4 3B       		.uleb128 0x3b
 3157 01d5 0B       		.uleb128 0xb
 3158 01d6 27       		.uleb128 0x27
 3159 01d7 19       		.uleb128 0x19
 3160 01d8 11       		.uleb128 0x11
 3161 01d9 01       		.uleb128 0x1
 3162 01da 12       		.uleb128 0x12
 3163 01db 06       		.uleb128 0x6
 3164 01dc 40       		.uleb128 0x40
 3165 01dd 18       		.uleb128 0x18
 3166 01de 9642     		.uleb128 0x2116
 3167 01e0 19       		.uleb128 0x19
 3168 01e1 01       		.uleb128 0x1
 3169 01e2 13       		.uleb128 0x13
 3170 01e3 00       		.byte	0
 3171 01e4 00       		.byte	0
 3172 01e5 25       		.uleb128 0x25
 3173 01e6 05       		.uleb128 0x5
 3174 01e7 00       		.byte	0
 3175 01e8 03       		.uleb128 0x3
 3176 01e9 08       		.uleb128 0x8
ARM GAS  /tmp/ccRXj7ty.s 			page 57


 3177 01ea 3A       		.uleb128 0x3a
 3178 01eb 0B       		.uleb128 0xb
 3179 01ec 3B       		.uleb128 0x3b
 3180 01ed 0B       		.uleb128 0xb
 3181 01ee 49       		.uleb128 0x49
 3182 01ef 13       		.uleb128 0x13
 3183 01f0 02       		.uleb128 0x2
 3184 01f1 18       		.uleb128 0x18
 3185 01f2 00       		.byte	0
 3186 01f3 00       		.byte	0
 3187 01f4 26       		.uleb128 0x26
 3188 01f5 34       		.uleb128 0x34
 3189 01f6 00       		.byte	0
 3190 01f7 03       		.uleb128 0x3
 3191 01f8 08       		.uleb128 0x8
 3192 01f9 3A       		.uleb128 0x3a
 3193 01fa 0B       		.uleb128 0xb
 3194 01fb 3B       		.uleb128 0x3b
 3195 01fc 0B       		.uleb128 0xb
 3196 01fd 49       		.uleb128 0x49
 3197 01fe 13       		.uleb128 0x13
 3198 01ff 02       		.uleb128 0x2
 3199 0200 18       		.uleb128 0x18
 3200 0201 00       		.byte	0
 3201 0202 00       		.byte	0
 3202 0203 27       		.uleb128 0x27
 3203 0204 0B       		.uleb128 0xb
 3204 0205 01       		.byte	0x1
 3205 0206 11       		.uleb128 0x11
 3206 0207 01       		.uleb128 0x1
 3207 0208 12       		.uleb128 0x12
 3208 0209 06       		.uleb128 0x6
 3209 020a 01       		.uleb128 0x1
 3210 020b 13       		.uleb128 0x13
 3211 020c 00       		.byte	0
 3212 020d 00       		.byte	0
 3213 020e 28       		.uleb128 0x28
 3214 020f 0B       		.uleb128 0xb
 3215 0210 01       		.byte	0x1
 3216 0211 11       		.uleb128 0x11
 3217 0212 01       		.uleb128 0x1
 3218 0213 12       		.uleb128 0x12
 3219 0214 06       		.uleb128 0x6
 3220 0215 00       		.byte	0
 3221 0216 00       		.byte	0
 3222 0217 29       		.uleb128 0x29
 3223 0218 34       		.uleb128 0x34
 3224 0219 00       		.byte	0
 3225 021a 03       		.uleb128 0x3
 3226 021b 0E       		.uleb128 0xe
 3227 021c 3A       		.uleb128 0x3a
 3228 021d 0B       		.uleb128 0xb
 3229 021e 3B       		.uleb128 0x3b
 3230 021f 05       		.uleb128 0x5
 3231 0220 49       		.uleb128 0x49
 3232 0221 13       		.uleb128 0x13
 3233 0222 3F       		.uleb128 0x3f
ARM GAS  /tmp/ccRXj7ty.s 			page 58


 3234 0223 19       		.uleb128 0x19
 3235 0224 3C       		.uleb128 0x3c
 3236 0225 19       		.uleb128 0x19
 3237 0226 00       		.byte	0
 3238 0227 00       		.byte	0
 3239 0228 2A       		.uleb128 0x2a
 3240 0229 34       		.uleb128 0x34
 3241 022a 00       		.byte	0
 3242 022b 03       		.uleb128 0x3
 3243 022c 08       		.uleb128 0x8
 3244 022d 3A       		.uleb128 0x3a
 3245 022e 0B       		.uleb128 0xb
 3246 022f 3B       		.uleb128 0x3b
 3247 0230 05       		.uleb128 0x5
 3248 0231 49       		.uleb128 0x49
 3249 0232 13       		.uleb128 0x13
 3250 0233 3F       		.uleb128 0x3f
 3251 0234 19       		.uleb128 0x19
 3252 0235 3C       		.uleb128 0x3c
 3253 0236 19       		.uleb128 0x19
 3254 0237 00       		.byte	0
 3255 0238 00       		.byte	0
 3256 0239 2B       		.uleb128 0x2b
 3257 023a 34       		.uleb128 0x34
 3258 023b 00       		.byte	0
 3259 023c 03       		.uleb128 0x3
 3260 023d 0E       		.uleb128 0xe
 3261 023e 3A       		.uleb128 0x3a
 3262 023f 0B       		.uleb128 0xb
 3263 0240 3B       		.uleb128 0x3b
 3264 0241 0B       		.uleb128 0xb
 3265 0242 49       		.uleb128 0x49
 3266 0243 13       		.uleb128 0x13
 3267 0244 3F       		.uleb128 0x3f
 3268 0245 19       		.uleb128 0x19
 3269 0246 02       		.uleb128 0x2
 3270 0247 18       		.uleb128 0x18
 3271 0248 00       		.byte	0
 3272 0249 00       		.byte	0
 3273 024a 00       		.byte	0
 3274              		.section	.debug_aranges,"",%progbits
 3275 0000 3C000000 		.4byte	0x3c
 3276 0004 0200     		.2byte	0x2
 3277 0006 00000000 		.4byte	.Ldebug_info0
 3278 000a 04       		.byte	0x4
 3279 000b 00       		.byte	0
 3280 000c 0000     		.2byte	0
 3281 000e 0000     		.2byte	0
 3282 0010 00000000 		.4byte	.LFB271
 3283 0014 60000000 		.4byte	.LFE271-.LFB271
 3284 0018 00000000 		.4byte	.LFB272
 3285 001c 3C000000 		.4byte	.LFE272-.LFB272
 3286 0020 00000000 		.4byte	.LFB273
 3287 0024 1C000000 		.4byte	.LFE273-.LFB273
 3288 0028 00000000 		.4byte	.LFB274
 3289 002c 1E030000 		.4byte	.LFE274-.LFB274
 3290 0030 00000000 		.4byte	.LFB275
ARM GAS  /tmp/ccRXj7ty.s 			page 59


 3291 0034 44000000 		.4byte	.LFE275-.LFB275
 3292 0038 00000000 		.4byte	0
 3293 003c 00000000 		.4byte	0
 3294              		.section	.debug_ranges,"",%progbits
 3295              	.Ldebug_ranges0:
 3296 0000 00000000 		.4byte	.LFB271
 3297 0004 60000000 		.4byte	.LFE271
 3298 0008 00000000 		.4byte	.LFB272
 3299 000c 3C000000 		.4byte	.LFE272
 3300 0010 00000000 		.4byte	.LFB273
 3301 0014 1C000000 		.4byte	.LFE273
 3302 0018 00000000 		.4byte	.LFB274
 3303 001c 1E030000 		.4byte	.LFE274
 3304 0020 00000000 		.4byte	.LFB275
 3305 0024 44000000 		.4byte	.LFE275
 3306 0028 00000000 		.4byte	0
 3307 002c 00000000 		.4byte	0
 3308              		.section	.debug_line,"",%progbits
 3309              	.Ldebug_line0:
 3310 0000 EB030000 		.section	.debug_str,"MS",%progbits,1
 3310      02000503 
 3310      00000201 
 3310      FB0E0D00 
 3310      01010101 
 3311              	.LASF51:
 3312 0000 705F7374 		.ascii	"p_stats\000"
 3312      61747300 
 3313              	.LASF2:
 3314 0008 73697A65 		.ascii	"size_t\000"
 3314      5F7400
 3315              	.LASF90:
 3316 000f 73697A65 		.ascii	"sizetype\000"
 3316      74797065 
 3316      00
 3317              	.LASF122:
 3318 0018 77747365 		.ascii	"wtsemp\000"
 3318      6D7000
 3319              	.LASF31:
 3320 001f 73797374 		.ascii	"systime_t\000"
 3320      696D655F 
 3320      7400
 3321              	.LASF176:
 3322 0029 4F535045 		.ascii	"OSPEEDR\000"
 3322      45445200 
 3323              	.LASF36:
 3324 0031 705F6374 		.ascii	"p_ctx\000"
 3324      7800
 3325              	.LASF25:
 3326 0037 74707269 		.ascii	"tprio_t\000"
 3326      6F5F7400 
 3327              	.LASF45:
 3328 003f 705F6D73 		.ascii	"p_msgqueue\000"
 3328      67717565 
 3328      756500
 3329              	.LASF62:
 3330 004a 725F6374 		.ascii	"r_ctx\000"
 3330      7800
ARM GAS  /tmp/ccRXj7ty.s 			page 60


 3331              	.LASF17:
 3332 0050 696E7433 		.ascii	"int32_t\000"
 3332      325F7400 
 3333              	.LASF199:
 3334 0058 77726974 		.ascii	"writet\000"
 3334      657400
 3335              	.LASF66:
 3336 005f 76746675 		.ascii	"vtfunc_t\000"
 3336      6E635F74 
 3336      00
 3337              	.LASF231:
 3338 0068 64656C5F 		.ascii	"del_protocol_01\000"
 3338      70726F74 
 3338      6F636F6C 
 3338      5F303100 
 3339              	.LASF75:
 3340 0078 63685F76 		.ascii	"ch_virtual_timers_list\000"
 3340      69727475 
 3340      616C5F74 
 3340      696D6572 
 3340      735F6C69 
 3341              	.LASF195:
 3342 008f 77726974 		.ascii	"write\000"
 3342      6500
 3343              	.LASF227:
 3344 0095 474E5520 		.ascii	"GNU C 4.8.4 20141219 (release) -mcpu=cortex-m4 -mno"
 3344      4320342E 
 3344      382E3420 
 3344      32303134 
 3344      31323139 
 3345 00c8 2D746875 		.ascii	"-thumb-interwork -mthumb -ggdb -O0 -fomit-frame-poi"
 3345      6D622D69 
 3345      6E746572 
 3345      776F726B 
 3345      202D6D74 
 3346 00fb 6E746572 		.ascii	"nter -falign-functions=16 -ffunction-sections -fdat"
 3346      202D6661 
 3346      6C69676E 
 3346      2D66756E 
 3346      6374696F 
 3347 012e 612D7365 		.ascii	"a-sections -fno-common\000"
 3347      6374696F 
 3347      6E73202D 
 3347      666E6F2D 
 3347      636F6D6D 
 3348              	.LASF145:
 3349 0145 6D625F62 		.ascii	"mb_buffer\000"
 3349      75666665 
 3349      7200
 3350              	.LASF140:
 3351 014f 656C5F66 		.ascii	"el_flags\000"
 3351      6C616773 
 3351      00
 3352              	.LASF210:
 3353 0158 616E616C 		.ascii	"analog_io\000"
 3353      6F675F69 
 3353      6F00
ARM GAS  /tmp/ccRXj7ty.s 			page 61


 3354              	.LASF190:
 3355 0162 73746174 		.ascii	"state\000"
 3355      6500
 3356              	.LASF81:
 3357 0168 6C6F636B 		.ascii	"lock_cnt\000"
 3357      5F636E74 
 3357      00
 3358              	.LASF197:
 3359 0171 70757474 		.ascii	"putt\000"
 3359      00
 3360              	.LASF98:
 3361 0176 73655F74 		.ascii	"se_tp\000"
 3361      7000
 3362              	.LASF112:
 3363 017c 74696D65 		.ascii	"time_measurement_t\000"
 3363      5F6D6561 
 3363      73757265 
 3363      6D656E74 
 3363      5F7400
 3364              	.LASF207:
 3365 018f 73757065 		.ascii	"super\000"
 3365      7200
 3366              	.LASF130:
 3367 0195 6D5F6F77 		.ascii	"m_owner\000"
 3367      6E657200 
 3368              	.LASF73:
 3369 019d 76745F70 		.ascii	"vt_par\000"
 3369      617200
 3370              	.LASF119:
 3371 01a4 65786974 		.ascii	"exitcode\000"
 3371      636F6465 
 3371      00
 3372              	.LASF220:
 3373 01ad 74785772 		.ascii	"txWrite\000"
 3373      69746500 
 3374              	.LASF3:
 3375 01b5 5F5F7569 		.ascii	"__uint8_t\000"
 3375      6E74385F 
 3375      7400
 3376              	.LASF164:
 3377 01bf 715F746F 		.ascii	"q_top\000"
 3377      7000
 3378              	.LASF177:
 3379 01c5 50555044 		.ascii	"PUPDR\000"
 3379      5200
 3380              	.LASF200:
 3381 01cb 72656164 		.ascii	"readt\000"
 3381      7400
 3382              	.LASF163:
 3383 01d1 715F6275 		.ascii	"q_buffer\000"
 3383      66666572 
 3383      00
 3384              	.LASF167:
 3385 01da 715F6E6F 		.ascii	"q_notify\000"
 3385      74696679 
 3385      00
 3386              	.LASF37:
ARM GAS  /tmp/ccRXj7ty.s 			page 62


 3387 01e3 705F6E65 		.ascii	"p_newer\000"
 3387      77657200 
 3388              	.LASF9:
 3389 01eb 6C6F6E67 		.ascii	"long int\000"
 3389      20696E74 
 3389      00
 3390              	.LASF33:
 3391 01f4 705F6E65 		.ascii	"p_next\000"
 3391      787400
 3392              	.LASF166:
 3393 01fb 715F7264 		.ascii	"q_rdptr\000"
 3393      70747200 
 3394              	.LASF34:
 3395 0203 705F7072 		.ascii	"p_prev\000"
 3395      657600
 3396              	.LASF23:
 3397 020a 74737461 		.ascii	"tstate_t\000"
 3397      74655F74 
 3397      00
 3398              	.LASF21:
 3399 0213 72747469 		.ascii	"rttime_t\000"
 3399      6D655F74 
 3399      00
 3400              	.LASF56:
 3401 021c 74687265 		.ascii	"threads_queue_t\000"
 3401      6164735F 
 3401      71756575 
 3401      655F7400 
 3402              	.LASF48:
 3403 022c 705F6D74 		.ascii	"p_mtxlist\000"
 3403      786C6973 
 3403      7400
 3404              	.LASF192:
 3405 0236 6F717565 		.ascii	"oqueue\000"
 3405      756500
 3406              	.LASF93:
 3407 023d 72656761 		.ascii	"regarm_t\000"
 3407      726D5F74 
 3407      00
 3408              	.LASF160:
 3409 0246 696F5F71 		.ascii	"io_queue\000"
 3409      75657565 
 3409      00
 3410              	.LASF193:
 3411 024f 75736172 		.ascii	"usart\000"
 3411      7400
 3412              	.LASF111:
 3413 0255 63756D75 		.ascii	"cumulative\000"
 3413      6C617469 
 3413      766500
 3414              	.LASF1:
 3415 0260 7369676E 		.ascii	"signed char\000"
 3415      65642063 
 3415      68617200 
 3416              	.LASF124:
 3417 026c 65776D61 		.ascii	"ewmask\000"
 3417      736B00
ARM GAS  /tmp/ccRXj7ty.s 			page 63


 3418              	.LASF15:
 3419 0273 75696E74 		.ascii	"uint8_t\000"
 3419      385F7400 
 3420              	.LASF148:
 3421 027b 6D625F72 		.ascii	"mb_rdptr\000"
 3421      64707472 
 3421      00
 3422              	.LASF27:
 3423 0284 6576656E 		.ascii	"eventmask_t\000"
 3423      746D6173 
 3423      6B5F7400 
 3424              	.LASF204:
 3425 0290 6672616D 		.ascii	"frame_end\000"
 3425      655F656E 
 3425      6400
 3426              	.LASF95:
 3427 029a 636F6E74 		.ascii	"context\000"
 3427      65787400 
 3428              	.LASF121:
 3429 02a2 77747472 		.ascii	"wttrp\000"
 3429      7000
 3430              	.LASF4:
 3431 02a8 756E7369 		.ascii	"unsigned char\000"
 3431      676E6564 
 3431      20636861 
 3431      7200
 3432              	.LASF168:
 3433 02b6 715F6C69 		.ascii	"q_link\000"
 3433      6E6B00
 3434              	.LASF182:
 3435 02bd 73746D33 		.ascii	"stm32_gpio_t\000"
 3435      325F6770 
 3435      696F5F74 
 3435      00
 3436              	.LASF79:
 3437 02ca 70616E69 		.ascii	"panic_msg\000"
 3437      635F6D73 
 3437      6700
 3438              	.LASF82:
 3439 02d4 74726163 		.ascii	"trace_buffer\000"
 3439      655F6275 
 3439      66666572 
 3439      00
 3440              	.LASF63:
 3441 02e1 725F6E65 		.ascii	"r_newer\000"
 3441      77657200 
 3442              	.LASF77:
 3443 02e9 73797374 		.ascii	"system_debug_t\000"
 3443      656D5F64 
 3443      65627567 
 3443      5F7400
 3444              	.LASF184:
 3445 02f8 53445F55 		.ascii	"SD_UNINIT\000"
 3445      4E494E49 
 3445      5400
 3446              	.LASF229:
 3447 0302 2F686F6D 		.ascii	"/home/efe/projeler/io-expander.dev.efe-rev2\000"
ARM GAS  /tmp/ccRXj7ty.s 			page 64


 3447      652F6566 
 3447      652F7072 
 3447      6F6A656C 
 3447      65722F69 
 3448              	.LASF172:
 3449 032e 5F426F6F 		.ascii	"_Bool\000"
 3449      6C00
 3450              	.LASF132:
 3451 0334 63686172 		.ascii	"char\000"
 3451      00
 3452              	.LASF214:
 3453 0339 6E65775F 		.ascii	"new_protocol_01\000"
 3453      70726F74 
 3453      6F636F6C 
 3453      5F303100 
 3454              	.LASF35:
 3455 0349 705F7072 		.ascii	"p_prio\000"
 3455      696F00
 3456              	.LASF6:
 3457 0350 5F5F7569 		.ascii	"__uint16_t\000"
 3457      6E743136 
 3457      5F7400
 3458              	.LASF150:
 3459 035b 6D625F65 		.ascii	"mb_emptysem\000"
 3459      6D707479 
 3459      73656D00 
 3460              	.LASF120:
 3461 0367 77746F62 		.ascii	"wtobjp\000"
 3461      6A7000
 3462              	.LASF114:
 3463 036e 6E5F6374 		.ascii	"n_ctxswc\000"
 3463      78737763 
 3463      00
 3464              	.LASF198:
 3465 0377 67657474 		.ascii	"gett\000"
 3465      00
 3466              	.LASF94:
 3467 037c 73746B61 		.ascii	"stkalign_t\000"
 3467      6C69676E 
 3467      5F7400
 3468              	.LASF92:
 3469 0387 55534152 		.ascii	"USART_TypeDef\000"
 3469      545F5479 
 3469      70654465 
 3469      6600
 3470              	.LASF226:
 3471 0395 70726F74 		.ascii	"protocol_01_buffer\000"
 3471      6F636F6C 
 3471      5F30315F 
 3471      62756666 
 3471      657200
 3472              	.LASF109:
 3473 03a8 776F7273 		.ascii	"worst\000"
 3473      7400
 3474              	.LASF135:
 3475 03ae 6576656E 		.ascii	"event_listener_t\000"
 3475      745F6C69 
ARM GAS  /tmp/ccRXj7ty.s 			page 65


 3475      7374656E 
 3475      65725F74 
 3475      00
 3476              	.LASF183:
 3477 03bf 696F706F 		.ascii	"ioportmask_t\000"
 3477      72746D61 
 3477      736B5F74 
 3477      00
 3478              	.LASF29:
 3479 03cc 636E745F 		.ascii	"cnt_t\000"
 3479      7400
 3480              	.LASF72:
 3481 03d2 76745F66 		.ascii	"vt_func\000"
 3481      756E6300 
 3482              	.LASF217:
 3483 03da 62756666 		.ascii	"buffer\000"
 3483      657200
 3484              	.LASF105:
 3485 03e1 63685F74 		.ascii	"ch_trace_buffer_t\000"
 3485      72616365 
 3485      5F627566 
 3485      6665725F 
 3485      7400
 3486              	.LASF47:
 3487 03f3 705F6570 		.ascii	"p_epending\000"
 3487      656E6469 
 3487      6E6700
 3488              	.LASF123:
 3489 03fe 77746D74 		.ascii	"wtmtxp\000"
 3489      787000
 3490              	.LASF59:
 3491 0405 63685F72 		.ascii	"ch_ready_list\000"
 3491      65616479 
 3491      5F6C6973 
 3491      7400
 3492              	.LASF173:
 3493 0413 636C6561 		.ascii	"clear\000"
 3493      7200
 3494              	.LASF213:
 3495 0419 6672616D 		.ascii	"frame_to_del\000"
 3495      655F746F 
 3495      5F64656C 
 3495      00
 3496              	.LASF80:
 3497 0426 6973725F 		.ascii	"isr_cnt\000"
 3497      636E7400 
 3498              	.LASF219:
 3499 042e 696E6465 		.ascii	"index\000"
 3499      7800
 3500              	.LASF116:
 3501 0434 6D5F6372 		.ascii	"m_crit_isr\000"
 3501      69745F69 
 3501      737200
 3502              	.LASF143:
 3503 043f 65735F6E 		.ascii	"es_next\000"
 3503      65787400 
 3504              	.LASF162:
ARM GAS  /tmp/ccRXj7ty.s 			page 66


 3505 0447 715F636F 		.ascii	"q_counter\000"
 3505      756E7465 
 3505      7200
 3506              	.LASF100:
 3507 0451 73655F73 		.ascii	"se_state\000"
 3507      74617465 
 3507      00
 3508              	.LASF115:
 3509 045a 6D5F6372 		.ascii	"m_crit_thd\000"
 3509      69745F74 
 3509      686400
 3510              	.LASF13:
 3511 0465 5F5F7569 		.ascii	"__uint64_t\000"
 3511      6E743634 
 3511      5F7400
 3512              	.LASF11:
 3513 0470 6C6F6E67 		.ascii	"long unsigned int\000"
 3513      20756E73 
 3513      69676E65 
 3513      6420696E 
 3513      7400
 3514              	.LASF216:
 3515 0482 73656C66 		.ascii	"self\000"
 3515      00
 3516              	.LASF125:
 3517 0487 63685F73 		.ascii	"ch_semaphore\000"
 3517      656D6170 
 3517      686F7265 
 3517      00
 3518              	.LASF54:
 3519 0494 63685F74 		.ascii	"ch_thread\000"
 3519      68726561 
 3519      6400
 3520              	.LASF74:
 3521 049e 76697274 		.ascii	"virtual_timers_list_t\000"
 3521      75616C5F 
 3521      74696D65 
 3521      72735F6C 
 3521      6973745F 
 3522              	.LASF137:
 3523 04b4 656C5F6E 		.ascii	"el_next\000"
 3523      65787400 
 3524              	.LASF215:
 3525 04bc 72784C69 		.ascii	"rxListen\000"
 3525      7374656E 
 3525      00
 3526              	.LASF67:
 3527 04c5 76697274 		.ascii	"virtual_timer_t\000"
 3527      75616C5F 
 3527      74696D65 
 3527      725F7400 
 3528              	.LASF58:
 3529 04d5 72656164 		.ascii	"ready_list_t\000"
 3529      795F6C69 
 3529      73745F74 
 3529      00
 3530              	.LASF165:
ARM GAS  /tmp/ccRXj7ty.s 			page 67


 3531 04e2 715F7772 		.ascii	"q_wrptr\000"
 3531      70747200 
 3532              	.LASF179:
 3533 04ea 4C434B52 		.ascii	"LCKR\000"
 3533      00
 3534              	.LASF30:
 3535 04ef 75636E74 		.ascii	"ucnt_t\000"
 3535      5F7400
 3536              	.LASF153:
 3537 04f6 706F6F6C 		.ascii	"pool_header\000"
 3537      5F686561 
 3537      64657200 
 3538              	.LASF201:
 3539 0502 5F70726F 		.ascii	"_protocol_basic\000"
 3539      746F636F 
 3539      6C5F6261 
 3539      73696300 
 3540              	.LASF55:
 3541 0512 63685F74 		.ascii	"ch_threads_list\000"
 3541      68726561 
 3541      64735F6C 
 3541      69737400 
 3542              	.LASF101:
 3543 0522 63685F73 		.ascii	"ch_swc_event_t\000"
 3543      77635F65 
 3543      76656E74 
 3543      5F7400
 3544              	.LASF113:
 3545 0531 6E5F6972 		.ascii	"n_irq\000"
 3545      7100
 3546              	.LASF149:
 3547 0537 6D625F66 		.ascii	"mb_fullsem\000"
 3547      756C6C73 
 3547      656D00
 3548              	.LASF221:
 3549 0542 746F5365 		.ascii	"toSend\000"
 3549      6E6400
 3550              	.LASF10:
 3551 0549 5F5F7569 		.ascii	"__uint32_t\000"
 3551      6E743332 
 3551      5F7400
 3552              	.LASF12:
 3553 0554 6C6F6E67 		.ascii	"long long int\000"
 3553      206C6F6E 
 3553      6720696E 
 3553      7400
 3554              	.LASF225:
 3555 0562 7061636B 		.ascii	"packetPool\000"
 3555      6574506F 
 3555      6F6C00
 3556              	.LASF129:
 3557 056d 6D5F7175 		.ascii	"m_queue\000"
 3557      65756500 
 3558              	.LASF69:
 3559 0575 76745F6E 		.ascii	"vt_next\000"
 3559      65787400 
 3560              	.LASF147:
ARM GAS  /tmp/ccRXj7ty.s 			page 68


 3561 057d 6D625F77 		.ascii	"mb_wrptr\000"
 3561      72707472 
 3561      00
 3562              	.LASF70:
 3563 0586 76745F70 		.ascii	"vt_prev\000"
 3563      72657600 
 3564              	.LASF91:
 3565 058e 47545052 		.ascii	"GTPR\000"
 3565      00
 3566              	.LASF102:
 3567 0593 74625F73 		.ascii	"tb_size\000"
 3567      697A6500 
 3568              	.LASF144:
 3569 059b 6576656E 		.ascii	"event_source_t\000"
 3569      745F736F 
 3569      75726365 
 3569      5F7400
 3570              	.LASF154:
 3571 05aa 70685F6E 		.ascii	"ph_next\000"
 3571      65787400 
 3572              	.LASF194:
 3573 05b2 53657269 		.ascii	"SerialDriverVMT\000"
 3573      616C4472 
 3573      69766572 
 3573      564D5400 
 3574              	.LASF222:
 3575 05c2 49544D5F 		.ascii	"ITM_RxBuffer\000"
 3575      52784275 
 3575      66666572 
 3575      00
 3576              	.LASF169:
 3577 05cf 716E6F74 		.ascii	"qnotify_t\000"
 3577      6966795F 
 3577      7400
 3578              	.LASF44:
 3579 05d9 705F7761 		.ascii	"p_waiting\000"
 3579      6974696E 
 3579      6700
 3580              	.LASF189:
 3581 05e3 6576656E 		.ascii	"event\000"
 3581      7400
 3582              	.LASF99:
 3583 05e9 73655F77 		.ascii	"se_wtobjp\000"
 3583      746F626A 
 3583      7000
 3584              	.LASF42:
 3585 05f3 705F666C 		.ascii	"p_flags\000"
 3585      61677300 
 3586              	.LASF196:
 3587 05fb 72656164 		.ascii	"read\000"
 3587      00
 3588              	.LASF89:
 3589 0600 69646C65 		.ascii	"idle_thread_wa\000"
 3589      5F746872 
 3589      6561645F 
 3589      776100
 3590              	.LASF0:
ARM GAS  /tmp/ccRXj7ty.s 			page 69


 3591 060f 756E7369 		.ascii	"unsigned int\000"
 3591      676E6564 
 3591      20696E74 
 3591      00
 3592              	.LASF20:
 3593 061c 7274636E 		.ascii	"rtcnt_t\000"
 3593      745F7400 
 3594              	.LASF50:
 3595 0624 705F6D70 		.ascii	"p_mpool\000"
 3595      6F6F6C00 
 3596              	.LASF43:
 3597 062c 705F7265 		.ascii	"p_refs\000"
 3597      667300
 3598              	.LASF141:
 3599 0633 656C5F77 		.ascii	"el_wflags\000"
 3599      666C6167 
 3599      7300
 3600              	.LASF117:
 3601 063d 6B65726E 		.ascii	"kernel_stats_t\000"
 3601      656C5F73 
 3601      74617473 
 3601      5F7400
 3602              	.LASF139:
 3603 064c 656C5F65 		.ascii	"el_events\000"
 3603      76656E74 
 3603      7300
 3604              	.LASF106:
 3605 0656 6F666673 		.ascii	"offset\000"
 3605      657400
 3606              	.LASF224:
 3607 065d 72656369 		.ascii	"recievebox\000"
 3607      65766562 
 3607      6F7800
 3608              	.LASF104:
 3609 0668 74625F62 		.ascii	"tb_buffer\000"
 3609      75666665 
 3609      7200
 3610              	.LASF152:
 3611 0672 6D656D67 		.ascii	"memgetfunc_t\000"
 3611      65746675 
 3611      6E635F74 
 3611      00
 3612              	.LASF32:
 3613 067f 74687265 		.ascii	"thread_t\000"
 3613      61645F74 
 3613      00
 3614              	.LASF52:
 3615 0688 74687265 		.ascii	"thread_reference_t\000"
 3615      61645F72 
 3615      65666572 
 3615      656E6365 
 3615      5F7400
 3616              	.LASF49:
 3617 069b 705F7265 		.ascii	"p_realprio\000"
 3617      616C7072 
 3617      696F00
 3618              	.LASF96:
ARM GAS  /tmp/ccRXj7ty.s 			page 70


 3619 06a6 706F7274 		.ascii	"port_intctx\000"
 3619      5F696E74 
 3619      63747800 
 3620              	.LASF146:
 3621 06b2 6D625F74 		.ascii	"mb_top\000"
 3621      6F7000
 3622              	.LASF71:
 3623 06b9 76745F64 		.ascii	"vt_delta\000"
 3623      656C7461 
 3623      00
 3624              	.LASF228:
 3625 06c2 70726F74 		.ascii	"protocol.c\000"
 3625      6F636F6C 
 3625      2E6300
 3626              	.LASF68:
 3627 06cd 63685F76 		.ascii	"ch_virtual_timer\000"
 3627      69727475 
 3627      616C5F74 
 3627      696D6572 
 3627      00
 3628              	.LASF127:
 3629 06de 735F636E 		.ascii	"s_cnt\000"
 3629      7400
 3630              	.LASF88:
 3631 06e4 6B65726E 		.ascii	"kernel_stats\000"
 3631      656C5F73 
 3631      74617473 
 3631      00
 3632              	.LASF14:
 3633 06f1 6C6F6E67 		.ascii	"long long unsigned int\000"
 3633      206C6F6E 
 3633      6720756E 
 3633      7369676E 
 3633      65642069 
 3634              	.LASF38:
 3635 0708 705F6F6C 		.ascii	"p_older\000"
 3635      64657200 
 3636              	.LASF16:
 3637 0710 75696E74 		.ascii	"uint16_t\000"
 3637      31365F74 
 3637      00
 3638              	.LASF26:
 3639 0719 6D73675F 		.ascii	"msg_t\000"
 3639      7400
 3640              	.LASF57:
 3641 071f 63685F74 		.ascii	"ch_threads_queue\000"
 3641      68726561 
 3641      64735F71 
 3641      75657565 
 3641      00
 3642              	.LASF28:
 3643 0730 6576656E 		.ascii	"eventflags_t\000"
 3643      74666C61 
 3643      67735F74 
 3643      00
 3644              	.LASF65:
 3645 073d 725F6375 		.ascii	"r_current\000"
ARM GAS  /tmp/ccRXj7ty.s 			page 71


 3645      7272656E 
 3645      7400
 3646              	.LASF209:
 3647 0747 64696769 		.ascii	"digital_io\000"
 3647      74616C5F 
 3647      696F00
 3648              	.LASF181:
 3649 0752 41465248 		.ascii	"AFRH\000"
 3649      00
 3650              	.LASF180:
 3651 0757 4146524C 		.ascii	"AFRL\000"
 3651      00
 3652              	.LASF223:
 3653 075c 72656369 		.ascii	"recieveboxArea\000"
 3653      65766562 
 3653      6F784172 
 3653      656100
 3654              	.LASF212:
 3655 076b 64657669 		.ascii	"device_id\000"
 3655      63655F69 
 3655      6400
 3656              	.LASF202:
 3657 0775 6672616D 		.ascii	"frame_start\000"
 3657      655F7374 
 3657      61727400 
 3658              	.LASF205:
 3659 0781 73656C66 		.ascii	"self_id\000"
 3659      5F696400 
 3660              	.LASF87:
 3661 0789 6D61696E 		.ascii	"mainthread\000"
 3661      74687265 
 3661      616400
 3662              	.LASF108:
 3663 0794 62657374 		.ascii	"best\000"
 3663      00
 3664              	.LASF60:
 3665 0799 725F7175 		.ascii	"r_queue\000"
 3665      65756500 
 3666              	.LASF208:
 3667 07a1 64657374 		.ascii	"dest\000"
 3667      00
 3668              	.LASF188:
 3669 07a6 53657269 		.ascii	"SerialDriver\000"
 3669      616C4472 
 3669      69766572 
 3669      00
 3670              	.LASF158:
 3671 07b3 6D656D6F 		.ascii	"memory_pool_t\000"
 3671      72795F70 
 3671      6F6F6C5F 
 3671      7400
 3672              	.LASF175:
 3673 07c1 4F545950 		.ascii	"OTYPER\000"
 3673      455200
 3674              	.LASF161:
 3675 07c8 715F7761 		.ascii	"q_waiting\000"
 3675      6974696E 
ARM GAS  /tmp/ccRXj7ty.s 			page 72


 3675      6700
 3676              	.LASF85:
 3677 07d2 726C6973 		.ascii	"rlist\000"
 3677      7400
 3678              	.LASF22:
 3679 07d8 746D6F64 		.ascii	"tmode_t\000"
 3679      655F7400 
 3680              	.LASF187:
 3681 07e0 73647374 		.ascii	"sdstate_t\000"
 3681      6174655F 
 3681      7400
 3682              	.LASF186:
 3683 07ea 53445F52 		.ascii	"SD_READY\000"
 3683      45414459 
 3683      00
 3684              	.LASF64:
 3685 07f3 725F6F6C 		.ascii	"r_older\000"
 3685      64657200 
 3686              	.LASF107:
 3687 07fb 746D5F63 		.ascii	"tm_calibration_t\000"
 3687      616C6962 
 3687      72617469 
 3687      6F6E5F74 
 3687      00
 3688              	.LASF126:
 3689 080c 735F7175 		.ascii	"s_queue\000"
 3689      65756500 
 3690              	.LASF5:
 3691 0814 73686F72 		.ascii	"short int\000"
 3691      7420696E 
 3691      7400
 3692              	.LASF142:
 3693 081e 6576656E 		.ascii	"event_source\000"
 3693      745F736F 
 3693      75726365 
 3693      00
 3694              	.LASF19:
 3695 082b 75696E74 		.ascii	"uint64_t\000"
 3695      36345F74 
 3695      00
 3696              	.LASF128:
 3697 0834 63685F6D 		.ascii	"ch_mutex\000"
 3697      75746578 
 3697      00
 3698              	.LASF191:
 3699 083d 69717565 		.ascii	"iqueue\000"
 3699      756500
 3700              	.LASF61:
 3701 0844 725F7072 		.ascii	"r_prio\000"
 3701      696F00
 3702              	.LASF78:
 3703 084b 63685F73 		.ascii	"ch_system_debug\000"
 3703      79737465 
 3703      6D5F6465 
 3703      62756700 
 3704              	.LASF159:
 3705 085b 696F5F71 		.ascii	"io_queue_t\000"
ARM GAS  /tmp/ccRXj7ty.s 			page 73


 3705      75657565 
 3705      5F7400
 3706              	.LASF178:
 3707 0866 42535252 		.ascii	"BSRR\000"
 3707      00
 3708              	.LASF203:
 3709 086b 70726F74 		.ascii	"protocol_id\000"
 3709      6F636F6C 
 3709      5F696400 
 3710              	.LASF86:
 3711 0877 76746C69 		.ascii	"vtlist\000"
 3711      737400
 3712              	.LASF156:
 3713 087e 6D705F6F 		.ascii	"mp_object_size\000"
 3713      626A6563 
 3713      745F7369 
 3713      7A6500
 3714              	.LASF230:
 3715 088d 696E6974 		.ascii	"init_protocol\000"
 3715      5F70726F 
 3715      746F636F 
 3715      6C00
 3716              	.LASF134:
 3717 089b 6D757465 		.ascii	"mutex_t\000"
 3717      785F7400 
 3718              	.LASF24:
 3719 08a3 74726566 		.ascii	"trefs_t\000"
 3719      735F7400 
 3720              	.LASF53:
 3721 08ab 74687265 		.ascii	"threads_list_t\000"
 3721      6164735F 
 3721      6C697374 
 3721      5F7400
 3722              	.LASF84:
 3723 08ba 63685F73 		.ascii	"ch_system\000"
 3723      79737465 
 3723      6D00
 3724              	.LASF18:
 3725 08c4 75696E74 		.ascii	"uint32_t\000"
 3725      33325F74 
 3725      00
 3726              	.LASF174:
 3727 08cd 4D4F4445 		.ascii	"MODER\000"
 3727      5200
 3728              	.LASF170:
 3729 08d3 696E7075 		.ascii	"input_queue_t\000"
 3729      745F7175 
 3729      6575655F 
 3729      7400
 3730              	.LASF136:
 3731 08e1 6576656E 		.ascii	"event_listener\000"
 3731      745F6C69 
 3731      7374656E 
 3731      657200
 3732              	.LASF118:
 3733 08f0 7264796D 		.ascii	"rdymsg\000"
 3733      736700
ARM GAS  /tmp/ccRXj7ty.s 			page 74


 3734              	.LASF76:
 3735 08f7 76745F6C 		.ascii	"vt_lasttime\000"
 3735      61737474 
 3735      696D6500 
 3736              	.LASF7:
 3737 0903 73686F72 		.ascii	"short unsigned int\000"
 3737      7420756E 
 3737      7369676E 
 3737      65642069 
 3737      6E7400
 3738              	.LASF83:
 3739 0916 63685F73 		.ascii	"ch_system_t\000"
 3739      79737465 
 3739      6D5F7400 
 3740              	.LASF171:
 3741 0922 6F757470 		.ascii	"output_queue_t\000"
 3741      75745F71 
 3741      75657565 
 3741      5F7400
 3742              	.LASF40:
 3743 0931 705F7374 		.ascii	"p_stklimit\000"
 3743      6B6C696D 
 3743      697400
 3744              	.LASF155:
 3745 093c 6D705F6E 		.ascii	"mp_next\000"
 3745      65787400 
 3746              	.LASF8:
 3747 0944 5F5F696E 		.ascii	"__int32_t\000"
 3747      7433325F 
 3747      7400
 3748              	.LASF185:
 3749 094e 53445F53 		.ascii	"SD_STOP\000"
 3749      544F5000 
 3750              	.LASF206:
 3751 0956 70726F74 		.ascii	"protocol_01\000"
 3751      6F636F6C 
 3751      5F303100 
 3752              	.LASF218:
 3753 0962 74656D70 		.ascii	"temp\000"
 3753      00
 3754              	.LASF97:
 3755 0967 73655F74 		.ascii	"se_time\000"
 3755      696D6500 
 3756              	.LASF211:
 3757 096f 6672616D 		.ascii	"frame_size\000"
 3757      655F7369 
 3757      7A6500
 3758              	.LASF39:
 3759 097a 705F6E61 		.ascii	"p_name\000"
 3759      6D6500
 3760              	.LASF151:
 3761 0981 6D61696C 		.ascii	"mailbox_t\000"
 3761      626F785F 
 3761      7400
 3762              	.LASF131:
 3763 098b 6D5F6E65 		.ascii	"m_next\000"
 3763      787400
ARM GAS  /tmp/ccRXj7ty.s 			page 75


 3764              	.LASF103:
 3765 0992 74625F70 		.ascii	"tb_ptr\000"
 3765      747200
 3766              	.LASF133:
 3767 0999 73656D61 		.ascii	"semaphore_t\000"
 3767      70686F72 
 3767      655F7400 
 3768              	.LASF157:
 3769 09a5 6D705F70 		.ascii	"mp_provider\000"
 3769      726F7669 
 3769      64657200 
 3770              	.LASF110:
 3771 09b1 6C617374 		.ascii	"last\000"
 3771      00
 3772              	.LASF46:
 3773 09b6 705F6D73 		.ascii	"p_msg\000"
 3773      6700
 3774              	.LASF138:
 3775 09bc 656C5F6C 		.ascii	"el_listener\000"
 3775      69737465 
 3775      6E657200 
 3776              	.LASF41:
 3777 09c8 705F7374 		.ascii	"p_state\000"
 3777      61746500 
 3778              		.ident	"GCC: (4.8.4-1+11-1) 4.8.4 20141219 (release)"
ARM GAS  /tmp/ccRXj7ty.s 			page 76


DEFINED SYMBOLS
                            *ABS*:0000000000000000 protocol.c
     /tmp/ccRXj7ty.s:23     .bss.recieveboxArea:0000000000000000 recieveboxArea
     /tmp/ccRXj7ty.s:20     .bss.recieveboxArea:0000000000000000 $d
     /tmp/ccRXj7ty.s:30     .bss.recievebox:0000000000000000 recievebox
     /tmp/ccRXj7ty.s:27     .bss.recievebox:0000000000000000 $d
     /tmp/ccRXj7ty.s:37     .bss.packetPool:0000000000000000 packetPool
     /tmp/ccRXj7ty.s:34     .bss.packetPool:0000000000000000 $d
     /tmp/ccRXj7ty.s:44     .bss.protocol_01_buffer:0000000000000000 protocol_01_buffer
     /tmp/ccRXj7ty.s:41     .bss.protocol_01_buffer:0000000000000000 $d
     /tmp/ccRXj7ty.s:47     .text.init_protocol:0000000000000000 $t
     /tmp/ccRXj7ty.s:53     .text.init_protocol:0000000000000000 init_protocol
     /tmp/ccRXj7ty.s:100    .text.init_protocol:0000000000000048 $d
     /tmp/ccRXj7ty.s:110    .text.new_protocol_01:0000000000000000 $t
     /tmp/ccRXj7ty.s:116    .text.new_protocol_01:0000000000000000 new_protocol_01
     /tmp/ccRXj7ty.s:162    .text.new_protocol_01:0000000000000038 $d
     /tmp/ccRXj7ty.s:167    .text.del_protocol_01:0000000000000000 $t
     /tmp/ccRXj7ty.s:173    .text.del_protocol_01:0000000000000000 del_protocol_01
     /tmp/ccRXj7ty.s:198    .text.del_protocol_01:0000000000000018 $d
     /tmp/ccRXj7ty.s:203    .text.rxListen:0000000000000000 $t
     /tmp/ccRXj7ty.s:209    .text.rxListen:0000000000000000 rxListen
     /tmp/ccRXj7ty.s:583    .text.rxListen:00000000000002d4 $d
     /tmp/ccRXj7ty.s:588    .text.rxListen:00000000000002e0 $t
     /tmp/ccRXj7ty.s:619    .text.txWrite:0000000000000000 $t
     /tmp/ccRXj7ty.s:625    .text.txWrite:0000000000000000 txWrite
     /tmp/ccRXj7ty.s:666    .text.txWrite:0000000000000038 $d
                     .debug_frame:0000000000000010 $d
     /tmp/ccRXj7ty.s:166    .text.new_protocol_01:000000000000003c $t
     /tmp/ccRXj7ty.s:202    .text.del_protocol_01:000000000000001c $t
     /tmp/ccRXj7ty.s:672    .text.txWrite:0000000000000044 $t

UNDEFINED SYMBOLS
chMBObjectInit
chPoolObjectInit
chPoolLoadArray
_pal_lld_setgroupmode
sdStart
SD3
chPoolAlloc
chPoolFree
chIQReadTimeout
chMBPost
chMBFetch
chOQWriteTimeout
