ARM GAS  /tmp/cc5wcQn1.s 			page 1


   1              		.syntax unified
   2              		.cpu cortex-m4
   3              		.fpu softvfp
   4              		.eabi_attribute 20, 1
   5              		.eabi_attribute 21, 1
   6              		.eabi_attribute 23, 3
   7              		.eabi_attribute 24, 1
   8              		.eabi_attribute 25, 1
   9              		.eabi_attribute 26, 1
  10              		.eabi_attribute 30, 6
  11              		.eabi_attribute 34, 1
  12              		.eabi_attribute 18, 4
  13              		.thumb
  14              		.file	"protocol.c"
  15              		.text
  16              	.Ltext0:
  17              		.cfi_sections	.debug_frame
  18              		.section	.bss.txMailboxArea,"aw",%nobits
  19              		.align	2
  20              		.type	txMailboxArea, %object
  21              		.size	txMailboxArea, 64
  22              	txMailboxArea:
  23 0000 00000000 		.space	64
  23      00000000 
  23      00000000 
  23      00000000 
  23      00000000 
  24              		.global	serialMbox
  25              		.section	.bss.serialMbox,"aw",%nobits
  26              		.align	2
  27              		.type	serialMbox, %object
  28              		.size	serialMbox, 40
  29              	serialMbox:
  30 0000 00000000 		.space	40
  30      00000000 
  30      00000000 
  30      00000000 
  30      00000000 
  31              		.global	buffer
  32              		.section	.bss.buffer,"aw",%nobits
  33              		.align	2
  34              		.type	buffer, %object
  35              		.size	buffer, 2
  36              	buffer:
  37 0000 0000     		.space	2
  38 0002 0000     		.section	.text.init_protocol,"ax",%progbits
  39              		.align	2
  40              		.p2align 4,,15
  41              		.global	init_protocol
  42              		.thumb
  43              		.thumb_func
  44              		.type	init_protocol, %function
  45              	init_protocol:
  46              	.LFB271:
  47              		.file 1 "protocol.c"
  48              		.loc 1 12 0
  49              		.cfi_startproc
ARM GAS  /tmp/cc5wcQn1.s 			page 2


  50              		@ args = 0, pretend = 0, frame = 0
  51              		@ frame_needed = 0, uses_anonymous_args = 0
  52 0000 08B5     		push	{r3, lr}
  53              		.cfi_def_cfa_offset 8
  54              		.cfi_offset 3, -8
  55              		.cfi_offset 14, -4
  56              		.loc 1 13 0
  57 0002 0C48     		ldr	r0, .L3
  58 0004 0C49     		ldr	r1, .L3+4
  59 0006 1022     		movs	r2, #16
  60 0008 FFF7FEFF 		bl	chMBObjectInit
  61              		.loc 1 18 0
  62 000c 0B48     		ldr	r0, .L3+8
  63 000e 4FF48061 		mov	r1, #1024
  64 0012 40F28232 		movw	r2, #898
  65 0016 FFF7FEFF 		bl	_pal_lld_setgroupmode
  66              		.loc 1 19 0
  67 001a 0848     		ldr	r0, .L3+8
  68 001c 4FF40061 		mov	r1, #2048
  69 0020 40F28232 		movw	r2, #898
  70 0024 FFF7FEFF 		bl	_pal_lld_setgroupmode
  71              		.loc 1 21 0
  72 0028 0548     		ldr	r0, .L3+12
  73 002a 0021     		movs	r1, #0
  74 002c FFF7FEFF 		bl	sdStart
  75              		.loc 1 22 0
  76 0030 00BF     		nop
  77              		.loc 1 23 0
  78 0032 08BD     		pop	{r3, pc}
  79              	.L4:
  80              		.align	2
  81              	.L3:
  82 0034 00000000 		.word	serialMbox
  83 0038 00000000 		.word	txMailboxArea
  84 003c 00040240 		.word	1073873920
  85 0040 00000000 		.word	SD3
  86              		.cfi_endproc
  87              	.LFE271:
  88              		.size	init_protocol, .-init_protocol
  89 0044 AFF30080 		.section	.text.rxListen,"ax",%progbits
  89      AFF30080 
  89      AFF30080 
  90              		.align	2
  91              		.p2align 4,,15
  92              		.global	rxListen
  93              		.thumb
  94              		.thumb_func
  95              		.type	rxListen, %function
  96              	rxListen:
  97              	.LFB272:
  98              		.loc 1 26 0
  99              		.cfi_startproc
 100              		@ args = 0, pretend = 0, frame = 8
 101              		@ frame_needed = 0, uses_anonymous_args = 0
 102 0000 00B5     		push	{lr}
 103              		.cfi_def_cfa_offset 4
 104              		.cfi_offset 14, -4
ARM GAS  /tmp/cc5wcQn1.s 			page 3


 105 0002 83B0     		sub	sp, sp, #12
 106              		.cfi_def_cfa_offset 16
 107 0004 0190     		str	r0, [sp, #4]
 108              	.L6:
 109              		.loc 1 31 0 discriminator 1
 110 0006 0B48     		ldr	r0, .L7
 111 0008 0B49     		ldr	r1, .L7+4
 112 000a 0222     		movs	r2, #2
 113 000c 4FF0FF33 		mov	r3, #-1
 114 0010 FFF7FEFF 		bl	chIQReadTimeout
 115              		.loc 1 32 0 discriminator 1
 116 0014 4FF47A70 		mov	r0, #1000
 117 0018 FFF7FEFF 		bl	chThdSleep
 118              		.loc 1 33 0 discriminator 1
 119 001c 0748     		ldr	r0, .L7+8
 120 001e 0649     		ldr	r1, .L7+4
 121 0020 0222     		movs	r2, #2
 122 0022 4FF0FF33 		mov	r3, #-1
 123 0026 FFF7FEFF 		bl	chOQWriteTimeout
 124              		.loc 1 34 0 discriminator 1
 125 002a 4FF47A70 		mov	r0, #1000
 126 002e FFF7FEFF 		bl	chThdSleep
 127              		.loc 1 36 0 discriminator 1
 128 0032 E8E7     		b	.L6
 129              	.L8:
 130              		.align	2
 131              	.L7:
 132 0034 0C000000 		.word	SD3+12
 133 0038 00000000 		.word	buffer
 134 003c 30000000 		.word	SD3+48
 135              		.cfi_endproc
 136              	.LFE272:
 137              		.size	rxListen, .-rxListen
 138              		.section	.text.txWrite,"ax",%progbits
 139              		.align	2
 140              		.p2align 4,,15
 141              		.global	txWrite
 142              		.thumb
 143              		.thumb_func
 144              		.type	txWrite, %function
 145              	txWrite:
 146              	.LFB273:
 147              		.loc 1 41 0
 148              		.cfi_startproc
 149              		@ args = 0, pretend = 0, frame = 16
 150              		@ frame_needed = 0, uses_anonymous_args = 0
 151 0000 00B5     		push	{lr}
 152              		.cfi_def_cfa_offset 4
 153              		.cfi_offset 14, -4
 154 0002 85B0     		sub	sp, sp, #20
 155              		.cfi_def_cfa_offset 24
 156 0004 0190     		str	r0, [sp, #4]
 157              	.L10:
 158              		.loc 1 47 0
 159 0006 0548     		ldr	r0, .L11
 160 0008 0399     		ldr	r1, [sp, #12]
 161 000a 0022     		movs	r2, #0
ARM GAS  /tmp/cc5wcQn1.s 			page 4


 162 000c FFF7FEFF 		bl	chMBFetch
 163              		.loc 1 52 0
 164 0010 41F28830 		movw	r0, #5000
 165 0014 FFF7FEFF 		bl	chThdSleep
 166              		.loc 1 54 0
 167 0018 F5E7     		b	.L10
 168              	.L12:
 169 001a 00BF     		.align	2
 170              	.L11:
 171 001c 00000000 		.word	serialMbox
 172              		.cfi_endproc
 173              	.LFE273:
 174              		.size	txWrite, .-txWrite
 175              		.text
 176              	.Letext0:
 177              		.file 2 "/usr/lib/gcc/arm-none-eabi/4.8/include/stddef.h"
 178              		.file 3 "/usr/include/newlib/machine/_default_types.h"
 179              		.file 4 "/usr/include/newlib/stdint.h"
 180              		.file 5 "/home/efe/ChibiOS/os/rt/ports/ARMCMx/compilers/GCC/chtypes.h"
 181              		.file 6 "/home/efe/ChibiOS/os/rt/include/chsystypes.h"
 182              		.file 7 "/home/efe/ChibiOS/os/rt/include/chschd.h"
 183              		.file 8 "/home/efe/ChibiOS/os/ext/CMSIS/ST/stm32f407xx.h"
 184              		.file 9 "/home/efe/ChibiOS/os/rt/ports/ARMCMx/chcore.h"
 185              		.file 10 "/home/efe/ChibiOS/os/rt/ports/ARMCMx/chcore_v7m.h"
 186              		.file 11 "/home/efe/ChibiOS/os/rt/include/chdebug.h"
 187              		.file 12 "/home/efe/ChibiOS/os/rt/include/chtm.h"
 188              		.file 13 "/home/efe/ChibiOS/os/rt/include/chstats.h"
 189              		.file 14 "/home/efe/ChibiOS/os/rt/include/chsem.h"
 190              		.file 15 "/home/efe/ChibiOS/os/rt/include/chmtx.h"
 191              		.file 16 "/home/efe/ChibiOS/os/rt/include/chevents.h"
 192              		.file 17 "/home/efe/ChibiOS/os/rt/include/chmboxes.h"
 193              		.file 18 "/home/efe/ChibiOS/os/rt/include/chqueues.h"
 194              		.file 19 "/home/efe/ChibiOS/os/hal/ports/STM32/LLD/GPIOv2/pal_lld.h"
 195              		.file 20 "/home/efe/ChibiOS/os/hal/include/serial.h"
 196              		.file 21 "/home/efe/ChibiOS/os/hal/ports/STM32/LLD/USARTv1/serial_lld.h"
 197              		.file 22 "/home/efe/ChibiOS/os/ext/CMSIS/include/core_cm4.h"