ARM GAS  /tmp/ccoA48Dc.s 			page 1


   1              		.syntax unified
   2              		.cpu cortex-m4
   3              		.fpu softvfp
   4              		.eabi_attribute 20, 1
   5              		.eabi_attribute 21, 1
   6              		.eabi_attribute 23, 3
   7              		.eabi_attribute 24, 1
   8              		.eabi_attribute 25, 1
   9              		.eabi_attribute 26, 1
  10              		.eabi_attribute 30, 6
  11              		.eabi_attribute 34, 1
  12              		.eabi_attribute 18, 4
  13              		.thumb
  14              		.file	"serial_lld.c"
  15              		.text
  16              	.Ltext0:
  17              		.cfi_sections	.debug_frame
  18              		.section	.text.port_lock,"ax",%progbits
  19              		.align	2
  20              		.p2align 4,,15
  21              		.thumb
  22              		.thumb_func
  23              		.type	port_lock, %function
  24              	port_lock:
  25              	.LFB127:
  26              		.file 1 "/home/efe/ChibiOS/os/rt/ports/ARMCMx/chcore_v7m.h"
  27              		.loc 1 456 0
  28              		.cfi_startproc
  29              		@ args = 0, pretend = 0, frame = 8
  30              		@ frame_needed = 0, uses_anonymous_args = 0
  31              		@ link register save eliminated.
  32 0000 82B0     		sub	sp, sp, #8
  33              		.cfi_def_cfa_offset 8
  34 0002 2023     		movs	r3, #32
  35 0004 0193     		str	r3, [sp, #4]
  36              	.LBB6:
  37              	.LBB7:
  38              		.file 2 "/home/efe/ChibiOS/os/ext/CMSIS/include/core_cmFunc.h"
  39              		.loc 2 548 0
  40 0006 019B     		ldr	r3, [sp, #4]
  41              	@ 548 "/home/efe/ChibiOS/os/ext/CMSIS/include/core_cmFunc.h" 1
  42 0008 83F31188 		MSR basepri, r3
  43              	@ 0 "" 2
  44              		.thumb
  45              	.LBE7:
  46              	.LBE6:
  47              		.loc 1 463 0
  48 000c 02B0     		add	sp, sp, #8
  49              		@ sp needed
  50 000e 7047     		bx	lr
  51              		.cfi_endproc
  52              	.LFE127:
  53              		.size	port_lock, .-port_lock
  54              		.section	.text.port_unlock,"ax",%progbits
  55              		.align	2
  56              		.p2align 4,,15
  57              		.thumb
ARM GAS  /tmp/ccoA48Dc.s 			page 2


  58              		.thumb_func
  59              		.type	port_unlock, %function
  60              	port_unlock:
  61              	.LFB128:
  62              		.loc 1 470 0
  63              		.cfi_startproc
  64              		@ args = 0, pretend = 0, frame = 8
  65              		@ frame_needed = 0, uses_anonymous_args = 0
  66              		@ link register save eliminated.
  67 0000 82B0     		sub	sp, sp, #8
  68              		.cfi_def_cfa_offset 8
  69 0002 0023     		movs	r3, #0
  70 0004 0193     		str	r3, [sp, #4]
  71              	.LBB8:
  72              	.LBB9:
  73              		.loc 2 548 0
  74 0006 019B     		ldr	r3, [sp, #4]
  75              	@ 548 "/home/efe/ChibiOS/os/ext/CMSIS/include/core_cmFunc.h" 1
  76 0008 83F31188 		MSR basepri, r3
  77              	@ 0 "" 2
  78              		.thumb
  79              	.LBE9:
  80              	.LBE8:
  81              		.loc 1 477 0
  82 000c 02B0     		add	sp, sp, #8
  83              		@ sp needed
  84 000e 7047     		bx	lr
  85              		.cfi_endproc
  86              	.LFE128:
  87              		.size	port_unlock, .-port_unlock
  88              		.section	.text.port_lock_from_isr,"ax",%progbits
  89              		.align	2
  90              		.p2align 4,,15
  91              		.thumb
  92              		.thumb_func
  93              		.type	port_lock_from_isr, %function
  94              	port_lock_from_isr:
  95              	.LFB129:
  96              		.loc 1 485 0
  97              		.cfi_startproc
  98              		@ args = 0, pretend = 0, frame = 0
  99              		@ frame_needed = 0, uses_anonymous_args = 0
 100 0000 08B5     		push	{r3, lr}
 101              		.cfi_def_cfa_offset 8
 102              		.cfi_offset 3, -8
 103              		.cfi_offset 14, -4
 104              		.loc 1 487 0
 105 0002 FFF7FEFF 		bl	port_lock
 106              		.loc 1 488 0
 107 0006 08BD     		pop	{r3, pc}
 108              		.cfi_endproc
 109              	.LFE129:
 110              		.size	port_lock_from_isr, .-port_lock_from_isr
 111 0008 AFF30080 		.section	.text.port_unlock_from_isr,"ax",%progbits
 111      AFF30080 
 112              		.align	2
 113              		.p2align 4,,15
ARM GAS  /tmp/ccoA48Dc.s 			page 3


 114              		.thumb
 115              		.thumb_func
 116              		.type	port_unlock_from_isr, %function
 117              	port_unlock_from_isr:
 118              	.LFB130:
 119              		.loc 1 496 0
 120              		.cfi_startproc
 121              		@ args = 0, pretend = 0, frame = 0
 122              		@ frame_needed = 0, uses_anonymous_args = 0
 123 0000 08B5     		push	{r3, lr}
 124              		.cfi_def_cfa_offset 8
 125              		.cfi_offset 3, -8
 126              		.cfi_offset 14, -4
 127              		.loc 1 498 0
 128 0002 FFF7FEFF 		bl	port_unlock
 129              		.loc 1 499 0
 130 0006 08BD     		pop	{r3, pc}
 131              		.cfi_endproc
 132              	.LFE130:
 133              		.size	port_unlock_from_isr, .-port_unlock_from_isr
 134 0008 AFF30080 		.section	.text.chSysLockFromISR,"ax",%progbits
 134      AFF30080 
 135              		.align	2
 136              		.p2align 4,,15
 137              		.thumb
 138              		.thumb_func
 139              		.type	chSysLockFromISR, %function
 140              	chSysLockFromISR:
 141              	.LFB169:
 142              		.file 3 "/home/efe/ChibiOS/os/rt/include/chsys.h"
 143              		.loc 3 386 0
 144              		.cfi_startproc
 145              		@ args = 0, pretend = 0, frame = 0
 146              		@ frame_needed = 0, uses_anonymous_args = 0
 147 0000 08B5     		push	{r3, lr}
 148              		.cfi_def_cfa_offset 8
 149              		.cfi_offset 3, -8
 150              		.cfi_offset 14, -4
 151              		.loc 3 388 0
 152 0002 FFF7FEFF 		bl	port_lock_from_isr
 153              		.loc 3 389 0
 154 0006 FFF7FEFF 		bl	_stats_start_measure_crit_isr
 155              		.loc 3 390 0
 156 000a FFF7FEFF 		bl	_dbg_check_lock_from_isr
 157              		.loc 3 391 0
 158 000e 08BD     		pop	{r3, pc}
 159              		.cfi_endproc
 160              	.LFE169:
 161              		.size	chSysLockFromISR, .-chSysLockFromISR
 162              		.section	.text.chSysUnlockFromISR,"ax",%progbits
 163              		.align	2
 164              		.p2align 4,,15
 165              		.thumb
 166              		.thumb_func
 167              		.type	chSysUnlockFromISR, %function
 168              	chSysUnlockFromISR:
 169              	.LFB170:
ARM GAS  /tmp/ccoA48Dc.s 			page 4


 170              		.loc 3 406 0
 171              		.cfi_startproc
 172              		@ args = 0, pretend = 0, frame = 0
 173              		@ frame_needed = 0, uses_anonymous_args = 0
 174 0000 08B5     		push	{r3, lr}
 175              		.cfi_def_cfa_offset 8
 176              		.cfi_offset 3, -8
 177              		.cfi_offset 14, -4
 178              		.loc 3 408 0
 179 0002 FFF7FEFF 		bl	_dbg_check_unlock_from_isr
 180              		.loc 3 409 0
 181 0006 FFF7FEFF 		bl	_stats_stop_measure_crit_isr
 182              		.loc 3 410 0
 183 000a FFF7FEFF 		bl	port_unlock_from_isr
 184              		.loc 3 411 0
 185 000e 08BD     		pop	{r3, pc}
 186              		.cfi_endproc
 187              	.LFE170:
 188              		.size	chSysUnlockFromISR, .-chSysUnlockFromISR
 189              		.section	.text.chOQIsEmptyI,"ax",%progbits
 190              		.align	2
 191              		.p2align 4,,15
 192              		.thumb
 193              		.thumb_func
 194              		.type	chOQIsEmptyI, %function
 195              	chOQIsEmptyI:
 196              	.LFB237:
 197              		.file 4 "/home/efe/ChibiOS/os/rt/include/chqueues.h"
 198              		.loc 4 386 0
 199              		.cfi_startproc
 200              		@ args = 0, pretend = 0, frame = 8
 201              		@ frame_needed = 0, uses_anonymous_args = 0
 202 0000 00B5     		push	{lr}
 203              		.cfi_def_cfa_offset 4
 204              		.cfi_offset 14, -4
 205 0002 83B0     		sub	sp, sp, #12
 206              		.cfi_def_cfa_offset 16
 207 0004 0190     		str	r0, [sp, #4]
 208              		.loc 4 388 0
 209 0006 FFF7FEFF 		bl	chDbgCheckClassI
 210              		.loc 4 390 0
 211 000a 019B     		ldr	r3, [sp, #4]
 212 000c 5A69     		ldr	r2, [r3, #20]
 213 000e 019B     		ldr	r3, [sp, #4]
 214 0010 9B69     		ldr	r3, [r3, #24]
 215 0012 9A42     		cmp	r2, r3
 216 0014 05D1     		bne	.L8
 217              		.loc 4 390 0 is_stmt 0 discriminator 1
 218 0016 019B     		ldr	r3, [sp, #4]
 219 0018 9B68     		ldr	r3, [r3, #8]
 220 001a 002B     		cmp	r3, #0
 221 001c 01D0     		beq	.L8
 222              		.loc 4 390 0 discriminator 3
 223 001e 0123     		movs	r3, #1
 224 0020 00E0     		b	.L9
 225              	.L8:
 226              		.loc 4 390 0 discriminator 2
ARM GAS  /tmp/ccoA48Dc.s 			page 5


 227 0022 0023     		movs	r3, #0
 228              	.L9:
 229              		.loc 4 390 0 discriminator 4
 230 0024 03F00103 		and	r3, r3, #1
 231 0028 DBB2     		uxtb	r3, r3
 232              		.loc 4 391 0 is_stmt 1 discriminator 4
 233 002a 1846     		mov	r0, r3
 234 002c 03B0     		add	sp, sp, #12
 235              		@ sp needed
 236 002e 5DF804FB 		ldr	pc, [sp], #4
 237              		.cfi_endproc
 238              	.LFE237:
 239              		.size	chOQIsEmptyI, .-chOQIsEmptyI
 240 0032 00BFAFF3 		.section	.text.osalSysLockFromISR,"ax",%progbits
 240      0080AFF3 
 240      0080AFF3 
 240      0080
 241              		.align	2
 242              		.p2align 4,,15
 243              		.thumb
 244              		.thumb_func
 245              		.type	osalSysLockFromISR, %function
 246              	osalSysLockFromISR:
 247              	.LFB246:
 248              		.file 5 "/home/efe/ChibiOS/os/hal/osal/rt/osal.h"
 249              		.loc 5 513 0
 250              		.cfi_startproc
 251              		@ args = 0, pretend = 0, frame = 0
 252              		@ frame_needed = 0, uses_anonymous_args = 0
 253 0000 08B5     		push	{r3, lr}
 254              		.cfi_def_cfa_offset 8
 255              		.cfi_offset 3, -8
 256              		.cfi_offset 14, -4
 257              		.loc 5 515 0
 258 0002 FFF7FEFF 		bl	chSysLockFromISR
 259              		.loc 5 516 0
 260 0006 08BD     		pop	{r3, pc}
 261              		.cfi_endproc
 262              	.LFE246:
 263              		.size	osalSysLockFromISR, .-osalSysLockFromISR
 264 0008 AFF30080 		.section	.text.osalSysUnlockFromISR,"ax",%progbits
 264      AFF30080 
 265              		.align	2
 266              		.p2align 4,,15
 267              		.thumb
 268              		.thumb_func
 269              		.type	osalSysUnlockFromISR, %function
 270              	osalSysUnlockFromISR:
 271              	.LFB247:
 272              		.loc 5 524 0
 273              		.cfi_startproc
 274              		@ args = 0, pretend = 0, frame = 0
 275              		@ frame_needed = 0, uses_anonymous_args = 0
 276 0000 08B5     		push	{r3, lr}
 277              		.cfi_def_cfa_offset 8
 278              		.cfi_offset 3, -8
 279              		.cfi_offset 14, -4
ARM GAS  /tmp/ccoA48Dc.s 			page 6


 280              		.loc 5 526 0
 281 0002 FFF7FEFF 		bl	chSysUnlockFromISR
 282              		.loc 5 527 0
 283 0006 08BD     		pop	{r3, pc}
 284              		.cfi_endproc
 285              	.LFE247:
 286              		.size	osalSysUnlockFromISR, .-osalSysUnlockFromISR
 287 0008 AFF30080 		.section	.text.osalEventBroadcastFlagsI,"ax",%progbits
 287      AFF30080 
 288              		.align	2
 289              		.p2align 4,,15
 290              		.thumb
 291              		.thumb_func
 292              		.type	osalEventBroadcastFlagsI, %function
 293              	osalEventBroadcastFlagsI:
 294              	.LFB266:
 295              		.loc 5 842 0
 296              		.cfi_startproc
 297              		@ args = 0, pretend = 0, frame = 8
 298              		@ frame_needed = 0, uses_anonymous_args = 0
 299 0000 00B5     		push	{lr}
 300              		.cfi_def_cfa_offset 4
 301              		.cfi_offset 14, -4
 302 0002 83B0     		sub	sp, sp, #12
 303              		.cfi_def_cfa_offset 16
 304 0004 0190     		str	r0, [sp, #4]
 305 0006 0091     		str	r1, [sp]
 306              		.loc 5 844 0
 307 0008 0198     		ldr	r0, [sp, #4]
 308 000a 0099     		ldr	r1, [sp]
 309 000c FFF7FEFF 		bl	chEvtBroadcastFlagsI
 310              		.loc 5 845 0
 311 0010 03B0     		add	sp, sp, #12
 312              		@ sp needed
 313 0012 5DF804FB 		ldr	pc, [sp], #4
 314              		.cfi_endproc
 315              	.LFE266:
 316              		.size	osalEventBroadcastFlagsI, .-osalEventBroadcastFlagsI
 317              		.global	SD3
 318 0016 00BFAFF3 		.section	.bss.SD3,"aw",%nobits
 318      0080AFF3 
 318      0080
 319              		.align	2
 320              		.type	SD3, %object
 321              		.size	SD3, 216
 322              	SD3:
 323 0000 00000000 		.space	216
 323      00000000 
 323      00000000 
 323      00000000 
 323      00000000 
 324              		.section	.rodata.default_config,"a",%progbits
 325              		.align	2
 326              		.type	default_config, %object
 327              		.size	default_config, 12
 328              	default_config:
 329 0000 80250000 		.word	9600
ARM GAS  /tmp/ccoA48Dc.s 			page 7


 330 0004 0000     		.short	0
 331 0006 0040     		.short	16384
 332 0008 0000     		.short	0
 333 000a 0000     		.space	2
 334              		.section	.text.usart_init,"ax",%progbits
 335              		.align	2
 336              		.p2align 4,,15
 337              		.thumb
 338              		.thumb_func
 339              		.type	usart_init, %function
 340              	usart_init:
 341              	.LFB271:
 342              		.file 6 "/home/efe/ChibiOS/os/hal/ports/STM32/LLD/USARTv1/serial_lld.c"
 343              		.loc 6 101 0
 344              		.cfi_startproc
 345              		@ args = 0, pretend = 0, frame = 16
 346              		@ frame_needed = 0, uses_anonymous_args = 0
 347              		@ link register save eliminated.
 348 0000 84B0     		sub	sp, sp, #16
 349              		.cfi_def_cfa_offset 16
 350 0002 0190     		str	r0, [sp, #4]
 351 0004 0091     		str	r1, [sp]
 352              		.loc 6 102 0
 353 0006 019B     		ldr	r3, [sp, #4]
 354 0008 D3F8D430 		ldr	r3, [r3, #212]
 355 000c 0393     		str	r3, [sp, #12]
 356              		.loc 6 106 0
 357 000e 019B     		ldr	r3, [sp, #4]
 358 0010 D3F8D420 		ldr	r2, [r3, #212]
 359 0014 1D4B     		ldr	r3, .L18
 360 0016 9A42     		cmp	r2, r3
 361 0018 05D0     		beq	.L15
 362              		.loc 6 106 0 is_stmt 0 discriminator 1
 363 001a 019B     		ldr	r3, [sp, #4]
 364 001c D3F8D420 		ldr	r2, [r3, #212]
 365 0020 1B4B     		ldr	r3, .L18+4
 366 0022 9A42     		cmp	r2, r3
 367 0024 07D1     		bne	.L16
 368              	.L15:
 369              		.loc 6 110 0 is_stmt 1
 370 0026 009B     		ldr	r3, [sp]
 371 0028 1B68     		ldr	r3, [r3]
 372 002a 1A4A     		ldr	r2, .L18+8
 373 002c B2FBF3F2 		udiv	r2, r2, r3
 374 0030 039B     		ldr	r3, [sp, #12]
 375 0032 9A60     		str	r2, [r3, #8]
 376 0034 06E0     		b	.L17
 377              	.L16:
 378              		.loc 6 112 0
 379 0036 009B     		ldr	r3, [sp]
 380 0038 1B68     		ldr	r3, [r3]
 381 003a 174A     		ldr	r2, .L18+12
 382 003c B2FBF3F2 		udiv	r2, r2, r3
 383 0040 039B     		ldr	r3, [sp, #12]
 384 0042 9A60     		str	r2, [r3, #8]
 385              	.L17:
 386              		.loc 6 115 0
ARM GAS  /tmp/ccoA48Dc.s 			page 8


 387 0044 009B     		ldr	r3, [sp]
 388 0046 DB88     		ldrh	r3, [r3, #6]
 389 0048 43F04003 		orr	r3, r3, #64
 390 004c 9BB2     		uxth	r3, r3
 391 004e 1A46     		mov	r2, r3
 392 0050 039B     		ldr	r3, [sp, #12]
 393 0052 1A61     		str	r2, [r3, #16]
 394              		.loc 6 116 0
 395 0054 009B     		ldr	r3, [sp]
 396 0056 1B89     		ldrh	r3, [r3, #8]
 397 0058 43F00103 		orr	r3, r3, #1
 398 005c 9BB2     		uxth	r3, r3
 399 005e 1A46     		mov	r2, r3
 400 0060 039B     		ldr	r3, [sp, #12]
 401 0062 5A61     		str	r2, [r3, #20]
 402              		.loc 6 117 0
 403 0064 009B     		ldr	r3, [sp]
 404 0066 9B88     		ldrh	r3, [r3, #4]
 405              		.loc 6 118 0
 406 0068 43F40453 		orr	r3, r3, #8448
 407 006c 43F02C03 		orr	r3, r3, #44
 408 0070 9BB2     		uxth	r3, r3
 409 0072 1A46     		mov	r2, r3
 410              		.loc 6 117 0
 411 0074 039B     		ldr	r3, [sp, #12]
 412 0076 DA60     		str	r2, [r3, #12]
 413              		.loc 6 120 0
 414 0078 039B     		ldr	r3, [sp, #12]
 415 007a 0022     		movs	r2, #0
 416 007c 1A60     		str	r2, [r3]
 417              		.loc 6 121 0
 418 007e 039B     		ldr	r3, [sp, #12]
 419 0080 1B68     		ldr	r3, [r3]
 420              		.loc 6 122 0
 421 0082 039B     		ldr	r3, [sp, #12]
 422 0084 5B68     		ldr	r3, [r3, #4]
 423              		.loc 6 123 0
 424 0086 04B0     		add	sp, sp, #16
 425              		@ sp needed
 426 0088 7047     		bx	lr
 427              	.L19:
 428 008a 00BF     		.align	2
 429              	.L18:
 430 008c 00100140 		.word	1073811456
 431 0090 00140140 		.word	1073812480
 432 0094 00BD0105 		.word	84000000
 433 0098 80DE8002 		.word	42000000
 434              		.cfi_endproc
 435              	.LFE271:
 436              		.size	usart_init, .-usart_init
 437 009c AFF30080 		.section	.text.usart_deinit,"ax",%progbits
 438              		.align	2
 439              		.p2align 4,,15
 440              		.thumb
 441              		.thumb_func
 442              		.type	usart_deinit, %function
 443              	usart_deinit:
ARM GAS  /tmp/ccoA48Dc.s 			page 9


 444              	.LFB272:
 445              		.loc 6 131 0
 446              		.cfi_startproc
 447              		@ args = 0, pretend = 0, frame = 8
 448              		@ frame_needed = 0, uses_anonymous_args = 0
 449              		@ link register save eliminated.
 450 0000 82B0     		sub	sp, sp, #8
 451              		.cfi_def_cfa_offset 8
 452 0002 0190     		str	r0, [sp, #4]
 453              		.loc 6 133 0
 454 0004 019B     		ldr	r3, [sp, #4]
 455 0006 0022     		movs	r2, #0
 456 0008 DA60     		str	r2, [r3, #12]
 457              		.loc 6 134 0
 458 000a 019B     		ldr	r3, [sp, #4]
 459 000c 0022     		movs	r2, #0
 460 000e 1A61     		str	r2, [r3, #16]
 461              		.loc 6 135 0
 462 0010 019B     		ldr	r3, [sp, #4]
 463 0012 0022     		movs	r2, #0
 464 0014 5A61     		str	r2, [r3, #20]
 465              		.loc 6 136 0
 466 0016 02B0     		add	sp, sp, #8
 467              		@ sp needed
 468 0018 7047     		bx	lr
 469              		.cfi_endproc
 470              	.LFE272:
 471              		.size	usart_deinit, .-usart_deinit
 472 001a 00BFAFF3 		.section	.text.set_error,"ax",%progbits
 472      0080
 473              		.align	2
 474              		.p2align 4,,15
 475              		.thumb
 476              		.thumb_func
 477              		.type	set_error, %function
 478              	set_error:
 479              	.LFB273:
 480              		.loc 6 144 0
 481              		.cfi_startproc
 482              		@ args = 0, pretend = 0, frame = 16
 483              		@ frame_needed = 0, uses_anonymous_args = 0
 484 0000 00B5     		push	{lr}
 485              		.cfi_def_cfa_offset 4
 486              		.cfi_offset 14, -4
 487 0002 85B0     		sub	sp, sp, #20
 488              		.cfi_def_cfa_offset 24
 489 0004 0190     		str	r0, [sp, #4]
 490 0006 0B46     		mov	r3, r1
 491 0008 ADF80230 		strh	r3, [sp, #2]	@ movhi
 492              		.loc 6 145 0
 493 000c 0023     		movs	r3, #0
 494 000e 0393     		str	r3, [sp, #12]
 495              		.loc 6 147 0
 496 0010 BDF80230 		ldrh	r3, [sp, #2]
 497 0014 03F00803 		and	r3, r3, #8
 498 0018 002B     		cmp	r3, #0
 499 001a 03D0     		beq	.L22
ARM GAS  /tmp/ccoA48Dc.s 			page 10


 500              		.loc 6 148 0
 501 001c 039B     		ldr	r3, [sp, #12]
 502 001e 43F08003 		orr	r3, r3, #128
 503 0022 0393     		str	r3, [sp, #12]
 504              	.L22:
 505              		.loc 6 149 0
 506 0024 BDF80230 		ldrh	r3, [sp, #2]
 507 0028 03F00103 		and	r3, r3, #1
 508 002c 002B     		cmp	r3, #0
 509 002e 03D0     		beq	.L23
 510              		.loc 6 150 0
 511 0030 039B     		ldr	r3, [sp, #12]
 512 0032 43F02003 		orr	r3, r3, #32
 513 0036 0393     		str	r3, [sp, #12]
 514              	.L23:
 515              		.loc 6 151 0
 516 0038 BDF80230 		ldrh	r3, [sp, #2]
 517 003c 03F00203 		and	r3, r3, #2
 518 0040 002B     		cmp	r3, #0
 519 0042 03D0     		beq	.L24
 520              		.loc 6 152 0
 521 0044 039B     		ldr	r3, [sp, #12]
 522 0046 43F04003 		orr	r3, r3, #64
 523 004a 0393     		str	r3, [sp, #12]
 524              	.L24:
 525              		.loc 6 153 0
 526 004c BDF80230 		ldrh	r3, [sp, #2]
 527 0050 03F00403 		and	r3, r3, #4
 528 0054 002B     		cmp	r3, #0
 529 0056 03D0     		beq	.L25
 530              		.loc 6 154 0
 531 0058 039B     		ldr	r3, [sp, #12]
 532 005a 43F48073 		orr	r3, r3, #256
 533 005e 0393     		str	r3, [sp, #12]
 534              	.L25:
 535              		.loc 6 155 0
 536 0060 019B     		ldr	r3, [sp, #4]
 537 0062 0433     		adds	r3, r3, #4
 538 0064 1846     		mov	r0, r3
 539 0066 0399     		ldr	r1, [sp, #12]
 540 0068 FFF7FEFF 		bl	osalEventBroadcastFlagsI
 541              		.loc 6 156 0
 542 006c 05B0     		add	sp, sp, #20
 543              		@ sp needed
 544 006e 5DF804FB 		ldr	pc, [sp], #4
 545              		.cfi_endproc
 546              	.LFE273:
 547              		.size	set_error, .-set_error
 548 0072 00BFAFF3 		.section	.text.serve_interrupt,"ax",%progbits
 548      0080AFF3 
 548      0080AFF3 
 548      0080
 549              		.align	2
 550              		.p2align 4,,15
 551              		.thumb
 552              		.thumb_func
 553              		.type	serve_interrupt, %function
ARM GAS  /tmp/ccoA48Dc.s 			page 11


 554              	serve_interrupt:
 555              	.LFB274:
 556              		.loc 6 163 0
 557              		.cfi_startproc
 558              		@ args = 0, pretend = 0, frame = 24
 559              		@ frame_needed = 0, uses_anonymous_args = 0
 560 0000 00B5     		push	{lr}
 561              		.cfi_def_cfa_offset 4
 562              		.cfi_offset 14, -4
 563 0002 87B0     		sub	sp, sp, #28
 564              		.cfi_def_cfa_offset 32
 565 0004 0190     		str	r0, [sp, #4]
 566              		.loc 6 164 0
 567 0006 019B     		ldr	r3, [sp, #4]
 568 0008 D3F8D430 		ldr	r3, [r3, #212]
 569 000c 0493     		str	r3, [sp, #16]
 570              		.loc 6 165 0
 571 000e 049B     		ldr	r3, [sp, #16]
 572 0010 DB68     		ldr	r3, [r3, #12]
 573 0012 ADF80E30 		strh	r3, [sp, #14]	@ movhi
 574              		.loc 6 166 0
 575 0016 049B     		ldr	r3, [sp, #16]
 576 0018 1B68     		ldr	r3, [r3]
 577 001a ADF81630 		strh	r3, [sp, #22]	@ movhi
 578              		.loc 6 169 0
 579 001e BDF81630 		ldrh	r3, [sp, #22]
 580 0022 03F48073 		and	r3, r3, #256
 581 0026 002B     		cmp	r3, #0
 582 0028 0ED0     		beq	.L27
 583              		.loc 6 170 0
 584 002a FFF7FEFF 		bl	osalSysLockFromISR
 585              		.loc 6 171 0
 586 002e 019B     		ldr	r3, [sp, #4]
 587 0030 0433     		adds	r3, r3, #4
 588 0032 1846     		mov	r0, r3
 589 0034 4FF40071 		mov	r1, #512
 590 0038 FFF7FEFF 		bl	osalEventBroadcastFlagsI
 591              		.loc 6 172 0
 592 003c 049B     		ldr	r3, [sp, #16]
 593 003e 6FF48072 		mvn	r2, #256
 594 0042 1A60     		str	r2, [r3]
 595              		.loc 6 173 0
 596 0044 FFF7FEFF 		bl	osalSysUnlockFromISR
 597              	.L27:
 598              		.loc 6 177 0
 599 0048 FFF7FEFF 		bl	osalSysLockFromISR
 600              		.loc 6 178 0
 601 004c 1FE0     		b	.L28
 602              	.L31:
 603              	.LBB10:
 604              		.loc 6 183 0
 605 004e BDF81630 		ldrh	r3, [sp, #22]
 606 0052 03F00F03 		and	r3, r3, #15
 607 0056 002B     		cmp	r3, #0
 608 0058 05D0     		beq	.L29
 609              		.loc 6 184 0
 610 005a BDF81630 		ldrh	r3, [sp, #22]
ARM GAS  /tmp/ccoA48Dc.s 			page 12


 611 005e 0198     		ldr	r0, [sp, #4]
 612 0060 1946     		mov	r1, r3
 613 0062 FFF7FEFF 		bl	set_error
 614              	.L29:
 615              		.loc 6 185 0
 616 0066 049B     		ldr	r3, [sp, #16]
 617 0068 5B68     		ldr	r3, [r3, #4]
 618 006a 8DF80D30 		strb	r3, [sp, #13]
 619              		.loc 6 186 0
 620 006e BDF81630 		ldrh	r3, [sp, #22]
 621 0072 03F02003 		and	r3, r3, #32
 622 0076 002B     		cmp	r3, #0
 623 0078 05D0     		beq	.L30
 624              		.loc 6 187 0
 625 007a 9DF80D30 		ldrb	r3, [sp, #13]	@ zero_extendqisi2
 626 007e 0198     		ldr	r0, [sp, #4]
 627 0080 1946     		mov	r1, r3
 628 0082 FFF7FEFF 		bl	sdIncomingDataI
 629              	.L30:
 630              		.loc 6 188 0
 631 0086 049B     		ldr	r3, [sp, #16]
 632 0088 1B68     		ldr	r3, [r3]
 633 008a ADF81630 		strh	r3, [sp, #22]	@ movhi
 634              	.L28:
 635              	.LBE10:
 636              		.loc 6 178 0 discriminator 1
 637 008e BDF81630 		ldrh	r3, [sp, #22]
 638 0092 03F02F03 		and	r3, r3, #47
 639 0096 002B     		cmp	r3, #0
 640 0098 D9D1     		bne	.L31
 641              		.loc 6 190 0
 642 009a FFF7FEFF 		bl	osalSysUnlockFromISR
 643              		.loc 6 193 0
 644 009e BDF80E30 		ldrh	r3, [sp, #14]
 645 00a2 03F08003 		and	r3, r3, #128
 646 00a6 002B     		cmp	r3, #0
 647 00a8 24D0     		beq	.L32
 648              		.loc 6 193 0 is_stmt 0 discriminator 1
 649 00aa BDF81630 		ldrh	r3, [sp, #22]
 650 00ae 03F08003 		and	r3, r3, #128
 651 00b2 002B     		cmp	r3, #0
 652 00b4 1ED0     		beq	.L32
 653              	.LBB11:
 654              		.loc 6 195 0 is_stmt 1
 655 00b6 FFF7FEFF 		bl	osalSysLockFromISR
 656              		.loc 6 196 0
 657 00ba 019B     		ldr	r3, [sp, #4]
 658 00bc 3033     		adds	r3, r3, #48
 659 00be 1846     		mov	r0, r3
 660 00c0 FFF7FEFF 		bl	chOQGetI
 661 00c4 0290     		str	r0, [sp, #8]
 662              		.loc 6 197 0
 663 00c6 029B     		ldr	r3, [sp, #8]
 664 00c8 002B     		cmp	r3, #0
 665 00ca 0EDA     		bge	.L33
 666              		.loc 6 198 0
 667 00cc 019B     		ldr	r3, [sp, #4]
ARM GAS  /tmp/ccoA48Dc.s 			page 13


 668 00ce 0433     		adds	r3, r3, #4
 669 00d0 1846     		mov	r0, r3
 670 00d2 0821     		movs	r1, #8
 671 00d4 FFF7FEFF 		bl	osalEventBroadcastFlagsI
 672              		.loc 6 199 0
 673 00d8 BDF80E30 		ldrh	r3, [sp, #14]
 674 00dc 23F0C003 		bic	r3, r3, #192
 675 00e0 43F04002 		orr	r2, r3, #64
 676 00e4 049B     		ldr	r3, [sp, #16]
 677 00e6 DA60     		str	r2, [r3, #12]
 678 00e8 02E0     		b	.L34
 679              	.L33:
 680              		.loc 6 202 0
 681 00ea 029A     		ldr	r2, [sp, #8]
 682 00ec 049B     		ldr	r3, [sp, #16]
 683 00ee 5A60     		str	r2, [r3, #4]
 684              	.L34:
 685              		.loc 6 203 0
 686 00f0 FFF7FEFF 		bl	osalSysUnlockFromISR
 687              	.L32:
 688              	.LBE11:
 689              		.loc 6 207 0
 690 00f4 BDF81630 		ldrh	r3, [sp, #22]
 691 00f8 03F04003 		and	r3, r3, #64
 692 00fc 002B     		cmp	r3, #0
 693 00fe 1BD0     		beq	.L26
 694              		.loc 6 208 0
 695 0100 FFF7FEFF 		bl	osalSysLockFromISR
 696              		.loc 6 209 0
 697 0104 019B     		ldr	r3, [sp, #4]
 698 0106 3033     		adds	r3, r3, #48
 699 0108 1846     		mov	r0, r3
 700 010a FFF7FEFF 		bl	chOQIsEmptyI
 701 010e 0346     		mov	r3, r0
 702 0110 002B     		cmp	r3, #0
 703 0112 05D0     		beq	.L36
 704              		.loc 6 210 0
 705 0114 019B     		ldr	r3, [sp, #4]
 706 0116 0433     		adds	r3, r3, #4
 707 0118 1846     		mov	r0, r3
 708 011a 1021     		movs	r1, #16
 709 011c FFF7FEFF 		bl	osalEventBroadcastFlagsI
 710              	.L36:
 711              		.loc 6 211 0
 712 0120 BDF80E30 		ldrh	r3, [sp, #14]
 713 0124 23F04002 		bic	r2, r3, #64
 714 0128 049B     		ldr	r3, [sp, #16]
 715 012a DA60     		str	r2, [r3, #12]
 716              		.loc 6 212 0
 717 012c 049B     		ldr	r3, [sp, #16]
 718 012e 6FF04002 		mvn	r2, #64
 719 0132 1A60     		str	r2, [r3]
 720              		.loc 6 213 0
 721 0134 FFF7FEFF 		bl	osalSysUnlockFromISR
 722              	.L26:
 723              		.loc 6 215 0
 724 0138 07B0     		add	sp, sp, #28
ARM GAS  /tmp/ccoA48Dc.s 			page 14


 725              		@ sp needed
 726 013a 5DF804FB 		ldr	pc, [sp], #4
 727              		.cfi_endproc
 728              	.LFE274:
 729              		.size	serve_interrupt, .-serve_interrupt
 730 013e 00BF     		.section	.text.notify3,"ax",%progbits
 731              		.align	2
 732              		.p2align 4,,15
 733              		.thumb
 734              		.thumb_func
 735              		.type	notify3, %function
 736              	notify3:
 737              	.LFB275:
 738              		.loc 6 234 0
 739              		.cfi_startproc
 740              		@ args = 0, pretend = 0, frame = 8
 741              		@ frame_needed = 0, uses_anonymous_args = 0
 742              		@ link register save eliminated.
 743 0000 82B0     		sub	sp, sp, #8
 744              		.cfi_def_cfa_offset 8
 745 0002 0190     		str	r0, [sp, #4]
 746              		.loc 6 237 0
 747 0004 034B     		ldr	r3, .L38
 748 0006 034A     		ldr	r2, .L38
 749 0008 D268     		ldr	r2, [r2, #12]
 750 000a 42F08002 		orr	r2, r2, #128
 751 000e DA60     		str	r2, [r3, #12]
 752              		.loc 6 238 0
 753 0010 02B0     		add	sp, sp, #8
 754              		@ sp needed
 755 0012 7047     		bx	lr
 756              	.L39:
 757              		.align	2
 758              	.L38:
 759 0014 00480040 		.word	1073760256
 760              		.cfi_endproc
 761              	.LFE275:
 762              		.size	notify3, .-notify3
 763 0018 AFF30080 		.section	.text.VectorDC,"ax",%progbits
 763      AFF30080 
 764              		.align	2
 765              		.p2align 4,,15
 766              		.global	VectorDC
 767              		.thumb
 768              		.thumb_func
 769              		.type	VectorDC, %function
 770              	VectorDC:
 771              	.LFB276:
 772              		.loc 6 332 0
 773              		.cfi_startproc
 774              		@ args = 0, pretend = 0, frame = 0
 775              		@ frame_needed = 0, uses_anonymous_args = 0
 776 0000 08B5     		push	{r3, lr}
 777              		.cfi_def_cfa_offset 8
 778              		.cfi_offset 3, -8
 779              		.cfi_offset 14, -4
 780              		.loc 6 334 0
ARM GAS  /tmp/ccoA48Dc.s 			page 15


 781 0002 FFF7FEFF 		bl	_stats_increase_irq
 782 0006 FFF7FEFF 		bl	_dbg_check_enter_isr
 783              		.loc 6 336 0
 784 000a 0448     		ldr	r0, .L41
 785 000c FFF7FEFF 		bl	serve_interrupt
 786              		.loc 6 338 0
 787 0010 FFF7FEFF 		bl	_dbg_check_leave_isr
 788 0014 FFF7FEFF 		bl	_port_irq_epilogue
 789              		.loc 6 339 0
 790 0018 08BD     		pop	{r3, pc}
 791              	.L42:
 792 001a 00BF     		.align	2
 793              	.L41:
 794 001c 00000000 		.word	SD3
 795              		.cfi_endproc
 796              	.LFE276:
 797              		.size	VectorDC, .-VectorDC
 798              		.section	.text.sd_lld_init,"ax",%progbits
 799              		.align	2
 800              		.p2align 4,,15
 801              		.global	sd_lld_init
 802              		.thumb
 803              		.thumb_func
 804              		.type	sd_lld_init, %function
 805              	sd_lld_init:
 806              	.LFB277:
 807              		.loc 6 446 0
 808              		.cfi_startproc
 809              		@ args = 0, pretend = 0, frame = 0
 810              		@ frame_needed = 0, uses_anonymous_args = 0
 811 0000 08B5     		push	{r3, lr}
 812              		.cfi_def_cfa_offset 8
 813              		.cfi_offset 3, -8
 814              		.cfi_offset 14, -4
 815              		.loc 6 459 0
 816 0002 0548     		ldr	r0, .L44
 817 0004 0021     		movs	r1, #0
 818 0006 054A     		ldr	r2, .L44+4
 819 0008 FFF7FEFF 		bl	sdObjectInit
 820              		.loc 6 460 0
 821 000c 024B     		ldr	r3, .L44
 822 000e 044A     		ldr	r2, .L44+8
 823 0010 C3F8D420 		str	r2, [r3, #212]
 824              		.loc 6 487 0
 825 0014 08BD     		pop	{r3, pc}
 826              	.L45:
 827 0016 00BF     		.align	2
 828              	.L44:
 829 0018 00000000 		.word	SD3
 830 001c 00000000 		.word	notify3
 831 0020 00480040 		.word	1073760256
 832              		.cfi_endproc
 833              	.LFE277:
 834              		.size	sd_lld_init, .-sd_lld_init
 835 0024 AFF30080 		.section	.text.sd_lld_start,"ax",%progbits
 835      AFF30080 
 835      AFF30080 
ARM GAS  /tmp/ccoA48Dc.s 			page 16


 836              		.align	2
 837              		.p2align 4,,15
 838              		.global	sd_lld_start
 839              		.thumb
 840              		.thumb_func
 841              		.type	sd_lld_start, %function
 842              	sd_lld_start:
 843              	.LFB278:
 844              		.loc 6 499 0
 845              		.cfi_startproc
 846              		@ args = 0, pretend = 0, frame = 8
 847              		@ frame_needed = 0, uses_anonymous_args = 0
 848 0000 00B5     		push	{lr}
 849              		.cfi_def_cfa_offset 4
 850              		.cfi_offset 14, -4
 851 0002 83B0     		sub	sp, sp, #12
 852              		.cfi_def_cfa_offset 16
 853 0004 0190     		str	r0, [sp, #4]
 854 0006 0091     		str	r1, [sp]
 855              		.loc 6 501 0
 856 0008 009B     		ldr	r3, [sp]
 857 000a 002B     		cmp	r3, #0
 858 000c 01D1     		bne	.L47
 859              		.loc 6 502 0
 860 000e 0D4B     		ldr	r3, .L49
 861 0010 0093     		str	r3, [sp]
 862              	.L47:
 863              		.loc 6 504 0
 864 0012 019B     		ldr	r3, [sp, #4]
 865 0014 1B7A     		ldrb	r3, [r3, #8]	@ zero_extendqisi2
 866 0016 012B     		cmp	r3, #1
 867 0018 0DD1     		bne	.L48
 868              		.loc 6 518 0
 869 001a 019A     		ldr	r2, [sp, #4]
 870 001c 0A4B     		ldr	r3, .L49+4
 871 001e 9A42     		cmp	r2, r3
 872 0020 09D1     		bne	.L48
 873              		.loc 6 519 0
 874 0022 0A4B     		ldr	r3, .L49+8
 875 0024 094A     		ldr	r2, .L49+8
 876 0026 126C     		ldr	r2, [r2, #64]
 877 0028 42F48022 		orr	r2, r2, #262144
 878 002c 1A64     		str	r2, [r3, #64]
 879              		.loc 6 520 0
 880 002e 2720     		movs	r0, #39
 881 0030 0C21     		movs	r1, #12
 882 0032 FFF7FEFF 		bl	nvicEnableVector
 883              	.L48:
 884              		.loc 6 554 0
 885 0036 0198     		ldr	r0, [sp, #4]
 886 0038 0099     		ldr	r1, [sp]
 887 003a FFF7FEFF 		bl	usart_init
 888              		.loc 6 555 0
 889 003e 03B0     		add	sp, sp, #12
 890              		@ sp needed
 891 0040 5DF804FB 		ldr	pc, [sp], #4
 892              	.L50:
ARM GAS  /tmp/ccoA48Dc.s 			page 17


 893              		.align	2
 894              	.L49:
 895 0044 00000000 		.word	default_config
 896 0048 00000000 		.word	SD3
 897 004c 00380240 		.word	1073887232
 898              		.cfi_endproc
 899              	.LFE278:
 900              		.size	sd_lld_start, .-sd_lld_start
 901              		.section	.text.sd_lld_stop,"ax",%progbits
 902              		.align	2
 903              		.p2align 4,,15
 904              		.global	sd_lld_stop
 905              		.thumb
 906              		.thumb_func
 907              		.type	sd_lld_stop, %function
 908              	sd_lld_stop:
 909              	.LFB279:
 910              		.loc 6 566 0
 911              		.cfi_startproc
 912              		@ args = 0, pretend = 0, frame = 8
 913              		@ frame_needed = 0, uses_anonymous_args = 0
 914 0000 00B5     		push	{lr}
 915              		.cfi_def_cfa_offset 4
 916              		.cfi_offset 14, -4
 917 0002 83B0     		sub	sp, sp, #12
 918              		.cfi_def_cfa_offset 16
 919 0004 0190     		str	r0, [sp, #4]
 920              		.loc 6 568 0
 921 0006 019B     		ldr	r3, [sp, #4]
 922 0008 1B7A     		ldrb	r3, [r3, #8]	@ zero_extendqisi2
 923 000a 022B     		cmp	r3, #2
 924 000c 13D1     		bne	.L51
 925              		.loc 6 569 0
 926 000e 019B     		ldr	r3, [sp, #4]
 927 0010 D3F8D430 		ldr	r3, [r3, #212]
 928 0014 1846     		mov	r0, r3
 929 0016 FFF7FEFF 		bl	usart_deinit
 930              		.loc 6 585 0
 931 001a 019A     		ldr	r2, [sp, #4]
 932 001c 074B     		ldr	r3, .L53
 933 001e 9A42     		cmp	r2, r3
 934 0020 09D1     		bne	.L51
 935              		.loc 6 586 0
 936 0022 074B     		ldr	r3, .L53+4
 937 0024 064A     		ldr	r2, .L53+4
 938 0026 126C     		ldr	r2, [r2, #64]
 939 0028 22F48022 		bic	r2, r2, #262144
 940 002c 1A64     		str	r2, [r3, #64]
 941              		.loc 6 587 0
 942 002e 2720     		movs	r0, #39
 943 0030 FFF7FEFF 		bl	nvicDisableVector
 944              		.loc 6 588 0
 945 0034 00BF     		nop
 946              	.L51:
 947              		.loc 6 627 0
 948 0036 03B0     		add	sp, sp, #12
 949              		@ sp needed
ARM GAS  /tmp/ccoA48Dc.s 			page 18


 950 0038 5DF804FB 		ldr	pc, [sp], #4
 951              	.L54:
 952              		.align	2
 953              	.L53:
 954 003c 00000000 		.word	SD3
 955 0040 00380240 		.word	1073887232
 956              		.cfi_endproc
 957              	.LFE279:
 958              		.size	sd_lld_stop, .-sd_lld_stop
 959 0044 AFF30080 		.text
 959      AFF30080 
 959      AFF30080 
 960              	.Letext0:
 961              		.file 7 "/usr/lib/gcc/arm-none-eabi/4.8/include/stddef.h"
 962              		.file 8 "/usr/include/newlib/machine/_default_types.h"
 963              		.file 9 "/usr/include/newlib/stdint.h"
 964              		.file 10 "/home/efe/ChibiOS/os/rt/ports/ARMCMx/compilers/GCC/chtypes.h"
 965              		.file 11 "/home/efe/ChibiOS/os/rt/include/chsystypes.h"
 966              		.file 12 "/home/efe/ChibiOS/os/rt/include/chschd.h"
 967              		.file 13 "/home/efe/ChibiOS/os/ext/CMSIS/ST/stm32f407xx.h"
 968              		.file 14 "/home/efe/ChibiOS/os/rt/ports/ARMCMx/chcore.h"
 969              		.file 15 "/home/efe/ChibiOS/os/rt/include/chdebug.h"
 970              		.file 16 "/home/efe/ChibiOS/os/rt/include/chtm.h"
 971              		.file 17 "/home/efe/ChibiOS/os/rt/include/chstats.h"
 972              		.file 18 "/home/efe/ChibiOS/os/rt/include/chsem.h"
 973              		.file 19 "/home/efe/ChibiOS/os/rt/include/chmtx.h"
 974              		.file 20 "/home/efe/ChibiOS/os/rt/include/chevents.h"
 975              		.file 21 "/home/efe/ChibiOS/os/hal/include/serial.h"
 976              		.file 22 "/home/efe/ChibiOS/os/hal/ports/STM32/LLD/USARTv1/serial_lld.h"
 977              		.file 23 "/home/efe/ChibiOS/os/ext/CMSIS/include/core_cm4.h"