ARM GAS  /tmp/cccH9y3d.s 			page 1


   1              		.syntax unified
   2              		.cpu cortex-m4
   3              		.fpu softvfp
   4              		.eabi_attribute 20, 1
   5              		.eabi_attribute 21, 1
   6              		.eabi_attribute 23, 3
   7              		.eabi_attribute 24, 1
   8              		.eabi_attribute 25, 1
   9              		.eabi_attribute 26, 1
  10              		.eabi_attribute 30, 6
  11              		.eabi_attribute 34, 1
  12              		.eabi_attribute 18, 4
  13              		.thumb
  14              		.file	"serial.c"
  15              		.text
  16              	.Ltext0:
  17              		.cfi_sections	.debug_frame
  18              		.section	.text.port_lock,"ax",%progbits
  19              		.align	2
  20              		.p2align 4,,15
  21              		.thumb
  22              		.thumb_func
  23              		.type	port_lock, %function
  24              	port_lock:
  25              	.LFB127:
  26              		.file 1 "/home/efe/ChibiOS/os/rt/ports/ARMCMx/chcore_v7m.h"
  27              		.loc 1 456 0
  28              		.cfi_startproc
  29              		@ args = 0, pretend = 0, frame = 8
  30              		@ frame_needed = 0, uses_anonymous_args = 0
  31              		@ link register save eliminated.
  32 0000 82B0     		sub	sp, sp, #8
  33              		.cfi_def_cfa_offset 8
  34 0002 2023     		movs	r3, #32
  35 0004 0193     		str	r3, [sp, #4]
  36              	.LBB6:
  37              	.LBB7:
  38              		.file 2 "/home/efe/ChibiOS/os/ext/CMSIS/include/core_cmFunc.h"
  39              		.loc 2 548 0
  40 0006 019B     		ldr	r3, [sp, #4]
  41              	@ 548 "/home/efe/ChibiOS/os/ext/CMSIS/include/core_cmFunc.h" 1
  42 0008 83F31188 		MSR basepri, r3
  43              	@ 0 "" 2
  44              		.thumb
  45              	.LBE7:
  46              	.LBE6:
  47              		.loc 1 463 0
  48 000c 02B0     		add	sp, sp, #8
  49              		@ sp needed
  50 000e 7047     		bx	lr
  51              		.cfi_endproc
  52              	.LFE127:
  53              		.size	port_lock, .-port_lock
  54              		.section	.text.port_unlock,"ax",%progbits
  55              		.align	2
  56              		.p2align 4,,15
  57              		.thumb
ARM GAS  /tmp/cccH9y3d.s 			page 2


  58              		.thumb_func
  59              		.type	port_unlock, %function
  60              	port_unlock:
  61              	.LFB128:
  62              		.loc 1 470 0
  63              		.cfi_startproc
  64              		@ args = 0, pretend = 0, frame = 8
  65              		@ frame_needed = 0, uses_anonymous_args = 0
  66              		@ link register save eliminated.
  67 0000 82B0     		sub	sp, sp, #8
  68              		.cfi_def_cfa_offset 8
  69 0002 0023     		movs	r3, #0
  70 0004 0193     		str	r3, [sp, #4]
  71              	.LBB8:
  72              	.LBB9:
  73              		.loc 2 548 0
  74 0006 019B     		ldr	r3, [sp, #4]
  75              	@ 548 "/home/efe/ChibiOS/os/ext/CMSIS/include/core_cmFunc.h" 1
  76 0008 83F31188 		MSR basepri, r3
  77              	@ 0 "" 2
  78              		.thumb
  79              	.LBE9:
  80              	.LBE8:
  81              		.loc 1 477 0
  82 000c 02B0     		add	sp, sp, #8
  83              		@ sp needed
  84 000e 7047     		bx	lr
  85              		.cfi_endproc
  86              	.LFE128:
  87              		.size	port_unlock, .-port_unlock
  88              		.section	.text.chSysLock,"ax",%progbits
  89              		.align	2
  90              		.p2align 4,,15
  91              		.thumb
  92              		.thumb_func
  93              		.type	chSysLock, %function
  94              	chSysLock:
  95              	.LFB167:
  96              		.file 3 "/home/efe/ChibiOS/os/rt/include/chsys.h"
  97              		.loc 3 346 0
  98              		.cfi_startproc
  99              		@ args = 0, pretend = 0, frame = 0
 100              		@ frame_needed = 0, uses_anonymous_args = 0
 101 0000 08B5     		push	{r3, lr}
 102              		.cfi_def_cfa_offset 8
 103              		.cfi_offset 3, -8
 104              		.cfi_offset 14, -4
 105              		.loc 3 348 0
 106 0002 FFF7FEFF 		bl	port_lock
 107              		.loc 3 349 0
 108 0006 FFF7FEFF 		bl	_stats_start_measure_crit_thd
 109              		.loc 3 350 0
 110 000a FFF7FEFF 		bl	_dbg_check_lock
 111              		.loc 3 351 0
 112 000e 08BD     		pop	{r3, pc}
 113              		.cfi_endproc
 114              	.LFE167:
ARM GAS  /tmp/cccH9y3d.s 			page 3


 115              		.size	chSysLock, .-chSysLock
 116              		.section	.text.chSysUnlock,"ax",%progbits
 117              		.align	2
 118              		.p2align 4,,15
 119              		.thumb
 120              		.thumb_func
 121              		.type	chSysUnlock, %function
 122              	chSysUnlock:
 123              	.LFB168:
 124              		.loc 3 358 0
 125              		.cfi_startproc
 126              		@ args = 0, pretend = 0, frame = 0
 127              		@ frame_needed = 0, uses_anonymous_args = 0
 128 0000 08B5     		push	{r3, lr}
 129              		.cfi_def_cfa_offset 8
 130              		.cfi_offset 3, -8
 131              		.cfi_offset 14, -4
 132              		.loc 3 360 0
 133 0002 FFF7FEFF 		bl	_dbg_check_unlock
 134              		.loc 3 361 0
 135 0006 FFF7FEFF 		bl	_stats_stop_measure_crit_thd
 136              		.loc 3 367 0
 137 000a 094B     		ldr	r3, .L6
 138 000c 1A68     		ldr	r2, [r3]
 139 000e 084B     		ldr	r3, .L6
 140 0010 9A42     		cmp	r2, r3
 141 0012 0AD0     		beq	.L5
 142              		.loc 3 367 0 is_stmt 0 discriminator 1
 143 0014 064B     		ldr	r3, .L6
 144 0016 9B69     		ldr	r3, [r3, #24]
 145 0018 9A68     		ldr	r2, [r3, #8]
 146 001a 054B     		ldr	r3, .L6
 147 001c 1B68     		ldr	r3, [r3]
 148 001e 9B68     		ldr	r3, [r3, #8]
 149 0020 9A42     		cmp	r2, r3
 150 0022 02D2     		bcs	.L5
 151 0024 0348     		ldr	r0, .L6+4
 152 0026 FFF7FEFF 		bl	chSysHalt
 153              	.L5:
 154              		.loc 3 371 0 is_stmt 1
 155 002a FFF7FEFF 		bl	port_unlock
 156              		.loc 3 372 0
 157 002e 08BD     		pop	{r3, pc}
 158              	.L7:
 159              		.align	2
 160              	.L6:
 161 0030 00000000 		.word	ch
 162 0034 00000000 		.word	__func__.5925
 163              		.cfi_endproc
 164              	.LFE168:
 165              		.size	chSysUnlock, .-chSysUnlock
 166 0038 AFF30080 		.section	.text.chEvtObjectInit,"ax",%progbits
 166      AFF30080 
 167              		.align	2
 168              		.p2align 4,,15
 169              		.thumb
 170              		.thumb_func
ARM GAS  /tmp/cccH9y3d.s 			page 4


 171              		.type	chEvtObjectInit, %function
 172              	chEvtObjectInit:
 173              	.LFB215:
 174              		.file 4 "/home/efe/ChibiOS/os/rt/include/chevents.h"
 175              		.loc 4 170 0
 176              		.cfi_startproc
 177              		@ args = 0, pretend = 0, frame = 8
 178              		@ frame_needed = 0, uses_anonymous_args = 0
 179              		@ link register save eliminated.
 180 0000 82B0     		sub	sp, sp, #8
 181              		.cfi_def_cfa_offset 8
 182 0002 0190     		str	r0, [sp, #4]
 183              		.loc 4 172 0
 184 0004 019B     		ldr	r3, [sp, #4]
 185 0006 019A     		ldr	r2, [sp, #4]
 186 0008 1A60     		str	r2, [r3]
 187              		.loc 4 173 0
 188 000a 02B0     		add	sp, sp, #8
 189              		@ sp needed
 190 000c 7047     		bx	lr
 191              		.cfi_endproc
 192              	.LFE215:
 193              		.size	chEvtObjectInit, .-chEvtObjectInit
 194 000e 00BF     		.section	.text.chIQIsEmptyI,"ax",%progbits
 195              		.align	2
 196              		.p2align 4,,15
 197              		.thumb
 198              		.thumb_func
 199              		.type	chIQIsEmptyI, %function
 200              	chIQIsEmptyI:
 201              	.LFB232:
 202              		.file 5 "/home/efe/ChibiOS/os/rt/include/chqueues.h"
 203              		.loc 5 303 0
 204              		.cfi_startproc
 205              		@ args = 0, pretend = 0, frame = 8
 206              		@ frame_needed = 0, uses_anonymous_args = 0
 207 0000 00B5     		push	{lr}
 208              		.cfi_def_cfa_offset 4
 209              		.cfi_offset 14, -4
 210 0002 83B0     		sub	sp, sp, #12
 211              		.cfi_def_cfa_offset 16
 212 0004 0190     		str	r0, [sp, #4]
 213              		.loc 5 305 0
 214 0006 FFF7FEFF 		bl	chDbgCheckClassI
 215              		.loc 5 307 0
 216 000a 019B     		ldr	r3, [sp, #4]
 217 000c 9B68     		ldr	r3, [r3, #8]
 218 000e 002B     		cmp	r3, #0
 219 0010 14BF     		ite	ne
 220 0012 0023     		movne	r3, #0
 221 0014 0123     		moveq	r3, #1
 222 0016 DBB2     		uxtb	r3, r3
 223              		.loc 5 308 0
 224 0018 1846     		mov	r0, r3
 225 001a 03B0     		add	sp, sp, #12
 226              		@ sp needed
 227 001c 5DF804FB 		ldr	pc, [sp], #4
ARM GAS  /tmp/cccH9y3d.s 			page 5


 228              		.cfi_endproc
 229              	.LFE232:
 230              		.size	chIQIsEmptyI, .-chIQIsEmptyI
 231              		.section	.text.osalSysLock,"ax",%progbits
 232              		.align	2
 233              		.p2align 4,,15
 234              		.thumb
 235              		.thumb_func
 236              		.type	osalSysLock, %function
 237              	osalSysLock:
 238              	.LFB244:
 239              		.file 6 "/home/efe/ChibiOS/os/hal/osal/rt/osal.h"
 240              		.loc 6 491 0
 241              		.cfi_startproc
 242              		@ args = 0, pretend = 0, frame = 0
 243              		@ frame_needed = 0, uses_anonymous_args = 0
 244 0000 08B5     		push	{r3, lr}
 245              		.cfi_def_cfa_offset 8
 246              		.cfi_offset 3, -8
 247              		.cfi_offset 14, -4
 248              		.loc 6 493 0
 249 0002 FFF7FEFF 		bl	chSysLock
 250              		.loc 6 494 0
 251 0006 08BD     		pop	{r3, pc}
 252              		.cfi_endproc
 253              	.LFE244:
 254              		.size	osalSysLock, .-osalSysLock
 255 0008 AFF30080 		.section	.text.osalSysUnlock,"ax",%progbits
 255      AFF30080 
 256              		.align	2
 257              		.p2align 4,,15
 258              		.thumb
 259              		.thumb_func
 260              		.type	osalSysUnlock, %function
 261              	osalSysUnlock:
 262              	.LFB245:
 263              		.loc 6 502 0
 264              		.cfi_startproc
 265              		@ args = 0, pretend = 0, frame = 0
 266              		@ frame_needed = 0, uses_anonymous_args = 0
 267 0000 08B5     		push	{r3, lr}
 268              		.cfi_def_cfa_offset 8
 269              		.cfi_offset 3, -8
 270              		.cfi_offset 14, -4
 271              		.loc 6 504 0
 272 0002 FFF7FEFF 		bl	chSysUnlock
 273              		.loc 6 505 0
 274 0006 08BD     		pop	{r3, pc}
 275              		.cfi_endproc
 276              	.LFE245:
 277              		.size	osalSysUnlock, .-osalSysUnlock
 278 0008 AFF30080 		.section	.text.osalOsRescheduleS,"ax",%progbits
 278      AFF30080 
 279              		.align	2
 280              		.p2align 4,,15
 281              		.thumb
 282              		.thumb_func
ARM GAS  /tmp/cccH9y3d.s 			page 6


 283              		.type	osalOsRescheduleS, %function
 284              	osalOsRescheduleS:
 285              	.LFB252:
 286              		.loc 6 598 0
 287              		.cfi_startproc
 288              		@ args = 0, pretend = 0, frame = 0
 289              		@ frame_needed = 0, uses_anonymous_args = 0
 290 0000 08B5     		push	{r3, lr}
 291              		.cfi_def_cfa_offset 8
 292              		.cfi_offset 3, -8
 293              		.cfi_offset 14, -4
 294              		.loc 6 600 0
 295 0002 FFF7FEFF 		bl	chSchRescheduleS
 296              		.loc 6 601 0
 297 0006 08BD     		pop	{r3, pc}
 298              		.cfi_endproc
 299              	.LFE252:
 300              		.size	osalOsRescheduleS, .-osalOsRescheduleS
 301 0008 AFF30080 		.section	.text.osalEventObjectInit,"ax",%progbits
 301      AFF30080 
 302              		.align	2
 303              		.p2align 4,,15
 304              		.thumb
 305              		.thumb_func
 306              		.type	osalEventObjectInit, %function
 307              	osalEventObjectInit:
 308              	.LFB265:
 309              		.loc 6 821 0
 310              		.cfi_startproc
 311              		@ args = 0, pretend = 0, frame = 8
 312              		@ frame_needed = 0, uses_anonymous_args = 0
 313 0000 00B5     		push	{lr}
 314              		.cfi_def_cfa_offset 4
 315              		.cfi_offset 14, -4
 316 0002 83B0     		sub	sp, sp, #12
 317              		.cfi_def_cfa_offset 16
 318 0004 0190     		str	r0, [sp, #4]
 319              		.loc 6 823 0
 320 0006 0198     		ldr	r0, [sp, #4]
 321 0008 FFF7FEFF 		bl	chEvtObjectInit
 322              		.loc 6 824 0
 323 000c 03B0     		add	sp, sp, #12
 324              		@ sp needed
 325 000e 5DF804FB 		ldr	pc, [sp], #4
 326              		.cfi_endproc
 327              	.LFE265:
 328              		.size	osalEventObjectInit, .-osalEventObjectInit
 329 0012 00BFAFF3 		.section	.text.osalEventBroadcastFlagsI,"ax",%progbits
 329      0080AFF3 
 329      0080AFF3 
 329      0080
 330              		.align	2
 331              		.p2align 4,,15
 332              		.thumb
 333              		.thumb_func
 334              		.type	osalEventBroadcastFlagsI, %function
 335              	osalEventBroadcastFlagsI:
ARM GAS  /tmp/cccH9y3d.s 			page 7


 336              	.LFB266:
 337              		.loc 6 842 0
 338              		.cfi_startproc
 339              		@ args = 0, pretend = 0, frame = 8
 340              		@ frame_needed = 0, uses_anonymous_args = 0
 341 0000 00B5     		push	{lr}
 342              		.cfi_def_cfa_offset 4
 343              		.cfi_offset 14, -4
 344 0002 83B0     		sub	sp, sp, #12
 345              		.cfi_def_cfa_offset 16
 346 0004 0190     		str	r0, [sp, #4]
 347 0006 0091     		str	r1, [sp]
 348              		.loc 6 844 0
 349 0008 0198     		ldr	r0, [sp, #4]
 350 000a 0099     		ldr	r1, [sp]
 351 000c FFF7FEFF 		bl	chEvtBroadcastFlagsI
 352              		.loc 6 845 0
 353 0010 03B0     		add	sp, sp, #12
 354              		@ sp needed
 355 0012 5DF804FB 		ldr	pc, [sp], #4
 356              		.cfi_endproc
 357              	.LFE266:
 358              		.size	osalEventBroadcastFlagsI, .-osalEventBroadcastFlagsI
 359 0016 00BFAFF3 		.section	.text.write,"ax",%progbits
 359      0080AFF3 
 359      0080
 360              		.align	2
 361              		.p2align 4,,15
 362              		.thumb
 363              		.thumb_func
 364              		.type	write, %function
 365              	write:
 366              	.LFB271:
 367              		.file 7 "/home/efe/ChibiOS/os/hal/src/serial.c"
 368              		.loc 7 50 0
 369              		.cfi_startproc
 370              		@ args = 0, pretend = 0, frame = 16
 371              		@ frame_needed = 0, uses_anonymous_args = 0
 372 0000 00B5     		push	{lr}
 373              		.cfi_def_cfa_offset 4
 374              		.cfi_offset 14, -4
 375 0002 85B0     		sub	sp, sp, #20
 376              		.cfi_def_cfa_offset 24
 377 0004 0390     		str	r0, [sp, #12]
 378 0006 0291     		str	r1, [sp, #8]
 379 0008 0192     		str	r2, [sp, #4]
 380              		.loc 7 52 0
 381 000a 039B     		ldr	r3, [sp, #12]
 382 000c 3033     		adds	r3, r3, #48
 383 000e 1846     		mov	r0, r3
 384 0010 0299     		ldr	r1, [sp, #8]
 385 0012 019A     		ldr	r2, [sp, #4]
 386 0014 4FF0FF33 		mov	r3, #-1
 387 0018 FFF7FEFF 		bl	chOQWriteTimeout
 388 001c 0346     		mov	r3, r0
 389              		.loc 7 54 0
 390 001e 1846     		mov	r0, r3
ARM GAS  /tmp/cccH9y3d.s 			page 8


 391 0020 05B0     		add	sp, sp, #20
 392              		@ sp needed
 393 0022 5DF804FB 		ldr	pc, [sp], #4
 394              		.cfi_endproc
 395              	.LFE271:
 396              		.size	write, .-write
 397 0026 00BFAFF3 		.section	.text.read,"ax",%progbits
 397      0080AFF3 
 397      0080
 398              		.align	2
 399              		.p2align 4,,15
 400              		.thumb
 401              		.thumb_func
 402              		.type	read, %function
 403              	read:
 404              	.LFB272:
 405              		.loc 7 56 0
 406              		.cfi_startproc
 407              		@ args = 0, pretend = 0, frame = 16
 408              		@ frame_needed = 0, uses_anonymous_args = 0
 409 0000 00B5     		push	{lr}
 410              		.cfi_def_cfa_offset 4
 411              		.cfi_offset 14, -4
 412 0002 85B0     		sub	sp, sp, #20
 413              		.cfi_def_cfa_offset 24
 414 0004 0390     		str	r0, [sp, #12]
 415 0006 0291     		str	r1, [sp, #8]
 416 0008 0192     		str	r2, [sp, #4]
 417              		.loc 7 58 0
 418 000a 039B     		ldr	r3, [sp, #12]
 419 000c 0C33     		adds	r3, r3, #12
 420 000e 1846     		mov	r0, r3
 421 0010 0299     		ldr	r1, [sp, #8]
 422 0012 019A     		ldr	r2, [sp, #4]
 423 0014 4FF0FF33 		mov	r3, #-1
 424 0018 FFF7FEFF 		bl	chIQReadTimeout
 425 001c 0346     		mov	r3, r0
 426              		.loc 7 60 0
 427 001e 1846     		mov	r0, r3
 428 0020 05B0     		add	sp, sp, #20
 429              		@ sp needed
 430 0022 5DF804FB 		ldr	pc, [sp], #4
 431              		.cfi_endproc
 432              	.LFE272:
 433              		.size	read, .-read
 434              		.section	.text.put,"ax",%progbits
 435              		.align	2
 436              		.p2align 4,,15
 437              		.thumb
 438              		.thumb_func
 439              		.type	put, %function
 440              	put:
 441              	.LFB273:
 442              		.loc 7 62 0
 443              		.cfi_startproc
 444              		@ args = 0, pretend = 0, frame = 8
 445              		@ frame_needed = 0, uses_anonymous_args = 0
ARM GAS  /tmp/cccH9y3d.s 			page 9


 446 0000 00B5     		push	{lr}
 447              		.cfi_def_cfa_offset 4
 448              		.cfi_offset 14, -4
 449 0002 83B0     		sub	sp, sp, #12
 450              		.cfi_def_cfa_offset 16
 451 0004 0190     		str	r0, [sp, #4]
 452 0006 0B46     		mov	r3, r1
 453 0008 8DF80330 		strb	r3, [sp, #3]
 454              		.loc 7 64 0
 455 000c 019B     		ldr	r3, [sp, #4]
 456 000e 03F13002 		add	r2, r3, #48
 457 0012 9DF80330 		ldrb	r3, [sp, #3]	@ zero_extendqisi2
 458 0016 1046     		mov	r0, r2
 459 0018 1946     		mov	r1, r3
 460 001a 4FF0FF32 		mov	r2, #-1
 461 001e FFF7FEFF 		bl	chOQPutTimeout
 462 0022 0346     		mov	r3, r0
 463              		.loc 7 65 0
 464 0024 1846     		mov	r0, r3
 465 0026 03B0     		add	sp, sp, #12
 466              		@ sp needed
 467 0028 5DF804FB 		ldr	pc, [sp], #4
 468              		.cfi_endproc
 469              	.LFE273:
 470              		.size	put, .-put
 471 002c AFF30080 		.section	.text.get,"ax",%progbits
 472              		.align	2
 473              		.p2align 4,,15
 474              		.thumb
 475              		.thumb_func
 476              		.type	get, %function
 477              	get:
 478              	.LFB274:
 479              		.loc 7 67 0
 480              		.cfi_startproc
 481              		@ args = 0, pretend = 0, frame = 8
 482              		@ frame_needed = 0, uses_anonymous_args = 0
 483 0000 00B5     		push	{lr}
 484              		.cfi_def_cfa_offset 4
 485              		.cfi_offset 14, -4
 486 0002 83B0     		sub	sp, sp, #12
 487              		.cfi_def_cfa_offset 16
 488 0004 0190     		str	r0, [sp, #4]
 489              		.loc 7 69 0
 490 0006 019B     		ldr	r3, [sp, #4]
 491 0008 0C33     		adds	r3, r3, #12
 492 000a 1846     		mov	r0, r3
 493 000c 4FF0FF31 		mov	r1, #-1
 494 0010 FFF7FEFF 		bl	chIQGetTimeout
 495 0014 0346     		mov	r3, r0
 496              		.loc 7 70 0
 497 0016 1846     		mov	r0, r3
 498 0018 03B0     		add	sp, sp, #12
 499              		@ sp needed
 500 001a 5DF804FB 		ldr	pc, [sp], #4
 501              		.cfi_endproc
 502              	.LFE274:
ARM GAS  /tmp/cccH9y3d.s 			page 10


 503              		.size	get, .-get
 504 001e 00BF     		.section	.text.putt,"ax",%progbits
 505              		.align	2
 506              		.p2align 4,,15
 507              		.thumb
 508              		.thumb_func
 509              		.type	putt, %function
 510              	putt:
 511              	.LFB275:
 512              		.loc 7 72 0
 513              		.cfi_startproc
 514              		@ args = 0, pretend = 0, frame = 16
 515              		@ frame_needed = 0, uses_anonymous_args = 0
 516 0000 00B5     		push	{lr}
 517              		.cfi_def_cfa_offset 4
 518              		.cfi_offset 14, -4
 519 0002 85B0     		sub	sp, sp, #20
 520              		.cfi_def_cfa_offset 24
 521 0004 0390     		str	r0, [sp, #12]
 522 0006 0B46     		mov	r3, r1
 523 0008 0192     		str	r2, [sp, #4]
 524 000a 8DF80B30 		strb	r3, [sp, #11]
 525              		.loc 7 74 0
 526 000e 039B     		ldr	r3, [sp, #12]
 527 0010 03F13002 		add	r2, r3, #48
 528 0014 9DF80B30 		ldrb	r3, [sp, #11]	@ zero_extendqisi2
 529 0018 1046     		mov	r0, r2
 530 001a 1946     		mov	r1, r3
 531 001c 019A     		ldr	r2, [sp, #4]
 532 001e FFF7FEFF 		bl	chOQPutTimeout
 533 0022 0346     		mov	r3, r0
 534              		.loc 7 75 0
 535 0024 1846     		mov	r0, r3
 536 0026 05B0     		add	sp, sp, #20
 537              		@ sp needed
 538 0028 5DF804FB 		ldr	pc, [sp], #4
 539              		.cfi_endproc
 540              	.LFE275:
 541              		.size	putt, .-putt
 542 002c AFF30080 		.section	.text.gett,"ax",%progbits
 543              		.align	2
 544              		.p2align 4,,15
 545              		.thumb
 546              		.thumb_func
 547              		.type	gett, %function
 548              	gett:
 549              	.LFB276:
 550              		.loc 7 77 0
 551              		.cfi_startproc
 552              		@ args = 0, pretend = 0, frame = 8
 553              		@ frame_needed = 0, uses_anonymous_args = 0
 554 0000 00B5     		push	{lr}
 555              		.cfi_def_cfa_offset 4
 556              		.cfi_offset 14, -4
 557 0002 83B0     		sub	sp, sp, #12
 558              		.cfi_def_cfa_offset 16
 559 0004 0190     		str	r0, [sp, #4]
ARM GAS  /tmp/cccH9y3d.s 			page 11


 560 0006 0091     		str	r1, [sp]
 561              		.loc 7 79 0
 562 0008 019B     		ldr	r3, [sp, #4]
 563 000a 0C33     		adds	r3, r3, #12
 564 000c 1846     		mov	r0, r3
 565 000e 0099     		ldr	r1, [sp]
 566 0010 FFF7FEFF 		bl	chIQGetTimeout
 567 0014 0346     		mov	r3, r0
 568              		.loc 7 80 0
 569 0016 1846     		mov	r0, r3
 570 0018 03B0     		add	sp, sp, #12
 571              		@ sp needed
 572 001a 5DF804FB 		ldr	pc, [sp], #4
 573              		.cfi_endproc
 574              	.LFE276:
 575              		.size	gett, .-gett
 576 001e 00BF     		.section	.text.writet,"ax",%progbits
 577              		.align	2
 578              		.p2align 4,,15
 579              		.thumb
 580              		.thumb_func
 581              		.type	writet, %function
 582              	writet:
 583              	.LFB277:
 584              		.loc 7 82 0
 585              		.cfi_startproc
 586              		@ args = 0, pretend = 0, frame = 16
 587              		@ frame_needed = 0, uses_anonymous_args = 0
 588 0000 00B5     		push	{lr}
 589              		.cfi_def_cfa_offset 4
 590              		.cfi_offset 14, -4
 591 0002 85B0     		sub	sp, sp, #20
 592              		.cfi_def_cfa_offset 24
 593 0004 0390     		str	r0, [sp, #12]
 594 0006 0291     		str	r1, [sp, #8]
 595 0008 0192     		str	r2, [sp, #4]
 596 000a 0093     		str	r3, [sp]
 597              		.loc 7 84 0
 598 000c 039B     		ldr	r3, [sp, #12]
 599 000e 3033     		adds	r3, r3, #48
 600 0010 1846     		mov	r0, r3
 601 0012 0299     		ldr	r1, [sp, #8]
 602 0014 019A     		ldr	r2, [sp, #4]
 603 0016 009B     		ldr	r3, [sp]
 604 0018 FFF7FEFF 		bl	chOQWriteTimeout
 605 001c 0346     		mov	r3, r0
 606              		.loc 7 85 0
 607 001e 1846     		mov	r0, r3
 608 0020 05B0     		add	sp, sp, #20
 609              		@ sp needed
 610 0022 5DF804FB 		ldr	pc, [sp], #4
 611              		.cfi_endproc
 612              	.LFE277:
 613              		.size	writet, .-writet
 614 0026 00BFAFF3 		.section	.text.readt,"ax",%progbits
 614      0080AFF3 
 614      0080
ARM GAS  /tmp/cccH9y3d.s 			page 12


 615              		.align	2
 616              		.p2align 4,,15
 617              		.thumb
 618              		.thumb_func
 619              		.type	readt, %function
 620              	readt:
 621              	.LFB278:
 622              		.loc 7 87 0
 623              		.cfi_startproc
 624              		@ args = 0, pretend = 0, frame = 16
 625              		@ frame_needed = 0, uses_anonymous_args = 0
 626 0000 00B5     		push	{lr}
 627              		.cfi_def_cfa_offset 4
 628              		.cfi_offset 14, -4
 629 0002 85B0     		sub	sp, sp, #20
 630              		.cfi_def_cfa_offset 24
 631 0004 0390     		str	r0, [sp, #12]
 632 0006 0291     		str	r1, [sp, #8]
 633 0008 0192     		str	r2, [sp, #4]
 634 000a 0093     		str	r3, [sp]
 635              		.loc 7 89 0
 636 000c 039B     		ldr	r3, [sp, #12]
 637 000e 0C33     		adds	r3, r3, #12
 638 0010 1846     		mov	r0, r3
 639 0012 0299     		ldr	r1, [sp, #8]
 640 0014 019A     		ldr	r2, [sp, #4]
 641 0016 009B     		ldr	r3, [sp]
 642 0018 FFF7FEFF 		bl	chIQReadTimeout
 643 001c 0346     		mov	r3, r0
 644              		.loc 7 90 0
 645 001e 1846     		mov	r0, r3
 646 0020 05B0     		add	sp, sp, #20
 647              		@ sp needed
 648 0022 5DF804FB 		ldr	pc, [sp], #4
 649              		.cfi_endproc
 650              	.LFE278:
 651              		.size	readt, .-readt
 652 0026 00BFAFF3 		.section	.rodata.vmt,"a",%progbits
 652      0080AFF3 
 652      0080
 653              		.align	2
 654              		.type	vmt, %object
 655              		.size	vmt, 32
 656              	vmt:
 657 0000 00000000 		.word	write
 658 0004 00000000 		.word	read
 659 0008 00000000 		.word	put
 660 000c 00000000 		.word	get
 661 0010 00000000 		.word	putt
 662 0014 00000000 		.word	gett
 663 0018 00000000 		.word	writet
 664 001c 00000000 		.word	readt
 665              		.section	.text.sdInit,"ax",%progbits
 666              		.align	2
 667              		.p2align 4,,15
 668              		.global	sdInit
 669              		.thumb
ARM GAS  /tmp/cccH9y3d.s 			page 13


 670              		.thumb_func
 671              		.type	sdInit, %function
 672              	sdInit:
 673              	.LFB279:
 674              		.loc 7 108 0
 675              		.cfi_startproc
 676              		@ args = 0, pretend = 0, frame = 0
 677              		@ frame_needed = 0, uses_anonymous_args = 0
 678 0000 08B5     		push	{r3, lr}
 679              		.cfi_def_cfa_offset 8
 680              		.cfi_offset 3, -8
 681              		.cfi_offset 14, -4
 682              		.loc 7 110 0
 683 0002 FFF7FEFF 		bl	sd_lld_init
 684              		.loc 7 111 0
 685 0006 08BD     		pop	{r3, pc}
 686              		.cfi_endproc
 687              	.LFE279:
 688              		.size	sdInit, .-sdInit
 689 0008 AFF30080 		.section	.text.sdObjectInit,"ax",%progbits
 689      AFF30080 
 690              		.align	2
 691              		.p2align 4,,15
 692              		.global	sdObjectInit
 693              		.thumb
 694              		.thumb_func
 695              		.type	sdObjectInit, %function
 696              	sdObjectInit:
 697              	.LFB280:
 698              		.loc 7 128 0
 699              		.cfi_startproc
 700              		@ args = 0, pretend = 0, frame = 16
 701              		@ frame_needed = 0, uses_anonymous_args = 0
 702 0000 00B5     		push	{lr}
 703              		.cfi_def_cfa_offset 4
 704              		.cfi_offset 14, -4
 705 0002 87B0     		sub	sp, sp, #28
 706              		.cfi_def_cfa_offset 32
 707 0004 0590     		str	r0, [sp, #20]
 708 0006 0491     		str	r1, [sp, #16]
 709 0008 0392     		str	r2, [sp, #12]
 710              		.loc 7 130 0
 711 000a 059B     		ldr	r3, [sp, #20]
 712 000c 134A     		ldr	r2, .L34
 713 000e 1A60     		str	r2, [r3]
 714              		.loc 7 131 0
 715 0010 059B     		ldr	r3, [sp, #20]
 716 0012 0433     		adds	r3, r3, #4
 717 0014 1846     		mov	r0, r3
 718 0016 FFF7FEFF 		bl	osalEventObjectInit
 719              		.loc 7 132 0
 720 001a 059B     		ldr	r3, [sp, #20]
 721 001c 0122     		movs	r2, #1
 722 001e 1A72     		strb	r2, [r3, #8]
 723              		.loc 7 133 0
 724 0020 059B     		ldr	r3, [sp, #20]
 725 0022 03F10C02 		add	r2, r3, #12
ARM GAS  /tmp/cccH9y3d.s 			page 14


 726 0026 059B     		ldr	r3, [sp, #20]
 727 0028 5433     		adds	r3, r3, #84
 728 002a 0599     		ldr	r1, [sp, #20]
 729 002c 0091     		str	r1, [sp]
 730 002e 1046     		mov	r0, r2
 731 0030 1946     		mov	r1, r3
 732 0032 2022     		movs	r2, #32
 733 0034 049B     		ldr	r3, [sp, #16]
 734 0036 FFF7FEFF 		bl	chIQObjectInit
 735              		.loc 7 134 0
 736 003a 059B     		ldr	r3, [sp, #20]
 737 003c 03F13002 		add	r2, r3, #48
 738 0040 059B     		ldr	r3, [sp, #20]
 739 0042 7433     		adds	r3, r3, #116
 740 0044 0599     		ldr	r1, [sp, #20]
 741 0046 0091     		str	r1, [sp]
 742 0048 1046     		mov	r0, r2
 743 004a 1946     		mov	r1, r3
 744 004c 2022     		movs	r2, #32
 745 004e 039B     		ldr	r3, [sp, #12]
 746 0050 FFF7FEFF 		bl	chOQObjectInit
 747              		.loc 7 135 0
 748 0054 07B0     		add	sp, sp, #28
 749              		@ sp needed
 750 0056 5DF804FB 		ldr	pc, [sp], #4
 751              	.L35:
 752 005a 00BF     		.align	2
 753              	.L34:
 754 005c 00000000 		.word	vmt
 755              		.cfi_endproc
 756              	.LFE280:
 757              		.size	sdObjectInit, .-sdObjectInit
 758              		.section	.text.sdStart,"ax",%progbits
 759              		.align	2
 760              		.p2align 4,,15
 761              		.global	sdStart
 762              		.thumb
 763              		.thumb_func
 764              		.type	sdStart, %function
 765              	sdStart:
 766              	.LFB281:
 767              		.loc 7 147 0
 768              		.cfi_startproc
 769              		@ args = 0, pretend = 0, frame = 8
 770              		@ frame_needed = 0, uses_anonymous_args = 0
 771 0000 00B5     		push	{lr}
 772              		.cfi_def_cfa_offset 4
 773              		.cfi_offset 14, -4
 774 0002 83B0     		sub	sp, sp, #12
 775              		.cfi_def_cfa_offset 16
 776 0004 0190     		str	r0, [sp, #4]
 777 0006 0091     		str	r1, [sp]
 778              		.loc 7 149 0
 779 0008 019B     		ldr	r3, [sp, #4]
 780 000a 002B     		cmp	r3, #0
 781 000c 02D1     		bne	.L37
 782              		.loc 7 149 0 is_stmt 0 discriminator 1
ARM GAS  /tmp/cccH9y3d.s 			page 15


 783 000e 0E48     		ldr	r0, .L39
 784 0010 FFF7FEFF 		bl	chSysHalt
 785              	.L37:
 786              		.loc 7 151 0 is_stmt 1
 787 0014 FFF7FEFF 		bl	osalSysLock
 788              		.loc 7 152 0
 789 0018 019B     		ldr	r3, [sp, #4]
 790 001a 1B7A     		ldrb	r3, [r3, #8]	@ zero_extendqisi2
 791 001c 012B     		cmp	r3, #1
 792 001e 06D0     		beq	.L38
 793              		.loc 7 152 0 is_stmt 0 discriminator 1
 794 0020 019B     		ldr	r3, [sp, #4]
 795 0022 1B7A     		ldrb	r3, [r3, #8]	@ zero_extendqisi2
 796 0024 022B     		cmp	r3, #2
 797 0026 02D0     		beq	.L38
 798 0028 0748     		ldr	r0, .L39
 799 002a FFF7FEFF 		bl	chSysHalt
 800              	.L38:
 801              		.loc 7 154 0 is_stmt 1
 802 002e 0198     		ldr	r0, [sp, #4]
 803 0030 0099     		ldr	r1, [sp]
 804 0032 FFF7FEFF 		bl	sd_lld_start
 805              		.loc 7 155 0
 806 0036 019B     		ldr	r3, [sp, #4]
 807 0038 0222     		movs	r2, #2
 808 003a 1A72     		strb	r2, [r3, #8]
 809              		.loc 7 156 0
 810 003c FFF7FEFF 		bl	osalSysUnlock
 811              		.loc 7 157 0
 812 0040 03B0     		add	sp, sp, #12
 813              		@ sp needed
 814 0042 5DF804FB 		ldr	pc, [sp], #4
 815              	.L40:
 816 0046 00BF     		.align	2
 817              	.L39:
 818 0048 00000000 		.word	__func__.7188
 819              		.cfi_endproc
 820              	.LFE281:
 821              		.size	sdStart, .-sdStart
 822 004c AFF30080 		.section	.text.sdStop,"ax",%progbits
 823              		.align	2
 824              		.p2align 4,,15
 825              		.global	sdStop
 826              		.thumb
 827              		.thumb_func
 828              		.type	sdStop, %function
 829              	sdStop:
 830              	.LFB282:
 831              		.loc 7 168 0
 832              		.cfi_startproc
 833              		@ args = 0, pretend = 0, frame = 8
 834              		@ frame_needed = 0, uses_anonymous_args = 0
 835 0000 00B5     		push	{lr}
 836              		.cfi_def_cfa_offset 4
 837              		.cfi_offset 14, -4
 838 0002 83B0     		sub	sp, sp, #12
 839              		.cfi_def_cfa_offset 16
ARM GAS  /tmp/cccH9y3d.s 			page 16


 840 0004 0190     		str	r0, [sp, #4]
 841              		.loc 7 170 0
 842 0006 019B     		ldr	r3, [sp, #4]
 843 0008 002B     		cmp	r3, #0
 844 000a 02D1     		bne	.L42
 845              		.loc 7 170 0 is_stmt 0 discriminator 1
 846 000c 1348     		ldr	r0, .L44
 847 000e FFF7FEFF 		bl	chSysHalt
 848              	.L42:
 849              		.loc 7 172 0 is_stmt 1
 850 0012 FFF7FEFF 		bl	osalSysLock
 851              		.loc 7 173 0
 852 0016 019B     		ldr	r3, [sp, #4]
 853 0018 1B7A     		ldrb	r3, [r3, #8]	@ zero_extendqisi2
 854 001a 012B     		cmp	r3, #1
 855 001c 06D0     		beq	.L43
 856              		.loc 7 173 0 is_stmt 0 discriminator 1
 857 001e 019B     		ldr	r3, [sp, #4]
 858 0020 1B7A     		ldrb	r3, [r3, #8]	@ zero_extendqisi2
 859 0022 022B     		cmp	r3, #2
 860 0024 02D0     		beq	.L43
 861 0026 0D48     		ldr	r0, .L44
 862 0028 FFF7FEFF 		bl	chSysHalt
 863              	.L43:
 864              		.loc 7 175 0 is_stmt 1
 865 002c 0198     		ldr	r0, [sp, #4]
 866 002e FFF7FEFF 		bl	sd_lld_stop
 867              		.loc 7 176 0
 868 0032 019B     		ldr	r3, [sp, #4]
 869 0034 0122     		movs	r2, #1
 870 0036 1A72     		strb	r2, [r3, #8]
 871              		.loc 7 177 0
 872 0038 019B     		ldr	r3, [sp, #4]
 873 003a 3033     		adds	r3, r3, #48
 874 003c 1846     		mov	r0, r3
 875 003e FFF7FEFF 		bl	chOQResetI
 876              		.loc 7 178 0
 877 0042 019B     		ldr	r3, [sp, #4]
 878 0044 0C33     		adds	r3, r3, #12
 879 0046 1846     		mov	r0, r3
 880 0048 FFF7FEFF 		bl	chIQResetI
 881              		.loc 7 179 0
 882 004c FFF7FEFF 		bl	osalOsRescheduleS
 883              		.loc 7 180 0
 884 0050 FFF7FEFF 		bl	osalSysUnlock
 885              		.loc 7 181 0
 886 0054 03B0     		add	sp, sp, #12
 887              		@ sp needed
 888 0056 5DF804FB 		ldr	pc, [sp], #4
 889              	.L45:
 890 005a 00BF     		.align	2
 891              	.L44:
 892 005c 00000000 		.word	__func__.7192
 893              		.cfi_endproc
 894              	.LFE282:
 895              		.size	sdStop, .-sdStop
 896              		.section	.text.sdIncomingDataI,"ax",%progbits
ARM GAS  /tmp/cccH9y3d.s 			page 17


 897              		.align	2
 898              		.p2align 4,,15
 899              		.global	sdIncomingDataI
 900              		.thumb
 901              		.thumb_func
 902              		.type	sdIncomingDataI, %function
 903              	sdIncomingDataI:
 904              	.LFB283:
 905              		.loc 7 199 0
 906              		.cfi_startproc
 907              		@ args = 0, pretend = 0, frame = 8
 908              		@ frame_needed = 0, uses_anonymous_args = 0
 909 0000 00B5     		push	{lr}
 910              		.cfi_def_cfa_offset 4
 911              		.cfi_offset 14, -4
 912 0002 83B0     		sub	sp, sp, #12
 913              		.cfi_def_cfa_offset 16
 914 0004 0190     		str	r0, [sp, #4]
 915 0006 0B46     		mov	r3, r1
 916 0008 8DF80330 		strb	r3, [sp, #3]
 917              		.loc 7 201 0
 918 000c FFF7FEFF 		bl	chDbgCheckClassI
 919              		.loc 7 202 0
 920 0010 019B     		ldr	r3, [sp, #4]
 921 0012 002B     		cmp	r3, #0
 922 0014 02D1     		bne	.L47
 923              		.loc 7 202 0 is_stmt 0 discriminator 1
 924 0016 1348     		ldr	r0, .L50
 925 0018 FFF7FEFF 		bl	chSysHalt
 926              	.L47:
 927              		.loc 7 204 0 is_stmt 1
 928 001c 019B     		ldr	r3, [sp, #4]
 929 001e 0C33     		adds	r3, r3, #12
 930 0020 1846     		mov	r0, r3
 931 0022 FFF7FEFF 		bl	chIQIsEmptyI
 932 0026 0346     		mov	r3, r0
 933 0028 002B     		cmp	r3, #0
 934 002a 05D0     		beq	.L48
 935              		.loc 7 205 0
 936 002c 019B     		ldr	r3, [sp, #4]
 937 002e 0433     		adds	r3, r3, #4
 938 0030 1846     		mov	r0, r3
 939 0032 0421     		movs	r1, #4
 940 0034 FFF7FEFF 		bl	osalEventBroadcastFlagsI
 941              	.L48:
 942              		.loc 7 206 0
 943 0038 019B     		ldr	r3, [sp, #4]
 944 003a 03F10C02 		add	r2, r3, #12
 945 003e 9DF80330 		ldrb	r3, [sp, #3]	@ zero_extendqisi2
 946 0042 1046     		mov	r0, r2
 947 0044 1946     		mov	r1, r3
 948 0046 FFF7FEFF 		bl	chIQPutI
 949 004a 0346     		mov	r3, r0
 950 004c 002B     		cmp	r3, #0
 951 004e 05DA     		bge	.L46
 952              		.loc 7 207 0
 953 0050 019B     		ldr	r3, [sp, #4]
ARM GAS  /tmp/cccH9y3d.s 			page 18


 954 0052 0433     		adds	r3, r3, #4
 955 0054 1846     		mov	r0, r3
 956 0056 8021     		movs	r1, #128
 957 0058 FFF7FEFF 		bl	osalEventBroadcastFlagsI
 958              	.L46:
 959              		.loc 7 208 0
 960 005c 03B0     		add	sp, sp, #12
 961              		@ sp needed
 962 005e 5DF804FB 		ldr	pc, [sp], #4
 963              	.L51:
 964 0062 00BF     		.align	2
 965              	.L50:
 966 0064 00000000 		.word	__func__.7197
 967              		.cfi_endproc
 968              	.LFE283:
 969              		.size	sdIncomingDataI, .-sdIncomingDataI
 970 0068 AFF30080 		.section	.text.sdRequestDataI,"ax",%progbits
 970      AFF30080 
 971              		.align	2
 972              		.p2align 4,,15
 973              		.global	sdRequestDataI
 974              		.thumb
 975              		.thumb_func
 976              		.type	sdRequestDataI, %function
 977              	sdRequestDataI:
 978              	.LFB284:
 979              		.loc 7 225 0
 980              		.cfi_startproc
 981              		@ args = 0, pretend = 0, frame = 16
 982              		@ frame_needed = 0, uses_anonymous_args = 0
 983 0000 00B5     		push	{lr}
 984              		.cfi_def_cfa_offset 4
 985              		.cfi_offset 14, -4
 986 0002 85B0     		sub	sp, sp, #20
 987              		.cfi_def_cfa_offset 24
 988 0004 0190     		str	r0, [sp, #4]
 989              		.loc 7 228 0
 990 0006 FFF7FEFF 		bl	chDbgCheckClassI
 991              		.loc 7 229 0
 992 000a 019B     		ldr	r3, [sp, #4]
 993 000c 002B     		cmp	r3, #0
 994 000e 02D1     		bne	.L53
 995              		.loc 7 229 0 is_stmt 0 discriminator 1
 996 0010 0B48     		ldr	r0, .L56
 997 0012 FFF7FEFF 		bl	chSysHalt
 998              	.L53:
 999              		.loc 7 231 0 is_stmt 1
 1000 0016 019B     		ldr	r3, [sp, #4]
 1001 0018 3033     		adds	r3, r3, #48
 1002 001a 1846     		mov	r0, r3
 1003 001c FFF7FEFF 		bl	chOQGetI
 1004 0020 0390     		str	r0, [sp, #12]
 1005              		.loc 7 232 0
 1006 0022 039B     		ldr	r3, [sp, #12]
 1007 0024 002B     		cmp	r3, #0
 1008 0026 05DA     		bge	.L54
 1009              		.loc 7 233 0
ARM GAS  /tmp/cccH9y3d.s 			page 19


 1010 0028 019B     		ldr	r3, [sp, #4]
 1011 002a 0433     		adds	r3, r3, #4
 1012 002c 1846     		mov	r0, r3
 1013 002e 0821     		movs	r1, #8
 1014 0030 FFF7FEFF 		bl	osalEventBroadcastFlagsI
 1015              	.L54:
 1016              		.loc 7 234 0
 1017 0034 039B     		ldr	r3, [sp, #12]
 1018              		.loc 7 235 0
 1019 0036 1846     		mov	r0, r3
 1020 0038 05B0     		add	sp, sp, #20
 1021              		@ sp needed
 1022 003a 5DF804FB 		ldr	pc, [sp], #4
 1023              	.L57:
 1024 003e 00BF     		.align	2
 1025              	.L56:
 1026 0040 00000000 		.word	__func__.7202
 1027              		.cfi_endproc
 1028              	.LFE284:
 1029              		.size	sdRequestDataI, .-sdRequestDataI
 1030 0044 AFF30080 		.section	.rodata.__func__.7188,"a",%progbits
 1030      AFF30080 
 1030      AFF30080 
 1031              		.align	2
 1032              		.type	__func__.7188, %object
 1033              		.size	__func__.7188, 8
 1034              	__func__.7188:
 1035 0000 73645374 		.ascii	"sdStart\000"
 1035      61727400 
 1036              		.section	.rodata.__func__.5925,"a",%progbits
 1037              		.align	2
 1038              		.type	__func__.5925, %object
 1039              		.size	__func__.5925, 12
 1040              	__func__.5925:
 1041 0000 63685379 		.ascii	"chSysUnlock\000"
 1041      73556E6C 
 1041      6F636B00 
 1042              		.section	.rodata.__func__.7192,"a",%progbits
 1043              		.align	2
 1044              		.type	__func__.7192, %object
 1045              		.size	__func__.7192, 7
 1046              	__func__.7192:
 1047 0000 73645374 		.ascii	"sdStop\000"
 1047      6F7000
 1048 0007 00       		.section	.rodata.__func__.7197,"a",%progbits
 1049              		.align	2
 1050              		.type	__func__.7197, %object
 1051              		.size	__func__.7197, 16
 1052              	__func__.7197:
 1053 0000 7364496E 		.ascii	"sdIncomingDataI\000"
 1053      636F6D69 
 1053      6E674461 
 1053      74614900 
 1054              		.section	.rodata.__func__.7202,"a",%progbits
 1055              		.align	2
 1056              		.type	__func__.7202, %object
 1057              		.size	__func__.7202, 15
ARM GAS  /tmp/cccH9y3d.s 			page 20


 1058              	__func__.7202:
 1059 0000 73645265 		.ascii	"sdRequestDataI\000"
 1059      71756573 
 1059      74446174 
 1059      614900
 1060 000f 00       		.text
 1061              	.Letext0:
 1062              		.file 8 "/usr/lib/gcc/arm-none-eabi/4.8/include/stddef.h"
 1063              		.file 9 "/usr/include/newlib/machine/_default_types.h"
 1064              		.file 10 "/usr/include/newlib/stdint.h"
 1065              		.file 11 "/home/efe/ChibiOS/os/rt/ports/ARMCMx/compilers/GCC/chtypes.h"
 1066              		.file 12 "/home/efe/ChibiOS/os/rt/include/chsystypes.h"
 1067              		.file 13 "/home/efe/ChibiOS/os/rt/include/chschd.h"
 1068              		.file 14 "/home/efe/ChibiOS/os/ext/CMSIS/ST/stm32f407xx.h"
 1069              		.file 15 "/home/efe/ChibiOS/os/rt/ports/ARMCMx/chcore.h"
 1070              		.file 16 "/home/efe/ChibiOS/os/rt/include/chdebug.h"
 1071              		.file 17 "/home/efe/ChibiOS/os/rt/include/chtm.h"
 1072              		.file 18 "/home/efe/ChibiOS/os/rt/include/chstats.h"
 1073              		.file 19 "/home/efe/ChibiOS/os/rt/include/chsem.h"
 1074              		.file 20 "/home/efe/ChibiOS/os/rt/include/chmtx.h"
 1075              		.file 21 "/home/efe/ChibiOS/os/hal/include/serial.h"
 1076              		.file 22 "/home/efe/ChibiOS/os/hal/ports/STM32/LLD/USARTv1/serial_lld.h"
 1077              		.file 23 "/home/efe/ChibiOS/os/ext/CMSIS/include/core_cm4.h"