ARM GAS  /tmp/ccoA48Dc.s 			page 1


   1              		.syntax unified
   2              		.cpu cortex-m4
   3              		.fpu softvfp
   4              		.eabi_attribute 20, 1
   5              		.eabi_attribute 21, 1
   6              		.eabi_attribute 23, 3
   7              		.eabi_attribute 24, 1
   8              		.eabi_attribute 25, 1
   9              		.eabi_attribute 26, 1
  10              		.eabi_attribute 30, 6
  11              		.eabi_attribute 34, 1
  12              		.eabi_attribute 18, 4
  13              		.thumb
  14              		.file	"serial_lld.c"
  15              		.text
  16              	.Ltext0:
  17              		.cfi_sections	.debug_frame
  18              		.section	.text.port_lock,"ax",%progbits
  19              		.align	2
  20              		.p2align 4,,15
  21              		.thumb
  22              		.thumb_func
  23              		.type	port_lock, %function
  24              	port_lock:
  25              	.LFB127:
  26              		.file 1 "/home/efe/ChibiOS/os/rt/ports/ARMCMx/chcore_v7m.h"
  27              		.loc 1 456 0
  28              		.cfi_startproc
  29              		@ args = 0, pretend = 0, frame = 8
  30              		@ frame_needed = 0, uses_anonymous_args = 0
  31              		@ link register save eliminated.
  32 0000 82B0     		sub	sp, sp, #8
  33              		.cfi_def_cfa_offset 8
  34 0002 2023     		movs	r3, #32
  35 0004 0193     		str	r3, [sp, #4]
  36              	.LBB6:
  37              	.LBB7:
  38              		.file 2 "/home/efe/ChibiOS/os/ext/CMSIS/include/core_cmFunc.h"
  39              		.loc 2 548 0
  40 0006 019B     		ldr	r3, [sp, #4]
  41              	@ 548 "/home/efe/ChibiOS/os/ext/CMSIS/include/core_cmFunc.h" 1
  42 0008 83F31188 		MSR basepri, r3
  43              	@ 0 "" 2
  44              		.thumb
  45              	.LBE7:
  46              	.LBE6:
  47              		.loc 1 463 0
  48 000c 02B0     		add	sp, sp, #8
  49              		@ sp needed
  50 000e 7047     		bx	lr
  51              		.cfi_endproc
  52              	.LFE127:
  53              		.size	port_lock, .-port_lock
  54              		.section	.text.port_unlock,"ax",%progbits
  55              		.align	2
  56              		.p2align 4,,15
  57              		.thumb
ARM GAS  /tmp/ccoA48Dc.s 			page 2


  58              		.thumb_func
  59              		.type	port_unlock, %function
  60              	port_unlock:
  61              	.LFB128:
  62              		.loc 1 470 0
  63              		.cfi_startproc
  64              		@ args = 0, pretend = 0, frame = 8
  65              		@ frame_needed = 0, uses_anonymous_args = 0
  66              		@ link register save eliminated.
  67 0000 82B0     		sub	sp, sp, #8
  68              		.cfi_def_cfa_offset 8
  69 0002 0023     		movs	r3, #0
  70 0004 0193     		str	r3, [sp, #4]
  71              	.LBB8:
  72              	.LBB9:
  73              		.loc 2 548 0
  74 0006 019B     		ldr	r3, [sp, #4]
  75              	@ 548 "/home/efe/ChibiOS/os/ext/CMSIS/include/core_cmFunc.h" 1
  76 0008 83F31188 		MSR basepri, r3
  77              	@ 0 "" 2
  78              		.thumb
  79              	.LBE9:
  80              	.LBE8:
  81              		.loc 1 477 0
  82 000c 02B0     		add	sp, sp, #8
  83              		@ sp needed
  84 000e 7047     		bx	lr
  85              		.cfi_endproc
  86              	.LFE128:
  87              		.size	port_unlock, .-port_unlock
  88              		.section	.text.port_lock_from_isr,"ax",%progbits
  89              		.align	2
  90              		.p2align 4,,15
  91              		.thumb
  92              		.thumb_func
  93              		.type	port_lock_from_isr, %function
  94              	port_lock_from_isr:
  95              	.LFB129:
  96              		.loc 1 485 0
  97              		.cfi_startproc
  98              		@ args = 0, pretend = 0, frame = 0
  99              		@ frame_needed = 0, uses_anonymous_args = 0
 100 0000 08B5     		push	{r3, lr}
 101              		.cfi_def_cfa_offset 8
 102              		.cfi_offset 3, -8
 103              		.cfi_offset 14, -4
 104              		.loc 1 487 0
 105 0002 FFF7FEFF 		bl	port_lock
 106              		.loc 1 488 0
 107 0006 08BD     		pop	{r3, pc}
 108              		.cfi_endproc
 109              	.LFE129:
 110              		.size	port_lock_from_isr, .-port_lock_from_isr
 111 0008 AFF30080 		.section	.text.port_unlock_from_isr,"ax",%progbits
 111      AFF30080 
 112              		.align	2
 113              		.p2align 4,,15
ARM GAS  /tmp/ccoA48Dc.s 			page 3


 114              		.thumb
 115              		.thumb_func
 116              		.type	port_unlock_from_isr, %function
 117              	port_unlock_from_isr:
 118              	.LFB130:
 119              		.loc 1 496 0
 120              		.cfi_startproc
 121              		@ args = 0, pretend = 0, frame = 0
 122              		@ frame_needed = 0, uses_anonymous_args = 0
 123 0000 08B5     		push	{r3, lr}
 124              		.cfi_def_cfa_offset 8
 125              		.cfi_offset 3, -8
 126              		.cfi_offset 14, -4
 127              		.loc 1 498 0
 128 0002 FFF7FEFF 		bl	port_unlock
 129              		.loc 1 499 0
 130 0006 08BD     		pop	{r3, pc}
 131              		.cfi_endproc
 132              	.LFE130:
 133              		.size	port_unlock_from_isr, .-port_unlock_from_isr
 134 0008 AFF30080 		.section	.text.chSysLockFromISR,"ax",%progbits
 134      AFF30080 
 135              		.align	2
 136              		.p2align 4,,15
 137              		.thumb
 138              		.thumb_func
 139              		.type	chSysLockFromISR, %function
 140              	chSysLockFromISR:
 141              	.LFB169:
 142              		.file 3 "/home/efe/ChibiOS/os/rt/include/chsys.h"
 143              		.loc 3 386 0
 144              		.cfi_startproc
 145              		@ args = 0, pretend = 0, frame = 0
 146              		@ frame_needed = 0, uses_anonymous_args = 0
 147 0000 08B5     		push	{r3, lr}
 148              		.cfi_def_cfa_offset 8
 149              		.cfi_offset 3, -8
 150              		.cfi_offset 14, -4
 151              		.loc 3 388 0
 152 0002 FFF7FEFF 		bl	port_lock_from_isr
 153              		.loc 3 389 0
 154 0006 FFF7FEFF 		bl	_stats_start_measure_crit_isr
 155              		.loc 3 390 0
 156 000a FFF7FEFF 		bl	_dbg_check_lock_from_isr
 157              		.loc 3 391 0
 158 000e 08BD     		pop	{r3, pc}
 159              		.cfi_endproc
 160              	.LFE169:
 161              		.size	chSysLockFromISR, .-chSysLockFromISR
 162              		.section	.text.chSysUnlockFromISR,"ax",%progbits
 163              		.align	2
 164              		.p2align 4,,15
 165              		.thumb
 166              		.thumb_func
 167              		.type	chSysUnlockFromISR, %function
 168              	chSysUnlockFromISR:
 169              	.LFB170:
ARM GAS  /tmp/ccoA48Dc.s 			page 4


 170              		.loc 3 406 0
 171              		.cfi_startproc
 172              		@ args = 0, pretend = 0, frame = 0
 173              		@ frame_needed = 0, uses_anonymous_args = 0
 174 0000 08B5     		push	{r3, lr}
 175              		.cfi_def_cfa_offset 8
 176              		.cfi_offset 3, -8
 177              		.cfi_offset 14, -4
 178              		.loc 3 408 0
 179 0002 FFF7FEFF 		bl	_dbg_check_unlock_from_isr
 180              		.loc 3 409 0
 181 0006 FFF7FEFF 		bl	_stats_stop_measure_crit_isr
 182              		.loc 3 410 0
 183 000a FFF7FEFF 		bl	port_unlock_from_isr
 184              		.loc 3 411 0
 185 000e 08BD     		pop	{r3, pc}
 186              		.cfi_endproc
 187              	.LFE170:
 188              		.size	chSysUnlockFromISR, .-chSysUnlockFromISR
 189              		.section	.text.chOQIsEmptyI,"ax",%progbits
 190              		.align	2
 191              		.p2align 4,,15
 192              		.thumb
 193              		.thumb_func
 194              		.type	chOQIsEmptyI, %function
 195              	chOQIsEmptyI:
 196              	.LFB237:
 197              		.file 4 "/home/efe/ChibiOS/os/rt/include/chqueues.h"
 198              		.loc 4 386 0
 199              		.cfi_startproc
 200              		@ args = 0, pretend = 0, frame = 8
 201              		@ frame_needed = 0, uses_anonymous_args = 0
 202 0000 00B5     		push	{lr}
 203              		.cfi_def_cfa_offset 4
 204              		.cfi_offset 14, -4
 205 0002 83B0     		sub	sp, sp, #12
 206              		.cfi_def_cfa_offset 16
 207 0004 0190     		str	r0, [sp, #4]
 208              		.loc 4 388 0
 209 0006 FFF7FEFF 		bl	chDbgCheckClassI
 210              		.loc 4 390 0
 211 000a 019B     		ldr	r3, [sp, #4]
 212 000c 5A69     		ldr	r2, [r3, #20]
 213 000e 019B     		ldr	r3, [sp, #4]
 214 0010 9B69     		ldr	r3, [r3, #24]
 215 0012 9A42     		cmp	r2, r3
 216 0014 05D1     		bne	.L8
 217              		.loc 4 390 0 is_stmt 0 discriminator 1
 218 0016 019B     		ldr	r3, [sp, #4]
 219 0018 9B68     		ldr	r3, [r3, #8]
 220 001a 002B     		cmp	r3, #0
 221 001c 01D0     		beq	.L8
 222              		.loc 4 390 0 discriminator 3
 223 001e 0123     		movs	r3, #1
 224 0020 00E0     		b	.L9
 225              	.L8:
 226              		.loc 4 390 0 discriminator 2
ARM GAS  /tmp/ccoA48Dc.s 			page 5


 227 0022 0023     		movs	r3, #0
 228              	.L9:
 229              		.loc 4 390 0 discriminator 4
 230 0024 03F00103 		and	r3, r3, #1
 231 0028 DBB2     		uxtb	r3, r3
 232              		.loc 4 391 0 is_stmt 1 discriminator 4
 233 002a 1846     		mov	r0, r3
 234 002c 03B0     		add	sp, sp, #12
 235              		@ sp needed
 236 002e 5DF804FB 		ldr	pc, [sp], #4
 237              		.cfi_endproc
 238              	.LFE237:
 239              		.size	chOQIsEmptyI, .-chOQIsEmptyI
 240 0032 00BFAFF3 		.section	.text.osalSysLockFromISR,"ax",%progbits
 240      0080AFF3 
 240      0080AFF3 
 240      0080
 241              		.align	2
 242              		.p2align 4,,15
 243              		.thumb
 244              		.thumb_func
 245              		.type	osalSysLockFromISR, %function
 246              	osalSysLockFromISR:
 247              	.LFB246:
 248              		.file 5 "/home/efe/ChibiOS/os/hal/osal/rt/osal.h"
 249              		.loc 5 513 0
 250              		.cfi_startproc
 251              		@ args = 0, pretend = 0, frame = 0
 252              		@ frame_needed = 0, uses_anonymous_args = 0
 253 0000 08B5     		push	{r3, lr}
 254              		.cfi_def_cfa_offset 8
 255              		.cfi_offset 3, -8
 256              		.cfi_offset 14, -4
 257              		.loc 5 515 0
 258 0002 FFF7FEFF 		bl	chSysLockFromISR
 259              		.loc 5 516 0
 260 0006 08BD     		pop	{r3, pc}
 261              		.cfi_endproc
 262              	.LFE246:
 263              		.size	osalSysLockFromISR, .-osalSysLockFromISR
 264 0008 AFF30080 		.section	.text.osalSysUnlockFromISR,"ax",%progbits
 264      AFF30080 
 265              		.align	2
 266              		.p2align 4,,15
 267              		.thumb
 268              		.thumb_func
 269              		.type	osalSysUnlockFromISR, %function
 270              	osalSysUnlockFromISR:
 271              	.LFB247:
 272              		.loc 5 524 0
 273              		.cfi_startproc
 274              		@ args = 0, pretend = 0, frame = 0
 275              		@ frame_needed = 0, uses_anonymous_args = 0
 276 0000 08B5     		push	{r3, lr}
 277              		.cfi_def_cfa_offset 8
 278              		.cfi_offset 3, -8
 279              		.cfi_offset 14, -4
ARM GAS  /tmp/ccoA48Dc.s 			page 6


 280              		.loc 5 526 0
 281 0002 FFF7FEFF 		bl	chSysUnlockFromISR
 282              		.loc 5 527 0
 283 0006 08BD     		pop	{r3, pc}
 284              		.cfi_endproc
 285              	.LFE247:
 286              		.size	osalSysUnlockFromISR, .-osalSysUnlockFromISR
 287 0008 AFF30080 		.section	.text.osalEventBroadcastFlagsI,"ax",%progbits
 287      AFF30080 
 288              		.align	2
 289              		.p2align 4,,15
 290              		.thumb
 291              		.thumb_func
 292              		.type	osalEventBroadcastFlagsI, %function
 293              	osalEventBroadcastFlagsI:
 294              	.LFB266:
 295              		.loc 5 842 0
 296              		.cfi_startproc
 297              		@ args = 0, pretend = 0, frame = 8
 298              		@ frame_needed = 0, uses_anonymous_args = 0
 299 0000 00B5     		push	{lr}
 300              		.cfi_def_cfa_offset 4
 301              		.cfi_offset 14, -4
 302 0002 83B0     		sub	sp, sp, #12
 303              		.cfi_def_cfa_offset 16
 304 0004 0190     		str	r0, [sp, #4]
 305 0006 0091     		str	r1, [sp]
 306              		.loc 5 844 0
 307 0008 0198     		ldr	r0, [sp, #4]
 308 000a 0099     		ldr	r1, [sp]
 309 000c FFF7FEFF 		bl	chEvtBroadcastFlagsI
 310              		.loc 5 845 0
 311 0010 03B0     		add	sp, sp, #12
 312              		@ sp needed
 313 0012 5DF804FB 		ldr	pc, [sp], #4
 314              		.cfi_endproc
 315              	.LFE266:
 316              		.size	osalEventBroadcastFlagsI, .-osalEventBroadcastFlagsI
 317              		.global	SD3
 318 0016 00BFAFF3 		.section	.bss.SD3,"aw",%nobits
 318      0080AFF3 
 318      0080
 319              		.align	2
 320              		.type	SD3, %object
 321              		.size	SD3, 216
 322              	SD3:
 323 0000 00000000 		.space	216
 323      00000000 
 323      00000000 
 323      00000000 
 323      00000000 
 324              		.section	.rodata.default_config,"a",%progbits
 325              		.align	2
 326              		.type	default_config, %object
 327              		.size	default_config, 12
 328              	default_config:
 329 0000 80250000 		.word	9600
ARM GAS  /tmp/ccoA48Dc.s 			page 7


 330 0004 0000     		.short	0
 331 0006 0040     		.short	16384
 332 0008 0000     		.short	0
 333 000a 0000     		.space	2
 334              		.section	.text.usart_init,"ax",%progbits
 335              		.align	2
 336              		.p2align 4,,15
 337              		.thumb
 338              		.thumb_func
 339              		.type	usart_init, %function
 340              	usart_init:
 341              	.LFB271:
 342              		.file 6 "/home/efe/ChibiOS/os/hal/ports/STM32/LLD/USARTv1/serial_lld.c"
 343              		.loc 6 101 0
 344              		.cfi_startproc
 345              		@ args = 0, pretend = 0, frame = 16
 346              		@ frame_needed = 0, uses_anonymous_args = 0
 347              		@ link register save eliminated.
 348 0000 84B0     		sub	sp, sp, #16
 349              		.cfi_def_cfa_offset 16
 350 0002 0190     		str	r0, [sp, #4]
 351 0004 0091     		str	r1, [sp]
 352              		.loc 6 102 0
 353 0006 019B     		ldr	r3, [sp, #4]
 354 0008 D3F8D430 		ldr	r3, [r3, #212]
 355 000c 0393     		str	r3, [sp, #12]
 356              		.loc 6 106 0
 357 000e 019B     		ldr	r3, [sp, #4]
 358 0010 D3F8D420 		ldr	r2, [r3, #212]
 359 0014 1D4B     		ldr	r3, .L18
 360 0016 9A42     		cmp	r2, r3
 361 0018 05D0     		beq	.L15
 362              		.loc 6 106 0 is_stmt 0 discriminator 1
 363 001a 019B     		ldr	r3, [sp, #4]
 364 001c D3F8D420 		ldr	r2, [r3, #212]
 365 0020 1B4B     		ldr	r3, .L18+4
 366 0022 9A42     		cmp	r2, r3
 367 0024 07D1     		bne	.L16
 368              	.L15:
 369              		.loc 6 110 0 is_stmt 1
 370 0026 009B     		ldr	r3, [sp]
 371 0028 1B68     		ldr	r3, [r3]
 372 002a 1A4A     		ldr	r2, .L18+8
 373 002c B2FBF3F2 		udiv	r2, r2, r3
 374 0030 039B     		ldr	r3, [sp, #12]
 375 0032 9A60     		str	r2, [r3, #8]
 376 0034 06E0     		b	.L17
 377              	.L16:
 378              		.loc 6 112 0
 379 0036 009B     		ldr	r3, [sp]
 380 0038 1B68     		ldr	r3, [r3]
 381 003a 174A     		ldr	r2, .L18+12
 382 003c B2FBF3F2 		udiv	r2, r2, r3
 383 0040 039B     		ldr	r3, [sp, #12]
 384 0042 9A60     		str	r2, [r3, #8]
 385              	.L17:
 386              		.loc 6 115 0
ARM GAS  /tmp/ccoA48Dc.s 			page 8


 387 0044 009B     		ldr	r3, [sp]
 388 0046 DB88     		ldrh	r3, [r3, #6]
 389 0048 43F04003 		orr	r3, r3, #64
 390 004c 9BB2     		uxth	r3, r3
 391 004e 1A46     		mov	r2, r3
 392 0050 039B     		ldr	r3, [sp, #12]
 393 0052 1A61     		str	r2, [r3, #16]
 394              		.loc 6 116 0
 395 0054 009B     		ldr	r3, [sp]
 396 0056 1B89     		ldrh	r3, [r3, #8]
 397 0058 43F00103 		orr	r3, r3, #1
 398 005c 9BB2     		uxth	r3, r3
 399 005e 1A46     		mov	r2, r3
 400 0060 039B     		ldr	r3, [sp, #12]
 401 0062 5A61     		str	r2, [r3, #20]
 402              		.loc 6 117 0
 403 0064 009B     		ldr	r3, [sp]
 404 0066 9B88     		ldrh	r3, [r3, #4]
 405              		.loc 6 118 0
 406 0068 43F40453 		orr	r3, r3, #8448
 407 006c 43F02C03 		orr	r3, r3, #44
 408 0070 9BB2     		uxth	r3, r3
 409 0072 1A46     		mov	r2, r3
 410              		.loc 6 117 0
 411 0074 039B     		ldr	r3, [sp, #12]
 412 0076 DA60     		str	r2, [r3, #12]
 413              		.loc 6 120 0
 414 0078 039B     		ldr	r3, [sp, #12]
 415 007a 0022     		movs	r2, #0
 416 007c 1A60     		str	r2, [r3]
 417              		.loc 6 121 0
 418 007e 039B     		ldr	r3, [sp, #12]
 419 0080 1B68     		ldr	r3, [r3]
 420              		.loc 6 122 0
 421 0082 039B     		ldr	r3, [sp, #12]
 422 0084 5B68     		ldr	r3, [r3, #4]
 423              		.loc 6 123 0
 424 0086 04B0     		add	sp, sp, #16
 425              		@ sp needed
 426 0088 7047     		bx	lr
 427              	.L19:
 428 008a 00BF     		.align	2
 429              	.L18:
 430 008c 00100140 		.word	1073811456
 431 0090 00140140 		.word	1073812480
 432 0094 00BD0105 		.word	84000000
 433 0098 80DE8002 		.word	42000000
 434              		.cfi_endproc
 435              	.LFE271:
 436              		.size	usart_init, .-usart_init
 437 009c AFF30080 		.section	.text.usart_deinit,"ax",%progbits
 438              		.align	2
 439              		.p2align 4,,15
 440              		.thumb
 441              		.thumb_func
 442              		.type	usart_deinit, %function
 443              	usart_deinit:
ARM GAS  /tmp/ccoA48Dc.s 			page 9


 444              	.LFB272:
 445              		.loc 6 131 0
 446              		.cfi_startproc
 447              		@ args = 0, pretend = 0, frame = 8
 448              		@ frame_needed = 0, uses_anonymous_args = 0
 449              		@ link register save eliminated.
 450 0000 82B0     		sub	sp, sp, #8
 451              		.cfi_def_cfa_offset 8
 452 0002 0190     		str	r0, [sp, #4]
 453              		.loc 6 133 0
 454 0004 019B     		ldr	r3, [sp, #4]
 455 0006 0022     		movs	r2, #0
 456 0008 DA60     		str	r2, [r3, #12]
 457              		.loc 6 134 0
 458 000a 019B     		ldr	r3, [sp, #4]
 459 000c 0022     		movs	r2, #0
 460 000e 1A61     		str	r2, [r3, #16]
 461              		.loc 6 135 0
 462 0010 019B     		ldr	r3, [sp, #4]
 463 0012 0022     		movs	r2, #0
 464 0014 5A61     		str	r2, [r3, #20]
 465              		.loc 6 136 0
 466 0016 02B0     		add	sp, sp, #8
 467              		@ sp needed
 468 0018 7047     		bx	lr
 469              		.cfi_endproc
 470              	.LFE272:
 471              		.size	usart_deinit, .-usart_deinit
 472 001a 00BFAFF3 		.section	.text.set_error,"ax",%progbits
 472      0080
 473              		.align	2
 474              		.p2align 4,,15
 475              		.thumb
 476              		.thumb_func
 477              		.type	set_error, %function
 478              	set_error:
 479              	.LFB273:
 480              		.loc 6 144 0
 481              		.cfi_startproc
 482              		@ args = 0, pretend = 0, frame = 16
 483              		@ frame_needed = 0, uses_anonymous_args = 0
 484 0000 00B5     		push	{lr}
 485              		.cfi_def_cfa_offset 4
 486              		.cfi_offset 14, -4
 487 0002 85B0     		sub	sp, sp, #20
 488              		.cfi_def_cfa_offset 24
 489 0004 0190     		str	r0, [sp, #4]
 490 0006 0B46     		mov	r3, r1
 491 0008 ADF80230 		strh	r3, [sp, #2]	@ movhi
 492              		.loc 6 145 0
 493 000c 0023     		movs	r3, #0
 494 000e 0393     		str	r3, [sp, #12]
 495              		.loc 6 147 0
 496 0010 BDF80230 		ldrh	r3, [sp, #2]
 497 0014 03F00803 		and	r3, r3, #8
 498 0018 002B     		cmp	r3, #0
 499 001a 03D0     		beq	.L22
ARM GAS  /tmp/ccoA48Dc.s 			page 10


 500              		.loc 6 148 0
 501 001c 039B     		ldr	r3, [sp, #12]
 502 001e 43F08003 		orr	r3, r3, #128
 503 0022 0393     		str	r3, [sp, #12]
 504              	.L22:
 505              		.loc 6 149 0
 506 0024 BDF80230 		ldrh	r3, [sp, #2]
 507 0028 03F00103 		and	r3, r3, #1
 508 002c 002B     		cmp	r3, #0
 509 002e 03D0     		beq	.L23
 510              		.loc 6 150 0
 511 0030 039B     		ldr	r3, [sp, #12]
 512 0032 43F02003 		orr	r3, r3, #32
 513 0036 0393     		str	r3, [sp, #12]
 514              	.L23:
 515              		.loc 6 151 0
 516 0038 BDF80230 		ldrh	r3, [sp, #2]
 517 003c 03F00203 		and	r3, r3, #2
 518 0040 002B     		cmp	r3, #0
 519 0042 03D0     		beq	.L24
 520              		.loc 6 152 0
 521 0044 039B     		ldr	r3, [sp, #12]
 522 0046 43F04003 		orr	r3, r3, #64
 523 004a 0393     		str	r3, [sp, #12]
 524              	.L24:
 525              		.loc 6 153 0
 526 004c BDF80230 		ldrh	r3, [sp, #2]
 527 0050 03F00403 		and	r3, r3, #4
 528 0054 002B     		cmp	r3, #0
 529 0056 03D0     		beq	.L25
 530              		.loc 6 154 0
 531 0058 039B     		ldr	r3, [sp, #12]
 532 005a 43F48073 		orr	r3, r3, #256
 533 005e 0393     		str	r3, [sp, #12]
 534              	.L25:
 535              		.loc 6 155 0
 536 0060 019B     		ldr	r3, [sp, #4]
 537 0062 0433     		adds	r3, r3, #4
 538 0064 1846     		mov	r0, r3
 539 0066 0399     		ldr	r1, [sp, #12]
 540 0068 FFF7FEFF 		bl	osalEventBroadcastFlagsI
 541              		.loc 6 156 0
 542 006c 05B0     		add	sp, sp, #20
 543              		@ sp needed
 544 006e 5DF804FB 		ldr	pc, [sp], #4
 545              		.cfi_endproc
 546              	.LFE273:
 547              		.size	set_error, .-set_error
 548 0072 00BFAFF3 		.section	.text.serve_interrupt,"ax",%progbits
 548      0080AFF3 
 548      0080AFF3 
 548      0080
 549              		.align	2
 550              		.p2align 4,,15
 551              		.thumb
 552              		.thumb_func
 553              		.type	serve_interrupt, %function
ARM GAS  /tmp/ccoA48Dc.s 			page 11


 554              	serve_interrupt:
 555              	.LFB274:
 556              		.loc 6 163 0
 557              		.cfi_startproc
 558              		@ args = 0, pretend = 0, frame = 24
 559              		@ frame_needed = 0, uses_anonymous_args = 0
 560 0000 00B5     		push	{lr}
 561              		.cfi_def_cfa_offset 4
 562              		.cfi_offset 14, -4
 563 0002 87B0     		sub	sp, sp, #28
 564              		.cfi_def_cfa_offset 32
 565 0004 0190     		str	r0, [sp, #4]
 566              		.loc 6 164 0
 567 0006 019B     		ldr	r3, [sp, #4]
 568 0008 D3F8D430 		ldr	r3, [r3, #212]
 569 000c 0493     		str	r3, [sp, #16]
 570              		.loc 6 165 0
 571 000e 049B     		ldr	r3, [sp, #16]
 572 0010 DB68     		ldr	r3, [r3, #12]
 573 0012 ADF80E30 		strh	r3, [sp, #14]	@ movhi
 574              		.loc 6 166 0
 575 0016 049B     		ldr	r3, [sp, #16]
 576 0018 1B68     		ldr	r3, [r3]
 577 001a ADF81630 		strh	r3, [sp, #22]	@ movhi
 578              		.loc 6 169 0
 579 001e BDF81630 		ldrh	r3, [sp, #22]
 580 0022 03F48073 		and	r3, r3, #256
 581 0026 002B     		cmp	r3, #0
 582 0028 0ED0     		beq	.L27
 583              		.loc 6 170 0
 584 002a FFF7FEFF 		bl	osalSysLockFromISR
 585              		.loc 6 171 0
 586 002e 019B     		ldr	r3, [sp, #4]
 587 0030 0433     		adds	r3, r3, #4
 588 0032 1846     		mov	r0, r3
 589 0034 4FF40071 		mov	r1, #512
 590 0038 FFF7FEFF 		bl	osalEventBroadcastFlagsI
 591              		.loc 6 172 0
 592 003c 049B     		ldr	r3, [sp, #16]
 593 003e 6FF48072 		mvn	r2, #256
 594 0042 1A60     		str	r2, [r3]
 595              		.loc 6 173 0
 596 0044 FFF7FEFF 		bl	osalSysUnlockFromISR
 597              	.L27:
 598              		.loc 6 177 0
 599 0048 FFF7FEFF 		bl	osalSysLockFromISR
 600              		.loc 6 178 0
 601 004c 1FE0     		b	.L28
 602              	.L31:
 603              	.LBB10:
 604              		.loc 6 183 0
 605 004e BDF81630 		ldrh	r3, [sp, #22]
 606 0052 03F00F03 		and	r3, r3, #15
 607 0056 002B     		cmp	r3, #0
 608 0058 05D0     		beq	.L29
 609              		.loc 6 184 0
 610 005a BDF81630 		ldrh	r3, [sp, #22]
ARM GAS  /tmp/ccoA48Dc.s 			page 12


 611 005e 0198     		ldr	r0, [sp, #4]
 612 0060 1946     		mov	r1, r3
 613 0062 FFF7FEFF 		bl	set_error
 614              	.L29:
 615              		.loc 6 185 0
 616 0066 049B     		ldr	r3, [sp, #16]
 617 0068 5B68     		ldr	r3, [r3, #4]
 618 006a 8DF80D30 		strb	r3, [sp, #13]
 619              		.loc 6 186 0
 620 006e BDF81630 		ldrh	r3, [sp, #22]
 621 0072 03F02003 		and	r3, r3, #32
 622 0076 002B     		cmp	r3, #0
 623 0078 05D0     		beq	.L30
 624              		.loc 6 187 0
 625 007a 9DF80D30 		ldrb	r3, [sp, #13]	@ zero_extendqisi2
 626 007e 0198     		ldr	r0, [sp, #4]
 627 0080 1946     		mov	r1, r3
 628 0082 FFF7FEFF 		bl	sdIncomingDataI
 629              	.L30:
 630              		.loc 6 188 0
 631 0086 049B     		ldr	r3, [sp, #16]
 632 0088 1B68     		ldr	r3, [r3]
 633 008a ADF81630 		strh	r3, [sp, #22]	@ movhi
 634              	.L28:
 635              	.LBE10:
 636              		.loc 6 178 0 discriminator 1
 637 008e BDF81630 		ldrh	r3, [sp, #22]
 638 0092 03F02F03 		and	r3, r3, #47
 639 0096 002B     		cmp	r3, #0
 640 0098 D9D1     		bne	.L31
 641              		.loc 6 190 0
 642 009a FFF7FEFF 		bl	osalSysUnlockFromISR
 643              		.loc 6 193 0
 644 009e BDF80E30 		ldrh	r3, [sp, #14]
 645 00a2 03F08003 		and	r3, r3, #128
 646 00a6 002B     		cmp	r3, #0
 647 00a8 24D0     		beq	.L32
 648              		.loc 6 193 0 is_stmt 0 discriminator 1
 649 00aa BDF81630 		ldrh	r3, [sp, #22]
 650 00ae 03F08003 		and	r3, r3, #128
 651 00b2 002B     		cmp	r3, #0
 652 00b4 1ED0     		beq	.L32
 653              	.LBB11:
 654              		.loc 6 195 0 is_stmt 1
 655 00b6 FFF7FEFF 		bl	osalSysLockFromISR
 656              		.loc 6 196 0
 657 00ba 019B     		ldr	r3, [sp, #4]
 658 00bc 3033     		adds	r3, r3, #48
 659 00be 1846     		mov	r0, r3
 660 00c0 FFF7FEFF 		bl	chOQGetI
 661 00c4 0290     		str	r0, [sp, #8]
 662              		.loc 6 197 0
 663 00c6 029B     		ldr	r3, [sp, #8]
 664 00c8 002B     		cmp	r3, #0
 665 00ca 0EDA     		bge	.L33
 666              		.loc 6 198 0
 667 00cc 019B     		ldr	r3, [sp, #4]
ARM GAS  /tmp/ccoA48Dc.s 			page 13


 668 00ce 0433     		adds	r3, r3, #4
 669 00d0 1846     		mov	r0, r3
 670 00d2 0821     		movs	r1, #8
 671 00d4 FFF7FEFF 		bl	osalEventBroadcastFlagsI
 672              		.loc 6 199 0
 673 00d8 BDF80E30 		ldrh	r3, [sp, #14]
 674 00dc 23F0C003 		bic	r3, r3, #192
 675 00e0 43F04002 		orr	r2, r3, #64
 676 00e4 049B     		ldr	r3, [sp, #16]
 677 00e6 DA60     		str	r2, [r3, #12]
 678 00e8 02E0     		b	.L34
 679              	.L33:
 680              		.loc 6 202 0
 681 00ea 029A     		ldr	r2, [sp, #8]
 682 00ec 049B     		ldr	r3, [sp, #16]
 683 00ee 5A60     		str	r2, [r3, #4]
 684              	.L34:
 685              		.loc 6 203 0
 686 00f0 FFF7FEFF 		bl	osalSysUnlockFromISR
 687              	.L32:
 688              	.LBE11:
 689              		.loc 6 207 0
 690 00f4 BDF81630 		ldrh	r3, [sp, #22]
 691 00f8 03F04003 		and	r3, r3, #64
 692 00fc 002B     		cmp	r3, #0
 693 00fe 1BD0     		beq	.L26
 694              		.loc 6 208 0
 695 0100 FFF7FEFF 		bl	osalSysLockFromISR
 696              		.loc 6 209 0
 697 0104 019B     		ldr	r3, [sp, #4]
 698 0106 3033     		adds	r3, r3, #48
 699 0108 1846     		mov	r0, r3
 700 010a FFF7FEFF 		bl	chOQIsEmptyI
 701 010e 0346     		mov	r3, r0
 702 0110 002B     		cmp	r3, #0
 703 0112 05D0     		beq	.L36
 704              		.loc 6 210 0
 705 0114 019B     		ldr	r3, [sp, #4]
 706 0116 0433     		adds	r3, r3, #4
 707 0118 1846     		mov	r0, r3
 708 011a 1021     		movs	r1, #16
 709 011c FFF7FEFF 		bl	osalEventBroadcastFlagsI
 710              	.L36:
 711              		.loc 6 211 0
 712 0120 BDF80E30 		ldrh	r3, [sp, #14]
 713 0124 23F04002 		bic	r2, r3, #64
 714 0128 049B     		ldr	r3, [sp, #16]
 715 012a DA60     		str	r2, [r3, #12]
 716              		.loc 6 212 0
 717 012c 049B     		ldr	r3, [sp, #16]
 718 012e 6FF04002 		mvn	r2, #64
 719 0132 1A60     		str	r2, [r3]
 720              		.loc 6 213 0
 721 0134 FFF7FEFF 		bl	osalSysUnlockFromISR
 722              	.L26:
 723              		.loc 6 215 0
 724 0138 07B0     		add	sp, sp, #28
ARM GAS  /tmp/ccoA48Dc.s 			page 14


 725              		@ sp needed
 726 013a 5DF804FB 		ldr	pc, [sp], #4
 727              		.cfi_endproc
 728              	.LFE274:
 729              		.size	serve_interrupt, .-serve_interrupt
 730 013e 00BF     		.section	.text.notify3,"ax",%progbits
 731              		.align	2
 732              		.p2align 4,,15
 733              		.thumb
 734              		.thumb_func
 735              		.type	notify3, %function
 736              	notify3:
 737              	.LFB275:
 738              		.loc 6 234 0
 739              		.cfi_startproc
 740              		@ args = 0, pretend = 0, frame = 8
 741              		@ frame_needed = 0, uses_anonymous_args = 0
 742              		@ link register save eliminated.
 743 0000 82B0     		sub	sp, sp, #8
 744              		.cfi_def_cfa_offset 8
 745 0002 0190     		str	r0, [sp, #4]
 746              		.loc 6 237 0
 747 0004 034B     		ldr	r3, .L38
 748 0006 034A     		ldr	r2, .L38
 749 0008 D268     		ldr	r2, [r2, #12]
 750 000a 42F08002 		orr	r2, r2, #128
 751 000e DA60     		str	r2, [r3, #12]
 752              		.loc 6 238 0
 753 0010 02B0     		add	sp, sp, #8
 754              		@ sp needed
 755 0012 7047     		bx	lr
 756              	.L39:
 757              		.align	2
 758              	.L38:
 759 0014 00480040 		.word	1073760256
 760              		.cfi_endproc
 761              	.LFE275:
 762              		.size	notify3, .-notify3
 763 0018 AFF30080 		.section	.text.VectorDC,"ax",%progbits
 763      AFF30080 
 764              		.align	2
 765              		.p2align 4,,15
 766              		.global	VectorDC
 767              		.thumb
 768              		.thumb_func
 769              		.type	VectorDC, %function
 770              	VectorDC:
 771              	.LFB276:
 772              		.loc 6 332 0
 773              		.cfi_startproc
 774              		@ args = 0, pretend = 0, frame = 0
 775              		@ frame_needed = 0, uses_anonymous_args = 0
 776 0000 08B5     		push	{r3, lr}
 777              		.cfi_def_cfa_offset 8
 778              		.cfi_offset 3, -8
 779              		.cfi_offset 14, -4
 780              		.loc 6 334 0
ARM GAS  /tmp/ccoA48Dc.s 			page 15


 781 0002 FFF7FEFF 		bl	_stats_increase_irq
 782 0006 FFF7FEFF 		bl	_dbg_check_enter_isr
 783              		.loc 6 336 0
 784 000a 0448     		ldr	r0, .L41
 785 000c FFF7FEFF 		bl	serve_interrupt
 786              		.loc 6 338 0
 787 0010 FFF7FEFF 		bl	_dbg_check_leave_isr
 788 0014 FFF7FEFF 		bl	_port_irq_epilogue
 789              		.loc 6 339 0
 790 0018 08BD     		pop	{r3, pc}
 791              	.L42:
 792 001a 00BF     		.align	2
 793              	.L41:
 794 001c 00000000 		.word	SD3
 795              		.cfi_endproc
 796              	.LFE276:
 797              		.size	VectorDC, .-VectorDC
 798              		.section	.text.sd_lld_init,"ax",%progbits
 799              		.align	2
 800              		.p2align 4,,15
 801              		.global	sd_lld_init
 802              		.thumb
 803              		.thumb_func
 804              		.type	sd_lld_init, %function
 805              	sd_lld_init:
 806              	.LFB277:
 807              		.loc 6 446 0
 808              		.cfi_startproc
 809              		@ args = 0, pretend = 0, frame = 0
 810              		@ frame_needed = 0, uses_anonymous_args = 0
 811 0000 08B5     		push	{r3, lr}
 812              		.cfi_def_cfa_offset 8
 813              		.cfi_offset 3, -8
 814              		.cfi_offset 14, -4
 815              		.loc 6 459 0
 816 0002 0548     		ldr	r0, .L44
 817 0004 0021     		movs	r1, #0
 818 0006 054A     		ldr	r2, .L44+4
 819 0008 FFF7FEFF 		bl	sdObjectInit
 820              		.loc 6 460 0
 821 000c 024B     		ldr	r3, .L44
 822 000e 044A     		ldr	r2, .L44+8
 823 0010 C3F8D420 		str	r2, [r3, #212]
 824              		.loc 6 487 0
 825 0014 08BD     		pop	{r3, pc}
 826              	.L45:
 827 0016 00BF     		.align	2
 828              	.L44:
 829 0018 00000000 		.word	SD3
 830 001c 00000000 		.word	notify3
 831 0020 00480040 		.word	1073760256
 832              		.cfi_endproc
 833              	.LFE277:
 834              		.size	sd_lld_init, .-sd_lld_init
 835 0024 AFF30080 		.section	.text.sd_lld_start,"ax",%progbits
 835      AFF30080 
 835      AFF30080 
ARM GAS  /tmp/ccoA48Dc.s 			page 16


 836              		.align	2
 837              		.p2align 4,,15
 838              		.global	sd_lld_start
 839              		.thumb
 840              		.thumb_func
 841              		.type	sd_lld_start, %function
 842              	sd_lld_start:
 843              	.LFB278:
 844              		.loc 6 499 0
 845              		.cfi_startproc
 846              		@ args = 0, pretend = 0, frame = 8
 847              		@ frame_needed = 0, uses_anonymous_args = 0
 848 0000 00B5     		push	{lr}
 849              		.cfi_def_cfa_offset 4
 850              		.cfi_offset 14, -4
 851 0002 83B0     		sub	sp, sp, #12
 852              		.cfi_def_cfa_offset 16
 853 0004 0190     		str	r0, [sp, #4]
 854 0006 0091     		str	r1, [sp]
 855              		.loc 6 501 0
 856 0008 009B     		ldr	r3, [sp]
 857 000a 002B     		cmp	r3, #0
 858 000c 01D1     		bne	.L47
 859              		.loc 6 502 0
 860 000e 0D4B     		ldr	r3, .L49
 861 0010 0093     		str	r3, [sp]
 862              	.L47:
 863              		.loc 6 504 0
 864 0012 019B     		ldr	r3, [sp, #4]
 865 0014 1B7A     		ldrb	r3, [r3, #8]	@ zero_extendqisi2
 866 0016 012B     		cmp	r3, #1
 867 0018 0DD1     		bne	.L48
 868              		.loc 6 518 0
 869 001a 019A     		ldr	r2, [sp, #4]
 870 001c 0A4B     		ldr	r3, .L49+4
 871 001e 9A42     		cmp	r2, r3
 872 0020 09D1     		bne	.L48
 873              		.loc 6 519 0
 874 0022 0A4B     		ldr	r3, .L49+8
 875 0024 094A     		ldr	r2, .L49+8
 876 0026 126C     		ldr	r2, [r2, #64]
 877 0028 42F48022 		orr	r2, r2, #262144
 878 002c 1A64     		str	r2, [r3, #64]
 879              		.loc 6 520 0
 880 002e 2720     		movs	r0, #39
 881 0030 0C21     		movs	r1, #12
 882 0032 FFF7FEFF 		bl	nvicEnableVector
 883              	.L48:
 884              		.loc 6 554 0
 885 0036 0198     		ldr	r0, [sp, #4]
 886 0038 0099     		ldr	r1, [sp]
 887 003a FFF7FEFF 		bl	usart_init
 888              		.loc 6 555 0
 889 003e 03B0     		add	sp, sp, #12
 890              		@ sp needed
 891 0040 5DF804FB 		ldr	pc, [sp], #4
 892              	.L50:
ARM GAS  /tmp/ccoA48Dc.s 			page 17


 893              		.align	2
 894              	.L49:
 895 0044 00000000 		.word	default_config
 896 0048 00000000 		.word	SD3
 897 004c 00380240 		.word	1073887232
 898              		.cfi_endproc
 899              	.LFE278:
 900              		.size	sd_lld_start, .-sd_lld_start
 901              		.section	.text.sd_lld_stop,"ax",%progbits
 902              		.align	2
 903              		.p2align 4,,15
 904              		.global	sd_lld_stop
 905              		.thumb
 906              		.thumb_func
 907              		.type	sd_lld_stop, %function
 908              	sd_lld_stop:
 909              	.LFB279:
 910              		.loc 6 566 0
 911              		.cfi_startproc
 912              		@ args = 0, pretend = 0, frame = 8
 913              		@ frame_needed = 0, uses_anonymous_args = 0
 914 0000 00B5     		push	{lr}
 915              		.cfi_def_cfa_offset 4
 916              		.cfi_offset 14, -4
 917 0002 83B0     		sub	sp, sp, #12
 918              		.cfi_def_cfa_offset 16
 919 0004 0190     		str	r0, [sp, #4]
 920              		.loc 6 568 0
 921 0006 019B     		ldr	r3, [sp, #4]
 922 0008 1B7A     		ldrb	r3, [r3, #8]	@ zero_extendqisi2
 923 000a 022B     		cmp	r3, #2
 924 000c 13D1     		bne	.L51
 925              		.loc 6 569 0
 926 000e 019B     		ldr	r3, [sp, #4]
 927 0010 D3F8D430 		ldr	r3, [r3, #212]
 928 0014 1846     		mov	r0, r3
 929 0016 FFF7FEFF 		bl	usart_deinit
 930              		.loc 6 585 0
 931 001a 019A     		ldr	r2, [sp, #4]
 932 001c 074B     		ldr	r3, .L53
 933 001e 9A42     		cmp	r2, r3
 934 0020 09D1     		bne	.L51
 935              		.loc 6 586 0
 936 0022 074B     		ldr	r3, .L53+4
 937 0024 064A     		ldr	r2, .L53+4
 938 0026 126C     		ldr	r2, [r2, #64]
 939 0028 22F48022 		bic	r2, r2, #262144
 940 002c 1A64     		str	r2, [r3, #64]
 941              		.loc 6 587 0
 942 002e 2720     		movs	r0, #39
 943 0030 FFF7FEFF 		bl	nvicDisableVector
 944              		.loc 6 588 0
 945 0034 00BF     		nop
 946              	.L51:
 947              		.loc 6 627 0
 948 0036 03B0     		add	sp, sp, #12
 949              		@ sp needed
ARM GAS  /tmp/ccoA48Dc.s 			page 18


 950 0038 5DF804FB 		ldr	pc, [sp], #4
 951              	.L54:
 952              		.align	2
 953              	.L53:
 954 003c 00000000 		.word	SD3
 955 0040 00380240 		.word	1073887232
 956              		.cfi_endproc
 957              	.LFE279:
 958              		.size	sd_lld_stop, .-sd_lld_stop
 959 0044 AFF30080 		.text
 959      AFF30080 
 959      AFF30080 
 960              	.Letext0:
 961              		.file 7 "/usr/lib/gcc/arm-none-eabi/4.8/include/stddef.h"
 962              		.file 8 "/usr/include/newlib/machine/_default_types.h"
 963              		.file 9 "/usr/include/newlib/stdint.h"
 964              		.file 10 "/home/efe/ChibiOS/os/rt/ports/ARMCMx/compilers/GCC/chtypes.h"
 965              		.file 11 "/home/efe/ChibiOS/os/rt/include/chsystypes.h"
 966              		.file 12 "/home/efe/ChibiOS/os/rt/include/chschd.h"
 967              		.file 13 "/home/efe/ChibiOS/os/ext/CMSIS/ST/stm32f407xx.h"
 968              		.file 14 "/home/efe/ChibiOS/os/rt/ports/ARMCMx/chcore.h"
 969              		.file 15 "/home/efe/ChibiOS/os/rt/include/chdebug.h"
 970              		.file 16 "/home/efe/ChibiOS/os/rt/include/chtm.h"
 971              		.file 17 "/home/efe/ChibiOS/os/rt/include/chstats.h"
 972              		.file 18 "/home/efe/ChibiOS/os/rt/include/chsem.h"
 973              		.file 19 "/home/efe/ChibiOS/os/rt/include/chmtx.h"
 974              		.file 20 "/home/efe/ChibiOS/os/rt/include/chevents.h"
 975              		.file 21 "/home/efe/ChibiOS/os/hal/include/serial.h"
 976              		.file 22 "/home/efe/ChibiOS/os/hal/ports/STM32/LLD/USARTv1/serial_lld.h"
 977              		.file 23 "/home/efe/ChibiOS/os/ext/CMSIS/include/core_cm4.h"
 978              		.section	.debug_info,"",%progbits
 979              	.Ldebug_info0:
 980 0000 F6100000 		.4byte	0x10f6
 981 0004 0400     		.2byte	0x4
 982 0006 00000000 		.4byte	.Ldebug_abbrev0
 983 000a 04       		.byte	0x4
 984 000b 01       		.uleb128 0x1
 985 000c 95000000 		.4byte	.LASF227
 986 0010 01       		.byte	0x1
 987 0011 15040000 		.4byte	.LASF228
 988 0015 00000000 		.4byte	.Ldebug_ranges0+0
 989 0019 00000000 		.4byte	0
 990 001d 00000000 		.4byte	.Ldebug_line0
 991 0021 02       		.uleb128 0x2
 992 0022 04       		.byte	0x4
 993 0023 05       		.byte	0x5
 994 0024 696E7400 		.ascii	"int\000"
 995 0028 03       		.uleb128 0x3
 996 0029 08000000 		.4byte	.LASF2
 997 002d 07       		.byte	0x7
 998 002e D4       		.byte	0xd4
 999 002f 33000000 		.4byte	0x33
 1000 0033 04       		.uleb128 0x4
 1001 0034 04       		.byte	0x4
 1002 0035 07       		.byte	0x7
 1003 0036 98060000 		.4byte	.LASF0
 1004 003a 04       		.uleb128 0x4
ARM GAS  /tmp/ccoA48Dc.s 			page 19


 1005 003b 01       		.byte	0x1
 1006 003c 06       		.byte	0x6
 1007 003d C8020000 		.4byte	.LASF1
 1008 0041 03       		.uleb128 0x3
 1009 0042 C7010000 		.4byte	.LASF3
 1010 0046 08       		.byte	0x8
 1011 0047 1D       		.byte	0x1d
 1012 0048 4C000000 		.4byte	0x4c
 1013 004c 04       		.uleb128 0x4
 1014 004d 01       		.byte	0x1
 1015 004e 08       		.byte	0x8
 1016 004f 24030000 		.4byte	.LASF4
 1017 0053 04       		.uleb128 0x4
 1018 0054 02       		.byte	0x2
 1019 0055 05       		.byte	0x5
 1020 0056 B0080000 		.4byte	.LASF5
 1021 005a 03       		.uleb128 0x3
 1022 005b B7030000 		.4byte	.LASF6
 1023 005f 08       		.byte	0x8
 1024 0060 2B       		.byte	0x2b
 1025 0061 65000000 		.4byte	0x65
 1026 0065 04       		.uleb128 0x4
 1027 0066 02       		.byte	0x2
 1028 0067 07       		.byte	0x7
 1029 0068 8D090000 		.4byte	.LASF7
 1030 006c 03       		.uleb128 0x3
 1031 006d D2090000 		.4byte	.LASF8
 1032 0071 08       		.byte	0x8
 1033 0072 3F       		.byte	0x3f
 1034 0073 77000000 		.4byte	0x77
 1035 0077 04       		.uleb128 0x4
 1036 0078 04       		.byte	0x4
 1037 0079 05       		.byte	0x5
 1038 007a 0E020000 		.4byte	.LASF9
 1039 007e 03       		.uleb128 0x3
 1040 007f C5050000 		.4byte	.LASF10
 1041 0083 08       		.byte	0x8
 1042 0084 41       		.byte	0x41
 1043 0085 89000000 		.4byte	0x89
 1044 0089 04       		.uleb128 0x4
 1045 008a 04       		.byte	0x4
 1046 008b 07       		.byte	0x7
 1047 008c FC040000 		.4byte	.LASF11
 1048 0090 04       		.uleb128 0x4
 1049 0091 08       		.byte	0x8
 1050 0092 05       		.byte	0x5
 1051 0093 D0050000 		.4byte	.LASF12
 1052 0097 03       		.uleb128 0x3
 1053 0098 F1040000 		.4byte	.LASF13
 1054 009c 08       		.byte	0x8
 1055 009d 5B       		.byte	0x5b
 1056 009e A2000000 		.4byte	0xa2
 1057 00a2 04       		.uleb128 0x4
 1058 00a3 08       		.byte	0x8
 1059 00a4 07       		.byte	0x7
 1060 00a5 94070000 		.4byte	.LASF14
 1061 00a9 03       		.uleb128 0x3
ARM GAS  /tmp/ccoA48Dc.s 			page 20


 1062 00aa DB020000 		.4byte	.LASF15
 1063 00ae 09       		.byte	0x9
 1064 00af 2A       		.byte	0x2a
 1065 00b0 41000000 		.4byte	0x41
 1066 00b4 03       		.uleb128 0x3
 1067 00b5 B3070000 		.4byte	.LASF16
 1068 00b9 09       		.byte	0x9
 1069 00ba 36       		.byte	0x36
 1070 00bb 5A000000 		.4byte	0x5a
 1071 00bf 03       		.uleb128 0x3
 1072 00c0 53000000 		.4byte	.LASF17
 1073 00c4 09       		.byte	0x9
 1074 00c5 41       		.byte	0x41
 1075 00c6 6C000000 		.4byte	0x6c
 1076 00ca 03       		.uleb128 0x3
 1077 00cb 32090000 		.4byte	.LASF18
 1078 00cf 09       		.byte	0x9
 1079 00d0 42       		.byte	0x42
 1080 00d1 7E000000 		.4byte	0x7e
 1081 00d5 03       		.uleb128 0x3
 1082 00d6 C7080000 		.4byte	.LASF19
 1083 00da 09       		.byte	0x9
 1084 00db 4E       		.byte	0x4e
 1085 00dc 97000000 		.4byte	0x97
 1086 00e0 05       		.uleb128 0x5
 1087 00e1 BF000000 		.4byte	0xbf
 1088 00e5 05       		.uleb128 0x5
 1089 00e6 CA000000 		.4byte	0xca
 1090 00ea 03       		.uleb128 0x3
 1091 00eb A5060000 		.4byte	.LASF20
 1092 00ef 0A       		.byte	0xa
 1093 00f0 45       		.byte	0x45
 1094 00f1 CA000000 		.4byte	0xca
 1095 00f5 03       		.uleb128 0x3
 1096 00f6 62020000 		.4byte	.LASF21
 1097 00fa 0A       		.byte	0xa
 1098 00fb 46       		.byte	0x46
 1099 00fc D5000000 		.4byte	0xd5
 1100 0100 03       		.uleb128 0x3
 1101 0101 3D080000 		.4byte	.LASF22
 1102 0105 0A       		.byte	0xa
 1103 0106 48       		.byte	0x48
 1104 0107 A9000000 		.4byte	0xa9
 1105 010b 03       		.uleb128 0x3
 1106 010c 59020000 		.4byte	.LASF23
 1107 0110 0A       		.byte	0xa
 1108 0111 49       		.byte	0x49
 1109 0112 A9000000 		.4byte	0xa9
 1110 0116 03       		.uleb128 0x3
 1111 0117 11090000 		.4byte	.LASF24
 1112 011b 0A       		.byte	0xa
 1113 011c 4A       		.byte	0x4a
 1114 011d A9000000 		.4byte	0xa9
 1115 0121 03       		.uleb128 0x3
 1116 0122 3A000000 		.4byte	.LASF25
 1117 0126 0A       		.byte	0xa
 1118 0127 4C       		.byte	0x4c
ARM GAS  /tmp/ccoA48Dc.s 			page 21


 1119 0128 CA000000 		.4byte	0xca
 1120 012c 03       		.uleb128 0x3
 1121 012d BC070000 		.4byte	.LASF26
 1122 0131 0A       		.byte	0xa
 1123 0132 4D       		.byte	0x4d
 1124 0133 BF000000 		.4byte	0xbf
 1125 0137 03       		.uleb128 0x3
 1126 0138 E3020000 		.4byte	.LASF27
 1127 013c 0A       		.byte	0xa
 1128 013d 4F       		.byte	0x4f
 1129 013e CA000000 		.4byte	0xca
 1130 0142 03       		.uleb128 0x3
 1131 0143 D3070000 		.4byte	.LASF28
 1132 0147 0A       		.byte	0xa
 1133 0148 50       		.byte	0x50
 1134 0149 CA000000 		.4byte	0xca
 1135 014d 03       		.uleb128 0x3
 1136 014e 58040000 		.4byte	.LASF29
 1137 0152 0A       		.byte	0xa
 1138 0153 51       		.byte	0x51
 1139 0154 BF000000 		.4byte	0xbf
 1140 0158 03       		.uleb128 0x3
 1141 0159 78050000 		.4byte	.LASF30
 1142 015d 0A       		.byte	0xa
 1143 015e 52       		.byte	0x52
 1144 015f CA000000 		.4byte	0xca
 1145 0163 03       		.uleb128 0x3
 1146 0164 1F000000 		.4byte	.LASF31
 1147 0168 0B       		.byte	0xb
 1148 0169 33       		.byte	0x33
 1149 016a CA000000 		.4byte	0xca
 1150 016e 03       		.uleb128 0x3
 1151 016f 03070000 		.4byte	.LASF32
 1152 0173 0B       		.byte	0xb
 1153 0174 3F       		.byte	0x3f
 1154 0175 79010000 		.4byte	0x179
 1155 0179 06       		.uleb128 0x6
 1156 017a 1B050000 		.4byte	.LASF54
 1157 017e 60       		.byte	0x60
 1158 017f 0C       		.byte	0xc
 1159 0180 C2       		.byte	0xc2
 1160 0181 7F020000 		.4byte	0x27f
 1161 0185 07       		.uleb128 0x7
 1162 0186 17020000 		.4byte	.LASF33
 1163 018a 0C       		.byte	0xc
 1164 018b C3       		.byte	0xc3
 1165 018c 8A020000 		.4byte	0x28a
 1166 0190 00       		.byte	0
 1167 0191 07       		.uleb128 0x7
 1168 0192 32020000 		.4byte	.LASF34
 1169 0196 0C       		.byte	0xc
 1170 0197 C5       		.byte	0xc5
 1171 0198 8A020000 		.4byte	0x28a
 1172 019c 04       		.byte	0x4
 1173 019d 07       		.uleb128 0x7
 1174 019e B0030000 		.4byte	.LASF35
 1175 01a2 0C       		.byte	0xc
ARM GAS  /tmp/ccoA48Dc.s 			page 22


 1176 01a3 C7       		.byte	0xc7
 1177 01a4 21010000 		.4byte	0x121
 1178 01a8 08       		.byte	0x8
 1179 01a9 07       		.uleb128 0x7
 1180 01aa 34000000 		.4byte	.LASF36
 1181 01ae 0C       		.byte	0xc
 1182 01af C8       		.byte	0xc8
 1183 01b0 0D070000 		.4byte	0x70d
 1184 01b4 0C       		.byte	0xc
 1185 01b5 07       		.uleb128 0x7
 1186 01b6 06020000 		.4byte	.LASF37
 1187 01ba 0C       		.byte	0xc
 1188 01bb CA       		.byte	0xca
 1189 01bc 8A020000 		.4byte	0x28a
 1190 01c0 10       		.byte	0x10
 1191 01c1 07       		.uleb128 0x7
 1192 01c2 AB070000 		.4byte	.LASF38
 1193 01c6 0C       		.byte	0xc
 1194 01c7 CB       		.byte	0xcb
 1195 01c8 8A020000 		.4byte	0x28a
 1196 01cc 14       		.byte	0x14
 1197 01cd 07       		.uleb128 0x7
 1198 01ce EC090000 		.4byte	.LASF39
 1199 01d2 0C       		.byte	0xc
 1200 01d3 D2       		.byte	0xd2
 1201 01d4 B1090000 		.4byte	0x9b1
 1202 01d8 18       		.byte	0x18
 1203 01d9 07       		.uleb128 0x7
 1204 01da C7090000 		.4byte	.LASF40
 1205 01de 0C       		.byte	0xc
 1206 01df D8       		.byte	0xd8
 1207 01e0 C3090000 		.4byte	0x9c3
 1208 01e4 1C       		.byte	0x1c
 1209 01e5 07       		.uleb128 0x7
 1210 01e6 180A0000 		.4byte	.LASF41
 1211 01ea 0C       		.byte	0xc
 1212 01eb DD       		.byte	0xdd
 1213 01ec 0B010000 		.4byte	0x10b
 1214 01f0 20       		.byte	0x20
 1215 01f1 07       		.uleb128 0x7
 1216 01f2 7C060000 		.4byte	.LASF42
 1217 01f6 0C       		.byte	0xc
 1218 01f7 E1       		.byte	0xe1
 1219 01f8 00010000 		.4byte	0x100
 1220 01fc 21       		.byte	0x21
 1221 01fd 07       		.uleb128 0x7
 1222 01fe B5060000 		.4byte	.LASF43
 1223 0202 0C       		.byte	0xc
 1224 0203 E6       		.byte	0xe6
 1225 0204 16010000 		.4byte	0x116
 1226 0208 22       		.byte	0x22
 1227 0209 08       		.uleb128 0x8
 1228 020a 705F7500 		.ascii	"p_u\000"
 1229 020e 0C       		.byte	0xc
 1230 020f 3101     		.2byte	0x131
 1231 0211 EC080000 		.4byte	0x8ec
 1232 0215 24       		.byte	0x24
ARM GAS  /tmp/ccoA48Dc.s 			page 23


 1233 0216 09       		.uleb128 0x9
 1234 0217 62060000 		.4byte	.LASF44
 1235 021b 0C       		.byte	0xc
 1236 021c 3601     		.2byte	0x136
 1237 021e 90020000 		.4byte	0x290
 1238 0222 28       		.byte	0x28
 1239 0223 09       		.uleb128 0x9
 1240 0224 42000000 		.4byte	.LASF45
 1241 0228 0C       		.byte	0xc
 1242 0229 3C01     		.2byte	0x13c
 1243 022b B4020000 		.4byte	0x2b4
 1244 022f 2C       		.byte	0x2c
 1245 0230 09       		.uleb128 0x9
 1246 0231 060A0000 		.4byte	.LASF46
 1247 0235 0C       		.byte	0xc
 1248 0236 4001     		.2byte	0x140
 1249 0238 2C010000 		.4byte	0x12c
 1250 023c 34       		.byte	0x34
 1251 023d 09       		.uleb128 0x9
 1252 023e 7E040000 		.4byte	.LASF47
 1253 0242 0C       		.byte	0xc
 1254 0243 4601     		.2byte	0x146
 1255 0245 37010000 		.4byte	0x137
 1256 0249 38       		.byte	0x38
 1257 024a 09       		.uleb128 0x9
 1258 024b 7B020000 		.4byte	.LASF48
 1259 024f 0C       		.byte	0xc
 1260 0250 4D01     		.2byte	0x14d
 1261 0252 AB090000 		.4byte	0x9ab
 1262 0256 3C       		.byte	0x3c
 1263 0257 09       		.uleb128 0x9
 1264 0258 1F070000 		.4byte	.LASF49
 1265 025c 0C       		.byte	0xc
 1266 025d 5101     		.2byte	0x151
 1267 025f 21010000 		.4byte	0x121
 1268 0263 40       		.byte	0x40
 1269 0264 09       		.uleb128 0x9
 1270 0265 AD060000 		.4byte	.LASF50
 1271 0269 0C       		.byte	0xc
 1272 026a 5801     		.2byte	0x158
 1273 026c 67030000 		.4byte	0x367
 1274 0270 44       		.byte	0x44
 1275 0271 09       		.uleb128 0x9
 1276 0272 00000000 		.4byte	.LASF51
 1277 0276 0C       		.byte	0xc
 1278 0277 5E01     		.2byte	0x15e
 1279 0279 9D080000 		.4byte	0x89d
 1280 027d 48       		.byte	0x48
 1281 027e 00       		.byte	0
 1282 027f 03       		.uleb128 0x3
 1283 0280 0C070000 		.4byte	.LASF52
 1284 0284 0B       		.byte	0xb
 1285 0285 44       		.byte	0x44
 1286 0286 8A020000 		.4byte	0x28a
 1287 028a 0A       		.uleb128 0xa
 1288 028b 04       		.byte	0x4
 1289 028c 6E010000 		.4byte	0x16e
ARM GAS  /tmp/ccoA48Dc.s 			page 24


 1290 0290 03       		.uleb128 0x3
 1291 0291 19090000 		.4byte	.LASF53
 1292 0295 0B       		.byte	0xb
 1293 0296 49       		.byte	0x49
 1294 0297 9B020000 		.4byte	0x29b
 1295 029b 06       		.uleb128 0x6
 1296 029c 8C050000 		.4byte	.LASF55
 1297 02a0 04       		.byte	0x4
 1298 02a1 0C       		.byte	0xc
 1299 02a2 B0       		.byte	0xb0
 1300 02a3 B4020000 		.4byte	0x2b4
 1301 02a7 07       		.uleb128 0x7
 1302 02a8 17020000 		.4byte	.LASF33
 1303 02ac 0C       		.byte	0xc
 1304 02ad B1       		.byte	0xb1
 1305 02ae 8A020000 		.4byte	0x28a
 1306 02b2 00       		.byte	0
 1307 02b3 00       		.byte	0
 1308 02b4 03       		.uleb128 0x3
 1309 02b5 6B020000 		.4byte	.LASF56
 1310 02b9 0B       		.byte	0xb
 1311 02ba 50       		.byte	0x50
 1312 02bb BF020000 		.4byte	0x2bf
 1313 02bf 06       		.uleb128 0x6
 1314 02c0 C2070000 		.4byte	.LASF57
 1315 02c4 08       		.byte	0x8
 1316 02c5 0C       		.byte	0xc
 1317 02c6 B7       		.byte	0xb7
 1318 02c7 E4020000 		.4byte	0x2e4
 1319 02cb 07       		.uleb128 0x7
 1320 02cc 17020000 		.4byte	.LASF33
 1321 02d0 0C       		.byte	0xc
 1322 02d1 B8       		.byte	0xb8
 1323 02d2 8A020000 		.4byte	0x28a
 1324 02d6 00       		.byte	0
 1325 02d7 07       		.uleb128 0x7
 1326 02d8 32020000 		.4byte	.LASF34
 1327 02dc 0C       		.byte	0xc
 1328 02dd B9       		.byte	0xb9
 1329 02de 8A020000 		.4byte	0x28a
 1330 02e2 04       		.byte	0x4
 1331 02e3 00       		.byte	0
 1332 02e4 03       		.uleb128 0x3
 1333 02e5 53050000 		.4byte	.LASF58
 1334 02e9 0B       		.byte	0xb
 1335 02ea 57       		.byte	0x57
 1336 02eb EF020000 		.4byte	0x2ef
 1337 02ef 0B       		.uleb128 0xb
 1338 02f0 90040000 		.4byte	.LASF59
 1339 02f4 1C       		.byte	0x1c
 1340 02f5 0C       		.byte	0xc
 1341 02f6 9001     		.2byte	0x190
 1342 02f8 4B030000 		.4byte	0x34b
 1343 02fc 09       		.uleb128 0x9
 1344 02fd 18080000 		.4byte	.LASF60
 1345 0301 0C       		.byte	0xc
 1346 0302 9101     		.2byte	0x191
ARM GAS  /tmp/ccoA48Dc.s 			page 25


 1347 0304 B4020000 		.4byte	0x2b4
 1348 0308 00       		.byte	0
 1349 0309 09       		.uleb128 0x9
 1350 030a E0080000 		.4byte	.LASF61
 1351 030e 0C       		.byte	0xc
 1352 030f 9201     		.2byte	0x192
 1353 0311 21010000 		.4byte	0x121
 1354 0315 08       		.byte	0x8
 1355 0316 09       		.uleb128 0x9
 1356 0317 4D000000 		.4byte	.LASF62
 1357 031b 0C       		.byte	0xc
 1358 031c 9401     		.2byte	0x194
 1359 031e 0D070000 		.4byte	0x70d
 1360 0322 0C       		.byte	0xc
 1361 0323 09       		.uleb128 0x9
 1362 0324 71030000 		.4byte	.LASF63
 1363 0328 0C       		.byte	0xc
 1364 0329 9701     		.2byte	0x197
 1365 032b 8A020000 		.4byte	0x28a
 1366 032f 10       		.byte	0x10
 1367 0330 09       		.uleb128 0x9
 1368 0331 68080000 		.4byte	.LASF64
 1369 0335 0C       		.byte	0xc
 1370 0336 9801     		.2byte	0x198
 1371 0338 8A020000 		.4byte	0x28a
 1372 033c 14       		.byte	0x14
 1373 033d 09       		.uleb128 0x9
 1374 033e E6070000 		.4byte	.LASF65
 1375 0342 0C       		.byte	0xc
 1376 0343 9B01     		.2byte	0x19b
 1377 0345 8A020000 		.4byte	0x28a
 1378 0349 18       		.byte	0x18
 1379 034a 00       		.byte	0
 1380 034b 03       		.uleb128 0x3
 1381 034c 6F000000 		.4byte	.LASF66
 1382 0350 0B       		.byte	0xb
 1383 0351 5C       		.byte	0x5c
 1384 0352 56030000 		.4byte	0x356
 1385 0356 0A       		.uleb128 0xa
 1386 0357 04       		.byte	0x4
 1387 0358 5C030000 		.4byte	0x35c
 1388 035c 0C       		.uleb128 0xc
 1389 035d 67030000 		.4byte	0x367
 1390 0361 0D       		.uleb128 0xd
 1391 0362 67030000 		.4byte	0x367
 1392 0366 00       		.byte	0
 1393 0367 0E       		.uleb128 0xe
 1394 0368 04       		.byte	0x4
 1395 0369 03       		.uleb128 0x3
 1396 036a 43050000 		.4byte	.LASF67
 1397 036e 0B       		.byte	0xb
 1398 036f 61       		.byte	0x61
 1399 0370 74030000 		.4byte	0x374
 1400 0374 0B       		.uleb128 0xb
 1401 0375 68070000 		.4byte	.LASF68
 1402 0379 14       		.byte	0x14
 1403 037a 0C       		.byte	0xc
ARM GAS  /tmp/ccoA48Dc.s 			page 26


 1404 037b 6B01     		.2byte	0x16b
 1405 037d C3030000 		.4byte	0x3c3
 1406 0381 09       		.uleb128 0x9
 1407 0382 FF050000 		.4byte	.LASF69
 1408 0386 0C       		.byte	0xc
 1409 0387 6C01     		.2byte	0x16c
 1410 0389 C9090000 		.4byte	0x9c9
 1411 038d 00       		.byte	0
 1412 038e 09       		.uleb128 0x9
 1413 038f 07060000 		.4byte	.LASF70
 1414 0393 0C       		.byte	0xc
 1415 0394 6D01     		.2byte	0x16d
 1416 0396 C9090000 		.4byte	0x9c9
 1417 039a 04       		.byte	0x4
 1418 039b 09       		.uleb128 0x9
 1419 039c 4B070000 		.4byte	.LASF71
 1420 03a0 0C       		.byte	0xc
 1421 03a1 6E01     		.2byte	0x16e
 1422 03a3 63010000 		.4byte	0x163
 1423 03a7 08       		.byte	0x8
 1424 03a8 09       		.uleb128 0x9
 1425 03a9 5E040000 		.4byte	.LASF72
 1426 03ad 0C       		.byte	0xc
 1427 03ae 6F01     		.2byte	0x16f
 1428 03b0 4B030000 		.4byte	0x34b
 1429 03b4 0C       		.byte	0xc
 1430 03b5 09       		.uleb128 0x9
 1431 03b6 B7010000 		.4byte	.LASF73
 1432 03ba 0C       		.byte	0xc
 1433 03bb 7101     		.2byte	0x171
 1434 03bd 67030000 		.4byte	0x367
 1435 03c1 10       		.byte	0x10
 1436 03c2 00       		.byte	0
 1437 03c3 03       		.uleb128 0x3
 1438 03c4 25050000 		.4byte	.LASF74
 1439 03c8 0B       		.byte	0xb
 1440 03c9 66       		.byte	0x66
 1441 03ca CE030000 		.4byte	0x3ce
 1442 03ce 0B       		.uleb128 0xb
 1443 03cf 78000000 		.4byte	.LASF75
 1444 03d3 10       		.byte	0x10
 1445 03d4 0C       		.byte	0xc
 1446 03d5 7B01     		.2byte	0x17b
 1447 03d7 10040000 		.4byte	0x410
 1448 03db 09       		.uleb128 0x9
 1449 03dc FF050000 		.4byte	.LASF69
 1450 03e0 0C       		.byte	0xc
 1451 03e1 7C01     		.2byte	0x17c
 1452 03e3 C9090000 		.4byte	0x9c9
 1453 03e7 00       		.byte	0
 1454 03e8 09       		.uleb128 0x9
 1455 03e9 07060000 		.4byte	.LASF70
 1456 03ed 0C       		.byte	0xc
 1457 03ee 7E01     		.2byte	0x17e
 1458 03f0 C9090000 		.4byte	0x9c9
 1459 03f4 04       		.byte	0x4
 1460 03f5 09       		.uleb128 0x9
ARM GAS  /tmp/ccoA48Dc.s 			page 27


 1461 03f6 4B070000 		.4byte	.LASF71
 1462 03fa 0C       		.byte	0xc
 1463 03fb 8001     		.2byte	0x180
 1464 03fd 63010000 		.4byte	0x163
 1465 0401 08       		.byte	0x8
 1466 0402 09       		.uleb128 0x9
 1467 0403 81090000 		.4byte	.LASF76
 1468 0407 0C       		.byte	0xc
 1469 0408 8801     		.2byte	0x188
 1470 040a 63010000 		.4byte	0x163
 1471 040e 0C       		.byte	0xc
 1472 040f 00       		.byte	0
 1473 0410 03       		.uleb128 0x3
 1474 0411 79030000 		.4byte	.LASF77
 1475 0415 0B       		.byte	0xb
 1476 0416 6B       		.byte	0x6b
 1477 0417 1B040000 		.4byte	0x41b
 1478 041b 0F       		.uleb128 0xf
 1479 041c E7080000 		.4byte	.LASF78
 1480 0420 1404     		.2byte	0x414
 1481 0422 0C       		.byte	0xc
 1482 0423 A201     		.2byte	0x1a2
 1483 0425 5E040000 		.4byte	0x45e
 1484 0429 09       		.uleb128 0x9
 1485 042a 5A030000 		.4byte	.LASF79
 1486 042e 0C       		.byte	0xc
 1487 042f AA01     		.2byte	0x1aa
 1488 0431 CF090000 		.4byte	0x9cf
 1489 0435 00       		.byte	0
 1490 0436 09       		.uleb128 0x9
 1491 0437 A3040000 		.4byte	.LASF80
 1492 043b 0C       		.byte	0xc
 1493 043c AF01     		.2byte	0x1af
 1494 043e 4D010000 		.4byte	0x14d
 1495 0442 04       		.byte	0x4
 1496 0443 09       		.uleb128 0x9
 1497 0444 5B010000 		.4byte	.LASF81
 1498 0448 0C       		.byte	0xc
 1499 0449 B301     		.2byte	0x1b3
 1500 044b 4D010000 		.4byte	0x14d
 1501 044f 08       		.byte	0x8
 1502 0450 09       		.uleb128 0x9
 1503 0451 64030000 		.4byte	.LASF82
 1504 0455 0C       		.byte	0xc
 1505 0456 B901     		.2byte	0x1b9
 1506 0458 2F080000 		.4byte	0x82f
 1507 045c 0C       		.byte	0xc
 1508 045d 00       		.byte	0
 1509 045e 03       		.uleb128 0x3
 1510 045f AC090000 		.4byte	.LASF83
 1511 0463 0B       		.byte	0xb
 1512 0464 70       		.byte	0x70
 1513 0465 69040000 		.4byte	0x469
 1514 0469 0F       		.uleb128 0xf
 1515 046a 28090000 		.4byte	.LASF84
 1516 046e D805     		.2byte	0x5d8
 1517 0470 0C       		.byte	0xc
ARM GAS  /tmp/ccoA48Dc.s 			page 28


 1518 0471 C201     		.2byte	0x1c2
 1519 0473 D6040000 		.4byte	0x4d6
 1520 0477 09       		.uleb128 0x9
 1521 0478 37080000 		.4byte	.LASF85
 1522 047c 0C       		.byte	0xc
 1523 047d C601     		.2byte	0x1c6
 1524 047f E4020000 		.4byte	0x2e4
 1525 0483 00       		.byte	0
 1526 0484 09       		.uleb128 0x9
 1527 0485 02090000 		.4byte	.LASF86
 1528 0489 0C       		.byte	0xc
 1529 048a CA01     		.2byte	0x1ca
 1530 048c C3030000 		.4byte	0x3c3
 1531 0490 1C       		.byte	0x1c
 1532 0491 08       		.uleb128 0x8
 1533 0492 64626700 		.ascii	"dbg\000"
 1534 0496 0C       		.byte	0xc
 1535 0497 CE01     		.2byte	0x1ce
 1536 0499 10040000 		.4byte	0x410
 1537 049d 2C       		.byte	0x2c
 1538 049e 10       		.uleb128 0x10
 1539 049f F0070000 		.4byte	.LASF87
 1540 04a3 0C       		.byte	0xc
 1541 04a4 D201     		.2byte	0x1d2
 1542 04a6 6E010000 		.4byte	0x16e
 1543 04aa 4004     		.2byte	0x440
 1544 04ac 11       		.uleb128 0x11
 1545 04ad 746D00   		.ascii	"tm\000"
 1546 04b0 0C       		.byte	0xc
 1547 04b1 D701     		.2byte	0x1d7
 1548 04b3 4F080000 		.4byte	0x84f
 1549 04b7 A004     		.2byte	0x4a0
 1550 04b9 10       		.uleb128 0x10
 1551 04ba 87070000 		.4byte	.LASF88
 1552 04be 0C       		.byte	0xc
 1553 04bf DD01     		.2byte	0x1dd
 1554 04c1 E1080000 		.4byte	0x8e1
 1555 04c5 A804     		.2byte	0x4a8
 1556 04c7 10       		.uleb128 0x10
 1557 04c8 89060000 		.4byte	.LASF89
 1558 04cc 0C       		.byte	0xc
 1559 04cd E301     		.2byte	0x1e3
 1560 04cf D4090000 		.4byte	0x9d4
 1561 04d3 E004     		.2byte	0x4e0
 1562 04d5 00       		.byte	0
 1563 04d6 04       		.uleb128 0x4
 1564 04d7 04       		.byte	0x4
 1565 04d8 07       		.byte	0x7
 1566 04d9 0F000000 		.4byte	.LASF90
 1567 04dd 12       		.uleb128 0x12
 1568 04de CA000000 		.4byte	0xca
 1569 04e2 ED040000 		.4byte	0x4ed
 1570 04e6 13       		.uleb128 0x13
 1571 04e7 D6040000 		.4byte	0x4d6
 1572 04eb 01       		.byte	0x1
 1573 04ec 00       		.byte	0
 1574 04ed 14       		.uleb128 0x14
ARM GAS  /tmp/ccoA48Dc.s 			page 29


 1575 04ee 88       		.byte	0x88
 1576 04ef 0D       		.byte	0xd
 1577 04f0 6702     		.2byte	0x267
 1578 04f2 7C060000 		.4byte	0x67c
 1579 04f6 08       		.uleb128 0x8
 1580 04f7 435200   		.ascii	"CR\000"
 1581 04fa 0D       		.byte	0xd
 1582 04fb 6902     		.2byte	0x269
 1583 04fd E5000000 		.4byte	0xe5
 1584 0501 00       		.byte	0
 1585 0502 09       		.uleb128 0x9
 1586 0503 BD050000 		.4byte	.LASF91
 1587 0507 0D       		.byte	0xd
 1588 0508 6A02     		.2byte	0x26a
 1589 050a E5000000 		.4byte	0xe5
 1590 050e 04       		.byte	0x4
 1591 050f 09       		.uleb128 0x9
 1592 0510 9E040000 		.4byte	.LASF92
 1593 0514 0D       		.byte	0xd
 1594 0515 6B02     		.2byte	0x26b
 1595 0517 E5000000 		.4byte	0xe5
 1596 051b 08       		.byte	0x8
 1597 051c 08       		.uleb128 0x8
 1598 051d 43495200 		.ascii	"CIR\000"
 1599 0521 0D       		.byte	0xd
 1600 0522 6C02     		.2byte	0x26c
 1601 0524 E5000000 		.4byte	0xe5
 1602 0528 0C       		.byte	0xc
 1603 0529 09       		.uleb128 0x9
 1604 052a A7030000 		.4byte	.LASF93
 1605 052e 0D       		.byte	0xd
 1606 052f 6D02     		.2byte	0x26d
 1607 0531 E5000000 		.4byte	0xe5
 1608 0535 10       		.byte	0x10
 1609 0536 09       		.uleb128 0x9
 1610 0537 81080000 		.4byte	.LASF94
 1611 053b 0D       		.byte	0xd
 1612 053c 6E02     		.2byte	0x26e
 1613 053e E5000000 		.4byte	0xe5
 1614 0542 14       		.byte	0x14
 1615 0543 09       		.uleb128 0x9
 1616 0544 FA060000 		.4byte	.LASF95
 1617 0548 0D       		.byte	0xd
 1618 0549 6F02     		.2byte	0x26f
 1619 054b E5000000 		.4byte	0xe5
 1620 054f 18       		.byte	0x18
 1621 0550 09       		.uleb128 0x9
 1622 0551 10030000 		.4byte	.LASF96
 1623 0555 0D       		.byte	0xd
 1624 0556 7002     		.2byte	0x270
 1625 0558 CA000000 		.4byte	0xca
 1626 055c 1C       		.byte	0x1c
 1627 055d 09       		.uleb128 0x9
 1628 055e 54070000 		.4byte	.LASF97
 1629 0562 0D       		.byte	0xd
 1630 0563 7102     		.2byte	0x271
 1631 0565 E5000000 		.4byte	0xe5
ARM GAS  /tmp/ccoA48Dc.s 			page 30


 1632 0569 20       		.byte	0x20
 1633 056a 09       		.uleb128 0x9
 1634 056b 14060000 		.4byte	.LASF98
 1635 056f 0D       		.byte	0xd
 1636 0570 7202     		.2byte	0x272
 1637 0572 E5000000 		.4byte	0xe5
 1638 0576 24       		.byte	0x24
 1639 0577 09       		.uleb128 0x9
 1640 0578 1A030000 		.4byte	.LASF99
 1641 057c 0D       		.byte	0xd
 1642 057d 7302     		.2byte	0x273
 1643 057f DD040000 		.4byte	0x4dd
 1644 0583 28       		.byte	0x28
 1645 0584 09       		.uleb128 0x9
 1646 0585 4F080000 		.4byte	.LASF100
 1647 0589 0D       		.byte	0xd
 1648 058a 7402     		.2byte	0x274
 1649 058c E5000000 		.4byte	0xe5
 1650 0590 30       		.byte	0x30
 1651 0591 09       		.uleb128 0x9
 1652 0592 C2030000 		.4byte	.LASF101
 1653 0596 0D       		.byte	0xd
 1654 0597 7502     		.2byte	0x275
 1655 0599 E5000000 		.4byte	0xe5
 1656 059d 34       		.byte	0x34
 1657 059e 09       		.uleb128 0x9
 1658 059f 60080000 		.4byte	.LASF102
 1659 05a3 0D       		.byte	0xd
 1660 05a4 7602     		.2byte	0x276
 1661 05a6 E5000000 		.4byte	0xe5
 1662 05aa 38       		.byte	0x38
 1663 05ab 09       		.uleb128 0x9
 1664 05ac 98030000 		.4byte	.LASF103
 1665 05b0 0D       		.byte	0xd
 1666 05b1 7702     		.2byte	0x277
 1667 05b3 CA000000 		.4byte	0xca
 1668 05b7 3C       		.byte	0x3c
 1669 05b8 09       		.uleb128 0x9
 1670 05b9 79070000 		.4byte	.LASF104
 1671 05bd 0D       		.byte	0xd
 1672 05be 7802     		.2byte	0x278
 1673 05c0 E5000000 		.4byte	0xe5
 1674 05c4 40       		.byte	0x40
 1675 05c5 09       		.uleb128 0x9
 1676 05c6 95020000 		.4byte	.LASF105
 1677 05ca 0D       		.byte	0xd
 1678 05cb 7902     		.2byte	0x279
 1679 05cd E5000000 		.4byte	0xe5
 1680 05d1 44       		.byte	0x44
 1681 05d2 09       		.uleb128 0x9
 1682 05d3 32030000 		.4byte	.LASF106
 1683 05d7 0D       		.byte	0xd
 1684 05d8 7A02     		.2byte	0x27a
 1685 05da DD040000 		.4byte	0x4dd
 1686 05de 48       		.byte	0x48
 1687 05df 09       		.uleb128 0x9
 1688 05e0 A6020000 		.4byte	.LASF107
ARM GAS  /tmp/ccoA48Dc.s 			page 31


 1689 05e4 0D       		.byte	0xd
 1690 05e5 7B02     		.2byte	0x27b
 1691 05e7 E5000000 		.4byte	0xe5
 1692 05eb 50       		.byte	0x50
 1693 05ec 09       		.uleb128 0x9
 1694 05ed D7010000 		.4byte	.LASF108
 1695 05f1 0D       		.byte	0xd
 1696 05f2 7C02     		.2byte	0x27c
 1697 05f4 E5000000 		.4byte	0xe5
 1698 05f8 54       		.byte	0x54
 1699 05f9 09       		.uleb128 0x9
 1700 05fa FB070000 		.4byte	.LASF109
 1701 05fe 0D       		.byte	0xd
 1702 05ff 7D02     		.2byte	0x27d
 1703 0601 E5000000 		.4byte	0xe5
 1704 0605 58       		.byte	0x58
 1705 0606 09       		.uleb128 0x9
 1706 0607 3C030000 		.4byte	.LASF110
 1707 060b 0D       		.byte	0xd
 1708 060c 7E02     		.2byte	0x27e
 1709 060e CA000000 		.4byte	0xca
 1710 0612 5C       		.byte	0x5c
 1711 0613 09       		.uleb128 0x9
 1712 0614 E6060000 		.4byte	.LASF111
 1713 0618 0D       		.byte	0xd
 1714 0619 7F02     		.2byte	0x27f
 1715 061b E5000000 		.4byte	0xe5
 1716 061f 60       		.byte	0x60
 1717 0620 09       		.uleb128 0x9
 1718 0621 4E060000 		.4byte	.LASF112
 1719 0625 0D       		.byte	0xd
 1720 0626 8002     		.2byte	0x280
 1721 0628 E5000000 		.4byte	0xe5
 1722 062c 64       		.byte	0x64
 1723 062d 09       		.uleb128 0x9
 1724 062e 46030000 		.4byte	.LASF113
 1725 0632 0D       		.byte	0xd
 1726 0633 8102     		.2byte	0x281
 1727 0635 DD040000 		.4byte	0x4dd
 1728 0639 68       		.byte	0x68
 1729 063a 09       		.uleb128 0x9
 1730 063b 53040000 		.4byte	.LASF114
 1731 063f 0D       		.byte	0xd
 1732 0640 8202     		.2byte	0x282
 1733 0642 E5000000 		.4byte	0xe5
 1734 0646 70       		.byte	0x70
 1735 0647 08       		.uleb128 0x8
 1736 0648 43535200 		.ascii	"CSR\000"
 1737 064c 0D       		.byte	0xd
 1738 064d 8302     		.2byte	0x283
 1739 064f E5000000 		.4byte	0xe5
 1740 0653 74       		.byte	0x74
 1741 0654 09       		.uleb128 0x9
 1742 0655 50030000 		.4byte	.LASF115
 1743 0659 0D       		.byte	0xd
 1744 065a 8402     		.2byte	0x284
 1745 065c DD040000 		.4byte	0x4dd
ARM GAS  /tmp/ccoA48Dc.s 			page 32


 1746 0660 78       		.byte	0x78
 1747 0661 09       		.uleb128 0x9
 1748 0662 F9050000 		.4byte	.LASF116
 1749 0666 0D       		.byte	0xd
 1750 0667 8502     		.2byte	0x285
 1751 0669 E5000000 		.4byte	0xe5
 1752 066d 80       		.byte	0x80
 1753 066e 09       		.uleb128 0x9
 1754 066f 29000000 		.4byte	.LASF117
 1755 0673 0D       		.byte	0xd
 1756 0674 8602     		.2byte	0x286
 1757 0676 E5000000 		.4byte	0xe5
 1758 067a 84       		.byte	0x84
 1759 067b 00       		.byte	0
 1760 067c 15       		.uleb128 0x15
 1761 067d A4080000 		.4byte	.LASF118
 1762 0681 0D       		.byte	0xd
 1763 0682 8802     		.2byte	0x288
 1764 0684 ED040000 		.4byte	0x4ed
 1765 0688 14       		.uleb128 0x14
 1766 0689 1C       		.byte	0x1c
 1767 068a 0D       		.byte	0xd
 1768 068b 0903     		.2byte	0x309
 1769 068d EB060000 		.4byte	0x6eb
 1770 0691 08       		.uleb128 0x8
 1771 0692 535200   		.ascii	"SR\000"
 1772 0695 0D       		.byte	0xd
 1773 0696 0B03     		.2byte	0x30b
 1774 0698 E5000000 		.4byte	0xe5
 1775 069c 00       		.byte	0
 1776 069d 08       		.uleb128 0x8
 1777 069e 445200   		.ascii	"DR\000"
 1778 06a1 0D       		.byte	0xd
 1779 06a2 0C03     		.2byte	0x30c
 1780 06a4 E5000000 		.4byte	0xe5
 1781 06a8 04       		.byte	0x4
 1782 06a9 08       		.uleb128 0x8
 1783 06aa 42525200 		.ascii	"BRR\000"
 1784 06ae 0D       		.byte	0xd
 1785 06af 0D03     		.2byte	0x30d
 1786 06b1 E5000000 		.4byte	0xe5
 1787 06b5 08       		.byte	0x8
 1788 06b6 08       		.uleb128 0x8
 1789 06b7 43523100 		.ascii	"CR1\000"
 1790 06bb 0D       		.byte	0xd
 1791 06bc 0E03     		.2byte	0x30e
 1792 06be E5000000 		.4byte	0xe5
 1793 06c2 0C       		.byte	0xc
 1794 06c3 08       		.uleb128 0x8
 1795 06c4 43523200 		.ascii	"CR2\000"
 1796 06c8 0D       		.byte	0xd
 1797 06c9 0F03     		.2byte	0x30f
 1798 06cb E5000000 		.4byte	0xe5
 1799 06cf 10       		.byte	0x10
 1800 06d0 08       		.uleb128 0x8
 1801 06d1 43523300 		.ascii	"CR3\000"
 1802 06d5 0D       		.byte	0xd
ARM GAS  /tmp/ccoA48Dc.s 			page 33


 1803 06d6 1003     		.2byte	0x310
 1804 06d8 E5000000 		.4byte	0xe5
 1805 06dc 14       		.byte	0x14
 1806 06dd 09       		.uleb128 0x9
 1807 06de 0F060000 		.4byte	.LASF119
 1808 06e2 0D       		.byte	0xd
 1809 06e3 1103     		.2byte	0x311
 1810 06e5 E5000000 		.4byte	0xe5
 1811 06e9 18       		.byte	0x18
 1812 06ea 00       		.byte	0
 1813 06eb 15       		.uleb128 0x15
 1814 06ec F0030000 		.4byte	.LASF120
 1815 06f0 0D       		.byte	0xd
 1816 06f1 1203     		.2byte	0x312
 1817 06f3 88060000 		.4byte	0x688
 1818 06f7 03       		.uleb128 0x3
 1819 06f8 8C020000 		.4byte	.LASF121
 1820 06fc 0E       		.byte	0xe
 1821 06fd 65       		.byte	0x65
 1822 06fe 67030000 		.4byte	0x367
 1823 0702 03       		.uleb128 0x3
 1824 0703 E5030000 		.4byte	.LASF122
 1825 0707 0E       		.byte	0xe
 1826 0708 6D       		.byte	0x6d
 1827 0709 D5000000 		.4byte	0xd5
 1828 070d 06       		.uleb128 0x6
 1829 070e EF020000 		.4byte	.LASF123
 1830 0712 04       		.byte	0x4
 1831 0713 0E       		.byte	0xe
 1832 0714 89       		.byte	0x89
 1833 0715 26070000 		.4byte	0x726
 1834 0719 16       		.uleb128 0x16
 1835 071a 72313300 		.ascii	"r13\000"
 1836 071e 0E       		.byte	0xe
 1837 071f 8A       		.byte	0x8a
 1838 0720 A1070000 		.4byte	0x7a1
 1839 0724 00       		.byte	0
 1840 0725 00       		.byte	0
 1841 0726 06       		.uleb128 0x6
 1842 0727 2A070000 		.4byte	.LASF124
 1843 072b 24       		.byte	0x24
 1844 072c 01       		.byte	0x1
 1845 072d FD       		.byte	0xfd
 1846 072e A1070000 		.4byte	0x7a1
 1847 0732 08       		.uleb128 0x8
 1848 0733 723400   		.ascii	"r4\000"
 1849 0736 01       		.byte	0x1
 1850 0737 1001     		.2byte	0x110
 1851 0739 F7060000 		.4byte	0x6f7
 1852 073d 00       		.byte	0
 1853 073e 08       		.uleb128 0x8
 1854 073f 723500   		.ascii	"r5\000"
 1855 0742 01       		.byte	0x1
 1856 0743 1101     		.2byte	0x111
 1857 0745 F7060000 		.4byte	0x6f7
 1858 0749 04       		.byte	0x4
 1859 074a 08       		.uleb128 0x8
ARM GAS  /tmp/ccoA48Dc.s 			page 34


 1860 074b 723600   		.ascii	"r6\000"
 1861 074e 01       		.byte	0x1
 1862 074f 1201     		.2byte	0x112
 1863 0751 F7060000 		.4byte	0x6f7
 1864 0755 08       		.byte	0x8
 1865 0756 08       		.uleb128 0x8
 1866 0757 723700   		.ascii	"r7\000"
 1867 075a 01       		.byte	0x1
 1868 075b 1301     		.2byte	0x113
 1869 075d F7060000 		.4byte	0x6f7
 1870 0761 0C       		.byte	0xc
 1871 0762 08       		.uleb128 0x8
 1872 0763 723800   		.ascii	"r8\000"
 1873 0766 01       		.byte	0x1
 1874 0767 1401     		.2byte	0x114
 1875 0769 F7060000 		.4byte	0x6f7
 1876 076d 10       		.byte	0x10
 1877 076e 08       		.uleb128 0x8
 1878 076f 723900   		.ascii	"r9\000"
 1879 0772 01       		.byte	0x1
 1880 0773 1501     		.2byte	0x115
 1881 0775 F7060000 		.4byte	0x6f7
 1882 0779 14       		.byte	0x14
 1883 077a 08       		.uleb128 0x8
 1884 077b 72313000 		.ascii	"r10\000"
 1885 077f 01       		.byte	0x1
 1886 0780 1601     		.2byte	0x116
 1887 0782 F7060000 		.4byte	0x6f7
 1888 0786 18       		.byte	0x18
 1889 0787 08       		.uleb128 0x8
 1890 0788 72313100 		.ascii	"r11\000"
 1891 078c 01       		.byte	0x1
 1892 078d 1701     		.2byte	0x117
 1893 078f F7060000 		.4byte	0x6f7
 1894 0793 1C       		.byte	0x1c
 1895 0794 08       		.uleb128 0x8
 1896 0795 6C7200   		.ascii	"lr\000"
 1897 0798 01       		.byte	0x1
 1898 0799 1801     		.2byte	0x118
 1899 079b F7060000 		.4byte	0x6f7
 1900 079f 20       		.byte	0x20
 1901 07a0 00       		.byte	0
 1902 07a1 0A       		.uleb128 0xa
 1903 07a2 04       		.byte	0x4
 1904 07a3 26070000 		.4byte	0x726
 1905 07a7 17       		.uleb128 0x17
 1906 07a8 10       		.byte	0x10
 1907 07a9 0F       		.byte	0xf
 1908 07aa 51       		.byte	0x51
 1909 07ab E0070000 		.4byte	0x7e0
 1910 07af 07       		.uleb128 0x7
 1911 07b0 E4090000 		.4byte	.LASF125
 1912 07b4 0F       		.byte	0xf
 1913 07b5 55       		.byte	0x55
 1914 07b6 63010000 		.4byte	0x163
 1915 07ba 00       		.byte	0
 1916 07bb 07       		.uleb128 0x7
ARM GAS  /tmp/ccoA48Dc.s 			page 35


 1917 07bc 79010000 		.4byte	.LASF126
 1918 07c0 0F       		.byte	0xf
 1919 07c1 59       		.byte	0x59
 1920 07c2 8A020000 		.4byte	0x28a
 1921 07c6 04       		.byte	0x4
 1922 07c7 07       		.uleb128 0x7
 1923 07c8 72060000 		.4byte	.LASF127
 1924 07cc 0F       		.byte	0xf
 1925 07cd 5D       		.byte	0x5d
 1926 07ce 67030000 		.4byte	0x367
 1927 07d2 08       		.byte	0x8
 1928 07d3 07       		.uleb128 0x7
 1929 07d4 DD040000 		.4byte	.LASF128
 1930 07d8 0F       		.byte	0xf
 1931 07d9 61       		.byte	0x61
 1932 07da A9000000 		.4byte	0xa9
 1933 07de 0C       		.byte	0xc
 1934 07df 00       		.byte	0
 1935 07e0 03       		.uleb128 0x3
 1936 07e1 9C050000 		.4byte	.LASF129
 1937 07e5 0F       		.byte	0xf
 1938 07e6 62       		.byte	0x62
 1939 07e7 A7070000 		.4byte	0x7a7
 1940 07eb 18       		.uleb128 0x18
 1941 07ec 0804     		.2byte	0x408
 1942 07ee 0F       		.byte	0xf
 1943 07ef 67       		.byte	0x67
 1944 07f0 19080000 		.4byte	0x819
 1945 07f4 07       		.uleb128 0x7
 1946 07f5 1D060000 		.4byte	.LASF130
 1947 07f9 0F       		.byte	0xf
 1948 07fa 6B       		.byte	0x6b
 1949 07fb 33000000 		.4byte	0x33
 1950 07ff 00       		.byte	0
 1951 0800 07       		.uleb128 0x7
 1952 0801 FA090000 		.4byte	.LASF131
 1953 0805 0F       		.byte	0xf
 1954 0806 6F       		.byte	0x6f
 1955 0807 19080000 		.4byte	0x819
 1956 080b 04       		.byte	0x4
 1957 080c 07       		.uleb128 0x7
 1958 080d F0060000 		.4byte	.LASF132
 1959 0811 0F       		.byte	0xf
 1960 0812 73       		.byte	0x73
 1961 0813 1F080000 		.4byte	0x81f
 1962 0817 08       		.byte	0x8
 1963 0818 00       		.byte	0
 1964 0819 0A       		.uleb128 0xa
 1965 081a 04       		.byte	0x4
 1966 081b E0070000 		.4byte	0x7e0
 1967 081f 12       		.uleb128 0x12
 1968 0820 E0070000 		.4byte	0x7e0
 1969 0824 2F080000 		.4byte	0x82f
 1970 0828 13       		.uleb128 0x13
 1971 0829 D6040000 		.4byte	0x4d6
 1972 082d 3F       		.byte	0x3f
 1973 082e 00       		.byte	0
ARM GAS  /tmp/ccoA48Dc.s 			page 36


 1974 082f 03       		.uleb128 0x3
 1975 0830 66040000 		.4byte	.LASF133
 1976 0834 0F       		.byte	0xf
 1977 0835 74       		.byte	0x74
 1978 0836 EB070000 		.4byte	0x7eb
 1979 083a 17       		.uleb128 0x17
 1980 083b 04       		.byte	0x4
 1981 083c 10       		.byte	0x10
 1982 083d 38       		.byte	0x38
 1983 083e 4F080000 		.4byte	0x84f
 1984 0842 07       		.uleb128 0x7
 1985 0843 DF060000 		.4byte	.LASF134
 1986 0847 10       		.byte	0x10
 1987 0848 3C       		.byte	0x3c
 1988 0849 EA000000 		.4byte	0xea
 1989 084d 00       		.byte	0
 1990 084e 00       		.byte	0
 1991 084f 03       		.uleb128 0x3
 1992 0850 70080000 		.4byte	.LASF135
 1993 0854 10       		.byte	0x10
 1994 0855 3D       		.byte	0x3d
 1995 0856 3A080000 		.4byte	0x83a
 1996 085a 17       		.uleb128 0x17
 1997 085b 18       		.byte	0x18
 1998 085c 10       		.byte	0x10
 1999 085d 48       		.byte	0x48
 2000 085e 9D080000 		.4byte	0x89d
 2001 0862 07       		.uleb128 0x7
 2002 0863 13080000 		.4byte	.LASF136
 2003 0867 10       		.byte	0x10
 2004 0868 49       		.byte	0x49
 2005 0869 EA000000 		.4byte	0xea
 2006 086d 00       		.byte	0
 2007 086e 07       		.uleb128 0x7
 2008 086f FE030000 		.4byte	.LASF137
 2009 0873 10       		.byte	0x10
 2010 0874 4A       		.byte	0x4a
 2011 0875 EA000000 		.4byte	0xea
 2012 0879 04       		.byte	0x4
 2013 087a 07       		.uleb128 0x7
 2014 087b 010A0000 		.4byte	.LASF138
 2015 087f 10       		.byte	0x10
 2016 0880 4B       		.byte	0x4b
 2017 0881 EA000000 		.4byte	0xea
 2018 0885 08       		.byte	0x8
 2019 0886 16       		.uleb128 0x16
 2020 0887 6E00     		.ascii	"n\000"
 2021 0889 10       		.byte	0x10
 2022 088a 4C       		.byte	0x4c
 2023 088b 58010000 		.4byte	0x158
 2024 088f 0C       		.byte	0xc
 2025 0890 07       		.uleb128 0x7
 2026 0891 B6020000 		.4byte	.LASF139
 2027 0895 10       		.byte	0x10
 2028 0896 4D       		.byte	0x4d
 2029 0897 F5000000 		.4byte	0xf5
 2030 089b 10       		.byte	0x10
ARM GAS  /tmp/ccoA48Dc.s 			page 37


 2031 089c 00       		.byte	0
 2032 089d 03       		.uleb128 0x3
 2033 089e 7F010000 		.4byte	.LASF140
 2034 08a2 10       		.byte	0x10
 2035 08a3 4E       		.byte	0x4e
 2036 08a4 5A080000 		.4byte	0x85a
 2037 08a8 17       		.uleb128 0x17
 2038 08a9 38       		.byte	0x38
 2039 08aa 11       		.byte	0x11
 2040 08ab 38       		.byte	0x38
 2041 08ac E1080000 		.4byte	0x8e1
 2042 08b0 07       		.uleb128 0x7
 2043 08b1 AB050000 		.4byte	.LASF141
 2044 08b5 11       		.byte	0x11
 2045 08b6 39       		.byte	0x39
 2046 08b7 58010000 		.4byte	0x158
 2047 08bb 00       		.byte	0
 2048 08bc 07       		.uleb128 0x7
 2049 08bd D1030000 		.4byte	.LASF142
 2050 08c1 11       		.byte	0x11
 2051 08c2 3A       		.byte	0x3a
 2052 08c3 58010000 		.4byte	0x158
 2053 08c7 04       		.byte	0x4
 2054 08c8 07       		.uleb128 0x7
 2055 08c9 E6040000 		.4byte	.LASF143
 2056 08cd 11       		.byte	0x11
 2057 08ce 3B       		.byte	0x3b
 2058 08cf 9D080000 		.4byte	0x89d
 2059 08d3 08       		.byte	0x8
 2060 08d4 07       		.uleb128 0x7
 2061 08d5 C0040000 		.4byte	.LASF144
 2062 08d9 11       		.byte	0x11
 2063 08da 3D       		.byte	0x3d
 2064 08db 9D080000 		.4byte	0x89d
 2065 08df 20       		.byte	0x20
 2066 08e0 00       		.byte	0
 2067 08e1 03       		.uleb128 0x3
 2068 08e2 C6060000 		.4byte	.LASF145
 2069 08e6 11       		.byte	0x11
 2070 08e7 3F       		.byte	0x3f
 2071 08e8 A8080000 		.4byte	0x8a8
 2072 08ec 19       		.uleb128 0x19
 2073 08ed 04       		.byte	0x4
 2074 08ee 0C       		.byte	0xc
 2075 08ef FA       		.byte	0xfa
 2076 08f0 49090000 		.4byte	0x949
 2077 08f4 1A       		.uleb128 0x1a
 2078 08f5 7A090000 		.4byte	.LASF146
 2079 08f9 0C       		.byte	0xc
 2080 08fa 0101     		.2byte	0x101
 2081 08fc 2C010000 		.4byte	0x12c
 2082 0900 1A       		.uleb128 0x1a
 2083 0901 BE010000 		.4byte	.LASF147
 2084 0905 0C       		.byte	0xc
 2085 0906 0801     		.2byte	0x108
 2086 0908 2C010000 		.4byte	0x12c
 2087 090c 1A       		.uleb128 0x1a
ARM GAS  /tmp/ccoA48Dc.s 			page 38


 2088 090d CA030000 		.4byte	.LASF148
 2089 0911 0C       		.byte	0xc
 2090 0912 0F01     		.2byte	0x10f
 2091 0914 67030000 		.4byte	0x367
 2092 0918 1A       		.uleb128 0x1a
 2093 0919 F7020000 		.4byte	.LASF149
 2094 091d 0C       		.byte	0xc
 2095 091e 1601     		.2byte	0x116
 2096 0920 49090000 		.4byte	0x949
 2097 0924 1A       		.uleb128 0x1a
 2098 0925 18000000 		.4byte	.LASF150
 2099 0929 0C       		.byte	0xc
 2100 092a 1E01     		.2byte	0x11e
 2101 092c 74090000 		.4byte	0x974
 2102 0930 1A       		.uleb128 0x1a
 2103 0931 89040000 		.4byte	.LASF151
 2104 0935 0C       		.byte	0xc
 2105 0936 2701     		.2byte	0x127
 2106 0938 AB090000 		.4byte	0x9ab
 2107 093c 1A       		.uleb128 0x1a
 2108 093d D4020000 		.4byte	.LASF152
 2109 0941 0C       		.byte	0xc
 2110 0942 2F01     		.2byte	0x12f
 2111 0944 37010000 		.4byte	0x137
 2112 0948 00       		.byte	0
 2113 0949 0A       		.uleb128 0xa
 2114 094a 04       		.byte	0x4
 2115 094b 7F020000 		.4byte	0x27f
 2116 094f 06       		.uleb128 0x6
 2117 0950 0E050000 		.4byte	.LASF153
 2118 0954 0C       		.byte	0xc
 2119 0955 12       		.byte	0x12
 2120 0956 34       		.byte	0x34
 2121 0957 74090000 		.4byte	0x974
 2122 095b 07       		.uleb128 0x7
 2123 095c 94080000 		.4byte	.LASF154
 2124 0960 12       		.byte	0x12
 2125 0961 35       		.byte	0x35
 2126 0962 B4020000 		.4byte	0x2b4
 2127 0966 00       		.byte	0
 2128 0967 07       		.uleb128 0x7
 2129 0968 81070000 		.4byte	.LASF155
 2130 096c 12       		.byte	0x12
 2131 096d 37       		.byte	0x37
 2132 096e 4D010000 		.4byte	0x14d
 2133 0972 08       		.byte	0x8
 2134 0973 00       		.byte	0
 2135 0974 0A       		.uleb128 0xa
 2136 0975 04       		.byte	0x4
 2137 0976 4F090000 		.4byte	0x94f
 2138 097a 06       		.uleb128 0x6
 2139 097b D0080000 		.4byte	.LASF156
 2140 097f 10       		.byte	0x10
 2141 0980 13       		.byte	0x13
 2142 0981 39       		.byte	0x39
 2143 0982 AB090000 		.4byte	0x9ab
 2144 0986 07       		.uleb128 0x7
ARM GAS  /tmp/ccoA48Dc.s 			page 39


 2145 0987 DE050000 		.4byte	.LASF157
 2146 098b 13       		.byte	0x13
 2147 098c 3A       		.byte	0x3a
 2148 098d B4020000 		.4byte	0x2b4
 2149 0991 00       		.byte	0
 2150 0992 07       		.uleb128 0x7
 2151 0993 AF010000 		.4byte	.LASF158
 2152 0997 13       		.byte	0x13
 2153 0998 3C       		.byte	0x3c
 2154 0999 8A020000 		.4byte	0x28a
 2155 099d 08       		.byte	0x8
 2156 099e 07       		.uleb128 0x7
 2157 099f F3090000 		.4byte	.LASF159
 2158 09a3 13       		.byte	0x13
 2159 09a4 3E       		.byte	0x3e
 2160 09a5 EF090000 		.4byte	0x9ef
 2161 09a9 0C       		.byte	0xc
 2162 09aa 00       		.byte	0
 2163 09ab 0A       		.uleb128 0xa
 2164 09ac 04       		.byte	0x4
 2165 09ad 7A090000 		.4byte	0x97a
 2166 09b1 0A       		.uleb128 0xa
 2167 09b2 04       		.byte	0x4
 2168 09b3 B7090000 		.4byte	0x9b7
 2169 09b7 1B       		.uleb128 0x1b
 2170 09b8 BC090000 		.4byte	0x9bc
 2171 09bc 04       		.uleb128 0x4
 2172 09bd 01       		.byte	0x1
 2173 09be 08       		.byte	0x8
 2174 09bf A2030000 		.4byte	.LASF160
 2175 09c3 0A       		.uleb128 0xa
 2176 09c4 04       		.byte	0x4
 2177 09c5 02070000 		.4byte	0x702
 2178 09c9 0A       		.uleb128 0xa
 2179 09ca 04       		.byte	0x4
 2180 09cb 69030000 		.4byte	0x369
 2181 09cf 05       		.uleb128 0x5
 2182 09d0 B1090000 		.4byte	0x9b1
 2183 09d4 12       		.uleb128 0x12
 2184 09d5 02070000 		.4byte	0x702
 2185 09d9 E4090000 		.4byte	0x9e4
 2186 09dd 13       		.uleb128 0x13
 2187 09de D6040000 		.4byte	0x4d6
 2188 09e2 1E       		.byte	0x1e
 2189 09e3 00       		.byte	0
 2190 09e4 03       		.uleb128 0x3
 2191 09e5 09090000 		.4byte	.LASF161
 2192 09e9 13       		.byte	0x13
 2193 09ea 34       		.byte	0x34
 2194 09eb 7A090000 		.4byte	0x97a
 2195 09ef 0A       		.uleb128 0xa
 2196 09f0 04       		.byte	0x4
 2197 09f1 E4090000 		.4byte	0x9e4
 2198 09f5 03       		.uleb128 0x3
 2199 09f6 04040000 		.4byte	.LASF162
 2200 09fa 14       		.byte	0x14
 2201 09fb 34       		.byte	0x34
ARM GAS  /tmp/ccoA48Dc.s 			page 40


 2202 09fc 000A0000 		.4byte	0xa00
 2203 0a00 06       		.uleb128 0x6
 2204 0a01 6B090000 		.4byte	.LASF163
 2205 0a05 14       		.byte	0x14
 2206 0a06 14       		.byte	0x14
 2207 0a07 39       		.byte	0x39
 2208 0a08 490A0000 		.4byte	0xa49
 2209 0a0c 07       		.uleb128 0x7
 2210 0a0d 3B050000 		.4byte	.LASF164
 2211 0a11 14       		.byte	0x14
 2212 0a12 3A       		.byte	0x3a
 2213 0a13 490A0000 		.4byte	0xa49
 2214 0a17 00       		.byte	0
 2215 0a18 07       		.uleb128 0x7
 2216 0a19 0C0A0000 		.4byte	.LASF165
 2217 0a1d 14       		.byte	0x14
 2218 0a1e 3D       		.byte	0x3d
 2219 0a1f 8A020000 		.4byte	0x28a
 2220 0a23 04       		.byte	0x4
 2221 0a24 07       		.uleb128 0x7
 2222 0a25 D5060000 		.4byte	.LASF166
 2223 0a29 14       		.byte	0x14
 2224 0a2a 3F       		.byte	0x3f
 2225 0a2b 37010000 		.4byte	0x137
 2226 0a2f 08       		.byte	0x8
 2227 0a30 07       		.uleb128 0x7
 2228 0a31 45010000 		.4byte	.LASF167
 2229 0a35 14       		.byte	0x14
 2230 0a36 41       		.byte	0x41
 2231 0a37 42010000 		.4byte	0x142
 2232 0a3b 0C       		.byte	0xc
 2233 0a3c 07       		.uleb128 0x7
 2234 0a3d BC060000 		.4byte	.LASF168
 2235 0a41 14       		.byte	0x14
 2236 0a42 43       		.byte	0x43
 2237 0a43 42010000 		.4byte	0x142
 2238 0a47 10       		.byte	0x10
 2239 0a48 00       		.byte	0
 2240 0a49 0A       		.uleb128 0xa
 2241 0a4a 04       		.byte	0x4
 2242 0a4b F5090000 		.4byte	0x9f5
 2243 0a4f 06       		.uleb128 0x6
 2244 0a50 BA080000 		.4byte	.LASF169
 2245 0a54 04       		.byte	0x4
 2246 0a55 14       		.byte	0x14
 2247 0a56 4A       		.byte	0x4a
 2248 0a57 680A0000 		.4byte	0xa68
 2249 0a5b 07       		.uleb128 0x7
 2250 0a5c CB040000 		.4byte	.LASF170
 2251 0a60 14       		.byte	0x14
 2252 0a61 4B       		.byte	0x4b
 2253 0a62 490A0000 		.4byte	0xa49
 2254 0a66 00       		.byte	0
 2255 0a67 00       		.byte	0
 2256 0a68 03       		.uleb128 0x3
 2257 0a69 25060000 		.4byte	.LASF171
 2258 0a6d 14       		.byte	0x14
ARM GAS  /tmp/ccoA48Dc.s 			page 41


 2259 0a6e 4E       		.byte	0x4e
 2260 0a6f 4F0A0000 		.4byte	0xa4f
 2261 0a73 03       		.uleb128 0x3
 2262 0a74 F7080000 		.4byte	.LASF172
 2263 0a78 04       		.byte	0x4
 2264 0a79 3F       		.byte	0x3f
 2265 0a7a 7E0A0000 		.4byte	0xa7e
 2266 0a7e 06       		.uleb128 0x6
 2267 0a7f 9D020000 		.4byte	.LASF173
 2268 0a83 24       		.byte	0x24
 2269 0a84 04       		.byte	0x4
 2270 0a85 4D       		.byte	0x4d
 2271 0a86 EB0A0000 		.4byte	0xaeb
 2272 0a8a 07       		.uleb128 0x7
 2273 0a8b 2D080000 		.4byte	.LASF174
 2274 0a8f 04       		.byte	0x4
 2275 0a90 4E       		.byte	0x4e
 2276 0a91 B4020000 		.4byte	0x2b4
 2277 0a95 00       		.byte	0
 2278 0a96 07       		.uleb128 0x7
 2279 0a97 D3040000 		.4byte	.LASF175
 2280 0a9b 04       		.byte	0x4
 2281 0a9c 4F       		.byte	0x4f
 2282 0a9d 0D0B0000 		.4byte	0xb0d
 2283 0aa1 08       		.byte	0x8
 2284 0aa2 07       		.uleb128 0x7
 2285 0aa3 F4010000 		.4byte	.LASF176
 2286 0aa7 04       		.byte	0x4
 2287 0aa8 50       		.byte	0x50
 2288 0aa9 120B0000 		.4byte	0xb12
 2289 0aad 0C       		.byte	0xc
 2290 0aae 07       		.uleb128 0x7
 2291 0aaf D1010000 		.4byte	.LASF177
 2292 0ab3 04       		.byte	0x4
 2293 0ab4 51       		.byte	0x51
 2294 0ab5 120B0000 		.4byte	0xb12
 2295 0ab9 10       		.byte	0x10
 2296 0aba 07       		.uleb128 0x7
 2297 0abb 60050000 		.4byte	.LASF178
 2298 0abf 04       		.byte	0x4
 2299 0ac0 53       		.byte	0x53
 2300 0ac1 120B0000 		.4byte	0xb12
 2301 0ac5 14       		.byte	0x14
 2302 0ac6 07       		.uleb128 0x7
 2303 0ac7 2A020000 		.4byte	.LASF179
 2304 0acb 04       		.byte	0x4
 2305 0acc 54       		.byte	0x54
 2306 0acd 120B0000 		.4byte	0xb12
 2307 0ad1 18       		.byte	0x18
 2308 0ad2 07       		.uleb128 0x7
 2309 0ad3 FD010000 		.4byte	.LASF180
 2310 0ad7 04       		.byte	0x4
 2311 0ad8 55       		.byte	0x55
 2312 0ad9 EB0A0000 		.4byte	0xaeb
 2313 0add 1C       		.byte	0x1c
 2314 0ade 07       		.uleb128 0x7
 2315 0adf C1020000 		.4byte	.LASF181
ARM GAS  /tmp/ccoA48Dc.s 			page 42


 2316 0ae3 04       		.byte	0x4
 2317 0ae4 56       		.byte	0x56
 2318 0ae5 67030000 		.4byte	0x367
 2319 0ae9 20       		.byte	0x20
 2320 0aea 00       		.byte	0
 2321 0aeb 03       		.uleb128 0x3
 2322 0aec 58060000 		.4byte	.LASF182
 2323 0af0 04       		.byte	0x4
 2324 0af1 42       		.byte	0x42
 2325 0af2 F60A0000 		.4byte	0xaf6
 2326 0af6 0A       		.uleb128 0xa
 2327 0af7 04       		.byte	0x4
 2328 0af8 FC0A0000 		.4byte	0xafc
 2329 0afc 0C       		.uleb128 0xc
 2330 0afd 070B0000 		.4byte	0xb07
 2331 0b01 0D       		.uleb128 0xd
 2332 0b02 070B0000 		.4byte	0xb07
 2333 0b06 00       		.byte	0
 2334 0b07 0A       		.uleb128 0xa
 2335 0b08 04       		.byte	0x4
 2336 0b09 730A0000 		.4byte	0xa73
 2337 0b0d 05       		.uleb128 0x5
 2338 0b0e 28000000 		.4byte	0x28
 2339 0b12 0A       		.uleb128 0xa
 2340 0b13 04       		.byte	0x4
 2341 0b14 A9000000 		.4byte	0xa9
 2342 0b18 03       		.uleb128 0x3
 2343 0b19 3B090000 		.4byte	.LASF183
 2344 0b1d 04       		.byte	0x4
 2345 0b1e 64       		.byte	0x64
 2346 0b1f 730A0000 		.4byte	0xa73
 2347 0b23 03       		.uleb128 0x3
 2348 0b24 B8090000 		.4byte	.LASF184
 2349 0b28 04       		.byte	0x4
 2350 0b29 71       		.byte	0x71
 2351 0b2a 730A0000 		.4byte	0xa73
 2352 0b2e 1C       		.uleb128 0x1c
 2353 0b2f 28000000 		.4byte	0x28
 2354 0b33 470B0000 		.4byte	0xb47
 2355 0b37 0D       		.uleb128 0xd
 2356 0b38 67030000 		.4byte	0x367
 2357 0b3c 0D       		.uleb128 0xd
 2358 0b3d 470B0000 		.4byte	0xb47
 2359 0b41 0D       		.uleb128 0xd
 2360 0b42 28000000 		.4byte	0x28
 2361 0b46 00       		.byte	0
 2362 0b47 0A       		.uleb128 0xa
 2363 0b48 04       		.byte	0x4
 2364 0b49 4D0B0000 		.4byte	0xb4d
 2365 0b4d 1B       		.uleb128 0x1b
 2366 0b4e A9000000 		.4byte	0xa9
 2367 0b52 0A       		.uleb128 0xa
 2368 0b53 04       		.byte	0x4
 2369 0b54 2E0B0000 		.4byte	0xb2e
 2370 0b58 1C       		.uleb128 0x1c
 2371 0b59 28000000 		.4byte	0x28
 2372 0b5d 710B0000 		.4byte	0xb71
ARM GAS  /tmp/ccoA48Dc.s 			page 43


 2373 0b61 0D       		.uleb128 0xd
 2374 0b62 67030000 		.4byte	0x367
 2375 0b66 0D       		.uleb128 0xd
 2376 0b67 120B0000 		.4byte	0xb12
 2377 0b6b 0D       		.uleb128 0xd
 2378 0b6c 28000000 		.4byte	0x28
 2379 0b70 00       		.byte	0
 2380 0b71 0A       		.uleb128 0xa
 2381 0b72 04       		.byte	0x4
 2382 0b73 580B0000 		.4byte	0xb58
 2383 0b77 1C       		.uleb128 0x1c
 2384 0b78 2C010000 		.4byte	0x12c
 2385 0b7c 8B0B0000 		.4byte	0xb8b
 2386 0b80 0D       		.uleb128 0xd
 2387 0b81 67030000 		.4byte	0x367
 2388 0b85 0D       		.uleb128 0xd
 2389 0b86 A9000000 		.4byte	0xa9
 2390 0b8a 00       		.byte	0
 2391 0b8b 0A       		.uleb128 0xa
 2392 0b8c 04       		.byte	0x4
 2393 0b8d 770B0000 		.4byte	0xb77
 2394 0b91 1C       		.uleb128 0x1c
 2395 0b92 2C010000 		.4byte	0x12c
 2396 0b96 A00B0000 		.4byte	0xba0
 2397 0b9a 0D       		.uleb128 0xd
 2398 0b9b 67030000 		.4byte	0x367
 2399 0b9f 00       		.byte	0
 2400 0ba0 0A       		.uleb128 0xa
 2401 0ba1 04       		.byte	0x4
 2402 0ba2 910B0000 		.4byte	0xb91
 2403 0ba6 1C       		.uleb128 0x1c
 2404 0ba7 2C010000 		.4byte	0x12c
 2405 0bab BF0B0000 		.4byte	0xbbf
 2406 0baf 0D       		.uleb128 0xd
 2407 0bb0 67030000 		.4byte	0x367
 2408 0bb4 0D       		.uleb128 0xd
 2409 0bb5 A9000000 		.4byte	0xa9
 2410 0bb9 0D       		.uleb128 0xd
 2411 0bba 63010000 		.4byte	0x163
 2412 0bbe 00       		.byte	0
 2413 0bbf 0A       		.uleb128 0xa
 2414 0bc0 04       		.byte	0x4
 2415 0bc1 A60B0000 		.4byte	0xba6
 2416 0bc5 1C       		.uleb128 0x1c
 2417 0bc6 2C010000 		.4byte	0x12c
 2418 0bca D90B0000 		.4byte	0xbd9
 2419 0bce 0D       		.uleb128 0xd
 2420 0bcf 67030000 		.4byte	0x367
 2421 0bd3 0D       		.uleb128 0xd
 2422 0bd4 63010000 		.4byte	0x163
 2423 0bd8 00       		.byte	0
 2424 0bd9 0A       		.uleb128 0xa
 2425 0bda 04       		.byte	0x4
 2426 0bdb C50B0000 		.4byte	0xbc5
 2427 0bdf 1C       		.uleb128 0x1c
 2428 0be0 28000000 		.4byte	0x28
 2429 0be4 FD0B0000 		.4byte	0xbfd
ARM GAS  /tmp/ccoA48Dc.s 			page 44


 2430 0be8 0D       		.uleb128 0xd
 2431 0be9 67030000 		.4byte	0x367
 2432 0bed 0D       		.uleb128 0xd
 2433 0bee 470B0000 		.4byte	0xb47
 2434 0bf2 0D       		.uleb128 0xd
 2435 0bf3 28000000 		.4byte	0x28
 2436 0bf7 0D       		.uleb128 0xd
 2437 0bf8 63010000 		.4byte	0x163
 2438 0bfc 00       		.byte	0
 2439 0bfd 0A       		.uleb128 0xa
 2440 0bfe 04       		.byte	0x4
 2441 0bff DF0B0000 		.4byte	0xbdf
 2442 0c03 1C       		.uleb128 0x1c
 2443 0c04 28000000 		.4byte	0x28
 2444 0c08 210C0000 		.4byte	0xc21
 2445 0c0c 0D       		.uleb128 0xd
 2446 0c0d 67030000 		.4byte	0x367
 2447 0c11 0D       		.uleb128 0xd
 2448 0c12 120B0000 		.4byte	0xb12
 2449 0c16 0D       		.uleb128 0xd
 2450 0c17 28000000 		.4byte	0x28
 2451 0c1b 0D       		.uleb128 0xd
 2452 0c1c 63010000 		.4byte	0x163
 2453 0c20 00       		.byte	0
 2454 0c21 0A       		.uleb128 0xa
 2455 0c22 04       		.byte	0x4
 2456 0c23 030C0000 		.4byte	0xc03
 2457 0c27 04       		.uleb128 0x4
 2458 0c28 01       		.byte	0x1
 2459 0c29 02       		.byte	0x2
 2460 0c2a 92030000 		.4byte	.LASF185
 2461 0c2e 1D       		.uleb128 0x1d
 2462 0c2f 01       		.byte	0x1
 2463 0c30 15       		.byte	0x15
 2464 0c31 55       		.byte	0x55
 2465 0c32 490C0000 		.4byte	0xc49
 2466 0c36 1E       		.uleb128 0x1e
 2467 0c37 88030000 		.4byte	.LASF186
 2468 0c3b 00       		.sleb128 0
 2469 0c3c 1E       		.uleb128 0x1e
 2470 0c3d DC090000 		.4byte	.LASF187
 2471 0c41 01       		.sleb128 1
 2472 0c42 1E       		.uleb128 0x1e
 2473 0c43 57080000 		.4byte	.LASF188
 2474 0c47 02       		.sleb128 2
 2475 0c48 00       		.byte	0
 2476 0c49 03       		.uleb128 0x3
 2477 0c4a 45080000 		.4byte	.LASF189
 2478 0c4e 15       		.byte	0x15
 2479 0c4f 59       		.byte	0x59
 2480 0c50 2E0C0000 		.4byte	0xc2e
 2481 0c54 03       		.uleb128 0x3
 2482 0c55 20080000 		.4byte	.LASF190
 2483 0c59 15       		.byte	0x15
 2484 0c5a 5E       		.byte	0x5e
 2485 0c5b 5F0C0000 		.4byte	0xc5f
 2486 0c5f 06       		.uleb128 0x6
ARM GAS  /tmp/ccoA48Dc.s 			page 45


 2487 0c60 20080000 		.4byte	.LASF190
 2488 0c64 D8       		.byte	0xd8
 2489 0c65 15       		.byte	0x15
 2490 0c66 78       		.byte	0x78
 2491 0c67 CA0C0000 		.4byte	0xcca
 2492 0c6b 16       		.uleb128 0x16
 2493 0c6c 766D7400 		.ascii	"vmt\000"
 2494 0c70 15       		.byte	0x15
 2495 0c71 7A       		.byte	0x7a
 2496 0c72 810D0000 		.4byte	0xd81
 2497 0c76 00       		.byte	0
 2498 0c77 07       		.uleb128 0x7
 2499 0c78 6C060000 		.4byte	.LASF191
 2500 0c7c 15       		.byte	0x15
 2501 0c7d 7B       		.byte	0x7b
 2502 0c7e 680A0000 		.4byte	0xa68
 2503 0c82 04       		.byte	0x4
 2504 0c83 07       		.uleb128 0x7
 2505 0c84 55010000 		.4byte	.LASF192
 2506 0c88 15       		.byte	0x15
 2507 0c89 7B       		.byte	0x7b
 2508 0c8a 490C0000 		.4byte	0xc49
 2509 0c8e 08       		.byte	0x8
 2510 0c8f 07       		.uleb128 0x7
 2511 0c90 D9080000 		.4byte	.LASF193
 2512 0c94 15       		.byte	0x15
 2513 0c95 7B       		.byte	0x7b
 2514 0c96 180B0000 		.4byte	0xb18
 2515 0c9a 0C       		.byte	0xc
 2516 0c9b 07       		.uleb128 0x7
 2517 0c9c 85020000 		.4byte	.LASF194
 2518 0ca0 15       		.byte	0x15
 2519 0ca1 7B       		.byte	0x7b
 2520 0ca2 230B0000 		.4byte	0xb23
 2521 0ca6 30       		.byte	0x30
 2522 0ca7 16       		.uleb128 0x16
 2523 0ca8 696200   		.ascii	"ib\000"
 2524 0cab 15       		.byte	0x15
 2525 0cac 7B       		.byte	0x7b
 2526 0cad 8C0D0000 		.4byte	0xd8c
 2527 0cb1 54       		.byte	0x54
 2528 0cb2 16       		.uleb128 0x16
 2529 0cb3 6F6200   		.ascii	"ob\000"
 2530 0cb6 15       		.byte	0x15
 2531 0cb7 7B       		.byte	0x7b
 2532 0cb8 8C0D0000 		.4byte	0xd8c
 2533 0cbc 94       		.byte	0x94
 2534 0cbd 07       		.uleb128 0x7
 2535 0cbe B0020000 		.4byte	.LASF195
 2536 0cc2 15       		.byte	0x15
 2537 0cc3 7B       		.byte	0x7b
 2538 0cc4 9C0D0000 		.4byte	0xd9c
 2539 0cc8 D4       		.byte	0xd4
 2540 0cc9 00       		.byte	0
 2541 0cca 14       		.uleb128 0x14
 2542 0ccb 0C       		.byte	0xc
 2543 0ccc 16       		.byte	0x16
ARM GAS  /tmp/ccoA48Dc.s 			page 46


 2544 0ccd 0A01     		.2byte	0x10a
 2545 0ccf 080D0000 		.4byte	0xd08
 2546 0cd3 09       		.uleb128 0x9
 2547 0cd4 78040000 		.4byte	.LASF196
 2548 0cd8 16       		.byte	0x16
 2549 0cd9 0E01     		.2byte	0x10e
 2550 0cdb CA000000 		.4byte	0xca
 2551 0cdf 00       		.byte	0
 2552 0ce0 08       		.uleb128 0x8
 2553 0ce1 63723100 		.ascii	"cr1\000"
 2554 0ce5 16       		.byte	0x16
 2555 0ce6 1301     		.2byte	0x113
 2556 0ce8 B4000000 		.4byte	0xb4
 2557 0cec 04       		.byte	0x4
 2558 0ced 08       		.uleb128 0x8
 2559 0cee 63723200 		.ascii	"cr2\000"
 2560 0cf2 16       		.byte	0x16
 2561 0cf3 1701     		.2byte	0x117
 2562 0cf5 B4000000 		.4byte	0xb4
 2563 0cf9 06       		.byte	0x6
 2564 0cfa 08       		.uleb128 0x8
 2565 0cfb 63723300 		.ascii	"cr3\000"
 2566 0cff 16       		.byte	0x16
 2567 0d00 1B01     		.2byte	0x11b
 2568 0d02 B4000000 		.4byte	0xb4
 2569 0d06 08       		.byte	0x8
 2570 0d07 00       		.byte	0
 2571 0d08 15       		.uleb128 0x15
 2572 0d09 5B000000 		.4byte	.LASF197
 2573 0d0d 16       		.byte	0x16
 2574 0d0e 1C01     		.2byte	0x11c
 2575 0d10 CA0C0000 		.4byte	0xcca
 2576 0d14 06       		.uleb128 0x6
 2577 0d15 68050000 		.4byte	.LASF198
 2578 0d19 20       		.byte	0x20
 2579 0d1a 15       		.byte	0x15
 2580 0d1b 6D       		.byte	0x6d
 2581 0d1c 810D0000 		.4byte	0xd81
 2582 0d20 07       		.uleb128 0x7
 2583 0d21 8F000000 		.4byte	.LASF199
 2584 0d25 15       		.byte	0x15
 2585 0d26 6E       		.byte	0x6e
 2586 0d27 520B0000 		.4byte	0xb52
 2587 0d2b 00       		.byte	0
 2588 0d2c 07       		.uleb128 0x7
 2589 0d2d 84060000 		.4byte	.LASF200
 2590 0d31 15       		.byte	0x15
 2591 0d32 6E       		.byte	0x6e
 2592 0d33 710B0000 		.4byte	0xb71
 2593 0d37 04       		.byte	0x4
 2594 0d38 16       		.uleb128 0x16
 2595 0d39 70757400 		.ascii	"put\000"
 2596 0d3d 15       		.byte	0x15
 2597 0d3e 6E       		.byte	0x6e
 2598 0d3f 8B0B0000 		.4byte	0xb8b
 2599 0d43 08       		.byte	0x8
 2600 0d44 16       		.uleb128 0x16
ARM GAS  /tmp/ccoA48Dc.s 			page 47


 2601 0d45 67657400 		.ascii	"get\000"
 2602 0d49 15       		.byte	0x15
 2603 0d4a 6E       		.byte	0x6e
 2604 0d4b A00B0000 		.4byte	0xba0
 2605 0d4f 0C       		.byte	0xc
 2606 0d50 07       		.uleb128 0x7
 2607 0d51 64010000 		.4byte	.LASF201
 2608 0d55 15       		.byte	0x15
 2609 0d56 6E       		.byte	0x6e
 2610 0d57 BF0B0000 		.4byte	0xbbf
 2611 0d5b 10       		.byte	0x10
 2612 0d5c 07       		.uleb128 0x7
 2613 0d5d E0030000 		.4byte	.LASF202
 2614 0d61 15       		.byte	0x15
 2615 0d62 6E       		.byte	0x6e
 2616 0d63 D90B0000 		.4byte	0xbd9
 2617 0d67 14       		.byte	0x14
 2618 0d68 07       		.uleb128 0x7
 2619 0d69 68000000 		.4byte	.LASF203
 2620 0d6d 15       		.byte	0x15
 2621 0d6e 6E       		.byte	0x6e
 2622 0d6f FD0B0000 		.4byte	0xbfd
 2623 0d73 18       		.byte	0x18
 2624 0d74 07       		.uleb128 0x7
 2625 0d75 E1010000 		.4byte	.LASF204
 2626 0d79 15       		.byte	0x15
 2627 0d7a 6E       		.byte	0x6e
 2628 0d7b 210C0000 		.4byte	0xc21
 2629 0d7f 1C       		.byte	0x1c
 2630 0d80 00       		.byte	0
 2631 0d81 0A       		.uleb128 0xa
 2632 0d82 04       		.byte	0x4
 2633 0d83 870D0000 		.4byte	0xd87
 2634 0d87 1B       		.uleb128 0x1b
 2635 0d88 140D0000 		.4byte	0xd14
 2636 0d8c 12       		.uleb128 0x12
 2637 0d8d A9000000 		.4byte	0xa9
 2638 0d91 9C0D0000 		.4byte	0xd9c
 2639 0d95 13       		.uleb128 0x13
 2640 0d96 D6040000 		.4byte	0x4d6
 2641 0d9a 3F       		.byte	0x3f
 2642 0d9b 00       		.byte	0
 2643 0d9c 0A       		.uleb128 0xa
 2644 0d9d 04       		.byte	0x4
 2645 0d9e EB060000 		.4byte	0x6eb
 2646 0da2 1F       		.uleb128 0x1f
 2647 0da3 05080000 		.4byte	.LASF229
 2648 0da7 02       		.byte	0x2
 2649 0da8 2202     		.2byte	0x222
 2650 0daa 03       		.byte	0x3
 2651 0dab BC0D0000 		.4byte	0xdbc
 2652 0daf 20       		.uleb128 0x20
 2653 0db0 E0070000 		.4byte	.LASF230
 2654 0db4 02       		.byte	0x2
 2655 0db5 2202     		.2byte	0x222
 2656 0db7 CA000000 		.4byte	0xca
 2657 0dbb 00       		.byte	0
ARM GAS  /tmp/ccoA48Dc.s 			page 48


 2658 0dbc 21       		.uleb128 0x21
 2659 0dbd 8A080000 		.4byte	.LASF205
 2660 0dc1 01       		.byte	0x1
 2661 0dc2 C801     		.2byte	0x1c8
 2662 0dc4 00000000 		.4byte	.LFB127
 2663 0dc8 10000000 		.4byte	.LFE127-.LFB127
 2664 0dcc 01       		.uleb128 0x1
 2665 0dcd 9C       		.byte	0x9c
 2666 0dce EC0D0000 		.4byte	0xdec
 2667 0dd2 22       		.uleb128 0x22
 2668 0dd3 A20D0000 		.4byte	0xda2
 2669 0dd7 06000000 		.4byte	.LBB6
 2670 0ddb 06000000 		.4byte	.LBE6-.LBB6
 2671 0ddf 01       		.byte	0x1
 2672 0de0 CB01     		.2byte	0x1cb
 2673 0de2 23       		.uleb128 0x23
 2674 0de3 AF0D0000 		.4byte	0xdaf
 2675 0de7 02       		.uleb128 0x2
 2676 0de8 91       		.byte	0x91
 2677 0de9 7C       		.sleb128 -4
 2678 0dea 00       		.byte	0
 2679 0deb 00       		.byte	0
 2680 0dec 21       		.uleb128 0x21
 2681 0ded 1E020000 		.4byte	.LASF206
 2682 0df1 01       		.byte	0x1
 2683 0df2 D601     		.2byte	0x1d6
 2684 0df4 00000000 		.4byte	.LFB128
 2685 0df8 10000000 		.4byte	.LFE128-.LFB128
 2686 0dfc 01       		.uleb128 0x1
 2687 0dfd 9C       		.byte	0x9c
 2688 0dfe 1C0E0000 		.4byte	0xe1c
 2689 0e02 22       		.uleb128 0x22
 2690 0e03 A20D0000 		.4byte	0xda2
 2691 0e07 06000000 		.4byte	.LBB8
 2692 0e0b 06000000 		.4byte	.LBE8-.LBB8
 2693 0e0f 01       		.byte	0x1
 2694 0e10 D901     		.2byte	0x1d9
 2695 0e12 23       		.uleb128 0x23
 2696 0e13 AF0D0000 		.4byte	0xdaf
 2697 0e17 02       		.uleb128 0x2
 2698 0e18 91       		.byte	0x91
 2699 0e19 7C       		.sleb128 -4
 2700 0e1a 00       		.byte	0
 2701 0e1b 00       		.byte	0
 2702 0e1c 24       		.uleb128 0x24
 2703 0e1d E6050000 		.4byte	.LASF207
 2704 0e21 01       		.byte	0x1
 2705 0e22 E501     		.2byte	0x1e5
 2706 0e24 00000000 		.4byte	.LFB129
 2707 0e28 08000000 		.4byte	.LFE129-.LFB129
 2708 0e2c 01       		.uleb128 0x1
 2709 0e2d 9C       		.byte	0x9c
 2710 0e2e 24       		.uleb128 0x24
 2711 0e2f 36070000 		.4byte	.LASF208
 2712 0e33 01       		.byte	0x1
 2713 0e34 F001     		.2byte	0x1f0
 2714 0e36 00000000 		.4byte	.LFB130
ARM GAS  /tmp/ccoA48Dc.s 			page 49


 2715 0e3a 08000000 		.4byte	.LFE130-.LFB130
 2716 0e3e 01       		.uleb128 0x1
 2717 0e3f 9C       		.byte	0x9c
 2718 0e40 24       		.uleb128 0x24
 2719 0e41 48020000 		.4byte	.LASF209
 2720 0e45 03       		.byte	0x3
 2721 0e46 8201     		.2byte	0x182
 2722 0e48 00000000 		.4byte	.LFB169
 2723 0e4c 10000000 		.4byte	.LFE169-.LFB169
 2724 0e50 01       		.uleb128 0x1
 2725 0e51 9C       		.byte	0x9c
 2726 0e52 24       		.uleb128 0x24
 2727 0e53 FD020000 		.4byte	.LASF210
 2728 0e57 03       		.byte	0x3
 2729 0e58 9601     		.2byte	0x196
 2730 0e5a 00000000 		.4byte	.LFB170
 2731 0e5e 10000000 		.4byte	.LFE170-.LFB170
 2732 0e62 01       		.uleb128 0x1
 2733 0e63 9C       		.byte	0x9c
 2734 0e64 25       		.uleb128 0x25
 2735 0e65 34060000 		.4byte	.LASF231
 2736 0e69 04       		.byte	0x4
 2737 0e6a 8201     		.2byte	0x182
 2738 0e6c 270C0000 		.4byte	0xc27
 2739 0e70 00000000 		.4byte	.LFB237
 2740 0e74 32000000 		.4byte	.LFE237-.LFB237
 2741 0e78 01       		.uleb128 0x1
 2742 0e79 9C       		.byte	0x9c
 2743 0e7a 8E0E0000 		.4byte	0xe8e
 2744 0e7e 26       		.uleb128 0x26
 2745 0e7f 6F717000 		.ascii	"oqp\000"
 2746 0e83 04       		.byte	0x4
 2747 0e84 8201     		.2byte	0x182
 2748 0e86 8E0E0000 		.4byte	0xe8e
 2749 0e8a 02       		.uleb128 0x2
 2750 0e8b 91       		.byte	0x91
 2751 0e8c 74       		.sleb128 -12
 2752 0e8d 00       		.byte	0
 2753 0e8e 0A       		.uleb128 0xa
 2754 0e8f 04       		.byte	0x4
 2755 0e90 230B0000 		.4byte	0xb23
 2756 0e94 24       		.uleb128 0x24
 2757 0e95 92010000 		.4byte	.LASF211
 2758 0e99 05       		.byte	0x5
 2759 0e9a 0102     		.2byte	0x201
 2760 0e9c 00000000 		.4byte	.LFB246
 2761 0ea0 08000000 		.4byte	.LFE246-.LFB246
 2762 0ea4 01       		.uleb128 0x1
 2763 0ea5 9C       		.byte	0x9c
 2764 0ea6 24       		.uleb128 0x24
 2765 0ea7 AB040000 		.4byte	.LASF212
 2766 0eab 05       		.byte	0x5
 2767 0eac 0C02     		.2byte	0x20c
 2768 0eae 00000000 		.4byte	.LFB247
 2769 0eb2 08000000 		.4byte	.LFE247-.LFB247
 2770 0eb6 01       		.uleb128 0x1
 2771 0eb7 9C       		.byte	0x9c
ARM GAS  /tmp/ccoA48Dc.s 			page 50


 2772 0eb8 27       		.uleb128 0x27
 2773 0eb9 52090000 		.4byte	.LASF213
 2774 0ebd 05       		.byte	0x5
 2775 0ebe 4903     		.2byte	0x349
 2776 0ec0 00000000 		.4byte	.LFB266
 2777 0ec4 16000000 		.4byte	.LFE266-.LFB266
 2778 0ec8 01       		.uleb128 0x1
 2779 0ec9 9C       		.byte	0x9c
 2780 0eca ED0E0000 		.4byte	0xeed
 2781 0ece 26       		.uleb128 0x26
 2782 0ecf 65737000 		.ascii	"esp\000"
 2783 0ed3 05       		.byte	0x5
 2784 0ed4 4903     		.2byte	0x349
 2785 0ed6 ED0E0000 		.4byte	0xeed
 2786 0eda 02       		.uleb128 0x2
 2787 0edb 91       		.byte	0x91
 2788 0edc 74       		.sleb128 -12
 2789 0edd 28       		.uleb128 0x28
 2790 0ede DA030000 		.4byte	.LASF214
 2791 0ee2 05       		.byte	0x5
 2792 0ee3 4A03     		.2byte	0x34a
 2793 0ee5 42010000 		.4byte	0x142
 2794 0ee9 02       		.uleb128 0x2
 2795 0eea 91       		.byte	0x91
 2796 0eeb 70       		.sleb128 -16
 2797 0eec 00       		.byte	0
 2798 0eed 0A       		.uleb128 0xa
 2799 0eee 04       		.byte	0x4
 2800 0eef 680A0000 		.4byte	0xa68
 2801 0ef3 29       		.uleb128 0x29
 2802 0ef4 5D070000 		.4byte	.LASF215
 2803 0ef8 06       		.byte	0x6
 2804 0ef9 65       		.byte	0x65
 2805 0efa 00000000 		.4byte	.LFB271
 2806 0efe 9C000000 		.4byte	.LFE271-.LFB271
 2807 0f02 01       		.uleb128 0x1
 2808 0f03 9C       		.byte	0x9c
 2809 0f04 310F0000 		.4byte	0xf31
 2810 0f08 2A       		.uleb128 0x2a
 2811 0f09 73647000 		.ascii	"sdp\000"
 2812 0f0d 06       		.byte	0x6
 2813 0f0e 65       		.byte	0x65
 2814 0f0f 310F0000 		.4byte	0xf31
 2815 0f13 02       		.uleb128 0x2
 2816 0f14 91       		.byte	0x91
 2817 0f15 74       		.sleb128 -12
 2818 0f16 2B       		.uleb128 0x2b
 2819 0f17 4E010000 		.4byte	.LASF216
 2820 0f1b 06       		.byte	0x6
 2821 0f1c 65       		.byte	0x65
 2822 0f1d 370F0000 		.4byte	0xf37
 2823 0f21 02       		.uleb128 0x2
 2824 0f22 91       		.byte	0x91
 2825 0f23 70       		.sleb128 -16
 2826 0f24 2C       		.uleb128 0x2c
 2827 0f25 7500     		.ascii	"u\000"
 2828 0f27 06       		.byte	0x6
ARM GAS  /tmp/ccoA48Dc.s 			page 51


 2829 0f28 66       		.byte	0x66
 2830 0f29 9C0D0000 		.4byte	0xd9c
 2831 0f2d 02       		.uleb128 0x2
 2832 0f2e 91       		.byte	0x91
 2833 0f2f 7C       		.sleb128 -4
 2834 0f30 00       		.byte	0
 2835 0f31 0A       		.uleb128 0xa
 2836 0f32 04       		.byte	0x4
 2837 0f33 540C0000 		.4byte	0xc54
 2838 0f37 0A       		.uleb128 0xa
 2839 0f38 04       		.byte	0x4
 2840 0f39 3D0F0000 		.4byte	0xf3d
 2841 0f3d 1B       		.uleb128 0x1b
 2842 0f3e 080D0000 		.4byte	0xd08
 2843 0f42 29       		.uleb128 0x29
 2844 0f43 7F050000 		.4byte	.LASF217
 2845 0f47 06       		.byte	0x6
 2846 0f48 83       		.byte	0x83
 2847 0f49 00000000 		.4byte	.LFB272
 2848 0f4d 1A000000 		.4byte	.LFE272-.LFB272
 2849 0f51 01       		.uleb128 0x1
 2850 0f52 9C       		.byte	0x9c
 2851 0f53 640F0000 		.4byte	0xf64
 2852 0f57 2A       		.uleb128 0x2a
 2853 0f58 7500     		.ascii	"u\000"
 2854 0f5a 06       		.byte	0x6
 2855 0f5b 83       		.byte	0x83
 2856 0f5c 9C0D0000 		.4byte	0xd9c
 2857 0f60 02       		.uleb128 0x2
 2858 0f61 91       		.byte	0x91
 2859 0f62 7C       		.sleb128 -4
 2860 0f63 00       		.byte	0
 2861 0f64 2D       		.uleb128 0x2d
 2862 0f65 A5010000 		.4byte	.LASF218
 2863 0f69 06       		.byte	0x6
 2864 0f6a 90       		.byte	0x90
 2865 0f6b 00000000 		.4byte	.LFB273
 2866 0f6f 72000000 		.4byte	.LFE273-.LFB273
 2867 0f73 01       		.uleb128 0x1
 2868 0f74 9C       		.byte	0x9c
 2869 0f75 A30F0000 		.4byte	0xfa3
 2870 0f79 2A       		.uleb128 0x2a
 2871 0f7a 73647000 		.ascii	"sdp\000"
 2872 0f7e 06       		.byte	0x6
 2873 0f7f 90       		.byte	0x90
 2874 0f80 310F0000 		.4byte	0xf31
 2875 0f84 02       		.uleb128 0x2
 2876 0f85 91       		.byte	0x91
 2877 0f86 6C       		.sleb128 -20
 2878 0f87 2A       		.uleb128 0x2a
 2879 0f88 737200   		.ascii	"sr\000"
 2880 0f8b 06       		.byte	0x6
 2881 0f8c 90       		.byte	0x90
 2882 0f8d B4000000 		.4byte	0xb4
 2883 0f91 02       		.uleb128 0x2
 2884 0f92 91       		.byte	0x91
 2885 0f93 6A       		.sleb128 -22
ARM GAS  /tmp/ccoA48Dc.s 			page 52


 2886 0f94 2C       		.uleb128 0x2c
 2887 0f95 73747300 		.ascii	"sts\000"
 2888 0f99 06       		.byte	0x6
 2889 0f9a 91       		.byte	0x91
 2890 0f9b 42010000 		.4byte	0x142
 2891 0f9f 02       		.uleb128 0x2
 2892 0fa0 91       		.byte	0x91
 2893 0fa1 74       		.sleb128 -12
 2894 0fa2 00       		.byte	0
 2895 0fa3 2D       		.uleb128 0x2d
 2896 0fa4 69010000 		.4byte	.LASF219
 2897 0fa8 06       		.byte	0x6
 2898 0fa9 A3       		.byte	0xa3
 2899 0faa 00000000 		.4byte	.LFB274
 2900 0fae 3E010000 		.4byte	.LFE274-.LFB274
 2901 0fb2 01       		.uleb128 0x1
 2902 0fb3 9C       		.byte	0x9c
 2903 0fb4 1E100000 		.4byte	0x101e
 2904 0fb8 2A       		.uleb128 0x2a
 2905 0fb9 73647000 		.ascii	"sdp\000"
 2906 0fbd 06       		.byte	0x6
 2907 0fbe A3       		.byte	0xa3
 2908 0fbf 310F0000 		.4byte	0xf31
 2909 0fc3 02       		.uleb128 0x2
 2910 0fc4 91       		.byte	0x91
 2911 0fc5 64       		.sleb128 -28
 2912 0fc6 2C       		.uleb128 0x2c
 2913 0fc7 7500     		.ascii	"u\000"
 2914 0fc9 06       		.byte	0x6
 2915 0fca A4       		.byte	0xa4
 2916 0fcb 9C0D0000 		.4byte	0xd9c
 2917 0fcf 02       		.uleb128 0x2
 2918 0fd0 91       		.byte	0x91
 2919 0fd1 70       		.sleb128 -16
 2920 0fd2 2C       		.uleb128 0x2c
 2921 0fd3 63723100 		.ascii	"cr1\000"
 2922 0fd7 06       		.byte	0x6
 2923 0fd8 A5       		.byte	0xa5
 2924 0fd9 B4000000 		.4byte	0xb4
 2925 0fdd 02       		.uleb128 0x2
 2926 0fde 91       		.byte	0x91
 2927 0fdf 6E       		.sleb128 -18
 2928 0fe0 2C       		.uleb128 0x2c
 2929 0fe1 737200   		.ascii	"sr\000"
 2930 0fe4 06       		.byte	0x6
 2931 0fe5 A6       		.byte	0xa6
 2932 0fe6 B4000000 		.4byte	0xb4
 2933 0fea 02       		.uleb128 0x2
 2934 0feb 91       		.byte	0x91
 2935 0fec 76       		.sleb128 -10
 2936 0fed 2E       		.uleb128 0x2e
 2937 0fee 4E000000 		.4byte	.LBB10
 2938 0ff2 40000000 		.4byte	.LBE10-.LBB10
 2939 0ff6 07100000 		.4byte	0x1007
 2940 0ffa 2C       		.uleb128 0x2c
 2941 0ffb 6200     		.ascii	"b\000"
 2942 0ffd 06       		.byte	0x6
ARM GAS  /tmp/ccoA48Dc.s 			page 53


 2943 0ffe B4       		.byte	0xb4
 2944 0fff A9000000 		.4byte	0xa9
 2945 1003 02       		.uleb128 0x2
 2946 1004 91       		.byte	0x91
 2947 1005 6D       		.sleb128 -19
 2948 1006 00       		.byte	0
 2949 1007 2F       		.uleb128 0x2f
 2950 1008 B6000000 		.4byte	.LBB11
 2951 100c 3E000000 		.4byte	.LBE11-.LBB11
 2952 1010 2C       		.uleb128 0x2c
 2953 1011 6200     		.ascii	"b\000"
 2954 1013 06       		.byte	0x6
 2955 1014 C2       		.byte	0xc2
 2956 1015 2C010000 		.4byte	0x12c
 2957 1019 02       		.uleb128 0x2
 2958 101a 91       		.byte	0x91
 2959 101b 68       		.sleb128 -24
 2960 101c 00       		.byte	0
 2961 101d 00       		.byte	0
 2962 101e 29       		.uleb128 0x29
 2963 101f 9C080000 		.4byte	.LASF220
 2964 1023 06       		.byte	0x6
 2965 1024 EA       		.byte	0xea
 2966 1025 00000000 		.4byte	.LFB275
 2967 1029 18000000 		.4byte	.LFE275-.LFB275
 2968 102d 01       		.uleb128 0x1
 2969 102e 9C       		.byte	0x9c
 2970 102f 41100000 		.4byte	0x1041
 2971 1033 2A       		.uleb128 0x2a
 2972 1034 717000   		.ascii	"qp\000"
 2973 1037 06       		.byte	0x6
 2974 1038 EA       		.byte	0xea
 2975 1039 070B0000 		.4byte	0xb07
 2976 103d 02       		.uleb128 0x2
 2977 103e 91       		.byte	0x91
 2978 103f 7C       		.sleb128 -4
 2979 1040 00       		.byte	0
 2980 1041 30       		.uleb128 0x30
 2981 1042 49090000 		.4byte	.LASF221
 2982 1046 06       		.byte	0x6
 2983 1047 4C01     		.2byte	0x14c
 2984 1049 00000000 		.4byte	.LFB276
 2985 104d 20000000 		.4byte	.LFE276-.LFB276
 2986 1051 01       		.uleb128 0x1
 2987 1052 9C       		.byte	0x9c
 2988 1053 30       		.uleb128 0x30
 2989 1054 B1050000 		.4byte	.LASF222
 2990 1058 06       		.byte	0x6
 2991 1059 BE01     		.2byte	0x1be
 2992 105b 00000000 		.4byte	.LFB277
 2993 105f 24000000 		.4byte	.LFE277-.LFB277
 2994 1063 01       		.uleb128 0x1
 2995 1064 9C       		.byte	0x9c
 2996 1065 31       		.uleb128 0x31
 2997 1066 E7010000 		.4byte	.LASF223
 2998 106a 06       		.byte	0x6
 2999 106b F301     		.2byte	0x1f3
ARM GAS  /tmp/ccoA48Dc.s 			page 54


 3000 106d 00000000 		.4byte	.LFB278
 3001 1071 50000000 		.4byte	.LFE278-.LFB278
 3002 1075 01       		.uleb128 0x1
 3003 1076 9C       		.byte	0x9c
 3004 1077 9A100000 		.4byte	0x109a
 3005 107b 26       		.uleb128 0x26
 3006 107c 73647000 		.ascii	"sdp\000"
 3007 1080 06       		.byte	0x6
 3008 1081 F301     		.2byte	0x1f3
 3009 1083 310F0000 		.4byte	0xf31
 3010 1087 02       		.uleb128 0x2
 3011 1088 91       		.byte	0x91
 3012 1089 74       		.sleb128 -12
 3013 108a 28       		.uleb128 0x28
 3014 108b 4E010000 		.4byte	.LASF216
 3015 108f 06       		.byte	0x6
 3016 1090 F301     		.2byte	0x1f3
 3017 1092 370F0000 		.4byte	0xf37
 3018 1096 02       		.uleb128 0x2
 3019 1097 91       		.byte	0x91
 3020 1098 70       		.sleb128 -16
 3021 1099 00       		.byte	0
 3022 109a 31       		.uleb128 0x31
 3023 109b A0090000 		.4byte	.LASF224
 3024 109f 06       		.byte	0x6
 3025 10a0 3602     		.2byte	0x236
 3026 10a2 00000000 		.4byte	.LFB279
 3027 10a6 44000000 		.4byte	.LFE279-.LFB279
 3028 10aa 01       		.uleb128 0x1
 3029 10ab 9C       		.byte	0x9c
 3030 10ac C0100000 		.4byte	0x10c0
 3031 10b0 26       		.uleb128 0x26
 3032 10b1 73647000 		.ascii	"sdp\000"
 3033 10b5 06       		.byte	0x6
 3034 10b6 3602     		.2byte	0x236
 3035 10b8 310F0000 		.4byte	0xf31
 3036 10bc 02       		.uleb128 0x2
 3037 10bd 91       		.byte	0x91
 3038 10be 74       		.sleb128 -12
 3039 10bf 00       		.byte	0
 3040 10c0 32       		.uleb128 0x32
 3041 10c1 39020000 		.4byte	.LASF225
 3042 10c5 06       		.byte	0x6
 3043 10c6 52       		.byte	0x52
 3044 10c7 3D0F0000 		.4byte	0xf3d
 3045 10cb 05       		.uleb128 0x5
 3046 10cc 03       		.byte	0x3
 3047 10cd 00000000 		.4byte	default_config
 3048 10d1 33       		.uleb128 0x33
 3049 10d2 41060000 		.4byte	.LASF226
 3050 10d6 17       		.byte	0x17
 3051 10d7 FA06     		.2byte	0x6fa
 3052 10d9 E0000000 		.4byte	0xe0
 3053 10dd 34       		.uleb128 0x34
 3054 10de 636800   		.ascii	"ch\000"
 3055 10e1 0C       		.byte	0xc
 3056 10e2 0902     		.2byte	0x209
ARM GAS  /tmp/ccoA48Dc.s 			page 55


 3057 10e4 5E040000 		.4byte	0x45e
 3058 10e8 35       		.uleb128 0x35
 3059 10e9 53443300 		.ascii	"SD3\000"
 3060 10ed 06       		.byte	0x6
 3061 10ee 31       		.byte	0x31
 3062 10ef 540C0000 		.4byte	0xc54
 3063 10f3 05       		.uleb128 0x5
 3064 10f4 03       		.byte	0x3
 3065 10f5 00000000 		.4byte	SD3
 3066 10f9 00       		.byte	0
 3067              		.section	.debug_abbrev,"",%progbits
 3068              	.Ldebug_abbrev0:
 3069 0000 01       		.uleb128 0x1
 3070 0001 11       		.uleb128 0x11
 3071 0002 01       		.byte	0x1
 3072 0003 25       		.uleb128 0x25
 3073 0004 0E       		.uleb128 0xe
 3074 0005 13       		.uleb128 0x13
 3075 0006 0B       		.uleb128 0xb
 3076 0007 03       		.uleb128 0x3
 3077 0008 0E       		.uleb128 0xe
 3078 0009 55       		.uleb128 0x55
 3079 000a 17       		.uleb128 0x17
 3080 000b 11       		.uleb128 0x11
 3081 000c 01       		.uleb128 0x1
 3082 000d 10       		.uleb128 0x10
 3083 000e 17       		.uleb128 0x17
 3084 000f 00       		.byte	0
 3085 0010 00       		.byte	0
 3086 0011 02       		.uleb128 0x2
 3087 0012 24       		.uleb128 0x24
 3088 0013 00       		.byte	0
 3089 0014 0B       		.uleb128 0xb
 3090 0015 0B       		.uleb128 0xb
 3091 0016 3E       		.uleb128 0x3e
 3092 0017 0B       		.uleb128 0xb
 3093 0018 03       		.uleb128 0x3
 3094 0019 08       		.uleb128 0x8
 3095 001a 00       		.byte	0
 3096 001b 00       		.byte	0
 3097 001c 03       		.uleb128 0x3
 3098 001d 16       		.uleb128 0x16
 3099 001e 00       		.byte	0
 3100 001f 03       		.uleb128 0x3
 3101 0020 0E       		.uleb128 0xe
 3102 0021 3A       		.uleb128 0x3a
 3103 0022 0B       		.uleb128 0xb
 3104 0023 3B       		.uleb128 0x3b
 3105 0024 0B       		.uleb128 0xb
 3106 0025 49       		.uleb128 0x49
 3107 0026 13       		.uleb128 0x13
 3108 0027 00       		.byte	0
 3109 0028 00       		.byte	0
 3110 0029 04       		.uleb128 0x4
 3111 002a 24       		.uleb128 0x24
 3112 002b 00       		.byte	0
 3113 002c 0B       		.uleb128 0xb
ARM GAS  /tmp/ccoA48Dc.s 			page 56


 3114 002d 0B       		.uleb128 0xb
 3115 002e 3E       		.uleb128 0x3e
 3116 002f 0B       		.uleb128 0xb
 3117 0030 03       		.uleb128 0x3
 3118 0031 0E       		.uleb128 0xe
 3119 0032 00       		.byte	0
 3120 0033 00       		.byte	0
 3121 0034 05       		.uleb128 0x5
 3122 0035 35       		.uleb128 0x35
 3123 0036 00       		.byte	0
 3124 0037 49       		.uleb128 0x49
 3125 0038 13       		.uleb128 0x13
 3126 0039 00       		.byte	0
 3127 003a 00       		.byte	0
 3128 003b 06       		.uleb128 0x6
 3129 003c 13       		.uleb128 0x13
 3130 003d 01       		.byte	0x1
 3131 003e 03       		.uleb128 0x3
 3132 003f 0E       		.uleb128 0xe
 3133 0040 0B       		.uleb128 0xb
 3134 0041 0B       		.uleb128 0xb
 3135 0042 3A       		.uleb128 0x3a
 3136 0043 0B       		.uleb128 0xb
 3137 0044 3B       		.uleb128 0x3b
 3138 0045 0B       		.uleb128 0xb
 3139 0046 01       		.uleb128 0x1
 3140 0047 13       		.uleb128 0x13
 3141 0048 00       		.byte	0
 3142 0049 00       		.byte	0
 3143 004a 07       		.uleb128 0x7
 3144 004b 0D       		.uleb128 0xd
 3145 004c 00       		.byte	0
 3146 004d 03       		.uleb128 0x3
 3147 004e 0E       		.uleb128 0xe
 3148 004f 3A       		.uleb128 0x3a
 3149 0050 0B       		.uleb128 0xb
 3150 0051 3B       		.uleb128 0x3b
 3151 0052 0B       		.uleb128 0xb
 3152 0053 49       		.uleb128 0x49
 3153 0054 13       		.uleb128 0x13
 3154 0055 38       		.uleb128 0x38
 3155 0056 0B       		.uleb128 0xb
 3156 0057 00       		.byte	0
 3157 0058 00       		.byte	0
 3158 0059 08       		.uleb128 0x8
 3159 005a 0D       		.uleb128 0xd
 3160 005b 00       		.byte	0
 3161 005c 03       		.uleb128 0x3
 3162 005d 08       		.uleb128 0x8
 3163 005e 3A       		.uleb128 0x3a
 3164 005f 0B       		.uleb128 0xb
 3165 0060 3B       		.uleb128 0x3b
 3166 0061 05       		.uleb128 0x5
 3167 0062 49       		.uleb128 0x49
 3168 0063 13       		.uleb128 0x13
 3169 0064 38       		.uleb128 0x38
 3170 0065 0B       		.uleb128 0xb
ARM GAS  /tmp/ccoA48Dc.s 			page 57


 3171 0066 00       		.byte	0
 3172 0067 00       		.byte	0
 3173 0068 09       		.uleb128 0x9
 3174 0069 0D       		.uleb128 0xd
 3175 006a 00       		.byte	0
 3176 006b 03       		.uleb128 0x3
 3177 006c 0E       		.uleb128 0xe
 3178 006d 3A       		.uleb128 0x3a
 3179 006e 0B       		.uleb128 0xb
 3180 006f 3B       		.uleb128 0x3b
 3181 0070 05       		.uleb128 0x5
 3182 0071 49       		.uleb128 0x49
 3183 0072 13       		.uleb128 0x13
 3184 0073 38       		.uleb128 0x38
 3185 0074 0B       		.uleb128 0xb
 3186 0075 00       		.byte	0
 3187 0076 00       		.byte	0
 3188 0077 0A       		.uleb128 0xa
 3189 0078 0F       		.uleb128 0xf
 3190 0079 00       		.byte	0
 3191 007a 0B       		.uleb128 0xb
 3192 007b 0B       		.uleb128 0xb
 3193 007c 49       		.uleb128 0x49
 3194 007d 13       		.uleb128 0x13
 3195 007e 00       		.byte	0
 3196 007f 00       		.byte	0
 3197 0080 0B       		.uleb128 0xb
 3198 0081 13       		.uleb128 0x13
 3199 0082 01       		.byte	0x1
 3200 0083 03       		.uleb128 0x3
 3201 0084 0E       		.uleb128 0xe
 3202 0085 0B       		.uleb128 0xb
 3203 0086 0B       		.uleb128 0xb
 3204 0087 3A       		.uleb128 0x3a
 3205 0088 0B       		.uleb128 0xb
 3206 0089 3B       		.uleb128 0x3b
 3207 008a 05       		.uleb128 0x5
 3208 008b 01       		.uleb128 0x1
 3209 008c 13       		.uleb128 0x13
 3210 008d 00       		.byte	0
 3211 008e 00       		.byte	0
 3212 008f 0C       		.uleb128 0xc
 3213 0090 15       		.uleb128 0x15
 3214 0091 01       		.byte	0x1
 3215 0092 27       		.uleb128 0x27
 3216 0093 19       		.uleb128 0x19
 3217 0094 01       		.uleb128 0x1
 3218 0095 13       		.uleb128 0x13
 3219 0096 00       		.byte	0
 3220 0097 00       		.byte	0
 3221 0098 0D       		.uleb128 0xd
 3222 0099 05       		.uleb128 0x5
 3223 009a 00       		.byte	0
 3224 009b 49       		.uleb128 0x49
 3225 009c 13       		.uleb128 0x13
 3226 009d 00       		.byte	0
 3227 009e 00       		.byte	0
ARM GAS  /tmp/ccoA48Dc.s 			page 58


 3228 009f 0E       		.uleb128 0xe
 3229 00a0 0F       		.uleb128 0xf
 3230 00a1 00       		.byte	0
 3231 00a2 0B       		.uleb128 0xb
 3232 00a3 0B       		.uleb128 0xb
 3233 00a4 00       		.byte	0
 3234 00a5 00       		.byte	0
 3235 00a6 0F       		.uleb128 0xf
 3236 00a7 13       		.uleb128 0x13
 3237 00a8 01       		.byte	0x1
 3238 00a9 03       		.uleb128 0x3
 3239 00aa 0E       		.uleb128 0xe
 3240 00ab 0B       		.uleb128 0xb
 3241 00ac 05       		.uleb128 0x5
 3242 00ad 3A       		.uleb128 0x3a
 3243 00ae 0B       		.uleb128 0xb
 3244 00af 3B       		.uleb128 0x3b
 3245 00b0 05       		.uleb128 0x5
 3246 00b1 01       		.uleb128 0x1
 3247 00b2 13       		.uleb128 0x13
 3248 00b3 00       		.byte	0
 3249 00b4 00       		.byte	0
 3250 00b5 10       		.uleb128 0x10
 3251 00b6 0D       		.uleb128 0xd
 3252 00b7 00       		.byte	0
 3253 00b8 03       		.uleb128 0x3
 3254 00b9 0E       		.uleb128 0xe
 3255 00ba 3A       		.uleb128 0x3a
 3256 00bb 0B       		.uleb128 0xb
 3257 00bc 3B       		.uleb128 0x3b
 3258 00bd 05       		.uleb128 0x5
 3259 00be 49       		.uleb128 0x49
 3260 00bf 13       		.uleb128 0x13
 3261 00c0 38       		.uleb128 0x38
 3262 00c1 05       		.uleb128 0x5
 3263 00c2 00       		.byte	0
 3264 00c3 00       		.byte	0
 3265 00c4 11       		.uleb128 0x11
 3266 00c5 0D       		.uleb128 0xd
 3267 00c6 00       		.byte	0
 3268 00c7 03       		.uleb128 0x3
 3269 00c8 08       		.uleb128 0x8
 3270 00c9 3A       		.uleb128 0x3a
 3271 00ca 0B       		.uleb128 0xb
 3272 00cb 3B       		.uleb128 0x3b
 3273 00cc 05       		.uleb128 0x5
 3274 00cd 49       		.uleb128 0x49
 3275 00ce 13       		.uleb128 0x13
 3276 00cf 38       		.uleb128 0x38
 3277 00d0 05       		.uleb128 0x5
 3278 00d1 00       		.byte	0
 3279 00d2 00       		.byte	0
 3280 00d3 12       		.uleb128 0x12
 3281 00d4 01       		.uleb128 0x1
 3282 00d5 01       		.byte	0x1
 3283 00d6 49       		.uleb128 0x49
 3284 00d7 13       		.uleb128 0x13
ARM GAS  /tmp/ccoA48Dc.s 			page 59


 3285 00d8 01       		.uleb128 0x1
 3286 00d9 13       		.uleb128 0x13
 3287 00da 00       		.byte	0
 3288 00db 00       		.byte	0
 3289 00dc 13       		.uleb128 0x13
 3290 00dd 21       		.uleb128 0x21
 3291 00de 00       		.byte	0
 3292 00df 49       		.uleb128 0x49
 3293 00e0 13       		.uleb128 0x13
 3294 00e1 2F       		.uleb128 0x2f
 3295 00e2 0B       		.uleb128 0xb
 3296 00e3 00       		.byte	0
 3297 00e4 00       		.byte	0
 3298 00e5 14       		.uleb128 0x14
 3299 00e6 13       		.uleb128 0x13
 3300 00e7 01       		.byte	0x1
 3301 00e8 0B       		.uleb128 0xb
 3302 00e9 0B       		.uleb128 0xb
 3303 00ea 3A       		.uleb128 0x3a
 3304 00eb 0B       		.uleb128 0xb
 3305 00ec 3B       		.uleb128 0x3b
 3306 00ed 05       		.uleb128 0x5
 3307 00ee 01       		.uleb128 0x1
 3308 00ef 13       		.uleb128 0x13
 3309 00f0 00       		.byte	0
 3310 00f1 00       		.byte	0
 3311 00f2 15       		.uleb128 0x15
 3312 00f3 16       		.uleb128 0x16
 3313 00f4 00       		.byte	0
 3314 00f5 03       		.uleb128 0x3
 3315 00f6 0E       		.uleb128 0xe
 3316 00f7 3A       		.uleb128 0x3a
 3317 00f8 0B       		.uleb128 0xb
 3318 00f9 3B       		.uleb128 0x3b
 3319 00fa 05       		.uleb128 0x5
 3320 00fb 49       		.uleb128 0x49
 3321 00fc 13       		.uleb128 0x13
 3322 00fd 00       		.byte	0
 3323 00fe 00       		.byte	0
 3324 00ff 16       		.uleb128 0x16
 3325 0100 0D       		.uleb128 0xd
 3326 0101 00       		.byte	0
 3327 0102 03       		.uleb128 0x3
 3328 0103 08       		.uleb128 0x8
 3329 0104 3A       		.uleb128 0x3a
 3330 0105 0B       		.uleb128 0xb
 3331 0106 3B       		.uleb128 0x3b
 3332 0107 0B       		.uleb128 0xb
 3333 0108 49       		.uleb128 0x49
 3334 0109 13       		.uleb128 0x13
 3335 010a 38       		.uleb128 0x38
 3336 010b 0B       		.uleb128 0xb
 3337 010c 00       		.byte	0
 3338 010d 00       		.byte	0
 3339 010e 17       		.uleb128 0x17
 3340 010f 13       		.uleb128 0x13
 3341 0110 01       		.byte	0x1
ARM GAS  /tmp/ccoA48Dc.s 			page 60


 3342 0111 0B       		.uleb128 0xb
 3343 0112 0B       		.uleb128 0xb
 3344 0113 3A       		.uleb128 0x3a
 3345 0114 0B       		.uleb128 0xb
 3346 0115 3B       		.uleb128 0x3b
 3347 0116 0B       		.uleb128 0xb
 3348 0117 01       		.uleb128 0x1
 3349 0118 13       		.uleb128 0x13
 3350 0119 00       		.byte	0
 3351 011a 00       		.byte	0
 3352 011b 18       		.uleb128 0x18
 3353 011c 13       		.uleb128 0x13
 3354 011d 01       		.byte	0x1
 3355 011e 0B       		.uleb128 0xb
 3356 011f 05       		.uleb128 0x5
 3357 0120 3A       		.uleb128 0x3a
 3358 0121 0B       		.uleb128 0xb
 3359 0122 3B       		.uleb128 0x3b
 3360 0123 0B       		.uleb128 0xb
 3361 0124 01       		.uleb128 0x1
 3362 0125 13       		.uleb128 0x13
 3363 0126 00       		.byte	0
 3364 0127 00       		.byte	0
 3365 0128 19       		.uleb128 0x19
 3366 0129 17       		.uleb128 0x17
 3367 012a 01       		.byte	0x1
 3368 012b 0B       		.uleb128 0xb
 3369 012c 0B       		.uleb128 0xb
 3370 012d 3A       		.uleb128 0x3a
 3371 012e 0B       		.uleb128 0xb
 3372 012f 3B       		.uleb128 0x3b
 3373 0130 0B       		.uleb128 0xb
 3374 0131 01       		.uleb128 0x1
 3375 0132 13       		.uleb128 0x13
 3376 0133 00       		.byte	0
 3377 0134 00       		.byte	0
 3378 0135 1A       		.uleb128 0x1a
 3379 0136 0D       		.uleb128 0xd
 3380 0137 00       		.byte	0
 3381 0138 03       		.uleb128 0x3
 3382 0139 0E       		.uleb128 0xe
 3383 013a 3A       		.uleb128 0x3a
 3384 013b 0B       		.uleb128 0xb
 3385 013c 3B       		.uleb128 0x3b
 3386 013d 05       		.uleb128 0x5
 3387 013e 49       		.uleb128 0x49
 3388 013f 13       		.uleb128 0x13
 3389 0140 00       		.byte	0
 3390 0141 00       		.byte	0
 3391 0142 1B       		.uleb128 0x1b
 3392 0143 26       		.uleb128 0x26
 3393 0144 00       		.byte	0
 3394 0145 49       		.uleb128 0x49
 3395 0146 13       		.uleb128 0x13
 3396 0147 00       		.byte	0
 3397 0148 00       		.byte	0
 3398 0149 1C       		.uleb128 0x1c
ARM GAS  /tmp/ccoA48Dc.s 			page 61


 3399 014a 15       		.uleb128 0x15
 3400 014b 01       		.byte	0x1
 3401 014c 27       		.uleb128 0x27
 3402 014d 19       		.uleb128 0x19
 3403 014e 49       		.uleb128 0x49
 3404 014f 13       		.uleb128 0x13
 3405 0150 01       		.uleb128 0x1
 3406 0151 13       		.uleb128 0x13
 3407 0152 00       		.byte	0
 3408 0153 00       		.byte	0
 3409 0154 1D       		.uleb128 0x1d
 3410 0155 04       		.uleb128 0x4
 3411 0156 01       		.byte	0x1
 3412 0157 0B       		.uleb128 0xb
 3413 0158 0B       		.uleb128 0xb
 3414 0159 3A       		.uleb128 0x3a
 3415 015a 0B       		.uleb128 0xb
 3416 015b 3B       		.uleb128 0x3b
 3417 015c 0B       		.uleb128 0xb
 3418 015d 01       		.uleb128 0x1
 3419 015e 13       		.uleb128 0x13
 3420 015f 00       		.byte	0
 3421 0160 00       		.byte	0
 3422 0161 1E       		.uleb128 0x1e
 3423 0162 28       		.uleb128 0x28
 3424 0163 00       		.byte	0
 3425 0164 03       		.uleb128 0x3
 3426 0165 0E       		.uleb128 0xe
 3427 0166 1C       		.uleb128 0x1c
 3428 0167 0D       		.uleb128 0xd
 3429 0168 00       		.byte	0
 3430 0169 00       		.byte	0
 3431 016a 1F       		.uleb128 0x1f
 3432 016b 2E       		.uleb128 0x2e
 3433 016c 01       		.byte	0x1
 3434 016d 03       		.uleb128 0x3
 3435 016e 0E       		.uleb128 0xe
 3436 016f 3A       		.uleb128 0x3a
 3437 0170 0B       		.uleb128 0xb
 3438 0171 3B       		.uleb128 0x3b
 3439 0172 05       		.uleb128 0x5
 3440 0173 27       		.uleb128 0x27
 3441 0174 19       		.uleb128 0x19
 3442 0175 20       		.uleb128 0x20
 3443 0176 0B       		.uleb128 0xb
 3444 0177 01       		.uleb128 0x1
 3445 0178 13       		.uleb128 0x13
 3446 0179 00       		.byte	0
 3447 017a 00       		.byte	0
 3448 017b 20       		.uleb128 0x20
 3449 017c 05       		.uleb128 0x5
 3450 017d 00       		.byte	0
 3451 017e 03       		.uleb128 0x3
 3452 017f 0E       		.uleb128 0xe
 3453 0180 3A       		.uleb128 0x3a
 3454 0181 0B       		.uleb128 0xb
 3455 0182 3B       		.uleb128 0x3b
ARM GAS  /tmp/ccoA48Dc.s 			page 62


 3456 0183 05       		.uleb128 0x5
 3457 0184 49       		.uleb128 0x49
 3458 0185 13       		.uleb128 0x13
 3459 0186 00       		.byte	0
 3460 0187 00       		.byte	0
 3461 0188 21       		.uleb128 0x21
 3462 0189 2E       		.uleb128 0x2e
 3463 018a 01       		.byte	0x1
 3464 018b 03       		.uleb128 0x3
 3465 018c 0E       		.uleb128 0xe
 3466 018d 3A       		.uleb128 0x3a
 3467 018e 0B       		.uleb128 0xb
 3468 018f 3B       		.uleb128 0x3b
 3469 0190 05       		.uleb128 0x5
 3470 0191 27       		.uleb128 0x27
 3471 0192 19       		.uleb128 0x19
 3472 0193 11       		.uleb128 0x11
 3473 0194 01       		.uleb128 0x1
 3474 0195 12       		.uleb128 0x12
 3475 0196 06       		.uleb128 0x6
 3476 0197 40       		.uleb128 0x40
 3477 0198 18       		.uleb128 0x18
 3478 0199 9742     		.uleb128 0x2117
 3479 019b 19       		.uleb128 0x19
 3480 019c 01       		.uleb128 0x1
 3481 019d 13       		.uleb128 0x13
 3482 019e 00       		.byte	0
 3483 019f 00       		.byte	0
 3484 01a0 22       		.uleb128 0x22
 3485 01a1 1D       		.uleb128 0x1d
 3486 01a2 01       		.byte	0x1
 3487 01a3 31       		.uleb128 0x31
 3488 01a4 13       		.uleb128 0x13
 3489 01a5 11       		.uleb128 0x11
 3490 01a6 01       		.uleb128 0x1
 3491 01a7 12       		.uleb128 0x12
 3492 01a8 06       		.uleb128 0x6
 3493 01a9 58       		.uleb128 0x58
 3494 01aa 0B       		.uleb128 0xb
 3495 01ab 59       		.uleb128 0x59
 3496 01ac 05       		.uleb128 0x5
 3497 01ad 00       		.byte	0
 3498 01ae 00       		.byte	0
 3499 01af 23       		.uleb128 0x23
 3500 01b0 05       		.uleb128 0x5
 3501 01b1 00       		.byte	0
 3502 01b2 31       		.uleb128 0x31
 3503 01b3 13       		.uleb128 0x13
 3504 01b4 02       		.uleb128 0x2
 3505 01b5 18       		.uleb128 0x18
 3506 01b6 00       		.byte	0
 3507 01b7 00       		.byte	0
 3508 01b8 24       		.uleb128 0x24
 3509 01b9 2E       		.uleb128 0x2e
 3510 01ba 00       		.byte	0
 3511 01bb 03       		.uleb128 0x3
 3512 01bc 0E       		.uleb128 0xe
ARM GAS  /tmp/ccoA48Dc.s 			page 63


 3513 01bd 3A       		.uleb128 0x3a
 3514 01be 0B       		.uleb128 0xb
 3515 01bf 3B       		.uleb128 0x3b
 3516 01c0 05       		.uleb128 0x5
 3517 01c1 27       		.uleb128 0x27
 3518 01c2 19       		.uleb128 0x19
 3519 01c3 11       		.uleb128 0x11
 3520 01c4 01       		.uleb128 0x1
 3521 01c5 12       		.uleb128 0x12
 3522 01c6 06       		.uleb128 0x6
 3523 01c7 40       		.uleb128 0x40
 3524 01c8 18       		.uleb128 0x18
 3525 01c9 9642     		.uleb128 0x2116
 3526 01cb 19       		.uleb128 0x19
 3527 01cc 00       		.byte	0
 3528 01cd 00       		.byte	0
 3529 01ce 25       		.uleb128 0x25
 3530 01cf 2E       		.uleb128 0x2e
 3531 01d0 01       		.byte	0x1
 3532 01d1 03       		.uleb128 0x3
 3533 01d2 0E       		.uleb128 0xe
 3534 01d3 3A       		.uleb128 0x3a
 3535 01d4 0B       		.uleb128 0xb
 3536 01d5 3B       		.uleb128 0x3b
 3537 01d6 05       		.uleb128 0x5
 3538 01d7 27       		.uleb128 0x27
 3539 01d8 19       		.uleb128 0x19
 3540 01d9 49       		.uleb128 0x49
 3541 01da 13       		.uleb128 0x13
 3542 01db 11       		.uleb128 0x11
 3543 01dc 01       		.uleb128 0x1
 3544 01dd 12       		.uleb128 0x12
 3545 01de 06       		.uleb128 0x6
 3546 01df 40       		.uleb128 0x40
 3547 01e0 18       		.uleb128 0x18
 3548 01e1 9642     		.uleb128 0x2116
 3549 01e3 19       		.uleb128 0x19
 3550 01e4 01       		.uleb128 0x1
 3551 01e5 13       		.uleb128 0x13
 3552 01e6 00       		.byte	0
 3553 01e7 00       		.byte	0
 3554 01e8 26       		.uleb128 0x26
 3555 01e9 05       		.uleb128 0x5
 3556 01ea 00       		.byte	0
 3557 01eb 03       		.uleb128 0x3
 3558 01ec 08       		.uleb128 0x8
 3559 01ed 3A       		.uleb128 0x3a
 3560 01ee 0B       		.uleb128 0xb
 3561 01ef 3B       		.uleb128 0x3b
 3562 01f0 05       		.uleb128 0x5
 3563 01f1 49       		.uleb128 0x49
 3564 01f2 13       		.uleb128 0x13
 3565 01f3 02       		.uleb128 0x2
 3566 01f4 18       		.uleb128 0x18
 3567 01f5 00       		.byte	0
 3568 01f6 00       		.byte	0
 3569 01f7 27       		.uleb128 0x27
ARM GAS  /tmp/ccoA48Dc.s 			page 64


 3570 01f8 2E       		.uleb128 0x2e
 3571 01f9 01       		.byte	0x1
 3572 01fa 03       		.uleb128 0x3
 3573 01fb 0E       		.uleb128 0xe
 3574 01fc 3A       		.uleb128 0x3a
 3575 01fd 0B       		.uleb128 0xb
 3576 01fe 3B       		.uleb128 0x3b
 3577 01ff 05       		.uleb128 0x5
 3578 0200 27       		.uleb128 0x27
 3579 0201 19       		.uleb128 0x19
 3580 0202 11       		.uleb128 0x11
 3581 0203 01       		.uleb128 0x1
 3582 0204 12       		.uleb128 0x12
 3583 0205 06       		.uleb128 0x6
 3584 0206 40       		.uleb128 0x40
 3585 0207 18       		.uleb128 0x18
 3586 0208 9642     		.uleb128 0x2116
 3587 020a 19       		.uleb128 0x19
 3588 020b 01       		.uleb128 0x1
 3589 020c 13       		.uleb128 0x13
 3590 020d 00       		.byte	0
 3591 020e 00       		.byte	0
 3592 020f 28       		.uleb128 0x28
 3593 0210 05       		.uleb128 0x5
 3594 0211 00       		.byte	0
 3595 0212 03       		.uleb128 0x3
 3596 0213 0E       		.uleb128 0xe
 3597 0214 3A       		.uleb128 0x3a
 3598 0215 0B       		.uleb128 0xb
 3599 0216 3B       		.uleb128 0x3b
 3600 0217 05       		.uleb128 0x5
 3601 0218 49       		.uleb128 0x49
 3602 0219 13       		.uleb128 0x13
 3603 021a 02       		.uleb128 0x2
 3604 021b 18       		.uleb128 0x18
 3605 021c 00       		.byte	0
 3606 021d 00       		.byte	0
 3607 021e 29       		.uleb128 0x29
 3608 021f 2E       		.uleb128 0x2e
 3609 0220 01       		.byte	0x1
 3610 0221 03       		.uleb128 0x3
 3611 0222 0E       		.uleb128 0xe
 3612 0223 3A       		.uleb128 0x3a
 3613 0224 0B       		.uleb128 0xb
 3614 0225 3B       		.uleb128 0x3b
 3615 0226 0B       		.uleb128 0xb
 3616 0227 27       		.uleb128 0x27
 3617 0228 19       		.uleb128 0x19
 3618 0229 11       		.uleb128 0x11
 3619 022a 01       		.uleb128 0x1
 3620 022b 12       		.uleb128 0x12
 3621 022c 06       		.uleb128 0x6
 3622 022d 40       		.uleb128 0x40
 3623 022e 18       		.uleb128 0x18
 3624 022f 9742     		.uleb128 0x2117
 3625 0231 19       		.uleb128 0x19
 3626 0232 01       		.uleb128 0x1
ARM GAS  /tmp/ccoA48Dc.s 			page 65


 3627 0233 13       		.uleb128 0x13
 3628 0234 00       		.byte	0
 3629 0235 00       		.byte	0
 3630 0236 2A       		.uleb128 0x2a
 3631 0237 05       		.uleb128 0x5
 3632 0238 00       		.byte	0
 3633 0239 03       		.uleb128 0x3
 3634 023a 08       		.uleb128 0x8
 3635 023b 3A       		.uleb128 0x3a
 3636 023c 0B       		.uleb128 0xb
 3637 023d 3B       		.uleb128 0x3b
 3638 023e 0B       		.uleb128 0xb
 3639 023f 49       		.uleb128 0x49
 3640 0240 13       		.uleb128 0x13
 3641 0241 02       		.uleb128 0x2
 3642 0242 18       		.uleb128 0x18
 3643 0243 00       		.byte	0
 3644 0244 00       		.byte	0
 3645 0245 2B       		.uleb128 0x2b
 3646 0246 05       		.uleb128 0x5
 3647 0247 00       		.byte	0
 3648 0248 03       		.uleb128 0x3
 3649 0249 0E       		.uleb128 0xe
 3650 024a 3A       		.uleb128 0x3a
 3651 024b 0B       		.uleb128 0xb
 3652 024c 3B       		.uleb128 0x3b
 3653 024d 0B       		.uleb128 0xb
 3654 024e 49       		.uleb128 0x49
 3655 024f 13       		.uleb128 0x13
 3656 0250 02       		.uleb128 0x2
 3657 0251 18       		.uleb128 0x18
 3658 0252 00       		.byte	0
 3659 0253 00       		.byte	0
 3660 0254 2C       		.uleb128 0x2c
 3661 0255 34       		.uleb128 0x34
 3662 0256 00       		.byte	0
 3663 0257 03       		.uleb128 0x3
 3664 0258 08       		.uleb128 0x8
 3665 0259 3A       		.uleb128 0x3a
 3666 025a 0B       		.uleb128 0xb
 3667 025b 3B       		.uleb128 0x3b
 3668 025c 0B       		.uleb128 0xb
 3669 025d 49       		.uleb128 0x49
 3670 025e 13       		.uleb128 0x13
 3671 025f 02       		.uleb128 0x2
 3672 0260 18       		.uleb128 0x18
 3673 0261 00       		.byte	0
 3674 0262 00       		.byte	0
 3675 0263 2D       		.uleb128 0x2d
 3676 0264 2E       		.uleb128 0x2e
 3677 0265 01       		.byte	0x1
 3678 0266 03       		.uleb128 0x3
 3679 0267 0E       		.uleb128 0xe
 3680 0268 3A       		.uleb128 0x3a
 3681 0269 0B       		.uleb128 0xb
 3682 026a 3B       		.uleb128 0x3b
 3683 026b 0B       		.uleb128 0xb
ARM GAS  /tmp/ccoA48Dc.s 			page 66


 3684 026c 27       		.uleb128 0x27
 3685 026d 19       		.uleb128 0x19
 3686 026e 11       		.uleb128 0x11
 3687 026f 01       		.uleb128 0x1
 3688 0270 12       		.uleb128 0x12
 3689 0271 06       		.uleb128 0x6
 3690 0272 40       		.uleb128 0x40
 3691 0273 18       		.uleb128 0x18
 3692 0274 9642     		.uleb128 0x2116
 3693 0276 19       		.uleb128 0x19
 3694 0277 01       		.uleb128 0x1
 3695 0278 13       		.uleb128 0x13
 3696 0279 00       		.byte	0
 3697 027a 00       		.byte	0
 3698 027b 2E       		.uleb128 0x2e
 3699 027c 0B       		.uleb128 0xb
 3700 027d 01       		.byte	0x1
 3701 027e 11       		.uleb128 0x11
 3702 027f 01       		.uleb128 0x1
 3703 0280 12       		.uleb128 0x12
 3704 0281 06       		.uleb128 0x6
 3705 0282 01       		.uleb128 0x1
 3706 0283 13       		.uleb128 0x13
 3707 0284 00       		.byte	0
 3708 0285 00       		.byte	0
 3709 0286 2F       		.uleb128 0x2f
 3710 0287 0B       		.uleb128 0xb
 3711 0288 01       		.byte	0x1
 3712 0289 11       		.uleb128 0x11
 3713 028a 01       		.uleb128 0x1
 3714 028b 12       		.uleb128 0x12
 3715 028c 06       		.uleb128 0x6
 3716 028d 00       		.byte	0
 3717 028e 00       		.byte	0
 3718 028f 30       		.uleb128 0x30
 3719 0290 2E       		.uleb128 0x2e
 3720 0291 00       		.byte	0
 3721 0292 3F       		.uleb128 0x3f
 3722 0293 19       		.uleb128 0x19
 3723 0294 03       		.uleb128 0x3
 3724 0295 0E       		.uleb128 0xe
 3725 0296 3A       		.uleb128 0x3a
 3726 0297 0B       		.uleb128 0xb
 3727 0298 3B       		.uleb128 0x3b
 3728 0299 05       		.uleb128 0x5
 3729 029a 27       		.uleb128 0x27
 3730 029b 19       		.uleb128 0x19
 3731 029c 11       		.uleb128 0x11
 3732 029d 01       		.uleb128 0x1
 3733 029e 12       		.uleb128 0x12
 3734 029f 06       		.uleb128 0x6
 3735 02a0 40       		.uleb128 0x40
 3736 02a1 18       		.uleb128 0x18
 3737 02a2 9642     		.uleb128 0x2116
 3738 02a4 19       		.uleb128 0x19
 3739 02a5 00       		.byte	0
 3740 02a6 00       		.byte	0
ARM GAS  /tmp/ccoA48Dc.s 			page 67


 3741 02a7 31       		.uleb128 0x31
 3742 02a8 2E       		.uleb128 0x2e
 3743 02a9 01       		.byte	0x1
 3744 02aa 3F       		.uleb128 0x3f
 3745 02ab 19       		.uleb128 0x19
 3746 02ac 03       		.uleb128 0x3
 3747 02ad 0E       		.uleb128 0xe
 3748 02ae 3A       		.uleb128 0x3a
 3749 02af 0B       		.uleb128 0xb
 3750 02b0 3B       		.uleb128 0x3b
 3751 02b1 05       		.uleb128 0x5
 3752 02b2 27       		.uleb128 0x27
 3753 02b3 19       		.uleb128 0x19
 3754 02b4 11       		.uleb128 0x11
 3755 02b5 01       		.uleb128 0x1
 3756 02b6 12       		.uleb128 0x12
 3757 02b7 06       		.uleb128 0x6
 3758 02b8 40       		.uleb128 0x40
 3759 02b9 18       		.uleb128 0x18
 3760 02ba 9642     		.uleb128 0x2116
 3761 02bc 19       		.uleb128 0x19
 3762 02bd 01       		.uleb128 0x1
 3763 02be 13       		.uleb128 0x13
 3764 02bf 00       		.byte	0
 3765 02c0 00       		.byte	0
 3766 02c1 32       		.uleb128 0x32
 3767 02c2 34       		.uleb128 0x34
 3768 02c3 00       		.byte	0
 3769 02c4 03       		.uleb128 0x3
 3770 02c5 0E       		.uleb128 0xe
 3771 02c6 3A       		.uleb128 0x3a
 3772 02c7 0B       		.uleb128 0xb
 3773 02c8 3B       		.uleb128 0x3b
 3774 02c9 0B       		.uleb128 0xb
 3775 02ca 49       		.uleb128 0x49
 3776 02cb 13       		.uleb128 0x13
 3777 02cc 02       		.uleb128 0x2
 3778 02cd 18       		.uleb128 0x18
 3779 02ce 00       		.byte	0
 3780 02cf 00       		.byte	0
 3781 02d0 33       		.uleb128 0x33
 3782 02d1 34       		.uleb128 0x34
 3783 02d2 00       		.byte	0
 3784 02d3 03       		.uleb128 0x3
 3785 02d4 0E       		.uleb128 0xe
 3786 02d5 3A       		.uleb128 0x3a
 3787 02d6 0B       		.uleb128 0xb
 3788 02d7 3B       		.uleb128 0x3b
 3789 02d8 05       		.uleb128 0x5
 3790 02d9 49       		.uleb128 0x49
 3791 02da 13       		.uleb128 0x13
 3792 02db 3F       		.uleb128 0x3f
 3793 02dc 19       		.uleb128 0x19
 3794 02dd 3C       		.uleb128 0x3c
 3795 02de 19       		.uleb128 0x19
 3796 02df 00       		.byte	0
 3797 02e0 00       		.byte	0
ARM GAS  /tmp/ccoA48Dc.s 			page 68


 3798 02e1 34       		.uleb128 0x34
 3799 02e2 34       		.uleb128 0x34
 3800 02e3 00       		.byte	0
 3801 02e4 03       		.uleb128 0x3
 3802 02e5 08       		.uleb128 0x8
 3803 02e6 3A       		.uleb128 0x3a
 3804 02e7 0B       		.uleb128 0xb
 3805 02e8 3B       		.uleb128 0x3b
 3806 02e9 05       		.uleb128 0x5
 3807 02ea 49       		.uleb128 0x49
 3808 02eb 13       		.uleb128 0x13
 3809 02ec 3F       		.uleb128 0x3f
 3810 02ed 19       		.uleb128 0x19
 3811 02ee 3C       		.uleb128 0x3c
 3812 02ef 19       		.uleb128 0x19
 3813 02f0 00       		.byte	0
 3814 02f1 00       		.byte	0
 3815 02f2 35       		.uleb128 0x35
 3816 02f3 34       		.uleb128 0x34
 3817 02f4 00       		.byte	0
 3818 02f5 03       		.uleb128 0x3
 3819 02f6 08       		.uleb128 0x8
 3820 02f7 3A       		.uleb128 0x3a
 3821 02f8 0B       		.uleb128 0xb
 3822 02f9 3B       		.uleb128 0x3b
 3823 02fa 0B       		.uleb128 0xb
 3824 02fb 49       		.uleb128 0x49
 3825 02fc 13       		.uleb128 0x13
 3826 02fd 3F       		.uleb128 0x3f
 3827 02fe 19       		.uleb128 0x19
 3828 02ff 02       		.uleb128 0x2
 3829 0300 18       		.uleb128 0x18
 3830 0301 00       		.byte	0
 3831 0302 00       		.byte	0
 3832 0303 00       		.byte	0
 3833              		.section	.debug_aranges,"",%progbits
 3834 0000 AC000000 		.4byte	0xac
 3835 0004 0200     		.2byte	0x2
 3836 0006 00000000 		.4byte	.Ldebug_info0
 3837 000a 04       		.byte	0x4
 3838 000b 00       		.byte	0
 3839 000c 0000     		.2byte	0
 3840 000e 0000     		.2byte	0
 3841 0010 00000000 		.4byte	.LFB127
 3842 0014 10000000 		.4byte	.LFE127-.LFB127
 3843 0018 00000000 		.4byte	.LFB128
 3844 001c 10000000 		.4byte	.LFE128-.LFB128
 3845 0020 00000000 		.4byte	.LFB129
 3846 0024 08000000 		.4byte	.LFE129-.LFB129
 3847 0028 00000000 		.4byte	.LFB130
 3848 002c 08000000 		.4byte	.LFE130-.LFB130
 3849 0030 00000000 		.4byte	.LFB169
 3850 0034 10000000 		.4byte	.LFE169-.LFB169
 3851 0038 00000000 		.4byte	.LFB170
 3852 003c 10000000 		.4byte	.LFE170-.LFB170
 3853 0040 00000000 		.4byte	.LFB237
 3854 0044 32000000 		.4byte	.LFE237-.LFB237
ARM GAS  /tmp/ccoA48Dc.s 			page 69


 3855 0048 00000000 		.4byte	.LFB246
 3856 004c 08000000 		.4byte	.LFE246-.LFB246
 3857 0050 00000000 		.4byte	.LFB247
 3858 0054 08000000 		.4byte	.LFE247-.LFB247
 3859 0058 00000000 		.4byte	.LFB266
 3860 005c 16000000 		.4byte	.LFE266-.LFB266
 3861 0060 00000000 		.4byte	.LFB271
 3862 0064 9C000000 		.4byte	.LFE271-.LFB271
 3863 0068 00000000 		.4byte	.LFB272
 3864 006c 1A000000 		.4byte	.LFE272-.LFB272
 3865 0070 00000000 		.4byte	.LFB273
 3866 0074 72000000 		.4byte	.LFE273-.LFB273
 3867 0078 00000000 		.4byte	.LFB274
 3868 007c 3E010000 		.4byte	.LFE274-.LFB274
 3869 0080 00000000 		.4byte	.LFB275
 3870 0084 18000000 		.4byte	.LFE275-.LFB275
 3871 0088 00000000 		.4byte	.LFB276
 3872 008c 20000000 		.4byte	.LFE276-.LFB276
 3873 0090 00000000 		.4byte	.LFB277
 3874 0094 24000000 		.4byte	.LFE277-.LFB277
 3875 0098 00000000 		.4byte	.LFB278
 3876 009c 50000000 		.4byte	.LFE278-.LFB278
 3877 00a0 00000000 		.4byte	.LFB279
 3878 00a4 44000000 		.4byte	.LFE279-.LFB279
 3879 00a8 00000000 		.4byte	0
 3880 00ac 00000000 		.4byte	0
 3881              		.section	.debug_ranges,"",%progbits
 3882              	.Ldebug_ranges0:
 3883 0000 00000000 		.4byte	.LFB127
 3884 0004 10000000 		.4byte	.LFE127
 3885 0008 00000000 		.4byte	.LFB128
 3886 000c 10000000 		.4byte	.LFE128
 3887 0010 00000000 		.4byte	.LFB129
 3888 0014 08000000 		.4byte	.LFE129
 3889 0018 00000000 		.4byte	.LFB130
 3890 001c 08000000 		.4byte	.LFE130
 3891 0020 00000000 		.4byte	.LFB169
 3892 0024 10000000 		.4byte	.LFE169
 3893 0028 00000000 		.4byte	.LFB170
 3894 002c 10000000 		.4byte	.LFE170
 3895 0030 00000000 		.4byte	.LFB237
 3896 0034 32000000 		.4byte	.LFE237
 3897 0038 00000000 		.4byte	.LFB246
 3898 003c 08000000 		.4byte	.LFE246
 3899 0040 00000000 		.4byte	.LFB247
 3900 0044 08000000 		.4byte	.LFE247
 3901 0048 00000000 		.4byte	.LFB266
 3902 004c 16000000 		.4byte	.LFE266
 3903 0050 00000000 		.4byte	.LFB271
 3904 0054 9C000000 		.4byte	.LFE271
 3905 0058 00000000 		.4byte	.LFB272
 3906 005c 1A000000 		.4byte	.LFE272
 3907 0060 00000000 		.4byte	.LFB273
 3908 0064 72000000 		.4byte	.LFE273
 3909 0068 00000000 		.4byte	.LFB274
 3910 006c 3E010000 		.4byte	.LFE274
 3911 0070 00000000 		.4byte	.LFB275
ARM GAS  /tmp/ccoA48Dc.s 			page 70


 3912 0074 18000000 		.4byte	.LFE275
 3913 0078 00000000 		.4byte	.LFB276
 3914 007c 20000000 		.4byte	.LFE276
 3915 0080 00000000 		.4byte	.LFB277
 3916 0084 24000000 		.4byte	.LFE277
 3917 0088 00000000 		.4byte	.LFB278
 3918 008c 50000000 		.4byte	.LFE278
 3919 0090 00000000 		.4byte	.LFB279
 3920 0094 44000000 		.4byte	.LFE279
 3921 0098 00000000 		.4byte	0
 3922 009c 00000000 		.4byte	0
 3923              		.section	.debug_line,"",%progbits
 3924              	.Ldebug_line0:
 3925 0000 E9040000 		.section	.debug_str,"MS",%progbits,1
 3925      0200D602 
 3925      00000201 
 3925      FB0E0D00 
 3925      01010101 
 3926              	.LASF51:
 3927 0000 705F7374 		.ascii	"p_stats\000"
 3927      61747300 
 3928              	.LASF2:
 3929 0008 73697A65 		.ascii	"size_t\000"
 3929      5F7400
 3930              	.LASF90:
 3931 000f 73697A65 		.ascii	"sizetype\000"
 3931      74797065 
 3931      00
 3932              	.LASF150:
 3933 0018 77747365 		.ascii	"wtsemp\000"
 3933      6D7000
 3934              	.LASF31:
 3935 001f 73797374 		.ascii	"systime_t\000"
 3935      696D655F 
 3935      7400
 3936              	.LASF117:
 3937 0029 504C4C49 		.ascii	"PLLI2SCFGR\000"
 3937      32534346 
 3937      475200
 3938              	.LASF36:
 3939 0034 705F6374 		.ascii	"p_ctx\000"
 3939      7800
 3940              	.LASF25:
 3941 003a 74707269 		.ascii	"tprio_t\000"
 3941      6F5F7400 
 3942              	.LASF45:
 3943 0042 705F6D73 		.ascii	"p_msgqueue\000"
 3943      67717565 
 3943      756500
 3944              	.LASF62:
 3945 004d 725F6374 		.ascii	"r_ctx\000"
 3945      7800
 3946              	.LASF17:
 3947 0053 696E7433 		.ascii	"int32_t\000"
 3947      325F7400 
 3948              	.LASF197:
 3949 005b 53657269 		.ascii	"SerialConfig\000"
ARM GAS  /tmp/ccoA48Dc.s 			page 71


 3949      616C436F 
 3949      6E666967 
 3949      00
 3950              	.LASF203:
 3951 0068 77726974 		.ascii	"writet\000"
 3951      657400
 3952              	.LASF66:
 3953 006f 76746675 		.ascii	"vtfunc_t\000"
 3953      6E635F74 
 3953      00
 3954              	.LASF75:
 3955 0078 63685F76 		.ascii	"ch_virtual_timers_list\000"
 3955      69727475 
 3955      616C5F74 
 3955      696D6572 
 3955      735F6C69 
 3956              	.LASF199:
 3957 008f 77726974 		.ascii	"write\000"
 3957      6500
 3958              	.LASF227:
 3959 0095 474E5520 		.ascii	"GNU C 4.8.4 20141219 (release) -mcpu=cortex-m4 -mno"
 3959      4320342E 
 3959      382E3420 
 3959      32303134 
 3959      31323139 
 3960 00c8 2D746875 		.ascii	"-thumb-interwork -mthumb -ggdb -O0 -fomit-frame-poi"
 3960      6D622D69 
 3960      6E746572 
 3960      776F726B 
 3960      202D6D74 
 3961 00fb 6E746572 		.ascii	"nter -falign-functions=16 -ffunction-sections -fdat"
 3961      202D6661 
 3961      6C69676E 
 3961      2D66756E 
 3961      6374696F 
 3962 012e 612D7365 		.ascii	"a-sections -fno-common\000"
 3962      6374696F 
 3962      6E73202D 
 3962      666E6F2D 
 3962      636F6D6D 
 3963              	.LASF167:
 3964 0145 656C5F66 		.ascii	"el_flags\000"
 3964      6C616773 
 3964      00
 3965              	.LASF216:
 3966 014e 636F6E66 		.ascii	"config\000"
 3966      696700
 3967              	.LASF192:
 3968 0155 73746174 		.ascii	"state\000"
 3968      6500
 3969              	.LASF81:
 3970 015b 6C6F636B 		.ascii	"lock_cnt\000"
 3970      5F636E74 
 3970      00
 3971              	.LASF201:
 3972 0164 70757474 		.ascii	"putt\000"
 3972      00
ARM GAS  /tmp/ccoA48Dc.s 			page 72


 3973              	.LASF219:
 3974 0169 73657276 		.ascii	"serve_interrupt\000"
 3974      655F696E 
 3974      74657272 
 3974      75707400 
 3975              	.LASF126:
 3976 0179 73655F74 		.ascii	"se_tp\000"
 3976      7000
 3977              	.LASF140:
 3978 017f 74696D65 		.ascii	"time_measurement_t\000"
 3978      5F6D6561 
 3978      73757265 
 3978      6D656E74 
 3978      5F7400
 3979              	.LASF211:
 3980 0192 6F73616C 		.ascii	"osalSysLockFromISR\000"
 3980      5379734C 
 3980      6F636B46 
 3980      726F6D49 
 3980      535200
 3981              	.LASF218:
 3982 01a5 7365745F 		.ascii	"set_error\000"
 3982      6572726F 
 3982      7200
 3983              	.LASF158:
 3984 01af 6D5F6F77 		.ascii	"m_owner\000"
 3984      6E657200 
 3985              	.LASF73:
 3986 01b7 76745F70 		.ascii	"vt_par\000"
 3986      617200
 3987              	.LASF147:
 3988 01be 65786974 		.ascii	"exitcode\000"
 3988      636F6465 
 3988      00
 3989              	.LASF3:
 3990 01c7 5F5F7569 		.ascii	"__uint8_t\000"
 3990      6E74385F 
 3990      7400
 3991              	.LASF177:
 3992 01d1 715F746F 		.ascii	"q_top\000"
 3992      7000
 3993              	.LASF108:
 3994 01d7 41484232 		.ascii	"AHB2LPENR\000"
 3994      4C50454E 
 3994      5200
 3995              	.LASF204:
 3996 01e1 72656164 		.ascii	"readt\000"
 3996      7400
 3997              	.LASF223:
 3998 01e7 73645F6C 		.ascii	"sd_lld_start\000"
 3998      6C645F73 
 3998      74617274 
 3998      00
 3999              	.LASF176:
 4000 01f4 715F6275 		.ascii	"q_buffer\000"
 4000      66666572 
 4000      00
ARM GAS  /tmp/ccoA48Dc.s 			page 73


 4001              	.LASF180:
 4002 01fd 715F6E6F 		.ascii	"q_notify\000"
 4002      74696679 
 4002      00
 4003              	.LASF37:
 4004 0206 705F6E65 		.ascii	"p_newer\000"
 4004      77657200 
 4005              	.LASF9:
 4006 020e 6C6F6E67 		.ascii	"long int\000"
 4006      20696E74 
 4006      00
 4007              	.LASF33:
 4008 0217 705F6E65 		.ascii	"p_next\000"
 4008      787400
 4009              	.LASF206:
 4010 021e 706F7274 		.ascii	"port_unlock\000"
 4010      5F756E6C 
 4010      6F636B00 
 4011              	.LASF179:
 4012 022a 715F7264 		.ascii	"q_rdptr\000"
 4012      70747200 
 4013              	.LASF34:
 4014 0232 705F7072 		.ascii	"p_prev\000"
 4014      657600
 4015              	.LASF225:
 4016 0239 64656661 		.ascii	"default_config\000"
 4016      756C745F 
 4016      636F6E66 
 4016      696700
 4017              	.LASF209:
 4018 0248 63685379 		.ascii	"chSysLockFromISR\000"
 4018      734C6F63 
 4018      6B46726F 
 4018      6D495352 
 4018      00
 4019              	.LASF23:
 4020 0259 74737461 		.ascii	"tstate_t\000"
 4020      74655F74 
 4020      00
 4021              	.LASF21:
 4022 0262 72747469 		.ascii	"rttime_t\000"
 4022      6D655F74 
 4022      00
 4023              	.LASF56:
 4024 026b 74687265 		.ascii	"threads_queue_t\000"
 4024      6164735F 
 4024      71756575 
 4024      655F7400 
 4025              	.LASF48:
 4026 027b 705F6D74 		.ascii	"p_mtxlist\000"
 4026      786C6973 
 4026      7400
 4027              	.LASF194:
 4028 0285 6F717565 		.ascii	"oqueue\000"
 4028      756500
 4029              	.LASF121:
 4030 028c 72656761 		.ascii	"regarm_t\000"
ARM GAS  /tmp/ccoA48Dc.s 			page 74


 4030      726D5F74 
 4030      00
 4031              	.LASF105:
 4032 0295 41504232 		.ascii	"APB2ENR\000"
 4032      454E5200 
 4033              	.LASF173:
 4034 029d 696F5F71 		.ascii	"io_queue\000"
 4034      75657565 
 4034      00
 4035              	.LASF107:
 4036 02a6 41484231 		.ascii	"AHB1LPENR\000"
 4036      4C50454E 
 4036      5200
 4037              	.LASF195:
 4038 02b0 75736172 		.ascii	"usart\000"
 4038      7400
 4039              	.LASF139:
 4040 02b6 63756D75 		.ascii	"cumulative\000"
 4040      6C617469 
 4040      766500
 4041              	.LASF181:
 4042 02c1 715F6C69 		.ascii	"q_link\000"
 4042      6E6B00
 4043              	.LASF1:
 4044 02c8 7369676E 		.ascii	"signed char\000"
 4044      65642063 
 4044      68617200 
 4045              	.LASF152:
 4046 02d4 65776D61 		.ascii	"ewmask\000"
 4046      736B00
 4047              	.LASF15:
 4048 02db 75696E74 		.ascii	"uint8_t\000"
 4048      385F7400 
 4049              	.LASF27:
 4050 02e3 6576656E 		.ascii	"eventmask_t\000"
 4050      746D6173 
 4050      6B5F7400 
 4051              	.LASF123:
 4052 02ef 636F6E74 		.ascii	"context\000"
 4052      65787400 
 4053              	.LASF149:
 4054 02f7 77747472 		.ascii	"wttrp\000"
 4054      7000
 4055              	.LASF210:
 4056 02fd 63685379 		.ascii	"chSysUnlockFromISR\000"
 4056      73556E6C 
 4056      6F636B46 
 4056      726F6D49 
 4056      535200
 4057              	.LASF96:
 4058 0310 52455345 		.ascii	"RESERVED0\000"
 4058      52564544 
 4058      3000
 4059              	.LASF99:
 4060 031a 52455345 		.ascii	"RESERVED1\000"
 4060      52564544 
 4060      3100
ARM GAS  /tmp/ccoA48Dc.s 			page 75


 4061              	.LASF4:
 4062 0324 756E7369 		.ascii	"unsigned char\000"
 4062      676E6564 
 4062      20636861 
 4062      7200
 4063              	.LASF106:
 4064 0332 52455345 		.ascii	"RESERVED3\000"
 4064      52564544 
 4064      3300
 4065              	.LASF110:
 4066 033c 52455345 		.ascii	"RESERVED4\000"
 4066      52564544 
 4066      3400
 4067              	.LASF113:
 4068 0346 52455345 		.ascii	"RESERVED5\000"
 4068      52564544 
 4068      3500
 4069              	.LASF115:
 4070 0350 52455345 		.ascii	"RESERVED6\000"
 4070      52564544 
 4070      3600
 4071              	.LASF79:
 4072 035a 70616E69 		.ascii	"panic_msg\000"
 4072      635F6D73 
 4072      6700
 4073              	.LASF82:
 4074 0364 74726163 		.ascii	"trace_buffer\000"
 4074      655F6275 
 4074      66666572 
 4074      00
 4075              	.LASF63:
 4076 0371 725F6E65 		.ascii	"r_newer\000"
 4076      77657200 
 4077              	.LASF77:
 4078 0379 73797374 		.ascii	"system_debug_t\000"
 4078      656D5F64 
 4078      65627567 
 4078      5F7400
 4079              	.LASF186:
 4080 0388 53445F55 		.ascii	"SD_UNINIT\000"
 4080      4E494E49 
 4080      5400
 4081              	.LASF185:
 4082 0392 5F426F6F 		.ascii	"_Bool\000"
 4082      6C00
 4083              	.LASF103:
 4084 0398 52455345 		.ascii	"RESERVED2\000"
 4084      52564544 
 4084      3200
 4085              	.LASF160:
 4086 03a2 63686172 		.ascii	"char\000"
 4086      00
 4087              	.LASF93:
 4088 03a7 41484231 		.ascii	"AHB1RSTR\000"
 4088      52535452 
 4088      00
 4089              	.LASF35:
ARM GAS  /tmp/ccoA48Dc.s 			page 76


 4090 03b0 705F7072 		.ascii	"p_prio\000"
 4090      696F00
 4091              	.LASF6:
 4092 03b7 5F5F7569 		.ascii	"__uint16_t\000"
 4092      6E743136 
 4092      5F7400
 4093              	.LASF101:
 4094 03c2 41484232 		.ascii	"AHB2ENR\000"
 4094      454E5200 
 4095              	.LASF148:
 4096 03ca 77746F62 		.ascii	"wtobjp\000"
 4096      6A7000
 4097              	.LASF142:
 4098 03d1 6E5F6374 		.ascii	"n_ctxswc\000"
 4098      78737763 
 4098      00
 4099              	.LASF214:
 4100 03da 666C6167 		.ascii	"flags\000"
 4100      7300
 4101              	.LASF202:
 4102 03e0 67657474 		.ascii	"gett\000"
 4102      00
 4103              	.LASF122:
 4104 03e5 73746B61 		.ascii	"stkalign_t\000"
 4104      6C69676E 
 4104      5F7400
 4105              	.LASF120:
 4106 03f0 55534152 		.ascii	"USART_TypeDef\000"
 4106      545F5479 
 4106      70654465 
 4106      6600
 4107              	.LASF137:
 4108 03fe 776F7273 		.ascii	"worst\000"
 4108      7400
 4109              	.LASF162:
 4110 0404 6576656E 		.ascii	"event_listener_t\000"
 4110      745F6C69 
 4110      7374656E 
 4110      65725F74 
 4110      00
 4111              	.LASF228:
 4112 0415 2F686F6D 		.ascii	"/home/efe/ChibiOS/os/hal/ports/STM32/LLD/USARTv1/se"
 4112      652F6566 
 4112      652F4368 
 4112      6962694F 
 4112      532F6F73 
 4113 0448 7269616C 		.ascii	"rial_lld.c\000"
 4113      5F6C6C64 
 4113      2E6300
 4114              	.LASF114:
 4115 0453 42444352 		.ascii	"BDCR\000"
 4115      00
 4116              	.LASF29:
 4117 0458 636E745F 		.ascii	"cnt_t\000"
 4117      7400
 4118              	.LASF72:
 4119 045e 76745F66 		.ascii	"vt_func\000"
ARM GAS  /tmp/ccoA48Dc.s 			page 77


 4119      756E6300 
 4120              	.LASF133:
 4121 0466 63685F74 		.ascii	"ch_trace_buffer_t\000"
 4121      72616365 
 4121      5F627566 
 4121      6665725F 
 4121      7400
 4122              	.LASF196:
 4123 0478 73706565 		.ascii	"speed\000"
 4123      6400
 4124              	.LASF47:
 4125 047e 705F6570 		.ascii	"p_epending\000"
 4125      656E6469 
 4125      6E6700
 4126              	.LASF151:
 4127 0489 77746D74 		.ascii	"wtmtxp\000"
 4127      787000
 4128              	.LASF59:
 4129 0490 63685F72 		.ascii	"ch_ready_list\000"
 4129      65616479 
 4129      5F6C6973 
 4129      7400
 4130              	.LASF92:
 4131 049e 43464752 		.ascii	"CFGR\000"
 4131      00
 4132              	.LASF80:
 4133 04a3 6973725F 		.ascii	"isr_cnt\000"
 4133      636E7400 
 4134              	.LASF212:
 4135 04ab 6F73616C 		.ascii	"osalSysUnlockFromISR\000"
 4135      53797355 
 4135      6E6C6F63 
 4135      6B46726F 
 4135      6D495352 
 4136              	.LASF144:
 4137 04c0 6D5F6372 		.ascii	"m_crit_isr\000"
 4137      69745F69 
 4137      737200
 4138              	.LASF170:
 4139 04cb 65735F6E 		.ascii	"es_next\000"
 4139      65787400 
 4140              	.LASF175:
 4141 04d3 715F636F 		.ascii	"q_counter\000"
 4141      756E7465 
 4141      7200
 4142              	.LASF128:
 4143 04dd 73655F73 		.ascii	"se_state\000"
 4143      74617465 
 4143      00
 4144              	.LASF143:
 4145 04e6 6D5F6372 		.ascii	"m_crit_thd\000"
 4145      69745F74 
 4145      686400
 4146              	.LASF13:
 4147 04f1 5F5F7569 		.ascii	"__uint64_t\000"
 4147      6E743634 
 4147      5F7400
ARM GAS  /tmp/ccoA48Dc.s 			page 78


 4148              	.LASF11:
 4149 04fc 6C6F6E67 		.ascii	"long unsigned int\000"
 4149      20756E73 
 4149      69676E65 
 4149      6420696E 
 4149      7400
 4150              	.LASF153:
 4151 050e 63685F73 		.ascii	"ch_semaphore\000"
 4151      656D6170 
 4151      686F7265 
 4151      00
 4152              	.LASF54:
 4153 051b 63685F74 		.ascii	"ch_thread\000"
 4153      68726561 
 4153      6400
 4154              	.LASF74:
 4155 0525 76697274 		.ascii	"virtual_timers_list_t\000"
 4155      75616C5F 
 4155      74696D65 
 4155      72735F6C 
 4155      6973745F 
 4156              	.LASF164:
 4157 053b 656C5F6E 		.ascii	"el_next\000"
 4157      65787400 
 4158              	.LASF67:
 4159 0543 76697274 		.ascii	"virtual_timer_t\000"
 4159      75616C5F 
 4159      74696D65 
 4159      725F7400 
 4160              	.LASF58:
 4161 0553 72656164 		.ascii	"ready_list_t\000"
 4161      795F6C69 
 4161      73745F74 
 4161      00
 4162              	.LASF178:
 4163 0560 715F7772 		.ascii	"q_wrptr\000"
 4163      70747200 
 4164              	.LASF198:
 4165 0568 53657269 		.ascii	"SerialDriverVMT\000"
 4165      616C4472 
 4165      69766572 
 4165      564D5400 
 4166              	.LASF30:
 4167 0578 75636E74 		.ascii	"ucnt_t\000"
 4167      5F7400
 4168              	.LASF217:
 4169 057f 75736172 		.ascii	"usart_deinit\000"
 4169      745F6465 
 4169      696E6974 
 4169      00
 4170              	.LASF55:
 4171 058c 63685F74 		.ascii	"ch_threads_list\000"
 4171      68726561 
 4171      64735F6C 
 4171      69737400 
 4172              	.LASF129:
 4173 059c 63685F73 		.ascii	"ch_swc_event_t\000"
ARM GAS  /tmp/ccoA48Dc.s 			page 79


 4173      77635F65 
 4173      76656E74 
 4173      5F7400
 4174              	.LASF141:
 4175 05ab 6E5F6972 		.ascii	"n_irq\000"
 4175      7100
 4176              	.LASF222:
 4177 05b1 73645F6C 		.ascii	"sd_lld_init\000"
 4177      6C645F69 
 4177      6E697400 
 4178              	.LASF91:
 4179 05bd 504C4C43 		.ascii	"PLLCFGR\000"
 4179      46475200 
 4180              	.LASF10:
 4181 05c5 5F5F7569 		.ascii	"__uint32_t\000"
 4181      6E743332 
 4181      5F7400
 4182              	.LASF12:
 4183 05d0 6C6F6E67 		.ascii	"long long int\000"
 4183      206C6F6E 
 4183      6720696E 
 4183      7400
 4184              	.LASF157:
 4185 05de 6D5F7175 		.ascii	"m_queue\000"
 4185      65756500 
 4186              	.LASF207:
 4187 05e6 706F7274 		.ascii	"port_lock_from_isr\000"
 4187      5F6C6F63 
 4187      6B5F6672 
 4187      6F6D5F69 
 4187      737200
 4188              	.LASF116:
 4189 05f9 53534347 		.ascii	"SSCGR\000"
 4189      5200
 4190              	.LASF69:
 4191 05ff 76745F6E 		.ascii	"vt_next\000"
 4191      65787400 
 4192              	.LASF70:
 4193 0607 76745F70 		.ascii	"vt_prev\000"
 4193      72657600 
 4194              	.LASF119:
 4195 060f 47545052 		.ascii	"GTPR\000"
 4195      00
 4196              	.LASF98:
 4197 0614 41504232 		.ascii	"APB2RSTR\000"
 4197      52535452 
 4197      00
 4198              	.LASF130:
 4199 061d 74625F73 		.ascii	"tb_size\000"
 4199      697A6500 
 4200              	.LASF171:
 4201 0625 6576656E 		.ascii	"event_source_t\000"
 4201      745F736F 
 4201      75726365 
 4201      5F7400
 4202              	.LASF231:
 4203 0634 63684F51 		.ascii	"chOQIsEmptyI\000"
ARM GAS  /tmp/ccoA48Dc.s 			page 80


 4203      4973456D 
 4203      70747949 
 4203      00
 4204              	.LASF226:
 4205 0641 49544D5F 		.ascii	"ITM_RxBuffer\000"
 4205      52784275 
 4205      66666572 
 4205      00
 4206              	.LASF112:
 4207 064e 41504232 		.ascii	"APB2LPENR\000"
 4207      4C50454E 
 4207      5200
 4208              	.LASF182:
 4209 0658 716E6F74 		.ascii	"qnotify_t\000"
 4209      6966795F 
 4209      7400
 4210              	.LASF44:
 4211 0662 705F7761 		.ascii	"p_waiting\000"
 4211      6974696E 
 4211      6700
 4212              	.LASF191:
 4213 066c 6576656E 		.ascii	"event\000"
 4213      7400
 4214              	.LASF127:
 4215 0672 73655F77 		.ascii	"se_wtobjp\000"
 4215      746F626A 
 4215      7000
 4216              	.LASF42:
 4217 067c 705F666C 		.ascii	"p_flags\000"
 4217      61677300 
 4218              	.LASF200:
 4219 0684 72656164 		.ascii	"read\000"
 4219      00
 4220              	.LASF89:
 4221 0689 69646C65 		.ascii	"idle_thread_wa\000"
 4221      5F746872 
 4221      6561645F 
 4221      776100
 4222              	.LASF0:
 4223 0698 756E7369 		.ascii	"unsigned int\000"
 4223      676E6564 
 4223      20696E74 
 4223      00
 4224              	.LASF20:
 4225 06a5 7274636E 		.ascii	"rtcnt_t\000"
 4225      745F7400 
 4226              	.LASF50:
 4227 06ad 705F6D70 		.ascii	"p_mpool\000"
 4227      6F6F6C00 
 4228              	.LASF43:
 4229 06b5 705F7265 		.ascii	"p_refs\000"
 4229      667300
 4230              	.LASF168:
 4231 06bc 656C5F77 		.ascii	"el_wflags\000"
 4231      666C6167 
 4231      7300
 4232              	.LASF145:
ARM GAS  /tmp/ccoA48Dc.s 			page 81


 4233 06c6 6B65726E 		.ascii	"kernel_stats_t\000"
 4233      656C5F73 
 4233      74617473 
 4233      5F7400
 4234              	.LASF166:
 4235 06d5 656C5F65 		.ascii	"el_events\000"
 4235      76656E74 
 4235      7300
 4236              	.LASF134:
 4237 06df 6F666673 		.ascii	"offset\000"
 4237      657400
 4238              	.LASF111:
 4239 06e6 41504231 		.ascii	"APB1LPENR\000"
 4239      4C50454E 
 4239      5200
 4240              	.LASF132:
 4241 06f0 74625F62 		.ascii	"tb_buffer\000"
 4241      75666665 
 4241      7200
 4242              	.LASF95:
 4243 06fa 41484233 		.ascii	"AHB3RSTR\000"
 4243      52535452 
 4243      00
 4244              	.LASF32:
 4245 0703 74687265 		.ascii	"thread_t\000"
 4245      61645F74 
 4245      00
 4246              	.LASF52:
 4247 070c 74687265 		.ascii	"thread_reference_t\000"
 4247      61645F72 
 4247      65666572 
 4247      656E6365 
 4247      5F7400
 4248              	.LASF49:
 4249 071f 705F7265 		.ascii	"p_realprio\000"
 4249      616C7072 
 4249      696F00
 4250              	.LASF124:
 4251 072a 706F7274 		.ascii	"port_intctx\000"
 4251      5F696E74 
 4251      63747800 
 4252              	.LASF208:
 4253 0736 706F7274 		.ascii	"port_unlock_from_isr\000"
 4253      5F756E6C 
 4253      6F636B5F 
 4253      66726F6D 
 4253      5F697372 
 4254              	.LASF71:
 4255 074b 76745F64 		.ascii	"vt_delta\000"
 4255      656C7461 
 4255      00
 4256              	.LASF97:
 4257 0754 41504231 		.ascii	"APB1RSTR\000"
 4257      52535452 
 4257      00
 4258              	.LASF215:
 4259 075d 75736172 		.ascii	"usart_init\000"
ARM GAS  /tmp/ccoA48Dc.s 			page 82


 4259      745F696E 
 4259      697400
 4260              	.LASF68:
 4261 0768 63685F76 		.ascii	"ch_virtual_timer\000"
 4261      69727475 
 4261      616C5F74 
 4261      696D6572 
 4261      00
 4262              	.LASF104:
 4263 0779 41504231 		.ascii	"APB1ENR\000"
 4263      454E5200 
 4264              	.LASF155:
 4265 0781 735F636E 		.ascii	"s_cnt\000"
 4265      7400
 4266              	.LASF88:
 4267 0787 6B65726E 		.ascii	"kernel_stats\000"
 4267      656C5F73 
 4267      74617473 
 4267      00
 4268              	.LASF14:
 4269 0794 6C6F6E67 		.ascii	"long long unsigned int\000"
 4269      206C6F6E 
 4269      6720756E 
 4269      7369676E 
 4269      65642069 
 4270              	.LASF38:
 4271 07ab 705F6F6C 		.ascii	"p_older\000"
 4271      64657200 
 4272              	.LASF16:
 4273 07b3 75696E74 		.ascii	"uint16_t\000"
 4273      31365F74 
 4273      00
 4274              	.LASF26:
 4275 07bc 6D73675F 		.ascii	"msg_t\000"
 4275      7400
 4276              	.LASF57:
 4277 07c2 63685F74 		.ascii	"ch_threads_queue\000"
 4277      68726561 
 4277      64735F71 
 4277      75657565 
 4277      00
 4278              	.LASF28:
 4279 07d3 6576656E 		.ascii	"eventflags_t\000"
 4279      74666C61 
 4279      67735F74 
 4279      00
 4280              	.LASF230:
 4281 07e0 76616C75 		.ascii	"value\000"
 4281      6500
 4282              	.LASF65:
 4283 07e6 725F6375 		.ascii	"r_current\000"
 4283      7272656E 
 4283      7400
 4284              	.LASF87:
 4285 07f0 6D61696E 		.ascii	"mainthread\000"
 4285      74687265 
 4285      616400
ARM GAS  /tmp/ccoA48Dc.s 			page 83


 4286              	.LASF109:
 4287 07fb 41484233 		.ascii	"AHB3LPENR\000"
 4287      4C50454E 
 4287      5200
 4288              	.LASF229:
 4289 0805 5F5F7365 		.ascii	"__set_BASEPRI\000"
 4289      745F4241 
 4289      53455052 
 4289      4900
 4290              	.LASF136:
 4291 0813 62657374 		.ascii	"best\000"
 4291      00
 4292              	.LASF60:
 4293 0818 725F7175 		.ascii	"r_queue\000"
 4293      65756500 
 4294              	.LASF190:
 4295 0820 53657269 		.ascii	"SerialDriver\000"
 4295      616C4472 
 4295      69766572 
 4295      00
 4296              	.LASF174:
 4297 082d 715F7761 		.ascii	"q_waiting\000"
 4297      6974696E 
 4297      6700
 4298              	.LASF85:
 4299 0837 726C6973 		.ascii	"rlist\000"
 4299      7400
 4300              	.LASF22:
 4301 083d 746D6F64 		.ascii	"tmode_t\000"
 4301      655F7400 
 4302              	.LASF189:
 4303 0845 73647374 		.ascii	"sdstate_t\000"
 4303      6174655F 
 4303      7400
 4304              	.LASF100:
 4305 084f 41484231 		.ascii	"AHB1ENR\000"
 4305      454E5200 
 4306              	.LASF188:
 4307 0857 53445F52 		.ascii	"SD_READY\000"
 4307      45414459 
 4307      00
 4308              	.LASF102:
 4309 0860 41484233 		.ascii	"AHB3ENR\000"
 4309      454E5200 
 4310              	.LASF64:
 4311 0868 725F6F6C 		.ascii	"r_older\000"
 4311      64657200 
 4312              	.LASF135:
 4313 0870 746D5F63 		.ascii	"tm_calibration_t\000"
 4313      616C6962 
 4313      72617469 
 4313      6F6E5F74 
 4313      00
 4314              	.LASF94:
 4315 0881 41484232 		.ascii	"AHB2RSTR\000"
 4315      52535452 
 4315      00
ARM GAS  /tmp/ccoA48Dc.s 			page 84


 4316              	.LASF205:
 4317 088a 706F7274 		.ascii	"port_lock\000"
 4317      5F6C6F63 
 4317      6B00
 4318              	.LASF154:
 4319 0894 735F7175 		.ascii	"s_queue\000"
 4319      65756500 
 4320              	.LASF220:
 4321 089c 6E6F7469 		.ascii	"notify3\000"
 4321      66793300 
 4322              	.LASF118:
 4323 08a4 5243435F 		.ascii	"RCC_TypeDef\000"
 4323      54797065 
 4323      44656600 
 4324              	.LASF5:
 4325 08b0 73686F72 		.ascii	"short int\000"
 4325      7420696E 
 4325      7400
 4326              	.LASF169:
 4327 08ba 6576656E 		.ascii	"event_source\000"
 4327      745F736F 
 4327      75726365 
 4327      00
 4328              	.LASF19:
 4329 08c7 75696E74 		.ascii	"uint64_t\000"
 4329      36345F74 
 4329      00
 4330              	.LASF156:
 4331 08d0 63685F6D 		.ascii	"ch_mutex\000"
 4331      75746578 
 4331      00
 4332              	.LASF193:
 4333 08d9 69717565 		.ascii	"iqueue\000"
 4333      756500
 4334              	.LASF61:
 4335 08e0 725F7072 		.ascii	"r_prio\000"
 4335      696F00
 4336              	.LASF78:
 4337 08e7 63685F73 		.ascii	"ch_system_debug\000"
 4337      79737465 
 4337      6D5F6465 
 4337      62756700 
 4338              	.LASF172:
 4339 08f7 696F5F71 		.ascii	"io_queue_t\000"
 4339      75657565 
 4339      5F7400
 4340              	.LASF86:
 4341 0902 76746C69 		.ascii	"vtlist\000"
 4341      737400
 4342              	.LASF161:
 4343 0909 6D757465 		.ascii	"mutex_t\000"
 4343      785F7400 
 4344              	.LASF24:
 4345 0911 74726566 		.ascii	"trefs_t\000"
 4345      735F7400 
 4346              	.LASF53:
 4347 0919 74687265 		.ascii	"threads_list_t\000"
ARM GAS  /tmp/ccoA48Dc.s 			page 85


 4347      6164735F 
 4347      6C697374 
 4347      5F7400
 4348              	.LASF84:
 4349 0928 63685F73 		.ascii	"ch_system\000"
 4349      79737465 
 4349      6D00
 4350              	.LASF18:
 4351 0932 75696E74 		.ascii	"uint32_t\000"
 4351      33325F74 
 4351      00
 4352              	.LASF183:
 4353 093b 696E7075 		.ascii	"input_queue_t\000"
 4353      745F7175 
 4353      6575655F 
 4353      7400
 4354              	.LASF221:
 4355 0949 56656374 		.ascii	"VectorDC\000"
 4355      6F724443 
 4355      00
 4356              	.LASF213:
 4357 0952 6F73616C 		.ascii	"osalEventBroadcastFlagsI\000"
 4357      4576656E 
 4357      7442726F 
 4357      61646361 
 4357      7374466C 
 4358              	.LASF163:
 4359 096b 6576656E 		.ascii	"event_listener\000"
 4359      745F6C69 
 4359      7374656E 
 4359      657200
 4360              	.LASF146:
 4361 097a 7264796D 		.ascii	"rdymsg\000"
 4361      736700
 4362              	.LASF76:
 4363 0981 76745F6C 		.ascii	"vt_lasttime\000"
 4363      61737474 
 4363      696D6500 
 4364              	.LASF7:
 4365 098d 73686F72 		.ascii	"short unsigned int\000"
 4365      7420756E 
 4365      7369676E 
 4365      65642069 
 4365      6E7400
 4366              	.LASF224:
 4367 09a0 73645F6C 		.ascii	"sd_lld_stop\000"
 4367      6C645F73 
 4367      746F7000 
 4368              	.LASF83:
 4369 09ac 63685F73 		.ascii	"ch_system_t\000"
 4369      79737465 
 4369      6D5F7400 
 4370              	.LASF184:
 4371 09b8 6F757470 		.ascii	"output_queue_t\000"
 4371      75745F71 
 4371      75657565 
 4371      5F7400
ARM GAS  /tmp/ccoA48Dc.s 			page 86


 4372              	.LASF40:
 4373 09c7 705F7374 		.ascii	"p_stklimit\000"
 4373      6B6C696D 
 4373      697400
 4374              	.LASF8:
 4375 09d2 5F5F696E 		.ascii	"__int32_t\000"
 4375      7433325F 
 4375      7400
 4376              	.LASF187:
 4377 09dc 53445F53 		.ascii	"SD_STOP\000"
 4377      544F5000 
 4378              	.LASF125:
 4379 09e4 73655F74 		.ascii	"se_time\000"
 4379      696D6500 
 4380              	.LASF39:
 4381 09ec 705F6E61 		.ascii	"p_name\000"
 4381      6D6500
 4382              	.LASF159:
 4383 09f3 6D5F6E65 		.ascii	"m_next\000"
 4383      787400
 4384              	.LASF131:
 4385 09fa 74625F70 		.ascii	"tb_ptr\000"
 4385      747200
 4386              	.LASF138:
 4387 0a01 6C617374 		.ascii	"last\000"
 4387      00
 4388              	.LASF46:
 4389 0a06 705F6D73 		.ascii	"p_msg\000"
 4389      6700
 4390              	.LASF165:
 4391 0a0c 656C5F6C 		.ascii	"el_listener\000"
 4391      69737465 
 4391      6E657200 
 4392              	.LASF41:
 4393 0a18 705F7374 		.ascii	"p_state\000"
 4393      61746500 
 4394              		.ident	"GCC: (4.8.4-1+11-1) 4.8.4 20141219 (release)"
ARM GAS  /tmp/ccoA48Dc.s 			page 87


DEFINED SYMBOLS
                            *ABS*:0000000000000000 serial_lld.c
     /tmp/ccoA48Dc.s:19     .text.port_lock:0000000000000000 $t
     /tmp/ccoA48Dc.s:24     .text.port_lock:0000000000000000 port_lock
     /tmp/ccoA48Dc.s:55     .text.port_unlock:0000000000000000 $t
     /tmp/ccoA48Dc.s:60     .text.port_unlock:0000000000000000 port_unlock
     /tmp/ccoA48Dc.s:89     .text.port_lock_from_isr:0000000000000000 $t
     /tmp/ccoA48Dc.s:94     .text.port_lock_from_isr:0000000000000000 port_lock_from_isr
     /tmp/ccoA48Dc.s:112    .text.port_unlock_from_isr:0000000000000000 $t
     /tmp/ccoA48Dc.s:117    .text.port_unlock_from_isr:0000000000000000 port_unlock_from_isr
     /tmp/ccoA48Dc.s:135    .text.chSysLockFromISR:0000000000000000 $t
     /tmp/ccoA48Dc.s:140    .text.chSysLockFromISR:0000000000000000 chSysLockFromISR
     /tmp/ccoA48Dc.s:163    .text.chSysUnlockFromISR:0000000000000000 $t
     /tmp/ccoA48Dc.s:168    .text.chSysUnlockFromISR:0000000000000000 chSysUnlockFromISR
     /tmp/ccoA48Dc.s:190    .text.chOQIsEmptyI:0000000000000000 $t
     /tmp/ccoA48Dc.s:195    .text.chOQIsEmptyI:0000000000000000 chOQIsEmptyI
     /tmp/ccoA48Dc.s:241    .text.osalSysLockFromISR:0000000000000000 $t
     /tmp/ccoA48Dc.s:246    .text.osalSysLockFromISR:0000000000000000 osalSysLockFromISR
     /tmp/ccoA48Dc.s:265    .text.osalSysUnlockFromISR:0000000000000000 $t
     /tmp/ccoA48Dc.s:270    .text.osalSysUnlockFromISR:0000000000000000 osalSysUnlockFromISR
     /tmp/ccoA48Dc.s:288    .text.osalEventBroadcastFlagsI:0000000000000000 $t
     /tmp/ccoA48Dc.s:293    .text.osalEventBroadcastFlagsI:0000000000000000 osalEventBroadcastFlagsI
     /tmp/ccoA48Dc.s:322    .bss.SD3:0000000000000000 SD3
     /tmp/ccoA48Dc.s:319    .bss.SD3:0000000000000000 $d
     /tmp/ccoA48Dc.s:325    .rodata.default_config:0000000000000000 $d
     /tmp/ccoA48Dc.s:328    .rodata.default_config:0000000000000000 default_config
     /tmp/ccoA48Dc.s:335    .text.usart_init:0000000000000000 $t
     /tmp/ccoA48Dc.s:340    .text.usart_init:0000000000000000 usart_init
     /tmp/ccoA48Dc.s:430    .text.usart_init:000000000000008c $d
     /tmp/ccoA48Dc.s:438    .text.usart_deinit:0000000000000000 $t
     /tmp/ccoA48Dc.s:443    .text.usart_deinit:0000000000000000 usart_deinit
     /tmp/ccoA48Dc.s:473    .text.set_error:0000000000000000 $t
     /tmp/ccoA48Dc.s:478    .text.set_error:0000000000000000 set_error
     /tmp/ccoA48Dc.s:549    .text.serve_interrupt:0000000000000000 $t
     /tmp/ccoA48Dc.s:554    .text.serve_interrupt:0000000000000000 serve_interrupt
     /tmp/ccoA48Dc.s:731    .text.notify3:0000000000000000 $t
     /tmp/ccoA48Dc.s:736    .text.notify3:0000000000000000 notify3
     /tmp/ccoA48Dc.s:759    .text.notify3:0000000000000014 $d
     /tmp/ccoA48Dc.s:764    .text.VectorDC:0000000000000000 $t
     /tmp/ccoA48Dc.s:770    .text.VectorDC:0000000000000000 VectorDC
     /tmp/ccoA48Dc.s:794    .text.VectorDC:000000000000001c $d
     /tmp/ccoA48Dc.s:799    .text.sd_lld_init:0000000000000000 $t
     /tmp/ccoA48Dc.s:805    .text.sd_lld_init:0000000000000000 sd_lld_init
     /tmp/ccoA48Dc.s:829    .text.sd_lld_init:0000000000000018 $d
     /tmp/ccoA48Dc.s:836    .text.sd_lld_start:0000000000000000 $t
     /tmp/ccoA48Dc.s:842    .text.sd_lld_start:0000000000000000 sd_lld_start
     /tmp/ccoA48Dc.s:895    .text.sd_lld_start:0000000000000044 $d
     /tmp/ccoA48Dc.s:902    .text.sd_lld_stop:0000000000000000 $t
     /tmp/ccoA48Dc.s:908    .text.sd_lld_stop:0000000000000000 sd_lld_stop
     /tmp/ccoA48Dc.s:954    .text.sd_lld_stop:000000000000003c $d
                     .debug_frame:0000000000000010 $d
     /tmp/ccoA48Dc.s:437    .text.usart_init:000000000000009c $t
     /tmp/ccoA48Dc.s:763    .text.notify3:0000000000000018 $t
     /tmp/ccoA48Dc.s:835    .text.sd_lld_init:0000000000000024 $t
     /tmp/ccoA48Dc.s:959    .text.sd_lld_stop:0000000000000044 $t

UNDEFINED SYMBOLS
ARM GAS  /tmp/ccoA48Dc.s 			page 88


_stats_start_measure_crit_isr
_dbg_check_lock_from_isr
_dbg_check_unlock_from_isr
_stats_stop_measure_crit_isr
chDbgCheckClassI
chEvtBroadcastFlagsI
sdIncomingDataI
chOQGetI
_stats_increase_irq
_dbg_check_enter_isr
_dbg_check_leave_isr
_port_irq_epilogue
sdObjectInit
nvicEnableVector
nvicDisableVector
