ARM GAS  /tmp/ccoJPhrw.s 			page 1


   1              		.syntax unified
   2              		.cpu cortex-m4
   3              		.fpu softvfp
   4              		.eabi_attribute 20, 1
   5              		.eabi_attribute 21, 1
   6              		.eabi_attribute 23, 3
   7              		.eabi_attribute 24, 1
   8              		.eabi_attribute 25, 1
   9              		.eabi_attribute 26, 1
  10              		.eabi_attribute 30, 6
  11              		.eabi_attribute 34, 1
  12              		.eabi_attribute 18, 4
  13              		.thumb
  14              		.file	"st.c"
  15              		.text
  16              	.Ltext0:
  17              		.cfi_sections	.debug_frame
  18              		.section	.text.st_lld_start_alarm,"ax",%progbits
  19              		.align	2
  20              		.p2align 4,,15
  21              		.thumb
  22              		.thumb_func
  23              		.type	st_lld_start_alarm, %function
  24              	st_lld_start_alarm:
  25              	.LFB137:
  26              		.file 1 "/home/efe/ChibiOS/os/hal/ports/STM32/LLD/TIMv1/st_lld.h"
  27              		.loc 1 153 0
  28              		.cfi_startproc
  29              		@ args = 0, pretend = 0, frame = 8
  30              		@ frame_needed = 0, uses_anonymous_args = 0
  31              		@ link register save eliminated.
  32 0000 82B0     		sub	sp, sp, #8
  33              		.cfi_def_cfa_offset 8
  34 0002 0190     		str	r0, [sp, #4]
  35              		.loc 1 155 0
  36 0004 4FF08043 		mov	r3, #1073741824
  37 0008 019A     		ldr	r2, [sp, #4]
  38 000a 5A63     		str	r2, [r3, #52]
  39              		.loc 1 156 0
  40 000c 4FF08043 		mov	r3, #1073741824
  41 0010 0022     		movs	r2, #0
  42 0012 1A61     		str	r2, [r3, #16]
  43              		.loc 1 157 0
  44 0014 4FF08043 		mov	r3, #1073741824
  45 0018 0222     		movs	r2, #2
  46 001a DA60     		str	r2, [r3, #12]
  47              		.loc 1 158 0
  48 001c 02B0     		add	sp, sp, #8
  49              		@ sp needed
  50 001e 7047     		bx	lr
  51              		.cfi_endproc
  52              	.LFE137:
  53              		.size	st_lld_start_alarm, .-st_lld_start_alarm
  54              		.section	.text.st_lld_stop_alarm,"ax",%progbits
  55              		.align	2
  56              		.p2align 4,,15
  57              		.thumb
ARM GAS  /tmp/ccoJPhrw.s 			page 2


  58              		.thumb_func
  59              		.type	st_lld_stop_alarm, %function
  60              	st_lld_stop_alarm:
  61              	.LFB138:
  62              		.loc 1 165 0
  63              		.cfi_startproc
  64              		@ args = 0, pretend = 0, frame = 0
  65              		@ frame_needed = 0, uses_anonymous_args = 0
  66              		@ link register save eliminated.
  67              		.loc 1 167 0
  68 0000 4FF08043 		mov	r3, #1073741824
  69 0004 0022     		movs	r2, #0
  70 0006 DA60     		str	r2, [r3, #12]
  71              		.loc 1 168 0
  72 0008 7047     		bx	lr
  73              		.cfi_endproc
  74              	.LFE138:
  75              		.size	st_lld_stop_alarm, .-st_lld_stop_alarm
  76 000a 00BFAFF3 		.section	.text.st_lld_set_alarm,"ax",%progbits
  76      0080
  77              		.align	2
  78              		.p2align 4,,15
  79              		.thumb
  80              		.thumb_func
  81              		.type	st_lld_set_alarm, %function
  82              	st_lld_set_alarm:
  83              	.LFB139:
  84              		.loc 1 177 0
  85              		.cfi_startproc
  86              		@ args = 0, pretend = 0, frame = 8
  87              		@ frame_needed = 0, uses_anonymous_args = 0
  88              		@ link register save eliminated.
  89 0000 82B0     		sub	sp, sp, #8
  90              		.cfi_def_cfa_offset 8
  91 0002 0190     		str	r0, [sp, #4]
  92              		.loc 1 179 0
  93 0004 4FF08043 		mov	r3, #1073741824
  94 0008 019A     		ldr	r2, [sp, #4]
  95 000a 5A63     		str	r2, [r3, #52]
  96              		.loc 1 180 0
  97 000c 02B0     		add	sp, sp, #8
  98              		@ sp needed
  99 000e 7047     		bx	lr
 100              		.cfi_endproc
 101              	.LFE139:
 102              		.size	st_lld_set_alarm, .-st_lld_set_alarm
 103              		.section	.text.st_lld_get_alarm,"ax",%progbits
 104              		.align	2
 105              		.p2align 4,,15
 106              		.thumb
 107              		.thumb_func
 108              		.type	st_lld_get_alarm, %function
 109              	st_lld_get_alarm:
 110              	.LFB140:
 111              		.loc 1 189 0
 112              		.cfi_startproc
 113              		@ args = 0, pretend = 0, frame = 0
ARM GAS  /tmp/ccoJPhrw.s 			page 3


 114              		@ frame_needed = 0, uses_anonymous_args = 0
 115              		@ link register save eliminated.
 116              		.loc 1 191 0
 117 0000 4FF08043 		mov	r3, #1073741824
 118 0004 5B6B     		ldr	r3, [r3, #52]
 119              		.loc 1 192 0
 120 0006 1846     		mov	r0, r3
 121 0008 7047     		bx	lr
 122              		.cfi_endproc
 123              	.LFE140:
 124              		.size	st_lld_get_alarm, .-st_lld_get_alarm
 125 000a 00BFAFF3 		.section	.text.st_lld_is_alarm_active,"ax",%progbits
 125      0080
 126              		.align	2
 127              		.p2align 4,,15
 128              		.thumb
 129              		.thumb_func
 130              		.type	st_lld_is_alarm_active, %function
 131              	st_lld_is_alarm_active:
 132              	.LFB141:
 133              		.loc 1 203 0
 134              		.cfi_startproc
 135              		@ args = 0, pretend = 0, frame = 0
 136              		@ frame_needed = 0, uses_anonymous_args = 0
 137              		@ link register save eliminated.
 138              		.loc 1 205 0
 139 0000 4FF08043 		mov	r3, #1073741824
 140 0004 DB68     		ldr	r3, [r3, #12]
 141 0006 03F00203 		and	r3, r3, #2
 142 000a 002B     		cmp	r3, #0
 143 000c 0CBF     		ite	eq
 144 000e 0023     		moveq	r3, #0
 145 0010 0123     		movne	r3, #1
 146 0012 DBB2     		uxtb	r3, r3
 147              		.loc 1 206 0
 148 0014 1846     		mov	r0, r3
 149 0016 7047     		bx	lr
 150              		.cfi_endproc
 151              	.LFE141:
 152              		.size	st_lld_is_alarm_active, .-st_lld_is_alarm_active
 153 0018 AFF30080 		.section	.text.stInit,"ax",%progbits
 153      AFF30080 
 154              		.align	2
 155              		.p2align 4,,15
 156              		.global	stInit
 157              		.thumb
 158              		.thumb_func
 159              		.type	stInit, %function
 160              	stInit:
 161              	.LFB271:
 162              		.file 2 "/home/efe/ChibiOS/os/hal/src/st.c"
 163              		.loc 2 60 0
 164              		.cfi_startproc
 165              		@ args = 0, pretend = 0, frame = 0
 166              		@ frame_needed = 0, uses_anonymous_args = 0
 167 0000 08B5     		push	{r3, lr}
 168              		.cfi_def_cfa_offset 8
ARM GAS  /tmp/ccoJPhrw.s 			page 4


 169              		.cfi_offset 3, -8
 170              		.cfi_offset 14, -4
 171              		.loc 2 62 0
 172 0002 FFF7FEFF 		bl	st_lld_init
 173              		.loc 2 63 0
 174 0006 08BD     		pop	{r3, pc}
 175              		.cfi_endproc
 176              	.LFE271:
 177              		.size	stInit, .-stInit
 178 0008 AFF30080 		.section	.text.stStartAlarm,"ax",%progbits
 178      AFF30080 
 179              		.align	2
 180              		.p2align 4,,15
 181              		.global	stStartAlarm
 182              		.thumb
 183              		.thumb_func
 184              		.type	stStartAlarm, %function
 185              	stStartAlarm:
 186              	.LFB272:
 187              		.loc 2 77 0
 188              		.cfi_startproc
 189              		@ args = 0, pretend = 0, frame = 8
 190              		@ frame_needed = 0, uses_anonymous_args = 0
 191 0000 00B5     		push	{lr}
 192              		.cfi_def_cfa_offset 4
 193              		.cfi_offset 14, -4
 194 0002 83B0     		sub	sp, sp, #12
 195              		.cfi_def_cfa_offset 16
 196 0004 0190     		str	r0, [sp, #4]
 197              		.loc 2 79 0
 198 0006 FFF7FEFF 		bl	st_lld_is_alarm_active
 199 000a 0346     		mov	r3, r0
 200 000c 002B     		cmp	r3, #0
 201 000e 02D0     		beq	.L10
 202              		.loc 2 79 0 is_stmt 0 discriminator 1
 203 0010 0448     		ldr	r0, .L11
 204 0012 FFF7FEFF 		bl	chSysHalt
 205              	.L10:
 206              		.loc 2 81 0 is_stmt 1
 207 0016 0198     		ldr	r0, [sp, #4]
 208 0018 FFF7FEFF 		bl	st_lld_start_alarm
 209              		.loc 2 82 0
 210 001c 03B0     		add	sp, sp, #12
 211              		@ sp needed
 212 001e 5DF804FB 		ldr	pc, [sp], #4
 213              	.L12:
 214 0022 00BF     		.align	2
 215              	.L11:
 216 0024 00000000 		.word	__func__.7143
 217              		.cfi_endproc
 218              	.LFE272:
 219              		.size	stStartAlarm, .-stStartAlarm
 220 0028 AFF30080 		.section	.text.stStopAlarm,"ax",%progbits
 220      AFF30080 
 221              		.align	2
 222              		.p2align 4,,15
 223              		.global	stStopAlarm
ARM GAS  /tmp/ccoJPhrw.s 			page 5


 224              		.thumb
 225              		.thumb_func
 226              		.type	stStopAlarm, %function
 227              	stStopAlarm:
 228              	.LFB273:
 229              		.loc 2 91 0
 230              		.cfi_startproc
 231              		@ args = 0, pretend = 0, frame = 0
 232              		@ frame_needed = 0, uses_anonymous_args = 0
 233 0000 08B5     		push	{r3, lr}
 234              		.cfi_def_cfa_offset 8
 235              		.cfi_offset 3, -8
 236              		.cfi_offset 14, -4
 237              		.loc 2 93 0
 238 0002 FFF7FEFF 		bl	st_lld_stop_alarm
 239              		.loc 2 94 0
 240 0006 08BD     		pop	{r3, pc}
 241              		.cfi_endproc
 242              	.LFE273:
 243              		.size	stStopAlarm, .-stStopAlarm
 244 0008 AFF30080 		.section	.text.stSetAlarm,"ax",%progbits
 244      AFF30080 
 245              		.align	2
 246              		.p2align 4,,15
 247              		.global	stSetAlarm
 248              		.thumb
 249              		.thumb_func
 250              		.type	stSetAlarm, %function
 251              	stSetAlarm:
 252              	.LFB274:
 253              		.loc 2 105 0
 254              		.cfi_startproc
 255              		@ args = 0, pretend = 0, frame = 8
 256              		@ frame_needed = 0, uses_anonymous_args = 0
 257 0000 00B5     		push	{lr}
 258              		.cfi_def_cfa_offset 4
 259              		.cfi_offset 14, -4
 260 0002 83B0     		sub	sp, sp, #12
 261              		.cfi_def_cfa_offset 16
 262 0004 0190     		str	r0, [sp, #4]
 263              		.loc 2 107 0
 264 0006 FFF7FEFF 		bl	st_lld_is_alarm_active
 265 000a 0346     		mov	r3, r0
 266 000c 83F00103 		eor	r3, r3, #1
 267 0010 DBB2     		uxtb	r3, r3
 268 0012 002B     		cmp	r3, #0
 269 0014 02D0     		beq	.L15
 270              		.loc 2 107 0 is_stmt 0 discriminator 1
 271 0016 0448     		ldr	r0, .L16
 272 0018 FFF7FEFF 		bl	chSysHalt
 273              	.L15:
 274              		.loc 2 109 0 is_stmt 1
 275 001c 0198     		ldr	r0, [sp, #4]
 276 001e FFF7FEFF 		bl	st_lld_set_alarm
 277              		.loc 2 110 0
 278 0022 03B0     		add	sp, sp, #12
 279              		@ sp needed
ARM GAS  /tmp/ccoJPhrw.s 			page 6


 280 0024 5DF804FB 		ldr	pc, [sp], #4
 281              	.L17:
 282              		.align	2
 283              	.L16:
 284 0028 00000000 		.word	__func__.7150
 285              		.cfi_endproc
 286              	.LFE274:
 287              		.size	stSetAlarm, .-stSetAlarm
 288 002c AFF30080 		.section	.text.stGetAlarm,"ax",%progbits
 289              		.align	2
 290              		.p2align 4,,15
 291              		.global	stGetAlarm
 292              		.thumb
 293              		.thumb_func
 294              		.type	stGetAlarm, %function
 295              	stGetAlarm:
 296              	.LFB275:
 297              		.loc 2 121 0
 298              		.cfi_startproc
 299              		@ args = 0, pretend = 0, frame = 0
 300              		@ frame_needed = 0, uses_anonymous_args = 0
 301 0000 08B5     		push	{r3, lr}
 302              		.cfi_def_cfa_offset 8
 303              		.cfi_offset 3, -8
 304              		.cfi_offset 14, -4
 305              		.loc 2 123 0
 306 0002 FFF7FEFF 		bl	st_lld_is_alarm_active
 307 0006 0346     		mov	r3, r0
 308 0008 83F00103 		eor	r3, r3, #1
 309 000c DBB2     		uxtb	r3, r3
 310 000e 002B     		cmp	r3, #0
 311 0010 02D0     		beq	.L19
 312              		.loc 2 123 0 is_stmt 0 discriminator 1
 313 0012 0448     		ldr	r0, .L21
 314 0014 FFF7FEFF 		bl	chSysHalt
 315              	.L19:
 316              		.loc 2 125 0 is_stmt 1
 317 0018 FFF7FEFF 		bl	st_lld_get_alarm
 318 001c 0346     		mov	r3, r0
 319              		.loc 2 126 0
 320 001e 1846     		mov	r0, r3
 321 0020 08BD     		pop	{r3, pc}
 322              	.L22:
 323 0022 00BF     		.align	2
 324              	.L21:
 325 0024 00000000 		.word	__func__.7154
 326              		.cfi_endproc
 327              	.LFE275:
 328              		.size	stGetAlarm, .-stGetAlarm
 329 0028 AFF30080 		.section	.rodata.__func__.7143,"a",%progbits
 329      AFF30080 
 330              		.align	2
 331              		.type	__func__.7143, %object
 332              		.size	__func__.7143, 13
 333              	__func__.7143:
 334 0000 73745374 		.ascii	"stStartAlarm\000"
 334      61727441 
ARM GAS  /tmp/ccoJPhrw.s 			page 7


 334      6C61726D 
 334      00
 335 000d 000000   		.section	.rodata.__func__.7150,"a",%progbits
 336              		.align	2
 337              		.type	__func__.7150, %object
 338              		.size	__func__.7150, 11
 339              	__func__.7150:
 340 0000 73745365 		.ascii	"stSetAlarm\000"
 340      74416C61 
 340      726D00
 341 000b 00       		.section	.rodata.__func__.7154,"a",%progbits
 342              		.align	2
 343              		.type	__func__.7154, %object
 344              		.size	__func__.7154, 11
 345              	__func__.7154:
 346 0000 73744765 		.ascii	"stGetAlarm\000"
 346      74416C61 
 346      726D00
 347 000b 00       		.text
 348              	.Letext0:
 349              		.file 3 "/usr/include/newlib/machine/_default_types.h"
 350              		.file 4 "/usr/include/newlib/stdint.h"
 351              		.file 5 "/home/efe/ChibiOS/os/rt/ports/ARMCMx/compilers/GCC/chtypes.h"
 352              		.file 6 "/home/efe/ChibiOS/os/rt/include/chsystypes.h"
 353              		.file 7 "/home/efe/ChibiOS/os/rt/include/chschd.h"
 354              		.file 8 "/home/efe/ChibiOS/os/rt/ports/ARMCMx/chcore.h"
 355              		.file 9 "/home/efe/ChibiOS/os/rt/ports/ARMCMx/chcore_v7m.h"
 356              		.file 10 "/home/efe/ChibiOS/os/hal/ports/STM32/LLD/TIMv1/stm32_tim.h"
 357              		.file 11 "/home/efe/ChibiOS/os/rt/include/chdebug.h"
 358              		.file 12 "/home/efe/ChibiOS/os/rt/include/chtm.h"
 359              		.file 13 "/home/efe/ChibiOS/os/rt/include/chstats.h"
 360              		.file 14 "/home/efe/ChibiOS/os/rt/include/chsem.h"
 361              		.file 15 "/home/efe/ChibiOS/os/rt/include/chmtx.h"
 362              		.file 16 "/home/efe/ChibiOS/os/ext/CMSIS/include/core_cm4.h"
 363              		.section	.debug_info,"",%progbits
 364              	.Ldebug_info0:
 365 0000 6F0A0000 		.4byte	0xa6f
 366 0004 0400     		.2byte	0x4
 367 0006 00000000 		.4byte	.Ldebug_abbrev0
 368 000a 04       		.byte	0x4
 369 000b 01       		.uleb128 0x1
 370 000c 7B010000 		.4byte	.LASF151
 371 0010 01       		.byte	0x1
 372 0011 1E060000 		.4byte	.LASF152
 373 0015 00000000 		.4byte	.Ldebug_ranges0+0
 374 0019 00000000 		.4byte	0
 375 001d 00000000 		.4byte	.Ldebug_line0
 376 0021 02       		.uleb128 0x2
 377 0022 04       		.byte	0x4
 378 0023 05       		.byte	0x5
 379 0024 696E7400 		.ascii	"int\000"
 380 0028 03       		.uleb128 0x3
 381 0029 04       		.byte	0x4
 382 002a 07       		.byte	0x7
 383 002b CF020000 		.4byte	.LASF0
 384 002f 03       		.uleb128 0x3
 385 0030 01       		.byte	0x1
ARM GAS  /tmp/ccoJPhrw.s 			page 8


 386 0031 06       		.byte	0x6
 387 0032 1B010000 		.4byte	.LASF1
 388 0036 04       		.uleb128 0x4
 389 0037 3C000000 		.4byte	.LASF5
 390 003b 03       		.byte	0x3
 391 003c 1D       		.byte	0x1d
 392 003d 41000000 		.4byte	0x41
 393 0041 03       		.uleb128 0x3
 394 0042 01       		.byte	0x1
 395 0043 08       		.byte	0x8
 396 0044 8A040000 		.4byte	.LASF2
 397 0048 03       		.uleb128 0x3
 398 0049 02       		.byte	0x2
 399 004a 05       		.byte	0x5
 400 004b A2040000 		.4byte	.LASF3
 401 004f 03       		.uleb128 0x3
 402 0050 02       		.byte	0x2
 403 0051 07       		.byte	0x7
 404 0052 3B020000 		.4byte	.LASF4
 405 0056 04       		.uleb128 0x4
 406 0057 6F030000 		.4byte	.LASF6
 407 005b 03       		.byte	0x3
 408 005c 3F       		.byte	0x3f
 409 005d 61000000 		.4byte	0x61
 410 0061 03       		.uleb128 0x3
 411 0062 04       		.byte	0x4
 412 0063 05       		.byte	0x5
 413 0064 48010000 		.4byte	.LASF7
 414 0068 04       		.uleb128 0x4
 415 0069 B6050000 		.4byte	.LASF8
 416 006d 03       		.byte	0x3
 417 006e 41       		.byte	0x41
 418 006f 73000000 		.4byte	0x73
 419 0073 03       		.uleb128 0x3
 420 0074 04       		.byte	0x4
 421 0075 07       		.byte	0x7
 422 0076 52050000 		.4byte	.LASF9
 423 007a 03       		.uleb128 0x3
 424 007b 08       		.byte	0x8
 425 007c 05       		.byte	0x5
 426 007d 6D010000 		.4byte	.LASF10
 427 0081 04       		.uleb128 0x4
 428 0082 2C040000 		.4byte	.LASF11
 429 0086 03       		.byte	0x3
 430 0087 5B       		.byte	0x5b
 431 0088 8C000000 		.4byte	0x8c
 432 008c 03       		.uleb128 0x3
 433 008d 08       		.byte	0x8
 434 008e 07       		.byte	0x7
 435 008f 8B000000 		.4byte	.LASF12
 436 0093 04       		.uleb128 0x4
 437 0094 C9040000 		.4byte	.LASF13
 438 0098 04       		.byte	0x4
 439 0099 2A       		.byte	0x2a
 440 009a 36000000 		.4byte	0x36
 441 009e 04       		.uleb128 0x4
 442 009f 82040000 		.4byte	.LASF14
ARM GAS  /tmp/ccoJPhrw.s 			page 9


 443 00a3 04       		.byte	0x4
 444 00a4 41       		.byte	0x41
 445 00a5 56000000 		.4byte	0x56
 446 00a9 04       		.uleb128 0x4
 447 00aa 21050000 		.4byte	.LASF15
 448 00ae 04       		.byte	0x4
 449 00af 42       		.byte	0x42
 450 00b0 68000000 		.4byte	0x68
 451 00b4 04       		.uleb128 0x4
 452 00b5 26000000 		.4byte	.LASF16
 453 00b9 04       		.byte	0x4
 454 00ba 4E       		.byte	0x4e
 455 00bb 81000000 		.4byte	0x81
 456 00bf 05       		.uleb128 0x5
 457 00c0 9E000000 		.4byte	0x9e
 458 00c4 05       		.uleb128 0x5
 459 00c5 A9000000 		.4byte	0xa9
 460 00c9 04       		.uleb128 0x4
 461 00ca ED050000 		.4byte	.LASF17
 462 00ce 05       		.byte	0x5
 463 00cf 45       		.byte	0x45
 464 00d0 A9000000 		.4byte	0xa9
 465 00d4 04       		.uleb128 0x4
 466 00d5 F9000000 		.4byte	.LASF18
 467 00d9 05       		.byte	0x5
 468 00da 46       		.byte	0x46
 469 00db B4000000 		.4byte	0xb4
 470 00df 04       		.uleb128 0x4
 471 00e0 51010000 		.4byte	.LASF19
 472 00e4 05       		.byte	0x5
 473 00e5 48       		.byte	0x48
 474 00e6 93000000 		.4byte	0x93
 475 00ea 04       		.uleb128 0x4
 476 00eb 59010000 		.4byte	.LASF20
 477 00ef 05       		.byte	0x5
 478 00f0 49       		.byte	0x49
 479 00f1 93000000 		.4byte	0x93
 480 00f5 04       		.uleb128 0x4
 481 00f6 42040000 		.4byte	.LASF21
 482 00fa 05       		.byte	0x5
 483 00fb 4A       		.byte	0x4a
 484 00fc 93000000 		.4byte	0x93
 485 0100 04       		.uleb128 0x4
 486 0101 6B040000 		.4byte	.LASF22
 487 0105 05       		.byte	0x5
 488 0106 4C       		.byte	0x4c
 489 0107 A9000000 		.4byte	0xa9
 490 010b 04       		.uleb128 0x4
 491 010c 20030000 		.4byte	.LASF23
 492 0110 05       		.byte	0x5
 493 0111 4D       		.byte	0x4d
 494 0112 9E000000 		.4byte	0x9e
 495 0116 04       		.uleb128 0x4
 496 0117 63030000 		.4byte	.LASF24
 497 011b 05       		.byte	0x5
 498 011c 4F       		.byte	0x4f
 499 011d A9000000 		.4byte	0xa9
ARM GAS  /tmp/ccoJPhrw.s 			page 10


 500 0121 04       		.uleb128 0x4
 501 0122 BE020000 		.4byte	.LASF25
 502 0126 05       		.byte	0x5
 503 0127 51       		.byte	0x51
 504 0128 9E000000 		.4byte	0x9e
 505 012c 04       		.uleb128 0x4
 506 012d 2B030000 		.4byte	.LASF26
 507 0131 05       		.byte	0x5
 508 0132 52       		.byte	0x52
 509 0133 A9000000 		.4byte	0xa9
 510 0137 04       		.uleb128 0x4
 511 0138 98050000 		.4byte	.LASF27
 512 013c 06       		.byte	0x6
 513 013d 33       		.byte	0x33
 514 013e A9000000 		.4byte	0xa9
 515 0142 04       		.uleb128 0x4
 516 0143 83050000 		.4byte	.LASF28
 517 0147 06       		.byte	0x6
 518 0148 3F       		.byte	0x3f
 519 0149 4D010000 		.4byte	0x14d
 520 014d 06       		.uleb128 0x6
 521 014e 16030000 		.4byte	.LASF50
 522 0152 60       		.byte	0x60
 523 0153 07       		.byte	0x7
 524 0154 C2       		.byte	0xc2
 525 0155 53020000 		.4byte	0x253
 526 0159 07       		.uleb128 0x7
 527 015a C2040000 		.4byte	.LASF29
 528 015e 07       		.byte	0x7
 529 015f C3       		.byte	0xc3
 530 0160 5E020000 		.4byte	0x25e
 531 0164 00       		.byte	0
 532 0165 07       		.uleb128 0x7
 533 0166 64040000 		.4byte	.LASF30
 534 016a 07       		.byte	0x7
 535 016b C5       		.byte	0xc5
 536 016c 5E020000 		.4byte	0x25e
 537 0170 04       		.byte	0x4
 538 0171 07       		.uleb128 0x7
 539 0172 02010000 		.4byte	.LASF31
 540 0176 07       		.byte	0x7
 541 0177 C7       		.byte	0xc7
 542 0178 00010000 		.4byte	0x100
 543 017c 08       		.byte	0x8
 544 017d 07       		.uleb128 0x7
 545 017e D3060000 		.4byte	.LASF32
 546 0182 07       		.byte	0x7
 547 0183 C8       		.byte	0xc8
 548 0184 E7040000 		.4byte	0x4e7
 549 0188 0C       		.byte	0xc
 550 0189 07       		.uleb128 0x7
 551 018a 2B020000 		.4byte	.LASF33
 552 018e 07       		.byte	0x7
 553 018f CA       		.byte	0xca
 554 0190 5E020000 		.4byte	0x25e
 555 0194 10       		.byte	0x10
 556 0195 07       		.uleb128 0x7
ARM GAS  /tmp/ccoJPhrw.s 			page 11


 557 0196 EF030000 		.4byte	.LASF34
 558 019a 07       		.byte	0x7
 559 019b CB       		.byte	0xcb
 560 019c 5E020000 		.4byte	0x25e
 561 01a0 14       		.byte	0x14
 562 01a1 07       		.uleb128 0x7
 563 01a2 72060000 		.4byte	.LASF35
 564 01a6 07       		.byte	0x7
 565 01a7 D2       		.byte	0xd2
 566 01a8 AD080000 		.4byte	0x8ad
 567 01ac 18       		.byte	0x18
 568 01ad 07       		.uleb128 0x7
 569 01ae C4020000 		.4byte	.LASF36
 570 01b2 07       		.byte	0x7
 571 01b3 D8       		.byte	0xd8
 572 01b4 BF080000 		.4byte	0x8bf
 573 01b8 1C       		.byte	0x1c
 574 01b9 07       		.uleb128 0x7
 575 01ba AC040000 		.4byte	.LASF37
 576 01be 07       		.byte	0x7
 577 01bf DD       		.byte	0xdd
 578 01c0 EA000000 		.4byte	0xea
 579 01c4 20       		.byte	0x20
 580 01c5 07       		.uleb128 0x7
 581 01c6 9D060000 		.4byte	.LASF38
 582 01ca 07       		.byte	0x7
 583 01cb E1       		.byte	0xe1
 584 01cc DF000000 		.4byte	0xdf
 585 01d0 21       		.byte	0x21
 586 01d1 07       		.uleb128 0x7
 587 01d2 40060000 		.4byte	.LASF39
 588 01d6 07       		.byte	0x7
 589 01d7 E6       		.byte	0xe6
 590 01d8 F5000000 		.4byte	0xf5
 591 01dc 22       		.byte	0x22
 592 01dd 08       		.uleb128 0x8
 593 01de 705F7500 		.ascii	"p_u\000"
 594 01e2 07       		.byte	0x7
 595 01e3 3101     		.2byte	0x131
 596 01e5 E8070000 		.4byte	0x7e8
 597 01e9 24       		.byte	0x24
 598 01ea 09       		.uleb128 0x9
 599 01eb 97030000 		.4byte	.LASF40
 600 01ef 07       		.byte	0x7
 601 01f0 3601     		.2byte	0x136
 602 01f2 64020000 		.4byte	0x264
 603 01f6 28       		.byte	0x28
 604 01f7 09       		.uleb128 0x9
 605 01f8 EB020000 		.4byte	.LASF41
 606 01fc 07       		.byte	0x7
 607 01fd 3C01     		.2byte	0x13c
 608 01ff 88020000 		.4byte	0x288
 609 0203 2C       		.byte	0x2c
 610 0204 09       		.uleb128 0x9
 611 0205 E7050000 		.4byte	.LASF42
 612 0209 07       		.byte	0x7
 613 020a 4001     		.2byte	0x140
ARM GAS  /tmp/ccoJPhrw.s 			page 12


 614 020c 0B010000 		.4byte	0x10b
 615 0210 34       		.byte	0x34
 616 0211 09       		.uleb128 0x9
 617 0212 16050000 		.4byte	.LASF43
 618 0216 07       		.byte	0x7
 619 0217 4601     		.2byte	0x146
 620 0219 16010000 		.4byte	0x116
 621 021d 38       		.byte	0x38
 622 021e 09       		.uleb128 0x9
 623 021f 98040000 		.4byte	.LASF44
 624 0223 07       		.byte	0x7
 625 0224 4D01     		.2byte	0x14d
 626 0226 A7080000 		.4byte	0x8a7
 627 022a 3C       		.byte	0x3c
 628 022b 09       		.uleb128 0x9
 629 022c A2050000 		.4byte	.LASF45
 630 0230 07       		.byte	0x7
 631 0231 5101     		.2byte	0x151
 632 0233 00010000 		.4byte	0x100
 633 0237 40       		.byte	0x40
 634 0238 09       		.uleb128 0x9
 635 0239 75020000 		.4byte	.LASF46
 636 023d 07       		.byte	0x7
 637 023e 5801     		.2byte	0x158
 638 0240 3B030000 		.4byte	0x33b
 639 0244 44       		.byte	0x44
 640 0245 09       		.uleb128 0x9
 641 0246 DA040000 		.4byte	.LASF47
 642 024a 07       		.byte	0x7
 643 024b 5E01     		.2byte	0x15e
 644 024d 99070000 		.4byte	0x799
 645 0251 48       		.byte	0x48
 646 0252 00       		.byte	0
 647 0253 04       		.uleb128 0x4
 648 0254 AA030000 		.4byte	.LASF48
 649 0258 06       		.byte	0x6
 650 0259 44       		.byte	0x44
 651 025a 5E020000 		.4byte	0x25e
 652 025e 0A       		.uleb128 0xa
 653 025f 04       		.byte	0x4
 654 0260 42010000 		.4byte	0x142
 655 0264 04       		.uleb128 0x4
 656 0265 79060000 		.4byte	.LASF49
 657 0269 06       		.byte	0x6
 658 026a 49       		.byte	0x49
 659 026b 6F020000 		.4byte	0x26f
 660 026f 06       		.uleb128 0x6
 661 0270 42050000 		.4byte	.LASF51
 662 0274 04       		.byte	0x4
 663 0275 07       		.byte	0x7
 664 0276 B0       		.byte	0xb0
 665 0277 88020000 		.4byte	0x288
 666 027b 07       		.uleb128 0x7
 667 027c C2040000 		.4byte	.LASF29
 668 0280 07       		.byte	0x7
 669 0281 B1       		.byte	0xb1
 670 0282 5E020000 		.4byte	0x25e
ARM GAS  /tmp/ccoJPhrw.s 			page 13


 671 0286 00       		.byte	0
 672 0287 00       		.byte	0
 673 0288 04       		.uleb128 0x4
 674 0289 0E060000 		.4byte	.LASF52
 675 028d 06       		.byte	0x6
 676 028e 50       		.byte	0x50
 677 028f 93020000 		.4byte	0x293
 678 0293 06       		.uleb128 0x6
 679 0294 52000000 		.4byte	.LASF53
 680 0298 08       		.byte	0x8
 681 0299 07       		.byte	0x7
 682 029a B7       		.byte	0xb7
 683 029b B8020000 		.4byte	0x2b8
 684 029f 07       		.uleb128 0x7
 685 02a0 C2040000 		.4byte	.LASF29
 686 02a4 07       		.byte	0x7
 687 02a5 B8       		.byte	0xb8
 688 02a6 5E020000 		.4byte	0x25e
 689 02aa 00       		.byte	0
 690 02ab 07       		.uleb128 0x7
 691 02ac 64040000 		.4byte	.LASF30
 692 02b0 07       		.byte	0x7
 693 02b1 B9       		.byte	0xb9
 694 02b2 5E020000 		.4byte	0x25e
 695 02b6 04       		.byte	0x4
 696 02b7 00       		.byte	0
 697 02b8 04       		.uleb128 0x4
 698 02b9 07000000 		.4byte	.LASF54
 699 02bd 06       		.byte	0x6
 700 02be 57       		.byte	0x57
 701 02bf C3020000 		.4byte	0x2c3
 702 02c3 0B       		.uleb128 0xb
 703 02c4 55030000 		.4byte	.LASF55
 704 02c8 1C       		.byte	0x1c
 705 02c9 07       		.byte	0x7
 706 02ca 9001     		.2byte	0x190
 707 02cc 1F030000 		.4byte	0x31f
 708 02d0 09       		.uleb128 0x9
 709 02d1 31050000 		.4byte	.LASF56
 710 02d5 07       		.byte	0x7
 711 02d6 9101     		.2byte	0x191
 712 02d8 88020000 		.4byte	0x288
 713 02dc 00       		.byte	0
 714 02dd 09       		.uleb128 0x9
 715 02de B4040000 		.4byte	.LASF57
 716 02e2 07       		.byte	0x7
 717 02e3 9201     		.2byte	0x192
 718 02e5 00010000 		.4byte	0x100
 719 02e9 08       		.byte	0x8
 720 02ea 09       		.uleb128 0x9
 721 02eb FE030000 		.4byte	.LASF58
 722 02ef 07       		.byte	0x7
 723 02f0 9401     		.2byte	0x194
 724 02f2 E7040000 		.4byte	0x4e7
 725 02f6 0C       		.byte	0xc
 726 02f7 09       		.uleb128 0x9
 727 02f8 6D020000 		.4byte	.LASF59
ARM GAS  /tmp/ccoJPhrw.s 			page 14


 728 02fc 07       		.byte	0x7
 729 02fd 9701     		.2byte	0x197
 730 02ff 5E020000 		.4byte	0x25e
 731 0303 10       		.byte	0x10
 732 0304 09       		.uleb128 0x9
 733 0305 24040000 		.4byte	.LASF60
 734 0309 07       		.byte	0x7
 735 030a 9801     		.2byte	0x198
 736 030c 5E020000 		.4byte	0x25e
 737 0310 14       		.byte	0x14
 738 0311 09       		.uleb128 0x9
 739 0312 1A040000 		.4byte	.LASF61
 740 0316 07       		.byte	0x7
 741 0317 9B01     		.2byte	0x19b
 742 0319 5E020000 		.4byte	0x25e
 743 031d 18       		.byte	0x18
 744 031e 00       		.byte	0
 745 031f 04       		.uleb128 0x4
 746 0320 AD050000 		.4byte	.LASF62
 747 0324 06       		.byte	0x6
 748 0325 5C       		.byte	0x5c
 749 0326 2A030000 		.4byte	0x32a
 750 032a 0A       		.uleb128 0xa
 751 032b 04       		.byte	0x4
 752 032c 30030000 		.4byte	0x330
 753 0330 0C       		.uleb128 0xc
 754 0331 3B030000 		.4byte	0x33b
 755 0335 0D       		.uleb128 0xd
 756 0336 3B030000 		.4byte	0x33b
 757 033a 00       		.byte	0
 758 033b 0E       		.uleb128 0xe
 759 033c 04       		.byte	0x4
 760 033d 04       		.uleb128 0x4
 761 033e 54040000 		.4byte	.LASF63
 762 0342 06       		.byte	0x6
 763 0343 61       		.byte	0x61
 764 0344 48030000 		.4byte	0x348
 765 0348 0B       		.uleb128 0xb
 766 0349 E2040000 		.4byte	.LASF64
 767 034d 14       		.byte	0x14
 768 034e 07       		.byte	0x7
 769 034f 6B01     		.2byte	0x16b
 770 0351 97030000 		.4byte	0x397
 771 0355 09       		.uleb128 0x9
 772 0356 DC020000 		.4byte	.LASF65
 773 035a 07       		.byte	0x7
 774 035b 6C01     		.2byte	0x16c
 775 035d C5080000 		.4byte	0x8c5
 776 0361 00       		.byte	0
 777 0362 09       		.uleb128 0x9
 778 0363 86020000 		.4byte	.LASF66
 779 0367 07       		.byte	0x7
 780 0368 6D01     		.2byte	0x16d
 781 036a C5080000 		.4byte	0x8c5
 782 036e 04       		.byte	0x4
 783 036f 09       		.uleb128 0x9
 784 0370 39050000 		.4byte	.LASF67
ARM GAS  /tmp/ccoJPhrw.s 			page 15


 785 0374 07       		.byte	0x7
 786 0375 6E01     		.2byte	0x16e
 787 0377 37010000 		.4byte	0x137
 788 037b 08       		.byte	0x8
 789 037c 09       		.uleb128 0x9
 790 037d D9060000 		.4byte	.LASF68
 791 0381 07       		.byte	0x7
 792 0382 6F01     		.2byte	0x16f
 793 0384 1F030000 		.4byte	0x31f
 794 0388 0C       		.byte	0xc
 795 0389 09       		.uleb128 0x9
 796 038a 07060000 		.4byte	.LASF69
 797 038e 07       		.byte	0x7
 798 038f 7101     		.2byte	0x171
 799 0391 3B030000 		.4byte	0x33b
 800 0395 10       		.byte	0x10
 801 0396 00       		.byte	0
 802 0397 04       		.uleb128 0x4
 803 0398 D1000000 		.4byte	.LASF70
 804 039c 06       		.byte	0x6
 805 039d 66       		.byte	0x66
 806 039e A2030000 		.4byte	0x3a2
 807 03a2 0B       		.uleb128 0xb
 808 03a3 BD030000 		.4byte	.LASF71
 809 03a7 10       		.byte	0x10
 810 03a8 07       		.byte	0x7
 811 03a9 7B01     		.2byte	0x17b
 812 03ab E4030000 		.4byte	0x3e4
 813 03af 09       		.uleb128 0x9
 814 03b0 DC020000 		.4byte	.LASF65
 815 03b4 07       		.byte	0x7
 816 03b5 7C01     		.2byte	0x17c
 817 03b7 C5080000 		.4byte	0x8c5
 818 03bb 00       		.byte	0
 819 03bc 09       		.uleb128 0x9
 820 03bd 86020000 		.4byte	.LASF66
 821 03c1 07       		.byte	0x7
 822 03c2 7E01     		.2byte	0x17e
 823 03c4 C5080000 		.4byte	0x8c5
 824 03c8 04       		.byte	0x4
 825 03c9 09       		.uleb128 0x9
 826 03ca 39050000 		.4byte	.LASF67
 827 03ce 07       		.byte	0x7
 828 03cf 8001     		.2byte	0x180
 829 03d1 37010000 		.4byte	0x137
 830 03d5 08       		.byte	0x8
 831 03d6 09       		.uleb128 0x9
 832 03d7 E3030000 		.4byte	.LASF72
 833 03db 07       		.byte	0x7
 834 03dc 8801     		.2byte	0x188
 835 03de 37010000 		.4byte	0x137
 836 03e2 0C       		.byte	0xc
 837 03e3 00       		.byte	0
 838 03e4 04       		.uleb128 0x4
 839 03e5 63000000 		.4byte	.LASF73
 840 03e9 06       		.byte	0x6
 841 03ea 6B       		.byte	0x6b
ARM GAS  /tmp/ccoJPhrw.s 			page 16


 842 03eb EF030000 		.4byte	0x3ef
 843 03ef 0F       		.uleb128 0xf
 844 03f0 8E020000 		.4byte	.LASF74
 845 03f4 1404     		.2byte	0x414
 846 03f6 07       		.byte	0x7
 847 03f7 A201     		.2byte	0x1a2
 848 03f9 32040000 		.4byte	0x432
 849 03fd 09       		.uleb128 0x9
 850 03fe C1050000 		.4byte	.LASF75
 851 0402 07       		.byte	0x7
 852 0403 AA01     		.2byte	0x1aa
 853 0405 CB080000 		.4byte	0x8cb
 854 0409 00       		.byte	0
 855 040a 09       		.uleb128 0x9
 856 040b 47060000 		.4byte	.LASF76
 857 040f 07       		.byte	0x7
 858 0410 AF01     		.2byte	0x1af
 859 0412 21010000 		.4byte	0x121
 860 0416 04       		.byte	0x4
 861 0417 09       		.uleb128 0x9
 862 0418 A6020000 		.4byte	.LASF77
 863 041c 07       		.byte	0x7
 864 041d B301     		.2byte	0x1b3
 865 041f 21010000 		.4byte	0x121
 866 0423 08       		.byte	0x8
 867 0424 09       		.uleb128 0x9
 868 0425 90060000 		.4byte	.LASF78
 869 0429 07       		.byte	0x7
 870 042a B901     		.2byte	0x1b9
 871 042c 2B070000 		.4byte	0x72b
 872 0430 0C       		.byte	0xc
 873 0431 00       		.byte	0
 874 0432 04       		.uleb128 0x4
 875 0433 32030000 		.4byte	.LASF79
 876 0437 06       		.byte	0x6
 877 0438 70       		.byte	0x70
 878 0439 3D040000 		.4byte	0x43d
 879 043d 0F       		.uleb128 0xf
 880 043e 3E010000 		.4byte	.LASF80
 881 0442 D805     		.2byte	0x5d8
 882 0444 07       		.byte	0x7
 883 0445 C201     		.2byte	0x1c2
 884 0447 AA040000 		.4byte	0x4aa
 885 044b 09       		.uleb128 0x9
 886 044c 4F060000 		.4byte	.LASF81
 887 0450 07       		.byte	0x7
 888 0451 C601     		.2byte	0x1c6
 889 0453 B8020000 		.4byte	0x2b8
 890 0457 00       		.byte	0
 891 0458 09       		.uleb128 0x9
 892 0459 37010000 		.4byte	.LASF82
 893 045d 07       		.byte	0x7
 894 045e CA01     		.2byte	0x1ca
 895 0460 97030000 		.4byte	0x397
 896 0464 1C       		.byte	0x1c
 897 0465 08       		.uleb128 0x8
 898 0466 64626700 		.ascii	"dbg\000"
ARM GAS  /tmp/ccoJPhrw.s 			page 17


 899 046a 07       		.byte	0x7
 900 046b CE01     		.2byte	0x1ce
 901 046d E4030000 		.4byte	0x3e4
 902 0471 2C       		.byte	0x2c
 903 0472 10       		.uleb128 0x10
 904 0473 C6000000 		.4byte	.LASF83
 905 0477 07       		.byte	0x7
 906 0478 D201     		.2byte	0x1d2
 907 047a 42010000 		.4byte	0x142
 908 047e 4004     		.2byte	0x440
 909 0480 11       		.uleb128 0x11
 910 0481 746D00   		.ascii	"tm\000"
 911 0484 07       		.byte	0x7
 912 0485 D701     		.2byte	0x1d7
 913 0487 4B070000 		.4byte	0x74b
 914 048b A004     		.2byte	0x4a0
 915 048d 10       		.uleb128 0x10
 916 048e 2F000000 		.4byte	.LASF84
 917 0492 07       		.byte	0x7
 918 0493 DD01     		.2byte	0x1dd
 919 0495 DD070000 		.4byte	0x7dd
 920 0499 A804     		.2byte	0x4a8
 921 049b 10       		.uleb128 0x10
 922 049c AF020000 		.4byte	.LASF85
 923 04a0 07       		.byte	0x7
 924 04a1 E301     		.2byte	0x1e3
 925 04a3 D0080000 		.4byte	0x8d0
 926 04a7 E004     		.2byte	0x4e0
 927 04a9 00       		.byte	0
 928 04aa 03       		.uleb128 0x3
 929 04ab 04       		.byte	0x4
 930 04ac 07       		.byte	0x7
 931 04ad A1030000 		.4byte	.LASF86
 932 04b1 12       		.uleb128 0x12
 933 04b2 A9000000 		.4byte	0xa9
 934 04b6 C1040000 		.4byte	0x4c1
 935 04ba 13       		.uleb128 0x13
 936 04bb AA040000 		.4byte	0x4aa
 937 04bf 01       		.byte	0x1
 938 04c0 00       		.byte	0
 939 04c1 12       		.uleb128 0x12
 940 04c2 A9000000 		.4byte	0xa9
 941 04c6 D1040000 		.4byte	0x4d1
 942 04ca 13       		.uleb128 0x13
 943 04cb AA040000 		.4byte	0x4aa
 944 04cf 03       		.byte	0x3
 945 04d0 00       		.byte	0
 946 04d1 04       		.uleb128 0x4
 947 04d2 7D020000 		.4byte	.LASF87
 948 04d6 08       		.byte	0x8
 949 04d7 65       		.byte	0x65
 950 04d8 3B030000 		.4byte	0x33b
 951 04dc 04       		.uleb128 0x4
 952 04dd 8C030000 		.4byte	.LASF88
 953 04e1 08       		.byte	0x8
 954 04e2 6D       		.byte	0x6d
 955 04e3 B4000000 		.4byte	0xb4
ARM GAS  /tmp/ccoJPhrw.s 			page 18


 956 04e7 06       		.uleb128 0x6
 957 04e8 DF050000 		.4byte	.LASF89
 958 04ec 04       		.byte	0x4
 959 04ed 08       		.byte	0x8
 960 04ee 89       		.byte	0x89
 961 04ef 00050000 		.4byte	0x500
 962 04f3 14       		.uleb128 0x14
 963 04f4 72313300 		.ascii	"r13\000"
 964 04f8 08       		.byte	0x8
 965 04f9 8A       		.byte	0x8a
 966 04fa 7B050000 		.4byte	0x57b
 967 04fe 00       		.byte	0
 968 04ff 00       		.byte	0
 969 0500 06       		.uleb128 0x6
 970 0501 46000000 		.4byte	.LASF90
 971 0505 24       		.byte	0x24
 972 0506 09       		.byte	0x9
 973 0507 FD       		.byte	0xfd
 974 0508 7B050000 		.4byte	0x57b
 975 050c 08       		.uleb128 0x8
 976 050d 723400   		.ascii	"r4\000"
 977 0510 09       		.byte	0x9
 978 0511 1001     		.2byte	0x110
 979 0513 D1040000 		.4byte	0x4d1
 980 0517 00       		.byte	0
 981 0518 08       		.uleb128 0x8
 982 0519 723500   		.ascii	"r5\000"
 983 051c 09       		.byte	0x9
 984 051d 1101     		.2byte	0x111
 985 051f D1040000 		.4byte	0x4d1
 986 0523 04       		.byte	0x4
 987 0524 08       		.uleb128 0x8
 988 0525 723600   		.ascii	"r6\000"
 989 0528 09       		.byte	0x9
 990 0529 1201     		.2byte	0x112
 991 052b D1040000 		.4byte	0x4d1
 992 052f 08       		.byte	0x8
 993 0530 08       		.uleb128 0x8
 994 0531 723700   		.ascii	"r7\000"
 995 0534 09       		.byte	0x9
 996 0535 1301     		.2byte	0x113
 997 0537 D1040000 		.4byte	0x4d1
 998 053b 0C       		.byte	0xc
 999 053c 08       		.uleb128 0x8
 1000 053d 723800   		.ascii	"r8\000"
 1001 0540 09       		.byte	0x9
 1002 0541 1401     		.2byte	0x114
 1003 0543 D1040000 		.4byte	0x4d1
 1004 0547 10       		.byte	0x10
 1005 0548 08       		.uleb128 0x8
 1006 0549 723900   		.ascii	"r9\000"
 1007 054c 09       		.byte	0x9
 1008 054d 1501     		.2byte	0x115
 1009 054f D1040000 		.4byte	0x4d1
 1010 0553 14       		.byte	0x14
 1011 0554 08       		.uleb128 0x8
 1012 0555 72313000 		.ascii	"r10\000"
ARM GAS  /tmp/ccoJPhrw.s 			page 19


 1013 0559 09       		.byte	0x9
 1014 055a 1601     		.2byte	0x116
 1015 055c D1040000 		.4byte	0x4d1
 1016 0560 18       		.byte	0x18
 1017 0561 08       		.uleb128 0x8
 1018 0562 72313100 		.ascii	"r11\000"
 1019 0566 09       		.byte	0x9
 1020 0567 1701     		.2byte	0x117
 1021 0569 D1040000 		.4byte	0x4d1
 1022 056d 1C       		.byte	0x1c
 1023 056e 08       		.uleb128 0x8
 1024 056f 6C7200   		.ascii	"lr\000"
 1025 0572 09       		.byte	0x9
 1026 0573 1801     		.2byte	0x118
 1027 0575 D1040000 		.4byte	0x4d1
 1028 0579 20       		.byte	0x20
 1029 057a 00       		.byte	0
 1030 057b 0A       		.uleb128 0xa
 1031 057c 04       		.byte	0x4
 1032 057d 00050000 		.4byte	0x500
 1033 0581 15       		.uleb128 0x15
 1034 0582 60       		.byte	0x60
 1035 0583 0A       		.byte	0xa
 1036 0584 A101     		.2byte	0x1a1
 1037 0586 8D060000 		.4byte	0x68d
 1038 058a 08       		.uleb128 0x8
 1039 058b 43523100 		.ascii	"CR1\000"
 1040 058f 0A       		.byte	0xa
 1041 0590 A201     		.2byte	0x1a2
 1042 0592 C4000000 		.4byte	0xc4
 1043 0596 00       		.byte	0
 1044 0597 08       		.uleb128 0x8
 1045 0598 43523200 		.ascii	"CR2\000"
 1046 059c 0A       		.byte	0xa
 1047 059d A301     		.2byte	0x1a3
 1048 059f C4000000 		.4byte	0xc4
 1049 05a3 04       		.byte	0x4
 1050 05a4 09       		.uleb128 0x9
 1051 05a5 02030000 		.4byte	.LASF91
 1052 05a9 0A       		.byte	0xa
 1053 05aa A401     		.2byte	0x1a4
 1054 05ac C4000000 		.4byte	0xc4
 1055 05b0 08       		.byte	0x8
 1056 05b1 09       		.uleb128 0x9
 1057 05b2 14000000 		.4byte	.LASF92
 1058 05b6 0A       		.byte	0xa
 1059 05b7 A501     		.2byte	0x1a5
 1060 05b9 C4000000 		.4byte	0xc4
 1061 05bd 0C       		.byte	0xc
 1062 05be 08       		.uleb128 0x8
 1063 05bf 535200   		.ascii	"SR\000"
 1064 05c2 0A       		.byte	0xa
 1065 05c3 A601     		.2byte	0x1a6
 1066 05c5 C4000000 		.4byte	0xc4
 1067 05c9 10       		.byte	0x10
 1068 05ca 08       		.uleb128 0x8
 1069 05cb 45475200 		.ascii	"EGR\000"
ARM GAS  /tmp/ccoJPhrw.s 			page 20


 1070 05cf 0A       		.byte	0xa
 1071 05d0 A701     		.2byte	0x1a7
 1072 05d2 C4000000 		.4byte	0xc4
 1073 05d6 14       		.byte	0x14
 1074 05d7 09       		.uleb128 0x9
 1075 05d8 09010000 		.4byte	.LASF93
 1076 05dc 0A       		.byte	0xa
 1077 05dd A801     		.2byte	0x1a8
 1078 05df C4000000 		.4byte	0xc4
 1079 05e3 18       		.byte	0x18
 1080 05e4 09       		.uleb128 0x9
 1081 05e5 0F010000 		.4byte	.LASF94
 1082 05e9 0A       		.byte	0xa
 1083 05ea A901     		.2byte	0x1a9
 1084 05ec C4000000 		.4byte	0xc4
 1085 05f0 1C       		.byte	0x1c
 1086 05f1 09       		.uleb128 0x9
 1087 05f2 62010000 		.4byte	.LASF95
 1088 05f6 0A       		.byte	0xa
 1089 05f7 AA01     		.2byte	0x1aa
 1090 05f9 C4000000 		.4byte	0xc4
 1091 05fd 20       		.byte	0x20
 1092 05fe 08       		.uleb128 0x8
 1093 05ff 434E5400 		.ascii	"CNT\000"
 1094 0603 0A       		.byte	0xa
 1095 0604 AB01     		.2byte	0x1ab
 1096 0606 C4000000 		.4byte	0xc4
 1097 060a 24       		.byte	0x24
 1098 060b 08       		.uleb128 0x8
 1099 060c 50534300 		.ascii	"PSC\000"
 1100 0610 0A       		.byte	0xa
 1101 0611 AC01     		.2byte	0x1ac
 1102 0613 C4000000 		.4byte	0xc4
 1103 0617 28       		.byte	0x28
 1104 0618 08       		.uleb128 0x8
 1105 0619 41525200 		.ascii	"ARR\000"
 1106 061d 0A       		.byte	0xa
 1107 061e AD01     		.2byte	0x1ad
 1108 0620 C4000000 		.4byte	0xc4
 1109 0624 2C       		.byte	0x2c
 1110 0625 08       		.uleb128 0x8
 1111 0626 52435200 		.ascii	"RCR\000"
 1112 062a 0A       		.byte	0xa
 1113 062b AE01     		.2byte	0x1ae
 1114 062d C4000000 		.4byte	0xc4
 1115 0631 30       		.byte	0x30
 1116 0632 08       		.uleb128 0x8
 1117 0633 43435200 		.ascii	"CCR\000"
 1118 0637 0A       		.byte	0xa
 1119 0638 AF01     		.2byte	0x1af
 1120 063a 8D060000 		.4byte	0x68d
 1121 063e 34       		.byte	0x34
 1122 063f 09       		.uleb128 0x9
 1123 0640 F4000000 		.4byte	.LASF96
 1124 0644 0A       		.byte	0xa
 1125 0645 B001     		.2byte	0x1b0
 1126 0647 C4000000 		.4byte	0xc4
ARM GAS  /tmp/ccoJPhrw.s 			page 21


 1127 064b 44       		.byte	0x44
 1128 064c 08       		.uleb128 0x8
 1129 064d 44435200 		.ascii	"DCR\000"
 1130 0651 0A       		.byte	0xa
 1131 0652 B101     		.2byte	0x1b1
 1132 0654 C4000000 		.4byte	0xc4
 1133 0658 48       		.byte	0x48
 1134 0659 09       		.uleb128 0x9
 1135 065a 7E050000 		.4byte	.LASF97
 1136 065e 0A       		.byte	0xa
 1137 065f B201     		.2byte	0x1b2
 1138 0661 C4000000 		.4byte	0xc4
 1139 0665 4C       		.byte	0x4c
 1140 0666 08       		.uleb128 0x8
 1141 0667 4F5200   		.ascii	"OR\000"
 1142 066a 0A       		.byte	0xa
 1143 066b B301     		.2byte	0x1b3
 1144 066d C4000000 		.4byte	0xc4
 1145 0671 50       		.byte	0x50
 1146 0672 09       		.uleb128 0x9
 1147 0673 15010000 		.4byte	.LASF98
 1148 0677 0A       		.byte	0xa
 1149 0678 B401     		.2byte	0x1b4
 1150 067a C4000000 		.4byte	0xc4
 1151 067e 54       		.byte	0x54
 1152 067f 09       		.uleb128 0x9
 1153 0680 11050000 		.4byte	.LASF99
 1154 0684 0A       		.byte	0xa
 1155 0685 B501     		.2byte	0x1b5
 1156 0687 92060000 		.4byte	0x692
 1157 068b 58       		.byte	0x58
 1158 068c 00       		.byte	0
 1159 068d 05       		.uleb128 0x5
 1160 068e C1040000 		.4byte	0x4c1
 1161 0692 05       		.uleb128 0x5
 1162 0693 B1040000 		.4byte	0x4b1
 1163 0697 16       		.uleb128 0x16
 1164 0698 3E030000 		.4byte	.LASF100
 1165 069c 0A       		.byte	0xa
 1166 069d B601     		.2byte	0x1b6
 1167 069f 81050000 		.4byte	0x581
 1168 06a3 17       		.uleb128 0x17
 1169 06a4 10       		.byte	0x10
 1170 06a5 0B       		.byte	0xb
 1171 06a6 51       		.byte	0x51
 1172 06a7 DC060000 		.4byte	0x6dc
 1173 06ab 07       		.uleb128 0x7
 1174 06ac 27010000 		.4byte	.LASF101
 1175 06b0 0B       		.byte	0xb
 1176 06b1 55       		.byte	0x55
 1177 06b2 37010000 		.4byte	0x137
 1178 06b6 00       		.byte	0
 1179 06b7 07       		.uleb128 0x7
 1180 06b8 67010000 		.4byte	.LASF102
 1181 06bc 0B       		.byte	0xb
 1182 06bd 59       		.byte	0x59
 1183 06be 5E020000 		.4byte	0x25e
ARM GAS  /tmp/ccoJPhrw.s 			page 22


 1184 06c2 04       		.byte	0x4
 1185 06c3 07       		.uleb128 0x7
 1186 06c4 C9060000 		.4byte	.LASF103
 1187 06c8 0B       		.byte	0xb
 1188 06c9 5D       		.byte	0x5d
 1189 06ca 3B030000 		.4byte	0x33b
 1190 06ce 08       		.byte	0x8
 1191 06cf 07       		.uleb128 0x7
 1192 06d0 B4000000 		.4byte	.LASF104
 1193 06d4 0B       		.byte	0xb
 1194 06d5 61       		.byte	0x61
 1195 06d6 93000000 		.4byte	0x93
 1196 06da 0C       		.byte	0xc
 1197 06db 00       		.byte	0
 1198 06dc 04       		.uleb128 0x4
 1199 06dd D4030000 		.4byte	.LASF105
 1200 06e1 0B       		.byte	0xb
 1201 06e2 62       		.byte	0x62
 1202 06e3 A3060000 		.4byte	0x6a3
 1203 06e7 18       		.uleb128 0x18
 1204 06e8 0804     		.2byte	0x408
 1205 06ea 0B       		.byte	0xb
 1206 06eb 67       		.byte	0x67
 1207 06ec 15070000 		.4byte	0x715
 1208 06f0 07       		.uleb128 0x7
 1209 06f1 65020000 		.4byte	.LASF106
 1210 06f5 0B       		.byte	0xb
 1211 06f6 6B       		.byte	0x6b
 1212 06f7 28000000 		.4byte	0x28
 1213 06fb 00       		.byte	0
 1214 06fc 07       		.uleb128 0x7
 1215 06fd 00000000 		.4byte	.LASF107
 1216 0701 0B       		.byte	0xb
 1217 0702 6F       		.byte	0x6f
 1218 0703 15070000 		.4byte	0x715
 1219 0707 04       		.byte	0x4
 1220 0708 07       		.uleb128 0x7
 1221 0709 4A040000 		.4byte	.LASF108
 1222 070d 0B       		.byte	0xb
 1223 070e 73       		.byte	0x73
 1224 070f 1B070000 		.4byte	0x71b
 1225 0713 08       		.byte	0x8
 1226 0714 00       		.byte	0
 1227 0715 0A       		.uleb128 0xa
 1228 0716 04       		.byte	0x4
 1229 0717 DC060000 		.4byte	0x6dc
 1230 071b 12       		.uleb128 0x12
 1231 071c DC060000 		.4byte	0x6dc
 1232 0720 2B070000 		.4byte	0x72b
 1233 0724 13       		.uleb128 0x13
 1234 0725 AA040000 		.4byte	0x4aa
 1235 0729 3F       		.byte	0x3f
 1236 072a 00       		.byte	0
 1237 072b 04       		.uleb128 0x4
 1238 072c A2000000 		.4byte	.LASF109
 1239 0730 0B       		.byte	0xb
 1240 0731 74       		.byte	0x74
ARM GAS  /tmp/ccoJPhrw.s 			page 23


 1241 0732 E7060000 		.4byte	0x6e7
 1242 0736 17       		.uleb128 0x17
 1243 0737 04       		.byte	0x4
 1244 0738 0C       		.byte	0xc
 1245 0739 38       		.byte	0x38
 1246 073a 4B070000 		.4byte	0x74b
 1247 073e 07       		.uleb128 0x7
 1248 073f CB050000 		.4byte	.LASF110
 1249 0743 0C       		.byte	0xc
 1250 0744 3C       		.byte	0x3c
 1251 0745 C9000000 		.4byte	0xc9
 1252 0749 00       		.byte	0
 1253 074a 00       		.byte	0
 1254 074b 04       		.uleb128 0x4
 1255 074c 04040000 		.4byte	.LASF111
 1256 0750 0C       		.byte	0xc
 1257 0751 3D       		.byte	0x3d
 1258 0752 36070000 		.4byte	0x736
 1259 0756 17       		.uleb128 0x17
 1260 0757 18       		.byte	0x18
 1261 0758 0C       		.byte	0xc
 1262 0759 48       		.byte	0x48
 1263 075a 99070000 		.4byte	0x799
 1264 075e 07       		.uleb128 0x7
 1265 075f 8C050000 		.4byte	.LASF112
 1266 0763 0C       		.byte	0xc
 1267 0764 49       		.byte	0x49
 1268 0765 C9000000 		.4byte	0xc9
 1269 0769 00       		.byte	0
 1270 076a 07       		.uleb128 0x7
 1271 076b 72000000 		.4byte	.LASF113
 1272 076f 0C       		.byte	0xc
 1273 0770 4A       		.byte	0x4a
 1274 0771 C9000000 		.4byte	0xc9
 1275 0775 04       		.byte	0x4
 1276 0776 07       		.uleb128 0x7
 1277 0777 26030000 		.4byte	.LASF114
 1278 077b 0C       		.byte	0xc
 1279 077c 4B       		.byte	0x4b
 1280 077d C9000000 		.4byte	0xc9
 1281 0781 08       		.byte	0x8
 1282 0782 14       		.uleb128 0x14
 1283 0783 6E00     		.ascii	"n\000"
 1284 0785 0C       		.byte	0xc
 1285 0786 4C       		.byte	0x4c
 1286 0787 2C010000 		.4byte	0x12c
 1287 078b 0C       		.byte	0xc
 1288 078c 07       		.uleb128 0x7
 1289 078d 37040000 		.4byte	.LASF115
 1290 0791 0C       		.byte	0xc
 1291 0792 4D       		.byte	0x4d
 1292 0793 D4000000 		.4byte	0xd4
 1293 0797 10       		.byte	0x10
 1294 0798 00       		.byte	0
 1295 0799 04       		.uleb128 0x4
 1296 079a 78000000 		.4byte	.LASF116
 1297 079e 0C       		.byte	0xc
ARM GAS  /tmp/ccoJPhrw.s 			page 24


 1298 079f 4E       		.byte	0x4e
 1299 07a0 56070000 		.4byte	0x756
 1300 07a4 17       		.uleb128 0x17
 1301 07a5 38       		.byte	0x38
 1302 07a6 0D       		.byte	0xd
 1303 07a7 38       		.byte	0x38
 1304 07a8 DD070000 		.4byte	0x7dd
 1305 07ac 07       		.uleb128 0x7
 1306 07ad F6020000 		.4byte	.LASF117
 1307 07b1 0D       		.byte	0xd
 1308 07b2 39       		.byte	0x39
 1309 07b3 2C010000 		.4byte	0x12c
 1310 07b7 00       		.byte	0
 1311 07b8 07       		.uleb128 0x7
 1312 07b9 73040000 		.4byte	.LASF118
 1313 07bd 0D       		.byte	0xd
 1314 07be 3A       		.byte	0x3a
 1315 07bf 2C010000 		.4byte	0x12c
 1316 07c3 04       		.byte	0x4
 1317 07c4 07       		.uleb128 0x7
 1318 07c5 B6060000 		.4byte	.LASF119
 1319 07c9 0D       		.byte	0xd
 1320 07ca 3B       		.byte	0x3b
 1321 07cb 99070000 		.4byte	0x799
 1322 07cf 08       		.byte	0x8
 1323 07d0 07       		.uleb128 0x7
 1324 07d1 4A030000 		.4byte	.LASF120
 1325 07d5 0D       		.byte	0xd
 1326 07d6 3D       		.byte	0x3d
 1327 07d7 99070000 		.4byte	0x799
 1328 07db 20       		.byte	0x20
 1329 07dc 00       		.byte	0
 1330 07dd 04       		.uleb128 0x4
 1331 07de 07030000 		.4byte	.LASF121
 1332 07e2 0D       		.byte	0xd
 1333 07e3 3F       		.byte	0x3f
 1334 07e4 A4070000 		.4byte	0x7a4
 1335 07e8 19       		.uleb128 0x19
 1336 07e9 04       		.byte	0x4
 1337 07ea 07       		.byte	0x7
 1338 07eb FA       		.byte	0xfa
 1339 07ec 45080000 		.4byte	0x845
 1340 07f0 1A       		.uleb128 0x1a
 1341 07f1 1F000000 		.4byte	.LASF122
 1342 07f5 07       		.byte	0x7
 1343 07f6 0101     		.2byte	0x101
 1344 07f8 0B010000 		.4byte	0x10b
 1345 07fc 1A       		.uleb128 0x1a
 1346 07fd BD000000 		.4byte	.LASF123
 1347 0801 07       		.byte	0x7
 1348 0802 0801     		.2byte	0x108
 1349 0804 0B010000 		.4byte	0x10b
 1350 0808 1A       		.uleb128 0x1a
 1351 0809 6B060000 		.4byte	.LASF124
 1352 080d 07       		.byte	0x7
 1353 080e 0F01     		.2byte	0x10f
 1354 0810 3B030000 		.4byte	0x33b
ARM GAS  /tmp/ccoJPhrw.s 			page 25


 1355 0814 1A       		.uleb128 0x1a
 1356 0815 19000000 		.4byte	.LASF125
 1357 0819 07       		.byte	0x7
 1358 081a 1601     		.2byte	0x116
 1359 081c 45080000 		.4byte	0x845
 1360 0820 1A       		.uleb128 0x1a
 1361 0821 E4020000 		.4byte	.LASF126
 1362 0825 07       		.byte	0x7
 1363 0826 1E01     		.2byte	0x11e
 1364 0828 70080000 		.4byte	0x870
 1365 082c 1A       		.uleb128 0x1a
 1366 082d 2A050000 		.4byte	.LASF127
 1367 0831 07       		.byte	0x7
 1368 0832 2701     		.2byte	0x127
 1369 0834 A7080000 		.4byte	0x8a7
 1370 0838 1A       		.uleb128 0x1a
 1371 0839 BB040000 		.4byte	.LASF128
 1372 083d 07       		.byte	0x7
 1373 083e 2F01     		.2byte	0x12f
 1374 0840 16010000 		.4byte	0x116
 1375 0844 00       		.byte	0
 1376 0845 0A       		.uleb128 0xa
 1377 0846 04       		.byte	0x4
 1378 0847 53020000 		.4byte	0x253
 1379 084b 06       		.uleb128 0x6
 1380 084c 04050000 		.4byte	.LASF129
 1381 0850 0C       		.byte	0xc
 1382 0851 0E       		.byte	0xe
 1383 0852 34       		.byte	0x34
 1384 0853 70080000 		.4byte	0x870
 1385 0857 07       		.uleb128 0x7
 1386 0858 33020000 		.4byte	.LASF130
 1387 085c 0E       		.byte	0xe
 1388 085d 35       		.byte	0x35
 1389 085e 88020000 		.4byte	0x288
 1390 0862 00       		.byte	0
 1391 0863 07       		.uleb128 0x7
 1392 0864 FC020000 		.4byte	.LASF131
 1393 0868 0E       		.byte	0xe
 1394 0869 37       		.byte	0x37
 1395 086a 21010000 		.4byte	0x121
 1396 086e 08       		.byte	0x8
 1397 086f 00       		.byte	0
 1398 0870 0A       		.uleb128 0xa
 1399 0871 04       		.byte	0x4
 1400 0872 4B080000 		.4byte	0x84b
 1401 0876 06       		.uleb128 0x6
 1402 0877 75050000 		.4byte	.LASF132
 1403 087b 10       		.byte	0x10
 1404 087c 0F       		.byte	0xf
 1405 087d 39       		.byte	0x39
 1406 087e A7080000 		.4byte	0x8a7
 1407 0882 07       		.uleb128 0x7
 1408 0883 2F010000 		.4byte	.LASF133
 1409 0887 0F       		.byte	0xf
 1410 0888 3A       		.byte	0x3a
 1411 0889 88020000 		.4byte	0x288
ARM GAS  /tmp/ccoJPhrw.s 			page 26


 1412 088d 00       		.byte	0
 1413 088e 07       		.uleb128 0x7
 1414 088f C1060000 		.4byte	.LASF134
 1415 0893 0F       		.byte	0xf
 1416 0894 3C       		.byte	0x3c
 1417 0895 5E020000 		.4byte	0x25e
 1418 0899 08       		.byte	0x8
 1419 089a 07       		.uleb128 0x7
 1420 089b 91050000 		.4byte	.LASF135
 1421 089f 0F       		.byte	0xf
 1422 08a0 3E       		.byte	0x3e
 1423 08a1 EB080000 		.4byte	0x8eb
 1424 08a5 0C       		.byte	0xc
 1425 08a6 00       		.byte	0
 1426 08a7 0A       		.uleb128 0xa
 1427 08a8 04       		.byte	0x4
 1428 08a9 76080000 		.4byte	0x876
 1429 08ad 0A       		.uleb128 0xa
 1430 08ae 04       		.byte	0x4
 1431 08af B3080000 		.4byte	0x8b3
 1432 08b3 1B       		.uleb128 0x1b
 1433 08b4 B8080000 		.4byte	0x8b8
 1434 08b8 03       		.uleb128 0x3
 1435 08b9 01       		.byte	0x1
 1436 08ba 08       		.byte	0x8
 1437 08bb 70050000 		.4byte	.LASF136
 1438 08bf 0A       		.uleb128 0xa
 1439 08c0 04       		.byte	0x4
 1440 08c1 DC040000 		.4byte	0x4dc
 1441 08c5 0A       		.uleb128 0xa
 1442 08c6 04       		.byte	0x4
 1443 08c7 3D030000 		.4byte	0x33d
 1444 08cb 05       		.uleb128 0x5
 1445 08cc AD080000 		.4byte	0x8ad
 1446 08d0 12       		.uleb128 0x12
 1447 08d1 DC040000 		.4byte	0x4dc
 1448 08d5 E0080000 		.4byte	0x8e0
 1449 08d9 13       		.uleb128 0x13
 1450 08da AA040000 		.4byte	0x4aa
 1451 08de 1E       		.byte	0x1e
 1452 08df 00       		.byte	0
 1453 08e0 04       		.uleb128 0x4
 1454 08e1 9E020000 		.4byte	.LASF137
 1455 08e5 0F       		.byte	0xf
 1456 08e6 34       		.byte	0x34
 1457 08e7 76080000 		.4byte	0x876
 1458 08eb 0A       		.uleb128 0xa
 1459 08ec 04       		.byte	0x4
 1460 08ed E0080000 		.4byte	0x8e0
 1461 08f1 03       		.uleb128 0x3
 1462 08f2 01       		.byte	0x1
 1463 08f3 02       		.byte	0x2
 1464 08f4 7C040000 		.4byte	.LASF138
 1465 08f8 1C       		.uleb128 0x1c
 1466 08f9 79030000 		.4byte	.LASF139
 1467 08fd 01       		.byte	0x1
 1468 08fe 99       		.byte	0x99
ARM GAS  /tmp/ccoJPhrw.s 			page 27


 1469 08ff 00000000 		.4byte	.LFB137
 1470 0903 20000000 		.4byte	.LFE137-.LFB137
 1471 0907 01       		.uleb128 0x1
 1472 0908 9C       		.byte	0x9c
 1473 0909 1C090000 		.4byte	0x91c
 1474 090d 1D       		.uleb128 0x1d
 1475 090e 15040000 		.4byte	.LASF141
 1476 0912 01       		.byte	0x1
 1477 0913 99       		.byte	0x99
 1478 0914 37010000 		.4byte	0x137
 1479 0918 02       		.uleb128 0x2
 1480 0919 91       		.byte	0x91
 1481 091a 7C       		.sleb128 -4
 1482 091b 00       		.byte	0
 1483 091c 1E       		.uleb128 0x1e
 1484 091d F5050000 		.4byte	.LASF153
 1485 0921 01       		.byte	0x1
 1486 0922 A5       		.byte	0xa5
 1487 0923 00000000 		.4byte	.LFB138
 1488 0927 0A000000 		.4byte	.LFE138-.LFB138
 1489 092b 01       		.uleb128 0x1
 1490 092c 9C       		.byte	0x9c
 1491 092d 1C       		.uleb128 0x1c
 1492 092e A5060000 		.4byte	.LASF140
 1493 0932 01       		.byte	0x1
 1494 0933 B1       		.byte	0xb1
 1495 0934 00000000 		.4byte	.LFB139
 1496 0938 10000000 		.4byte	.LFE139-.LFB139
 1497 093c 01       		.uleb128 0x1
 1498 093d 9C       		.byte	0x9c
 1499 093e 51090000 		.4byte	0x951
 1500 0942 1D       		.uleb128 0x1d
 1501 0943 15040000 		.4byte	.LASF141
 1502 0947 01       		.byte	0x1
 1503 0948 B1       		.byte	0xb1
 1504 0949 37010000 		.4byte	0x137
 1505 094d 02       		.uleb128 0x2
 1506 094e 91       		.byte	0x91
 1507 094f 7C       		.sleb128 -4
 1508 0950 00       		.byte	0
 1509 0951 1F       		.uleb128 0x1f
 1510 0952 F3040000 		.4byte	.LASF142
 1511 0956 01       		.byte	0x1
 1512 0957 BD       		.byte	0xbd
 1513 0958 37010000 		.4byte	0x137
 1514 095c 00000000 		.4byte	.LFB140
 1515 0960 0A000000 		.4byte	.LFE140-.LFB140
 1516 0964 01       		.uleb128 0x1
 1517 0965 9C       		.byte	0x9c
 1518 0966 1F       		.uleb128 0x1f
 1519 0967 4E020000 		.4byte	.LASF143
 1520 096b 01       		.byte	0x1
 1521 096c CB       		.byte	0xcb
 1522 096d F1080000 		.4byte	0x8f1
 1523 0971 00000000 		.4byte	.LFB141
 1524 0975 18000000 		.4byte	.LFE141-.LFB141
 1525 0979 01       		.uleb128 0x1
ARM GAS  /tmp/ccoJPhrw.s 			page 28


 1526 097a 9C       		.byte	0x9c
 1527 097b 20       		.uleb128 0x20
 1528 097c F7030000 		.4byte	.LASF145
 1529 0980 02       		.byte	0x2
 1530 0981 3C       		.byte	0x3c
 1531 0982 00000000 		.4byte	.LFB271
 1532 0986 08000000 		.4byte	.LFE271-.LFB271
 1533 098a 01       		.uleb128 0x1
 1534 098b 9C       		.byte	0x9c
 1535 098c 21       		.uleb128 0x21
 1536 098d D2050000 		.4byte	.LASF147
 1537 0991 02       		.byte	0x2
 1538 0992 4D       		.byte	0x4d
 1539 0993 00000000 		.4byte	.LFB272
 1540 0997 28000000 		.4byte	.LFE272-.LFB272
 1541 099b 01       		.uleb128 0x1
 1542 099c 9C       		.byte	0x9c
 1543 099d BF090000 		.4byte	0x9bf
 1544 09a1 1D       		.uleb128 0x1d
 1545 09a2 88060000 		.4byte	.LASF144
 1546 09a6 02       		.byte	0x2
 1547 09a7 4D       		.byte	0x4d
 1548 09a8 37010000 		.4byte	0x137
 1549 09ac 02       		.uleb128 0x2
 1550 09ad 91       		.byte	0x91
 1551 09ae 74       		.sleb128 -12
 1552 09af 22       		.uleb128 0x22
 1553 09b0 D1040000 		.4byte	.LASF149
 1554 09b4 CF090000 		.4byte	0x9cf
 1555 09b8 05       		.uleb128 0x5
 1556 09b9 03       		.byte	0x3
 1557 09ba 00000000 		.4byte	__func__.7143
 1558 09be 00       		.byte	0
 1559 09bf 12       		.uleb128 0x12
 1560 09c0 B8080000 		.4byte	0x8b8
 1561 09c4 CF090000 		.4byte	0x9cf
 1562 09c8 13       		.uleb128 0x13
 1563 09c9 AA040000 		.4byte	0x4aa
 1564 09cd 0C       		.byte	0xc
 1565 09ce 00       		.byte	0
 1566 09cf 1B       		.uleb128 0x1b
 1567 09d0 BF090000 		.4byte	0x9bf
 1568 09d4 20       		.uleb128 0x20
 1569 09d5 64050000 		.4byte	.LASF146
 1570 09d9 02       		.byte	0x2
 1571 09da 5B       		.byte	0x5b
 1572 09db 00000000 		.4byte	.LFB273
 1573 09df 08000000 		.4byte	.LFE273-.LFB273
 1574 09e3 01       		.uleb128 0x1
 1575 09e4 9C       		.byte	0x9c
 1576 09e5 21       		.uleb128 0x21
 1577 09e6 55060000 		.4byte	.LASF148
 1578 09ea 02       		.byte	0x2
 1579 09eb 69       		.byte	0x69
 1580 09ec 00000000 		.4byte	.LFB274
 1581 09f0 2C000000 		.4byte	.LFE274-.LFB274
 1582 09f4 01       		.uleb128 0x1
ARM GAS  /tmp/ccoJPhrw.s 			page 29


 1583 09f5 9C       		.byte	0x9c
 1584 09f6 180A0000 		.4byte	0xa18
 1585 09fa 1D       		.uleb128 0x1d
 1586 09fb 88060000 		.4byte	.LASF144
 1587 09ff 02       		.byte	0x2
 1588 0a00 69       		.byte	0x69
 1589 0a01 37010000 		.4byte	0x137
 1590 0a05 02       		.uleb128 0x2
 1591 0a06 91       		.byte	0x91
 1592 0a07 74       		.sleb128 -12
 1593 0a08 22       		.uleb128 0x22
 1594 0a09 D1040000 		.4byte	.LASF149
 1595 0a0d 280A0000 		.4byte	0xa28
 1596 0a11 05       		.uleb128 0x5
 1597 0a12 03       		.byte	0x3
 1598 0a13 00000000 		.4byte	__func__.7150
 1599 0a17 00       		.byte	0
 1600 0a18 12       		.uleb128 0x12
 1601 0a19 B8080000 		.4byte	0x8b8
 1602 0a1d 280A0000 		.4byte	0xa28
 1603 0a21 13       		.uleb128 0x13
 1604 0a22 AA040000 		.4byte	0x4aa
 1605 0a26 0A       		.byte	0xa
 1606 0a27 00       		.byte	0
 1607 0a28 1B       		.uleb128 0x1b
 1608 0a29 180A0000 		.4byte	0xa18
 1609 0a2d 23       		.uleb128 0x23
 1610 0a2e 60060000 		.4byte	.LASF154
 1611 0a32 02       		.byte	0x2
 1612 0a33 79       		.byte	0x79
 1613 0a34 37010000 		.4byte	0x137
 1614 0a38 00000000 		.4byte	.LFB275
 1615 0a3c 28000000 		.4byte	.LFE275-.LFB275
 1616 0a40 01       		.uleb128 0x1
 1617 0a41 9C       		.byte	0x9c
 1618 0a42 560A0000 		.4byte	0xa56
 1619 0a46 22       		.uleb128 0x22
 1620 0a47 D1040000 		.4byte	.LASF149
 1621 0a4b 560A0000 		.4byte	0xa56
 1622 0a4f 05       		.uleb128 0x5
 1623 0a50 03       		.byte	0x3
 1624 0a51 00000000 		.4byte	__func__.7154
 1625 0a55 00       		.byte	0
 1626 0a56 1B       		.uleb128 0x1b
 1627 0a57 180A0000 		.4byte	0xa18
 1628 0a5b 24       		.uleb128 0x24
 1629 0a5c E7000000 		.4byte	.LASF150
 1630 0a60 10       		.byte	0x10
 1631 0a61 FA06     		.2byte	0x6fa
 1632 0a63 BF000000 		.4byte	0xbf
 1633 0a67 25       		.uleb128 0x25
 1634 0a68 636800   		.ascii	"ch\000"
 1635 0a6b 07       		.byte	0x7
 1636 0a6c 0902     		.2byte	0x209
 1637 0a6e 32040000 		.4byte	0x432
 1638 0a72 00       		.byte	0
 1639              		.section	.debug_abbrev,"",%progbits
ARM GAS  /tmp/ccoJPhrw.s 			page 30


 1640              	.Ldebug_abbrev0:
 1641 0000 01       		.uleb128 0x1
 1642 0001 11       		.uleb128 0x11
 1643 0002 01       		.byte	0x1
 1644 0003 25       		.uleb128 0x25
 1645 0004 0E       		.uleb128 0xe
 1646 0005 13       		.uleb128 0x13
 1647 0006 0B       		.uleb128 0xb
 1648 0007 03       		.uleb128 0x3
 1649 0008 0E       		.uleb128 0xe
 1650 0009 55       		.uleb128 0x55
 1651 000a 17       		.uleb128 0x17
 1652 000b 11       		.uleb128 0x11
 1653 000c 01       		.uleb128 0x1
 1654 000d 10       		.uleb128 0x10
 1655 000e 17       		.uleb128 0x17
 1656 000f 00       		.byte	0
 1657 0010 00       		.byte	0
 1658 0011 02       		.uleb128 0x2
 1659 0012 24       		.uleb128 0x24
 1660 0013 00       		.byte	0
 1661 0014 0B       		.uleb128 0xb
 1662 0015 0B       		.uleb128 0xb
 1663 0016 3E       		.uleb128 0x3e
 1664 0017 0B       		.uleb128 0xb
 1665 0018 03       		.uleb128 0x3
 1666 0019 08       		.uleb128 0x8
 1667 001a 00       		.byte	0
 1668 001b 00       		.byte	0
 1669 001c 03       		.uleb128 0x3
 1670 001d 24       		.uleb128 0x24
 1671 001e 00       		.byte	0
 1672 001f 0B       		.uleb128 0xb
 1673 0020 0B       		.uleb128 0xb
 1674 0021 3E       		.uleb128 0x3e
 1675 0022 0B       		.uleb128 0xb
 1676 0023 03       		.uleb128 0x3
 1677 0024 0E       		.uleb128 0xe
 1678 0025 00       		.byte	0
 1679 0026 00       		.byte	0
 1680 0027 04       		.uleb128 0x4
 1681 0028 16       		.uleb128 0x16
 1682 0029 00       		.byte	0
 1683 002a 03       		.uleb128 0x3
 1684 002b 0E       		.uleb128 0xe
 1685 002c 3A       		.uleb128 0x3a
 1686 002d 0B       		.uleb128 0xb
 1687 002e 3B       		.uleb128 0x3b
 1688 002f 0B       		.uleb128 0xb
 1689 0030 49       		.uleb128 0x49
 1690 0031 13       		.uleb128 0x13
 1691 0032 00       		.byte	0
 1692 0033 00       		.byte	0
 1693 0034 05       		.uleb128 0x5
 1694 0035 35       		.uleb128 0x35
 1695 0036 00       		.byte	0
 1696 0037 49       		.uleb128 0x49
ARM GAS  /tmp/ccoJPhrw.s 			page 31


 1697 0038 13       		.uleb128 0x13
 1698 0039 00       		.byte	0
 1699 003a 00       		.byte	0
 1700 003b 06       		.uleb128 0x6
 1701 003c 13       		.uleb128 0x13
 1702 003d 01       		.byte	0x1
 1703 003e 03       		.uleb128 0x3
 1704 003f 0E       		.uleb128 0xe
 1705 0040 0B       		.uleb128 0xb
 1706 0041 0B       		.uleb128 0xb
 1707 0042 3A       		.uleb128 0x3a
 1708 0043 0B       		.uleb128 0xb
 1709 0044 3B       		.uleb128 0x3b
 1710 0045 0B       		.uleb128 0xb
 1711 0046 01       		.uleb128 0x1
 1712 0047 13       		.uleb128 0x13
 1713 0048 00       		.byte	0
 1714 0049 00       		.byte	0
 1715 004a 07       		.uleb128 0x7
 1716 004b 0D       		.uleb128 0xd
 1717 004c 00       		.byte	0
 1718 004d 03       		.uleb128 0x3
 1719 004e 0E       		.uleb128 0xe
 1720 004f 3A       		.uleb128 0x3a
 1721 0050 0B       		.uleb128 0xb
 1722 0051 3B       		.uleb128 0x3b
 1723 0052 0B       		.uleb128 0xb
 1724 0053 49       		.uleb128 0x49
 1725 0054 13       		.uleb128 0x13
 1726 0055 38       		.uleb128 0x38
 1727 0056 0B       		.uleb128 0xb
 1728 0057 00       		.byte	0
 1729 0058 00       		.byte	0
 1730 0059 08       		.uleb128 0x8
 1731 005a 0D       		.uleb128 0xd
 1732 005b 00       		.byte	0
 1733 005c 03       		.uleb128 0x3
 1734 005d 08       		.uleb128 0x8
 1735 005e 3A       		.uleb128 0x3a
 1736 005f 0B       		.uleb128 0xb
 1737 0060 3B       		.uleb128 0x3b
 1738 0061 05       		.uleb128 0x5
 1739 0062 49       		.uleb128 0x49
 1740 0063 13       		.uleb128 0x13
 1741 0064 38       		.uleb128 0x38
 1742 0065 0B       		.uleb128 0xb
 1743 0066 00       		.byte	0
 1744 0067 00       		.byte	0
 1745 0068 09       		.uleb128 0x9
 1746 0069 0D       		.uleb128 0xd
 1747 006a 00       		.byte	0
 1748 006b 03       		.uleb128 0x3
 1749 006c 0E       		.uleb128 0xe
 1750 006d 3A       		.uleb128 0x3a
 1751 006e 0B       		.uleb128 0xb
 1752 006f 3B       		.uleb128 0x3b
 1753 0070 05       		.uleb128 0x5
ARM GAS  /tmp/ccoJPhrw.s 			page 32


 1754 0071 49       		.uleb128 0x49
 1755 0072 13       		.uleb128 0x13
 1756 0073 38       		.uleb128 0x38
 1757 0074 0B       		.uleb128 0xb
 1758 0075 00       		.byte	0
 1759 0076 00       		.byte	0
 1760 0077 0A       		.uleb128 0xa
 1761 0078 0F       		.uleb128 0xf
 1762 0079 00       		.byte	0
 1763 007a 0B       		.uleb128 0xb
 1764 007b 0B       		.uleb128 0xb
 1765 007c 49       		.uleb128 0x49
 1766 007d 13       		.uleb128 0x13
 1767 007e 00       		.byte	0
 1768 007f 00       		.byte	0
 1769 0080 0B       		.uleb128 0xb
 1770 0081 13       		.uleb128 0x13
 1771 0082 01       		.byte	0x1
 1772 0083 03       		.uleb128 0x3
 1773 0084 0E       		.uleb128 0xe
 1774 0085 0B       		.uleb128 0xb
 1775 0086 0B       		.uleb128 0xb
 1776 0087 3A       		.uleb128 0x3a
 1777 0088 0B       		.uleb128 0xb
 1778 0089 3B       		.uleb128 0x3b
 1779 008a 05       		.uleb128 0x5
 1780 008b 01       		.uleb128 0x1
 1781 008c 13       		.uleb128 0x13
 1782 008d 00       		.byte	0
 1783 008e 00       		.byte	0
 1784 008f 0C       		.uleb128 0xc
 1785 0090 15       		.uleb128 0x15
 1786 0091 01       		.byte	0x1
 1787 0092 27       		.uleb128 0x27
 1788 0093 19       		.uleb128 0x19
 1789 0094 01       		.uleb128 0x1
 1790 0095 13       		.uleb128 0x13
 1791 0096 00       		.byte	0
 1792 0097 00       		.byte	0
 1793 0098 0D       		.uleb128 0xd
 1794 0099 05       		.uleb128 0x5
 1795 009a 00       		.byte	0
 1796 009b 49       		.uleb128 0x49
 1797 009c 13       		.uleb128 0x13
 1798 009d 00       		.byte	0
 1799 009e 00       		.byte	0
 1800 009f 0E       		.uleb128 0xe
 1801 00a0 0F       		.uleb128 0xf
 1802 00a1 00       		.byte	0
 1803 00a2 0B       		.uleb128 0xb
 1804 00a3 0B       		.uleb128 0xb
 1805 00a4 00       		.byte	0
 1806 00a5 00       		.byte	0
 1807 00a6 0F       		.uleb128 0xf
 1808 00a7 13       		.uleb128 0x13
 1809 00a8 01       		.byte	0x1
 1810 00a9 03       		.uleb128 0x3
ARM GAS  /tmp/ccoJPhrw.s 			page 33


 1811 00aa 0E       		.uleb128 0xe
 1812 00ab 0B       		.uleb128 0xb
 1813 00ac 05       		.uleb128 0x5
 1814 00ad 3A       		.uleb128 0x3a
 1815 00ae 0B       		.uleb128 0xb
 1816 00af 3B       		.uleb128 0x3b
 1817 00b0 05       		.uleb128 0x5
 1818 00b1 01       		.uleb128 0x1
 1819 00b2 13       		.uleb128 0x13
 1820 00b3 00       		.byte	0
 1821 00b4 00       		.byte	0
 1822 00b5 10       		.uleb128 0x10
 1823 00b6 0D       		.uleb128 0xd
 1824 00b7 00       		.byte	0
 1825 00b8 03       		.uleb128 0x3
 1826 00b9 0E       		.uleb128 0xe
 1827 00ba 3A       		.uleb128 0x3a
 1828 00bb 0B       		.uleb128 0xb
 1829 00bc 3B       		.uleb128 0x3b
 1830 00bd 05       		.uleb128 0x5
 1831 00be 49       		.uleb128 0x49
 1832 00bf 13       		.uleb128 0x13
 1833 00c0 38       		.uleb128 0x38
 1834 00c1 05       		.uleb128 0x5
 1835 00c2 00       		.byte	0
 1836 00c3 00       		.byte	0
 1837 00c4 11       		.uleb128 0x11
 1838 00c5 0D       		.uleb128 0xd
 1839 00c6 00       		.byte	0
 1840 00c7 03       		.uleb128 0x3
 1841 00c8 08       		.uleb128 0x8
 1842 00c9 3A       		.uleb128 0x3a
 1843 00ca 0B       		.uleb128 0xb
 1844 00cb 3B       		.uleb128 0x3b
 1845 00cc 05       		.uleb128 0x5
 1846 00cd 49       		.uleb128 0x49
 1847 00ce 13       		.uleb128 0x13
 1848 00cf 38       		.uleb128 0x38
 1849 00d0 05       		.uleb128 0x5
 1850 00d1 00       		.byte	0
 1851 00d2 00       		.byte	0
 1852 00d3 12       		.uleb128 0x12
 1853 00d4 01       		.uleb128 0x1
 1854 00d5 01       		.byte	0x1
 1855 00d6 49       		.uleb128 0x49
 1856 00d7 13       		.uleb128 0x13
 1857 00d8 01       		.uleb128 0x1
 1858 00d9 13       		.uleb128 0x13
 1859 00da 00       		.byte	0
 1860 00db 00       		.byte	0
 1861 00dc 13       		.uleb128 0x13
 1862 00dd 21       		.uleb128 0x21
 1863 00de 00       		.byte	0
 1864 00df 49       		.uleb128 0x49
 1865 00e0 13       		.uleb128 0x13
 1866 00e1 2F       		.uleb128 0x2f
 1867 00e2 0B       		.uleb128 0xb
ARM GAS  /tmp/ccoJPhrw.s 			page 34


 1868 00e3 00       		.byte	0
 1869 00e4 00       		.byte	0
 1870 00e5 14       		.uleb128 0x14
 1871 00e6 0D       		.uleb128 0xd
 1872 00e7 00       		.byte	0
 1873 00e8 03       		.uleb128 0x3
 1874 00e9 08       		.uleb128 0x8
 1875 00ea 3A       		.uleb128 0x3a
 1876 00eb 0B       		.uleb128 0xb
 1877 00ec 3B       		.uleb128 0x3b
 1878 00ed 0B       		.uleb128 0xb
 1879 00ee 49       		.uleb128 0x49
 1880 00ef 13       		.uleb128 0x13
 1881 00f0 38       		.uleb128 0x38
 1882 00f1 0B       		.uleb128 0xb
 1883 00f2 00       		.byte	0
 1884 00f3 00       		.byte	0
 1885 00f4 15       		.uleb128 0x15
 1886 00f5 13       		.uleb128 0x13
 1887 00f6 01       		.byte	0x1
 1888 00f7 0B       		.uleb128 0xb
 1889 00f8 0B       		.uleb128 0xb
 1890 00f9 3A       		.uleb128 0x3a
 1891 00fa 0B       		.uleb128 0xb
 1892 00fb 3B       		.uleb128 0x3b
 1893 00fc 05       		.uleb128 0x5
 1894 00fd 01       		.uleb128 0x1
 1895 00fe 13       		.uleb128 0x13
 1896 00ff 00       		.byte	0
 1897 0100 00       		.byte	0
 1898 0101 16       		.uleb128 0x16
 1899 0102 16       		.uleb128 0x16
 1900 0103 00       		.byte	0
 1901 0104 03       		.uleb128 0x3
 1902 0105 0E       		.uleb128 0xe
 1903 0106 3A       		.uleb128 0x3a
 1904 0107 0B       		.uleb128 0xb
 1905 0108 3B       		.uleb128 0x3b
 1906 0109 05       		.uleb128 0x5
 1907 010a 49       		.uleb128 0x49
 1908 010b 13       		.uleb128 0x13
 1909 010c 00       		.byte	0
 1910 010d 00       		.byte	0
 1911 010e 17       		.uleb128 0x17
 1912 010f 13       		.uleb128 0x13
 1913 0110 01       		.byte	0x1
 1914 0111 0B       		.uleb128 0xb
 1915 0112 0B       		.uleb128 0xb
 1916 0113 3A       		.uleb128 0x3a
 1917 0114 0B       		.uleb128 0xb
 1918 0115 3B       		.uleb128 0x3b
 1919 0116 0B       		.uleb128 0xb
 1920 0117 01       		.uleb128 0x1
 1921 0118 13       		.uleb128 0x13
 1922 0119 00       		.byte	0
 1923 011a 00       		.byte	0
 1924 011b 18       		.uleb128 0x18
ARM GAS  /tmp/ccoJPhrw.s 			page 35


 1925 011c 13       		.uleb128 0x13
 1926 011d 01       		.byte	0x1
 1927 011e 0B       		.uleb128 0xb
 1928 011f 05       		.uleb128 0x5
 1929 0120 3A       		.uleb128 0x3a
 1930 0121 0B       		.uleb128 0xb
 1931 0122 3B       		.uleb128 0x3b
 1932 0123 0B       		.uleb128 0xb
 1933 0124 01       		.uleb128 0x1
 1934 0125 13       		.uleb128 0x13
 1935 0126 00       		.byte	0
 1936 0127 00       		.byte	0
 1937 0128 19       		.uleb128 0x19
 1938 0129 17       		.uleb128 0x17
 1939 012a 01       		.byte	0x1
 1940 012b 0B       		.uleb128 0xb
 1941 012c 0B       		.uleb128 0xb
 1942 012d 3A       		.uleb128 0x3a
 1943 012e 0B       		.uleb128 0xb
 1944 012f 3B       		.uleb128 0x3b
 1945 0130 0B       		.uleb128 0xb
 1946 0131 01       		.uleb128 0x1
 1947 0132 13       		.uleb128 0x13
 1948 0133 00       		.byte	0
 1949 0134 00       		.byte	0
 1950 0135 1A       		.uleb128 0x1a
 1951 0136 0D       		.uleb128 0xd
 1952 0137 00       		.byte	0
 1953 0138 03       		.uleb128 0x3
 1954 0139 0E       		.uleb128 0xe
 1955 013a 3A       		.uleb128 0x3a
 1956 013b 0B       		.uleb128 0xb
 1957 013c 3B       		.uleb128 0x3b
 1958 013d 05       		.uleb128 0x5
 1959 013e 49       		.uleb128 0x49
 1960 013f 13       		.uleb128 0x13
 1961 0140 00       		.byte	0
 1962 0141 00       		.byte	0
 1963 0142 1B       		.uleb128 0x1b
 1964 0143 26       		.uleb128 0x26
 1965 0144 00       		.byte	0
 1966 0145 49       		.uleb128 0x49
 1967 0146 13       		.uleb128 0x13
 1968 0147 00       		.byte	0
 1969 0148 00       		.byte	0
 1970 0149 1C       		.uleb128 0x1c
 1971 014a 2E       		.uleb128 0x2e
 1972 014b 01       		.byte	0x1
 1973 014c 03       		.uleb128 0x3
 1974 014d 0E       		.uleb128 0xe
 1975 014e 3A       		.uleb128 0x3a
 1976 014f 0B       		.uleb128 0xb
 1977 0150 3B       		.uleb128 0x3b
 1978 0151 0B       		.uleb128 0xb
 1979 0152 27       		.uleb128 0x27
 1980 0153 19       		.uleb128 0x19
 1981 0154 11       		.uleb128 0x11
ARM GAS  /tmp/ccoJPhrw.s 			page 36


 1982 0155 01       		.uleb128 0x1
 1983 0156 12       		.uleb128 0x12
 1984 0157 06       		.uleb128 0x6
 1985 0158 40       		.uleb128 0x40
 1986 0159 18       		.uleb128 0x18
 1987 015a 9742     		.uleb128 0x2117
 1988 015c 19       		.uleb128 0x19
 1989 015d 01       		.uleb128 0x1
 1990 015e 13       		.uleb128 0x13
 1991 015f 00       		.byte	0
 1992 0160 00       		.byte	0
 1993 0161 1D       		.uleb128 0x1d
 1994 0162 05       		.uleb128 0x5
 1995 0163 00       		.byte	0
 1996 0164 03       		.uleb128 0x3
 1997 0165 0E       		.uleb128 0xe
 1998 0166 3A       		.uleb128 0x3a
 1999 0167 0B       		.uleb128 0xb
 2000 0168 3B       		.uleb128 0x3b
 2001 0169 0B       		.uleb128 0xb
 2002 016a 49       		.uleb128 0x49
 2003 016b 13       		.uleb128 0x13
 2004 016c 02       		.uleb128 0x2
 2005 016d 18       		.uleb128 0x18
 2006 016e 00       		.byte	0
 2007 016f 00       		.byte	0
 2008 0170 1E       		.uleb128 0x1e
 2009 0171 2E       		.uleb128 0x2e
 2010 0172 00       		.byte	0
 2011 0173 03       		.uleb128 0x3
 2012 0174 0E       		.uleb128 0xe
 2013 0175 3A       		.uleb128 0x3a
 2014 0176 0B       		.uleb128 0xb
 2015 0177 3B       		.uleb128 0x3b
 2016 0178 0B       		.uleb128 0xb
 2017 0179 27       		.uleb128 0x27
 2018 017a 19       		.uleb128 0x19
 2019 017b 11       		.uleb128 0x11
 2020 017c 01       		.uleb128 0x1
 2021 017d 12       		.uleb128 0x12
 2022 017e 06       		.uleb128 0x6
 2023 017f 40       		.uleb128 0x40
 2024 0180 18       		.uleb128 0x18
 2025 0181 9742     		.uleb128 0x2117
 2026 0183 19       		.uleb128 0x19
 2027 0184 00       		.byte	0
 2028 0185 00       		.byte	0
 2029 0186 1F       		.uleb128 0x1f
 2030 0187 2E       		.uleb128 0x2e
 2031 0188 00       		.byte	0
 2032 0189 03       		.uleb128 0x3
 2033 018a 0E       		.uleb128 0xe
 2034 018b 3A       		.uleb128 0x3a
 2035 018c 0B       		.uleb128 0xb
 2036 018d 3B       		.uleb128 0x3b
 2037 018e 0B       		.uleb128 0xb
 2038 018f 27       		.uleb128 0x27
ARM GAS  /tmp/ccoJPhrw.s 			page 37


 2039 0190 19       		.uleb128 0x19
 2040 0191 49       		.uleb128 0x49
 2041 0192 13       		.uleb128 0x13
 2042 0193 11       		.uleb128 0x11
 2043 0194 01       		.uleb128 0x1
 2044 0195 12       		.uleb128 0x12
 2045 0196 06       		.uleb128 0x6
 2046 0197 40       		.uleb128 0x40
 2047 0198 18       		.uleb128 0x18
 2048 0199 9742     		.uleb128 0x2117
 2049 019b 19       		.uleb128 0x19
 2050 019c 00       		.byte	0
 2051 019d 00       		.byte	0
 2052 019e 20       		.uleb128 0x20
 2053 019f 2E       		.uleb128 0x2e
 2054 01a0 00       		.byte	0
 2055 01a1 3F       		.uleb128 0x3f
 2056 01a2 19       		.uleb128 0x19
 2057 01a3 03       		.uleb128 0x3
 2058 01a4 0E       		.uleb128 0xe
 2059 01a5 3A       		.uleb128 0x3a
 2060 01a6 0B       		.uleb128 0xb
 2061 01a7 3B       		.uleb128 0x3b
 2062 01a8 0B       		.uleb128 0xb
 2063 01a9 27       		.uleb128 0x27
 2064 01aa 19       		.uleb128 0x19
 2065 01ab 11       		.uleb128 0x11
 2066 01ac 01       		.uleb128 0x1
 2067 01ad 12       		.uleb128 0x12
 2068 01ae 06       		.uleb128 0x6
 2069 01af 40       		.uleb128 0x40
 2070 01b0 18       		.uleb128 0x18
 2071 01b1 9642     		.uleb128 0x2116
 2072 01b3 19       		.uleb128 0x19
 2073 01b4 00       		.byte	0
 2074 01b5 00       		.byte	0
 2075 01b6 21       		.uleb128 0x21
 2076 01b7 2E       		.uleb128 0x2e
 2077 01b8 01       		.byte	0x1
 2078 01b9 3F       		.uleb128 0x3f
 2079 01ba 19       		.uleb128 0x19
 2080 01bb 03       		.uleb128 0x3
 2081 01bc 0E       		.uleb128 0xe
 2082 01bd 3A       		.uleb128 0x3a
 2083 01be 0B       		.uleb128 0xb
 2084 01bf 3B       		.uleb128 0x3b
 2085 01c0 0B       		.uleb128 0xb
 2086 01c1 27       		.uleb128 0x27
 2087 01c2 19       		.uleb128 0x19
 2088 01c3 11       		.uleb128 0x11
 2089 01c4 01       		.uleb128 0x1
 2090 01c5 12       		.uleb128 0x12
 2091 01c6 06       		.uleb128 0x6
 2092 01c7 40       		.uleb128 0x40
 2093 01c8 18       		.uleb128 0x18
 2094 01c9 9642     		.uleb128 0x2116
 2095 01cb 19       		.uleb128 0x19
ARM GAS  /tmp/ccoJPhrw.s 			page 38


 2096 01cc 01       		.uleb128 0x1
 2097 01cd 13       		.uleb128 0x13
 2098 01ce 00       		.byte	0
 2099 01cf 00       		.byte	0
 2100 01d0 22       		.uleb128 0x22
 2101 01d1 34       		.uleb128 0x34
 2102 01d2 00       		.byte	0
 2103 01d3 03       		.uleb128 0x3
 2104 01d4 0E       		.uleb128 0xe
 2105 01d5 49       		.uleb128 0x49
 2106 01d6 13       		.uleb128 0x13
 2107 01d7 34       		.uleb128 0x34
 2108 01d8 19       		.uleb128 0x19
 2109 01d9 02       		.uleb128 0x2
 2110 01da 18       		.uleb128 0x18
 2111 01db 00       		.byte	0
 2112 01dc 00       		.byte	0
 2113 01dd 23       		.uleb128 0x23
 2114 01de 2E       		.uleb128 0x2e
 2115 01df 01       		.byte	0x1
 2116 01e0 3F       		.uleb128 0x3f
 2117 01e1 19       		.uleb128 0x19
 2118 01e2 03       		.uleb128 0x3
 2119 01e3 0E       		.uleb128 0xe
 2120 01e4 3A       		.uleb128 0x3a
 2121 01e5 0B       		.uleb128 0xb
 2122 01e6 3B       		.uleb128 0x3b
 2123 01e7 0B       		.uleb128 0xb
 2124 01e8 27       		.uleb128 0x27
 2125 01e9 19       		.uleb128 0x19
 2126 01ea 49       		.uleb128 0x49
 2127 01eb 13       		.uleb128 0x13
 2128 01ec 11       		.uleb128 0x11
 2129 01ed 01       		.uleb128 0x1
 2130 01ee 12       		.uleb128 0x12
 2131 01ef 06       		.uleb128 0x6
 2132 01f0 40       		.uleb128 0x40
 2133 01f1 18       		.uleb128 0x18
 2134 01f2 9642     		.uleb128 0x2116
 2135 01f4 19       		.uleb128 0x19
 2136 01f5 01       		.uleb128 0x1
 2137 01f6 13       		.uleb128 0x13
 2138 01f7 00       		.byte	0
 2139 01f8 00       		.byte	0
 2140 01f9 24       		.uleb128 0x24
 2141 01fa 34       		.uleb128 0x34
 2142 01fb 00       		.byte	0
 2143 01fc 03       		.uleb128 0x3
 2144 01fd 0E       		.uleb128 0xe
 2145 01fe 3A       		.uleb128 0x3a
 2146 01ff 0B       		.uleb128 0xb
 2147 0200 3B       		.uleb128 0x3b
 2148 0201 05       		.uleb128 0x5
 2149 0202 49       		.uleb128 0x49
 2150 0203 13       		.uleb128 0x13
 2151 0204 3F       		.uleb128 0x3f
 2152 0205 19       		.uleb128 0x19
ARM GAS  /tmp/ccoJPhrw.s 			page 39


 2153 0206 3C       		.uleb128 0x3c
 2154 0207 19       		.uleb128 0x19
 2155 0208 00       		.byte	0
 2156 0209 00       		.byte	0
 2157 020a 25       		.uleb128 0x25
 2158 020b 34       		.uleb128 0x34
 2159 020c 00       		.byte	0
 2160 020d 03       		.uleb128 0x3
 2161 020e 08       		.uleb128 0x8
 2162 020f 3A       		.uleb128 0x3a
 2163 0210 0B       		.uleb128 0xb
 2164 0211 3B       		.uleb128 0x3b
 2165 0212 05       		.uleb128 0x5
 2166 0213 49       		.uleb128 0x49
 2167 0214 13       		.uleb128 0x13
 2168 0215 3F       		.uleb128 0x3f
 2169 0216 19       		.uleb128 0x19
 2170 0217 3C       		.uleb128 0x3c
 2171 0218 19       		.uleb128 0x19
 2172 0219 00       		.byte	0
 2173 021a 00       		.byte	0
 2174 021b 00       		.byte	0
 2175              		.section	.debug_aranges,"",%progbits
 2176 0000 64000000 		.4byte	0x64
 2177 0004 0200     		.2byte	0x2
 2178 0006 00000000 		.4byte	.Ldebug_info0
 2179 000a 04       		.byte	0x4
 2180 000b 00       		.byte	0
 2181 000c 0000     		.2byte	0
 2182 000e 0000     		.2byte	0
 2183 0010 00000000 		.4byte	.LFB137
 2184 0014 20000000 		.4byte	.LFE137-.LFB137
 2185 0018 00000000 		.4byte	.LFB138
 2186 001c 0A000000 		.4byte	.LFE138-.LFB138
 2187 0020 00000000 		.4byte	.LFB139
 2188 0024 10000000 		.4byte	.LFE139-.LFB139
 2189 0028 00000000 		.4byte	.LFB140
 2190 002c 0A000000 		.4byte	.LFE140-.LFB140
 2191 0030 00000000 		.4byte	.LFB141
 2192 0034 18000000 		.4byte	.LFE141-.LFB141
 2193 0038 00000000 		.4byte	.LFB271
 2194 003c 08000000 		.4byte	.LFE271-.LFB271
 2195 0040 00000000 		.4byte	.LFB272
 2196 0044 28000000 		.4byte	.LFE272-.LFB272
 2197 0048 00000000 		.4byte	.LFB273
 2198 004c 08000000 		.4byte	.LFE273-.LFB273
 2199 0050 00000000 		.4byte	.LFB274
 2200 0054 2C000000 		.4byte	.LFE274-.LFB274
 2201 0058 00000000 		.4byte	.LFB275
 2202 005c 28000000 		.4byte	.LFE275-.LFB275
 2203 0060 00000000 		.4byte	0
 2204 0064 00000000 		.4byte	0
 2205              		.section	.debug_ranges,"",%progbits
 2206              	.Ldebug_ranges0:
 2207 0000 00000000 		.4byte	.LFB137
 2208 0004 20000000 		.4byte	.LFE137
 2209 0008 00000000 		.4byte	.LFB138
ARM GAS  /tmp/ccoJPhrw.s 			page 40


 2210 000c 0A000000 		.4byte	.LFE138
 2211 0010 00000000 		.4byte	.LFB139
 2212 0014 10000000 		.4byte	.LFE139
 2213 0018 00000000 		.4byte	.LFB140
 2214 001c 0A000000 		.4byte	.LFE140
 2215 0020 00000000 		.4byte	.LFB141
 2216 0024 18000000 		.4byte	.LFE141
 2217 0028 00000000 		.4byte	.LFB271
 2218 002c 08000000 		.4byte	.LFE271
 2219 0030 00000000 		.4byte	.LFB272
 2220 0034 28000000 		.4byte	.LFE272
 2221 0038 00000000 		.4byte	.LFB273
 2222 003c 08000000 		.4byte	.LFE273
 2223 0040 00000000 		.4byte	.LFB274
 2224 0044 2C000000 		.4byte	.LFE274
 2225 0048 00000000 		.4byte	.LFB275
 2226 004c 28000000 		.4byte	.LFE275
 2227 0050 00000000 		.4byte	0
 2228 0054 00000000 		.4byte	0
 2229              		.section	.debug_line,"",%progbits
 2230              	.Ldebug_line0:
 2231 0000 DB020000 		.section	.debug_str,"MS",%progbits,1
 2231      0200FE01 
 2231      00000201 
 2231      FB0E0D00 
 2231      01010101 
 2232              	.LASF107:
 2233 0000 74625F70 		.ascii	"tb_ptr\000"
 2233      747200
 2234              	.LASF54:
 2235 0007 72656164 		.ascii	"ready_list_t\000"
 2235      795F6C69 
 2235      73745F74 
 2235      00
 2236              	.LASF92:
 2237 0014 44494552 		.ascii	"DIER\000"
 2237      00
 2238              	.LASF125:
 2239 0019 77747472 		.ascii	"wttrp\000"
 2239      7000
 2240              	.LASF122:
 2241 001f 7264796D 		.ascii	"rdymsg\000"
 2241      736700
 2242              	.LASF16:
 2243 0026 75696E74 		.ascii	"uint64_t\000"
 2243      36345F74 
 2243      00
 2244              	.LASF84:
 2245 002f 6B65726E 		.ascii	"kernel_stats\000"
 2245      656C5F73 
 2245      74617473 
 2245      00
 2246              	.LASF5:
 2247 003c 5F5F7569 		.ascii	"__uint8_t\000"
 2247      6E74385F 
 2247      7400
 2248              	.LASF90:
ARM GAS  /tmp/ccoJPhrw.s 			page 41


 2249 0046 706F7274 		.ascii	"port_intctx\000"
 2249      5F696E74 
 2249      63747800 
 2250              	.LASF53:
 2251 0052 63685F74 		.ascii	"ch_threads_queue\000"
 2251      68726561 
 2251      64735F71 
 2251      75657565 
 2251      00
 2252              	.LASF73:
 2253 0063 73797374 		.ascii	"system_debug_t\000"
 2253      656D5F64 
 2253      65627567 
 2253      5F7400
 2254              	.LASF113:
 2255 0072 776F7273 		.ascii	"worst\000"
 2255      7400
 2256              	.LASF116:
 2257 0078 74696D65 		.ascii	"time_measurement_t\000"
 2257      5F6D6561 
 2257      73757265 
 2257      6D656E74 
 2257      5F7400
 2258              	.LASF12:
 2259 008b 6C6F6E67 		.ascii	"long long unsigned int\000"
 2259      206C6F6E 
 2259      6720756E 
 2259      7369676E 
 2259      65642069 
 2260              	.LASF109:
 2261 00a2 63685F74 		.ascii	"ch_trace_buffer_t\000"
 2261      72616365 
 2261      5F627566 
 2261      6665725F 
 2261      7400
 2262              	.LASF104:
 2263 00b4 73655F73 		.ascii	"se_state\000"
 2263      74617465 
 2263      00
 2264              	.LASF123:
 2265 00bd 65786974 		.ascii	"exitcode\000"
 2265      636F6465 
 2265      00
 2266              	.LASF83:
 2267 00c6 6D61696E 		.ascii	"mainthread\000"
 2267      74687265 
 2267      616400
 2268              	.LASF70:
 2269 00d1 76697274 		.ascii	"virtual_timers_list_t\000"
 2269      75616C5F 
 2269      74696D65 
 2269      72735F6C 
 2269      6973745F 
 2270              	.LASF150:
 2271 00e7 49544D5F 		.ascii	"ITM_RxBuffer\000"
 2271      52784275 
 2271      66666572 
ARM GAS  /tmp/ccoJPhrw.s 			page 42


 2271      00
 2272              	.LASF96:
 2273 00f4 42445452 		.ascii	"BDTR\000"
 2273      00
 2274              	.LASF18:
 2275 00f9 72747469 		.ascii	"rttime_t\000"
 2275      6D655F74 
 2275      00
 2276              	.LASF31:
 2277 0102 705F7072 		.ascii	"p_prio\000"
 2277      696F00
 2278              	.LASF93:
 2279 0109 43434D52 		.ascii	"CCMR1\000"
 2279      3100
 2280              	.LASF94:
 2281 010f 43434D52 		.ascii	"CCMR2\000"
 2281      3200
 2282              	.LASF98:
 2283 0115 43434D52 		.ascii	"CCMR3\000"
 2283      3300
 2284              	.LASF1:
 2285 011b 7369676E 		.ascii	"signed char\000"
 2285      65642063 
 2285      68617200 
 2286              	.LASF101:
 2287 0127 73655F74 		.ascii	"se_time\000"
 2287      696D6500 
 2288              	.LASF133:
 2289 012f 6D5F7175 		.ascii	"m_queue\000"
 2289      65756500 
 2290              	.LASF82:
 2291 0137 76746C69 		.ascii	"vtlist\000"
 2291      737400
 2292              	.LASF80:
 2293 013e 63685F73 		.ascii	"ch_system\000"
 2293      79737465 
 2293      6D00
 2294              	.LASF7:
 2295 0148 6C6F6E67 		.ascii	"long int\000"
 2295      20696E74 
 2295      00
 2296              	.LASF19:
 2297 0151 746D6F64 		.ascii	"tmode_t\000"
 2297      655F7400 
 2298              	.LASF20:
 2299 0159 74737461 		.ascii	"tstate_t\000"
 2299      74655F74 
 2299      00
 2300              	.LASF95:
 2301 0162 43434552 		.ascii	"CCER\000"
 2301      00
 2302              	.LASF102:
 2303 0167 73655F74 		.ascii	"se_tp\000"
 2303      7000
 2304              	.LASF10:
 2305 016d 6C6F6E67 		.ascii	"long long int\000"
 2305      206C6F6E 
ARM GAS  /tmp/ccoJPhrw.s 			page 43


 2305      6720696E 
 2305      7400
 2306              	.LASF151:
 2307 017b 474E5520 		.ascii	"GNU C 4.8.4 20141219 (release) -mcpu=cortex-m4 -mno"
 2307      4320342E 
 2307      382E3420 
 2307      32303134 
 2307      31323139 
 2308 01ae 2D746875 		.ascii	"-thumb-interwork -mthumb -ggdb -O0 -fomit-frame-poi"
 2308      6D622D69 
 2308      6E746572 
 2308      776F726B 
 2308      202D6D74 
 2309 01e1 6E746572 		.ascii	"nter -falign-functions=16 -ffunction-sections -fdat"
 2309      202D6661 
 2309      6C69676E 
 2309      2D66756E 
 2309      6374696F 
 2310 0214 612D7365 		.ascii	"a-sections -fno-common\000"
 2310      6374696F 
 2310      6E73202D 
 2310      666E6F2D 
 2310      636F6D6D 
 2311              	.LASF33:
 2312 022b 705F6E65 		.ascii	"p_newer\000"
 2312      77657200 
 2313              	.LASF130:
 2314 0233 735F7175 		.ascii	"s_queue\000"
 2314      65756500 
 2315              	.LASF4:
 2316 023b 73686F72 		.ascii	"short unsigned int\000"
 2316      7420756E 
 2316      7369676E 
 2316      65642069 
 2316      6E7400
 2317              	.LASF143:
 2318 024e 73745F6C 		.ascii	"st_lld_is_alarm_active\000"
 2318      6C645F69 
 2318      735F616C 
 2318      61726D5F 
 2318      61637469 
 2319              	.LASF106:
 2320 0265 74625F73 		.ascii	"tb_size\000"
 2320      697A6500 
 2321              	.LASF59:
 2322 026d 725F6E65 		.ascii	"r_newer\000"
 2322      77657200 
 2323              	.LASF46:
 2324 0275 705F6D70 		.ascii	"p_mpool\000"
 2324      6F6F6C00 
 2325              	.LASF87:
 2326 027d 72656761 		.ascii	"regarm_t\000"
 2326      726D5F74 
 2326      00
 2327              	.LASF66:
 2328 0286 76745F70 		.ascii	"vt_prev\000"
 2328      72657600 
ARM GAS  /tmp/ccoJPhrw.s 			page 44


 2329              	.LASF74:
 2330 028e 63685F73 		.ascii	"ch_system_debug\000"
 2330      79737465 
 2330      6D5F6465 
 2330      62756700 
 2331              	.LASF137:
 2332 029e 6D757465 		.ascii	"mutex_t\000"
 2332      785F7400 
 2333              	.LASF77:
 2334 02a6 6C6F636B 		.ascii	"lock_cnt\000"
 2334      5F636E74 
 2334      00
 2335              	.LASF85:
 2336 02af 69646C65 		.ascii	"idle_thread_wa\000"
 2336      5F746872 
 2336      6561645F 
 2336      776100
 2337              	.LASF25:
 2338 02be 636E745F 		.ascii	"cnt_t\000"
 2338      7400
 2339              	.LASF36:
 2340 02c4 705F7374 		.ascii	"p_stklimit\000"
 2340      6B6C696D 
 2340      697400
 2341              	.LASF0:
 2342 02cf 756E7369 		.ascii	"unsigned int\000"
 2342      676E6564 
 2342      20696E74 
 2342      00
 2343              	.LASF65:
 2344 02dc 76745F6E 		.ascii	"vt_next\000"
 2344      65787400 
 2345              	.LASF126:
 2346 02e4 77747365 		.ascii	"wtsemp\000"
 2346      6D7000
 2347              	.LASF41:
 2348 02eb 705F6D73 		.ascii	"p_msgqueue\000"
 2348      67717565 
 2348      756500
 2349              	.LASF117:
 2350 02f6 6E5F6972 		.ascii	"n_irq\000"
 2350      7100
 2351              	.LASF131:
 2352 02fc 735F636E 		.ascii	"s_cnt\000"
 2352      7400
 2353              	.LASF91:
 2354 0302 534D4352 		.ascii	"SMCR\000"
 2354      00
 2355              	.LASF121:
 2356 0307 6B65726E 		.ascii	"kernel_stats_t\000"
 2356      656C5F73 
 2356      74617473 
 2356      5F7400
 2357              	.LASF50:
 2358 0316 63685F74 		.ascii	"ch_thread\000"
 2358      68726561 
 2358      6400
ARM GAS  /tmp/ccoJPhrw.s 			page 45


 2359              	.LASF23:
 2360 0320 6D73675F 		.ascii	"msg_t\000"
 2360      7400
 2361              	.LASF114:
 2362 0326 6C617374 		.ascii	"last\000"
 2362      00
 2363              	.LASF26:
 2364 032b 75636E74 		.ascii	"ucnt_t\000"
 2364      5F7400
 2365              	.LASF79:
 2366 0332 63685F73 		.ascii	"ch_system_t\000"
 2366      79737465 
 2366      6D5F7400 
 2367              	.LASF100:
 2368 033e 73746D33 		.ascii	"stm32_tim_t\000"
 2368      325F7469 
 2368      6D5F7400 
 2369              	.LASF120:
 2370 034a 6D5F6372 		.ascii	"m_crit_isr\000"
 2370      69745F69 
 2370      737200
 2371              	.LASF55:
 2372 0355 63685F72 		.ascii	"ch_ready_list\000"
 2372      65616479 
 2372      5F6C6973 
 2372      7400
 2373              	.LASF24:
 2374 0363 6576656E 		.ascii	"eventmask_t\000"
 2374      746D6173 
 2374      6B5F7400 
 2375              	.LASF6:
 2376 036f 5F5F696E 		.ascii	"__int32_t\000"
 2376      7433325F 
 2376      7400
 2377              	.LASF139:
 2378 0379 73745F6C 		.ascii	"st_lld_start_alarm\000"
 2378      6C645F73 
 2378      74617274 
 2378      5F616C61 
 2378      726D00
 2379              	.LASF88:
 2380 038c 73746B61 		.ascii	"stkalign_t\000"
 2380      6C69676E 
 2380      5F7400
 2381              	.LASF40:
 2382 0397 705F7761 		.ascii	"p_waiting\000"
 2382      6974696E 
 2382      6700
 2383              	.LASF86:
 2384 03a1 73697A65 		.ascii	"sizetype\000"
 2384      74797065 
 2384      00
 2385              	.LASF48:
 2386 03aa 74687265 		.ascii	"thread_reference_t\000"
 2386      61645F72 
 2386      65666572 
 2386      656E6365 
ARM GAS  /tmp/ccoJPhrw.s 			page 46


 2386      5F7400
 2387              	.LASF71:
 2388 03bd 63685F76 		.ascii	"ch_virtual_timers_list\000"
 2388      69727475 
 2388      616C5F74 
 2388      696D6572 
 2388      735F6C69 
 2389              	.LASF105:
 2390 03d4 63685F73 		.ascii	"ch_swc_event_t\000"
 2390      77635F65 
 2390      76656E74 
 2390      5F7400
 2391              	.LASF72:
 2392 03e3 76745F6C 		.ascii	"vt_lasttime\000"
 2392      61737474 
 2392      696D6500 
 2393              	.LASF34:
 2394 03ef 705F6F6C 		.ascii	"p_older\000"
 2394      64657200 
 2395              	.LASF145:
 2396 03f7 7374496E 		.ascii	"stInit\000"
 2396      697400
 2397              	.LASF58:
 2398 03fe 725F6374 		.ascii	"r_ctx\000"
 2398      7800
 2399              	.LASF111:
 2400 0404 746D5F63 		.ascii	"tm_calibration_t\000"
 2400      616C6962 
 2400      72617469 
 2400      6F6E5F74 
 2400      00
 2401              	.LASF141:
 2402 0415 74696D65 		.ascii	"time\000"
 2402      00
 2403              	.LASF61:
 2404 041a 725F6375 		.ascii	"r_current\000"
 2404      7272656E 
 2404      7400
 2405              	.LASF60:
 2406 0424 725F6F6C 		.ascii	"r_older\000"
 2406      64657200 
 2407              	.LASF11:
 2408 042c 5F5F7569 		.ascii	"__uint64_t\000"
 2408      6E743634 
 2408      5F7400
 2409              	.LASF115:
 2410 0437 63756D75 		.ascii	"cumulative\000"
 2410      6C617469 
 2410      766500
 2411              	.LASF21:
 2412 0442 74726566 		.ascii	"trefs_t\000"
 2412      735F7400 
 2413              	.LASF108:
 2414 044a 74625F62 		.ascii	"tb_buffer\000"
 2414      75666665 
 2414      7200
 2415              	.LASF63:
ARM GAS  /tmp/ccoJPhrw.s 			page 47


 2416 0454 76697274 		.ascii	"virtual_timer_t\000"
 2416      75616C5F 
 2416      74696D65 
 2416      725F7400 
 2417              	.LASF30:
 2418 0464 705F7072 		.ascii	"p_prev\000"
 2418      657600
 2419              	.LASF22:
 2420 046b 74707269 		.ascii	"tprio_t\000"
 2420      6F5F7400 
 2421              	.LASF118:
 2422 0473 6E5F6374 		.ascii	"n_ctxswc\000"
 2422      78737763 
 2422      00
 2423              	.LASF138:
 2424 047c 5F426F6F 		.ascii	"_Bool\000"
 2424      6C00
 2425              	.LASF14:
 2426 0482 696E7433 		.ascii	"int32_t\000"
 2426      325F7400 
 2427              	.LASF2:
 2428 048a 756E7369 		.ascii	"unsigned char\000"
 2428      676E6564 
 2428      20636861 
 2428      7200
 2429              	.LASF44:
 2430 0498 705F6D74 		.ascii	"p_mtxlist\000"
 2430      786C6973 
 2430      7400
 2431              	.LASF3:
 2432 04a2 73686F72 		.ascii	"short int\000"
 2432      7420696E 
 2432      7400
 2433              	.LASF37:
 2434 04ac 705F7374 		.ascii	"p_state\000"
 2434      61746500 
 2435              	.LASF57:
 2436 04b4 725F7072 		.ascii	"r_prio\000"
 2436      696F00
 2437              	.LASF128:
 2438 04bb 65776D61 		.ascii	"ewmask\000"
 2438      736B00
 2439              	.LASF29:
 2440 04c2 705F6E65 		.ascii	"p_next\000"
 2440      787400
 2441              	.LASF13:
 2442 04c9 75696E74 		.ascii	"uint8_t\000"
 2442      385F7400 
 2443              	.LASF149:
 2444 04d1 5F5F6675 		.ascii	"__func__\000"
 2444      6E635F5F 
 2444      00
 2445              	.LASF47:
 2446 04da 705F7374 		.ascii	"p_stats\000"
 2446      61747300 
 2447              	.LASF64:
 2448 04e2 63685F76 		.ascii	"ch_virtual_timer\000"
ARM GAS  /tmp/ccoJPhrw.s 			page 48


 2448      69727475 
 2448      616C5F74 
 2448      696D6572 
 2448      00
 2449              	.LASF142:
 2450 04f3 73745F6C 		.ascii	"st_lld_get_alarm\000"
 2450      6C645F67 
 2450      65745F61 
 2450      6C61726D 
 2450      00
 2451              	.LASF129:
 2452 0504 63685F73 		.ascii	"ch_semaphore\000"
 2452      656D6170 
 2452      686F7265 
 2452      00
 2453              	.LASF99:
 2454 0511 43435852 		.ascii	"CCXR\000"
 2454      00
 2455              	.LASF43:
 2456 0516 705F6570 		.ascii	"p_epending\000"
 2456      656E6469 
 2456      6E6700
 2457              	.LASF15:
 2458 0521 75696E74 		.ascii	"uint32_t\000"
 2458      33325F74 
 2458      00
 2459              	.LASF127:
 2460 052a 77746D74 		.ascii	"wtmtxp\000"
 2460      787000
 2461              	.LASF56:
 2462 0531 725F7175 		.ascii	"r_queue\000"
 2462      65756500 
 2463              	.LASF67:
 2464 0539 76745F64 		.ascii	"vt_delta\000"
 2464      656C7461 
 2464      00
 2465              	.LASF51:
 2466 0542 63685F74 		.ascii	"ch_threads_list\000"
 2466      68726561 
 2466      64735F6C 
 2466      69737400 
 2467              	.LASF9:
 2468 0552 6C6F6E67 		.ascii	"long unsigned int\000"
 2468      20756E73 
 2468      69676E65 
 2468      6420696E 
 2468      7400
 2469              	.LASF146:
 2470 0564 73745374 		.ascii	"stStopAlarm\000"
 2470      6F70416C 
 2470      61726D00 
 2471              	.LASF136:
 2472 0570 63686172 		.ascii	"char\000"
 2472      00
 2473              	.LASF132:
 2474 0575 63685F6D 		.ascii	"ch_mutex\000"
 2474      75746578 
ARM GAS  /tmp/ccoJPhrw.s 			page 49


 2474      00
 2475              	.LASF97:
 2476 057e 444D4152 		.ascii	"DMAR\000"
 2476      00
 2477              	.LASF28:
 2478 0583 74687265 		.ascii	"thread_t\000"
 2478      61645F74 
 2478      00
 2479              	.LASF112:
 2480 058c 62657374 		.ascii	"best\000"
 2480      00
 2481              	.LASF135:
 2482 0591 6D5F6E65 		.ascii	"m_next\000"
 2482      787400
 2483              	.LASF27:
 2484 0598 73797374 		.ascii	"systime_t\000"
 2484      696D655F 
 2484      7400
 2485              	.LASF45:
 2486 05a2 705F7265 		.ascii	"p_realprio\000"
 2486      616C7072 
 2486      696F00
 2487              	.LASF62:
 2488 05ad 76746675 		.ascii	"vtfunc_t\000"
 2488      6E635F74 
 2488      00
 2489              	.LASF8:
 2490 05b6 5F5F7569 		.ascii	"__uint32_t\000"
 2490      6E743332 
 2490      5F7400
 2491              	.LASF75:
 2492 05c1 70616E69 		.ascii	"panic_msg\000"
 2492      635F6D73 
 2492      6700
 2493              	.LASF110:
 2494 05cb 6F666673 		.ascii	"offset\000"
 2494      657400
 2495              	.LASF147:
 2496 05d2 73745374 		.ascii	"stStartAlarm\000"
 2496      61727441 
 2496      6C61726D 
 2496      00
 2497              	.LASF89:
 2498 05df 636F6E74 		.ascii	"context\000"
 2498      65787400 
 2499              	.LASF42:
 2500 05e7 705F6D73 		.ascii	"p_msg\000"
 2500      6700
 2501              	.LASF17:
 2502 05ed 7274636E 		.ascii	"rtcnt_t\000"
 2502      745F7400 
 2503              	.LASF153:
 2504 05f5 73745F6C 		.ascii	"st_lld_stop_alarm\000"
 2504      6C645F73 
 2504      746F705F 
 2504      616C6172 
 2504      6D00
ARM GAS  /tmp/ccoJPhrw.s 			page 50


 2505              	.LASF69:
 2506 0607 76745F70 		.ascii	"vt_par\000"
 2506      617200
 2507              	.LASF52:
 2508 060e 74687265 		.ascii	"threads_queue_t\000"
 2508      6164735F 
 2508      71756575 
 2508      655F7400 
 2509              	.LASF152:
 2510 061e 2F686F6D 		.ascii	"/home/efe/ChibiOS/os/hal/src/st.c\000"
 2510      652F6566 
 2510      652F4368 
 2510      6962694F 
 2510      532F6F73 
 2511              	.LASF39:
 2512 0640 705F7265 		.ascii	"p_refs\000"
 2512      667300
 2513              	.LASF76:
 2514 0647 6973725F 		.ascii	"isr_cnt\000"
 2514      636E7400 
 2515              	.LASF81:
 2516 064f 726C6973 		.ascii	"rlist\000"
 2516      7400
 2517              	.LASF148:
 2518 0655 73745365 		.ascii	"stSetAlarm\000"
 2518      74416C61 
 2518      726D00
 2519              	.LASF154:
 2520 0660 73744765 		.ascii	"stGetAlarm\000"
 2520      74416C61 
 2520      726D00
 2521              	.LASF124:
 2522 066b 77746F62 		.ascii	"wtobjp\000"
 2522      6A7000
 2523              	.LASF35:
 2524 0672 705F6E61 		.ascii	"p_name\000"
 2524      6D6500
 2525              	.LASF49:
 2526 0679 74687265 		.ascii	"threads_list_t\000"
 2526      6164735F 
 2526      6C697374 
 2526      5F7400
 2527              	.LASF144:
 2528 0688 61627374 		.ascii	"abstime\000"
 2528      696D6500 
 2529              	.LASF78:
 2530 0690 74726163 		.ascii	"trace_buffer\000"
 2530      655F6275 
 2530      66666572 
 2530      00
 2531              	.LASF38:
 2532 069d 705F666C 		.ascii	"p_flags\000"
 2532      61677300 
 2533              	.LASF140:
 2534 06a5 73745F6C 		.ascii	"st_lld_set_alarm\000"
 2534      6C645F73 
 2534      65745F61 
ARM GAS  /tmp/ccoJPhrw.s 			page 51


 2534      6C61726D 
 2534      00
 2535              	.LASF119:
 2536 06b6 6D5F6372 		.ascii	"m_crit_thd\000"
 2536      69745F74 
 2536      686400
 2537              	.LASF134:
 2538 06c1 6D5F6F77 		.ascii	"m_owner\000"
 2538      6E657200 
 2539              	.LASF103:
 2540 06c9 73655F77 		.ascii	"se_wtobjp\000"
 2540      746F626A 
 2540      7000
 2541              	.LASF32:
 2542 06d3 705F6374 		.ascii	"p_ctx\000"
 2542      7800
 2543              	.LASF68:
 2544 06d9 76745F66 		.ascii	"vt_func\000"
 2544      756E6300 
 2545              		.ident	"GCC: (4.8.4-1+11-1) 4.8.4 20141219 (release)"
ARM GAS  /tmp/ccoJPhrw.s 			page 52


DEFINED SYMBOLS
                            *ABS*:0000000000000000 st.c
     /tmp/ccoJPhrw.s:19     .text.st_lld_start_alarm:0000000000000000 $t
     /tmp/ccoJPhrw.s:24     .text.st_lld_start_alarm:0000000000000000 st_lld_start_alarm
     /tmp/ccoJPhrw.s:55     .text.st_lld_stop_alarm:0000000000000000 $t
     /tmp/ccoJPhrw.s:60     .text.st_lld_stop_alarm:0000000000000000 st_lld_stop_alarm
     /tmp/ccoJPhrw.s:77     .text.st_lld_set_alarm:0000000000000000 $t
     /tmp/ccoJPhrw.s:82     .text.st_lld_set_alarm:0000000000000000 st_lld_set_alarm
     /tmp/ccoJPhrw.s:104    .text.st_lld_get_alarm:0000000000000000 $t
     /tmp/ccoJPhrw.s:109    .text.st_lld_get_alarm:0000000000000000 st_lld_get_alarm
     /tmp/ccoJPhrw.s:126    .text.st_lld_is_alarm_active:0000000000000000 $t
     /tmp/ccoJPhrw.s:131    .text.st_lld_is_alarm_active:0000000000000000 st_lld_is_alarm_active
     /tmp/ccoJPhrw.s:154    .text.stInit:0000000000000000 $t
     /tmp/ccoJPhrw.s:160    .text.stInit:0000000000000000 stInit
     /tmp/ccoJPhrw.s:179    .text.stStartAlarm:0000000000000000 $t
     /tmp/ccoJPhrw.s:185    .text.stStartAlarm:0000000000000000 stStartAlarm
     /tmp/ccoJPhrw.s:216    .text.stStartAlarm:0000000000000024 $d
     /tmp/ccoJPhrw.s:333    .rodata.__func__.7143:0000000000000000 __func__.7143
     /tmp/ccoJPhrw.s:221    .text.stStopAlarm:0000000000000000 $t
     /tmp/ccoJPhrw.s:227    .text.stStopAlarm:0000000000000000 stStopAlarm
     /tmp/ccoJPhrw.s:245    .text.stSetAlarm:0000000000000000 $t
     /tmp/ccoJPhrw.s:251    .text.stSetAlarm:0000000000000000 stSetAlarm
     /tmp/ccoJPhrw.s:284    .text.stSetAlarm:0000000000000028 $d
     /tmp/ccoJPhrw.s:339    .rodata.__func__.7150:0000000000000000 __func__.7150
     /tmp/ccoJPhrw.s:289    .text.stGetAlarm:0000000000000000 $t
     /tmp/ccoJPhrw.s:295    .text.stGetAlarm:0000000000000000 stGetAlarm
     /tmp/ccoJPhrw.s:325    .text.stGetAlarm:0000000000000024 $d
     /tmp/ccoJPhrw.s:345    .rodata.__func__.7154:0000000000000000 __func__.7154
     /tmp/ccoJPhrw.s:330    .rodata.__func__.7143:0000000000000000 $d
     /tmp/ccoJPhrw.s:336    .rodata.__func__.7150:0000000000000000 $d
     /tmp/ccoJPhrw.s:342    .rodata.__func__.7154:0000000000000000 $d
                     .debug_frame:0000000000000010 $d
     /tmp/ccoJPhrw.s:220    .text.stStartAlarm:0000000000000028 $t
     /tmp/ccoJPhrw.s:288    .text.stSetAlarm:000000000000002c $t
     /tmp/ccoJPhrw.s:329    .text.stGetAlarm:0000000000000028 $t

UNDEFINED SYMBOLS
st_lld_init
chSysHalt
