ARM GAS  /tmp/ccoJPhrw.s 			page 1


   1              		.syntax unified
   2              		.cpu cortex-m4
   3              		.fpu softvfp
   4              		.eabi_attribute 20, 1
   5              		.eabi_attribute 21, 1
   6              		.eabi_attribute 23, 3
   7              		.eabi_attribute 24, 1
   8              		.eabi_attribute 25, 1
   9              		.eabi_attribute 26, 1
  10              		.eabi_attribute 30, 6
  11              		.eabi_attribute 34, 1
  12              		.eabi_attribute 18, 4
  13              		.thumb
  14              		.file	"st.c"
  15              		.text
  16              	.Ltext0:
  17              		.cfi_sections	.debug_frame
  18              		.section	.text.st_lld_start_alarm,"ax",%progbits
  19              		.align	2
  20              		.p2align 4,,15
  21              		.thumb
  22              		.thumb_func
  23              		.type	st_lld_start_alarm, %function
  24              	st_lld_start_alarm:
  25              	.LFB137:
  26              		.file 1 "/home/efe/ChibiOS/os/hal/ports/STM32/LLD/TIMv1/st_lld.h"
  27              		.loc 1 153 0
  28              		.cfi_startproc
  29              		@ args = 0, pretend = 0, frame = 8
  30              		@ frame_needed = 0, uses_anonymous_args = 0
  31              		@ link register save eliminated.
  32 0000 82B0     		sub	sp, sp, #8
  33              		.cfi_def_cfa_offset 8
  34 0002 0190     		str	r0, [sp, #4]
  35              		.loc 1 155 0
  36 0004 4FF08043 		mov	r3, #1073741824
  37 0008 019A     		ldr	r2, [sp, #4]
  38 000a 5A63     		str	r2, [r3, #52]
  39              		.loc 1 156 0
  40 000c 4FF08043 		mov	r3, #1073741824
  41 0010 0022     		movs	r2, #0
  42 0012 1A61     		str	r2, [r3, #16]
  43              		.loc 1 157 0
  44 0014 4FF08043 		mov	r3, #1073741824
  45 0018 0222     		movs	r2, #2
  46 001a DA60     		str	r2, [r3, #12]
  47              		.loc 1 158 0
  48 001c 02B0     		add	sp, sp, #8
  49              		@ sp needed
  50 001e 7047     		bx	lr
  51              		.cfi_endproc
  52              	.LFE137:
  53              		.size	st_lld_start_alarm, .-st_lld_start_alarm
  54              		.section	.text.st_lld_stop_alarm,"ax",%progbits
  55              		.align	2
  56              		.p2align 4,,15
  57              		.thumb
ARM GAS  /tmp/ccoJPhrw.s 			page 2


  58              		.thumb_func
  59              		.type	st_lld_stop_alarm, %function
  60              	st_lld_stop_alarm:
  61              	.LFB138:
  62              		.loc 1 165 0
  63              		.cfi_startproc
  64              		@ args = 0, pretend = 0, frame = 0
  65              		@ frame_needed = 0, uses_anonymous_args = 0
  66              		@ link register save eliminated.
  67              		.loc 1 167 0
  68 0000 4FF08043 		mov	r3, #1073741824
  69 0004 0022     		movs	r2, #0
  70 0006 DA60     		str	r2, [r3, #12]
  71              		.loc 1 168 0
  72 0008 7047     		bx	lr
  73              		.cfi_endproc
  74              	.LFE138:
  75              		.size	st_lld_stop_alarm, .-st_lld_stop_alarm
  76 000a 00BFAFF3 		.section	.text.st_lld_set_alarm,"ax",%progbits
  76      0080
  77              		.align	2
  78              		.p2align 4,,15
  79              		.thumb
  80              		.thumb_func
  81              		.type	st_lld_set_alarm, %function
  82              	st_lld_set_alarm:
  83              	.LFB139:
  84              		.loc 1 177 0
  85              		.cfi_startproc
  86              		@ args = 0, pretend = 0, frame = 8
  87              		@ frame_needed = 0, uses_anonymous_args = 0
  88              		@ link register save eliminated.
  89 0000 82B0     		sub	sp, sp, #8
  90              		.cfi_def_cfa_offset 8
  91 0002 0190     		str	r0, [sp, #4]
  92              		.loc 1 179 0
  93 0004 4FF08043 		mov	r3, #1073741824
  94 0008 019A     		ldr	r2, [sp, #4]
  95 000a 5A63     		str	r2, [r3, #52]
  96              		.loc 1 180 0
  97 000c 02B0     		add	sp, sp, #8
  98              		@ sp needed
  99 000e 7047     		bx	lr
 100              		.cfi_endproc
 101              	.LFE139:
 102              		.size	st_lld_set_alarm, .-st_lld_set_alarm
 103              		.section	.text.st_lld_get_alarm,"ax",%progbits
 104              		.align	2
 105              		.p2align 4,,15
 106              		.thumb
 107              		.thumb_func
 108              		.type	st_lld_get_alarm, %function
 109              	st_lld_get_alarm:
 110              	.LFB140:
 111              		.loc 1 189 0
 112              		.cfi_startproc
 113              		@ args = 0, pretend = 0, frame = 0
ARM GAS  /tmp/ccoJPhrw.s 			page 3


 114              		@ frame_needed = 0, uses_anonymous_args = 0
 115              		@ link register save eliminated.
 116              		.loc 1 191 0
 117 0000 4FF08043 		mov	r3, #1073741824
 118 0004 5B6B     		ldr	r3, [r3, #52]
 119              		.loc 1 192 0
 120 0006 1846     		mov	r0, r3
 121 0008 7047     		bx	lr
 122              		.cfi_endproc
 123              	.LFE140:
 124              		.size	st_lld_get_alarm, .-st_lld_get_alarm
 125 000a 00BFAFF3 		.section	.text.st_lld_is_alarm_active,"ax",%progbits
 125      0080
 126              		.align	2
 127              		.p2align 4,,15
 128              		.thumb
 129              		.thumb_func
 130              		.type	st_lld_is_alarm_active, %function
 131              	st_lld_is_alarm_active:
 132              	.LFB141:
 133              		.loc 1 203 0
 134              		.cfi_startproc
 135              		@ args = 0, pretend = 0, frame = 0
 136              		@ frame_needed = 0, uses_anonymous_args = 0
 137              		@ link register save eliminated.
 138              		.loc 1 205 0
 139 0000 4FF08043 		mov	r3, #1073741824
 140 0004 DB68     		ldr	r3, [r3, #12]
 141 0006 03F00203 		and	r3, r3, #2
 142 000a 002B     		cmp	r3, #0
 143 000c 0CBF     		ite	eq
 144 000e 0023     		moveq	r3, #0
 145 0010 0123     		movne	r3, #1
 146 0012 DBB2     		uxtb	r3, r3
 147              		.loc 1 206 0
 148 0014 1846     		mov	r0, r3
 149 0016 7047     		bx	lr
 150              		.cfi_endproc
 151              	.LFE141:
 152              		.size	st_lld_is_alarm_active, .-st_lld_is_alarm_active
 153 0018 AFF30080 		.section	.text.stInit,"ax",%progbits
 153      AFF30080 
 154              		.align	2
 155              		.p2align 4,,15
 156              		.global	stInit
 157              		.thumb
 158              		.thumb_func
 159              		.type	stInit, %function
 160              	stInit:
 161              	.LFB271:
 162              		.file 2 "/home/efe/ChibiOS/os/hal/src/st.c"
 163              		.loc 2 60 0
 164              		.cfi_startproc
 165              		@ args = 0, pretend = 0, frame = 0
 166              		@ frame_needed = 0, uses_anonymous_args = 0
 167 0000 08B5     		push	{r3, lr}
 168              		.cfi_def_cfa_offset 8
ARM GAS  /tmp/ccoJPhrw.s 			page 4


 169              		.cfi_offset 3, -8
 170              		.cfi_offset 14, -4
 171              		.loc 2 62 0
 172 0002 FFF7FEFF 		bl	st_lld_init
 173              		.loc 2 63 0
 174 0006 08BD     		pop	{r3, pc}
 175              		.cfi_endproc
 176              	.LFE271:
 177              		.size	stInit, .-stInit
 178 0008 AFF30080 		.section	.text.stStartAlarm,"ax",%progbits
 178      AFF30080 
 179              		.align	2
 180              		.p2align 4,,15
 181              		.global	stStartAlarm
 182              		.thumb
 183              		.thumb_func
 184              		.type	stStartAlarm, %function
 185              	stStartAlarm:
 186              	.LFB272:
 187              		.loc 2 77 0
 188              		.cfi_startproc
 189              		@ args = 0, pretend = 0, frame = 8
 190              		@ frame_needed = 0, uses_anonymous_args = 0
 191 0000 00B5     		push	{lr}
 192              		.cfi_def_cfa_offset 4
 193              		.cfi_offset 14, -4
 194 0002 83B0     		sub	sp, sp, #12
 195              		.cfi_def_cfa_offset 16
 196 0004 0190     		str	r0, [sp, #4]
 197              		.loc 2 79 0
 198 0006 FFF7FEFF 		bl	st_lld_is_alarm_active
 199 000a 0346     		mov	r3, r0
 200 000c 002B     		cmp	r3, #0
 201 000e 02D0     		beq	.L10
 202              		.loc 2 79 0 is_stmt 0 discriminator 1
 203 0010 0448     		ldr	r0, .L11
 204 0012 FFF7FEFF 		bl	chSysHalt
 205              	.L10:
 206              		.loc 2 81 0 is_stmt 1
 207 0016 0198     		ldr	r0, [sp, #4]
 208 0018 FFF7FEFF 		bl	st_lld_start_alarm
 209              		.loc 2 82 0
 210 001c 03B0     		add	sp, sp, #12
 211              		@ sp needed
 212 001e 5DF804FB 		ldr	pc, [sp], #4
 213              	.L12:
 214 0022 00BF     		.align	2
 215              	.L11:
 216 0024 00000000 		.word	__func__.7143
 217              		.cfi_endproc
 218              	.LFE272:
 219              		.size	stStartAlarm, .-stStartAlarm
 220 0028 AFF30080 		.section	.text.stStopAlarm,"ax",%progbits
 220      AFF30080 
 221              		.align	2
 222              		.p2align 4,,15
 223              		.global	stStopAlarm
ARM GAS  /tmp/ccoJPhrw.s 			page 5


 224              		.thumb
 225              		.thumb_func
 226              		.type	stStopAlarm, %function
 227              	stStopAlarm:
 228              	.LFB273:
 229              		.loc 2 91 0
 230              		.cfi_startproc
 231              		@ args = 0, pretend = 0, frame = 0
 232              		@ frame_needed = 0, uses_anonymous_args = 0
 233 0000 08B5     		push	{r3, lr}
 234              		.cfi_def_cfa_offset 8
 235              		.cfi_offset 3, -8
 236              		.cfi_offset 14, -4
 237              		.loc 2 93 0
 238 0002 FFF7FEFF 		bl	st_lld_stop_alarm
 239              		.loc 2 94 0
 240 0006 08BD     		pop	{r3, pc}
 241              		.cfi_endproc
 242              	.LFE273:
 243              		.size	stStopAlarm, .-stStopAlarm
 244 0008 AFF30080 		.section	.text.stSetAlarm,"ax",%progbits
 244      AFF30080 
 245              		.align	2
 246              		.p2align 4,,15
 247              		.global	stSetAlarm
 248              		.thumb
 249              		.thumb_func
 250              		.type	stSetAlarm, %function
 251              	stSetAlarm:
 252              	.LFB274:
 253              		.loc 2 105 0
 254              		.cfi_startproc
 255              		@ args = 0, pretend = 0, frame = 8
 256              		@ frame_needed = 0, uses_anonymous_args = 0
 257 0000 00B5     		push	{lr}
 258              		.cfi_def_cfa_offset 4
 259              		.cfi_offset 14, -4
 260 0002 83B0     		sub	sp, sp, #12
 261              		.cfi_def_cfa_offset 16
 262 0004 0190     		str	r0, [sp, #4]
 263              		.loc 2 107 0
 264 0006 FFF7FEFF 		bl	st_lld_is_alarm_active
 265 000a 0346     		mov	r3, r0
 266 000c 83F00103 		eor	r3, r3, #1
 267 0010 DBB2     		uxtb	r3, r3
 268 0012 002B     		cmp	r3, #0
 269 0014 02D0     		beq	.L15
 270              		.loc 2 107 0 is_stmt 0 discriminator 1
 271 0016 0448     		ldr	r0, .L16
 272 0018 FFF7FEFF 		bl	chSysHalt
 273              	.L15:
 274              		.loc 2 109 0 is_stmt 1
 275 001c 0198     		ldr	r0, [sp, #4]
 276 001e FFF7FEFF 		bl	st_lld_set_alarm
 277              		.loc 2 110 0
 278 0022 03B0     		add	sp, sp, #12
 279              		@ sp needed
ARM GAS  /tmp/ccoJPhrw.s 			page 6


 280 0024 5DF804FB 		ldr	pc, [sp], #4
 281              	.L17:
 282              		.align	2
 283              	.L16:
 284 0028 00000000 		.word	__func__.7150
 285              		.cfi_endproc
 286              	.LFE274:
 287              		.size	stSetAlarm, .-stSetAlarm
 288 002c AFF30080 		.section	.text.stGetAlarm,"ax",%progbits
 289              		.align	2
 290              		.p2align 4,,15
 291              		.global	stGetAlarm
 292              		.thumb
 293              		.thumb_func
 294              		.type	stGetAlarm, %function
 295              	stGetAlarm:
 296              	.LFB275:
 297              		.loc 2 121 0
 298              		.cfi_startproc
 299              		@ args = 0, pretend = 0, frame = 0
 300              		@ frame_needed = 0, uses_anonymous_args = 0
 301 0000 08B5     		push	{r3, lr}
 302              		.cfi_def_cfa_offset 8
 303              		.cfi_offset 3, -8
 304              		.cfi_offset 14, -4
 305              		.loc 2 123 0
 306 0002 FFF7FEFF 		bl	st_lld_is_alarm_active
 307 0006 0346     		mov	r3, r0
 308 0008 83F00103 		eor	r3, r3, #1
 309 000c DBB2     		uxtb	r3, r3
 310 000e 002B     		cmp	r3, #0
 311 0010 02D0     		beq	.L19
 312              		.loc 2 123 0 is_stmt 0 discriminator 1
 313 0012 0448     		ldr	r0, .L21
 314 0014 FFF7FEFF 		bl	chSysHalt
 315              	.L19:
 316              		.loc 2 125 0 is_stmt 1
 317 0018 FFF7FEFF 		bl	st_lld_get_alarm
 318 001c 0346     		mov	r3, r0
 319              		.loc 2 126 0
 320 001e 1846     		mov	r0, r3
 321 0020 08BD     		pop	{r3, pc}
 322              	.L22:
 323 0022 00BF     		.align	2
 324              	.L21:
 325 0024 00000000 		.word	__func__.7154
 326              		.cfi_endproc
 327              	.LFE275:
 328              		.size	stGetAlarm, .-stGetAlarm
 329 0028 AFF30080 		.section	.rodata.__func__.7143,"a",%progbits
 329      AFF30080 
 330              		.align	2
 331              		.type	__func__.7143, %object
 332              		.size	__func__.7143, 13
 333              	__func__.7143:
 334 0000 73745374 		.ascii	"stStartAlarm\000"
 334      61727441 
ARM GAS  /tmp/ccoJPhrw.s 			page 7


 334      6C61726D 
 334      00
 335 000d 000000   		.section	.rodata.__func__.7150,"a",%progbits
 336              		.align	2
 337              		.type	__func__.7150, %object
 338              		.size	__func__.7150, 11
 339              	__func__.7150:
 340 0000 73745365 		.ascii	"stSetAlarm\000"
 340      74416C61 
 340      726D00
 341 000b 00       		.section	.rodata.__func__.7154,"a",%progbits
 342              		.align	2
 343              		.type	__func__.7154, %object
 344              		.size	__func__.7154, 11
 345              	__func__.7154:
 346 0000 73744765 		.ascii	"stGetAlarm\000"
 346      74416C61 
 346      726D00
 347 000b 00       		.text
 348              	.Letext0:
 349              		.file 3 "/usr/include/newlib/machine/_default_types.h"
 350              		.file 4 "/usr/include/newlib/stdint.h"
 351              		.file 5 "/home/efe/ChibiOS/os/rt/ports/ARMCMx/compilers/GCC/chtypes.h"
 352              		.file 6 "/home/efe/ChibiOS/os/rt/include/chsystypes.h"
 353              		.file 7 "/home/efe/ChibiOS/os/rt/include/chschd.h"
 354              		.file 8 "/home/efe/ChibiOS/os/rt/ports/ARMCMx/chcore.h"
 355              		.file 9 "/home/efe/ChibiOS/os/rt/ports/ARMCMx/chcore_v7m.h"
 356              		.file 10 "/home/efe/ChibiOS/os/hal/ports/STM32/LLD/TIMv1/stm32_tim.h"
 357              		.file 11 "/home/efe/ChibiOS/os/rt/include/chdebug.h"
 358              		.file 12 "/home/efe/ChibiOS/os/rt/include/chtm.h"
 359              		.file 13 "/home/efe/ChibiOS/os/rt/include/chstats.h"
 360              		.file 14 "/home/efe/ChibiOS/os/rt/include/chsem.h"
 361              		.file 15 "/home/efe/ChibiOS/os/rt/include/chmtx.h"
 362              		.file 16 "/home/efe/ChibiOS/os/ext/CMSIS/include/core_cm4.h"