ARM GAS  /tmp/ccZrWEni.s 			page 1


   1              		.syntax unified
   2              		.cpu cortex-m4
   3              		.fpu softvfp
   4              		.eabi_attribute 20, 1
   5              		.eabi_attribute 21, 1
   6              		.eabi_attribute 23, 3
   7              		.eabi_attribute 24, 1
   8              		.eabi_attribute 25, 1
   9              		.eabi_attribute 26, 1
  10              		.eabi_attribute 30, 6
  11              		.eabi_attribute 34, 1
  12              		.eabi_attribute 18, 4
  13              		.thumb
  14              		.file	"testmbox.c"
  15              		.text
  16              	.Ltext0:
  17              		.cfi_sections	.debug_frame
  18              		.section	.text.port_lock,"ax",%progbits
  19              		.align	2
  20              		.p2align 4,,15
  21              		.thumb
  22              		.thumb_func
  23              		.type	port_lock, %function
  24              	port_lock:
  25              	.LFB127:
  26              		.file 1 "/home/efe/ChibiOS/os/rt/ports/ARMCMx/chcore_v7m.h"
  27              		.loc 1 456 0
  28              		.cfi_startproc
  29              		@ args = 0, pretend = 0, frame = 8
  30              		@ frame_needed = 0, uses_anonymous_args = 0
  31              		@ link register save eliminated.
  32 0000 82B0     		sub	sp, sp, #8
  33              		.cfi_def_cfa_offset 8
  34 0002 2023     		movs	r3, #32
  35 0004 0193     		str	r3, [sp, #4]
  36              	.LBB6:
  37              	.LBB7:
  38              		.file 2 "/home/efe/ChibiOS/os/ext/CMSIS/include/core_cmFunc.h"
  39              		.loc 2 548 0
  40 0006 019B     		ldr	r3, [sp, #4]
  41              	@ 548 "/home/efe/ChibiOS/os/ext/CMSIS/include/core_cmFunc.h" 1
  42 0008 83F31188 		MSR basepri, r3
  43              	@ 0 "" 2
  44              		.thumb
  45              	.LBE7:
  46              	.LBE6:
  47              		.loc 1 463 0
  48 000c 02B0     		add	sp, sp, #8
  49              		@ sp needed
  50 000e 7047     		bx	lr
  51              		.cfi_endproc
  52              	.LFE127:
  53              		.size	port_lock, .-port_lock
  54              		.section	.text.port_unlock,"ax",%progbits
  55              		.align	2
  56              		.p2align 4,,15
  57              		.thumb
ARM GAS  /tmp/ccZrWEni.s 			page 2


  58              		.thumb_func
  59              		.type	port_unlock, %function
  60              	port_unlock:
  61              	.LFB128:
  62              		.loc 1 470 0
  63              		.cfi_startproc
  64              		@ args = 0, pretend = 0, frame = 8
  65              		@ frame_needed = 0, uses_anonymous_args = 0
  66              		@ link register save eliminated.
  67 0000 82B0     		sub	sp, sp, #8
  68              		.cfi_def_cfa_offset 8
  69 0002 0023     		movs	r3, #0
  70 0004 0193     		str	r3, [sp, #4]
  71              	.LBB8:
  72              	.LBB9:
  73              		.loc 2 548 0
  74 0006 019B     		ldr	r3, [sp, #4]
  75              	@ 548 "/home/efe/ChibiOS/os/ext/CMSIS/include/core_cmFunc.h" 1
  76 0008 83F31188 		MSR basepri, r3
  77              	@ 0 "" 2
  78              		.thumb
  79              	.LBE9:
  80              	.LBE8:
  81              		.loc 1 477 0
  82 000c 02B0     		add	sp, sp, #8
  83              		@ sp needed
  84 000e 7047     		bx	lr
  85              		.cfi_endproc
  86              	.LFE128:
  87              		.size	port_unlock, .-port_unlock
  88              		.section	.text.chSysLock,"ax",%progbits
  89              		.align	2
  90              		.p2align 4,,15
  91              		.thumb
  92              		.thumb_func
  93              		.type	chSysLock, %function
  94              	chSysLock:
  95              	.LFB167:
  96              		.file 3 "/home/efe/ChibiOS/os/rt/include/chsys.h"
  97              		.loc 3 346 0
  98              		.cfi_startproc
  99              		@ args = 0, pretend = 0, frame = 0
 100              		@ frame_needed = 0, uses_anonymous_args = 0
 101 0000 08B5     		push	{r3, lr}
 102              		.cfi_def_cfa_offset 8
 103              		.cfi_offset 3, -8
 104              		.cfi_offset 14, -4
 105              		.loc 3 348 0
 106 0002 FFF7FEFF 		bl	port_lock
 107              		.loc 3 349 0
 108 0006 FFF7FEFF 		bl	_stats_start_measure_crit_thd
 109              		.loc 3 350 0
 110 000a FFF7FEFF 		bl	_dbg_check_lock
 111              		.loc 3 351 0
 112 000e 08BD     		pop	{r3, pc}
 113              		.cfi_endproc
 114              	.LFE167:
ARM GAS  /tmp/ccZrWEni.s 			page 3


 115              		.size	chSysLock, .-chSysLock
 116              		.section	.text.chSysUnlock,"ax",%progbits
 117              		.align	2
 118              		.p2align 4,,15
 119              		.thumb
 120              		.thumb_func
 121              		.type	chSysUnlock, %function
 122              	chSysUnlock:
 123              	.LFB168:
 124              		.loc 3 358 0
 125              		.cfi_startproc
 126              		@ args = 0, pretend = 0, frame = 0
 127              		@ frame_needed = 0, uses_anonymous_args = 0
 128 0000 08B5     		push	{r3, lr}
 129              		.cfi_def_cfa_offset 8
 130              		.cfi_offset 3, -8
 131              		.cfi_offset 14, -4
 132              		.loc 3 360 0
 133 0002 FFF7FEFF 		bl	_dbg_check_unlock
 134              		.loc 3 361 0
 135 0006 FFF7FEFF 		bl	_stats_stop_measure_crit_thd
 136              		.loc 3 367 0
 137 000a 094B     		ldr	r3, .L6
 138 000c 1A68     		ldr	r2, [r3]
 139 000e 084B     		ldr	r3, .L6
 140 0010 9A42     		cmp	r2, r3
 141 0012 0AD0     		beq	.L5
 142              		.loc 3 367 0 is_stmt 0 discriminator 1
 143 0014 064B     		ldr	r3, .L6
 144 0016 9B69     		ldr	r3, [r3, #24]
 145 0018 9A68     		ldr	r2, [r3, #8]
 146 001a 054B     		ldr	r3, .L6
 147 001c 1B68     		ldr	r3, [r3]
 148 001e 9B68     		ldr	r3, [r3, #8]
 149 0020 9A42     		cmp	r2, r3
 150 0022 02D2     		bcs	.L5
 151 0024 0348     		ldr	r0, .L6+4
 152 0026 FFF7FEFF 		bl	chSysHalt
 153              	.L5:
 154              		.loc 3 371 0 is_stmt 1
 155 002a FFF7FEFF 		bl	port_unlock
 156              		.loc 3 372 0
 157 002e 08BD     		pop	{r3, pc}
 158              	.L7:
 159              		.align	2
 160              	.L6:
 161 0030 00000000 		.word	ch
 162 0034 00000000 		.word	__func__.5925
 163              		.cfi_endproc
 164              	.LFE168:
 165              		.size	chSysUnlock, .-chSysUnlock
 166 0038 AFF30080 		.section	.text.chSemGetCounterI,"ax",%progbits
 166      AFF30080 
 167              		.align	2
 168              		.p2align 4,,15
 169              		.thumb
 170              		.thumb_func
ARM GAS  /tmp/ccZrWEni.s 			page 4


 171              		.type	chSemGetCounterI, %function
 172              	chSemGetCounterI:
 173              	.LFB202:
 174              		.file 4 "/home/efe/ChibiOS/os/rt/include/chsem.h"
 175              		.loc 4 149 0
 176              		.cfi_startproc
 177              		@ args = 0, pretend = 0, frame = 8
 178              		@ frame_needed = 0, uses_anonymous_args = 0
 179 0000 00B5     		push	{lr}
 180              		.cfi_def_cfa_offset 4
 181              		.cfi_offset 14, -4
 182 0002 83B0     		sub	sp, sp, #12
 183              		.cfi_def_cfa_offset 16
 184 0004 0190     		str	r0, [sp, #4]
 185              		.loc 4 151 0
 186 0006 FFF7FEFF 		bl	chDbgCheckClassI
 187              		.loc 4 153 0
 188 000a 019B     		ldr	r3, [sp, #4]
 189 000c 9B68     		ldr	r3, [r3, #8]
 190              		.loc 4 154 0
 191 000e 1846     		mov	r0, r3
 192 0010 03B0     		add	sp, sp, #12
 193              		@ sp needed
 194 0012 5DF804FB 		ldr	pc, [sp], #4
 195              		.cfi_endproc
 196              	.LFE202:
 197              		.size	chSemGetCounterI, .-chSemGetCounterI
 198 0016 00BFAFF3 		.section	.text.chMBGetFreeCountI,"ax",%progbits
 198      0080AFF3 
 198      0080
 199              		.align	2
 200              		.p2align 4,,15
 201              		.thumb
 202              		.thumb_func
 203              		.type	chMBGetFreeCountI, %function
 204              	chMBGetFreeCountI:
 205              	.LFB225:
 206              		.file 5 "/home/efe/ChibiOS/os/rt/include/chmboxes.h"
 207              		.loc 5 158 0
 208              		.cfi_startproc
 209              		@ args = 0, pretend = 0, frame = 8
 210              		@ frame_needed = 0, uses_anonymous_args = 0
 211 0000 00B5     		push	{lr}
 212              		.cfi_def_cfa_offset 4
 213              		.cfi_offset 14, -4
 214 0002 83B0     		sub	sp, sp, #12
 215              		.cfi_def_cfa_offset 16
 216 0004 0190     		str	r0, [sp, #4]
 217              		.loc 5 160 0
 218 0006 FFF7FEFF 		bl	chDbgCheckClassI
 219              		.loc 5 162 0
 220 000a 019B     		ldr	r3, [sp, #4]
 221 000c 1C33     		adds	r3, r3, #28
 222 000e 1846     		mov	r0, r3
 223 0010 FFF7FEFF 		bl	chSemGetCounterI
 224 0014 0346     		mov	r3, r0
 225              		.loc 5 163 0
ARM GAS  /tmp/ccZrWEni.s 			page 5


 226 0016 1846     		mov	r0, r3
 227 0018 03B0     		add	sp, sp, #12
 228              		@ sp needed
 229 001a 5DF804FB 		ldr	pc, [sp], #4
 230              		.cfi_endproc
 231              	.LFE225:
 232              		.size	chMBGetFreeCountI, .-chMBGetFreeCountI
 233 001e 00BF     		.section	.text.chMBGetUsedCountI,"ax",%progbits
 234              		.align	2
 235              		.p2align 4,,15
 236              		.thumb
 237              		.thumb_func
 238              		.type	chMBGetUsedCountI, %function
 239              	chMBGetUsedCountI:
 240              	.LFB226:
 241              		.loc 5 177 0
 242              		.cfi_startproc
 243              		@ args = 0, pretend = 0, frame = 8
 244              		@ frame_needed = 0, uses_anonymous_args = 0
 245 0000 00B5     		push	{lr}
 246              		.cfi_def_cfa_offset 4
 247              		.cfi_offset 14, -4
 248 0002 83B0     		sub	sp, sp, #12
 249              		.cfi_def_cfa_offset 16
 250 0004 0190     		str	r0, [sp, #4]
 251              		.loc 5 179 0
 252 0006 FFF7FEFF 		bl	chDbgCheckClassI
 253              		.loc 5 181 0
 254 000a 019B     		ldr	r3, [sp, #4]
 255 000c 1033     		adds	r3, r3, #16
 256 000e 1846     		mov	r0, r3
 257 0010 FFF7FEFF 		bl	chSemGetCounterI
 258 0014 0346     		mov	r3, r0
 259              		.loc 5 182 0
 260 0016 1846     		mov	r0, r3
 261 0018 03B0     		add	sp, sp, #12
 262              		@ sp needed
 263 001a 5DF804FB 		ldr	pc, [sp], #4
 264              		.cfi_endproc
 265              	.LFE226:
 266              		.size	chMBGetUsedCountI, .-chMBGetUsedCountI
 267 001e 00BF     		.section	.data.mb1,"aw",%progbits
 268              		.align	2
 269              		.type	mb1, %object
 270              		.size	mb1, 40
 271              	mb1:
 272 0000 00000000 		.word	test
 273 0004 14000000 		.word	test+20
 274 0008 00000000 		.word	test
 275 000c 00000000 		.word	test
 276 0010 10000000 		.word	mb1+16
 277 0014 10000000 		.word	mb1+16
 278 0018 00000000 		.word	0
 279 001c 1C000000 		.word	mb1+28
 280 0020 1C000000 		.word	mb1+28
 281 0024 05000000 		.word	5
 282              		.section	.text.mbox1_setup,"ax",%progbits
ARM GAS  /tmp/ccZrWEni.s 			page 6


 283              		.align	2
 284              		.p2align 4,,15
 285              		.thumb
 286              		.thumb_func
 287              		.type	mbox1_setup, %function
 288              	mbox1_setup:
 289              	.LFB240:
 290              		.file 6 "/home/efe/ChibiOS/test/rt/testmbox.c"
 291              		.loc 6 71 0
 292              		.cfi_startproc
 293              		@ args = 0, pretend = 0, frame = 0
 294              		@ frame_needed = 0, uses_anonymous_args = 0
 295 0000 08B5     		push	{r3, lr}
 296              		.cfi_def_cfa_offset 8
 297              		.cfi_offset 3, -8
 298              		.cfi_offset 14, -4
 299              		.loc 6 73 0
 300 0002 0348     		ldr	r0, .L15
 301 0004 0349     		ldr	r1, .L15+4
 302 0006 0522     		movs	r2, #5
 303 0008 FFF7FEFF 		bl	chMBObjectInit
 304              		.loc 6 74 0
 305 000c 08BD     		pop	{r3, pc}
 306              	.L16:
 307 000e 00BF     		.align	2
 308              	.L15:
 309 0010 00000000 		.word	mb1
 310 0014 00000000 		.word	test
 311              		.cfi_endproc
 312              	.LFE240:
 313              		.size	mbox1_setup, .-mbox1_setup
 314 0018 AFF30080 		.section	.rodata
 314      AFF30080 
 315              		.align	2
 316              	.LC0:
 317 0000 41424344 		.ascii	"ABCDE\000"
 317      4500
 318              		.section	.text.mbox1_execute,"ax",%progbits
 319              		.align	2
 320              		.p2align 4,,15
 321              		.thumb
 322              		.thumb_func
 323              		.type	mbox1_execute, %function
 324              	mbox1_execute:
 325              	.LFB241:
 326              		.loc 6 76 0
 327              		.cfi_startproc
 328              		@ args = 0, pretend = 0, frame = 16
 329              		@ frame_needed = 0, uses_anonymous_args = 0
 330 0000 00B5     		push	{lr}
 331              		.cfi_def_cfa_offset 4
 332              		.cfi_offset 14, -4
 333 0002 85B0     		sub	sp, sp, #20
 334              		.cfi_def_cfa_offset 24
 335              		.loc 6 83 0
 336 0004 FFF7FEFF 		bl	chSysLock
 337 0008 A948     		ldr	r0, .L75
ARM GAS  /tmp/ccZrWEni.s 			page 7


 338 000a FFF7FEFF 		bl	chMBGetFreeCountI
 339 000e 0346     		mov	r3, r0
 340 0010 052B     		cmp	r3, #5
 341 0012 14BF     		ite	ne
 342 0014 0023     		movne	r3, #0
 343 0016 0123     		moveq	r3, #1
 344 0018 DBB2     		uxtb	r3, r3
 345 001a 0120     		movs	r0, #1
 346 001c 1946     		mov	r1, r3
 347 001e FFF7FEFF 		bl	_test_assert
 348 0022 0346     		mov	r3, r0
 349 0024 002B     		cmp	r3, #0
 350 0026 02D0     		beq	.L18
 351              		.loc 6 83 0 is_stmt 0 discriminator 1
 352 0028 FFF7FEFF 		bl	chSysUnlock
 353 002c EFE3     		b	.L17
 354              	.L18:
 355              		.loc 6 83 0 discriminator 2
 356 002e FFF7FEFF 		bl	chSysUnlock
 357              		.loc 6 88 0 is_stmt 1 discriminator 2
 358 0032 0023     		movs	r3, #0
 359 0034 0393     		str	r3, [sp, #12]
 360 0036 19E0     		b	.L20
 361              	.L22:
 362              		.loc 6 89 0
 363 0038 039B     		ldr	r3, [sp, #12]
 364 003a 4233     		adds	r3, r3, #66
 365 003c 9C48     		ldr	r0, .L75
 366 003e 1946     		mov	r1, r3
 367 0040 4FF0FF32 		mov	r2, #-1
 368 0044 FFF7FEFF 		bl	chMBPost
 369 0048 0290     		str	r0, [sp, #8]
 370              		.loc 6 90 0
 371 004a 029B     		ldr	r3, [sp, #8]
 372 004c 002B     		cmp	r3, #0
 373 004e 14BF     		ite	ne
 374 0050 0023     		movne	r3, #0
 375 0052 0123     		moveq	r3, #1
 376 0054 DBB2     		uxtb	r3, r3
 377 0056 0220     		movs	r0, #2
 378 0058 1946     		mov	r1, r3
 379 005a FFF7FEFF 		bl	_test_assert
 380 005e 0346     		mov	r3, r0
 381 0060 002B     		cmp	r3, #0
 382 0062 00D0     		beq	.L21
 383              		.loc 6 90 0 is_stmt 0 discriminator 1
 384 0064 D3E3     		b	.L17
 385              	.L21:
 386              		.loc 6 88 0 is_stmt 1
 387 0066 039B     		ldr	r3, [sp, #12]
 388 0068 0133     		adds	r3, r3, #1
 389 006a 0393     		str	r3, [sp, #12]
 390              	.L20:
 391              		.loc 6 88 0 is_stmt 0 discriminator 1
 392 006c 039B     		ldr	r3, [sp, #12]
 393 006e 032B     		cmp	r3, #3
 394 0070 E2D9     		bls	.L22
ARM GAS  /tmp/ccZrWEni.s 			page 8


 395              		.loc 6 92 0 is_stmt 1
 396 0072 8F48     		ldr	r0, .L75
 397 0074 4121     		movs	r1, #65
 398 0076 4FF0FF32 		mov	r2, #-1
 399 007a FFF7FEFF 		bl	chMBPostAhead
 400 007e 0290     		str	r0, [sp, #8]
 401              		.loc 6 93 0
 402 0080 029B     		ldr	r3, [sp, #8]
 403 0082 002B     		cmp	r3, #0
 404 0084 14BF     		ite	ne
 405 0086 0023     		movne	r3, #0
 406 0088 0123     		moveq	r3, #1
 407 008a DBB2     		uxtb	r3, r3
 408 008c 0320     		movs	r0, #3
 409 008e 1946     		mov	r1, r3
 410 0090 FFF7FEFF 		bl	_test_assert
 411 0094 0346     		mov	r3, r0
 412 0096 002B     		cmp	r3, #0
 413 0098 00D0     		beq	.L23
 414              		.loc 6 93 0 is_stmt 0 discriminator 1
 415 009a B8E3     		b	.L17
 416              	.L23:
 417              		.loc 6 98 0 is_stmt 1
 418 009c 8448     		ldr	r0, .L75
 419 009e 5821     		movs	r1, #88
 420 00a0 0122     		movs	r2, #1
 421 00a2 FFF7FEFF 		bl	chMBPost
 422 00a6 0290     		str	r0, [sp, #8]
 423              		.loc 6 99 0
 424 00a8 029B     		ldr	r3, [sp, #8]
 425 00aa B3F1FF3F 		cmp	r3, #-1
 426 00ae 14BF     		ite	ne
 427 00b0 0023     		movne	r3, #0
 428 00b2 0123     		moveq	r3, #1
 429 00b4 DBB2     		uxtb	r3, r3
 430 00b6 0420     		movs	r0, #4
 431 00b8 1946     		mov	r1, r3
 432 00ba FFF7FEFF 		bl	_test_assert
 433 00be 0346     		mov	r3, r0
 434 00c0 002B     		cmp	r3, #0
 435 00c2 00D0     		beq	.L24
 436              		.loc 6 99 0 is_stmt 0 discriminator 1
 437 00c4 A3E3     		b	.L17
 438              	.L24:
 439              		.loc 6 100 0 is_stmt 1
 440 00c6 FFF7FEFF 		bl	chSysLock
 441              		.loc 6 101 0
 442 00ca 7948     		ldr	r0, .L75
 443 00cc 5821     		movs	r1, #88
 444 00ce FFF7FEFF 		bl	chMBPostI
 445 00d2 0290     		str	r0, [sp, #8]
 446              		.loc 6 102 0
 447 00d4 FFF7FEFF 		bl	chSysUnlock
 448              		.loc 6 103 0
 449 00d8 029B     		ldr	r3, [sp, #8]
 450 00da B3F1FF3F 		cmp	r3, #-1
 451 00de 14BF     		ite	ne
ARM GAS  /tmp/ccZrWEni.s 			page 9


 452 00e0 0023     		movne	r3, #0
 453 00e2 0123     		moveq	r3, #1
 454 00e4 DBB2     		uxtb	r3, r3
 455 00e6 0520     		movs	r0, #5
 456 00e8 1946     		mov	r1, r3
 457 00ea FFF7FEFF 		bl	_test_assert
 458 00ee 0346     		mov	r3, r0
 459 00f0 002B     		cmp	r3, #0
 460 00f2 00D0     		beq	.L25
 461              		.loc 6 103 0 is_stmt 0 discriminator 1
 462 00f4 8BE3     		b	.L17
 463              	.L25:
 464              		.loc 6 104 0 is_stmt 1
 465 00f6 6E48     		ldr	r0, .L75
 466 00f8 5821     		movs	r1, #88
 467 00fa 0122     		movs	r2, #1
 468 00fc FFF7FEFF 		bl	chMBPostAhead
 469 0100 0290     		str	r0, [sp, #8]
 470              		.loc 6 105 0
 471 0102 029B     		ldr	r3, [sp, #8]
 472 0104 B3F1FF3F 		cmp	r3, #-1
 473 0108 14BF     		ite	ne
 474 010a 0023     		movne	r3, #0
 475 010c 0123     		moveq	r3, #1
 476 010e DBB2     		uxtb	r3, r3
 477 0110 0620     		movs	r0, #6
 478 0112 1946     		mov	r1, r3
 479 0114 FFF7FEFF 		bl	_test_assert
 480 0118 0346     		mov	r3, r0
 481 011a 002B     		cmp	r3, #0
 482 011c 00D0     		beq	.L26
 483              		.loc 6 105 0 is_stmt 0 discriminator 1
 484 011e 76E3     		b	.L17
 485              	.L26:
 486              		.loc 6 106 0 is_stmt 1
 487 0120 FFF7FEFF 		bl	chSysLock
 488              		.loc 6 107 0
 489 0124 6248     		ldr	r0, .L75
 490 0126 5821     		movs	r1, #88
 491 0128 FFF7FEFF 		bl	chMBPostAheadI
 492 012c 0290     		str	r0, [sp, #8]
 493              		.loc 6 108 0
 494 012e FFF7FEFF 		bl	chSysUnlock
 495              		.loc 6 109 0
 496 0132 029B     		ldr	r3, [sp, #8]
 497 0134 B3F1FF3F 		cmp	r3, #-1
 498 0138 14BF     		ite	ne
 499 013a 0023     		movne	r3, #0
 500 013c 0123     		moveq	r3, #1
 501 013e DBB2     		uxtb	r3, r3
 502 0140 0720     		movs	r0, #7
 503 0142 1946     		mov	r1, r3
 504 0144 FFF7FEFF 		bl	_test_assert
 505 0148 0346     		mov	r3, r0
 506 014a 002B     		cmp	r3, #0
 507 014c 00D0     		beq	.L27
 508              		.loc 6 109 0 is_stmt 0 discriminator 1
ARM GAS  /tmp/ccZrWEni.s 			page 10


 509 014e 5EE3     		b	.L17
 510              	.L27:
 511              		.loc 6 114 0 is_stmt 1
 512 0150 FFF7FEFF 		bl	chSysLock
 513 0154 5648     		ldr	r0, .L75
 514 0156 FFF7FEFF 		bl	chMBGetFreeCountI
 515 015a 0346     		mov	r3, r0
 516 015c 002B     		cmp	r3, #0
 517 015e 14BF     		ite	ne
 518 0160 0023     		movne	r3, #0
 519 0162 0123     		moveq	r3, #1
 520 0164 DBB2     		uxtb	r3, r3
 521 0166 0820     		movs	r0, #8
 522 0168 1946     		mov	r1, r3
 523 016a FFF7FEFF 		bl	_test_assert
 524 016e 0346     		mov	r3, r0
 525 0170 002B     		cmp	r3, #0
 526 0172 02D0     		beq	.L28
 527              		.loc 6 114 0 is_stmt 0 discriminator 1
 528 0174 FFF7FEFF 		bl	chSysUnlock
 529 0178 49E3     		b	.L17
 530              	.L28:
 531              		.loc 6 114 0 discriminator 2
 532 017a FFF7FEFF 		bl	chSysUnlock
 533              		.loc 6 115 0 is_stmt 1 discriminator 2
 534 017e FFF7FEFF 		bl	chSysLock
 535 0182 4B48     		ldr	r0, .L75
 536 0184 FFF7FEFF 		bl	chMBGetUsedCountI
 537 0188 0346     		mov	r3, r0
 538 018a 052B     		cmp	r3, #5
 539 018c 14BF     		ite	ne
 540 018e 0023     		movne	r3, #0
 541 0190 0123     		moveq	r3, #1
 542 0192 DBB2     		uxtb	r3, r3
 543 0194 0920     		movs	r0, #9
 544 0196 1946     		mov	r1, r3
 545 0198 FFF7FEFF 		bl	_test_assert
 546 019c 0346     		mov	r3, r0
 547 019e 002B     		cmp	r3, #0
 548 01a0 02D0     		beq	.L29
 549              		.loc 6 115 0 is_stmt 0 discriminator 1
 550 01a2 FFF7FEFF 		bl	chSysUnlock
 551 01a6 32E3     		b	.L17
 552              	.L29:
 553              		.loc 6 115 0 discriminator 2
 554 01a8 FFF7FEFF 		bl	chSysUnlock
 555              		.loc 6 116 0 is_stmt 1 discriminator 2
 556 01ac FFF7FEFF 		bl	chSysLock
 557 01b0 3F4B     		ldr	r3, .L75
 558 01b2 DA68     		ldr	r2, [r3, #12]
 559 01b4 3E4B     		ldr	r3, .L75
 560 01b6 9B68     		ldr	r3, [r3, #8]
 561 01b8 9A42     		cmp	r2, r3
 562 01ba 14BF     		ite	ne
 563 01bc 0023     		movne	r3, #0
 564 01be 0123     		moveq	r3, #1
 565 01c0 DBB2     		uxtb	r3, r3
ARM GAS  /tmp/ccZrWEni.s 			page 11


 566 01c2 0A20     		movs	r0, #10
 567 01c4 1946     		mov	r1, r3
 568 01c6 FFF7FEFF 		bl	_test_assert
 569 01ca 0346     		mov	r3, r0
 570 01cc 002B     		cmp	r3, #0
 571 01ce 02D0     		beq	.L30
 572              		.loc 6 116 0 is_stmt 0 discriminator 1
 573 01d0 FFF7FEFF 		bl	chSysUnlock
 574 01d4 1BE3     		b	.L17
 575              	.L30:
 576              		.loc 6 116 0 discriminator 2
 577 01d6 FFF7FEFF 		bl	chSysUnlock
 578              		.loc 6 121 0 is_stmt 1 discriminator 2
 579 01da 0023     		movs	r3, #0
 580 01dc 0393     		str	r3, [sp, #12]
 581 01de 1DE0     		b	.L31
 582              	.L33:
 583              		.loc 6 122 0
 584 01e0 01AB     		add	r3, sp, #4
 585 01e2 3348     		ldr	r0, .L75
 586 01e4 1946     		mov	r1, r3
 587 01e6 4FF0FF32 		mov	r2, #-1
 588 01ea FFF7FEFF 		bl	chMBFetch
 589 01ee 0290     		str	r0, [sp, #8]
 590              		.loc 6 123 0
 591 01f0 029B     		ldr	r3, [sp, #8]
 592 01f2 002B     		cmp	r3, #0
 593 01f4 14BF     		ite	ne
 594 01f6 0023     		movne	r3, #0
 595 01f8 0123     		moveq	r3, #1
 596 01fa DBB2     		uxtb	r3, r3
 597 01fc 0B20     		movs	r0, #11
 598 01fe 1946     		mov	r1, r3
 599 0200 FFF7FEFF 		bl	_test_assert
 600 0204 0346     		mov	r3, r0
 601 0206 002B     		cmp	r3, #0
 602 0208 00D0     		beq	.L32
 603              		.loc 6 123 0 is_stmt 0 discriminator 1
 604 020a 00E3     		b	.L17
 605              	.L32:
 606              		.loc 6 124 0 is_stmt 1
 607 020c 019B     		ldr	r3, [sp, #4]
 608 020e DBB2     		uxtb	r3, r3
 609 0210 1846     		mov	r0, r3
 610 0212 FFF7FEFF 		bl	test_emit_token
 611              		.loc 6 121 0
 612 0216 039B     		ldr	r3, [sp, #12]
 613 0218 0133     		adds	r3, r3, #1
 614 021a 0393     		str	r3, [sp, #12]
 615              	.L31:
 616              		.loc 6 121 0 is_stmt 0 discriminator 1
 617 021c 039B     		ldr	r3, [sp, #12]
 618 021e 042B     		cmp	r3, #4
 619 0220 DED9     		bls	.L33
 620              		.loc 6 126 0 is_stmt 1
 621 0222 0C20     		movs	r0, #12
 622 0224 2349     		ldr	r1, .L75+4
ARM GAS  /tmp/ccZrWEni.s 			page 12


 623 0226 FFF7FEFF 		bl	_test_assert_sequence
 624 022a 0346     		mov	r3, r0
 625 022c 002B     		cmp	r3, #0
 626 022e 00D0     		beq	.L34
 627              		.loc 6 126 0 is_stmt 0 discriminator 1
 628 0230 EDE2     		b	.L17
 629              	.L34:
 630              		.loc 6 131 0 is_stmt 1
 631 0232 039B     		ldr	r3, [sp, #12]
 632 0234 4233     		adds	r3, r3, #66
 633 0236 1E48     		ldr	r0, .L75
 634 0238 1946     		mov	r1, r3
 635 023a 4FF0FF32 		mov	r2, #-1
 636 023e FFF7FEFF 		bl	chMBPost
 637 0242 0290     		str	r0, [sp, #8]
 638              		.loc 6 132 0
 639 0244 029B     		ldr	r3, [sp, #8]
 640 0246 002B     		cmp	r3, #0
 641 0248 14BF     		ite	ne
 642 024a 0023     		movne	r3, #0
 643 024c 0123     		moveq	r3, #1
 644 024e DBB2     		uxtb	r3, r3
 645 0250 0D20     		movs	r0, #13
 646 0252 1946     		mov	r1, r3
 647 0254 FFF7FEFF 		bl	_test_assert
 648 0258 0346     		mov	r3, r0
 649 025a 002B     		cmp	r3, #0
 650 025c 00D0     		beq	.L35
 651              		.loc 6 132 0 is_stmt 0 discriminator 1
 652 025e D6E2     		b	.L17
 653              	.L35:
 654              		.loc 6 133 0 is_stmt 1
 655 0260 01AB     		add	r3, sp, #4
 656 0262 1348     		ldr	r0, .L75
 657 0264 1946     		mov	r1, r3
 658 0266 4FF0FF32 		mov	r2, #-1
 659 026a FFF7FEFF 		bl	chMBFetch
 660 026e 0290     		str	r0, [sp, #8]
 661              		.loc 6 134 0
 662 0270 029B     		ldr	r3, [sp, #8]
 663 0272 002B     		cmp	r3, #0
 664 0274 14BF     		ite	ne
 665 0276 0023     		movne	r3, #0
 666 0278 0123     		moveq	r3, #1
 667 027a DBB2     		uxtb	r3, r3
 668 027c 0E20     		movs	r0, #14
 669 027e 1946     		mov	r1, r3
 670 0280 FFF7FEFF 		bl	_test_assert
 671 0284 0346     		mov	r3, r0
 672 0286 002B     		cmp	r3, #0
 673 0288 00D0     		beq	.L36
 674              		.loc 6 134 0 is_stmt 0 discriminator 1
 675 028a C0E2     		b	.L17
 676              	.L36:
 677              		.loc 6 135 0 is_stmt 1
 678 028c 084B     		ldr	r3, .L75
 679 028e 1A68     		ldr	r2, [r3]
ARM GAS  /tmp/ccZrWEni.s 			page 13


 680 0290 074B     		ldr	r3, .L75
 681 0292 9B68     		ldr	r3, [r3, #8]
 682 0294 9A42     		cmp	r2, r3
 683 0296 14BF     		ite	ne
 684 0298 0023     		movne	r3, #0
 685 029a 0123     		moveq	r3, #1
 686 029c DBB2     		uxtb	r3, r3
 687 029e 0F20     		movs	r0, #15
 688 02a0 1946     		mov	r1, r3
 689 02a2 FFF7FEFF 		bl	_test_assert
 690 02a6 0346     		mov	r3, r0
 691 02a8 002B     		cmp	r3, #0
 692 02aa 05D0     		beq	.L37
 693              		.loc 6 135 0 is_stmt 0 discriminator 1
 694 02ac AFE2     		b	.L17
 695              	.L76:
 696 02ae 00BF     		.align	2
 697              	.L75:
 698 02b0 00000000 		.word	mb1
 699 02b4 00000000 		.word	.LC0
 700              	.L37:
 701              		.loc 6 136 0 is_stmt 1
 702 02b8 A94B     		ldr	r3, .L77
 703 02ba 1A68     		ldr	r2, [r3]
 704 02bc A84B     		ldr	r3, .L77
 705 02be DB68     		ldr	r3, [r3, #12]
 706 02c0 9A42     		cmp	r2, r3
 707 02c2 14BF     		ite	ne
 708 02c4 0023     		movne	r3, #0
 709 02c6 0123     		moveq	r3, #1
 710 02c8 DBB2     		uxtb	r3, r3
 711 02ca 1020     		movs	r0, #16
 712 02cc 1946     		mov	r1, r3
 713 02ce FFF7FEFF 		bl	_test_assert
 714 02d2 0346     		mov	r3, r0
 715 02d4 002B     		cmp	r3, #0
 716 02d6 00D0     		beq	.L38
 717              		.loc 6 136 0 is_stmt 0 discriminator 1
 718 02d8 99E2     		b	.L17
 719              	.L38:
 720              		.loc 6 141 0 is_stmt 1
 721 02da 01AB     		add	r3, sp, #4
 722 02dc A048     		ldr	r0, .L77
 723 02de 1946     		mov	r1, r3
 724 02e0 0122     		movs	r2, #1
 725 02e2 FFF7FEFF 		bl	chMBFetch
 726 02e6 0290     		str	r0, [sp, #8]
 727              		.loc 6 142 0
 728 02e8 029B     		ldr	r3, [sp, #8]
 729 02ea B3F1FF3F 		cmp	r3, #-1
 730 02ee 14BF     		ite	ne
 731 02f0 0023     		movne	r3, #0
 732 02f2 0123     		moveq	r3, #1
 733 02f4 DBB2     		uxtb	r3, r3
 734 02f6 1120     		movs	r0, #17
 735 02f8 1946     		mov	r1, r3
 736 02fa FFF7FEFF 		bl	_test_assert
ARM GAS  /tmp/ccZrWEni.s 			page 14


 737 02fe 0346     		mov	r3, r0
 738 0300 002B     		cmp	r3, #0
 739 0302 00D0     		beq	.L39
 740              		.loc 6 142 0 is_stmt 0 discriminator 1
 741 0304 83E2     		b	.L17
 742              	.L39:
 743              		.loc 6 143 0 is_stmt 1
 744 0306 FFF7FEFF 		bl	chSysLock
 745              		.loc 6 144 0
 746 030a 01AB     		add	r3, sp, #4
 747 030c 9448     		ldr	r0, .L77
 748 030e 1946     		mov	r1, r3
 749 0310 FFF7FEFF 		bl	chMBFetchI
 750 0314 0290     		str	r0, [sp, #8]
 751              		.loc 6 145 0
 752 0316 FFF7FEFF 		bl	chSysUnlock
 753              		.loc 6 146 0
 754 031a 029B     		ldr	r3, [sp, #8]
 755 031c B3F1FF3F 		cmp	r3, #-1
 756 0320 14BF     		ite	ne
 757 0322 0023     		movne	r3, #0
 758 0324 0123     		moveq	r3, #1
 759 0326 DBB2     		uxtb	r3, r3
 760 0328 1220     		movs	r0, #18
 761 032a 1946     		mov	r1, r3
 762 032c FFF7FEFF 		bl	_test_assert
 763 0330 0346     		mov	r3, r0
 764 0332 002B     		cmp	r3, #0
 765 0334 00D0     		beq	.L40
 766              		.loc 6 146 0 is_stmt 0 discriminator 1
 767 0336 6AE2     		b	.L17
 768              	.L40:
 769              		.loc 6 151 0 is_stmt 1
 770 0338 FFF7FEFF 		bl	chSysLock
 771 033c 8848     		ldr	r0, .L77
 772 033e FFF7FEFF 		bl	chMBGetFreeCountI
 773 0342 0346     		mov	r3, r0
 774 0344 052B     		cmp	r3, #5
 775 0346 14BF     		ite	ne
 776 0348 0023     		movne	r3, #0
 777 034a 0123     		moveq	r3, #1
 778 034c DBB2     		uxtb	r3, r3
 779 034e 1320     		movs	r0, #19
 780 0350 1946     		mov	r1, r3
 781 0352 FFF7FEFF 		bl	_test_assert
 782 0356 0346     		mov	r3, r0
 783 0358 002B     		cmp	r3, #0
 784 035a 02D0     		beq	.L41
 785              		.loc 6 151 0 is_stmt 0 discriminator 1
 786 035c FFF7FEFF 		bl	chSysUnlock
 787 0360 55E2     		b	.L17
 788              	.L41:
 789              		.loc 6 151 0 discriminator 2
 790 0362 FFF7FEFF 		bl	chSysUnlock
 791              		.loc 6 152 0 is_stmt 1 discriminator 2
 792 0366 FFF7FEFF 		bl	chSysLock
 793 036a 7D48     		ldr	r0, .L77
ARM GAS  /tmp/ccZrWEni.s 			page 15


 794 036c FFF7FEFF 		bl	chMBGetUsedCountI
 795 0370 0346     		mov	r3, r0
 796 0372 002B     		cmp	r3, #0
 797 0374 14BF     		ite	ne
 798 0376 0023     		movne	r3, #0
 799 0378 0123     		moveq	r3, #1
 800 037a DBB2     		uxtb	r3, r3
 801 037c 1420     		movs	r0, #20
 802 037e 1946     		mov	r1, r3
 803 0380 FFF7FEFF 		bl	_test_assert
 804 0384 0346     		mov	r3, r0
 805 0386 002B     		cmp	r3, #0
 806 0388 02D0     		beq	.L42
 807              		.loc 6 152 0 is_stmt 0 discriminator 1
 808 038a FFF7FEFF 		bl	chSysUnlock
 809 038e 3EE2     		b	.L17
 810              	.L42:
 811              		.loc 6 152 0 discriminator 2
 812 0390 FFF7FEFF 		bl	chSysUnlock
 813              		.loc 6 153 0 is_stmt 1 discriminator 2
 814 0394 FFF7FEFF 		bl	chSysLock
 815 0398 714B     		ldr	r3, .L77
 816 039a DA68     		ldr	r2, [r3, #12]
 817 039c 704B     		ldr	r3, .L77
 818 039e 9B68     		ldr	r3, [r3, #8]
 819 03a0 9A42     		cmp	r2, r3
 820 03a2 14BF     		ite	ne
 821 03a4 0023     		movne	r3, #0
 822 03a6 0123     		moveq	r3, #1
 823 03a8 DBB2     		uxtb	r3, r3
 824 03aa 1520     		movs	r0, #21
 825 03ac 1946     		mov	r1, r3
 826 03ae FFF7FEFF 		bl	_test_assert
 827 03b2 0346     		mov	r3, r0
 828 03b4 002B     		cmp	r3, #0
 829 03b6 02D0     		beq	.L43
 830              		.loc 6 153 0 is_stmt 0 discriminator 1
 831 03b8 FFF7FEFF 		bl	chSysUnlock
 832 03bc 27E2     		b	.L17
 833              	.L43:
 834              		.loc 6 153 0 discriminator 2
 835 03be FFF7FEFF 		bl	chSysUnlock
 836              		.loc 6 158 0 is_stmt 1 discriminator 2
 837 03c2 FFF7FEFF 		bl	chSysLock
 838              		.loc 6 159 0 discriminator 2
 839 03c6 6648     		ldr	r0, .L77
 840 03c8 4121     		movs	r1, #65
 841 03ca FFF7FEFF 		bl	chMBPostI
 842 03ce 0290     		str	r0, [sp, #8]
 843              		.loc 6 160 0 discriminator 2
 844 03d0 029B     		ldr	r3, [sp, #8]
 845 03d2 002B     		cmp	r3, #0
 846 03d4 14BF     		ite	ne
 847 03d6 0023     		movne	r3, #0
 848 03d8 0123     		moveq	r3, #1
 849 03da DBB2     		uxtb	r3, r3
 850 03dc 1620     		movs	r0, #22
ARM GAS  /tmp/ccZrWEni.s 			page 16


 851 03de 1946     		mov	r1, r3
 852 03e0 FFF7FEFF 		bl	_test_assert
 853 03e4 0346     		mov	r3, r0
 854 03e6 002B     		cmp	r3, #0
 855 03e8 00D0     		beq	.L44
 856              		.loc 6 160 0 is_stmt 0 discriminator 1
 857 03ea 10E2     		b	.L17
 858              	.L44:
 859              		.loc 6 161 0 is_stmt 1
 860 03ec 5C48     		ldr	r0, .L77
 861 03ee 4221     		movs	r1, #66
 862 03f0 FFF7FEFF 		bl	chMBPostI
 863 03f4 0290     		str	r0, [sp, #8]
 864              		.loc 6 162 0
 865 03f6 029B     		ldr	r3, [sp, #8]
 866 03f8 002B     		cmp	r3, #0
 867 03fa 14BF     		ite	ne
 868 03fc 0023     		movne	r3, #0
 869 03fe 0123     		moveq	r3, #1
 870 0400 DBB2     		uxtb	r3, r3
 871 0402 1720     		movs	r0, #23
 872 0404 1946     		mov	r1, r3
 873 0406 FFF7FEFF 		bl	_test_assert
 874 040a 0346     		mov	r3, r0
 875 040c 002B     		cmp	r3, #0
 876 040e 00D0     		beq	.L45
 877              		.loc 6 162 0 is_stmt 0 discriminator 1
 878 0410 FDE1     		b	.L17
 879              	.L45:
 880              		.loc 6 163 0 is_stmt 1
 881 0412 5348     		ldr	r0, .L77
 882 0414 4321     		movs	r1, #67
 883 0416 FFF7FEFF 		bl	chMBPostI
 884 041a 0290     		str	r0, [sp, #8]
 885              		.loc 6 164 0
 886 041c 029B     		ldr	r3, [sp, #8]
 887 041e 002B     		cmp	r3, #0
 888 0420 14BF     		ite	ne
 889 0422 0023     		movne	r3, #0
 890 0424 0123     		moveq	r3, #1
 891 0426 DBB2     		uxtb	r3, r3
 892 0428 1820     		movs	r0, #24
 893 042a 1946     		mov	r1, r3
 894 042c FFF7FEFF 		bl	_test_assert
 895 0430 0346     		mov	r3, r0
 896 0432 002B     		cmp	r3, #0
 897 0434 00D0     		beq	.L46
 898              		.loc 6 164 0 is_stmt 0 discriminator 1
 899 0436 EAE1     		b	.L17
 900              	.L46:
 901              		.loc 6 165 0 is_stmt 1
 902 0438 4948     		ldr	r0, .L77
 903 043a 4421     		movs	r1, #68
 904 043c FFF7FEFF 		bl	chMBPostI
 905 0440 0290     		str	r0, [sp, #8]
 906              		.loc 6 166 0
 907 0442 029B     		ldr	r3, [sp, #8]
ARM GAS  /tmp/ccZrWEni.s 			page 17


 908 0444 002B     		cmp	r3, #0
 909 0446 14BF     		ite	ne
 910 0448 0023     		movne	r3, #0
 911 044a 0123     		moveq	r3, #1
 912 044c DBB2     		uxtb	r3, r3
 913 044e 1920     		movs	r0, #25
 914 0450 1946     		mov	r1, r3
 915 0452 FFF7FEFF 		bl	_test_assert
 916 0456 0346     		mov	r3, r0
 917 0458 002B     		cmp	r3, #0
 918 045a 00D0     		beq	.L47
 919              		.loc 6 166 0 is_stmt 0 discriminator 1
 920 045c D7E1     		b	.L17
 921              	.L47:
 922              		.loc 6 167 0 is_stmt 1
 923 045e 4048     		ldr	r0, .L77
 924 0460 4521     		movs	r1, #69
 925 0462 FFF7FEFF 		bl	chMBPostI
 926 0466 0290     		str	r0, [sp, #8]
 927              		.loc 6 168 0
 928 0468 FFF7FEFF 		bl	chSysUnlock
 929              		.loc 6 169 0
 930 046c 029B     		ldr	r3, [sp, #8]
 931 046e 002B     		cmp	r3, #0
 932 0470 14BF     		ite	ne
 933 0472 0023     		movne	r3, #0
 934 0474 0123     		moveq	r3, #1
 935 0476 DBB2     		uxtb	r3, r3
 936 0478 1A20     		movs	r0, #26
 937 047a 1946     		mov	r1, r3
 938 047c FFF7FEFF 		bl	_test_assert
 939 0480 0346     		mov	r3, r0
 940 0482 002B     		cmp	r3, #0
 941 0484 00D0     		beq	.L48
 942              		.loc 6 169 0 is_stmt 0 discriminator 1
 943 0486 C2E1     		b	.L17
 944              	.L48:
 945              		.loc 6 170 0 is_stmt 1
 946 0488 354B     		ldr	r3, .L77
 947 048a DA68     		ldr	r2, [r3, #12]
 948 048c 344B     		ldr	r3, .L77
 949 048e 9B68     		ldr	r3, [r3, #8]
 950 0490 9A42     		cmp	r2, r3
 951 0492 14BF     		ite	ne
 952 0494 0023     		movne	r3, #0
 953 0496 0123     		moveq	r3, #1
 954 0498 DBB2     		uxtb	r3, r3
 955 049a 1B20     		movs	r0, #27
 956 049c 1946     		mov	r1, r3
 957 049e FFF7FEFF 		bl	_test_assert
 958 04a2 0346     		mov	r3, r0
 959 04a4 002B     		cmp	r3, #0
 960 04a6 00D0     		beq	.L49
 961              		.loc 6 170 0 is_stmt 0 discriminator 1
 962 04a8 B1E1     		b	.L17
 963              	.L49:
 964              		.loc 6 171 0 is_stmt 1
ARM GAS  /tmp/ccZrWEni.s 			page 18


 965 04aa 0023     		movs	r3, #0
 966 04ac 0393     		str	r3, [sp, #12]
 967 04ae 1FE0     		b	.L50
 968              	.L52:
 969              		.loc 6 172 0
 970 04b0 FFF7FEFF 		bl	chSysLock
 971              		.loc 6 173 0
 972 04b4 01AB     		add	r3, sp, #4
 973 04b6 2A48     		ldr	r0, .L77
 974 04b8 1946     		mov	r1, r3
 975 04ba FFF7FEFF 		bl	chMBFetchI
 976 04be 0290     		str	r0, [sp, #8]
 977              		.loc 6 174 0
 978 04c0 FFF7FEFF 		bl	chSysUnlock
 979              		.loc 6 175 0
 980 04c4 029B     		ldr	r3, [sp, #8]
 981 04c6 002B     		cmp	r3, #0
 982 04c8 14BF     		ite	ne
 983 04ca 0023     		movne	r3, #0
 984 04cc 0123     		moveq	r3, #1
 985 04ce DBB2     		uxtb	r3, r3
 986 04d0 1C20     		movs	r0, #28
 987 04d2 1946     		mov	r1, r3
 988 04d4 FFF7FEFF 		bl	_test_assert
 989 04d8 0346     		mov	r3, r0
 990 04da 002B     		cmp	r3, #0
 991 04dc 00D0     		beq	.L51
 992              		.loc 6 175 0 is_stmt 0 discriminator 1
 993 04de 96E1     		b	.L17
 994              	.L51:
 995              		.loc 6 176 0 is_stmt 1
 996 04e0 019B     		ldr	r3, [sp, #4]
 997 04e2 DBB2     		uxtb	r3, r3
 998 04e4 1846     		mov	r0, r3
 999 04e6 FFF7FEFF 		bl	test_emit_token
 1000              		.loc 6 171 0
 1001 04ea 039B     		ldr	r3, [sp, #12]
 1002 04ec 0133     		adds	r3, r3, #1
 1003 04ee 0393     		str	r3, [sp, #12]
 1004              	.L50:
 1005              		.loc 6 171 0 is_stmt 0 discriminator 1
 1006 04f0 039B     		ldr	r3, [sp, #12]
 1007 04f2 042B     		cmp	r3, #4
 1008 04f4 DCD9     		bls	.L52
 1009              		.loc 6 178 0 is_stmt 1
 1010 04f6 1D20     		movs	r0, #29
 1011 04f8 1A49     		ldr	r1, .L77+4
 1012 04fa FFF7FEFF 		bl	_test_assert_sequence
 1013 04fe 0346     		mov	r3, r0
 1014 0500 002B     		cmp	r3, #0
 1015 0502 00D0     		beq	.L53
 1016              		.loc 6 178 0 is_stmt 0 discriminator 1
 1017 0504 83E1     		b	.L17
 1018              	.L53:
 1019              		.loc 6 179 0 is_stmt 1
 1020 0506 FFF7FEFF 		bl	chSysLock
 1021 050a 1548     		ldr	r0, .L77
ARM GAS  /tmp/ccZrWEni.s 			page 19


 1022 050c FFF7FEFF 		bl	chMBGetFreeCountI
 1023 0510 0346     		mov	r3, r0
 1024 0512 052B     		cmp	r3, #5
 1025 0514 14BF     		ite	ne
 1026 0516 0023     		movne	r3, #0
 1027 0518 0123     		moveq	r3, #1
 1028 051a DBB2     		uxtb	r3, r3
 1029 051c 1E20     		movs	r0, #30
 1030 051e 1946     		mov	r1, r3
 1031 0520 FFF7FEFF 		bl	_test_assert
 1032 0524 0346     		mov	r3, r0
 1033 0526 002B     		cmp	r3, #0
 1034 0528 02D0     		beq	.L54
 1035              		.loc 6 179 0 is_stmt 0 discriminator 1
 1036 052a FFF7FEFF 		bl	chSysUnlock
 1037 052e 6EE1     		b	.L17
 1038              	.L54:
 1039              		.loc 6 179 0 discriminator 2
 1040 0530 FFF7FEFF 		bl	chSysUnlock
 1041              		.loc 6 180 0 is_stmt 1 discriminator 2
 1042 0534 FFF7FEFF 		bl	chSysLock
 1043 0538 0948     		ldr	r0, .L77
 1044 053a FFF7FEFF 		bl	chMBGetUsedCountI
 1045 053e 0346     		mov	r3, r0
 1046 0540 002B     		cmp	r3, #0
 1047 0542 14BF     		ite	ne
 1048 0544 0023     		movne	r3, #0
 1049 0546 0123     		moveq	r3, #1
 1050 0548 DBB2     		uxtb	r3, r3
 1051 054a 1F20     		movs	r0, #31
 1052 054c 1946     		mov	r1, r3
 1053 054e FFF7FEFF 		bl	_test_assert
 1054 0552 0346     		mov	r3, r0
 1055 0554 002B     		cmp	r3, #0
 1056 0556 07D0     		beq	.L55
 1057              		.loc 6 180 0 is_stmt 0 discriminator 1
 1058 0558 FFF7FEFF 		bl	chSysUnlock
 1059 055c 57E1     		b	.L17
 1060              	.L78:
 1061 055e 00BF     		.align	2
 1062              	.L77:
 1063 0560 00000000 		.word	mb1
 1064 0564 00000000 		.word	.LC0
 1065              	.L55:
 1066              		.loc 6 180 0 discriminator 2
 1067 0568 FFF7FEFF 		bl	chSysUnlock
 1068              		.loc 6 181 0 is_stmt 1 discriminator 2
 1069 056c A94B     		ldr	r3, .L79
 1070 056e DA68     		ldr	r2, [r3, #12]
 1071 0570 A84B     		ldr	r3, .L79
 1072 0572 9B68     		ldr	r3, [r3, #8]
 1073 0574 9A42     		cmp	r2, r3
 1074 0576 14BF     		ite	ne
 1075 0578 0023     		movne	r3, #0
 1076 057a 0123     		moveq	r3, #1
 1077 057c DBB2     		uxtb	r3, r3
 1078 057e 2020     		movs	r0, #32
ARM GAS  /tmp/ccZrWEni.s 			page 20


 1079 0580 1946     		mov	r1, r3
 1080 0582 FFF7FEFF 		bl	_test_assert
 1081 0586 0346     		mov	r3, r0
 1082 0588 002B     		cmp	r3, #0
 1083 058a 00D0     		beq	.L56
 1084              		.loc 6 181 0 is_stmt 0 discriminator 1
 1085 058c 3FE1     		b	.L17
 1086              	.L56:
 1087              		.loc 6 183 0 is_stmt 1
 1088 058e FFF7FEFF 		bl	chSysLock
 1089              		.loc 6 184 0
 1090 0592 A048     		ldr	r0, .L79
 1091 0594 4521     		movs	r1, #69
 1092 0596 FFF7FEFF 		bl	chMBPostAheadI
 1093 059a 0290     		str	r0, [sp, #8]
 1094              		.loc 6 185 0
 1095 059c 029B     		ldr	r3, [sp, #8]
 1096 059e 002B     		cmp	r3, #0
 1097 05a0 14BF     		ite	ne
 1098 05a2 0023     		movne	r3, #0
 1099 05a4 0123     		moveq	r3, #1
 1100 05a6 DBB2     		uxtb	r3, r3
 1101 05a8 2120     		movs	r0, #33
 1102 05aa 1946     		mov	r1, r3
 1103 05ac FFF7FEFF 		bl	_test_assert
 1104 05b0 0346     		mov	r3, r0
 1105 05b2 002B     		cmp	r3, #0
 1106 05b4 00D0     		beq	.L57
 1107              		.loc 6 185 0 is_stmt 0 discriminator 1
 1108 05b6 2AE1     		b	.L17
 1109              	.L57:
 1110              		.loc 6 186 0 is_stmt 1
 1111 05b8 9648     		ldr	r0, .L79
 1112 05ba 4421     		movs	r1, #68
 1113 05bc FFF7FEFF 		bl	chMBPostAheadI
 1114 05c0 0290     		str	r0, [sp, #8]
 1115              		.loc 6 187 0
 1116 05c2 029B     		ldr	r3, [sp, #8]
 1117 05c4 002B     		cmp	r3, #0
 1118 05c6 14BF     		ite	ne
 1119 05c8 0023     		movne	r3, #0
 1120 05ca 0123     		moveq	r3, #1
 1121 05cc DBB2     		uxtb	r3, r3
 1122 05ce 2220     		movs	r0, #34
 1123 05d0 1946     		mov	r1, r3
 1124 05d2 FFF7FEFF 		bl	_test_assert
 1125 05d6 0346     		mov	r3, r0
 1126 05d8 002B     		cmp	r3, #0
 1127 05da 00D0     		beq	.L58
 1128              		.loc 6 187 0 is_stmt 0 discriminator 1
 1129 05dc 17E1     		b	.L17
 1130              	.L58:
 1131              		.loc 6 188 0 is_stmt 1
 1132 05de 8D48     		ldr	r0, .L79
 1133 05e0 4321     		movs	r1, #67
 1134 05e2 FFF7FEFF 		bl	chMBPostAheadI
 1135 05e6 0290     		str	r0, [sp, #8]
ARM GAS  /tmp/ccZrWEni.s 			page 21


 1136              		.loc 6 189 0
 1137 05e8 029B     		ldr	r3, [sp, #8]
 1138 05ea 002B     		cmp	r3, #0
 1139 05ec 14BF     		ite	ne
 1140 05ee 0023     		movne	r3, #0
 1141 05f0 0123     		moveq	r3, #1
 1142 05f2 DBB2     		uxtb	r3, r3
 1143 05f4 2320     		movs	r0, #35
 1144 05f6 1946     		mov	r1, r3
 1145 05f8 FFF7FEFF 		bl	_test_assert
 1146 05fc 0346     		mov	r3, r0
 1147 05fe 002B     		cmp	r3, #0
 1148 0600 00D0     		beq	.L59
 1149              		.loc 6 189 0 is_stmt 0 discriminator 1
 1150 0602 04E1     		b	.L17
 1151              	.L59:
 1152              		.loc 6 190 0 is_stmt 1
 1153 0604 8348     		ldr	r0, .L79
 1154 0606 4221     		movs	r1, #66
 1155 0608 FFF7FEFF 		bl	chMBPostAheadI
 1156 060c 0290     		str	r0, [sp, #8]
 1157              		.loc 6 191 0
 1158 060e 029B     		ldr	r3, [sp, #8]
 1159 0610 002B     		cmp	r3, #0
 1160 0612 14BF     		ite	ne
 1161 0614 0023     		movne	r3, #0
 1162 0616 0123     		moveq	r3, #1
 1163 0618 DBB2     		uxtb	r3, r3
 1164 061a 2420     		movs	r0, #36
 1165 061c 1946     		mov	r1, r3
 1166 061e FFF7FEFF 		bl	_test_assert
 1167 0622 0346     		mov	r3, r0
 1168 0624 002B     		cmp	r3, #0
 1169 0626 00D0     		beq	.L60
 1170              		.loc 6 191 0 is_stmt 0 discriminator 1
 1171 0628 F1E0     		b	.L17
 1172              	.L60:
 1173              		.loc 6 192 0 is_stmt 1
 1174 062a 7A48     		ldr	r0, .L79
 1175 062c 4121     		movs	r1, #65
 1176 062e FFF7FEFF 		bl	chMBPostAheadI
 1177 0632 0290     		str	r0, [sp, #8]
 1178              		.loc 6 193 0
 1179 0634 FFF7FEFF 		bl	chSysUnlock
 1180              		.loc 6 194 0
 1181 0638 029B     		ldr	r3, [sp, #8]
 1182 063a 002B     		cmp	r3, #0
 1183 063c 14BF     		ite	ne
 1184 063e 0023     		movne	r3, #0
 1185 0640 0123     		moveq	r3, #1
 1186 0642 DBB2     		uxtb	r3, r3
 1187 0644 2520     		movs	r0, #37
 1188 0646 1946     		mov	r1, r3
 1189 0648 FFF7FEFF 		bl	_test_assert
 1190 064c 0346     		mov	r3, r0
 1191 064e 002B     		cmp	r3, #0
 1192 0650 00D0     		beq	.L61
ARM GAS  /tmp/ccZrWEni.s 			page 22


 1193              		.loc 6 194 0 is_stmt 0 discriminator 1
 1194 0652 DCE0     		b	.L17
 1195              	.L61:
 1196              		.loc 6 195 0 is_stmt 1
 1197 0654 6F4B     		ldr	r3, .L79
 1198 0656 DA68     		ldr	r2, [r3, #12]
 1199 0658 6E4B     		ldr	r3, .L79
 1200 065a 9B68     		ldr	r3, [r3, #8]
 1201 065c 9A42     		cmp	r2, r3
 1202 065e 14BF     		ite	ne
 1203 0660 0023     		movne	r3, #0
 1204 0662 0123     		moveq	r3, #1
 1205 0664 DBB2     		uxtb	r3, r3
 1206 0666 2620     		movs	r0, #38
 1207 0668 1946     		mov	r1, r3
 1208 066a FFF7FEFF 		bl	_test_assert
 1209 066e 0346     		mov	r3, r0
 1210 0670 002B     		cmp	r3, #0
 1211 0672 00D0     		beq	.L62
 1212              		.loc 6 195 0 is_stmt 0 discriminator 1
 1213 0674 CBE0     		b	.L17
 1214              	.L62:
 1215              		.loc 6 196 0 is_stmt 1
 1216 0676 0023     		movs	r3, #0
 1217 0678 0393     		str	r3, [sp, #12]
 1218 067a 1FE0     		b	.L63
 1219              	.L65:
 1220              		.loc 6 197 0
 1221 067c FFF7FEFF 		bl	chSysLock
 1222              		.loc 6 198 0
 1223 0680 01AB     		add	r3, sp, #4
 1224 0682 6448     		ldr	r0, .L79
 1225 0684 1946     		mov	r1, r3
 1226 0686 FFF7FEFF 		bl	chMBFetchI
 1227 068a 0290     		str	r0, [sp, #8]
 1228              		.loc 6 199 0
 1229 068c FFF7FEFF 		bl	chSysUnlock
 1230              		.loc 6 200 0
 1231 0690 029B     		ldr	r3, [sp, #8]
 1232 0692 002B     		cmp	r3, #0
 1233 0694 14BF     		ite	ne
 1234 0696 0023     		movne	r3, #0
 1235 0698 0123     		moveq	r3, #1
 1236 069a DBB2     		uxtb	r3, r3
 1237 069c 2720     		movs	r0, #39
 1238 069e 1946     		mov	r1, r3
 1239 06a0 FFF7FEFF 		bl	_test_assert
 1240 06a4 0346     		mov	r3, r0
 1241 06a6 002B     		cmp	r3, #0
 1242 06a8 00D0     		beq	.L64
 1243              		.loc 6 200 0 is_stmt 0 discriminator 1
 1244 06aa B0E0     		b	.L17
 1245              	.L64:
 1246              		.loc 6 201 0 is_stmt 1
 1247 06ac 019B     		ldr	r3, [sp, #4]
 1248 06ae DBB2     		uxtb	r3, r3
 1249 06b0 1846     		mov	r0, r3
ARM GAS  /tmp/ccZrWEni.s 			page 23


 1250 06b2 FFF7FEFF 		bl	test_emit_token
 1251              		.loc 6 196 0
 1252 06b6 039B     		ldr	r3, [sp, #12]
 1253 06b8 0133     		adds	r3, r3, #1
 1254 06ba 0393     		str	r3, [sp, #12]
 1255              	.L63:
 1256              		.loc 6 196 0 is_stmt 0 discriminator 1
 1257 06bc 039B     		ldr	r3, [sp, #12]
 1258 06be 042B     		cmp	r3, #4
 1259 06c0 DCD9     		bls	.L65
 1260              		.loc 6 203 0 is_stmt 1
 1261 06c2 2820     		movs	r0, #40
 1262 06c4 5449     		ldr	r1, .L79+4
 1263 06c6 FFF7FEFF 		bl	_test_assert_sequence
 1264 06ca 0346     		mov	r3, r0
 1265 06cc 002B     		cmp	r3, #0
 1266 06ce 00D0     		beq	.L66
 1267              		.loc 6 203 0 is_stmt 0 discriminator 1
 1268 06d0 9DE0     		b	.L17
 1269              	.L66:
 1270              		.loc 6 204 0 is_stmt 1
 1271 06d2 FFF7FEFF 		bl	chSysLock
 1272 06d6 4F48     		ldr	r0, .L79
 1273 06d8 FFF7FEFF 		bl	chMBGetFreeCountI
 1274 06dc 0346     		mov	r3, r0
 1275 06de 052B     		cmp	r3, #5
 1276 06e0 14BF     		ite	ne
 1277 06e2 0023     		movne	r3, #0
 1278 06e4 0123     		moveq	r3, #1
 1279 06e6 DBB2     		uxtb	r3, r3
 1280 06e8 2920     		movs	r0, #41
 1281 06ea 1946     		mov	r1, r3
 1282 06ec FFF7FEFF 		bl	_test_assert
 1283 06f0 0346     		mov	r3, r0
 1284 06f2 002B     		cmp	r3, #0
 1285 06f4 02D0     		beq	.L67
 1286              		.loc 6 204 0 is_stmt 0 discriminator 1
 1287 06f6 FFF7FEFF 		bl	chSysUnlock
 1288 06fa 88E0     		b	.L17
 1289              	.L67:
 1290              		.loc 6 204 0 discriminator 2
 1291 06fc FFF7FEFF 		bl	chSysUnlock
 1292              		.loc 6 205 0 is_stmt 1 discriminator 2
 1293 0700 FFF7FEFF 		bl	chSysLock
 1294 0704 4348     		ldr	r0, .L79
 1295 0706 FFF7FEFF 		bl	chMBGetUsedCountI
 1296 070a 0346     		mov	r3, r0
 1297 070c 002B     		cmp	r3, #0
 1298 070e 14BF     		ite	ne
 1299 0710 0023     		movne	r3, #0
 1300 0712 0123     		moveq	r3, #1
 1301 0714 DBB2     		uxtb	r3, r3
 1302 0716 2A20     		movs	r0, #42
 1303 0718 1946     		mov	r1, r3
 1304 071a FFF7FEFF 		bl	_test_assert
 1305 071e 0346     		mov	r3, r0
 1306 0720 002B     		cmp	r3, #0
ARM GAS  /tmp/ccZrWEni.s 			page 24


 1307 0722 02D0     		beq	.L68
 1308              		.loc 6 205 0 is_stmt 0 discriminator 1
 1309 0724 FFF7FEFF 		bl	chSysUnlock
 1310 0728 71E0     		b	.L17
 1311              	.L68:
 1312              		.loc 6 205 0 discriminator 2
 1313 072a FFF7FEFF 		bl	chSysUnlock
 1314              		.loc 6 206 0 is_stmt 1 discriminator 2
 1315 072e 394B     		ldr	r3, .L79
 1316 0730 DA68     		ldr	r2, [r3, #12]
 1317 0732 384B     		ldr	r3, .L79
 1318 0734 9B68     		ldr	r3, [r3, #8]
 1319 0736 9A42     		cmp	r2, r3
 1320 0738 14BF     		ite	ne
 1321 073a 0023     		movne	r3, #0
 1322 073c 0123     		moveq	r3, #1
 1323 073e DBB2     		uxtb	r3, r3
 1324 0740 2B20     		movs	r0, #43
 1325 0742 1946     		mov	r1, r3
 1326 0744 FFF7FEFF 		bl	_test_assert
 1327 0748 0346     		mov	r3, r0
 1328 074a 002B     		cmp	r3, #0
 1329 074c 00D0     		beq	.L69
 1330              		.loc 6 206 0 is_stmt 0 discriminator 1
 1331 074e 5EE0     		b	.L17
 1332              	.L69:
 1333              		.loc 6 211 0 is_stmt 1
 1334 0750 3048     		ldr	r0, .L79
 1335 0752 FFF7FEFF 		bl	chMBReset
 1336              		.loc 6 216 0
 1337 0756 FFF7FEFF 		bl	chSysLock
 1338 075a 2E48     		ldr	r0, .L79
 1339 075c FFF7FEFF 		bl	chMBGetFreeCountI
 1340 0760 0346     		mov	r3, r0
 1341 0762 052B     		cmp	r3, #5
 1342 0764 14BF     		ite	ne
 1343 0766 0023     		movne	r3, #0
 1344 0768 0123     		moveq	r3, #1
 1345 076a DBB2     		uxtb	r3, r3
 1346 076c 2C20     		movs	r0, #44
 1347 076e 1946     		mov	r1, r3
 1348 0770 FFF7FEFF 		bl	_test_assert
 1349 0774 0346     		mov	r3, r0
 1350 0776 002B     		cmp	r3, #0
 1351 0778 02D0     		beq	.L70
 1352              		.loc 6 216 0 is_stmt 0 discriminator 1
 1353 077a FFF7FEFF 		bl	chSysUnlock
 1354 077e 46E0     		b	.L17
 1355              	.L70:
 1356              		.loc 6 216 0 discriminator 2
 1357 0780 FFF7FEFF 		bl	chSysUnlock
 1358              		.loc 6 217 0 is_stmt 1 discriminator 2
 1359 0784 FFF7FEFF 		bl	chSysLock
 1360 0788 2248     		ldr	r0, .L79
 1361 078a FFF7FEFF 		bl	chMBGetUsedCountI
 1362 078e 0346     		mov	r3, r0
 1363 0790 002B     		cmp	r3, #0
ARM GAS  /tmp/ccZrWEni.s 			page 25


 1364 0792 14BF     		ite	ne
 1365 0794 0023     		movne	r3, #0
 1366 0796 0123     		moveq	r3, #1
 1367 0798 DBB2     		uxtb	r3, r3
 1368 079a 2D20     		movs	r0, #45
 1369 079c 1946     		mov	r1, r3
 1370 079e FFF7FEFF 		bl	_test_assert
 1371 07a2 0346     		mov	r3, r0
 1372 07a4 002B     		cmp	r3, #0
 1373 07a6 02D0     		beq	.L71
 1374              		.loc 6 217 0 is_stmt 0 discriminator 1
 1375 07a8 FFF7FEFF 		bl	chSysUnlock
 1376 07ac 2FE0     		b	.L17
 1377              	.L71:
 1378              		.loc 6 217 0 discriminator 2
 1379 07ae FFF7FEFF 		bl	chSysUnlock
 1380              		.loc 6 218 0 is_stmt 1 discriminator 2
 1381 07b2 FFF7FEFF 		bl	chSysLock
 1382 07b6 174B     		ldr	r3, .L79
 1383 07b8 1A68     		ldr	r2, [r3]
 1384 07ba 164B     		ldr	r3, .L79
 1385 07bc 9B68     		ldr	r3, [r3, #8]
 1386 07be 9A42     		cmp	r2, r3
 1387 07c0 14BF     		ite	ne
 1388 07c2 0023     		movne	r3, #0
 1389 07c4 0123     		moveq	r3, #1
 1390 07c6 DBB2     		uxtb	r3, r3
 1391 07c8 2E20     		movs	r0, #46
 1392 07ca 1946     		mov	r1, r3
 1393 07cc FFF7FEFF 		bl	_test_assert
 1394 07d0 0346     		mov	r3, r0
 1395 07d2 002B     		cmp	r3, #0
 1396 07d4 02D0     		beq	.L72
 1397              		.loc 6 218 0 is_stmt 0 discriminator 1
 1398 07d6 FFF7FEFF 		bl	chSysUnlock
 1399 07da 18E0     		b	.L17
 1400              	.L72:
 1401              		.loc 6 218 0 discriminator 2
 1402 07dc FFF7FEFF 		bl	chSysUnlock
 1403              		.loc 6 219 0 is_stmt 1 discriminator 2
 1404 07e0 FFF7FEFF 		bl	chSysLock
 1405 07e4 0B4B     		ldr	r3, .L79
 1406 07e6 1A68     		ldr	r2, [r3]
 1407 07e8 0A4B     		ldr	r3, .L79
 1408 07ea DB68     		ldr	r3, [r3, #12]
 1409 07ec 9A42     		cmp	r2, r3
 1410 07ee 14BF     		ite	ne
 1411 07f0 0023     		movne	r3, #0
 1412 07f2 0123     		moveq	r3, #1
 1413 07f4 DBB2     		uxtb	r3, r3
 1414 07f6 2F20     		movs	r0, #47
 1415 07f8 1946     		mov	r1, r3
 1416 07fa FFF7FEFF 		bl	_test_assert
 1417 07fe 0346     		mov	r3, r0
 1418 0800 002B     		cmp	r3, #0
 1419 0802 02D0     		beq	.L73
 1420              		.loc 6 219 0 is_stmt 0 discriminator 1
ARM GAS  /tmp/ccZrWEni.s 			page 26


 1421 0804 FFF7FEFF 		bl	chSysUnlock
 1422 0808 01E0     		b	.L17
 1423              	.L73:
 1424              		.loc 6 219 0 discriminator 2
 1425 080a FFF7FEFF 		bl	chSysUnlock
 1426              	.L17:
 1427              		.loc 6 220 0 is_stmt 1
 1428 080e 05B0     		add	sp, sp, #20
 1429              		@ sp needed
 1430 0810 5DF804FB 		ldr	pc, [sp], #4
 1431              	.L80:
 1432              		.align	2
 1433              	.L79:
 1434 0814 00000000 		.word	mb1
 1435 0818 00000000 		.word	.LC0
 1436              		.cfi_endproc
 1437              	.LFE241:
 1438              		.size	mbox1_execute, .-mbox1_execute
 1439              		.global	testmbox1
 1440 081c AFF30080 		.section	.rodata
 1441 0006 0000     		.align	2
 1442              	.LC1:
 1443 0008 4D61696C 		.ascii	"Mailboxes, queuing and timeouts\000"
 1443      626F7865 
 1443      732C2071 
 1443      75657569 
 1443      6E672061 
 1444              		.section	.rodata.testmbox1,"a",%progbits
 1445              		.align	2
 1446              		.type	testmbox1, %object
 1447              		.size	testmbox1, 16
 1448              	testmbox1:
 1449 0000 08000000 		.word	.LC1
 1450 0004 00000000 		.word	mbox1_setup
 1451 0008 00000000 		.word	0
 1452 000c 00000000 		.word	mbox1_execute
 1453              		.global	patternmbox
 1454              		.section	.rodata.patternmbox,"a",%progbits
 1455              		.align	2
 1456              		.type	patternmbox, %object
 1457              		.size	patternmbox, 8
 1458              	patternmbox:
 1459 0000 00000000 		.word	testmbox1
 1460 0004 00000000 		.word	0
 1461              		.section	.rodata.__func__.5925,"a",%progbits
 1462              		.align	2
 1463              		.type	__func__.5925, %object
 1464              		.size	__func__.5925, 12
 1465              	__func__.5925:
 1466 0000 63685379 		.ascii	"chSysUnlock\000"
 1466      73556E6C 
 1466      6F636B00 
 1467              		.text
 1468              	.Letext0:
 1469              		.file 7 "/usr/lib/gcc/arm-none-eabi/4.8/include/stddef.h"
 1470              		.file 8 "/usr/include/newlib/machine/_default_types.h"
 1471              		.file 9 "/usr/include/newlib/stdint.h"
ARM GAS  /tmp/ccZrWEni.s 			page 27


 1472              		.file 10 "/home/efe/ChibiOS/os/rt/ports/ARMCMx/compilers/GCC/chtypes.h"
 1473              		.file 11 "/home/efe/ChibiOS/os/rt/include/chsystypes.h"
 1474              		.file 12 "/home/efe/ChibiOS/os/rt/include/chschd.h"
 1475              		.file 13 "/home/efe/ChibiOS/os/rt/ports/ARMCMx/chcore.h"
 1476              		.file 14 "/home/efe/ChibiOS/os/rt/include/chdebug.h"
 1477              		.file 15 "/home/efe/ChibiOS/os/rt/include/chtm.h"
 1478              		.file 16 "/home/efe/ChibiOS/os/rt/include/chstats.h"
 1479              		.file 17 "/home/efe/ChibiOS/os/rt/include/chmtx.h"
 1480              		.file 18 "/home/efe/ChibiOS/test/rt/test.h"
 1481              		.file 19 "/home/efe/ChibiOS/os/ext/CMSIS/include/core_cm4.h"
 1482              		.section	.debug_info,"",%progbits
 1483              	.Ldebug_info0:
 1484 0000 FA0A0000 		.4byte	0xafa
 1485 0004 0400     		.2byte	0x4
 1486 0006 00000000 		.4byte	.Ldebug_abbrev0
 1487 000a 04       		.byte	0x4
 1488 000b 01       		.uleb128 0x1
 1489 000c 87010000 		.4byte	.LASF158
 1490 0010 01       		.byte	0x1
 1491 0011 83040000 		.4byte	.LASF159
 1492 0015 00000000 		.4byte	.Ldebug_ranges0+0
 1493 0019 00000000 		.4byte	0
 1494 001d 00000000 		.4byte	.Ldebug_line0
 1495 0021 02       		.uleb128 0x2
 1496 0022 04       		.byte	0x4
 1497 0023 05       		.byte	0x5
 1498 0024 696E7400 		.ascii	"int\000"
 1499 0028 03       		.uleb128 0x3
 1500 0029 1C000000 		.4byte	.LASF2
 1501 002d 07       		.byte	0x7
 1502 002e D4       		.byte	0xd4
 1503 002f 33000000 		.4byte	0x33
 1504 0033 04       		.uleb128 0x4
 1505 0034 04       		.byte	0x4
 1506 0035 07       		.byte	0x7
 1507 0036 C4020000 		.4byte	.LASF0
 1508 003a 04       		.uleb128 0x4
 1509 003b 01       		.byte	0x1
 1510 003c 06       		.byte	0x6
 1511 003d 30010000 		.4byte	.LASF1
 1512 0041 03       		.uleb128 0x3
 1513 0042 40000000 		.4byte	.LASF3
 1514 0046 08       		.byte	0x8
 1515 0047 1D       		.byte	0x1d
 1516 0048 4C000000 		.4byte	0x4c
 1517 004c 04       		.uleb128 0x4
 1518 004d 01       		.byte	0x1
 1519 004e 08       		.byte	0x8
 1520 004f 08050000 		.4byte	.LASF4
 1521 0053 04       		.uleb128 0x4
 1522 0054 02       		.byte	0x2
 1523 0055 05       		.byte	0x5
 1524 0056 46050000 		.4byte	.LASF5
 1525 005a 04       		.uleb128 0x4
 1526 005b 02       		.byte	0x2
 1527 005c 07       		.byte	0x7
 1528 005d 1B030000 		.4byte	.LASF6
ARM GAS  /tmp/ccZrWEni.s 			page 28


 1529 0061 03       		.uleb128 0x3
 1530 0062 AA030000 		.4byte	.LASF7
 1531 0066 08       		.byte	0x8
 1532 0067 3F       		.byte	0x3f
 1533 0068 6C000000 		.4byte	0x6c
 1534 006c 04       		.uleb128 0x4
 1535 006d 04       		.byte	0x4
 1536 006e 05       		.byte	0x5
 1537 006f 6F010000 		.4byte	.LASF8
 1538 0073 03       		.uleb128 0x3
 1539 0074 A8020000 		.4byte	.LASF9
 1540 0078 08       		.byte	0x8
 1541 0079 41       		.byte	0x41
 1542 007a 7E000000 		.4byte	0x7e
 1543 007e 04       		.uleb128 0x4
 1544 007f 04       		.byte	0x4
 1545 0080 07       		.byte	0x7
 1546 0081 0F060000 		.4byte	.LASF10
 1547 0085 04       		.uleb128 0x4
 1548 0086 08       		.byte	0x8
 1549 0087 05       		.byte	0x5
 1550 0088 22010000 		.4byte	.LASF11
 1551 008c 03       		.uleb128 0x3
 1552 008d A8040000 		.4byte	.LASF12
 1553 0091 08       		.byte	0x8
 1554 0092 5B       		.byte	0x5b
 1555 0093 97000000 		.4byte	0x97
 1556 0097 04       		.uleb128 0x4
 1557 0098 08       		.byte	0x8
 1558 0099 07       		.byte	0x7
 1559 009a A8000000 		.4byte	.LASF13
 1560 009e 03       		.uleb128 0x3
 1561 009f D6060000 		.4byte	.LASF14
 1562 00a3 09       		.byte	0x9
 1563 00a4 2A       		.byte	0x2a
 1564 00a5 41000000 		.4byte	0x41
 1565 00a9 03       		.uleb128 0x3
 1566 00aa 00050000 		.4byte	.LASF15
 1567 00ae 09       		.byte	0x9
 1568 00af 41       		.byte	0x41
 1569 00b0 61000000 		.4byte	0x61
 1570 00b4 03       		.uleb128 0x3
 1571 00b5 DE050000 		.4byte	.LASF16
 1572 00b9 09       		.byte	0x9
 1573 00ba 42       		.byte	0x42
 1574 00bb 73000000 		.4byte	0x73
 1575 00bf 03       		.uleb128 0x3
 1576 00c0 2A000000 		.4byte	.LASF17
 1577 00c4 09       		.byte	0x9
 1578 00c5 4E       		.byte	0x4e
 1579 00c6 8C000000 		.4byte	0x8c
 1580 00ca 05       		.uleb128 0x5
 1581 00cb A9000000 		.4byte	0xa9
 1582 00cf 03       		.uleb128 0x3
 1583 00d0 91060000 		.4byte	.LASF18
 1584 00d4 0A       		.byte	0xa
 1585 00d5 45       		.byte	0x45
ARM GAS  /tmp/ccZrWEni.s 			page 29


 1586 00d6 B4000000 		.4byte	0xb4
 1587 00da 03       		.uleb128 0x3
 1588 00db 12010000 		.4byte	.LASF19
 1589 00df 0A       		.byte	0xa
 1590 00e0 46       		.byte	0x46
 1591 00e1 BF000000 		.4byte	0xbf
 1592 00e5 03       		.uleb128 0x3
 1593 00e6 71030000 		.4byte	.LASF20
 1594 00ea 0A       		.byte	0xa
 1595 00eb 48       		.byte	0x48
 1596 00ec 9E000000 		.4byte	0x9e
 1597 00f0 03       		.uleb128 0x3
 1598 00f1 78010000 		.4byte	.LASF21
 1599 00f5 0A       		.byte	0xa
 1600 00f6 49       		.byte	0x49
 1601 00f7 9E000000 		.4byte	0x9e
 1602 00fb 03       		.uleb128 0x3
 1603 00fc BE040000 		.4byte	.LASF22
 1604 0100 0A       		.byte	0xa
 1605 0101 4A       		.byte	0x4a
 1606 0102 9E000000 		.4byte	0x9e
 1607 0106 03       		.uleb128 0x3
 1608 0107 EF040000 		.4byte	.LASF23
 1609 010b 0A       		.byte	0xa
 1610 010c 4C       		.byte	0x4c
 1611 010d B4000000 		.4byte	0xb4
 1612 0111 03       		.uleb128 0x3
 1613 0112 53030000 		.4byte	.LASF24
 1614 0116 0A       		.byte	0xa
 1615 0117 4D       		.byte	0x4d
 1616 0118 A9000000 		.4byte	0xa9
 1617 011c 03       		.uleb128 0x3
 1618 011d 9E030000 		.4byte	.LASF25
 1619 0121 0A       		.byte	0xa
 1620 0122 4F       		.byte	0x4f
 1621 0123 B4000000 		.4byte	0xb4
 1622 0127 03       		.uleb128 0x3
 1623 0128 B3020000 		.4byte	.LASF26
 1624 012c 0A       		.byte	0xa
 1625 012d 51       		.byte	0x51
 1626 012e A9000000 		.4byte	0xa9
 1627 0132 03       		.uleb128 0x3
 1628 0133 5E030000 		.4byte	.LASF27
 1629 0137 0A       		.byte	0xa
 1630 0138 52       		.byte	0x52
 1631 0139 B4000000 		.4byte	0xb4
 1632 013d 03       		.uleb128 0x3
 1633 013e 3B060000 		.4byte	.LASF28
 1634 0142 0B       		.byte	0xb
 1635 0143 33       		.byte	0x33
 1636 0144 B4000000 		.4byte	0xb4
 1637 0148 03       		.uleb128 0x3
 1638 0149 26060000 		.4byte	.LASF29
 1639 014d 0B       		.byte	0xb
 1640 014e 3F       		.byte	0x3f
 1641 014f 53010000 		.4byte	0x153
 1642 0153 06       		.uleb128 0x6
ARM GAS  /tmp/ccZrWEni.s 			page 30


 1643 0154 3D030000 		.4byte	.LASF51
 1644 0158 60       		.byte	0x60
 1645 0159 0C       		.byte	0xc
 1646 015a C2       		.byte	0xc2
 1647 015b 59020000 		.4byte	0x259
 1648 015f 07       		.uleb128 0x7
 1649 0160 66050000 		.4byte	.LASF30
 1650 0164 0C       		.byte	0xc
 1651 0165 C3       		.byte	0xc3
 1652 0166 64020000 		.4byte	0x264
 1653 016a 00       		.byte	0
 1654 016b 07       		.uleb128 0x7
 1655 016c E0040000 		.4byte	.LASF31
 1656 0170 0C       		.byte	0xc
 1657 0171 C5       		.byte	0xc5
 1658 0172 64020000 		.4byte	0x264
 1659 0176 04       		.byte	0x4
 1660 0177 07       		.uleb128 0x7
 1661 0178 1B010000 		.4byte	.LASF32
 1662 017c 0C       		.byte	0xc
 1663 017d C7       		.byte	0xc7
 1664 017e 06010000 		.4byte	0x106
 1665 0182 08       		.byte	0x8
 1666 0183 07       		.uleb128 0x7
 1667 0184 37070000 		.4byte	.LASF33
 1668 0188 0C       		.byte	0xc
 1669 0189 C8       		.byte	0xc8
 1670 018a CD040000 		.4byte	0x4cd
 1671 018e 0C       		.byte	0xc
 1672 018f 07       		.uleb128 0x7
 1673 0190 3E020000 		.4byte	.LASF34
 1674 0194 0C       		.byte	0xc
 1675 0195 CA       		.byte	0xca
 1676 0196 64020000 		.4byte	0x264
 1677 019a 10       		.byte	0x10
 1678 019b 07       		.uleb128 0x7
 1679 019c 2A040000 		.4byte	.LASF35
 1680 01a0 0C       		.byte	0xc
 1681 01a1 CB       		.byte	0xcb
 1682 01a2 64020000 		.4byte	0x264
 1683 01a6 14       		.byte	0x14
 1684 01a7 07       		.uleb128 0x7
 1685 01a8 E5060000 		.4byte	.LASF36
 1686 01ac 0C       		.byte	0xc
 1687 01ad D2       		.byte	0xd2
 1688 01ae 71070000 		.4byte	0x771
 1689 01b2 18       		.byte	0x18
 1690 01b3 07       		.uleb128 0x7
 1691 01b4 B9020000 		.4byte	.LASF37
 1692 01b8 0C       		.byte	0xc
 1693 01b9 D8       		.byte	0xd8
 1694 01ba 83070000 		.4byte	0x783
 1695 01be 1C       		.byte	0x1c
 1696 01bf 07       		.uleb128 0x7
 1697 01c0 50050000 		.4byte	.LASF38
 1698 01c4 0C       		.byte	0xc
 1699 01c5 DD       		.byte	0xdd
ARM GAS  /tmp/ccZrWEni.s 			page 31


 1700 01c6 F0000000 		.4byte	0xf0
 1701 01ca 20       		.byte	0x20
 1702 01cb 07       		.uleb128 0x7
 1703 01cc 6D050000 		.4byte	.LASF39
 1704 01d0 0C       		.byte	0xc
 1705 01d1 E1       		.byte	0xe1
 1706 01d2 E5000000 		.4byte	0xe5
 1707 01d6 21       		.byte	0x21
 1708 01d7 07       		.uleb128 0x7
 1709 01d8 C1060000 		.4byte	.LASF40
 1710 01dc 0C       		.byte	0xc
 1711 01dd E6       		.byte	0xe6
 1712 01de FB000000 		.4byte	0xfb
 1713 01e2 22       		.byte	0x22
 1714 01e3 08       		.uleb128 0x8
 1715 01e4 705F7500 		.ascii	"p_u\000"
 1716 01e8 0C       		.byte	0xc
 1717 01e9 3101     		.2byte	0x131
 1718 01eb AC060000 		.4byte	0x6ac
 1719 01ef 24       		.byte	0x24
 1720 01f0 09       		.uleb128 0x9
 1721 01f1 C9030000 		.4byte	.LASF41
 1722 01f5 0C       		.byte	0xc
 1723 01f6 3601     		.2byte	0x136
 1724 01f8 6A020000 		.4byte	0x26a
 1725 01fc 28       		.byte	0x28
 1726 01fd 09       		.uleb128 0x9
 1727 01fe EA020000 		.4byte	.LASF42
 1728 0202 0C       		.byte	0xc
 1729 0203 3C01     		.2byte	0x13c
 1730 0205 8E020000 		.4byte	0x28e
 1731 0209 2C       		.byte	0x2c
 1732 020a 09       		.uleb128 0x9
 1733 020b 14070000 		.4byte	.LASF43
 1734 020f 0C       		.byte	0xc
 1735 0210 4001     		.2byte	0x140
 1736 0212 11010000 		.4byte	0x111
 1737 0216 34       		.byte	0x34
 1738 0217 09       		.uleb128 0x9
 1739 0218 D3050000 		.4byte	.LASF44
 1740 021c 0C       		.byte	0xc
 1741 021d 4601     		.2byte	0x146
 1742 021f 1C010000 		.4byte	0x11c
 1743 0223 38       		.byte	0x38
 1744 0224 09       		.uleb128 0x9
 1745 0225 3C050000 		.4byte	.LASF45
 1746 0229 0C       		.byte	0xc
 1747 022a 4D01     		.2byte	0x14d
 1748 022c 6B070000 		.4byte	0x76b
 1749 0230 3C       		.byte	0x3c
 1750 0231 09       		.uleb128 0x9
 1751 0232 45060000 		.4byte	.LASF46
 1752 0236 0C       		.byte	0xc
 1753 0237 5101     		.2byte	0x151
 1754 0239 06010000 		.4byte	0x106
 1755 023d 40       		.byte	0x40
 1756 023e 09       		.uleb128 0x9
ARM GAS  /tmp/ccZrWEni.s 			page 32


 1757 023f 3C010000 		.4byte	.LASF47
 1758 0243 0C       		.byte	0xc
 1759 0244 5801     		.2byte	0x158
 1760 0246 41030000 		.4byte	0x341
 1761 024a 44       		.byte	0x44
 1762 024b 09       		.uleb128 0x9
 1763 024c 7E050000 		.4byte	.LASF48
 1764 0250 0C       		.byte	0xc
 1765 0251 5E01     		.2byte	0x15e
 1766 0253 5D060000 		.4byte	0x65d
 1767 0257 48       		.byte	0x48
 1768 0258 00       		.byte	0
 1769 0259 03       		.uleb128 0x3
 1770 025a DC030000 		.4byte	.LASF49
 1771 025e 0B       		.byte	0xb
 1772 025f 44       		.byte	0x44
 1773 0260 64020000 		.4byte	0x264
 1774 0264 0A       		.uleb128 0xa
 1775 0265 04       		.byte	0x4
 1776 0266 48010000 		.4byte	0x148
 1777 026a 03       		.uleb128 0x3
 1778 026b EC060000 		.4byte	.LASF50
 1779 026f 0B       		.byte	0xb
 1780 0270 49       		.byte	0x49
 1781 0271 75020000 		.4byte	0x275
 1782 0275 06       		.uleb128 0x6
 1783 0276 FF050000 		.4byte	.LASF52
 1784 027a 04       		.byte	0x4
 1785 027b 0C       		.byte	0xc
 1786 027c B0       		.byte	0xb0
 1787 027d 8E020000 		.4byte	0x28e
 1788 0281 07       		.uleb128 0x7
 1789 0282 66050000 		.4byte	.LASF30
 1790 0286 0C       		.byte	0xc
 1791 0287 B1       		.byte	0xb1
 1792 0288 64020000 		.4byte	0x264
 1793 028c 00       		.byte	0
 1794 028d 00       		.byte	0
 1795 028e 03       		.uleb128 0x3
 1796 028f 9C050000 		.4byte	.LASF53
 1797 0293 0B       		.byte	0xb
 1798 0294 50       		.byte	0x50
 1799 0295 99020000 		.4byte	0x299
 1800 0299 06       		.uleb128 0x6
 1801 029a 56000000 		.4byte	.LASF54
 1802 029e 08       		.byte	0x8
 1803 029f 0C       		.byte	0xc
 1804 02a0 B7       		.byte	0xb7
 1805 02a1 BE020000 		.4byte	0x2be
 1806 02a5 07       		.uleb128 0x7
 1807 02a6 66050000 		.4byte	.LASF30
 1808 02aa 0C       		.byte	0xc
 1809 02ab B8       		.byte	0xb8
 1810 02ac 64020000 		.4byte	0x264
 1811 02b0 00       		.byte	0
 1812 02b1 07       		.uleb128 0x7
 1813 02b2 E0040000 		.4byte	.LASF31
ARM GAS  /tmp/ccZrWEni.s 			page 33


 1814 02b6 0C       		.byte	0xc
 1815 02b7 B9       		.byte	0xb9
 1816 02b8 64020000 		.4byte	0x264
 1817 02bc 04       		.byte	0x4
 1818 02bd 00       		.byte	0
 1819 02be 03       		.uleb128 0x3
 1820 02bf 07000000 		.4byte	.LASF55
 1821 02c3 0B       		.byte	0xb
 1822 02c4 57       		.byte	0x57
 1823 02c5 C9020000 		.4byte	0x2c9
 1824 02c9 0B       		.uleb128 0xb
 1825 02ca 90030000 		.4byte	.LASF56
 1826 02ce 1C       		.byte	0x1c
 1827 02cf 0C       		.byte	0xc
 1828 02d0 9001     		.2byte	0x190
 1829 02d2 25030000 		.4byte	0x325
 1830 02d6 09       		.uleb128 0x9
 1831 02d7 EE050000 		.4byte	.LASF57
 1832 02db 0C       		.byte	0xc
 1833 02dc 9101     		.2byte	0x191
 1834 02de 8E020000 		.4byte	0x28e
 1835 02e2 00       		.byte	0
 1836 02e3 09       		.uleb128 0x9
 1837 02e4 58050000 		.4byte	.LASF58
 1838 02e8 0C       		.byte	0xc
 1839 02e9 9201     		.2byte	0x192
 1840 02eb 06010000 		.4byte	0x106
 1841 02ef 08       		.byte	0x8
 1842 02f0 09       		.uleb128 0x9
 1843 02f1 32040000 		.4byte	.LASF59
 1844 02f5 0C       		.byte	0xc
 1845 02f6 9401     		.2byte	0x194
 1846 02f8 CD040000 		.4byte	0x4cd
 1847 02fc 0C       		.byte	0xc
 1848 02fd 09       		.uleb128 0x9
 1849 02fe 68020000 		.4byte	.LASF60
 1850 0302 0C       		.byte	0xc
 1851 0303 9701     		.2byte	0x197
 1852 0305 64020000 		.4byte	0x264
 1853 0309 10       		.byte	0x10
 1854 030a 09       		.uleb128 0x9
 1855 030b 7B040000 		.4byte	.LASF61
 1856 030f 0C       		.byte	0xc
 1857 0310 9801     		.2byte	0x198
 1858 0312 64020000 		.4byte	0x264
 1859 0316 14       		.byte	0x14
 1860 0317 09       		.uleb128 0x9
 1861 0318 71040000 		.4byte	.LASF62
 1862 031c 0C       		.byte	0xc
 1863 031d 9B01     		.2byte	0x19b
 1864 031f 64020000 		.4byte	0x264
 1865 0323 18       		.byte	0x18
 1866 0324 00       		.byte	0
 1867 0325 03       		.uleb128 0x3
 1868 0326 50060000 		.4byte	.LASF63
 1869 032a 0B       		.byte	0xb
 1870 032b 5C       		.byte	0x5c
ARM GAS  /tmp/ccZrWEni.s 			page 34


 1871 032c 30030000 		.4byte	0x330
 1872 0330 0A       		.uleb128 0xa
 1873 0331 04       		.byte	0x4
 1874 0332 36030000 		.4byte	0x336
 1875 0336 0C       		.uleb128 0xc
 1876 0337 41030000 		.4byte	0x341
 1877 033b 0D       		.uleb128 0xd
 1878 033c 41030000 		.4byte	0x341
 1879 0340 00       		.byte	0
 1880 0341 0E       		.uleb128 0xe
 1881 0342 04       		.byte	0x4
 1882 0343 03       		.uleb128 0x3
 1883 0344 D0040000 		.4byte	.LASF64
 1884 0348 0B       		.byte	0xb
 1885 0349 61       		.byte	0x61
 1886 034a 4E030000 		.4byte	0x34e
 1887 034e 0B       		.uleb128 0xb
 1888 034f AC050000 		.4byte	.LASF65
 1889 0353 14       		.byte	0x14
 1890 0354 0C       		.byte	0xc
 1891 0355 6B01     		.2byte	0x16b
 1892 0357 9D030000 		.4byte	0x39d
 1893 035b 09       		.uleb128 0x9
 1894 035c D1020000 		.4byte	.LASF66
 1895 0360 0C       		.byte	0xc
 1896 0361 6C01     		.2byte	0x16c
 1897 0363 89070000 		.4byte	0x789
 1898 0367 00       		.byte	0
 1899 0368 09       		.uleb128 0x9
 1900 0369 79020000 		.4byte	.LASF67
 1901 036d 0C       		.byte	0xc
 1902 036e 6D01     		.2byte	0x16d
 1903 0370 89070000 		.4byte	0x789
 1904 0374 04       		.byte	0x4
 1905 0375 09       		.uleb128 0x9
 1906 0376 F6050000 		.4byte	.LASF68
 1907 037a 0C       		.byte	0xc
 1908 037b 6E01     		.2byte	0x16e
 1909 037d 3D010000 		.4byte	0x13d
 1910 0381 08       		.byte	0x8
 1911 0382 09       		.uleb128 0x9
 1912 0383 3D070000 		.4byte	.LASF69
 1913 0387 0C       		.byte	0xc
 1914 0388 6F01     		.2byte	0x16f
 1915 038a 25030000 		.4byte	0x325
 1916 038e 0C       		.byte	0xc
 1917 038f 09       		.uleb128 0x9
 1918 0390 99060000 		.4byte	.LASF70
 1919 0394 0C       		.byte	0xc
 1920 0395 7101     		.2byte	0x171
 1921 0397 41030000 		.4byte	0x341
 1922 039b 10       		.byte	0x10
 1923 039c 00       		.byte	0
 1924 039d 03       		.uleb128 0x3
 1925 039e F3000000 		.4byte	.LASF71
 1926 03a2 0B       		.byte	0xb
 1927 03a3 66       		.byte	0x66
ARM GAS  /tmp/ccZrWEni.s 			page 35


 1928 03a4 A8030000 		.4byte	0x3a8
 1929 03a8 0B       		.uleb128 0xb
 1930 03a9 EF030000 		.4byte	.LASF72
 1931 03ad 10       		.byte	0x10
 1932 03ae 0C       		.byte	0xc
 1933 03af 7B01     		.2byte	0x17b
 1934 03b1 EA030000 		.4byte	0x3ea
 1935 03b5 09       		.uleb128 0x9
 1936 03b6 D1020000 		.4byte	.LASF66
 1937 03ba 0C       		.byte	0xc
 1938 03bb 7C01     		.2byte	0x17c
 1939 03bd 89070000 		.4byte	0x789
 1940 03c1 00       		.byte	0
 1941 03c2 09       		.uleb128 0x9
 1942 03c3 79020000 		.4byte	.LASF67
 1943 03c7 0C       		.byte	0xc
 1944 03c8 7E01     		.2byte	0x17e
 1945 03ca 89070000 		.4byte	0x789
 1946 03ce 04       		.byte	0x4
 1947 03cf 09       		.uleb128 0x9
 1948 03d0 F6050000 		.4byte	.LASF68
 1949 03d4 0C       		.byte	0xc
 1950 03d5 8001     		.2byte	0x180
 1951 03d7 3D010000 		.4byte	0x13d
 1952 03db 08       		.byte	0x8
 1953 03dc 09       		.uleb128 0x9
 1954 03dd 1E040000 		.4byte	.LASF73
 1955 03e1 0C       		.byte	0xc
 1956 03e2 8801     		.2byte	0x188
 1957 03e4 3D010000 		.4byte	0x13d
 1958 03e8 0C       		.byte	0xc
 1959 03e9 00       		.byte	0
 1960 03ea 03       		.uleb128 0x3
 1961 03eb 67000000 		.4byte	.LASF74
 1962 03ef 0B       		.byte	0xb
 1963 03f0 6B       		.byte	0x6b
 1964 03f1 F5030000 		.4byte	0x3f5
 1965 03f5 0F       		.uleb128 0xf
 1966 03f6 81020000 		.4byte	.LASF75
 1967 03fa 1404     		.2byte	0x414
 1968 03fc 0C       		.byte	0xc
 1969 03fd A201     		.2byte	0x1a2
 1970 03ff 38040000 		.4byte	0x438
 1971 0403 09       		.uleb128 0x9
 1972 0404 78060000 		.4byte	.LASF76
 1973 0408 0C       		.byte	0xc
 1974 0409 AA01     		.2byte	0x1aa
 1975 040b 8F070000 		.4byte	0x78f
 1976 040f 00       		.byte	0
 1977 0410 09       		.uleb128 0x9
 1978 0411 C8060000 		.4byte	.LASF77
 1979 0415 0C       		.byte	0xc
 1980 0416 AF01     		.2byte	0x1af
 1981 0418 27010000 		.4byte	0x127
 1982 041c 04       		.byte	0x4
 1983 041d 09       		.uleb128 0x9
 1984 041e 9F020000 		.4byte	.LASF78
ARM GAS  /tmp/ccZrWEni.s 			page 36


 1985 0422 0C       		.byte	0xc
 1986 0423 B301     		.2byte	0x1b3
 1987 0425 27010000 		.4byte	0x127
 1988 0429 08       		.byte	0x8
 1989 042a 09       		.uleb128 0x9
 1990 042b FB060000 		.4byte	.LASF79
 1991 042f 0C       		.byte	0xc
 1992 0430 B901     		.2byte	0x1b9
 1993 0432 EF050000 		.4byte	0x5ef
 1994 0436 0C       		.byte	0xc
 1995 0437 00       		.byte	0
 1996 0438 03       		.uleb128 0x3
 1997 0439 65030000 		.4byte	.LASF80
 1998 043d 0B       		.byte	0xb
 1999 043e 70       		.byte	0x70
 2000 043f 43040000 		.4byte	0x443
 2001 0443 0F       		.uleb128 0xf
 2002 0444 65010000 		.4byte	.LASF81
 2003 0448 D805     		.2byte	0x5d8
 2004 044a 0C       		.byte	0xc
 2005 044b C201     		.2byte	0x1c2
 2006 044d B0040000 		.4byte	0x4b0
 2007 0451 09       		.uleb128 0x9
 2008 0452 D0060000 		.4byte	.LASF82
 2009 0456 0C       		.byte	0xc
 2010 0457 C601     		.2byte	0x1c6
 2011 0459 BE020000 		.4byte	0x2be
 2012 045d 00       		.byte	0
 2013 045e 09       		.uleb128 0x9
 2014 045f 4C010000 		.4byte	.LASF83
 2015 0463 0C       		.byte	0xc
 2016 0464 CA01     		.2byte	0x1ca
 2017 0466 9D030000 		.4byte	0x39d
 2018 046a 1C       		.byte	0x1c
 2019 046b 08       		.uleb128 0x8
 2020 046c 64626700 		.ascii	"dbg\000"
 2021 0470 0C       		.byte	0xc
 2022 0471 CE01     		.2byte	0x1ce
 2023 0473 EA030000 		.4byte	0x3ea
 2024 0477 2C       		.byte	0x2c
 2025 0478 10       		.uleb128 0x10
 2026 0479 E3000000 		.4byte	.LASF84
 2027 047d 0C       		.byte	0xc
 2028 047e D201     		.2byte	0x1d2
 2029 0480 48010000 		.4byte	0x148
 2030 0484 4004     		.2byte	0x440
 2031 0486 11       		.uleb128 0x11
 2032 0487 746D00   		.ascii	"tm\000"
 2033 048a 0C       		.byte	0xc
 2034 048b D701     		.2byte	0x1d7
 2035 048d 0F060000 		.4byte	0x60f
 2036 0491 A004     		.2byte	0x4a0
 2037 0493 10       		.uleb128 0x10
 2038 0494 33000000 		.4byte	.LASF85
 2039 0498 0C       		.byte	0xc
 2040 0499 DD01     		.2byte	0x1dd
 2041 049b A1060000 		.4byte	0x6a1
ARM GAS  /tmp/ccZrWEni.s 			page 37


 2042 049f A804     		.2byte	0x4a8
 2043 04a1 10       		.uleb128 0x10
 2044 04a2 76000000 		.4byte	.LASF86
 2045 04a6 0C       		.byte	0xc
 2046 04a7 E301     		.2byte	0x1e3
 2047 04a9 94070000 		.4byte	0x794
 2048 04ad E004     		.2byte	0x4e0
 2049 04af 00       		.byte	0
 2050 04b0 04       		.uleb128 0x4
 2051 04b1 04       		.byte	0x4
 2052 04b2 07       		.byte	0x7
 2053 04b3 D3030000 		.4byte	.LASF87
 2054 04b7 03       		.uleb128 0x3
 2055 04b8 70020000 		.4byte	.LASF88
 2056 04bc 0D       		.byte	0xd
 2057 04bd 65       		.byte	0x65
 2058 04be 41030000 		.4byte	0x341
 2059 04c2 03       		.uleb128 0x3
 2060 04c3 BE030000 		.4byte	.LASF89
 2061 04c7 0D       		.byte	0xd
 2062 04c8 6D       		.byte	0x6d
 2063 04c9 BF000000 		.4byte	0xbf
 2064 04cd 06       		.uleb128 0x6
 2065 04ce 89060000 		.4byte	.LASF90
 2066 04d2 04       		.byte	0x4
 2067 04d3 0D       		.byte	0xd
 2068 04d4 89       		.byte	0x89
 2069 04d5 E6040000 		.4byte	0x4e6
 2070 04d9 12       		.uleb128 0x12
 2071 04da 72313300 		.ascii	"r13\000"
 2072 04de 0D       		.byte	0xd
 2073 04df 8A       		.byte	0x8a
 2074 04e0 61050000 		.4byte	0x561
 2075 04e4 00       		.byte	0
 2076 04e5 00       		.byte	0
 2077 04e6 06       		.uleb128 0x6
 2078 04e7 4A000000 		.4byte	.LASF91
 2079 04eb 24       		.byte	0x24
 2080 04ec 01       		.byte	0x1
 2081 04ed FD       		.byte	0xfd
 2082 04ee 61050000 		.4byte	0x561
 2083 04f2 08       		.uleb128 0x8
 2084 04f3 723400   		.ascii	"r4\000"
 2085 04f6 01       		.byte	0x1
 2086 04f7 1001     		.2byte	0x110
 2087 04f9 B7040000 		.4byte	0x4b7
 2088 04fd 00       		.byte	0
 2089 04fe 08       		.uleb128 0x8
 2090 04ff 723500   		.ascii	"r5\000"
 2091 0502 01       		.byte	0x1
 2092 0503 1101     		.2byte	0x111
 2093 0505 B7040000 		.4byte	0x4b7
 2094 0509 04       		.byte	0x4
 2095 050a 08       		.uleb128 0x8
 2096 050b 723600   		.ascii	"r6\000"
 2097 050e 01       		.byte	0x1
 2098 050f 1201     		.2byte	0x112
ARM GAS  /tmp/ccZrWEni.s 			page 38


 2099 0511 B7040000 		.4byte	0x4b7
 2100 0515 08       		.byte	0x8
 2101 0516 08       		.uleb128 0x8
 2102 0517 723700   		.ascii	"r7\000"
 2103 051a 01       		.byte	0x1
 2104 051b 1301     		.2byte	0x113
 2105 051d B7040000 		.4byte	0x4b7
 2106 0521 0C       		.byte	0xc
 2107 0522 08       		.uleb128 0x8
 2108 0523 723800   		.ascii	"r8\000"
 2109 0526 01       		.byte	0x1
 2110 0527 1401     		.2byte	0x114
 2111 0529 B7040000 		.4byte	0x4b7
 2112 052d 10       		.byte	0x10
 2113 052e 08       		.uleb128 0x8
 2114 052f 723900   		.ascii	"r9\000"
 2115 0532 01       		.byte	0x1
 2116 0533 1501     		.2byte	0x115
 2117 0535 B7040000 		.4byte	0x4b7
 2118 0539 14       		.byte	0x14
 2119 053a 08       		.uleb128 0x8
 2120 053b 72313000 		.ascii	"r10\000"
 2121 053f 01       		.byte	0x1
 2122 0540 1601     		.2byte	0x116
 2123 0542 B7040000 		.4byte	0x4b7
 2124 0546 18       		.byte	0x18
 2125 0547 08       		.uleb128 0x8
 2126 0548 72313100 		.ascii	"r11\000"
 2127 054c 01       		.byte	0x1
 2128 054d 1701     		.2byte	0x117
 2129 054f B7040000 		.4byte	0x4b7
 2130 0553 1C       		.byte	0x1c
 2131 0554 08       		.uleb128 0x8
 2132 0555 6C7200   		.ascii	"lr\000"
 2133 0558 01       		.byte	0x1
 2134 0559 1801     		.2byte	0x118
 2135 055b B7040000 		.4byte	0x4b7
 2136 055f 20       		.byte	0x20
 2137 0560 00       		.byte	0
 2138 0561 0A       		.uleb128 0xa
 2139 0562 04       		.byte	0x4
 2140 0563 E6040000 		.4byte	0x4e6
 2141 0567 13       		.uleb128 0x13
 2142 0568 10       		.byte	0x10
 2143 0569 0E       		.byte	0xe
 2144 056a 51       		.byte	0x51
 2145 056b A0050000 		.4byte	0x5a0
 2146 056f 07       		.uleb128 0x7
 2147 0570 14000000 		.4byte	.LASF92
 2148 0574 0E       		.byte	0xe
 2149 0575 55       		.byte	0x55
 2150 0576 3D010000 		.4byte	0x13d
 2151 057a 00       		.byte	0
 2152 057b 07       		.uleb128 0x7
 2153 057c 81010000 		.4byte	.LASF93
 2154 0580 0E       		.byte	0xe
 2155 0581 59       		.byte	0x59
ARM GAS  /tmp/ccZrWEni.s 			page 39


 2156 0582 64020000 		.4byte	0x264
 2157 0586 04       		.byte	0x4
 2158 0587 07       		.uleb128 0x7
 2159 0588 2D070000 		.4byte	.LASF94
 2160 058c 0E       		.byte	0xe
 2161 058d 5D       		.byte	0x5d
 2162 058e 41030000 		.4byte	0x341
 2163 0592 08       		.byte	0x8
 2164 0593 07       		.uleb128 0x7
 2165 0594 D1000000 		.4byte	.LASF95
 2166 0598 0E       		.byte	0xe
 2167 0599 61       		.byte	0x61
 2168 059a 9E000000 		.4byte	0x9e
 2169 059e 0C       		.byte	0xc
 2170 059f 00       		.byte	0
 2171 05a0 03       		.uleb128 0x3
 2172 05a1 0F040000 		.4byte	.LASF96
 2173 05a5 0E       		.byte	0xe
 2174 05a6 62       		.byte	0x62
 2175 05a7 67050000 		.4byte	0x567
 2176 05ab 14       		.uleb128 0x14
 2177 05ac 0804     		.2byte	0x408
 2178 05ae 0E       		.byte	0xe
 2179 05af 67       		.byte	0x67
 2180 05b0 D9050000 		.4byte	0x5d9
 2181 05b4 07       		.uleb128 0x7
 2182 05b5 60020000 		.4byte	.LASF97
 2183 05b9 0E       		.byte	0xe
 2184 05ba 6B       		.byte	0x6b
 2185 05bb 33000000 		.4byte	0x33
 2186 05bf 00       		.byte	0
 2187 05c0 07       		.uleb128 0x7
 2188 05c1 00000000 		.4byte	.LASF98
 2189 05c5 0E       		.byte	0xe
 2190 05c6 6F       		.byte	0x6f
 2191 05c7 D9050000 		.4byte	0x5d9
 2192 05cb 04       		.byte	0x4
 2193 05cc 07       		.uleb128 0x7
 2194 05cd C6040000 		.4byte	.LASF99
 2195 05d1 0E       		.byte	0xe
 2196 05d2 73       		.byte	0x73
 2197 05d3 DF050000 		.4byte	0x5df
 2198 05d7 08       		.byte	0x8
 2199 05d8 00       		.byte	0
 2200 05d9 0A       		.uleb128 0xa
 2201 05da 04       		.byte	0x4
 2202 05db A0050000 		.4byte	0x5a0
 2203 05df 15       		.uleb128 0x15
 2204 05e0 A0050000 		.4byte	0x5a0
 2205 05e4 EF050000 		.4byte	0x5ef
 2206 05e8 16       		.uleb128 0x16
 2207 05e9 B0040000 		.4byte	0x4b0
 2208 05ed 3F       		.byte	0x3f
 2209 05ee 00       		.byte	0
 2210 05ef 03       		.uleb128 0x3
 2211 05f0 BF000000 		.4byte	.LASF100
 2212 05f4 0E       		.byte	0xe
ARM GAS  /tmp/ccZrWEni.s 			page 40


 2213 05f5 74       		.byte	0x74
 2214 05f6 AB050000 		.4byte	0x5ab
 2215 05fa 13       		.uleb128 0x13
 2216 05fb 04       		.byte	0x4
 2217 05fc 0F       		.byte	0xf
 2218 05fd 38       		.byte	0x38
 2219 05fe 0F060000 		.4byte	0x60f
 2220 0602 07       		.uleb128 0x7
 2221 0603 82060000 		.4byte	.LASF101
 2222 0607 0F       		.byte	0xf
 2223 0608 3C       		.byte	0x3c
 2224 0609 CF000000 		.4byte	0xcf
 2225 060d 00       		.byte	0
 2226 060e 00       		.byte	0
 2227 060f 03       		.uleb128 0x3
 2228 0610 42040000 		.4byte	.LASF102
 2229 0614 0F       		.byte	0xf
 2230 0615 3D       		.byte	0x3d
 2231 0616 FA050000 		.4byte	0x5fa
 2232 061a 13       		.uleb128 0x13
 2233 061b 18       		.byte	0x18
 2234 061c 0F       		.byte	0xf
 2235 061d 48       		.byte	0x48
 2236 061e 5D060000 		.4byte	0x65d
 2237 0622 07       		.uleb128 0x7
 2238 0623 2F060000 		.4byte	.LASF103
 2239 0627 0F       		.byte	0xf
 2240 0628 49       		.byte	0x49
 2241 0629 CF000000 		.4byte	0xcf
 2242 062d 00       		.byte	0
 2243 062e 07       		.uleb128 0x7
 2244 062f 8F000000 		.4byte	.LASF104
 2245 0633 0F       		.byte	0xf
 2246 0634 4A       		.byte	0x4a
 2247 0635 CF000000 		.4byte	0xcf
 2248 0639 04       		.byte	0x4
 2249 063a 07       		.uleb128 0x7
 2250 063b 59030000 		.4byte	.LASF105
 2251 063f 0F       		.byte	0xf
 2252 0640 4B       		.byte	0x4b
 2253 0641 CF000000 		.4byte	0xcf
 2254 0645 08       		.byte	0x8
 2255 0646 12       		.uleb128 0x12
 2256 0647 6E00     		.ascii	"n\000"
 2257 0649 0F       		.byte	0xf
 2258 064a 4C       		.byte	0x4c
 2259 064b 32010000 		.4byte	0x132
 2260 064f 0C       		.byte	0xc
 2261 0650 07       		.uleb128 0x7
 2262 0651 B3040000 		.4byte	.LASF106
 2263 0655 0F       		.byte	0xf
 2264 0656 4D       		.byte	0x4d
 2265 0657 DA000000 		.4byte	0xda
 2266 065b 10       		.byte	0x10
 2267 065c 00       		.byte	0
 2268 065d 03       		.uleb128 0x3
 2269 065e 95000000 		.4byte	.LASF107
ARM GAS  /tmp/ccZrWEni.s 			page 41


 2270 0662 0F       		.byte	0xf
 2271 0663 4E       		.byte	0x4e
 2272 0664 1A060000 		.4byte	0x61a
 2273 0668 13       		.uleb128 0x13
 2274 0669 38       		.byte	0x38
 2275 066a 10       		.byte	0x10
 2276 066b 38       		.byte	0x38
 2277 066c A1060000 		.4byte	0x6a1
 2278 0670 07       		.uleb128 0x7
 2279 0671 0A030000 		.4byte	.LASF108
 2280 0675 10       		.byte	0x10
 2281 0676 39       		.byte	0x39
 2282 0677 32010000 		.4byte	0x132
 2283 067b 00       		.byte	0
 2284 067c 07       		.uleb128 0x7
 2285 067d F7040000 		.4byte	.LASF109
 2286 0681 10       		.byte	0x10
 2287 0682 3A       		.byte	0x3a
 2288 0683 32010000 		.4byte	0x132
 2289 0687 04       		.byte	0x4
 2290 0688 07       		.uleb128 0x7
 2291 0689 1A070000 		.4byte	.LASF110
 2292 068d 10       		.byte	0x10
 2293 068e 3B       		.byte	0x3b
 2294 068f 5D060000 		.4byte	0x65d
 2295 0693 08       		.byte	0x8
 2296 0694 07       		.uleb128 0x7
 2297 0695 85030000 		.4byte	.LASF111
 2298 0699 10       		.byte	0x10
 2299 069a 3D       		.byte	0x3d
 2300 069b 5D060000 		.4byte	0x65d
 2301 069f 20       		.byte	0x20
 2302 06a0 00       		.byte	0
 2303 06a1 03       		.uleb128 0x3
 2304 06a2 2E030000 		.4byte	.LASF112
 2305 06a6 10       		.byte	0x10
 2306 06a7 3F       		.byte	0x3f
 2307 06a8 68060000 		.4byte	0x668
 2308 06ac 17       		.uleb128 0x17
 2309 06ad 04       		.byte	0x4
 2310 06ae 0C       		.byte	0xc
 2311 06af FA       		.byte	0xfa
 2312 06b0 09070000 		.4byte	0x709
 2313 06b4 18       		.uleb128 0x18
 2314 06b5 23000000 		.4byte	.LASF113
 2315 06b9 0C       		.byte	0xc
 2316 06ba 0101     		.2byte	0x101
 2317 06bc 11010000 		.4byte	0x111
 2318 06c0 18       		.uleb128 0x18
 2319 06c1 DA000000 		.4byte	.LASF114
 2320 06c5 0C       		.byte	0xc
 2321 06c6 0801     		.2byte	0x108
 2322 06c8 11010000 		.4byte	0x111
 2323 06cc 18       		.uleb128 0x18
 2324 06cd DE060000 		.4byte	.LASF115
 2325 06d1 0C       		.byte	0xc
 2326 06d2 0F01     		.2byte	0x10f
ARM GAS  /tmp/ccZrWEni.s 			page 42


 2327 06d4 41030000 		.4byte	0x341
 2328 06d8 18       		.uleb128 0x18
 2329 06d9 5F010000 		.4byte	.LASF116
 2330 06dd 0C       		.byte	0xc
 2331 06de 1601     		.2byte	0x116
 2332 06e0 09070000 		.4byte	0x709
 2333 06e4 18       		.uleb128 0x18
 2334 06e5 E3020000 		.4byte	.LASF117
 2335 06e9 0C       		.byte	0xc
 2336 06ea 1E01     		.2byte	0x11e
 2337 06ec 34070000 		.4byte	0x734
 2338 06f0 18       		.uleb128 0x18
 2339 06f1 E7050000 		.4byte	.LASF118
 2340 06f5 0C       		.byte	0xc
 2341 06f6 2701     		.2byte	0x127
 2342 06f8 6B070000 		.4byte	0x76b
 2343 06fc 18       		.uleb128 0x18
 2344 06fd 5F050000 		.4byte	.LASF119
 2345 0701 0C       		.byte	0xc
 2346 0702 2F01     		.2byte	0x12f
 2347 0704 1C010000 		.4byte	0x11c
 2348 0708 00       		.byte	0
 2349 0709 0A       		.uleb128 0xa
 2350 070a 04       		.byte	0x4
 2351 070b 59020000 		.4byte	0x259
 2352 070f 06       		.uleb128 0x6
 2353 0710 C6050000 		.4byte	.LASF120
 2354 0714 0C       		.byte	0xc
 2355 0715 04       		.byte	0x4
 2356 0716 34       		.byte	0x34
 2357 0717 34070000 		.4byte	0x734
 2358 071b 07       		.uleb128 0x7
 2359 071c 46020000 		.4byte	.LASF121
 2360 0720 04       		.byte	0x4
 2361 0721 35       		.byte	0x35
 2362 0722 8E020000 		.4byte	0x28e
 2363 0726 00       		.byte	0
 2364 0727 07       		.uleb128 0x7
 2365 0728 10030000 		.4byte	.LASF122
 2366 072c 04       		.byte	0x4
 2367 072d 37       		.byte	0x37
 2368 072e 27010000 		.4byte	0x127
 2369 0732 08       		.byte	0x8
 2370 0733 00       		.byte	0
 2371 0734 0A       		.uleb128 0xa
 2372 0735 04       		.byte	0x4
 2373 0736 0F070000 		.4byte	0x70f
 2374 073a 06       		.uleb128 0x6
 2375 073b B8060000 		.4byte	.LASF123
 2376 073f 10       		.byte	0x10
 2377 0740 11       		.byte	0x11
 2378 0741 39       		.byte	0x39
 2379 0742 6B070000 		.4byte	0x76b
 2380 0746 07       		.uleb128 0x7
 2381 0747 44010000 		.4byte	.LASF124
 2382 074b 11       		.byte	0x11
 2383 074c 3A       		.byte	0x3a
ARM GAS  /tmp/ccZrWEni.s 			page 43


 2384 074d 8E020000 		.4byte	0x28e
 2385 0751 00       		.byte	0
 2386 0752 07       		.uleb128 0x7
 2387 0753 25070000 		.4byte	.LASF125
 2388 0757 11       		.byte	0x11
 2389 0758 3C       		.byte	0x3c
 2390 0759 64020000 		.4byte	0x264
 2391 075d 08       		.byte	0x8
 2392 075e 07       		.uleb128 0x7
 2393 075f 34060000 		.4byte	.LASF126
 2394 0763 11       		.byte	0x11
 2395 0764 3E       		.byte	0x3e
 2396 0765 BA070000 		.4byte	0x7ba
 2397 0769 0C       		.byte	0xc
 2398 076a 00       		.byte	0
 2399 076b 0A       		.uleb128 0xa
 2400 076c 04       		.byte	0x4
 2401 076d 3A070000 		.4byte	0x73a
 2402 0771 0A       		.uleb128 0xa
 2403 0772 04       		.byte	0x4
 2404 0773 77070000 		.4byte	0x777
 2405 0777 19       		.uleb128 0x19
 2406 0778 7C070000 		.4byte	0x77c
 2407 077c 04       		.uleb128 0x4
 2408 077d 01       		.byte	0x1
 2409 077e 08       		.byte	0x8
 2410 077f 21060000 		.4byte	.LASF127
 2411 0783 0A       		.uleb128 0xa
 2412 0784 04       		.byte	0x4
 2413 0785 C2040000 		.4byte	0x4c2
 2414 0789 0A       		.uleb128 0xa
 2415 078a 04       		.byte	0x4
 2416 078b 43030000 		.4byte	0x343
 2417 078f 05       		.uleb128 0x5
 2418 0790 71070000 		.4byte	0x771
 2419 0794 15       		.uleb128 0x15
 2420 0795 C2040000 		.4byte	0x4c2
 2421 0799 A4070000 		.4byte	0x7a4
 2422 079d 16       		.uleb128 0x16
 2423 079e B0040000 		.4byte	0x4b0
 2424 07a2 1E       		.byte	0x1e
 2425 07a3 00       		.byte	0
 2426 07a4 03       		.uleb128 0x3
 2427 07a5 90050000 		.4byte	.LASF128
 2428 07a9 04       		.byte	0x4
 2429 07aa 38       		.byte	0x38
 2430 07ab 0F070000 		.4byte	0x70f
 2431 07af 03       		.uleb128 0x3
 2432 07b0 91020000 		.4byte	.LASF129
 2433 07b4 11       		.byte	0x11
 2434 07b5 34       		.byte	0x34
 2435 07b6 3A070000 		.4byte	0x73a
 2436 07ba 0A       		.uleb128 0xa
 2437 07bb 04       		.byte	0x4
 2438 07bc AF070000 		.4byte	0x7af
 2439 07c0 13       		.uleb128 0x13
 2440 07c1 28       		.byte	0x28
ARM GAS  /tmp/ccZrWEni.s 			page 44


 2441 07c2 05       		.byte	0x5
 2442 07c3 38       		.byte	0x38
 2443 07c4 11080000 		.4byte	0x811
 2444 07c8 07       		.uleb128 0x7
 2445 07c9 59040000 		.4byte	.LASF130
 2446 07cd 05       		.byte	0x5
 2447 07ce 39       		.byte	0x39
 2448 07cf 11080000 		.4byte	0x811
 2449 07d3 00       		.byte	0
 2450 07d4 07       		.uleb128 0x7
 2451 07d5 28050000 		.4byte	.LASF131
 2452 07d9 05       		.byte	0x5
 2453 07da 3B       		.byte	0x3b
 2454 07db 11080000 		.4byte	0x811
 2455 07df 04       		.byte	0x4
 2456 07e0 07       		.uleb128 0x7
 2457 07e1 09010000 		.4byte	.LASF132
 2458 07e5 05       		.byte	0x5
 2459 07e6 3D       		.byte	0x3d
 2460 07e7 11080000 		.4byte	0x811
 2461 07eb 08       		.byte	0x8
 2462 07ec 07       		.uleb128 0x7
 2463 07ed 06040000 		.4byte	.LASF133
 2464 07f1 05       		.byte	0x5
 2465 07f2 3E       		.byte	0x3e
 2466 07f3 11080000 		.4byte	0x811
 2467 07f7 0C       		.byte	0xc
 2468 07f8 07       		.uleb128 0x7
 2469 07f9 A0060000 		.4byte	.LASF134
 2470 07fd 05       		.byte	0x5
 2471 07fe 3F       		.byte	0x3f
 2472 07ff A4070000 		.4byte	0x7a4
 2473 0803 10       		.byte	0x10
 2474 0804 07       		.uleb128 0x7
 2475 0805 FE020000 		.4byte	.LASF135
 2476 0809 05       		.byte	0x5
 2477 080a 41       		.byte	0x41
 2478 080b A4070000 		.4byte	0x7a4
 2479 080f 1C       		.byte	0x1c
 2480 0810 00       		.byte	0
 2481 0811 0A       		.uleb128 0xa
 2482 0812 04       		.byte	0x4
 2483 0813 11010000 		.4byte	0x111
 2484 0817 03       		.uleb128 0x3
 2485 0818 38040000 		.4byte	.LASF136
 2486 081c 05       		.byte	0x5
 2487 081d 43       		.byte	0x43
 2488 081e C0070000 		.4byte	0x7c0
 2489 0822 06       		.uleb128 0x6
 2490 0823 BD050000 		.4byte	.LASF137
 2491 0827 10       		.byte	0x10
 2492 0828 12       		.byte	0x12
 2493 0829 3B       		.byte	0x3b
 2494 082a 5F080000 		.4byte	0x85f
 2495 082e 07       		.uleb128 0x7
 2496 082f 16030000 		.4byte	.LASF138
 2497 0833 12       		.byte	0x12
ARM GAS  /tmp/ccZrWEni.s 			page 45


 2498 0834 3C       		.byte	0x3c
 2499 0835 71070000 		.4byte	0x771
 2500 0839 00       		.byte	0
 2501 083a 07       		.uleb128 0x7
 2502 083b 53040000 		.4byte	.LASF139
 2503 083f 12       		.byte	0x12
 2504 0840 3D       		.byte	0x3d
 2505 0841 60080000 		.4byte	0x860
 2506 0845 04       		.byte	0x4
 2507 0846 07       		.uleb128 0x7
 2508 0847 F5020000 		.4byte	.LASF140
 2509 084b 12       		.byte	0x12
 2510 084c 3E       		.byte	0x3e
 2511 084d 60080000 		.4byte	0x860
 2512 0851 08       		.byte	0x8
 2513 0852 07       		.uleb128 0x7
 2514 0853 E7040000 		.4byte	.LASF141
 2515 0857 12       		.byte	0x12
 2516 0858 3F       		.byte	0x3f
 2517 0859 60080000 		.4byte	0x860
 2518 085d 0C       		.byte	0xc
 2519 085e 00       		.byte	0
 2520 085f 1A       		.uleb128 0x1a
 2521 0860 0A       		.uleb128 0xa
 2522 0861 04       		.byte	0x4
 2523 0862 5F080000 		.4byte	0x85f
 2524 0866 14       		.uleb128 0x14
 2525 0867 0807     		.2byte	0x708
 2526 0869 12       		.byte	0x12
 2527 086a 44       		.byte	0x44
 2528 086b AB080000 		.4byte	0x8ab
 2529 086f 12       		.uleb128 0x12
 2530 0870 543000   		.ascii	"T0\000"
 2531 0873 12       		.byte	0x12
 2532 0874 45       		.byte	0x45
 2533 0875 AB080000 		.4byte	0x8ab
 2534 0879 00       		.byte	0
 2535 087a 1B       		.uleb128 0x1b
 2536 087b 543100   		.ascii	"T1\000"
 2537 087e 12       		.byte	0x12
 2538 087f 46       		.byte	0x46
 2539 0880 AB080000 		.4byte	0x8ab
 2540 0884 6801     		.2byte	0x168
 2541 0886 1B       		.uleb128 0x1b
 2542 0887 543200   		.ascii	"T2\000"
 2543 088a 12       		.byte	0x12
 2544 088b 47       		.byte	0x47
 2545 088c AB080000 		.4byte	0x8ab
 2546 0890 D002     		.2byte	0x2d0
 2547 0892 1B       		.uleb128 0x1b
 2548 0893 543300   		.ascii	"T3\000"
 2549 0896 12       		.byte	0x12
 2550 0897 48       		.byte	0x48
 2551 0898 AB080000 		.4byte	0x8ab
 2552 089c 3804     		.2byte	0x438
 2553 089e 1B       		.uleb128 0x1b
 2554 089f 543400   		.ascii	"T4\000"
ARM GAS  /tmp/ccZrWEni.s 			page 46


 2555 08a2 12       		.byte	0x12
 2556 08a3 49       		.byte	0x49
 2557 08a4 AB080000 		.4byte	0x8ab
 2558 08a8 A005     		.2byte	0x5a0
 2559 08aa 00       		.byte	0
 2560 08ab 15       		.uleb128 0x15
 2561 08ac C2040000 		.4byte	0x4c2
 2562 08b0 BB080000 		.4byte	0x8bb
 2563 08b4 16       		.uleb128 0x16
 2564 08b5 B0040000 		.4byte	0x4b0
 2565 08b9 2C       		.byte	0x2c
 2566 08ba 00       		.byte	0
 2567 08bb 1C       		.uleb128 0x1c
 2568 08bc AB060000 		.4byte	.LASF160
 2569 08c0 0807     		.2byte	0x708
 2570 08c2 12       		.byte	0x12
 2571 08c3 43       		.byte	0x43
 2572 08c4 DE080000 		.4byte	0x8de
 2573 08c8 1D       		.uleb128 0x1d
 2574 08c9 776100   		.ascii	"wa\000"
 2575 08cc 12       		.byte	0x12
 2576 08cd 4A       		.byte	0x4a
 2577 08ce 66080000 		.4byte	0x866
 2578 08d2 1E       		.uleb128 0x1e
 2579 08d3 37020000 		.4byte	.LASF142
 2580 08d7 12       		.byte	0x12
 2581 08d8 4B       		.byte	0x4b
 2582 08d9 DE080000 		.4byte	0x8de
 2583 08dd 00       		.byte	0
 2584 08de 15       		.uleb128 0x15
 2585 08df 9E000000 		.4byte	0x9e
 2586 08e3 EF080000 		.4byte	0x8ef
 2587 08e7 1F       		.uleb128 0x1f
 2588 08e8 B0040000 		.4byte	0x4b0
 2589 08ec 0707     		.2byte	0x707
 2590 08ee 00       		.byte	0
 2591 08ef 20       		.uleb128 0x20
 2592 08f0 6A060000 		.4byte	.LASF161
 2593 08f4 02       		.byte	0x2
 2594 08f5 2202     		.2byte	0x222
 2595 08f7 03       		.byte	0x3
 2596 08f8 09090000 		.4byte	0x909
 2597 08fc 21       		.uleb128 0x21
 2598 08fd 99020000 		.4byte	.LASF162
 2599 0901 02       		.byte	0x2
 2600 0902 2202     		.2byte	0x222
 2601 0904 B4000000 		.4byte	0xb4
 2602 0908 00       		.byte	0
 2603 0909 22       		.uleb128 0x22
 2604 090a 85000000 		.4byte	.LASF143
 2605 090e 01       		.byte	0x1
 2606 090f C801     		.2byte	0x1c8
 2607 0911 00000000 		.4byte	.LFB127
 2608 0915 10000000 		.4byte	.LFE127-.LFB127
 2609 0919 01       		.uleb128 0x1
 2610 091a 9C       		.byte	0x9c
 2611 091b 39090000 		.4byte	0x939
ARM GAS  /tmp/ccZrWEni.s 			page 47


 2612 091f 23       		.uleb128 0x23
 2613 0920 EF080000 		.4byte	0x8ef
 2614 0924 06000000 		.4byte	.LBB6
 2615 0928 06000000 		.4byte	.LBE6-.LBB6
 2616 092c 01       		.byte	0x1
 2617 092d CB01     		.2byte	0x1cb
 2618 092f 24       		.uleb128 0x24
 2619 0930 FC080000 		.4byte	0x8fc
 2620 0934 02       		.uleb128 0x2
 2621 0935 91       		.byte	0x91
 2622 0936 7C       		.sleb128 -4
 2623 0937 00       		.byte	0
 2624 0938 00       		.byte	0
 2625 0939 22       		.uleb128 0x22
 2626 093a 53010000 		.4byte	.LASF144
 2627 093e 01       		.byte	0x1
 2628 093f D601     		.2byte	0x1d6
 2629 0941 00000000 		.4byte	.LFB128
 2630 0945 10000000 		.4byte	.LFE128-.LFB128
 2631 0949 01       		.uleb128 0x1
 2632 094a 9C       		.byte	0x9c
 2633 094b 69090000 		.4byte	0x969
 2634 094f 23       		.uleb128 0x23
 2635 0950 EF080000 		.4byte	0x8ef
 2636 0954 06000000 		.4byte	.LBB8
 2637 0958 06000000 		.4byte	.LBE8-.LBB8
 2638 095c 01       		.byte	0x1
 2639 095d D901     		.2byte	0x1d9
 2640 095f 24       		.uleb128 0x24
 2641 0960 FC080000 		.4byte	0x8fc
 2642 0964 02       		.uleb128 0x2
 2643 0965 91       		.byte	0x91
 2644 0966 7C       		.sleb128 -4
 2645 0967 00       		.byte	0
 2646 0968 00       		.byte	0
 2647 0969 25       		.uleb128 0x25
 2648 096a 86050000 		.4byte	.LASF149
 2649 096e 03       		.byte	0x3
 2650 096f 5A01     		.2byte	0x15a
 2651 0971 00000000 		.4byte	.LFB167
 2652 0975 10000000 		.4byte	.LFE167-.LFB167
 2653 0979 01       		.uleb128 0x1
 2654 097a 9C       		.byte	0x9c
 2655 097b 26       		.uleb128 0x26
 2656 097c 08070000 		.4byte	.LASF145
 2657 0980 03       		.byte	0x3
 2658 0981 6601     		.2byte	0x166
 2659 0983 00000000 		.4byte	.LFB168
 2660 0987 38000000 		.4byte	.LFE168-.LFB168
 2661 098b 01       		.uleb128 0x1
 2662 098c 9C       		.byte	0x9c
 2663 098d A1090000 		.4byte	0x9a1
 2664 0991 27       		.uleb128 0x27
 2665 0992 75050000 		.4byte	.LASF163
 2666 0996 B1090000 		.4byte	0x9b1
 2667 099a 05       		.uleb128 0x5
 2668 099b 03       		.byte	0x3
ARM GAS  /tmp/ccZrWEni.s 			page 48


 2669 099c 00000000 		.4byte	__func__.5925
 2670 09a0 00       		.byte	0
 2671 09a1 15       		.uleb128 0x15
 2672 09a2 7C070000 		.4byte	0x77c
 2673 09a6 B1090000 		.4byte	0x9b1
 2674 09aa 16       		.uleb128 0x16
 2675 09ab B0040000 		.4byte	0x4b0
 2676 09af 0B       		.byte	0xb
 2677 09b0 00       		.byte	0
 2678 09b1 19       		.uleb128 0x19
 2679 09b2 A1090000 		.4byte	0x9a1
 2680 09b6 28       		.uleb128 0x28
 2681 09b7 59060000 		.4byte	.LASF146
 2682 09bb 04       		.byte	0x4
 2683 09bc 95       		.byte	0x95
 2684 09bd 27010000 		.4byte	0x127
 2685 09c1 00000000 		.4byte	.LFB202
 2686 09c5 16000000 		.4byte	.LFE202-.LFB202
 2687 09c9 01       		.uleb128 0x1
 2688 09ca 9C       		.byte	0x9c
 2689 09cb DD090000 		.4byte	0x9dd
 2690 09cf 29       		.uleb128 0x29
 2691 09d0 737000   		.ascii	"sp\000"
 2692 09d3 04       		.byte	0x4
 2693 09d4 95       		.byte	0x95
 2694 09d5 DD090000 		.4byte	0x9dd
 2695 09d9 02       		.uleb128 0x2
 2696 09da 91       		.byte	0x91
 2697 09db 74       		.sleb128 -12
 2698 09dc 00       		.byte	0
 2699 09dd 0A       		.uleb128 0xa
 2700 09de 04       		.byte	0x4
 2701 09df A4070000 		.4byte	0x7a4
 2702 09e3 28       		.uleb128 0x28
 2703 09e4 4E020000 		.4byte	.LASF147
 2704 09e8 05       		.byte	0x5
 2705 09e9 9E       		.byte	0x9e
 2706 09ea 27010000 		.4byte	0x127
 2707 09ee 00000000 		.4byte	.LFB225
 2708 09f2 1E000000 		.4byte	.LFE225-.LFB225
 2709 09f6 01       		.uleb128 0x1
 2710 09f7 9C       		.byte	0x9c
 2711 09f8 0B0A0000 		.4byte	0xa0b
 2712 09fc 29       		.uleb128 0x29
 2713 09fd 6D627000 		.ascii	"mbp\000"
 2714 0a01 05       		.byte	0x5
 2715 0a02 9E       		.byte	0x9e
 2716 0a03 0B0A0000 		.4byte	0xa0b
 2717 0a07 02       		.uleb128 0x2
 2718 0a08 91       		.byte	0x91
 2719 0a09 74       		.sleb128 -12
 2720 0a0a 00       		.byte	0
 2721 0a0b 0A       		.uleb128 0xa
 2722 0a0c 04       		.byte	0x4
 2723 0a0d 17080000 		.4byte	0x817
 2724 0a11 28       		.uleb128 0x28
 2725 0a12 16050000 		.4byte	.LASF148
ARM GAS  /tmp/ccZrWEni.s 			page 49


 2726 0a16 05       		.byte	0x5
 2727 0a17 B1       		.byte	0xb1
 2728 0a18 27010000 		.4byte	0x127
 2729 0a1c 00000000 		.4byte	.LFB226
 2730 0a20 1E000000 		.4byte	.LFE226-.LFB226
 2731 0a24 01       		.uleb128 0x1
 2732 0a25 9C       		.byte	0x9c
 2733 0a26 390A0000 		.4byte	0xa39
 2734 0a2a 29       		.uleb128 0x29
 2735 0a2b 6D627000 		.ascii	"mbp\000"
 2736 0a2f 05       		.byte	0x5
 2737 0a30 B1       		.byte	0xb1
 2738 0a31 0B0A0000 		.4byte	0xa0b
 2739 0a35 02       		.uleb128 0x2
 2740 0a36 91       		.byte	0x91
 2741 0a37 74       		.sleb128 -12
 2742 0a38 00       		.byte	0
 2743 0a39 2A       		.uleb128 0x2a
 2744 0a3a 79030000 		.4byte	.LASF150
 2745 0a3e 06       		.byte	0x6
 2746 0a3f 47       		.byte	0x47
 2747 0a40 00000000 		.4byte	.LFB240
 2748 0a44 18000000 		.4byte	.LFE240-.LFB240
 2749 0a48 01       		.uleb128 0x1
 2750 0a49 9C       		.byte	0x9c
 2751 0a4a 2B       		.uleb128 0x2b
 2752 0a4b 63040000 		.4byte	.LASF151
 2753 0a4f 06       		.byte	0x6
 2754 0a50 4C       		.byte	0x4c
 2755 0a51 00000000 		.4byte	.LFB241
 2756 0a55 1C080000 		.4byte	.LFE241-.LFB241
 2757 0a59 01       		.uleb128 0x1
 2758 0a5a 9C       		.byte	0x9c
 2759 0a5b 880A0000 		.4byte	0xa88
 2760 0a5f 2C       		.uleb128 0x2c
 2761 0a60 D9020000 		.4byte	.LASF152
 2762 0a64 06       		.byte	0x6
 2763 0a65 4D       		.byte	0x4d
 2764 0a66 11010000 		.4byte	0x111
 2765 0a6a 02       		.uleb128 0x2
 2766 0a6b 91       		.byte	0x91
 2767 0a6c 70       		.sleb128 -16
 2768 0a6d 2C       		.uleb128 0x2c
 2769 0a6e DE020000 		.4byte	.LASF153
 2770 0a72 06       		.byte	0x6
 2771 0a73 4D       		.byte	0x4d
 2772 0a74 11010000 		.4byte	0x111
 2773 0a78 02       		.uleb128 0x2
 2774 0a79 91       		.byte	0x91
 2775 0a7a 6C       		.sleb128 -20
 2776 0a7b 2D       		.uleb128 0x2d
 2777 0a7c 6900     		.ascii	"i\000"
 2778 0a7e 06       		.byte	0x6
 2779 0a7f 4E       		.byte	0x4e
 2780 0a80 33000000 		.4byte	0x33
 2781 0a84 02       		.uleb128 0x2
 2782 0a85 91       		.byte	0x91
ARM GAS  /tmp/ccZrWEni.s 			page 50


 2783 0a86 74       		.sleb128 -12
 2784 0a87 00       		.byte	0
 2785 0a88 2D       		.uleb128 0x2d
 2786 0a89 6D623100 		.ascii	"mb1\000"
 2787 0a8d 06       		.byte	0x6
 2788 0a8e 3C       		.byte	0x3c
 2789 0a8f 17080000 		.4byte	0x817
 2790 0a93 05       		.uleb128 0x5
 2791 0a94 03       		.byte	0x3
 2792 0a95 00000000 		.4byte	mb1
 2793 0a99 2E       		.uleb128 0x2e
 2794 0a9a 2F050000 		.4byte	.LASF154
 2795 0a9e 13       		.byte	0x13
 2796 0a9f FA06     		.2byte	0x6fa
 2797 0aa1 CA000000 		.4byte	0xca
 2798 0aa5 2F       		.uleb128 0x2f
 2799 0aa6 636800   		.ascii	"ch\000"
 2800 0aa9 0C       		.byte	0xc
 2801 0aaa 0902     		.2byte	0x209
 2802 0aac 38040000 		.4byte	0x438
 2803 0ab0 30       		.uleb128 0x30
 2804 0ab1 EE000000 		.4byte	.LASF155
 2805 0ab5 12       		.byte	0x12
 2806 0ab6 A8       		.byte	0xa8
 2807 0ab7 BB080000 		.4byte	0x8bb
 2808 0abb 31       		.uleb128 0x31
 2809 0abc B4030000 		.4byte	.LASF156
 2810 0ac0 06       		.byte	0x6
 2811 0ac1 DE       		.byte	0xde
 2812 0ac2 CC0A0000 		.4byte	0xacc
 2813 0ac6 05       		.uleb128 0x5
 2814 0ac7 03       		.byte	0x3
 2815 0ac8 00000000 		.4byte	testmbox1
 2816 0acc 19       		.uleb128 0x19
 2817 0acd 22080000 		.4byte	0x822
 2818 0ad1 15       		.uleb128 0x15
 2819 0ad2 E10A0000 		.4byte	0xae1
 2820 0ad6 E10A0000 		.4byte	0xae1
 2821 0ada 16       		.uleb128 0x16
 2822 0adb B0040000 		.4byte	0x4b0
 2823 0adf 01       		.byte	0x1
 2824 0ae0 00       		.byte	0
 2825 0ae1 0A       		.uleb128 0xa
 2826 0ae2 04       		.byte	0x4
 2827 0ae3 CC0A0000 		.4byte	0xacc
 2828 0ae7 31       		.uleb128 0x31
 2829 0ae8 47030000 		.4byte	.LASF157
 2830 0aec 06       		.byte	0x6
 2831 0aed EA       		.byte	0xea
 2832 0aee F80A0000 		.4byte	0xaf8
 2833 0af2 05       		.uleb128 0x5
 2834 0af3 03       		.byte	0x3
 2835 0af4 00000000 		.4byte	patternmbox
 2836 0af8 19       		.uleb128 0x19
 2837 0af9 D10A0000 		.4byte	0xad1
 2838 0afd 00       		.byte	0
 2839              		.section	.debug_abbrev,"",%progbits
ARM GAS  /tmp/ccZrWEni.s 			page 51


 2840              	.Ldebug_abbrev0:
 2841 0000 01       		.uleb128 0x1
 2842 0001 11       		.uleb128 0x11
 2843 0002 01       		.byte	0x1
 2844 0003 25       		.uleb128 0x25
 2845 0004 0E       		.uleb128 0xe
 2846 0005 13       		.uleb128 0x13
 2847 0006 0B       		.uleb128 0xb
 2848 0007 03       		.uleb128 0x3
 2849 0008 0E       		.uleb128 0xe
 2850 0009 55       		.uleb128 0x55
 2851 000a 17       		.uleb128 0x17
 2852 000b 11       		.uleb128 0x11
 2853 000c 01       		.uleb128 0x1
 2854 000d 10       		.uleb128 0x10
 2855 000e 17       		.uleb128 0x17
 2856 000f 00       		.byte	0
 2857 0010 00       		.byte	0
 2858 0011 02       		.uleb128 0x2
 2859 0012 24       		.uleb128 0x24
 2860 0013 00       		.byte	0
 2861 0014 0B       		.uleb128 0xb
 2862 0015 0B       		.uleb128 0xb
 2863 0016 3E       		.uleb128 0x3e
 2864 0017 0B       		.uleb128 0xb
 2865 0018 03       		.uleb128 0x3
 2866 0019 08       		.uleb128 0x8
 2867 001a 00       		.byte	0
 2868 001b 00       		.byte	0
 2869 001c 03       		.uleb128 0x3
 2870 001d 16       		.uleb128 0x16
 2871 001e 00       		.byte	0
 2872 001f 03       		.uleb128 0x3
 2873 0020 0E       		.uleb128 0xe
 2874 0021 3A       		.uleb128 0x3a
 2875 0022 0B       		.uleb128 0xb
 2876 0023 3B       		.uleb128 0x3b
 2877 0024 0B       		.uleb128 0xb
 2878 0025 49       		.uleb128 0x49
 2879 0026 13       		.uleb128 0x13
 2880 0027 00       		.byte	0
 2881 0028 00       		.byte	0
 2882 0029 04       		.uleb128 0x4
 2883 002a 24       		.uleb128 0x24
 2884 002b 00       		.byte	0
 2885 002c 0B       		.uleb128 0xb
 2886 002d 0B       		.uleb128 0xb
 2887 002e 3E       		.uleb128 0x3e
 2888 002f 0B       		.uleb128 0xb
 2889 0030 03       		.uleb128 0x3
 2890 0031 0E       		.uleb128 0xe
 2891 0032 00       		.byte	0
 2892 0033 00       		.byte	0
 2893 0034 05       		.uleb128 0x5
 2894 0035 35       		.uleb128 0x35
 2895 0036 00       		.byte	0
 2896 0037 49       		.uleb128 0x49
ARM GAS  /tmp/ccZrWEni.s 			page 52


 2897 0038 13       		.uleb128 0x13
 2898 0039 00       		.byte	0
 2899 003a 00       		.byte	0
 2900 003b 06       		.uleb128 0x6
 2901 003c 13       		.uleb128 0x13
 2902 003d 01       		.byte	0x1
 2903 003e 03       		.uleb128 0x3
 2904 003f 0E       		.uleb128 0xe
 2905 0040 0B       		.uleb128 0xb
 2906 0041 0B       		.uleb128 0xb
 2907 0042 3A       		.uleb128 0x3a
 2908 0043 0B       		.uleb128 0xb
 2909 0044 3B       		.uleb128 0x3b
 2910 0045 0B       		.uleb128 0xb
 2911 0046 01       		.uleb128 0x1
 2912 0047 13       		.uleb128 0x13
 2913 0048 00       		.byte	0
 2914 0049 00       		.byte	0
 2915 004a 07       		.uleb128 0x7
 2916 004b 0D       		.uleb128 0xd
 2917 004c 00       		.byte	0
 2918 004d 03       		.uleb128 0x3
 2919 004e 0E       		.uleb128 0xe
 2920 004f 3A       		.uleb128 0x3a
 2921 0050 0B       		.uleb128 0xb
 2922 0051 3B       		.uleb128 0x3b
 2923 0052 0B       		.uleb128 0xb
 2924 0053 49       		.uleb128 0x49
 2925 0054 13       		.uleb128 0x13
 2926 0055 38       		.uleb128 0x38
 2927 0056 0B       		.uleb128 0xb
 2928 0057 00       		.byte	0
 2929 0058 00       		.byte	0
 2930 0059 08       		.uleb128 0x8
 2931 005a 0D       		.uleb128 0xd
 2932 005b 00       		.byte	0
 2933 005c 03       		.uleb128 0x3
 2934 005d 08       		.uleb128 0x8
 2935 005e 3A       		.uleb128 0x3a
 2936 005f 0B       		.uleb128 0xb
 2937 0060 3B       		.uleb128 0x3b
 2938 0061 05       		.uleb128 0x5
 2939 0062 49       		.uleb128 0x49
 2940 0063 13       		.uleb128 0x13
 2941 0064 38       		.uleb128 0x38
 2942 0065 0B       		.uleb128 0xb
 2943 0066 00       		.byte	0
 2944 0067 00       		.byte	0
 2945 0068 09       		.uleb128 0x9
 2946 0069 0D       		.uleb128 0xd
 2947 006a 00       		.byte	0
 2948 006b 03       		.uleb128 0x3
 2949 006c 0E       		.uleb128 0xe
 2950 006d 3A       		.uleb128 0x3a
 2951 006e 0B       		.uleb128 0xb
 2952 006f 3B       		.uleb128 0x3b
 2953 0070 05       		.uleb128 0x5
ARM GAS  /tmp/ccZrWEni.s 			page 53


 2954 0071 49       		.uleb128 0x49
 2955 0072 13       		.uleb128 0x13
 2956 0073 38       		.uleb128 0x38
 2957 0074 0B       		.uleb128 0xb
 2958 0075 00       		.byte	0
 2959 0076 00       		.byte	0
 2960 0077 0A       		.uleb128 0xa
 2961 0078 0F       		.uleb128 0xf
 2962 0079 00       		.byte	0
 2963 007a 0B       		.uleb128 0xb
 2964 007b 0B       		.uleb128 0xb
 2965 007c 49       		.uleb128 0x49
 2966 007d 13       		.uleb128 0x13
 2967 007e 00       		.byte	0
 2968 007f 00       		.byte	0
 2969 0080 0B       		.uleb128 0xb
 2970 0081 13       		.uleb128 0x13
 2971 0082 01       		.byte	0x1
 2972 0083 03       		.uleb128 0x3
 2973 0084 0E       		.uleb128 0xe
 2974 0085 0B       		.uleb128 0xb
 2975 0086 0B       		.uleb128 0xb
 2976 0087 3A       		.uleb128 0x3a
 2977 0088 0B       		.uleb128 0xb
 2978 0089 3B       		.uleb128 0x3b
 2979 008a 05       		.uleb128 0x5
 2980 008b 01       		.uleb128 0x1
 2981 008c 13       		.uleb128 0x13
 2982 008d 00       		.byte	0
 2983 008e 00       		.byte	0
 2984 008f 0C       		.uleb128 0xc
 2985 0090 15       		.uleb128 0x15
 2986 0091 01       		.byte	0x1
 2987 0092 27       		.uleb128 0x27
 2988 0093 19       		.uleb128 0x19
 2989 0094 01       		.uleb128 0x1
 2990 0095 13       		.uleb128 0x13
 2991 0096 00       		.byte	0
 2992 0097 00       		.byte	0
 2993 0098 0D       		.uleb128 0xd
 2994 0099 05       		.uleb128 0x5
 2995 009a 00       		.byte	0
 2996 009b 49       		.uleb128 0x49
 2997 009c 13       		.uleb128 0x13
 2998 009d 00       		.byte	0
 2999 009e 00       		.byte	0
 3000 009f 0E       		.uleb128 0xe
 3001 00a0 0F       		.uleb128 0xf
 3002 00a1 00       		.byte	0
 3003 00a2 0B       		.uleb128 0xb
 3004 00a3 0B       		.uleb128 0xb
 3005 00a4 00       		.byte	0
 3006 00a5 00       		.byte	0
 3007 00a6 0F       		.uleb128 0xf
 3008 00a7 13       		.uleb128 0x13
 3009 00a8 01       		.byte	0x1
 3010 00a9 03       		.uleb128 0x3
ARM GAS  /tmp/ccZrWEni.s 			page 54


 3011 00aa 0E       		.uleb128 0xe
 3012 00ab 0B       		.uleb128 0xb
 3013 00ac 05       		.uleb128 0x5
 3014 00ad 3A       		.uleb128 0x3a
 3015 00ae 0B       		.uleb128 0xb
 3016 00af 3B       		.uleb128 0x3b
 3017 00b0 05       		.uleb128 0x5
 3018 00b1 01       		.uleb128 0x1
 3019 00b2 13       		.uleb128 0x13
 3020 00b3 00       		.byte	0
 3021 00b4 00       		.byte	0
 3022 00b5 10       		.uleb128 0x10
 3023 00b6 0D       		.uleb128 0xd
 3024 00b7 00       		.byte	0
 3025 00b8 03       		.uleb128 0x3
 3026 00b9 0E       		.uleb128 0xe
 3027 00ba 3A       		.uleb128 0x3a
 3028 00bb 0B       		.uleb128 0xb
 3029 00bc 3B       		.uleb128 0x3b
 3030 00bd 05       		.uleb128 0x5
 3031 00be 49       		.uleb128 0x49
 3032 00bf 13       		.uleb128 0x13
 3033 00c0 38       		.uleb128 0x38
 3034 00c1 05       		.uleb128 0x5
 3035 00c2 00       		.byte	0
 3036 00c3 00       		.byte	0
 3037 00c4 11       		.uleb128 0x11
 3038 00c5 0D       		.uleb128 0xd
 3039 00c6 00       		.byte	0
 3040 00c7 03       		.uleb128 0x3
 3041 00c8 08       		.uleb128 0x8
 3042 00c9 3A       		.uleb128 0x3a
 3043 00ca 0B       		.uleb128 0xb
 3044 00cb 3B       		.uleb128 0x3b
 3045 00cc 05       		.uleb128 0x5
 3046 00cd 49       		.uleb128 0x49
 3047 00ce 13       		.uleb128 0x13
 3048 00cf 38       		.uleb128 0x38
 3049 00d0 05       		.uleb128 0x5
 3050 00d1 00       		.byte	0
 3051 00d2 00       		.byte	0
 3052 00d3 12       		.uleb128 0x12
 3053 00d4 0D       		.uleb128 0xd
 3054 00d5 00       		.byte	0
 3055 00d6 03       		.uleb128 0x3
 3056 00d7 08       		.uleb128 0x8
 3057 00d8 3A       		.uleb128 0x3a
 3058 00d9 0B       		.uleb128 0xb
 3059 00da 3B       		.uleb128 0x3b
 3060 00db 0B       		.uleb128 0xb
 3061 00dc 49       		.uleb128 0x49
 3062 00dd 13       		.uleb128 0x13
 3063 00de 38       		.uleb128 0x38
 3064 00df 0B       		.uleb128 0xb
 3065 00e0 00       		.byte	0
 3066 00e1 00       		.byte	0
 3067 00e2 13       		.uleb128 0x13
ARM GAS  /tmp/ccZrWEni.s 			page 55


 3068 00e3 13       		.uleb128 0x13
 3069 00e4 01       		.byte	0x1
 3070 00e5 0B       		.uleb128 0xb
 3071 00e6 0B       		.uleb128 0xb
 3072 00e7 3A       		.uleb128 0x3a
 3073 00e8 0B       		.uleb128 0xb
 3074 00e9 3B       		.uleb128 0x3b
 3075 00ea 0B       		.uleb128 0xb
 3076 00eb 01       		.uleb128 0x1
 3077 00ec 13       		.uleb128 0x13
 3078 00ed 00       		.byte	0
 3079 00ee 00       		.byte	0
 3080 00ef 14       		.uleb128 0x14
 3081 00f0 13       		.uleb128 0x13
 3082 00f1 01       		.byte	0x1
 3083 00f2 0B       		.uleb128 0xb
 3084 00f3 05       		.uleb128 0x5
 3085 00f4 3A       		.uleb128 0x3a
 3086 00f5 0B       		.uleb128 0xb
 3087 00f6 3B       		.uleb128 0x3b
 3088 00f7 0B       		.uleb128 0xb
 3089 00f8 01       		.uleb128 0x1
 3090 00f9 13       		.uleb128 0x13
 3091 00fa 00       		.byte	0
 3092 00fb 00       		.byte	0
 3093 00fc 15       		.uleb128 0x15
 3094 00fd 01       		.uleb128 0x1
 3095 00fe 01       		.byte	0x1
 3096 00ff 49       		.uleb128 0x49
 3097 0100 13       		.uleb128 0x13
 3098 0101 01       		.uleb128 0x1
 3099 0102 13       		.uleb128 0x13
 3100 0103 00       		.byte	0
 3101 0104 00       		.byte	0
 3102 0105 16       		.uleb128 0x16
 3103 0106 21       		.uleb128 0x21
 3104 0107 00       		.byte	0
 3105 0108 49       		.uleb128 0x49
 3106 0109 13       		.uleb128 0x13
 3107 010a 2F       		.uleb128 0x2f
 3108 010b 0B       		.uleb128 0xb
 3109 010c 00       		.byte	0
 3110 010d 00       		.byte	0
 3111 010e 17       		.uleb128 0x17
 3112 010f 17       		.uleb128 0x17
 3113 0110 01       		.byte	0x1
 3114 0111 0B       		.uleb128 0xb
 3115 0112 0B       		.uleb128 0xb
 3116 0113 3A       		.uleb128 0x3a
 3117 0114 0B       		.uleb128 0xb
 3118 0115 3B       		.uleb128 0x3b
 3119 0116 0B       		.uleb128 0xb
 3120 0117 01       		.uleb128 0x1
 3121 0118 13       		.uleb128 0x13
 3122 0119 00       		.byte	0
 3123 011a 00       		.byte	0
 3124 011b 18       		.uleb128 0x18
ARM GAS  /tmp/ccZrWEni.s 			page 56


 3125 011c 0D       		.uleb128 0xd
 3126 011d 00       		.byte	0
 3127 011e 03       		.uleb128 0x3
 3128 011f 0E       		.uleb128 0xe
 3129 0120 3A       		.uleb128 0x3a
 3130 0121 0B       		.uleb128 0xb
 3131 0122 3B       		.uleb128 0x3b
 3132 0123 05       		.uleb128 0x5
 3133 0124 49       		.uleb128 0x49
 3134 0125 13       		.uleb128 0x13
 3135 0126 00       		.byte	0
 3136 0127 00       		.byte	0
 3137 0128 19       		.uleb128 0x19
 3138 0129 26       		.uleb128 0x26
 3139 012a 00       		.byte	0
 3140 012b 49       		.uleb128 0x49
 3141 012c 13       		.uleb128 0x13
 3142 012d 00       		.byte	0
 3143 012e 00       		.byte	0
 3144 012f 1A       		.uleb128 0x1a
 3145 0130 15       		.uleb128 0x15
 3146 0131 00       		.byte	0
 3147 0132 27       		.uleb128 0x27
 3148 0133 19       		.uleb128 0x19
 3149 0134 00       		.byte	0
 3150 0135 00       		.byte	0
 3151 0136 1B       		.uleb128 0x1b
 3152 0137 0D       		.uleb128 0xd
 3153 0138 00       		.byte	0
 3154 0139 03       		.uleb128 0x3
 3155 013a 08       		.uleb128 0x8
 3156 013b 3A       		.uleb128 0x3a
 3157 013c 0B       		.uleb128 0xb
 3158 013d 3B       		.uleb128 0x3b
 3159 013e 0B       		.uleb128 0xb
 3160 013f 49       		.uleb128 0x49
 3161 0140 13       		.uleb128 0x13
 3162 0141 38       		.uleb128 0x38
 3163 0142 05       		.uleb128 0x5
 3164 0143 00       		.byte	0
 3165 0144 00       		.byte	0
 3166 0145 1C       		.uleb128 0x1c
 3167 0146 17       		.uleb128 0x17
 3168 0147 01       		.byte	0x1
 3169 0148 03       		.uleb128 0x3
 3170 0149 0E       		.uleb128 0xe
 3171 014a 0B       		.uleb128 0xb
 3172 014b 05       		.uleb128 0x5
 3173 014c 3A       		.uleb128 0x3a
 3174 014d 0B       		.uleb128 0xb
 3175 014e 3B       		.uleb128 0x3b
 3176 014f 0B       		.uleb128 0xb
 3177 0150 01       		.uleb128 0x1
 3178 0151 13       		.uleb128 0x13
 3179 0152 00       		.byte	0
 3180 0153 00       		.byte	0
 3181 0154 1D       		.uleb128 0x1d
ARM GAS  /tmp/ccZrWEni.s 			page 57


 3182 0155 0D       		.uleb128 0xd
 3183 0156 00       		.byte	0
 3184 0157 03       		.uleb128 0x3
 3185 0158 08       		.uleb128 0x8
 3186 0159 3A       		.uleb128 0x3a
 3187 015a 0B       		.uleb128 0xb
 3188 015b 3B       		.uleb128 0x3b
 3189 015c 0B       		.uleb128 0xb
 3190 015d 49       		.uleb128 0x49
 3191 015e 13       		.uleb128 0x13
 3192 015f 00       		.byte	0
 3193 0160 00       		.byte	0
 3194 0161 1E       		.uleb128 0x1e
 3195 0162 0D       		.uleb128 0xd
 3196 0163 00       		.byte	0
 3197 0164 03       		.uleb128 0x3
 3198 0165 0E       		.uleb128 0xe
 3199 0166 3A       		.uleb128 0x3a
 3200 0167 0B       		.uleb128 0xb
 3201 0168 3B       		.uleb128 0x3b
 3202 0169 0B       		.uleb128 0xb
 3203 016a 49       		.uleb128 0x49
 3204 016b 13       		.uleb128 0x13
 3205 016c 00       		.byte	0
 3206 016d 00       		.byte	0
 3207 016e 1F       		.uleb128 0x1f
 3208 016f 21       		.uleb128 0x21
 3209 0170 00       		.byte	0
 3210 0171 49       		.uleb128 0x49
 3211 0172 13       		.uleb128 0x13
 3212 0173 2F       		.uleb128 0x2f
 3213 0174 05       		.uleb128 0x5
 3214 0175 00       		.byte	0
 3215 0176 00       		.byte	0
 3216 0177 20       		.uleb128 0x20
 3217 0178 2E       		.uleb128 0x2e
 3218 0179 01       		.byte	0x1
 3219 017a 03       		.uleb128 0x3
 3220 017b 0E       		.uleb128 0xe
 3221 017c 3A       		.uleb128 0x3a
 3222 017d 0B       		.uleb128 0xb
 3223 017e 3B       		.uleb128 0x3b
 3224 017f 05       		.uleb128 0x5
 3225 0180 27       		.uleb128 0x27
 3226 0181 19       		.uleb128 0x19
 3227 0182 20       		.uleb128 0x20
 3228 0183 0B       		.uleb128 0xb
 3229 0184 01       		.uleb128 0x1
 3230 0185 13       		.uleb128 0x13
 3231 0186 00       		.byte	0
 3232 0187 00       		.byte	0
 3233 0188 21       		.uleb128 0x21
 3234 0189 05       		.uleb128 0x5
 3235 018a 00       		.byte	0
 3236 018b 03       		.uleb128 0x3
 3237 018c 0E       		.uleb128 0xe
 3238 018d 3A       		.uleb128 0x3a
ARM GAS  /tmp/ccZrWEni.s 			page 58


 3239 018e 0B       		.uleb128 0xb
 3240 018f 3B       		.uleb128 0x3b
 3241 0190 05       		.uleb128 0x5
 3242 0191 49       		.uleb128 0x49
 3243 0192 13       		.uleb128 0x13
 3244 0193 00       		.byte	0
 3245 0194 00       		.byte	0
 3246 0195 22       		.uleb128 0x22
 3247 0196 2E       		.uleb128 0x2e
 3248 0197 01       		.byte	0x1
 3249 0198 03       		.uleb128 0x3
 3250 0199 0E       		.uleb128 0xe
 3251 019a 3A       		.uleb128 0x3a
 3252 019b 0B       		.uleb128 0xb
 3253 019c 3B       		.uleb128 0x3b
 3254 019d 05       		.uleb128 0x5
 3255 019e 27       		.uleb128 0x27
 3256 019f 19       		.uleb128 0x19
 3257 01a0 11       		.uleb128 0x11
 3258 01a1 01       		.uleb128 0x1
 3259 01a2 12       		.uleb128 0x12
 3260 01a3 06       		.uleb128 0x6
 3261 01a4 40       		.uleb128 0x40
 3262 01a5 18       		.uleb128 0x18
 3263 01a6 9742     		.uleb128 0x2117
 3264 01a8 19       		.uleb128 0x19
 3265 01a9 01       		.uleb128 0x1
 3266 01aa 13       		.uleb128 0x13
 3267 01ab 00       		.byte	0
 3268 01ac 00       		.byte	0
 3269 01ad 23       		.uleb128 0x23
 3270 01ae 1D       		.uleb128 0x1d
 3271 01af 01       		.byte	0x1
 3272 01b0 31       		.uleb128 0x31
 3273 01b1 13       		.uleb128 0x13
 3274 01b2 11       		.uleb128 0x11
 3275 01b3 01       		.uleb128 0x1
 3276 01b4 12       		.uleb128 0x12
 3277 01b5 06       		.uleb128 0x6
 3278 01b6 58       		.uleb128 0x58
 3279 01b7 0B       		.uleb128 0xb
 3280 01b8 59       		.uleb128 0x59
 3281 01b9 05       		.uleb128 0x5
 3282 01ba 00       		.byte	0
 3283 01bb 00       		.byte	0
 3284 01bc 24       		.uleb128 0x24
 3285 01bd 05       		.uleb128 0x5
 3286 01be 00       		.byte	0
 3287 01bf 31       		.uleb128 0x31
 3288 01c0 13       		.uleb128 0x13
 3289 01c1 02       		.uleb128 0x2
 3290 01c2 18       		.uleb128 0x18
 3291 01c3 00       		.byte	0
 3292 01c4 00       		.byte	0
 3293 01c5 25       		.uleb128 0x25
 3294 01c6 2E       		.uleb128 0x2e
 3295 01c7 00       		.byte	0
ARM GAS  /tmp/ccZrWEni.s 			page 59


 3296 01c8 03       		.uleb128 0x3
 3297 01c9 0E       		.uleb128 0xe
 3298 01ca 3A       		.uleb128 0x3a
 3299 01cb 0B       		.uleb128 0xb
 3300 01cc 3B       		.uleb128 0x3b
 3301 01cd 05       		.uleb128 0x5
 3302 01ce 27       		.uleb128 0x27
 3303 01cf 19       		.uleb128 0x19
 3304 01d0 11       		.uleb128 0x11
 3305 01d1 01       		.uleb128 0x1
 3306 01d2 12       		.uleb128 0x12
 3307 01d3 06       		.uleb128 0x6
 3308 01d4 40       		.uleb128 0x40
 3309 01d5 18       		.uleb128 0x18
 3310 01d6 9642     		.uleb128 0x2116
 3311 01d8 19       		.uleb128 0x19
 3312 01d9 00       		.byte	0
 3313 01da 00       		.byte	0
 3314 01db 26       		.uleb128 0x26
 3315 01dc 2E       		.uleb128 0x2e
 3316 01dd 01       		.byte	0x1
 3317 01de 03       		.uleb128 0x3
 3318 01df 0E       		.uleb128 0xe
 3319 01e0 3A       		.uleb128 0x3a
 3320 01e1 0B       		.uleb128 0xb
 3321 01e2 3B       		.uleb128 0x3b
 3322 01e3 05       		.uleb128 0x5
 3323 01e4 27       		.uleb128 0x27
 3324 01e5 19       		.uleb128 0x19
 3325 01e6 11       		.uleb128 0x11
 3326 01e7 01       		.uleb128 0x1
 3327 01e8 12       		.uleb128 0x12
 3328 01e9 06       		.uleb128 0x6
 3329 01ea 40       		.uleb128 0x40
 3330 01eb 18       		.uleb128 0x18
 3331 01ec 9642     		.uleb128 0x2116
 3332 01ee 19       		.uleb128 0x19
 3333 01ef 01       		.uleb128 0x1
 3334 01f0 13       		.uleb128 0x13
 3335 01f1 00       		.byte	0
 3336 01f2 00       		.byte	0
 3337 01f3 27       		.uleb128 0x27
 3338 01f4 34       		.uleb128 0x34
 3339 01f5 00       		.byte	0
 3340 01f6 03       		.uleb128 0x3
 3341 01f7 0E       		.uleb128 0xe
 3342 01f8 49       		.uleb128 0x49
 3343 01f9 13       		.uleb128 0x13
 3344 01fa 34       		.uleb128 0x34
 3345 01fb 19       		.uleb128 0x19
 3346 01fc 02       		.uleb128 0x2
 3347 01fd 18       		.uleb128 0x18
 3348 01fe 00       		.byte	0
 3349 01ff 00       		.byte	0
 3350 0200 28       		.uleb128 0x28
 3351 0201 2E       		.uleb128 0x2e
 3352 0202 01       		.byte	0x1
ARM GAS  /tmp/ccZrWEni.s 			page 60


 3353 0203 03       		.uleb128 0x3
 3354 0204 0E       		.uleb128 0xe
 3355 0205 3A       		.uleb128 0x3a
 3356 0206 0B       		.uleb128 0xb
 3357 0207 3B       		.uleb128 0x3b
 3358 0208 0B       		.uleb128 0xb
 3359 0209 27       		.uleb128 0x27
 3360 020a 19       		.uleb128 0x19
 3361 020b 49       		.uleb128 0x49
 3362 020c 13       		.uleb128 0x13
 3363 020d 11       		.uleb128 0x11
 3364 020e 01       		.uleb128 0x1
 3365 020f 12       		.uleb128 0x12
 3366 0210 06       		.uleb128 0x6
 3367 0211 40       		.uleb128 0x40
 3368 0212 18       		.uleb128 0x18
 3369 0213 9642     		.uleb128 0x2116
 3370 0215 19       		.uleb128 0x19
 3371 0216 01       		.uleb128 0x1
 3372 0217 13       		.uleb128 0x13
 3373 0218 00       		.byte	0
 3374 0219 00       		.byte	0
 3375 021a 29       		.uleb128 0x29
 3376 021b 05       		.uleb128 0x5
 3377 021c 00       		.byte	0
 3378 021d 03       		.uleb128 0x3
 3379 021e 08       		.uleb128 0x8
 3380 021f 3A       		.uleb128 0x3a
 3381 0220 0B       		.uleb128 0xb
 3382 0221 3B       		.uleb128 0x3b
 3383 0222 0B       		.uleb128 0xb
 3384 0223 49       		.uleb128 0x49
 3385 0224 13       		.uleb128 0x13
 3386 0225 02       		.uleb128 0x2
 3387 0226 18       		.uleb128 0x18
 3388 0227 00       		.byte	0
 3389 0228 00       		.byte	0
 3390 0229 2A       		.uleb128 0x2a
 3391 022a 2E       		.uleb128 0x2e
 3392 022b 00       		.byte	0
 3393 022c 03       		.uleb128 0x3
 3394 022d 0E       		.uleb128 0xe
 3395 022e 3A       		.uleb128 0x3a
 3396 022f 0B       		.uleb128 0xb
 3397 0230 3B       		.uleb128 0x3b
 3398 0231 0B       		.uleb128 0xb
 3399 0232 27       		.uleb128 0x27
 3400 0233 19       		.uleb128 0x19
 3401 0234 11       		.uleb128 0x11
 3402 0235 01       		.uleb128 0x1
 3403 0236 12       		.uleb128 0x12
 3404 0237 06       		.uleb128 0x6
 3405 0238 40       		.uleb128 0x40
 3406 0239 18       		.uleb128 0x18
 3407 023a 9642     		.uleb128 0x2116
 3408 023c 19       		.uleb128 0x19
 3409 023d 00       		.byte	0
ARM GAS  /tmp/ccZrWEni.s 			page 61


 3410 023e 00       		.byte	0
 3411 023f 2B       		.uleb128 0x2b
 3412 0240 2E       		.uleb128 0x2e
 3413 0241 01       		.byte	0x1
 3414 0242 03       		.uleb128 0x3
 3415 0243 0E       		.uleb128 0xe
 3416 0244 3A       		.uleb128 0x3a
 3417 0245 0B       		.uleb128 0xb
 3418 0246 3B       		.uleb128 0x3b
 3419 0247 0B       		.uleb128 0xb
 3420 0248 27       		.uleb128 0x27
 3421 0249 19       		.uleb128 0x19
 3422 024a 11       		.uleb128 0x11
 3423 024b 01       		.uleb128 0x1
 3424 024c 12       		.uleb128 0x12
 3425 024d 06       		.uleb128 0x6
 3426 024e 40       		.uleb128 0x40
 3427 024f 18       		.uleb128 0x18
 3428 0250 9642     		.uleb128 0x2116
 3429 0252 19       		.uleb128 0x19
 3430 0253 01       		.uleb128 0x1
 3431 0254 13       		.uleb128 0x13
 3432 0255 00       		.byte	0
 3433 0256 00       		.byte	0
 3434 0257 2C       		.uleb128 0x2c
 3435 0258 34       		.uleb128 0x34
 3436 0259 00       		.byte	0
 3437 025a 03       		.uleb128 0x3
 3438 025b 0E       		.uleb128 0xe
 3439 025c 3A       		.uleb128 0x3a
 3440 025d 0B       		.uleb128 0xb
 3441 025e 3B       		.uleb128 0x3b
 3442 025f 0B       		.uleb128 0xb
 3443 0260 49       		.uleb128 0x49
 3444 0261 13       		.uleb128 0x13
 3445 0262 02       		.uleb128 0x2
 3446 0263 18       		.uleb128 0x18
 3447 0264 00       		.byte	0
 3448 0265 00       		.byte	0
 3449 0266 2D       		.uleb128 0x2d
 3450 0267 34       		.uleb128 0x34
 3451 0268 00       		.byte	0
 3452 0269 03       		.uleb128 0x3
 3453 026a 08       		.uleb128 0x8
 3454 026b 3A       		.uleb128 0x3a
 3455 026c 0B       		.uleb128 0xb
 3456 026d 3B       		.uleb128 0x3b
 3457 026e 0B       		.uleb128 0xb
 3458 026f 49       		.uleb128 0x49
 3459 0270 13       		.uleb128 0x13
 3460 0271 02       		.uleb128 0x2
 3461 0272 18       		.uleb128 0x18
 3462 0273 00       		.byte	0
 3463 0274 00       		.byte	0
 3464 0275 2E       		.uleb128 0x2e
 3465 0276 34       		.uleb128 0x34
 3466 0277 00       		.byte	0
ARM GAS  /tmp/ccZrWEni.s 			page 62


 3467 0278 03       		.uleb128 0x3
 3468 0279 0E       		.uleb128 0xe
 3469 027a 3A       		.uleb128 0x3a
 3470 027b 0B       		.uleb128 0xb
 3471 027c 3B       		.uleb128 0x3b
 3472 027d 05       		.uleb128 0x5
 3473 027e 49       		.uleb128 0x49
 3474 027f 13       		.uleb128 0x13
 3475 0280 3F       		.uleb128 0x3f
 3476 0281 19       		.uleb128 0x19
 3477 0282 3C       		.uleb128 0x3c
 3478 0283 19       		.uleb128 0x19
 3479 0284 00       		.byte	0
 3480 0285 00       		.byte	0
 3481 0286 2F       		.uleb128 0x2f
 3482 0287 34       		.uleb128 0x34
 3483 0288 00       		.byte	0
 3484 0289 03       		.uleb128 0x3
 3485 028a 08       		.uleb128 0x8
 3486 028b 3A       		.uleb128 0x3a
 3487 028c 0B       		.uleb128 0xb
 3488 028d 3B       		.uleb128 0x3b
 3489 028e 05       		.uleb128 0x5
 3490 028f 49       		.uleb128 0x49
 3491 0290 13       		.uleb128 0x13
 3492 0291 3F       		.uleb128 0x3f
 3493 0292 19       		.uleb128 0x19
 3494 0293 3C       		.uleb128 0x3c
 3495 0294 19       		.uleb128 0x19
 3496 0295 00       		.byte	0
 3497 0296 00       		.byte	0
 3498 0297 30       		.uleb128 0x30
 3499 0298 34       		.uleb128 0x34
 3500 0299 00       		.byte	0
 3501 029a 03       		.uleb128 0x3
 3502 029b 0E       		.uleb128 0xe
 3503 029c 3A       		.uleb128 0x3a
 3504 029d 0B       		.uleb128 0xb
 3505 029e 3B       		.uleb128 0x3b
 3506 029f 0B       		.uleb128 0xb
 3507 02a0 49       		.uleb128 0x49
 3508 02a1 13       		.uleb128 0x13
 3509 02a2 3F       		.uleb128 0x3f
 3510 02a3 19       		.uleb128 0x19
 3511 02a4 3C       		.uleb128 0x3c
 3512 02a5 19       		.uleb128 0x19
 3513 02a6 00       		.byte	0
 3514 02a7 00       		.byte	0
 3515 02a8 31       		.uleb128 0x31
 3516 02a9 34       		.uleb128 0x34
 3517 02aa 00       		.byte	0
 3518 02ab 03       		.uleb128 0x3
 3519 02ac 0E       		.uleb128 0xe
 3520 02ad 3A       		.uleb128 0x3a
 3521 02ae 0B       		.uleb128 0xb
 3522 02af 3B       		.uleb128 0x3b
 3523 02b0 0B       		.uleb128 0xb
ARM GAS  /tmp/ccZrWEni.s 			page 63


 3524 02b1 49       		.uleb128 0x49
 3525 02b2 13       		.uleb128 0x13
 3526 02b3 3F       		.uleb128 0x3f
 3527 02b4 19       		.uleb128 0x19
 3528 02b5 02       		.uleb128 0x2
 3529 02b6 18       		.uleb128 0x18
 3530 02b7 00       		.byte	0
 3531 02b8 00       		.byte	0
 3532 02b9 00       		.byte	0
 3533              		.section	.debug_aranges,"",%progbits
 3534 0000 5C000000 		.4byte	0x5c
 3535 0004 0200     		.2byte	0x2
 3536 0006 00000000 		.4byte	.Ldebug_info0
 3537 000a 04       		.byte	0x4
 3538 000b 00       		.byte	0
 3539 000c 0000     		.2byte	0
 3540 000e 0000     		.2byte	0
 3541 0010 00000000 		.4byte	.LFB127
 3542 0014 10000000 		.4byte	.LFE127-.LFB127
 3543 0018 00000000 		.4byte	.LFB128
 3544 001c 10000000 		.4byte	.LFE128-.LFB128
 3545 0020 00000000 		.4byte	.LFB167
 3546 0024 10000000 		.4byte	.LFE167-.LFB167
 3547 0028 00000000 		.4byte	.LFB168
 3548 002c 38000000 		.4byte	.LFE168-.LFB168
 3549 0030 00000000 		.4byte	.LFB202
 3550 0034 16000000 		.4byte	.LFE202-.LFB202
 3551 0038 00000000 		.4byte	.LFB225
 3552 003c 1E000000 		.4byte	.LFE225-.LFB225
 3553 0040 00000000 		.4byte	.LFB226
 3554 0044 1E000000 		.4byte	.LFE226-.LFB226
 3555 0048 00000000 		.4byte	.LFB240
 3556 004c 18000000 		.4byte	.LFE240-.LFB240
 3557 0050 00000000 		.4byte	.LFB241
 3558 0054 1C080000 		.4byte	.LFE241-.LFB241
 3559 0058 00000000 		.4byte	0
 3560 005c 00000000 		.4byte	0
 3561              		.section	.debug_ranges,"",%progbits
 3562              	.Ldebug_ranges0:
 3563 0000 00000000 		.4byte	.LFB127
 3564 0004 10000000 		.4byte	.LFE127
 3565 0008 00000000 		.4byte	.LFB128
 3566 000c 10000000 		.4byte	.LFE128
 3567 0010 00000000 		.4byte	.LFB167
 3568 0014 10000000 		.4byte	.LFE167
 3569 0018 00000000 		.4byte	.LFB168
 3570 001c 38000000 		.4byte	.LFE168
 3571 0020 00000000 		.4byte	.LFB202
 3572 0024 16000000 		.4byte	.LFE202
 3573 0028 00000000 		.4byte	.LFB225
 3574 002c 1E000000 		.4byte	.LFE225
 3575 0030 00000000 		.4byte	.LFB226
 3576 0034 1E000000 		.4byte	.LFE226
 3577 0038 00000000 		.4byte	.LFB240
 3578 003c 18000000 		.4byte	.LFE240
 3579 0040 00000000 		.4byte	.LFB241
 3580 0044 1C080000 		.4byte	.LFE241
ARM GAS  /tmp/ccZrWEni.s 			page 64


 3581 0048 00000000 		.4byte	0
 3582 004c 00000000 		.4byte	0
 3583              		.section	.debug_line,"",%progbits
 3584              	.Ldebug_line0:
 3585 0000 55050000 		.section	.debug_str,"MS",%progbits,1
 3585      02001E02 
 3585      00000201 
 3585      FB0E0D00 
 3585      01010101 
 3586              	.LASF98:
 3587 0000 74625F70 		.ascii	"tb_ptr\000"
 3587      747200
 3588              	.LASF55:
 3589 0007 72656164 		.ascii	"ready_list_t\000"
 3589      795F6C69 
 3589      73745F74 
 3589      00
 3590              	.LASF92:
 3591 0014 73655F74 		.ascii	"se_time\000"
 3591      696D6500 
 3592              	.LASF2:
 3593 001c 73697A65 		.ascii	"size_t\000"
 3593      5F7400
 3594              	.LASF113:
 3595 0023 7264796D 		.ascii	"rdymsg\000"
 3595      736700
 3596              	.LASF17:
 3597 002a 75696E74 		.ascii	"uint64_t\000"
 3597      36345F74 
 3597      00
 3598              	.LASF85:
 3599 0033 6B65726E 		.ascii	"kernel_stats\000"
 3599      656C5F73 
 3599      74617473 
 3599      00
 3600              	.LASF3:
 3601 0040 5F5F7569 		.ascii	"__uint8_t\000"
 3601      6E74385F 
 3601      7400
 3602              	.LASF91:
 3603 004a 706F7274 		.ascii	"port_intctx\000"
 3603      5F696E74 
 3603      63747800 
 3604              	.LASF54:
 3605 0056 63685F74 		.ascii	"ch_threads_queue\000"
 3605      68726561 
 3605      64735F71 
 3605      75657565 
 3605      00
 3606              	.LASF74:
 3607 0067 73797374 		.ascii	"system_debug_t\000"
 3607      656D5F64 
 3607      65627567 
 3607      5F7400
 3608              	.LASF86:
 3609 0076 69646C65 		.ascii	"idle_thread_wa\000"
 3609      5F746872 
ARM GAS  /tmp/ccZrWEni.s 			page 65


 3609      6561645F 
 3609      776100
 3610              	.LASF143:
 3611 0085 706F7274 		.ascii	"port_lock\000"
 3611      5F6C6F63 
 3611      6B00
 3612              	.LASF104:
 3613 008f 776F7273 		.ascii	"worst\000"
 3613      7400
 3614              	.LASF107:
 3615 0095 74696D65 		.ascii	"time_measurement_t\000"
 3615      5F6D6561 
 3615      73757265 
 3615      6D656E74 
 3615      5F7400
 3616              	.LASF13:
 3617 00a8 6C6F6E67 		.ascii	"long long unsigned int\000"
 3617      206C6F6E 
 3617      6720756E 
 3617      7369676E 
 3617      65642069 
 3618              	.LASF100:
 3619 00bf 63685F74 		.ascii	"ch_trace_buffer_t\000"
 3619      72616365 
 3619      5F627566 
 3619      6665725F 
 3619      7400
 3620              	.LASF95:
 3621 00d1 73655F73 		.ascii	"se_state\000"
 3621      74617465 
 3621      00
 3622              	.LASF114:
 3623 00da 65786974 		.ascii	"exitcode\000"
 3623      636F6465 
 3623      00
 3624              	.LASF84:
 3625 00e3 6D61696E 		.ascii	"mainthread\000"
 3625      74687265 
 3625      616400
 3626              	.LASF155:
 3627 00ee 74657374 		.ascii	"test\000"
 3627      00
 3628              	.LASF71:
 3629 00f3 76697274 		.ascii	"virtual_timers_list_t\000"
 3629      75616C5F 
 3629      74696D65 
 3629      72735F6C 
 3629      6973745F 
 3630              	.LASF132:
 3631 0109 6D625F77 		.ascii	"mb_wrptr\000"
 3631      72707472 
 3631      00
 3632              	.LASF19:
 3633 0112 72747469 		.ascii	"rttime_t\000"
 3633      6D655F74 
 3633      00
 3634              	.LASF32:
ARM GAS  /tmp/ccZrWEni.s 			page 66


 3635 011b 705F7072 		.ascii	"p_prio\000"
 3635      696F00
 3636              	.LASF11:
 3637 0122 6C6F6E67 		.ascii	"long long int\000"
 3637      206C6F6E 
 3637      6720696E 
 3637      7400
 3638              	.LASF1:
 3639 0130 7369676E 		.ascii	"signed char\000"
 3639      65642063 
 3639      68617200 
 3640              	.LASF47:
 3641 013c 705F6D70 		.ascii	"p_mpool\000"
 3641      6F6F6C00 
 3642              	.LASF124:
 3643 0144 6D5F7175 		.ascii	"m_queue\000"
 3643      65756500 
 3644              	.LASF83:
 3645 014c 76746C69 		.ascii	"vtlist\000"
 3645      737400
 3646              	.LASF144:
 3647 0153 706F7274 		.ascii	"port_unlock\000"
 3647      5F756E6C 
 3647      6F636B00 
 3648              	.LASF116:
 3649 015f 77747472 		.ascii	"wttrp\000"
 3649      7000
 3650              	.LASF81:
 3651 0165 63685F73 		.ascii	"ch_system\000"
 3651      79737465 
 3651      6D00
 3652              	.LASF8:
 3653 016f 6C6F6E67 		.ascii	"long int\000"
 3653      20696E74 
 3653      00
 3654              	.LASF21:
 3655 0178 74737461 		.ascii	"tstate_t\000"
 3655      74655F74 
 3655      00
 3656              	.LASF93:
 3657 0181 73655F74 		.ascii	"se_tp\000"
 3657      7000
 3658              	.LASF158:
 3659 0187 474E5520 		.ascii	"GNU C 4.8.4 20141219 (release) -mcpu=cortex-m4 -mno"
 3659      4320342E 
 3659      382E3420 
 3659      32303134 
 3659      31323139 
 3660 01ba 2D746875 		.ascii	"-thumb-interwork -mthumb -ggdb -O0 -fomit-frame-poi"
 3660      6D622D69 
 3660      6E746572 
 3660      776F726B 
 3660      202D6D74 
 3661 01ed 6E746572 		.ascii	"nter -falign-functions=16 -ffunction-sections -fdat"
 3661      202D6661 
 3661      6C69676E 
 3661      2D66756E 
ARM GAS  /tmp/ccZrWEni.s 			page 67


 3661      6374696F 
 3662 0220 612D7365 		.ascii	"a-sections -fno-common\000"
 3662      6374696F 
 3662      6E73202D 
 3662      666E6F2D 
 3662      636F6D6D 
 3663              	.LASF142:
 3664 0237 62756666 		.ascii	"buffer\000"
 3664      657200
 3665              	.LASF34:
 3666 023e 705F6E65 		.ascii	"p_newer\000"
 3666      77657200 
 3667              	.LASF121:
 3668 0246 735F7175 		.ascii	"s_queue\000"
 3668      65756500 
 3669              	.LASF147:
 3670 024e 63684D42 		.ascii	"chMBGetFreeCountI\000"
 3670      47657446 
 3670      72656543 
 3670      6F756E74 
 3670      4900
 3671              	.LASF97:
 3672 0260 74625F73 		.ascii	"tb_size\000"
 3672      697A6500 
 3673              	.LASF60:
 3674 0268 725F6E65 		.ascii	"r_newer\000"
 3674      77657200 
 3675              	.LASF88:
 3676 0270 72656761 		.ascii	"regarm_t\000"
 3676      726D5F74 
 3676      00
 3677              	.LASF67:
 3678 0279 76745F70 		.ascii	"vt_prev\000"
 3678      72657600 
 3679              	.LASF75:
 3680 0281 63685F73 		.ascii	"ch_system_debug\000"
 3680      79737465 
 3680      6D5F6465 
 3680      62756700 
 3681              	.LASF129:
 3682 0291 6D757465 		.ascii	"mutex_t\000"
 3682      785F7400 
 3683              	.LASF162:
 3684 0299 76616C75 		.ascii	"value\000"
 3684      6500
 3685              	.LASF78:
 3686 029f 6C6F636B 		.ascii	"lock_cnt\000"
 3686      5F636E74 
 3686      00
 3687              	.LASF9:
 3688 02a8 5F5F7569 		.ascii	"__uint32_t\000"
 3688      6E743332 
 3688      5F7400
 3689              	.LASF26:
 3690 02b3 636E745F 		.ascii	"cnt_t\000"
 3690      7400
 3691              	.LASF37:
ARM GAS  /tmp/ccZrWEni.s 			page 68


 3692 02b9 705F7374 		.ascii	"p_stklimit\000"
 3692      6B6C696D 
 3692      697400
 3693              	.LASF0:
 3694 02c4 756E7369 		.ascii	"unsigned int\000"
 3694      676E6564 
 3694      20696E74 
 3694      00
 3695              	.LASF66:
 3696 02d1 76745F6E 		.ascii	"vt_next\000"
 3696      65787400 
 3697              	.LASF152:
 3698 02d9 6D736731 		.ascii	"msg1\000"
 3698      00
 3699              	.LASF153:
 3700 02de 6D736732 		.ascii	"msg2\000"
 3700      00
 3701              	.LASF117:
 3702 02e3 77747365 		.ascii	"wtsemp\000"
 3702      6D7000
 3703              	.LASF42:
 3704 02ea 705F6D73 		.ascii	"p_msgqueue\000"
 3704      67717565 
 3704      756500
 3705              	.LASF140:
 3706 02f5 74656172 		.ascii	"teardown\000"
 3706      646F776E 
 3706      00
 3707              	.LASF135:
 3708 02fe 6D625F65 		.ascii	"mb_emptysem\000"
 3708      6D707479 
 3708      73656D00 
 3709              	.LASF108:
 3710 030a 6E5F6972 		.ascii	"n_irq\000"
 3710      7100
 3711              	.LASF122:
 3712 0310 735F636E 		.ascii	"s_cnt\000"
 3712      7400
 3713              	.LASF138:
 3714 0316 6E616D65 		.ascii	"name\000"
 3714      00
 3715              	.LASF6:
 3716 031b 73686F72 		.ascii	"short unsigned int\000"
 3716      7420756E 
 3716      7369676E 
 3716      65642069 
 3716      6E7400
 3717              	.LASF112:
 3718 032e 6B65726E 		.ascii	"kernel_stats_t\000"
 3718      656C5F73 
 3718      74617473 
 3718      5F7400
 3719              	.LASF51:
 3720 033d 63685F74 		.ascii	"ch_thread\000"
 3720      68726561 
 3720      6400
 3721              	.LASF157:
ARM GAS  /tmp/ccZrWEni.s 			page 69


 3722 0347 70617474 		.ascii	"patternmbox\000"
 3722      65726E6D 
 3722      626F7800 
 3723              	.LASF24:
 3724 0353 6D73675F 		.ascii	"msg_t\000"
 3724      7400
 3725              	.LASF105:
 3726 0359 6C617374 		.ascii	"last\000"
 3726      00
 3727              	.LASF27:
 3728 035e 75636E74 		.ascii	"ucnt_t\000"
 3728      5F7400
 3729              	.LASF80:
 3730 0365 63685F73 		.ascii	"ch_system_t\000"
 3730      79737465 
 3730      6D5F7400 
 3731              	.LASF20:
 3732 0371 746D6F64 		.ascii	"tmode_t\000"
 3732      655F7400 
 3733              	.LASF150:
 3734 0379 6D626F78 		.ascii	"mbox1_setup\000"
 3734      315F7365 
 3734      74757000 
 3735              	.LASF111:
 3736 0385 6D5F6372 		.ascii	"m_crit_isr\000"
 3736      69745F69 
 3736      737200
 3737              	.LASF56:
 3738 0390 63685F72 		.ascii	"ch_ready_list\000"
 3738      65616479 
 3738      5F6C6973 
 3738      7400
 3739              	.LASF25:
 3740 039e 6576656E 		.ascii	"eventmask_t\000"
 3740      746D6173 
 3740      6B5F7400 
 3741              	.LASF7:
 3742 03aa 5F5F696E 		.ascii	"__int32_t\000"
 3742      7433325F 
 3742      7400
 3743              	.LASF156:
 3744 03b4 74657374 		.ascii	"testmbox1\000"
 3744      6D626F78 
 3744      3100
 3745              	.LASF89:
 3746 03be 73746B61 		.ascii	"stkalign_t\000"
 3746      6C69676E 
 3746      5F7400
 3747              	.LASF41:
 3748 03c9 705F7761 		.ascii	"p_waiting\000"
 3748      6974696E 
 3748      6700
 3749              	.LASF87:
 3750 03d3 73697A65 		.ascii	"sizetype\000"
 3750      74797065 
 3750      00
 3751              	.LASF49:
ARM GAS  /tmp/ccZrWEni.s 			page 70


 3752 03dc 74687265 		.ascii	"thread_reference_t\000"
 3752      61645F72 
 3752      65666572 
 3752      656E6365 
 3752      5F7400
 3753              	.LASF72:
 3754 03ef 63685F76 		.ascii	"ch_virtual_timers_list\000"
 3754      69727475 
 3754      616C5F74 
 3754      696D6572 
 3754      735F6C69 
 3755              	.LASF133:
 3756 0406 6D625F72 		.ascii	"mb_rdptr\000"
 3756      64707472 
 3756      00
 3757              	.LASF96:
 3758 040f 63685F73 		.ascii	"ch_swc_event_t\000"
 3758      77635F65 
 3758      76656E74 
 3758      5F7400
 3759              	.LASF73:
 3760 041e 76745F6C 		.ascii	"vt_lasttime\000"
 3760      61737474 
 3760      696D6500 
 3761              	.LASF35:
 3762 042a 705F6F6C 		.ascii	"p_older\000"
 3762      64657200 
 3763              	.LASF59:
 3764 0432 725F6374 		.ascii	"r_ctx\000"
 3764      7800
 3765              	.LASF136:
 3766 0438 6D61696C 		.ascii	"mailbox_t\000"
 3766      626F785F 
 3766      7400
 3767              	.LASF102:
 3768 0442 746D5F63 		.ascii	"tm_calibration_t\000"
 3768      616C6962 
 3768      72617469 
 3768      6F6E5F74 
 3768      00
 3769              	.LASF139:
 3770 0453 73657475 		.ascii	"setup\000"
 3770      7000
 3771              	.LASF130:
 3772 0459 6D625F62 		.ascii	"mb_buffer\000"
 3772      75666665 
 3772      7200
 3773              	.LASF151:
 3774 0463 6D626F78 		.ascii	"mbox1_execute\000"
 3774      315F6578 
 3774      65637574 
 3774      6500
 3775              	.LASF62:
 3776 0471 725F6375 		.ascii	"r_current\000"
 3776      7272656E 
 3776      7400
 3777              	.LASF61:
ARM GAS  /tmp/ccZrWEni.s 			page 71


 3778 047b 725F6F6C 		.ascii	"r_older\000"
 3778      64657200 
 3779              	.LASF159:
 3780 0483 2F686F6D 		.ascii	"/home/efe/ChibiOS/test/rt/testmbox.c\000"
 3780      652F6566 
 3780      652F4368 
 3780      6962694F 
 3780      532F7465 
 3781              	.LASF12:
 3782 04a8 5F5F7569 		.ascii	"__uint64_t\000"
 3782      6E743634 
 3782      5F7400
 3783              	.LASF106:
 3784 04b3 63756D75 		.ascii	"cumulative\000"
 3784      6C617469 
 3784      766500
 3785              	.LASF22:
 3786 04be 74726566 		.ascii	"trefs_t\000"
 3786      735F7400 
 3787              	.LASF99:
 3788 04c6 74625F62 		.ascii	"tb_buffer\000"
 3788      75666665 
 3788      7200
 3789              	.LASF64:
 3790 04d0 76697274 		.ascii	"virtual_timer_t\000"
 3790      75616C5F 
 3790      74696D65 
 3790      725F7400 
 3791              	.LASF31:
 3792 04e0 705F7072 		.ascii	"p_prev\000"
 3792      657600
 3793              	.LASF141:
 3794 04e7 65786563 		.ascii	"execute\000"
 3794      75746500 
 3795              	.LASF23:
 3796 04ef 74707269 		.ascii	"tprio_t\000"
 3796      6F5F7400 
 3797              	.LASF109:
 3798 04f7 6E5F6374 		.ascii	"n_ctxswc\000"
 3798      78737763 
 3798      00
 3799              	.LASF15:
 3800 0500 696E7433 		.ascii	"int32_t\000"
 3800      325F7400 
 3801              	.LASF4:
 3802 0508 756E7369 		.ascii	"unsigned char\000"
 3802      676E6564 
 3802      20636861 
 3802      7200
 3803              	.LASF148:
 3804 0516 63684D42 		.ascii	"chMBGetUsedCountI\000"
 3804      47657455 
 3804      73656443 
 3804      6F756E74 
 3804      4900
 3805              	.LASF131:
 3806 0528 6D625F74 		.ascii	"mb_top\000"
ARM GAS  /tmp/ccZrWEni.s 			page 72


 3806      6F7000
 3807              	.LASF154:
 3808 052f 49544D5F 		.ascii	"ITM_RxBuffer\000"
 3808      52784275 
 3808      66666572 
 3808      00
 3809              	.LASF45:
 3810 053c 705F6D74 		.ascii	"p_mtxlist\000"
 3810      786C6973 
 3810      7400
 3811              	.LASF5:
 3812 0546 73686F72 		.ascii	"short int\000"
 3812      7420696E 
 3812      7400
 3813              	.LASF38:
 3814 0550 705F7374 		.ascii	"p_state\000"
 3814      61746500 
 3815              	.LASF58:
 3816 0558 725F7072 		.ascii	"r_prio\000"
 3816      696F00
 3817              	.LASF119:
 3818 055f 65776D61 		.ascii	"ewmask\000"
 3818      736B00
 3819              	.LASF30:
 3820 0566 705F6E65 		.ascii	"p_next\000"
 3820      787400
 3821              	.LASF39:
 3822 056d 705F666C 		.ascii	"p_flags\000"
 3822      61677300 
 3823              	.LASF163:
 3824 0575 5F5F6675 		.ascii	"__func__\000"
 3824      6E635F5F 
 3824      00
 3825              	.LASF48:
 3826 057e 705F7374 		.ascii	"p_stats\000"
 3826      61747300 
 3827              	.LASF149:
 3828 0586 63685379 		.ascii	"chSysLock\000"
 3828      734C6F63 
 3828      6B00
 3829              	.LASF128:
 3830 0590 73656D61 		.ascii	"semaphore_t\000"
 3830      70686F72 
 3830      655F7400 
 3831              	.LASF53:
 3832 059c 74687265 		.ascii	"threads_queue_t\000"
 3832      6164735F 
 3832      71756575 
 3832      655F7400 
 3833              	.LASF65:
 3834 05ac 63685F76 		.ascii	"ch_virtual_timer\000"
 3834      69727475 
 3834      616C5F74 
 3834      696D6572 
 3834      00
 3835              	.LASF137:
 3836 05bd 74657374 		.ascii	"testcase\000"
ARM GAS  /tmp/ccZrWEni.s 			page 73


 3836      63617365 
 3836      00
 3837              	.LASF120:
 3838 05c6 63685F73 		.ascii	"ch_semaphore\000"
 3838      656D6170 
 3838      686F7265 
 3838      00
 3839              	.LASF44:
 3840 05d3 705F6570 		.ascii	"p_epending\000"
 3840      656E6469 
 3840      6E6700
 3841              	.LASF16:
 3842 05de 75696E74 		.ascii	"uint32_t\000"
 3842      33325F74 
 3842      00
 3843              	.LASF118:
 3844 05e7 77746D74 		.ascii	"wtmtxp\000"
 3844      787000
 3845              	.LASF57:
 3846 05ee 725F7175 		.ascii	"r_queue\000"
 3846      65756500 
 3847              	.LASF68:
 3848 05f6 76745F64 		.ascii	"vt_delta\000"
 3848      656C7461 
 3848      00
 3849              	.LASF52:
 3850 05ff 63685F74 		.ascii	"ch_threads_list\000"
 3850      68726561 
 3850      64735F6C 
 3850      69737400 
 3851              	.LASF10:
 3852 060f 6C6F6E67 		.ascii	"long unsigned int\000"
 3852      20756E73 
 3852      69676E65 
 3852      6420696E 
 3852      7400
 3853              	.LASF127:
 3854 0621 63686172 		.ascii	"char\000"
 3854      00
 3855              	.LASF29:
 3856 0626 74687265 		.ascii	"thread_t\000"
 3856      61645F74 
 3856      00
 3857              	.LASF103:
 3858 062f 62657374 		.ascii	"best\000"
 3858      00
 3859              	.LASF126:
 3860 0634 6D5F6E65 		.ascii	"m_next\000"
 3860      787400
 3861              	.LASF28:
 3862 063b 73797374 		.ascii	"systime_t\000"
 3862      696D655F 
 3862      7400
 3863              	.LASF46:
 3864 0645 705F7265 		.ascii	"p_realprio\000"
 3864      616C7072 
 3864      696F00
ARM GAS  /tmp/ccZrWEni.s 			page 74


 3865              	.LASF63:
 3866 0650 76746675 		.ascii	"vtfunc_t\000"
 3866      6E635F74 
 3866      00
 3867              	.LASF146:
 3868 0659 63685365 		.ascii	"chSemGetCounterI\000"
 3868      6D476574 
 3868      436F756E 
 3868      74657249 
 3868      00
 3869              	.LASF161:
 3870 066a 5F5F7365 		.ascii	"__set_BASEPRI\000"
 3870      745F4241 
 3870      53455052 
 3870      4900
 3871              	.LASF76:
 3872 0678 70616E69 		.ascii	"panic_msg\000"
 3872      635F6D73 
 3872      6700
 3873              	.LASF101:
 3874 0682 6F666673 		.ascii	"offset\000"
 3874      657400
 3875              	.LASF90:
 3876 0689 636F6E74 		.ascii	"context\000"
 3876      65787400 
 3877              	.LASF18:
 3878 0691 7274636E 		.ascii	"rtcnt_t\000"
 3878      745F7400 
 3879              	.LASF70:
 3880 0699 76745F70 		.ascii	"vt_par\000"
 3880      617200
 3881              	.LASF134:
 3882 06a0 6D625F66 		.ascii	"mb_fullsem\000"
 3882      756C6C73 
 3882      656D00
 3883              	.LASF160:
 3884 06ab 74657374 		.ascii	"test_buffers\000"
 3884      5F627566 
 3884      66657273 
 3884      00
 3885              	.LASF123:
 3886 06b8 63685F6D 		.ascii	"ch_mutex\000"
 3886      75746578 
 3886      00
 3887              	.LASF40:
 3888 06c1 705F7265 		.ascii	"p_refs\000"
 3888      667300
 3889              	.LASF77:
 3890 06c8 6973725F 		.ascii	"isr_cnt\000"
 3890      636E7400 
 3891              	.LASF82:
 3892 06d0 726C6973 		.ascii	"rlist\000"
 3892      7400
 3893              	.LASF14:
 3894 06d6 75696E74 		.ascii	"uint8_t\000"
 3894      385F7400 
 3895              	.LASF115:
ARM GAS  /tmp/ccZrWEni.s 			page 75


 3896 06de 77746F62 		.ascii	"wtobjp\000"
 3896      6A7000
 3897              	.LASF36:
 3898 06e5 705F6E61 		.ascii	"p_name\000"
 3898      6D6500
 3899              	.LASF50:
 3900 06ec 74687265 		.ascii	"threads_list_t\000"
 3900      6164735F 
 3900      6C697374 
 3900      5F7400
 3901              	.LASF79:
 3902 06fb 74726163 		.ascii	"trace_buffer\000"
 3902      655F6275 
 3902      66666572 
 3902      00
 3903              	.LASF145:
 3904 0708 63685379 		.ascii	"chSysUnlock\000"
 3904      73556E6C 
 3904      6F636B00 
 3905              	.LASF43:
 3906 0714 705F6D73 		.ascii	"p_msg\000"
 3906      6700
 3907              	.LASF110:
 3908 071a 6D5F6372 		.ascii	"m_crit_thd\000"
 3908      69745F74 
 3908      686400
 3909              	.LASF125:
 3910 0725 6D5F6F77 		.ascii	"m_owner\000"
 3910      6E657200 
 3911              	.LASF94:
 3912 072d 73655F77 		.ascii	"se_wtobjp\000"
 3912      746F626A 
 3912      7000
 3913              	.LASF33:
 3914 0737 705F6374 		.ascii	"p_ctx\000"
 3914      7800
 3915              	.LASF69:
 3916 073d 76745F66 		.ascii	"vt_func\000"
 3916      756E6300 
 3917              		.ident	"GCC: (4.8.4-1+11-1) 4.8.4 20141219 (release)"
ARM GAS  /tmp/ccZrWEni.s 			page 76


DEFINED SYMBOLS
                            *ABS*:0000000000000000 testmbox.c
     /tmp/ccZrWEni.s:19     .text.port_lock:0000000000000000 $t
     /tmp/ccZrWEni.s:24     .text.port_lock:0000000000000000 port_lock
     /tmp/ccZrWEni.s:55     .text.port_unlock:0000000000000000 $t
     /tmp/ccZrWEni.s:60     .text.port_unlock:0000000000000000 port_unlock
     /tmp/ccZrWEni.s:89     .text.chSysLock:0000000000000000 $t
     /tmp/ccZrWEni.s:94     .text.chSysLock:0000000000000000 chSysLock
     /tmp/ccZrWEni.s:117    .text.chSysUnlock:0000000000000000 $t
     /tmp/ccZrWEni.s:122    .text.chSysUnlock:0000000000000000 chSysUnlock
     /tmp/ccZrWEni.s:161    .text.chSysUnlock:0000000000000030 $d
     /tmp/ccZrWEni.s:1465   .rodata.__func__.5925:0000000000000000 __func__.5925
     /tmp/ccZrWEni.s:167    .text.chSemGetCounterI:0000000000000000 $t
     /tmp/ccZrWEni.s:172    .text.chSemGetCounterI:0000000000000000 chSemGetCounterI
     /tmp/ccZrWEni.s:199    .text.chMBGetFreeCountI:0000000000000000 $t
     /tmp/ccZrWEni.s:204    .text.chMBGetFreeCountI:0000000000000000 chMBGetFreeCountI
     /tmp/ccZrWEni.s:234    .text.chMBGetUsedCountI:0000000000000000 $t
     /tmp/ccZrWEni.s:239    .text.chMBGetUsedCountI:0000000000000000 chMBGetUsedCountI
     /tmp/ccZrWEni.s:268    .data.mb1:0000000000000000 $d
     /tmp/ccZrWEni.s:271    .data.mb1:0000000000000000 mb1
     /tmp/ccZrWEni.s:283    .text.mbox1_setup:0000000000000000 $t
     /tmp/ccZrWEni.s:288    .text.mbox1_setup:0000000000000000 mbox1_setup
     /tmp/ccZrWEni.s:309    .text.mbox1_setup:0000000000000010 $d
     /tmp/ccZrWEni.s:315    .rodata:0000000000000000 $d
     /tmp/ccZrWEni.s:319    .text.mbox1_execute:0000000000000000 $t
     /tmp/ccZrWEni.s:324    .text.mbox1_execute:0000000000000000 mbox1_execute
     /tmp/ccZrWEni.s:698    .text.mbox1_execute:00000000000002b0 $d
     /tmp/ccZrWEni.s:702    .text.mbox1_execute:00000000000002b8 $t
     /tmp/ccZrWEni.s:1063   .text.mbox1_execute:0000000000000560 $d
     /tmp/ccZrWEni.s:1067   .text.mbox1_execute:0000000000000568 $t
     /tmp/ccZrWEni.s:1434   .text.mbox1_execute:0000000000000814 $d
     /tmp/ccZrWEni.s:1448   .rodata.testmbox1:0000000000000000 testmbox1
     /tmp/ccZrWEni.s:1445   .rodata.testmbox1:0000000000000000 $d
     /tmp/ccZrWEni.s:1458   .rodata.patternmbox:0000000000000000 patternmbox
     /tmp/ccZrWEni.s:1455   .rodata.patternmbox:0000000000000000 $d
     /tmp/ccZrWEni.s:1462   .rodata.__func__.5925:0000000000000000 $d
                     .debug_frame:0000000000000010 $d
     /tmp/ccZrWEni.s:166    .text.chSysUnlock:0000000000000038 $t
     /tmp/ccZrWEni.s:314    .text.mbox1_setup:0000000000000018 $t
     /tmp/ccZrWEni.s:1440   .text.mbox1_execute:000000000000081c $t

UNDEFINED SYMBOLS
_stats_start_measure_crit_thd
_dbg_check_lock
_dbg_check_unlock
_stats_stop_measure_crit_thd
chSysHalt
ch
chDbgCheckClassI
test
chMBObjectInit
_test_assert
chMBPost
chMBPostAhead
chMBPostI
chMBPostAheadI
chMBFetch
ARM GAS  /tmp/ccZrWEni.s 			page 77


test_emit_token
_test_assert_sequence
chMBFetchI
chMBReset
