ARM GAS  /tmp/ccsKobfn.s 			page 1


   1              		.syntax unified
   2              		.cpu cortex-m4
   3              		.fpu softvfp
   4              		.eabi_attribute 20, 1
   5              		.eabi_attribute 21, 1
   6              		.eabi_attribute 23, 3
   7              		.eabi_attribute 24, 1
   8              		.eabi_attribute 25, 1
   9              		.eabi_attribute 26, 1
  10              		.eabi_attribute 30, 6
  11              		.eabi_attribute 34, 1
  12              		.eabi_attribute 18, 4
  13              		.thumb
  14              		.file	"testthd.c"
  15              		.text
  16              	.Ltext0:
  17              		.cfi_sections	.debug_frame
  18              		.section	.text.port_lock,"ax",%progbits
  19              		.align	2
  20              		.p2align 4,,15
  21              		.thumb
  22              		.thumb_func
  23              		.type	port_lock, %function
  24              	port_lock:
  25              	.LFB127:
  26              		.file 1 "/home/efe/ChibiOS/os/rt/ports/ARMCMx/chcore_v7m.h"
  27              		.loc 1 456 0
  28              		.cfi_startproc
  29              		@ args = 0, pretend = 0, frame = 8
  30              		@ frame_needed = 0, uses_anonymous_args = 0
  31              		@ link register save eliminated.
  32 0000 82B0     		sub	sp, sp, #8
  33              		.cfi_def_cfa_offset 8
  34 0002 2023     		movs	r3, #32
  35 0004 0193     		str	r3, [sp, #4]
  36              	.LBB6:
  37              	.LBB7:
  38              		.file 2 "/home/efe/ChibiOS/os/ext/CMSIS/include/core_cmFunc.h"
  39              		.loc 2 548 0
  40 0006 019B     		ldr	r3, [sp, #4]
  41              	@ 548 "/home/efe/ChibiOS/os/ext/CMSIS/include/core_cmFunc.h" 1
  42 0008 83F31188 		MSR basepri, r3
  43              	@ 0 "" 2
  44              		.thumb
  45              	.LBE7:
  46              	.LBE6:
  47              		.loc 1 463 0
  48 000c 02B0     		add	sp, sp, #8
  49              		@ sp needed
  50 000e 7047     		bx	lr
  51              		.cfi_endproc
  52              	.LFE127:
  53              		.size	port_lock, .-port_lock
  54              		.section	.text.port_unlock,"ax",%progbits
  55              		.align	2
  56              		.p2align 4,,15
  57              		.thumb
ARM GAS  /tmp/ccsKobfn.s 			page 2


  58              		.thumb_func
  59              		.type	port_unlock, %function
  60              	port_unlock:
  61              	.LFB128:
  62              		.loc 1 470 0
  63              		.cfi_startproc
  64              		@ args = 0, pretend = 0, frame = 8
  65              		@ frame_needed = 0, uses_anonymous_args = 0
  66              		@ link register save eliminated.
  67 0000 82B0     		sub	sp, sp, #8
  68              		.cfi_def_cfa_offset 8
  69 0002 0023     		movs	r3, #0
  70 0004 0193     		str	r3, [sp, #4]
  71              	.LBB8:
  72              	.LBB9:
  73              		.loc 2 548 0
  74 0006 019B     		ldr	r3, [sp, #4]
  75              	@ 548 "/home/efe/ChibiOS/os/ext/CMSIS/include/core_cmFunc.h" 1
  76 0008 83F31188 		MSR basepri, r3
  77              	@ 0 "" 2
  78              		.thumb
  79              	.LBE9:
  80              	.LBE8:
  81              		.loc 1 477 0
  82 000c 02B0     		add	sp, sp, #8
  83              		@ sp needed
  84 000e 7047     		bx	lr
  85              		.cfi_endproc
  86              	.LFE128:
  87              		.size	port_unlock, .-port_unlock
  88              		.section	.text.st_lld_get_counter,"ax",%progbits
  89              		.align	2
  90              		.p2align 4,,15
  91              		.thumb
  92              		.thumb_func
  93              		.type	st_lld_get_counter, %function
  94              	st_lld_get_counter:
  95              	.LFB136:
  96              		.file 3 "/home/efe/ChibiOS/os/hal/ports/STM32/LLD/TIMv1/st_lld.h"
  97              		.loc 3 139 0
  98              		.cfi_startproc
  99              		@ args = 0, pretend = 0, frame = 0
 100              		@ frame_needed = 0, uses_anonymous_args = 0
 101              		@ link register save eliminated.
 102              		.loc 3 141 0
 103 0000 4FF08043 		mov	r3, #1073741824
 104 0004 5B6A     		ldr	r3, [r3, #36]
 105              		.loc 3 142 0
 106 0006 1846     		mov	r0, r3
 107 0008 7047     		bx	lr
 108              		.cfi_endproc
 109              	.LFE136:
 110              		.size	st_lld_get_counter, .-st_lld_get_counter
 111 000a 00BFAFF3 		.section	.text.port_timer_get_time,"ax",%progbits
 111      0080
 112              		.align	2
 113              		.p2align 4,,15
ARM GAS  /tmp/ccsKobfn.s 			page 3


 114              		.thumb
 115              		.thumb_func
 116              		.type	port_timer_get_time, %function
 117              	port_timer_get_time:
 118              	.LFB145:
 119              		.file 4 "/home/efe/ChibiOS/os/rt/ports/ARMCMx/chcore_timer.h"
 120              		.loc 4 105 0
 121              		.cfi_startproc
 122              		@ args = 0, pretend = 0, frame = 0
 123              		@ frame_needed = 0, uses_anonymous_args = 0
 124 0000 08B5     		push	{r3, lr}
 125              		.cfi_def_cfa_offset 8
 126              		.cfi_offset 3, -8
 127              		.cfi_offset 14, -4
 128              		.loc 4 107 0
 129 0002 FFF7FEFF 		bl	st_lld_get_counter
 130 0006 0346     		mov	r3, r0
 131              		.loc 4 108 0
 132 0008 1846     		mov	r0, r3
 133 000a 08BD     		pop	{r3, pc}
 134              		.cfi_endproc
 135              	.LFE145:
 136              		.size	port_timer_get_time, .-port_timer_get_time
 137              		.section	.text.chSysLock,"ax",%progbits
 138              		.align	2
 139              		.p2align 4,,15
 140              		.thumb
 141              		.thumb_func
 142              		.type	chSysLock, %function
 143              	chSysLock:
 144              	.LFB167:
 145              		.file 5 "/home/efe/ChibiOS/os/rt/include/chsys.h"
 146              		.loc 5 346 0
 147              		.cfi_startproc
 148              		@ args = 0, pretend = 0, frame = 0
 149              		@ frame_needed = 0, uses_anonymous_args = 0
 150 0000 08B5     		push	{r3, lr}
 151              		.cfi_def_cfa_offset 8
 152              		.cfi_offset 3, -8
 153              		.cfi_offset 14, -4
 154              		.loc 5 348 0
 155 0002 FFF7FEFF 		bl	port_lock
 156              		.loc 5 349 0
 157 0006 FFF7FEFF 		bl	_stats_start_measure_crit_thd
 158              		.loc 5 350 0
 159 000a FFF7FEFF 		bl	_dbg_check_lock
 160              		.loc 5 351 0
 161 000e 08BD     		pop	{r3, pc}
 162              		.cfi_endproc
 163              	.LFE167:
 164              		.size	chSysLock, .-chSysLock
 165              		.section	.text.chSysUnlock,"ax",%progbits
 166              		.align	2
 167              		.p2align 4,,15
 168              		.thumb
 169              		.thumb_func
 170              		.type	chSysUnlock, %function
ARM GAS  /tmp/ccsKobfn.s 			page 4


 171              	chSysUnlock:
 172              	.LFB168:
 173              		.loc 5 358 0
 174              		.cfi_startproc
 175              		@ args = 0, pretend = 0, frame = 0
 176              		@ frame_needed = 0, uses_anonymous_args = 0
 177 0000 08B5     		push	{r3, lr}
 178              		.cfi_def_cfa_offset 8
 179              		.cfi_offset 3, -8
 180              		.cfi_offset 14, -4
 181              		.loc 5 360 0
 182 0002 FFF7FEFF 		bl	_dbg_check_unlock
 183              		.loc 5 361 0
 184 0006 FFF7FEFF 		bl	_stats_stop_measure_crit_thd
 185              		.loc 5 367 0
 186 000a 094B     		ldr	r3, .L10
 187 000c 1A68     		ldr	r2, [r3]
 188 000e 084B     		ldr	r3, .L10
 189 0010 9A42     		cmp	r2, r3
 190 0012 0AD0     		beq	.L9
 191              		.loc 5 367 0 is_stmt 0 discriminator 1
 192 0014 064B     		ldr	r3, .L10
 193 0016 9B69     		ldr	r3, [r3, #24]
 194 0018 9A68     		ldr	r2, [r3, #8]
 195 001a 054B     		ldr	r3, .L10
 196 001c 1B68     		ldr	r3, [r3]
 197 001e 9B68     		ldr	r3, [r3, #8]
 198 0020 9A42     		cmp	r2, r3
 199 0022 02D2     		bcs	.L9
 200 0024 0348     		ldr	r0, .L10+4
 201 0026 FFF7FEFF 		bl	chSysHalt
 202              	.L9:
 203              		.loc 5 371 0 is_stmt 1
 204 002a FFF7FEFF 		bl	port_unlock
 205              		.loc 5 372 0
 206 002e 08BD     		pop	{r3, pc}
 207              	.L11:
 208              		.align	2
 209              	.L10:
 210 0030 00000000 		.word	ch
 211 0034 00000000 		.word	__func__.5925
 212              		.cfi_endproc
 213              	.LFE168:
 214              		.size	chSysUnlock, .-chSysUnlock
 215 0038 AFF30080 		.section	.text.chVTGetSystemTimeX,"ax",%progbits
 215      AFF30080 
 216              		.align	2
 217              		.p2align 4,,15
 218              		.thumb
 219              		.thumb_func
 220              		.type	chVTGetSystemTimeX, %function
 221              	chVTGetSystemTimeX:
 222              	.LFB175:
 223              		.file 6 "/home/efe/ChibiOS/os/rt/include/chvt.h"
 224              		.loc 6 228 0
 225              		.cfi_startproc
 226              		@ args = 0, pretend = 0, frame = 0
ARM GAS  /tmp/ccsKobfn.s 			page 5


 227              		@ frame_needed = 0, uses_anonymous_args = 0
 228 0000 08B5     		push	{r3, lr}
 229              		.cfi_def_cfa_offset 8
 230              		.cfi_offset 3, -8
 231              		.cfi_offset 14, -4
 232              		.loc 6 233 0
 233 0002 FFF7FEFF 		bl	port_timer_get_time
 234 0006 0346     		mov	r3, r0
 235              		.loc 6 235 0
 236 0008 1846     		mov	r0, r3
 237 000a 08BD     		pop	{r3, pc}
 238              		.cfi_endproc
 239              	.LFE175:
 240              		.size	chVTGetSystemTimeX, .-chVTGetSystemTimeX
 241              		.section	.text.chVTGetSystemTime,"ax",%progbits
 242              		.align	2
 243              		.p2align 4,,15
 244              		.thumb
 245              		.thumb_func
 246              		.type	chVTGetSystemTime, %function
 247              	chVTGetSystemTime:
 248              	.LFB176:
 249              		.loc 6 247 0
 250              		.cfi_startproc
 251              		@ args = 0, pretend = 0, frame = 8
 252              		@ frame_needed = 0, uses_anonymous_args = 0
 253 0000 00B5     		push	{lr}
 254              		.cfi_def_cfa_offset 4
 255              		.cfi_offset 14, -4
 256 0002 83B0     		sub	sp, sp, #12
 257              		.cfi_def_cfa_offset 16
 258              		.loc 6 250 0
 259 0004 FFF7FEFF 		bl	chSysLock
 260              		.loc 6 251 0
 261 0008 FFF7FEFF 		bl	chVTGetSystemTimeX
 262 000c 0190     		str	r0, [sp, #4]
 263              		.loc 6 252 0
 264 000e FFF7FEFF 		bl	chSysUnlock
 265              		.loc 6 254 0
 266 0012 019B     		ldr	r3, [sp, #4]
 267              		.loc 6 255 0
 268 0014 1846     		mov	r0, r3
 269 0016 03B0     		add	sp, sp, #12
 270              		@ sp needed
 271 0018 5DF804FB 		ldr	pc, [sp], #4
 272              		.cfi_endproc
 273              	.LFE176:
 274              		.size	chVTGetSystemTime, .-chVTGetSystemTime
 275 001c AFF30080 		.section	.text.chThdGetSelfX,"ax",%progbits
 276              		.align	2
 277              		.p2align 4,,15
 278              		.thumb
 279              		.thumb_func
 280              		.type	chThdGetSelfX, %function
 281              	chThdGetSelfX:
 282              	.LFB188:
 283              		.file 7 "/home/efe/ChibiOS/os/rt/include/chthreads.h"
ARM GAS  /tmp/ccsKobfn.s 			page 6


 284              		.loc 7 174 0
 285              		.cfi_startproc
 286              		@ args = 0, pretend = 0, frame = 0
 287              		@ frame_needed = 0, uses_anonymous_args = 0
 288              		@ link register save eliminated.
 289              		.loc 7 176 0
 290 0000 014B     		ldr	r3, .L18
 291 0002 9B69     		ldr	r3, [r3, #24]
 292              		.loc 7 177 0
 293 0004 1846     		mov	r0, r3
 294 0006 7047     		bx	lr
 295              	.L19:
 296              		.align	2
 297              	.L18:
 298 0008 00000000 		.word	ch
 299              		.cfi_endproc
 300              	.LFE188:
 301              		.size	chThdGetSelfX, .-chThdGetSelfX
 302 000c AFF30080 		.section	.text.chThdGetPriorityX,"ax",%progbits
 303              		.align	2
 304              		.p2align 4,,15
 305              		.thumb
 306              		.thumb_func
 307              		.type	chThdGetPriorityX, %function
 308              	chThdGetPriorityX:
 309              	.LFB189:
 310              		.loc 7 187 0
 311              		.cfi_startproc
 312              		@ args = 0, pretend = 0, frame = 0
 313              		@ frame_needed = 0, uses_anonymous_args = 0
 314 0000 08B5     		push	{r3, lr}
 315              		.cfi_def_cfa_offset 8
 316              		.cfi_offset 3, -8
 317              		.cfi_offset 14, -4
 318              		.loc 7 189 0
 319 0002 FFF7FEFF 		bl	chThdGetSelfX
 320 0006 0346     		mov	r3, r0
 321 0008 9B68     		ldr	r3, [r3, #8]
 322              		.loc 7 190 0
 323 000a 1846     		mov	r0, r3
 324 000c 08BD     		pop	{r3, pc}
 325              		.cfi_endproc
 326              	.LFE189:
 327              		.size	chThdGetPriorityX, .-chThdGetPriorityX
 328 000e 00BF     		.section	.text.thread,"ax",%progbits
 329              		.align	2
 330              		.p2align 4,,15
 331              		.thumb
 332              		.thumb_func
 333              		.type	thread, %function
 334              	thread:
 335              	.LFB240:
 336              		.file 8 "/home/efe/ChibiOS/test/rt/testthd.c"
 337              		.loc 8 60 0
 338              		.cfi_startproc
 339              		@ args = 0, pretend = 0, frame = 8
 340              		@ frame_needed = 0, uses_anonymous_args = 0
ARM GAS  /tmp/ccsKobfn.s 			page 7


 341 0000 00B5     		push	{lr}
 342              		.cfi_def_cfa_offset 4
 343              		.cfi_offset 14, -4
 344 0002 83B0     		sub	sp, sp, #12
 345              		.cfi_def_cfa_offset 16
 346 0004 0190     		str	r0, [sp, #4]
 347              		.loc 8 62 0
 348 0006 019B     		ldr	r3, [sp, #4]
 349 0008 1B78     		ldrb	r3, [r3]	@ zero_extendqisi2
 350 000a 1846     		mov	r0, r3
 351 000c FFF7FEFF 		bl	test_emit_token
 352              		.loc 8 63 0
 353 0010 03B0     		add	sp, sp, #12
 354              		@ sp needed
 355 0012 5DF804FB 		ldr	pc, [sp], #4
 356              		.cfi_endproc
 357              	.LFE240:
 358              		.size	thread, .-thread
 359 0016 00BFAFF3 		.section	.rodata
 359      0080AFF3 
 359      0080
 360              		.align	2
 361              	.LC0:
 362 0000 4500     		.ascii	"E\000"
 363 0002 0000     		.align	2
 364              	.LC1:
 365 0004 4400     		.ascii	"D\000"
 366 0006 0000     		.align	2
 367              	.LC2:
 368 0008 4300     		.ascii	"C\000"
 369 000a 0000     		.align	2
 370              	.LC3:
 371 000c 4200     		.ascii	"B\000"
 372 000e 0000     		.align	2
 373              	.LC4:
 374 0010 4100     		.ascii	"A\000"
 375 0012 0000     		.align	2
 376              	.LC5:
 377 0014 41424344 		.ascii	"ABCDE\000"
 377      4500
 378              		.section	.text.thd1_execute,"ax",%progbits
 379              		.align	2
 380              		.p2align 4,,15
 381              		.thumb
 382              		.thumb_func
 383              		.type	thd1_execute, %function
 384              	thd1_execute:
 385              	.LFB241:
 386              		.loc 8 65 0
 387              		.cfi_startproc
 388              		@ args = 0, pretend = 0, frame = 0
 389              		@ frame_needed = 0, uses_anonymous_args = 0
 390 0000 10B5     		push	{r4, lr}
 391              		.cfi_def_cfa_offset 8
 392              		.cfi_offset 4, -8
 393              		.cfi_offset 14, -4
 394 0002 82B0     		sub	sp, sp, #8
ARM GAS  /tmp/ccsKobfn.s 			page 8


 395              		.cfi_def_cfa_offset 16
 396              		.loc 8 67 0
 397 0004 324B     		ldr	r3, .L25
 398 0006 1C68     		ldr	r4, [r3]
 399 0008 FFF7FEFF 		bl	chThdGetPriorityX
 400 000c 0346     		mov	r3, r0
 401 000e 053B     		subs	r3, r3, #5
 402 0010 304A     		ldr	r2, .L25+4
 403 0012 0092     		str	r2, [sp]
 404 0014 2046     		mov	r0, r4
 405 0016 4FF4B471 		mov	r1, #360
 406 001a 1A46     		mov	r2, r3
 407 001c 2E4B     		ldr	r3, .L25+8
 408 001e FFF7FEFF 		bl	chThdCreateStatic
 409 0022 0246     		mov	r2, r0
 410 0024 2D4B     		ldr	r3, .L25+12
 411 0026 1A60     		str	r2, [r3]
 412              		.loc 8 68 0
 413 0028 294B     		ldr	r3, .L25
 414 002a 5C68     		ldr	r4, [r3, #4]
 415 002c FFF7FEFF 		bl	chThdGetPriorityX
 416 0030 0346     		mov	r3, r0
 417 0032 043B     		subs	r3, r3, #4
 418 0034 2A4A     		ldr	r2, .L25+16
 419 0036 0092     		str	r2, [sp]
 420 0038 2046     		mov	r0, r4
 421 003a 4FF4B471 		mov	r1, #360
 422 003e 1A46     		mov	r2, r3
 423 0040 254B     		ldr	r3, .L25+8
 424 0042 FFF7FEFF 		bl	chThdCreateStatic
 425 0046 0246     		mov	r2, r0
 426 0048 244B     		ldr	r3, .L25+12
 427 004a 5A60     		str	r2, [r3, #4]
 428              		.loc 8 69 0
 429 004c 204B     		ldr	r3, .L25
 430 004e 9C68     		ldr	r4, [r3, #8]
 431 0050 FFF7FEFF 		bl	chThdGetPriorityX
 432 0054 0346     		mov	r3, r0
 433 0056 033B     		subs	r3, r3, #3
 434 0058 224A     		ldr	r2, .L25+20
 435 005a 0092     		str	r2, [sp]
 436 005c 2046     		mov	r0, r4
 437 005e 4FF4B471 		mov	r1, #360
 438 0062 1A46     		mov	r2, r3
 439 0064 1C4B     		ldr	r3, .L25+8
 440 0066 FFF7FEFF 		bl	chThdCreateStatic
 441 006a 0246     		mov	r2, r0
 442 006c 1B4B     		ldr	r3, .L25+12
 443 006e 9A60     		str	r2, [r3, #8]
 444              		.loc 8 70 0
 445 0070 174B     		ldr	r3, .L25
 446 0072 DC68     		ldr	r4, [r3, #12]
 447 0074 FFF7FEFF 		bl	chThdGetPriorityX
 448 0078 0346     		mov	r3, r0
 449 007a 023B     		subs	r3, r3, #2
 450 007c 1A4A     		ldr	r2, .L25+24
 451 007e 0092     		str	r2, [sp]
ARM GAS  /tmp/ccsKobfn.s 			page 9


 452 0080 2046     		mov	r0, r4
 453 0082 4FF4B471 		mov	r1, #360
 454 0086 1A46     		mov	r2, r3
 455 0088 134B     		ldr	r3, .L25+8
 456 008a FFF7FEFF 		bl	chThdCreateStatic
 457 008e 0246     		mov	r2, r0
 458 0090 124B     		ldr	r3, .L25+12
 459 0092 DA60     		str	r2, [r3, #12]
 460              		.loc 8 71 0
 461 0094 0E4B     		ldr	r3, .L25
 462 0096 1C69     		ldr	r4, [r3, #16]
 463 0098 FFF7FEFF 		bl	chThdGetPriorityX
 464 009c 0346     		mov	r3, r0
 465 009e 013B     		subs	r3, r3, #1
 466 00a0 124A     		ldr	r2, .L25+28
 467 00a2 0092     		str	r2, [sp]
 468 00a4 2046     		mov	r0, r4
 469 00a6 4FF4B471 		mov	r1, #360
 470 00aa 1A46     		mov	r2, r3
 471 00ac 0A4B     		ldr	r3, .L25+8
 472 00ae FFF7FEFF 		bl	chThdCreateStatic
 473 00b2 0246     		mov	r2, r0
 474 00b4 094B     		ldr	r3, .L25+12
 475 00b6 1A61     		str	r2, [r3, #16]
 476              		.loc 8 72 0
 477 00b8 FFF7FEFF 		bl	test_wait_threads
 478              		.loc 8 73 0
 479 00bc 0120     		movs	r0, #1
 480 00be 0C49     		ldr	r1, .L25+32
 481 00c0 FFF7FEFF 		bl	_test_assert_sequence
 482 00c4 0346     		mov	r3, r0
 483 00c6 002B     		cmp	r3, #0
 484 00c8 00D0     		beq	.L23
 485              		.loc 8 73 0 is_stmt 0 discriminator 1
 486 00ca 00BF     		nop
 487              	.L23:
 488              		.loc 8 74 0 is_stmt 1
 489 00cc 02B0     		add	sp, sp, #8
 490              		@ sp needed
 491 00ce 10BD     		pop	{r4, pc}
 492              	.L26:
 493              		.align	2
 494              	.L25:
 495 00d0 00000000 		.word	wa
 496 00d4 00000000 		.word	.LC0
 497 00d8 00000000 		.word	thread
 498 00dc 00000000 		.word	threads
 499 00e0 04000000 		.word	.LC1
 500 00e4 08000000 		.word	.LC2
 501 00e8 0C000000 		.word	.LC3
 502 00ec 10000000 		.word	.LC4
 503 00f0 14000000 		.word	.LC5
 504              		.cfi_endproc
 505              	.LFE241:
 506              		.size	thd1_execute, .-thd1_execute
 507              		.global	testthd1
 508 00f4 AFF30080 		.section	.rodata
ARM GAS  /tmp/ccsKobfn.s 			page 10


 508      AFF30080 
 508      AFF30080 
 509 001a 0000     		.align	2
 510              	.LC6:
 511 001c 54687265 		.ascii	"Threads, enqueuing test #1\000"
 511      6164732C 
 511      20656E71 
 511      75657569 
 511      6E672074 
 512              		.section	.rodata.testthd1,"a",%progbits
 513              		.align	2
 514              		.type	testthd1, %object
 515              		.size	testthd1, 16
 516              	testthd1:
 517 0000 1C000000 		.word	.LC6
 518 0004 00000000 		.word	0
 519 0008 00000000 		.word	0
 520 000c 00000000 		.word	thd1_execute
 521              		.section	.text.thd2_execute,"ax",%progbits
 522              		.align	2
 523              		.p2align 4,,15
 524              		.thumb
 525              		.thumb_func
 526              		.type	thd2_execute, %function
 527              	thd2_execute:
 528              	.LFB242:
 529              		.loc 8 93 0
 530              		.cfi_startproc
 531              		@ args = 0, pretend = 0, frame = 0
 532              		@ frame_needed = 0, uses_anonymous_args = 0
 533 0000 10B5     		push	{r4, lr}
 534              		.cfi_def_cfa_offset 8
 535              		.cfi_offset 4, -8
 536              		.cfi_offset 14, -4
 537 0002 82B0     		sub	sp, sp, #8
 538              		.cfi_def_cfa_offset 16
 539              		.loc 8 95 0
 540 0004 374B     		ldr	r3, .L29
 541 0006 5C68     		ldr	r4, [r3, #4]
 542 0008 FFF7FEFF 		bl	chThdGetPriorityX
 543 000c 0346     		mov	r3, r0
 544 000e 043B     		subs	r3, r3, #4
 545 0010 354A     		ldr	r2, .L29+4
 546 0012 0092     		str	r2, [sp]
 547 0014 2046     		mov	r0, r4
 548 0016 4FF4B471 		mov	r1, #360
 549 001a 1A46     		mov	r2, r3
 550 001c 334B     		ldr	r3, .L29+8
 551 001e FFF7FEFF 		bl	chThdCreateStatic
 552 0022 0246     		mov	r2, r0
 553 0024 324B     		ldr	r3, .L29+12
 554 0026 5A60     		str	r2, [r3, #4]
 555              		.loc 8 96 0
 556 0028 2E4B     		ldr	r3, .L29
 557 002a 1C68     		ldr	r4, [r3]
 558 002c FFF7FEFF 		bl	chThdGetPriorityX
 559 0030 0346     		mov	r3, r0
ARM GAS  /tmp/ccsKobfn.s 			page 11


 560 0032 053B     		subs	r3, r3, #5
 561 0034 2F4A     		ldr	r2, .L29+16
 562 0036 0092     		str	r2, [sp]
 563 0038 2046     		mov	r0, r4
 564 003a 4FF4B471 		mov	r1, #360
 565 003e 1A46     		mov	r2, r3
 566 0040 2A4B     		ldr	r3, .L29+8
 567 0042 FFF7FEFF 		bl	chThdCreateStatic
 568 0046 0246     		mov	r2, r0
 569 0048 294B     		ldr	r3, .L29+12
 570 004a 1A60     		str	r2, [r3]
 571              		.loc 8 97 0
 572 004c 254B     		ldr	r3, .L29
 573 004e 1C69     		ldr	r4, [r3, #16]
 574 0050 FFF7FEFF 		bl	chThdGetPriorityX
 575 0054 0346     		mov	r3, r0
 576 0056 013B     		subs	r3, r3, #1
 577 0058 274A     		ldr	r2, .L29+20
 578 005a 0092     		str	r2, [sp]
 579 005c 2046     		mov	r0, r4
 580 005e 4FF4B471 		mov	r1, #360
 581 0062 1A46     		mov	r2, r3
 582 0064 214B     		ldr	r3, .L29+8
 583 0066 FFF7FEFF 		bl	chThdCreateStatic
 584 006a 0246     		mov	r2, r0
 585 006c 204B     		ldr	r3, .L29+12
 586 006e 1A61     		str	r2, [r3, #16]
 587              		.loc 8 98 0
 588 0070 1C4B     		ldr	r3, .L29
 589 0072 DC68     		ldr	r4, [r3, #12]
 590 0074 FFF7FEFF 		bl	chThdGetPriorityX
 591 0078 0346     		mov	r3, r0
 592 007a 023B     		subs	r3, r3, #2
 593 007c 1F4A     		ldr	r2, .L29+24
 594 007e 0092     		str	r2, [sp]
 595 0080 2046     		mov	r0, r4
 596 0082 4FF4B471 		mov	r1, #360
 597 0086 1A46     		mov	r2, r3
 598 0088 184B     		ldr	r3, .L29+8
 599 008a FFF7FEFF 		bl	chThdCreateStatic
 600 008e 0246     		mov	r2, r0
 601 0090 174B     		ldr	r3, .L29+12
 602 0092 DA60     		str	r2, [r3, #12]
 603              		.loc 8 100 0
 604 0094 FFF7FEFF 		bl	chSysLock
 605              		.loc 8 101 0
 606 0098 124B     		ldr	r3, .L29
 607 009a 9C68     		ldr	r4, [r3, #8]
 608 009c FFF7FEFF 		bl	chThdGetPriorityX
 609 00a0 0346     		mov	r3, r0
 610 00a2 033B     		subs	r3, r3, #3
 611 00a4 164A     		ldr	r2, .L29+28
 612 00a6 0092     		str	r2, [sp]
 613 00a8 2046     		mov	r0, r4
 614 00aa 4FF4B471 		mov	r1, #360
 615 00ae 1A46     		mov	r2, r3
 616 00b0 0E4B     		ldr	r3, .L29+8
ARM GAS  /tmp/ccsKobfn.s 			page 12


 617 00b2 FFF7FEFF 		bl	chThdCreateI
 618 00b6 0246     		mov	r2, r0
 619 00b8 0D4B     		ldr	r3, .L29+12
 620 00ba 9A60     		str	r2, [r3, #8]
 621              		.loc 8 102 0
 622 00bc FFF7FEFF 		bl	chSysUnlock
 623              		.loc 8 103 0
 624 00c0 0B4B     		ldr	r3, .L29+12
 625 00c2 9B68     		ldr	r3, [r3, #8]
 626 00c4 1846     		mov	r0, r3
 627 00c6 FFF7FEFF 		bl	chThdStart
 628              		.loc 8 104 0
 629 00ca FFF7FEFF 		bl	test_wait_threads
 630              		.loc 8 105 0
 631 00ce 0120     		movs	r0, #1
 632 00d0 0C49     		ldr	r1, .L29+32
 633 00d2 FFF7FEFF 		bl	_test_assert_sequence
 634 00d6 0346     		mov	r3, r0
 635 00d8 002B     		cmp	r3, #0
 636 00da 00D0     		beq	.L27
 637              		.loc 8 105 0 is_stmt 0 discriminator 1
 638 00dc 00BF     		nop
 639              	.L27:
 640              		.loc 8 106 0 is_stmt 1
 641 00de 02B0     		add	sp, sp, #8
 642              		@ sp needed
 643 00e0 10BD     		pop	{r4, pc}
 644              	.L30:
 645 00e2 00BF     		.align	2
 646              	.L29:
 647 00e4 00000000 		.word	wa
 648 00e8 04000000 		.word	.LC1
 649 00ec 00000000 		.word	thread
 650 00f0 00000000 		.word	threads
 651 00f4 00000000 		.word	.LC0
 652 00f8 10000000 		.word	.LC4
 653 00fc 0C000000 		.word	.LC3
 654 0100 08000000 		.word	.LC2
 655 0104 14000000 		.word	.LC5
 656              		.cfi_endproc
 657              	.LFE242:
 658              		.size	thd2_execute, .-thd2_execute
 659              		.global	testthd2
 660 0108 AFF30080 		.section	.rodata
 660      AFF30080 
 661 0037 00       		.align	2
 662              	.LC7:
 663 0038 54687265 		.ascii	"Threads, enqueuing test #2\000"
 663      6164732C 
 663      20656E71 
 663      75657569 
 663      6E672074 
 664              		.section	.rodata.testthd2,"a",%progbits
 665              		.align	2
 666              		.type	testthd2, %object
 667              		.size	testthd2, 16
 668              	testthd2:
ARM GAS  /tmp/ccsKobfn.s 			page 13


 669 0000 38000000 		.word	.LC7
 670 0004 00000000 		.word	0
 671 0008 00000000 		.word	0
 672 000c 00000000 		.word	thd2_execute
 673              		.section	.text.thd3_execute,"ax",%progbits
 674              		.align	2
 675              		.p2align 4,,15
 676              		.thumb
 677              		.thumb_func
 678              		.type	thd3_execute, %function
 679              	thd3_execute:
 680              	.LFB243:
 681              		.loc 8 125 0
 682              		.cfi_startproc
 683              		@ args = 0, pretend = 0, frame = 8
 684              		@ frame_needed = 0, uses_anonymous_args = 0
 685 0000 00B5     		push	{lr}
 686              		.cfi_def_cfa_offset 4
 687              		.cfi_offset 14, -4
 688 0002 83B0     		sub	sp, sp, #12
 689              		.cfi_def_cfa_offset 16
 690              		.loc 8 128 0
 691 0004 FFF7FEFF 		bl	chThdGetPriorityX
 692 0008 0190     		str	r0, [sp, #4]
 693              		.loc 8 129 0
 694 000a 019B     		ldr	r3, [sp, #4]
 695 000c 0133     		adds	r3, r3, #1
 696 000e 1846     		mov	r0, r3
 697 0010 FFF7FEFF 		bl	chThdSetPriority
 698 0014 0090     		str	r0, [sp]
 699              		.loc 8 130 0
 700 0016 009A     		ldr	r2, [sp]
 701 0018 019B     		ldr	r3, [sp, #4]
 702 001a 9A42     		cmp	r2, r3
 703 001c 14BF     		ite	ne
 704 001e 0023     		movne	r3, #0
 705 0020 0123     		moveq	r3, #1
 706 0022 DBB2     		uxtb	r3, r3
 707 0024 0120     		movs	r0, #1
 708 0026 1946     		mov	r1, r3
 709 0028 FFF7FEFF 		bl	_test_assert
 710 002c 0346     		mov	r3, r0
 711 002e 002B     		cmp	r3, #0
 712 0030 00D0     		beq	.L32
 713              		.loc 8 130 0 is_stmt 0 discriminator 1
 714 0032 D7E0     		b	.L31
 715              	.L32:
 716              		.loc 8 132 0 is_stmt 1
 717 0034 FFF7FEFF 		bl	chThdGetPriorityX
 718 0038 0246     		mov	r2, r0
 719 003a 019B     		ldr	r3, [sp, #4]
 720 003c 0133     		adds	r3, r3, #1
 721 003e 9A42     		cmp	r2, r3
 722 0040 14BF     		ite	ne
 723 0042 0023     		movne	r3, #0
 724 0044 0123     		moveq	r3, #1
 725 0046 DBB2     		uxtb	r3, r3
ARM GAS  /tmp/ccsKobfn.s 			page 14


 726 0048 0220     		movs	r0, #2
 727 004a 1946     		mov	r1, r3
 728 004c FFF7FEFF 		bl	_test_assert
 729 0050 0346     		mov	r3, r0
 730 0052 002B     		cmp	r3, #0
 731 0054 00D0     		beq	.L34
 732              		.loc 8 132 0 is_stmt 0 discriminator 1
 733 0056 C5E0     		b	.L31
 734              	.L34:
 735              		.loc 8 134 0 is_stmt 1
 736 0058 0098     		ldr	r0, [sp]
 737 005a FFF7FEFF 		bl	chThdSetPriority
 738 005e 0090     		str	r0, [sp]
 739              		.loc 8 135 0
 740 0060 019B     		ldr	r3, [sp, #4]
 741 0062 5A1C     		adds	r2, r3, #1
 742 0064 009B     		ldr	r3, [sp]
 743 0066 9A42     		cmp	r2, r3
 744 0068 14BF     		ite	ne
 745 006a 0023     		movne	r3, #0
 746 006c 0123     		moveq	r3, #1
 747 006e DBB2     		uxtb	r3, r3
 748 0070 0320     		movs	r0, #3
 749 0072 1946     		mov	r1, r3
 750 0074 FFF7FEFF 		bl	_test_assert
 751 0078 0346     		mov	r3, r0
 752 007a 002B     		cmp	r3, #0
 753 007c 00D0     		beq	.L35
 754              		.loc 8 135 0 is_stmt 0 discriminator 1
 755 007e B1E0     		b	.L31
 756              	.L35:
 757              		.loc 8 137 0 is_stmt 1
 758 0080 FFF7FEFF 		bl	chThdGetPriorityX
 759 0084 0246     		mov	r2, r0
 760 0086 019B     		ldr	r3, [sp, #4]
 761 0088 9A42     		cmp	r2, r3
 762 008a 14BF     		ite	ne
 763 008c 0023     		movne	r3, #0
 764 008e 0123     		moveq	r3, #1
 765 0090 DBB2     		uxtb	r3, r3
 766 0092 0420     		movs	r0, #4
 767 0094 1946     		mov	r1, r3
 768 0096 FFF7FEFF 		bl	_test_assert
 769 009a 0346     		mov	r3, r0
 770 009c 002B     		cmp	r3, #0
 771 009e 00D0     		beq	.L36
 772              		.loc 8 137 0 is_stmt 0 discriminator 1
 773 00a0 A0E0     		b	.L31
 774              	.L36:
 775              		.loc 8 142 0 is_stmt 1
 776 00a2 FFF7FEFF 		bl	chSysLock
 777              		.loc 8 143 0
 778 00a6 FFF7FEFF 		bl	chThdGetSelfX
 779 00aa 0346     		mov	r3, r0
 780 00ac 9A68     		ldr	r2, [r3, #8]
 781 00ae 0232     		adds	r2, r2, #2
 782 00b0 9A60     		str	r2, [r3, #8]
ARM GAS  /tmp/ccsKobfn.s 			page 15


 783              		.loc 8 144 0
 784 00b2 FFF7FEFF 		bl	chSysUnlock
 785              		.loc 8 145 0
 786 00b6 FFF7FEFF 		bl	chThdGetPriorityX
 787 00ba 0246     		mov	r2, r0
 788 00bc 019B     		ldr	r3, [sp, #4]
 789 00be 0233     		adds	r3, r3, #2
 790 00c0 9A42     		cmp	r2, r3
 791 00c2 14BF     		ite	ne
 792 00c4 0023     		movne	r3, #0
 793 00c6 0123     		moveq	r3, #1
 794 00c8 DBB2     		uxtb	r3, r3
 795 00ca 0520     		movs	r0, #5
 796 00cc 1946     		mov	r1, r3
 797 00ce FFF7FEFF 		bl	_test_assert
 798 00d2 0346     		mov	r3, r0
 799 00d4 002B     		cmp	r3, #0
 800 00d6 00D0     		beq	.L37
 801              		.loc 8 145 0 is_stmt 0 discriminator 1
 802 00d8 84E0     		b	.L31
 803              	.L37:
 804              		.loc 8 149 0 is_stmt 1
 805 00da 019B     		ldr	r3, [sp, #4]
 806 00dc 0133     		adds	r3, r3, #1
 807 00de 1846     		mov	r0, r3
 808 00e0 FFF7FEFF 		bl	chThdSetPriority
 809 00e4 0090     		str	r0, [sp]
 810              		.loc 8 150 0
 811 00e6 009A     		ldr	r2, [sp]
 812 00e8 019B     		ldr	r3, [sp, #4]
 813 00ea 9A42     		cmp	r2, r3
 814 00ec 14BF     		ite	ne
 815 00ee 0023     		movne	r3, #0
 816 00f0 0123     		moveq	r3, #1
 817 00f2 DBB2     		uxtb	r3, r3
 818 00f4 0620     		movs	r0, #6
 819 00f6 1946     		mov	r1, r3
 820 00f8 FFF7FEFF 		bl	_test_assert
 821 00fc 0346     		mov	r3, r0
 822 00fe 002B     		cmp	r3, #0
 823 0100 00D0     		beq	.L38
 824              		.loc 8 150 0 is_stmt 0 discriminator 1
 825 0102 6FE0     		b	.L31
 826              	.L38:
 827              		.loc 8 152 0 is_stmt 1
 828 0104 FFF7FEFF 		bl	chThdGetSelfX
 829 0108 0346     		mov	r3, r0
 830 010a 9A68     		ldr	r2, [r3, #8]
 831 010c 019B     		ldr	r3, [sp, #4]
 832 010e 0233     		adds	r3, r3, #2
 833 0110 9A42     		cmp	r2, r3
 834 0112 14BF     		ite	ne
 835 0114 0023     		movne	r3, #0
 836 0116 0123     		moveq	r3, #1
 837 0118 DBB2     		uxtb	r3, r3
 838 011a 0720     		movs	r0, #7
 839 011c 1946     		mov	r1, r3
ARM GAS  /tmp/ccsKobfn.s 			page 16


 840 011e FFF7FEFF 		bl	_test_assert
 841 0122 0346     		mov	r3, r0
 842 0124 002B     		cmp	r3, #0
 843 0126 00D0     		beq	.L39
 844              		.loc 8 152 0 is_stmt 0 discriminator 1
 845 0128 5CE0     		b	.L31
 846              	.L39:
 847              		.loc 8 154 0 is_stmt 1
 848 012a FFF7FEFF 		bl	chThdGetSelfX
 849 012e 0346     		mov	r3, r0
 850 0130 1A6C     		ldr	r2, [r3, #64]
 851 0132 019B     		ldr	r3, [sp, #4]
 852 0134 0133     		adds	r3, r3, #1
 853 0136 9A42     		cmp	r2, r3
 854 0138 14BF     		ite	ne
 855 013a 0023     		movne	r3, #0
 856 013c 0123     		moveq	r3, #1
 857 013e DBB2     		uxtb	r3, r3
 858 0140 0820     		movs	r0, #8
 859 0142 1946     		mov	r1, r3
 860 0144 FFF7FEFF 		bl	_test_assert
 861 0148 0346     		mov	r3, r0
 862 014a 002B     		cmp	r3, #0
 863 014c 00D0     		beq	.L40
 864              		.loc 8 154 0 is_stmt 0 discriminator 1
 865 014e 49E0     		b	.L31
 866              	.L40:
 867              		.loc 8 158 0 is_stmt 1
 868 0150 019B     		ldr	r3, [sp, #4]
 869 0152 0333     		adds	r3, r3, #3
 870 0154 1846     		mov	r0, r3
 871 0156 FFF7FEFF 		bl	chThdSetPriority
 872 015a 0090     		str	r0, [sp]
 873              		.loc 8 159 0
 874 015c 019B     		ldr	r3, [sp, #4]
 875 015e 5A1C     		adds	r2, r3, #1
 876 0160 009B     		ldr	r3, [sp]
 877 0162 9A42     		cmp	r2, r3
 878 0164 14BF     		ite	ne
 879 0166 0023     		movne	r3, #0
 880 0168 0123     		moveq	r3, #1
 881 016a DBB2     		uxtb	r3, r3
 882 016c 0920     		movs	r0, #9
 883 016e 1946     		mov	r1, r3
 884 0170 FFF7FEFF 		bl	_test_assert
 885 0174 0346     		mov	r3, r0
 886 0176 002B     		cmp	r3, #0
 887 0178 00D0     		beq	.L41
 888              		.loc 8 159 0 is_stmt 0 discriminator 1
 889 017a 33E0     		b	.L31
 890              	.L41:
 891              		.loc 8 161 0 is_stmt 1
 892 017c FFF7FEFF 		bl	chThdGetSelfX
 893 0180 0346     		mov	r3, r0
 894 0182 9A68     		ldr	r2, [r3, #8]
 895 0184 019B     		ldr	r3, [sp, #4]
 896 0186 0333     		adds	r3, r3, #3
ARM GAS  /tmp/ccsKobfn.s 			page 17


 897 0188 9A42     		cmp	r2, r3
 898 018a 14BF     		ite	ne
 899 018c 0023     		movne	r3, #0
 900 018e 0123     		moveq	r3, #1
 901 0190 DBB2     		uxtb	r3, r3
 902 0192 0A20     		movs	r0, #10
 903 0194 1946     		mov	r1, r3
 904 0196 FFF7FEFF 		bl	_test_assert
 905 019a 0346     		mov	r3, r0
 906 019c 002B     		cmp	r3, #0
 907 019e 00D0     		beq	.L42
 908              		.loc 8 161 0 is_stmt 0 discriminator 1
 909 01a0 20E0     		b	.L31
 910              	.L42:
 911              		.loc 8 163 0 is_stmt 1
 912 01a2 FFF7FEFF 		bl	chThdGetSelfX
 913 01a6 0346     		mov	r3, r0
 914 01a8 1A6C     		ldr	r2, [r3, #64]
 915 01aa 019B     		ldr	r3, [sp, #4]
 916 01ac 0333     		adds	r3, r3, #3
 917 01ae 9A42     		cmp	r2, r3
 918 01b0 14BF     		ite	ne
 919 01b2 0023     		movne	r3, #0
 920 01b4 0123     		moveq	r3, #1
 921 01b6 DBB2     		uxtb	r3, r3
 922 01b8 0B20     		movs	r0, #11
 923 01ba 1946     		mov	r1, r3
 924 01bc FFF7FEFF 		bl	_test_assert
 925 01c0 0346     		mov	r3, r0
 926 01c2 002B     		cmp	r3, #0
 927 01c4 00D0     		beq	.L43
 928              		.loc 8 163 0 is_stmt 0 discriminator 1
 929 01c6 0DE0     		b	.L31
 930              	.L43:
 931              		.loc 8 166 0 is_stmt 1
 932 01c8 FFF7FEFF 		bl	chSysLock
 933              		.loc 8 167 0
 934 01cc FFF7FEFF 		bl	chThdGetSelfX
 935 01d0 0346     		mov	r3, r0
 936 01d2 019A     		ldr	r2, [sp, #4]
 937 01d4 9A60     		str	r2, [r3, #8]
 938              		.loc 8 168 0
 939 01d6 FFF7FEFF 		bl	chThdGetSelfX
 940 01da 0346     		mov	r3, r0
 941 01dc 019A     		ldr	r2, [sp, #4]
 942 01de 1A64     		str	r2, [r3, #64]
 943              		.loc 8 169 0
 944 01e0 FFF7FEFF 		bl	chSysUnlock
 945              	.L31:
 946              		.loc 8 171 0
 947 01e4 03B0     		add	sp, sp, #12
 948              		@ sp needed
 949 01e6 5DF804FB 		ldr	pc, [sp], #4
 950              		.cfi_endproc
 951              	.LFE243:
 952              		.size	thd3_execute, .-thd3_execute
 953              		.global	testthd3
ARM GAS  /tmp/ccsKobfn.s 			page 18


 954 01ea 00BFAFF3 		.section	.rodata
 954      0080
 955 0053 00       		.align	2
 956              	.LC8:
 957 0054 54687265 		.ascii	"Threads, priority change\000"
 957      6164732C 
 957      20707269 
 957      6F726974 
 957      79206368 
 958              		.section	.rodata.testthd3,"a",%progbits
 959              		.align	2
 960              		.type	testthd3, %object
 961              		.size	testthd3, 16
 962              	testthd3:
 963 0000 54000000 		.word	.LC8
 964 0004 00000000 		.word	0
 965 0008 00000000 		.word	0
 966 000c 00000000 		.word	thd3_execute
 967              		.section	.text.thd4_execute,"ax",%progbits
 968              		.align	2
 969              		.p2align 4,,15
 970              		.thumb
 971              		.thumb_func
 972              		.type	thd4_execute, %function
 973              	thd4_execute:
 974              	.LFB244:
 975              		.loc 8 188 0
 976              		.cfi_startproc
 977              		@ args = 0, pretend = 0, frame = 8
 978              		@ frame_needed = 0, uses_anonymous_args = 0
 979 0000 00B5     		push	{lr}
 980              		.cfi_def_cfa_offset 4
 981              		.cfi_offset 14, -4
 982 0002 83B0     		sub	sp, sp, #12
 983              		.cfi_def_cfa_offset 16
 984              		.loc 8 191 0
 985 0004 FFF7FEFF 		bl	test_wait_tick
 986              		.loc 8 194 0
 987 0008 FFF7FEFF 		bl	chVTGetSystemTime
 988 000c 0190     		str	r0, [sp, #4]
 989              		.loc 8 195 0
 990 000e 4FF47A70 		mov	r0, #1000
 991 0012 FFF7FEFF 		bl	chThdSleep
 992              		.loc 8 196 0
 993 0016 019B     		ldr	r3, [sp, #4]
 994 0018 03F57A72 		add	r2, r3, #1000
 995 001c 019B     		ldr	r3, [sp, #4]
 996 001e 03F2EB33 		addw	r3, r3, #1003
 997 0022 0120     		movs	r0, #1
 998 0024 1146     		mov	r1, r2
 999 0026 1A46     		mov	r2, r3
 1000 0028 FFF7FEFF 		bl	_test_assert_time_window
 1001 002c 0346     		mov	r3, r0
 1002 002e 002B     		cmp	r3, #0
 1003 0030 00D0     		beq	.L45
 1004              		.loc 8 196 0 is_stmt 0 discriminator 1
 1005 0032 41E0     		b	.L44
ARM GAS  /tmp/ccsKobfn.s 			page 19


 1006              	.L45:
 1007              		.loc 8 201 0 is_stmt 1
 1008 0034 FFF7FEFF 		bl	chVTGetSystemTime
 1009 0038 0190     		str	r0, [sp, #4]
 1010              		.loc 8 202 0
 1011 003a 4FF47A70 		mov	r0, #1000
 1012 003e FFF7FEFF 		bl	chThdSleep
 1013              		.loc 8 203 0
 1014 0042 019B     		ldr	r3, [sp, #4]
 1015 0044 03F57A72 		add	r2, r3, #1000
 1016 0048 019B     		ldr	r3, [sp, #4]
 1017 004a 03F2EB33 		addw	r3, r3, #1003
 1018 004e 0220     		movs	r0, #2
 1019 0050 1146     		mov	r1, r2
 1020 0052 1A46     		mov	r2, r3
 1021 0054 FFF7FEFF 		bl	_test_assert_time_window
 1022 0058 0346     		mov	r3, r0
 1023 005a 002B     		cmp	r3, #0
 1024 005c 00D0     		beq	.L47
 1025              		.loc 8 203 0 is_stmt 0 discriminator 1
 1026 005e 2BE0     		b	.L44
 1027              	.L47:
 1028              		.loc 8 208 0 is_stmt 1
 1029 0060 FFF7FEFF 		bl	chVTGetSystemTime
 1030 0064 0190     		str	r0, [sp, #4]
 1031              		.loc 8 209 0
 1032 0066 42F21070 		movw	r0, #10000
 1033 006a FFF7FEFF 		bl	chThdSleep
 1034              		.loc 8 210 0
 1035 006e 019B     		ldr	r3, [sp, #4]
 1036 0070 03F51C52 		add	r2, r3, #9984
 1037 0074 1032     		adds	r2, r2, #16
 1038 0076 019B     		ldr	r3, [sp, #4]
 1039 0078 03F51C53 		add	r3, r3, #9984
 1040 007c 1333     		adds	r3, r3, #19
 1041 007e 0320     		movs	r0, #3
 1042 0080 1146     		mov	r1, r2
 1043 0082 1A46     		mov	r2, r3
 1044 0084 FFF7FEFF 		bl	_test_assert_time_window
 1045 0088 0346     		mov	r3, r0
 1046 008a 002B     		cmp	r3, #0
 1047 008c 00D0     		beq	.L48
 1048              		.loc 8 210 0 is_stmt 0 discriminator 1
 1049 008e 13E0     		b	.L44
 1050              	.L48:
 1051              		.loc 8 215 0 is_stmt 1
 1052 0090 FFF7FEFF 		bl	chVTGetSystemTime
 1053 0094 0346     		mov	r3, r0
 1054 0096 03F57A73 		add	r3, r3, #1000
 1055 009a 0193     		str	r3, [sp, #4]
 1056              		.loc 8 216 0
 1057 009c 0198     		ldr	r0, [sp, #4]
 1058 009e FFF7FEFF 		bl	chThdSleepUntil
 1059              		.loc 8 217 0
 1060 00a2 019B     		ldr	r3, [sp, #4]
 1061 00a4 0333     		adds	r3, r3, #3
 1062 00a6 0420     		movs	r0, #4
ARM GAS  /tmp/ccsKobfn.s 			page 20


 1063 00a8 0199     		ldr	r1, [sp, #4]
 1064 00aa 1A46     		mov	r2, r3
 1065 00ac FFF7FEFF 		bl	_test_assert_time_window
 1066 00b0 0346     		mov	r3, r0
 1067 00b2 002B     		cmp	r3, #0
 1068 00b4 00D0     		beq	.L44
 1069              		.loc 8 217 0 is_stmt 0 discriminator 1
 1070 00b6 00BF     		nop
 1071              	.L44:
 1072              		.loc 8 220 0 is_stmt 1
 1073 00b8 03B0     		add	sp, sp, #12
 1074              		@ sp needed
 1075 00ba 5DF804FB 		ldr	pc, [sp], #4
 1076              		.cfi_endproc
 1077              	.LFE244:
 1078              		.size	thd4_execute, .-thd4_execute
 1079              		.global	testthd4
 1080 00be 00BF     		.section	.rodata
 1081 006d 000000   		.align	2
 1082              	.LC9:
 1083 0070 54687265 		.ascii	"Threads, delays\000"
 1083      6164732C 
 1083      2064656C 
 1083      61797300 
 1084              		.section	.rodata.testthd4,"a",%progbits
 1085              		.align	2
 1086              		.type	testthd4, %object
 1087              		.size	testthd4, 16
 1088              	testthd4:
 1089 0000 70000000 		.word	.LC9
 1090 0004 00000000 		.word	0
 1091 0008 00000000 		.word	0
 1092 000c 00000000 		.word	thd4_execute
 1093              		.global	patternthd
 1094              		.section	.rodata.patternthd,"a",%progbits
 1095              		.align	2
 1096              		.type	patternthd, %object
 1097              		.size	patternthd, 20
 1098              	patternthd:
 1099 0000 00000000 		.word	testthd1
 1100 0004 00000000 		.word	testthd2
 1101 0008 00000000 		.word	testthd3
 1102 000c 00000000 		.word	testthd4
 1103 0010 00000000 		.word	0
 1104              		.section	.rodata.__func__.5925,"a",%progbits
 1105              		.align	2
 1106              		.type	__func__.5925, %object
 1107              		.size	__func__.5925, 12
 1108              	__func__.5925:
 1109 0000 63685379 		.ascii	"chSysUnlock\000"
 1109      73556E6C 
 1109      6F636B00 
 1110              		.text
 1111              	.Letext0:
 1112              		.file 9 "/usr/lib/gcc/arm-none-eabi/4.8/include/stddef.h"
 1113              		.file 10 "/usr/include/newlib/machine/_default_types.h"
 1114              		.file 11 "/usr/include/newlib/stdint.h"
ARM GAS  /tmp/ccsKobfn.s 			page 21


 1115              		.file 12 "/home/efe/ChibiOS/os/rt/ports/ARMCMx/compilers/GCC/chtypes.h"
 1116              		.file 13 "/home/efe/ChibiOS/os/rt/include/chsystypes.h"
 1117              		.file 14 "/home/efe/ChibiOS/os/rt/include/chschd.h"
 1118              		.file 15 "/home/efe/ChibiOS/os/rt/ports/ARMCMx/chcore.h"
 1119              		.file 16 "/home/efe/ChibiOS/os/hal/ports/STM32/LLD/TIMv1/stm32_tim.h"
 1120              		.file 17 "/home/efe/ChibiOS/os/rt/include/chdebug.h"
 1121              		.file 18 "/home/efe/ChibiOS/os/rt/include/chtm.h"
 1122              		.file 19 "/home/efe/ChibiOS/os/rt/include/chstats.h"
 1123              		.file 20 "/home/efe/ChibiOS/os/rt/include/chsem.h"
 1124              		.file 21 "/home/efe/ChibiOS/os/rt/include/chmtx.h"
 1125              		.file 22 "/home/efe/ChibiOS/test/rt/test.h"
 1126              		.file 23 "/home/efe/ChibiOS/os/ext/CMSIS/include/core_cm4.h"