ARM GAS  /tmp/ccZrWEni.s 			page 1


   1              		.syntax unified
   2              		.cpu cortex-m4
   3              		.fpu softvfp
   4              		.eabi_attribute 20, 1
   5              		.eabi_attribute 21, 1
   6              		.eabi_attribute 23, 3
   7              		.eabi_attribute 24, 1
   8              		.eabi_attribute 25, 1
   9              		.eabi_attribute 26, 1
  10              		.eabi_attribute 30, 6
  11              		.eabi_attribute 34, 1
  12              		.eabi_attribute 18, 4
  13              		.thumb
  14              		.file	"testmbox.c"
  15              		.text
  16              	.Ltext0:
  17              		.cfi_sections	.debug_frame
  18              		.section	.text.port_lock,"ax",%progbits
  19              		.align	2
  20              		.p2align 4,,15
  21              		.thumb
  22              		.thumb_func
  23              		.type	port_lock, %function
  24              	port_lock:
  25              	.LFB127:
  26              		.file 1 "/home/efe/ChibiOS/os/rt/ports/ARMCMx/chcore_v7m.h"
  27              		.loc 1 456 0
  28              		.cfi_startproc
  29              		@ args = 0, pretend = 0, frame = 8
  30              		@ frame_needed = 0, uses_anonymous_args = 0
  31              		@ link register save eliminated.
  32 0000 82B0     		sub	sp, sp, #8
  33              		.cfi_def_cfa_offset 8
  34 0002 2023     		movs	r3, #32
  35 0004 0193     		str	r3, [sp, #4]
  36              	.LBB6:
  37              	.LBB7:
  38              		.file 2 "/home/efe/ChibiOS/os/ext/CMSIS/include/core_cmFunc.h"
  39              		.loc 2 548 0
  40 0006 019B     		ldr	r3, [sp, #4]
  41              	@ 548 "/home/efe/ChibiOS/os/ext/CMSIS/include/core_cmFunc.h" 1
  42 0008 83F31188 		MSR basepri, r3
  43              	@ 0 "" 2
  44              		.thumb
  45              	.LBE7:
  46              	.LBE6:
  47              		.loc 1 463 0
  48 000c 02B0     		add	sp, sp, #8
  49              		@ sp needed
  50 000e 7047     		bx	lr
  51              		.cfi_endproc
  52              	.LFE127:
  53              		.size	port_lock, .-port_lock
  54              		.section	.text.port_unlock,"ax",%progbits
  55              		.align	2
  56              		.p2align 4,,15
  57              		.thumb
ARM GAS  /tmp/ccZrWEni.s 			page 2


  58              		.thumb_func
  59              		.type	port_unlock, %function
  60              	port_unlock:
  61              	.LFB128:
  62              		.loc 1 470 0
  63              		.cfi_startproc
  64              		@ args = 0, pretend = 0, frame = 8
  65              		@ frame_needed = 0, uses_anonymous_args = 0
  66              		@ link register save eliminated.
  67 0000 82B0     		sub	sp, sp, #8
  68              		.cfi_def_cfa_offset 8
  69 0002 0023     		movs	r3, #0
  70 0004 0193     		str	r3, [sp, #4]
  71              	.LBB8:
  72              	.LBB9:
  73              		.loc 2 548 0
  74 0006 019B     		ldr	r3, [sp, #4]
  75              	@ 548 "/home/efe/ChibiOS/os/ext/CMSIS/include/core_cmFunc.h" 1
  76 0008 83F31188 		MSR basepri, r3
  77              	@ 0 "" 2
  78              		.thumb
  79              	.LBE9:
  80              	.LBE8:
  81              		.loc 1 477 0
  82 000c 02B0     		add	sp, sp, #8
  83              		@ sp needed
  84 000e 7047     		bx	lr
  85              		.cfi_endproc
  86              	.LFE128:
  87              		.size	port_unlock, .-port_unlock
  88              		.section	.text.chSysLock,"ax",%progbits
  89              		.align	2
  90              		.p2align 4,,15
  91              		.thumb
  92              		.thumb_func
  93              		.type	chSysLock, %function
  94              	chSysLock:
  95              	.LFB167:
  96              		.file 3 "/home/efe/ChibiOS/os/rt/include/chsys.h"
  97              		.loc 3 346 0
  98              		.cfi_startproc
  99              		@ args = 0, pretend = 0, frame = 0
 100              		@ frame_needed = 0, uses_anonymous_args = 0
 101 0000 08B5     		push	{r3, lr}
 102              		.cfi_def_cfa_offset 8
 103              		.cfi_offset 3, -8
 104              		.cfi_offset 14, -4
 105              		.loc 3 348 0
 106 0002 FFF7FEFF 		bl	port_lock
 107              		.loc 3 349 0
 108 0006 FFF7FEFF 		bl	_stats_start_measure_crit_thd
 109              		.loc 3 350 0
 110 000a FFF7FEFF 		bl	_dbg_check_lock
 111              		.loc 3 351 0
 112 000e 08BD     		pop	{r3, pc}
 113              		.cfi_endproc
 114              	.LFE167:
ARM GAS  /tmp/ccZrWEni.s 			page 3


 115              		.size	chSysLock, .-chSysLock
 116              		.section	.text.chSysUnlock,"ax",%progbits
 117              		.align	2
 118              		.p2align 4,,15
 119              		.thumb
 120              		.thumb_func
 121              		.type	chSysUnlock, %function
 122              	chSysUnlock:
 123              	.LFB168:
 124              		.loc 3 358 0
 125              		.cfi_startproc
 126              		@ args = 0, pretend = 0, frame = 0
 127              		@ frame_needed = 0, uses_anonymous_args = 0
 128 0000 08B5     		push	{r3, lr}
 129              		.cfi_def_cfa_offset 8
 130              		.cfi_offset 3, -8
 131              		.cfi_offset 14, -4
 132              		.loc 3 360 0
 133 0002 FFF7FEFF 		bl	_dbg_check_unlock
 134              		.loc 3 361 0
 135 0006 FFF7FEFF 		bl	_stats_stop_measure_crit_thd
 136              		.loc 3 367 0
 137 000a 094B     		ldr	r3, .L6
 138 000c 1A68     		ldr	r2, [r3]
 139 000e 084B     		ldr	r3, .L6
 140 0010 9A42     		cmp	r2, r3
 141 0012 0AD0     		beq	.L5
 142              		.loc 3 367 0 is_stmt 0 discriminator 1
 143 0014 064B     		ldr	r3, .L6
 144 0016 9B69     		ldr	r3, [r3, #24]
 145 0018 9A68     		ldr	r2, [r3, #8]
 146 001a 054B     		ldr	r3, .L6
 147 001c 1B68     		ldr	r3, [r3]
 148 001e 9B68     		ldr	r3, [r3, #8]
 149 0020 9A42     		cmp	r2, r3
 150 0022 02D2     		bcs	.L5
 151 0024 0348     		ldr	r0, .L6+4
 152 0026 FFF7FEFF 		bl	chSysHalt
 153              	.L5:
 154              		.loc 3 371 0 is_stmt 1
 155 002a FFF7FEFF 		bl	port_unlock
 156              		.loc 3 372 0
 157 002e 08BD     		pop	{r3, pc}
 158              	.L7:
 159              		.align	2
 160              	.L6:
 161 0030 00000000 		.word	ch
 162 0034 00000000 		.word	__func__.5925
 163              		.cfi_endproc
 164              	.LFE168:
 165              		.size	chSysUnlock, .-chSysUnlock
 166 0038 AFF30080 		.section	.text.chSemGetCounterI,"ax",%progbits
 166      AFF30080 
 167              		.align	2
 168              		.p2align 4,,15
 169              		.thumb
 170              		.thumb_func
ARM GAS  /tmp/ccZrWEni.s 			page 4


 171              		.type	chSemGetCounterI, %function
 172              	chSemGetCounterI:
 173              	.LFB202:
 174              		.file 4 "/home/efe/ChibiOS/os/rt/include/chsem.h"
 175              		.loc 4 149 0
 176              		.cfi_startproc
 177              		@ args = 0, pretend = 0, frame = 8
 178              		@ frame_needed = 0, uses_anonymous_args = 0
 179 0000 00B5     		push	{lr}
 180              		.cfi_def_cfa_offset 4
 181              		.cfi_offset 14, -4
 182 0002 83B0     		sub	sp, sp, #12
 183              		.cfi_def_cfa_offset 16
 184 0004 0190     		str	r0, [sp, #4]
 185              		.loc 4 151 0
 186 0006 FFF7FEFF 		bl	chDbgCheckClassI
 187              		.loc 4 153 0
 188 000a 019B     		ldr	r3, [sp, #4]
 189 000c 9B68     		ldr	r3, [r3, #8]
 190              		.loc 4 154 0
 191 000e 1846     		mov	r0, r3
 192 0010 03B0     		add	sp, sp, #12
 193              		@ sp needed
 194 0012 5DF804FB 		ldr	pc, [sp], #4
 195              		.cfi_endproc
 196              	.LFE202:
 197              		.size	chSemGetCounterI, .-chSemGetCounterI
 198 0016 00BFAFF3 		.section	.text.chMBGetFreeCountI,"ax",%progbits
 198      0080AFF3 
 198      0080
 199              		.align	2
 200              		.p2align 4,,15
 201              		.thumb
 202              		.thumb_func
 203              		.type	chMBGetFreeCountI, %function
 204              	chMBGetFreeCountI:
 205              	.LFB225:
 206              		.file 5 "/home/efe/ChibiOS/os/rt/include/chmboxes.h"
 207              		.loc 5 158 0
 208              		.cfi_startproc
 209              		@ args = 0, pretend = 0, frame = 8
 210              		@ frame_needed = 0, uses_anonymous_args = 0
 211 0000 00B5     		push	{lr}
 212              		.cfi_def_cfa_offset 4
 213              		.cfi_offset 14, -4
 214 0002 83B0     		sub	sp, sp, #12
 215              		.cfi_def_cfa_offset 16
 216 0004 0190     		str	r0, [sp, #4]
 217              		.loc 5 160 0
 218 0006 FFF7FEFF 		bl	chDbgCheckClassI
 219              		.loc 5 162 0
 220 000a 019B     		ldr	r3, [sp, #4]
 221 000c 1C33     		adds	r3, r3, #28
 222 000e 1846     		mov	r0, r3
 223 0010 FFF7FEFF 		bl	chSemGetCounterI
 224 0014 0346     		mov	r3, r0
 225              		.loc 5 163 0
ARM GAS  /tmp/ccZrWEni.s 			page 5


 226 0016 1846     		mov	r0, r3
 227 0018 03B0     		add	sp, sp, #12
 228              		@ sp needed
 229 001a 5DF804FB 		ldr	pc, [sp], #4
 230              		.cfi_endproc
 231              	.LFE225:
 232              		.size	chMBGetFreeCountI, .-chMBGetFreeCountI
 233 001e 00BF     		.section	.text.chMBGetUsedCountI,"ax",%progbits
 234              		.align	2
 235              		.p2align 4,,15
 236              		.thumb
 237              		.thumb_func
 238              		.type	chMBGetUsedCountI, %function
 239              	chMBGetUsedCountI:
 240              	.LFB226:
 241              		.loc 5 177 0
 242              		.cfi_startproc
 243              		@ args = 0, pretend = 0, frame = 8
 244              		@ frame_needed = 0, uses_anonymous_args = 0
 245 0000 00B5     		push	{lr}
 246              		.cfi_def_cfa_offset 4
 247              		.cfi_offset 14, -4
 248 0002 83B0     		sub	sp, sp, #12
 249              		.cfi_def_cfa_offset 16
 250 0004 0190     		str	r0, [sp, #4]
 251              		.loc 5 179 0
 252 0006 FFF7FEFF 		bl	chDbgCheckClassI
 253              		.loc 5 181 0
 254 000a 019B     		ldr	r3, [sp, #4]
 255 000c 1033     		adds	r3, r3, #16
 256 000e 1846     		mov	r0, r3
 257 0010 FFF7FEFF 		bl	chSemGetCounterI
 258 0014 0346     		mov	r3, r0
 259              		.loc 5 182 0
 260 0016 1846     		mov	r0, r3
 261 0018 03B0     		add	sp, sp, #12
 262              		@ sp needed
 263 001a 5DF804FB 		ldr	pc, [sp], #4
 264              		.cfi_endproc
 265              	.LFE226:
 266              		.size	chMBGetUsedCountI, .-chMBGetUsedCountI
 267 001e 00BF     		.section	.data.mb1,"aw",%progbits
 268              		.align	2
 269              		.type	mb1, %object
 270              		.size	mb1, 40
 271              	mb1:
 272 0000 00000000 		.word	test
 273 0004 14000000 		.word	test+20
 274 0008 00000000 		.word	test
 275 000c 00000000 		.word	test
 276 0010 10000000 		.word	mb1+16
 277 0014 10000000 		.word	mb1+16
 278 0018 00000000 		.word	0
 279 001c 1C000000 		.word	mb1+28
 280 0020 1C000000 		.word	mb1+28
 281 0024 05000000 		.word	5
 282              		.section	.text.mbox1_setup,"ax",%progbits
ARM GAS  /tmp/ccZrWEni.s 			page 6


 283              		.align	2
 284              		.p2align 4,,15
 285              		.thumb
 286              		.thumb_func
 287              		.type	mbox1_setup, %function
 288              	mbox1_setup:
 289              	.LFB240:
 290              		.file 6 "/home/efe/ChibiOS/test/rt/testmbox.c"
 291              		.loc 6 71 0
 292              		.cfi_startproc
 293              		@ args = 0, pretend = 0, frame = 0
 294              		@ frame_needed = 0, uses_anonymous_args = 0
 295 0000 08B5     		push	{r3, lr}
 296              		.cfi_def_cfa_offset 8
 297              		.cfi_offset 3, -8
 298              		.cfi_offset 14, -4
 299              		.loc 6 73 0
 300 0002 0348     		ldr	r0, .L15
 301 0004 0349     		ldr	r1, .L15+4
 302 0006 0522     		movs	r2, #5
 303 0008 FFF7FEFF 		bl	chMBObjectInit
 304              		.loc 6 74 0
 305 000c 08BD     		pop	{r3, pc}
 306              	.L16:
 307 000e 00BF     		.align	2
 308              	.L15:
 309 0010 00000000 		.word	mb1
 310 0014 00000000 		.word	test
 311              		.cfi_endproc
 312              	.LFE240:
 313              		.size	mbox1_setup, .-mbox1_setup
 314 0018 AFF30080 		.section	.rodata
 314      AFF30080 
 315              		.align	2
 316              	.LC0:
 317 0000 41424344 		.ascii	"ABCDE\000"
 317      4500
 318              		.section	.text.mbox1_execute,"ax",%progbits
 319              		.align	2
 320              		.p2align 4,,15
 321              		.thumb
 322              		.thumb_func
 323              		.type	mbox1_execute, %function
 324              	mbox1_execute:
 325              	.LFB241:
 326              		.loc 6 76 0
 327              		.cfi_startproc
 328              		@ args = 0, pretend = 0, frame = 16
 329              		@ frame_needed = 0, uses_anonymous_args = 0
 330 0000 00B5     		push	{lr}
 331              		.cfi_def_cfa_offset 4
 332              		.cfi_offset 14, -4
 333 0002 85B0     		sub	sp, sp, #20
 334              		.cfi_def_cfa_offset 24
 335              		.loc 6 83 0
 336 0004 FFF7FEFF 		bl	chSysLock
 337 0008 A948     		ldr	r0, .L75
ARM GAS  /tmp/ccZrWEni.s 			page 7


 338 000a FFF7FEFF 		bl	chMBGetFreeCountI
 339 000e 0346     		mov	r3, r0
 340 0010 052B     		cmp	r3, #5
 341 0012 14BF     		ite	ne
 342 0014 0023     		movne	r3, #0
 343 0016 0123     		moveq	r3, #1
 344 0018 DBB2     		uxtb	r3, r3
 345 001a 0120     		movs	r0, #1
 346 001c 1946     		mov	r1, r3
 347 001e FFF7FEFF 		bl	_test_assert
 348 0022 0346     		mov	r3, r0
 349 0024 002B     		cmp	r3, #0
 350 0026 02D0     		beq	.L18
 351              		.loc 6 83 0 is_stmt 0 discriminator 1
 352 0028 FFF7FEFF 		bl	chSysUnlock
 353 002c EFE3     		b	.L17
 354              	.L18:
 355              		.loc 6 83 0 discriminator 2
 356 002e FFF7FEFF 		bl	chSysUnlock
 357              		.loc 6 88 0 is_stmt 1 discriminator 2
 358 0032 0023     		movs	r3, #0
 359 0034 0393     		str	r3, [sp, #12]
 360 0036 19E0     		b	.L20
 361              	.L22:
 362              		.loc 6 89 0
 363 0038 039B     		ldr	r3, [sp, #12]
 364 003a 4233     		adds	r3, r3, #66
 365 003c 9C48     		ldr	r0, .L75
 366 003e 1946     		mov	r1, r3
 367 0040 4FF0FF32 		mov	r2, #-1
 368 0044 FFF7FEFF 		bl	chMBPost
 369 0048 0290     		str	r0, [sp, #8]
 370              		.loc 6 90 0
 371 004a 029B     		ldr	r3, [sp, #8]
 372 004c 002B     		cmp	r3, #0
 373 004e 14BF     		ite	ne
 374 0050 0023     		movne	r3, #0
 375 0052 0123     		moveq	r3, #1
 376 0054 DBB2     		uxtb	r3, r3
 377 0056 0220     		movs	r0, #2
 378 0058 1946     		mov	r1, r3
 379 005a FFF7FEFF 		bl	_test_assert
 380 005e 0346     		mov	r3, r0
 381 0060 002B     		cmp	r3, #0
 382 0062 00D0     		beq	.L21
 383              		.loc 6 90 0 is_stmt 0 discriminator 1
 384 0064 D3E3     		b	.L17
 385              	.L21:
 386              		.loc 6 88 0 is_stmt 1
 387 0066 039B     		ldr	r3, [sp, #12]
 388 0068 0133     		adds	r3, r3, #1
 389 006a 0393     		str	r3, [sp, #12]
 390              	.L20:
 391              		.loc 6 88 0 is_stmt 0 discriminator 1
 392 006c 039B     		ldr	r3, [sp, #12]
 393 006e 032B     		cmp	r3, #3
 394 0070 E2D9     		bls	.L22
ARM GAS  /tmp/ccZrWEni.s 			page 8


 395              		.loc 6 92 0 is_stmt 1
 396 0072 8F48     		ldr	r0, .L75
 397 0074 4121     		movs	r1, #65
 398 0076 4FF0FF32 		mov	r2, #-1
 399 007a FFF7FEFF 		bl	chMBPostAhead
 400 007e 0290     		str	r0, [sp, #8]
 401              		.loc 6 93 0
 402 0080 029B     		ldr	r3, [sp, #8]
 403 0082 002B     		cmp	r3, #0
 404 0084 14BF     		ite	ne
 405 0086 0023     		movne	r3, #0
 406 0088 0123     		moveq	r3, #1
 407 008a DBB2     		uxtb	r3, r3
 408 008c 0320     		movs	r0, #3
 409 008e 1946     		mov	r1, r3
 410 0090 FFF7FEFF 		bl	_test_assert
 411 0094 0346     		mov	r3, r0
 412 0096 002B     		cmp	r3, #0
 413 0098 00D0     		beq	.L23
 414              		.loc 6 93 0 is_stmt 0 discriminator 1
 415 009a B8E3     		b	.L17
 416              	.L23:
 417              		.loc 6 98 0 is_stmt 1
 418 009c 8448     		ldr	r0, .L75
 419 009e 5821     		movs	r1, #88
 420 00a0 0122     		movs	r2, #1
 421 00a2 FFF7FEFF 		bl	chMBPost
 422 00a6 0290     		str	r0, [sp, #8]
 423              		.loc 6 99 0
 424 00a8 029B     		ldr	r3, [sp, #8]
 425 00aa B3F1FF3F 		cmp	r3, #-1
 426 00ae 14BF     		ite	ne
 427 00b0 0023     		movne	r3, #0
 428 00b2 0123     		moveq	r3, #1
 429 00b4 DBB2     		uxtb	r3, r3
 430 00b6 0420     		movs	r0, #4
 431 00b8 1946     		mov	r1, r3
 432 00ba FFF7FEFF 		bl	_test_assert
 433 00be 0346     		mov	r3, r0
 434 00c0 002B     		cmp	r3, #0
 435 00c2 00D0     		beq	.L24
 436              		.loc 6 99 0 is_stmt 0 discriminator 1
 437 00c4 A3E3     		b	.L17
 438              	.L24:
 439              		.loc 6 100 0 is_stmt 1
 440 00c6 FFF7FEFF 		bl	chSysLock
 441              		.loc 6 101 0
 442 00ca 7948     		ldr	r0, .L75
 443 00cc 5821     		movs	r1, #88
 444 00ce FFF7FEFF 		bl	chMBPostI
 445 00d2 0290     		str	r0, [sp, #8]
 446              		.loc 6 102 0
 447 00d4 FFF7FEFF 		bl	chSysUnlock
 448              		.loc 6 103 0
 449 00d8 029B     		ldr	r3, [sp, #8]
 450 00da B3F1FF3F 		cmp	r3, #-1
 451 00de 14BF     		ite	ne
ARM GAS  /tmp/ccZrWEni.s 			page 9


 452 00e0 0023     		movne	r3, #0
 453 00e2 0123     		moveq	r3, #1
 454 00e4 DBB2     		uxtb	r3, r3
 455 00e6 0520     		movs	r0, #5
 456 00e8 1946     		mov	r1, r3
 457 00ea FFF7FEFF 		bl	_test_assert
 458 00ee 0346     		mov	r3, r0
 459 00f0 002B     		cmp	r3, #0
 460 00f2 00D0     		beq	.L25
 461              		.loc 6 103 0 is_stmt 0 discriminator 1
 462 00f4 8BE3     		b	.L17
 463              	.L25:
 464              		.loc 6 104 0 is_stmt 1
 465 00f6 6E48     		ldr	r0, .L75
 466 00f8 5821     		movs	r1, #88
 467 00fa 0122     		movs	r2, #1
 468 00fc FFF7FEFF 		bl	chMBPostAhead
 469 0100 0290     		str	r0, [sp, #8]
 470              		.loc 6 105 0
 471 0102 029B     		ldr	r3, [sp, #8]
 472 0104 B3F1FF3F 		cmp	r3, #-1
 473 0108 14BF     		ite	ne
 474 010a 0023     		movne	r3, #0
 475 010c 0123     		moveq	r3, #1
 476 010e DBB2     		uxtb	r3, r3
 477 0110 0620     		movs	r0, #6
 478 0112 1946     		mov	r1, r3
 479 0114 FFF7FEFF 		bl	_test_assert
 480 0118 0346     		mov	r3, r0
 481 011a 002B     		cmp	r3, #0
 482 011c 00D0     		beq	.L26
 483              		.loc 6 105 0 is_stmt 0 discriminator 1
 484 011e 76E3     		b	.L17
 485              	.L26:
 486              		.loc 6 106 0 is_stmt 1
 487 0120 FFF7FEFF 		bl	chSysLock
 488              		.loc 6 107 0
 489 0124 6248     		ldr	r0, .L75
 490 0126 5821     		movs	r1, #88
 491 0128 FFF7FEFF 		bl	chMBPostAheadI
 492 012c 0290     		str	r0, [sp, #8]
 493              		.loc 6 108 0
 494 012e FFF7FEFF 		bl	chSysUnlock
 495              		.loc 6 109 0
 496 0132 029B     		ldr	r3, [sp, #8]
 497 0134 B3F1FF3F 		cmp	r3, #-1
 498 0138 14BF     		ite	ne
 499 013a 0023     		movne	r3, #0
 500 013c 0123     		moveq	r3, #1
 501 013e DBB2     		uxtb	r3, r3
 502 0140 0720     		movs	r0, #7
 503 0142 1946     		mov	r1, r3
 504 0144 FFF7FEFF 		bl	_test_assert
 505 0148 0346     		mov	r3, r0
 506 014a 002B     		cmp	r3, #0
 507 014c 00D0     		beq	.L27
 508              		.loc 6 109 0 is_stmt 0 discriminator 1
ARM GAS  /tmp/ccZrWEni.s 			page 10


 509 014e 5EE3     		b	.L17
 510              	.L27:
 511              		.loc 6 114 0 is_stmt 1
 512 0150 FFF7FEFF 		bl	chSysLock
 513 0154 5648     		ldr	r0, .L75
 514 0156 FFF7FEFF 		bl	chMBGetFreeCountI
 515 015a 0346     		mov	r3, r0
 516 015c 002B     		cmp	r3, #0
 517 015e 14BF     		ite	ne
 518 0160 0023     		movne	r3, #0
 519 0162 0123     		moveq	r3, #1
 520 0164 DBB2     		uxtb	r3, r3
 521 0166 0820     		movs	r0, #8
 522 0168 1946     		mov	r1, r3
 523 016a FFF7FEFF 		bl	_test_assert
 524 016e 0346     		mov	r3, r0
 525 0170 002B     		cmp	r3, #0
 526 0172 02D0     		beq	.L28
 527              		.loc 6 114 0 is_stmt 0 discriminator 1
 528 0174 FFF7FEFF 		bl	chSysUnlock
 529 0178 49E3     		b	.L17
 530              	.L28:
 531              		.loc 6 114 0 discriminator 2
 532 017a FFF7FEFF 		bl	chSysUnlock
 533              		.loc 6 115 0 is_stmt 1 discriminator 2
 534 017e FFF7FEFF 		bl	chSysLock
 535 0182 4B48     		ldr	r0, .L75
 536 0184 FFF7FEFF 		bl	chMBGetUsedCountI
 537 0188 0346     		mov	r3, r0
 538 018a 052B     		cmp	r3, #5
 539 018c 14BF     		ite	ne
 540 018e 0023     		movne	r3, #0
 541 0190 0123     		moveq	r3, #1
 542 0192 DBB2     		uxtb	r3, r3
 543 0194 0920     		movs	r0, #9
 544 0196 1946     		mov	r1, r3
 545 0198 FFF7FEFF 		bl	_test_assert
 546 019c 0346     		mov	r3, r0
 547 019e 002B     		cmp	r3, #0
 548 01a0 02D0     		beq	.L29
 549              		.loc 6 115 0 is_stmt 0 discriminator 1
 550 01a2 FFF7FEFF 		bl	chSysUnlock
 551 01a6 32E3     		b	.L17
 552              	.L29:
 553              		.loc 6 115 0 discriminator 2
 554 01a8 FFF7FEFF 		bl	chSysUnlock
 555              		.loc 6 116 0 is_stmt 1 discriminator 2
 556 01ac FFF7FEFF 		bl	chSysLock
 557 01b0 3F4B     		ldr	r3, .L75
 558 01b2 DA68     		ldr	r2, [r3, #12]
 559 01b4 3E4B     		ldr	r3, .L75
 560 01b6 9B68     		ldr	r3, [r3, #8]
 561 01b8 9A42     		cmp	r2, r3
 562 01ba 14BF     		ite	ne
 563 01bc 0023     		movne	r3, #0
 564 01be 0123     		moveq	r3, #1
 565 01c0 DBB2     		uxtb	r3, r3
ARM GAS  /tmp/ccZrWEni.s 			page 11


 566 01c2 0A20     		movs	r0, #10
 567 01c4 1946     		mov	r1, r3
 568 01c6 FFF7FEFF 		bl	_test_assert
 569 01ca 0346     		mov	r3, r0
 570 01cc 002B     		cmp	r3, #0
 571 01ce 02D0     		beq	.L30
 572              		.loc 6 116 0 is_stmt 0 discriminator 1
 573 01d0 FFF7FEFF 		bl	chSysUnlock
 574 01d4 1BE3     		b	.L17
 575              	.L30:
 576              		.loc 6 116 0 discriminator 2
 577 01d6 FFF7FEFF 		bl	chSysUnlock
 578              		.loc 6 121 0 is_stmt 1 discriminator 2
 579 01da 0023     		movs	r3, #0
 580 01dc 0393     		str	r3, [sp, #12]
 581 01de 1DE0     		b	.L31
 582              	.L33:
 583              		.loc 6 122 0
 584 01e0 01AB     		add	r3, sp, #4
 585 01e2 3348     		ldr	r0, .L75
 586 01e4 1946     		mov	r1, r3
 587 01e6 4FF0FF32 		mov	r2, #-1
 588 01ea FFF7FEFF 		bl	chMBFetch
 589 01ee 0290     		str	r0, [sp, #8]
 590              		.loc 6 123 0
 591 01f0 029B     		ldr	r3, [sp, #8]
 592 01f2 002B     		cmp	r3, #0
 593 01f4 14BF     		ite	ne
 594 01f6 0023     		movne	r3, #0
 595 01f8 0123     		moveq	r3, #1
 596 01fa DBB2     		uxtb	r3, r3
 597 01fc 0B20     		movs	r0, #11
 598 01fe 1946     		mov	r1, r3
 599 0200 FFF7FEFF 		bl	_test_assert
 600 0204 0346     		mov	r3, r0
 601 0206 002B     		cmp	r3, #0
 602 0208 00D0     		beq	.L32
 603              		.loc 6 123 0 is_stmt 0 discriminator 1
 604 020a 00E3     		b	.L17
 605              	.L32:
 606              		.loc 6 124 0 is_stmt 1
 607 020c 019B     		ldr	r3, [sp, #4]
 608 020e DBB2     		uxtb	r3, r3
 609 0210 1846     		mov	r0, r3
 610 0212 FFF7FEFF 		bl	test_emit_token
 611              		.loc 6 121 0
 612 0216 039B     		ldr	r3, [sp, #12]
 613 0218 0133     		adds	r3, r3, #1
 614 021a 0393     		str	r3, [sp, #12]
 615              	.L31:
 616              		.loc 6 121 0 is_stmt 0 discriminator 1
 617 021c 039B     		ldr	r3, [sp, #12]
 618 021e 042B     		cmp	r3, #4
 619 0220 DED9     		bls	.L33
 620              		.loc 6 126 0 is_stmt 1
 621 0222 0C20     		movs	r0, #12
 622 0224 2349     		ldr	r1, .L75+4
ARM GAS  /tmp/ccZrWEni.s 			page 12


 623 0226 FFF7FEFF 		bl	_test_assert_sequence
 624 022a 0346     		mov	r3, r0
 625 022c 002B     		cmp	r3, #0
 626 022e 00D0     		beq	.L34
 627              		.loc 6 126 0 is_stmt 0 discriminator 1
 628 0230 EDE2     		b	.L17
 629              	.L34:
 630              		.loc 6 131 0 is_stmt 1
 631 0232 039B     		ldr	r3, [sp, #12]
 632 0234 4233     		adds	r3, r3, #66
 633 0236 1E48     		ldr	r0, .L75
 634 0238 1946     		mov	r1, r3
 635 023a 4FF0FF32 		mov	r2, #-1
 636 023e FFF7FEFF 		bl	chMBPost
 637 0242 0290     		str	r0, [sp, #8]
 638              		.loc 6 132 0
 639 0244 029B     		ldr	r3, [sp, #8]
 640 0246 002B     		cmp	r3, #0
 641 0248 14BF     		ite	ne
 642 024a 0023     		movne	r3, #0
 643 024c 0123     		moveq	r3, #1
 644 024e DBB2     		uxtb	r3, r3
 645 0250 0D20     		movs	r0, #13
 646 0252 1946     		mov	r1, r3
 647 0254 FFF7FEFF 		bl	_test_assert
 648 0258 0346     		mov	r3, r0
 649 025a 002B     		cmp	r3, #0
 650 025c 00D0     		beq	.L35
 651              		.loc 6 132 0 is_stmt 0 discriminator 1
 652 025e D6E2     		b	.L17
 653              	.L35:
 654              		.loc 6 133 0 is_stmt 1
 655 0260 01AB     		add	r3, sp, #4
 656 0262 1348     		ldr	r0, .L75
 657 0264 1946     		mov	r1, r3
 658 0266 4FF0FF32 		mov	r2, #-1
 659 026a FFF7FEFF 		bl	chMBFetch
 660 026e 0290     		str	r0, [sp, #8]
 661              		.loc 6 134 0
 662 0270 029B     		ldr	r3, [sp, #8]
 663 0272 002B     		cmp	r3, #0
 664 0274 14BF     		ite	ne
 665 0276 0023     		movne	r3, #0
 666 0278 0123     		moveq	r3, #1
 667 027a DBB2     		uxtb	r3, r3
 668 027c 0E20     		movs	r0, #14
 669 027e 1946     		mov	r1, r3
 670 0280 FFF7FEFF 		bl	_test_assert
 671 0284 0346     		mov	r3, r0
 672 0286 002B     		cmp	r3, #0
 673 0288 00D0     		beq	.L36
 674              		.loc 6 134 0 is_stmt 0 discriminator 1
 675 028a C0E2     		b	.L17
 676              	.L36:
 677              		.loc 6 135 0 is_stmt 1
 678 028c 084B     		ldr	r3, .L75
 679 028e 1A68     		ldr	r2, [r3]
ARM GAS  /tmp/ccZrWEni.s 			page 13


 680 0290 074B     		ldr	r3, .L75
 681 0292 9B68     		ldr	r3, [r3, #8]
 682 0294 9A42     		cmp	r2, r3
 683 0296 14BF     		ite	ne
 684 0298 0023     		movne	r3, #0
 685 029a 0123     		moveq	r3, #1
 686 029c DBB2     		uxtb	r3, r3
 687 029e 0F20     		movs	r0, #15
 688 02a0 1946     		mov	r1, r3
 689 02a2 FFF7FEFF 		bl	_test_assert
 690 02a6 0346     		mov	r3, r0
 691 02a8 002B     		cmp	r3, #0
 692 02aa 05D0     		beq	.L37
 693              		.loc 6 135 0 is_stmt 0 discriminator 1
 694 02ac AFE2     		b	.L17
 695              	.L76:
 696 02ae 00BF     		.align	2
 697              	.L75:
 698 02b0 00000000 		.word	mb1
 699 02b4 00000000 		.word	.LC0
 700              	.L37:
 701              		.loc 6 136 0 is_stmt 1
 702 02b8 A94B     		ldr	r3, .L77
 703 02ba 1A68     		ldr	r2, [r3]
 704 02bc A84B     		ldr	r3, .L77
 705 02be DB68     		ldr	r3, [r3, #12]
 706 02c0 9A42     		cmp	r2, r3
 707 02c2 14BF     		ite	ne
 708 02c4 0023     		movne	r3, #0
 709 02c6 0123     		moveq	r3, #1
 710 02c8 DBB2     		uxtb	r3, r3
 711 02ca 1020     		movs	r0, #16
 712 02cc 1946     		mov	r1, r3
 713 02ce FFF7FEFF 		bl	_test_assert
 714 02d2 0346     		mov	r3, r0
 715 02d4 002B     		cmp	r3, #0
 716 02d6 00D0     		beq	.L38
 717              		.loc 6 136 0 is_stmt 0 discriminator 1
 718 02d8 99E2     		b	.L17
 719              	.L38:
 720              		.loc 6 141 0 is_stmt 1
 721 02da 01AB     		add	r3, sp, #4
 722 02dc A048     		ldr	r0, .L77
 723 02de 1946     		mov	r1, r3
 724 02e0 0122     		movs	r2, #1
 725 02e2 FFF7FEFF 		bl	chMBFetch
 726 02e6 0290     		str	r0, [sp, #8]
 727              		.loc 6 142 0
 728 02e8 029B     		ldr	r3, [sp, #8]
 729 02ea B3F1FF3F 		cmp	r3, #-1
 730 02ee 14BF     		ite	ne
 731 02f0 0023     		movne	r3, #0
 732 02f2 0123     		moveq	r3, #1
 733 02f4 DBB2     		uxtb	r3, r3
 734 02f6 1120     		movs	r0, #17
 735 02f8 1946     		mov	r1, r3
 736 02fa FFF7FEFF 		bl	_test_assert
ARM GAS  /tmp/ccZrWEni.s 			page 14


 737 02fe 0346     		mov	r3, r0
 738 0300 002B     		cmp	r3, #0
 739 0302 00D0     		beq	.L39
 740              		.loc 6 142 0 is_stmt 0 discriminator 1
 741 0304 83E2     		b	.L17
 742              	.L39:
 743              		.loc 6 143 0 is_stmt 1
 744 0306 FFF7FEFF 		bl	chSysLock
 745              		.loc 6 144 0
 746 030a 01AB     		add	r3, sp, #4
 747 030c 9448     		ldr	r0, .L77
 748 030e 1946     		mov	r1, r3
 749 0310 FFF7FEFF 		bl	chMBFetchI
 750 0314 0290     		str	r0, [sp, #8]
 751              		.loc 6 145 0
 752 0316 FFF7FEFF 		bl	chSysUnlock
 753              		.loc 6 146 0
 754 031a 029B     		ldr	r3, [sp, #8]
 755 031c B3F1FF3F 		cmp	r3, #-1
 756 0320 14BF     		ite	ne
 757 0322 0023     		movne	r3, #0
 758 0324 0123     		moveq	r3, #1
 759 0326 DBB2     		uxtb	r3, r3
 760 0328 1220     		movs	r0, #18
 761 032a 1946     		mov	r1, r3
 762 032c FFF7FEFF 		bl	_test_assert
 763 0330 0346     		mov	r3, r0
 764 0332 002B     		cmp	r3, #0
 765 0334 00D0     		beq	.L40
 766              		.loc 6 146 0 is_stmt 0 discriminator 1
 767 0336 6AE2     		b	.L17
 768              	.L40:
 769              		.loc 6 151 0 is_stmt 1
 770 0338 FFF7FEFF 		bl	chSysLock
 771 033c 8848     		ldr	r0, .L77
 772 033e FFF7FEFF 		bl	chMBGetFreeCountI
 773 0342 0346     		mov	r3, r0
 774 0344 052B     		cmp	r3, #5
 775 0346 14BF     		ite	ne
 776 0348 0023     		movne	r3, #0
 777 034a 0123     		moveq	r3, #1
 778 034c DBB2     		uxtb	r3, r3
 779 034e 1320     		movs	r0, #19
 780 0350 1946     		mov	r1, r3
 781 0352 FFF7FEFF 		bl	_test_assert
 782 0356 0346     		mov	r3, r0
 783 0358 002B     		cmp	r3, #0
 784 035a 02D0     		beq	.L41
 785              		.loc 6 151 0 is_stmt 0 discriminator 1
 786 035c FFF7FEFF 		bl	chSysUnlock
 787 0360 55E2     		b	.L17
 788              	.L41:
 789              		.loc 6 151 0 discriminator 2
 790 0362 FFF7FEFF 		bl	chSysUnlock
 791              		.loc 6 152 0 is_stmt 1 discriminator 2
 792 0366 FFF7FEFF 		bl	chSysLock
 793 036a 7D48     		ldr	r0, .L77
ARM GAS  /tmp/ccZrWEni.s 			page 15


 794 036c FFF7FEFF 		bl	chMBGetUsedCountI
 795 0370 0346     		mov	r3, r0
 796 0372 002B     		cmp	r3, #0
 797 0374 14BF     		ite	ne
 798 0376 0023     		movne	r3, #0
 799 0378 0123     		moveq	r3, #1
 800 037a DBB2     		uxtb	r3, r3
 801 037c 1420     		movs	r0, #20
 802 037e 1946     		mov	r1, r3
 803 0380 FFF7FEFF 		bl	_test_assert
 804 0384 0346     		mov	r3, r0
 805 0386 002B     		cmp	r3, #0
 806 0388 02D0     		beq	.L42
 807              		.loc 6 152 0 is_stmt 0 discriminator 1
 808 038a FFF7FEFF 		bl	chSysUnlock
 809 038e 3EE2     		b	.L17
 810              	.L42:
 811              		.loc 6 152 0 discriminator 2
 812 0390 FFF7FEFF 		bl	chSysUnlock
 813              		.loc 6 153 0 is_stmt 1 discriminator 2
 814 0394 FFF7FEFF 		bl	chSysLock
 815 0398 714B     		ldr	r3, .L77
 816 039a DA68     		ldr	r2, [r3, #12]
 817 039c 704B     		ldr	r3, .L77
 818 039e 9B68     		ldr	r3, [r3, #8]
 819 03a0 9A42     		cmp	r2, r3
 820 03a2 14BF     		ite	ne
 821 03a4 0023     		movne	r3, #0
 822 03a6 0123     		moveq	r3, #1
 823 03a8 DBB2     		uxtb	r3, r3
 824 03aa 1520     		movs	r0, #21
 825 03ac 1946     		mov	r1, r3
 826 03ae FFF7FEFF 		bl	_test_assert
 827 03b2 0346     		mov	r3, r0
 828 03b4 002B     		cmp	r3, #0
 829 03b6 02D0     		beq	.L43
 830              		.loc 6 153 0 is_stmt 0 discriminator 1
 831 03b8 FFF7FEFF 		bl	chSysUnlock
 832 03bc 27E2     		b	.L17
 833              	.L43:
 834              		.loc 6 153 0 discriminator 2
 835 03be FFF7FEFF 		bl	chSysUnlock
 836              		.loc 6 158 0 is_stmt 1 discriminator 2
 837 03c2 FFF7FEFF 		bl	chSysLock
 838              		.loc 6 159 0 discriminator 2
 839 03c6 6648     		ldr	r0, .L77
 840 03c8 4121     		movs	r1, #65
 841 03ca FFF7FEFF 		bl	chMBPostI
 842 03ce 0290     		str	r0, [sp, #8]
 843              		.loc 6 160 0 discriminator 2
 844 03d0 029B     		ldr	r3, [sp, #8]
 845 03d2 002B     		cmp	r3, #0
 846 03d4 14BF     		ite	ne
 847 03d6 0023     		movne	r3, #0
 848 03d8 0123     		moveq	r3, #1
 849 03da DBB2     		uxtb	r3, r3
 850 03dc 1620     		movs	r0, #22
ARM GAS  /tmp/ccZrWEni.s 			page 16


 851 03de 1946     		mov	r1, r3
 852 03e0 FFF7FEFF 		bl	_test_assert
 853 03e4 0346     		mov	r3, r0
 854 03e6 002B     		cmp	r3, #0
 855 03e8 00D0     		beq	.L44
 856              		.loc 6 160 0 is_stmt 0 discriminator 1
 857 03ea 10E2     		b	.L17
 858              	.L44:
 859              		.loc 6 161 0 is_stmt 1
 860 03ec 5C48     		ldr	r0, .L77
 861 03ee 4221     		movs	r1, #66
 862 03f0 FFF7FEFF 		bl	chMBPostI
 863 03f4 0290     		str	r0, [sp, #8]
 864              		.loc 6 162 0
 865 03f6 029B     		ldr	r3, [sp, #8]
 866 03f8 002B     		cmp	r3, #0
 867 03fa 14BF     		ite	ne
 868 03fc 0023     		movne	r3, #0
 869 03fe 0123     		moveq	r3, #1
 870 0400 DBB2     		uxtb	r3, r3
 871 0402 1720     		movs	r0, #23
 872 0404 1946     		mov	r1, r3
 873 0406 FFF7FEFF 		bl	_test_assert
 874 040a 0346     		mov	r3, r0
 875 040c 002B     		cmp	r3, #0
 876 040e 00D0     		beq	.L45
 877              		.loc 6 162 0 is_stmt 0 discriminator 1
 878 0410 FDE1     		b	.L17
 879              	.L45:
 880              		.loc 6 163 0 is_stmt 1
 881 0412 5348     		ldr	r0, .L77
 882 0414 4321     		movs	r1, #67
 883 0416 FFF7FEFF 		bl	chMBPostI
 884 041a 0290     		str	r0, [sp, #8]
 885              		.loc 6 164 0
 886 041c 029B     		ldr	r3, [sp, #8]
 887 041e 002B     		cmp	r3, #0
 888 0420 14BF     		ite	ne
 889 0422 0023     		movne	r3, #0
 890 0424 0123     		moveq	r3, #1
 891 0426 DBB2     		uxtb	r3, r3
 892 0428 1820     		movs	r0, #24
 893 042a 1946     		mov	r1, r3
 894 042c FFF7FEFF 		bl	_test_assert
 895 0430 0346     		mov	r3, r0
 896 0432 002B     		cmp	r3, #0
 897 0434 00D0     		beq	.L46
 898              		.loc 6 164 0 is_stmt 0 discriminator 1
 899 0436 EAE1     		b	.L17
 900              	.L46:
 901              		.loc 6 165 0 is_stmt 1
 902 0438 4948     		ldr	r0, .L77
 903 043a 4421     		movs	r1, #68
 904 043c FFF7FEFF 		bl	chMBPostI
 905 0440 0290     		str	r0, [sp, #8]
 906              		.loc 6 166 0
 907 0442 029B     		ldr	r3, [sp, #8]
ARM GAS  /tmp/ccZrWEni.s 			page 17


 908 0444 002B     		cmp	r3, #0
 909 0446 14BF     		ite	ne
 910 0448 0023     		movne	r3, #0
 911 044a 0123     		moveq	r3, #1
 912 044c DBB2     		uxtb	r3, r3
 913 044e 1920     		movs	r0, #25
 914 0450 1946     		mov	r1, r3
 915 0452 FFF7FEFF 		bl	_test_assert
 916 0456 0346     		mov	r3, r0
 917 0458 002B     		cmp	r3, #0
 918 045a 00D0     		beq	.L47
 919              		.loc 6 166 0 is_stmt 0 discriminator 1
 920 045c D7E1     		b	.L17
 921              	.L47:
 922              		.loc 6 167 0 is_stmt 1
 923 045e 4048     		ldr	r0, .L77
 924 0460 4521     		movs	r1, #69
 925 0462 FFF7FEFF 		bl	chMBPostI
 926 0466 0290     		str	r0, [sp, #8]
 927              		.loc 6 168 0
 928 0468 FFF7FEFF 		bl	chSysUnlock
 929              		.loc 6 169 0
 930 046c 029B     		ldr	r3, [sp, #8]
 931 046e 002B     		cmp	r3, #0
 932 0470 14BF     		ite	ne
 933 0472 0023     		movne	r3, #0
 934 0474 0123     		moveq	r3, #1
 935 0476 DBB2     		uxtb	r3, r3
 936 0478 1A20     		movs	r0, #26
 937 047a 1946     		mov	r1, r3
 938 047c FFF7FEFF 		bl	_test_assert
 939 0480 0346     		mov	r3, r0
 940 0482 002B     		cmp	r3, #0
 941 0484 00D0     		beq	.L48
 942              		.loc 6 169 0 is_stmt 0 discriminator 1
 943 0486 C2E1     		b	.L17
 944              	.L48:
 945              		.loc 6 170 0 is_stmt 1
 946 0488 354B     		ldr	r3, .L77
 947 048a DA68     		ldr	r2, [r3, #12]
 948 048c 344B     		ldr	r3, .L77
 949 048e 9B68     		ldr	r3, [r3, #8]
 950 0490 9A42     		cmp	r2, r3
 951 0492 14BF     		ite	ne
 952 0494 0023     		movne	r3, #0
 953 0496 0123     		moveq	r3, #1
 954 0498 DBB2     		uxtb	r3, r3
 955 049a 1B20     		movs	r0, #27
 956 049c 1946     		mov	r1, r3
 957 049e FFF7FEFF 		bl	_test_assert
 958 04a2 0346     		mov	r3, r0
 959 04a4 002B     		cmp	r3, #0
 960 04a6 00D0     		beq	.L49
 961              		.loc 6 170 0 is_stmt 0 discriminator 1
 962 04a8 B1E1     		b	.L17
 963              	.L49:
 964              		.loc 6 171 0 is_stmt 1
ARM GAS  /tmp/ccZrWEni.s 			page 18


 965 04aa 0023     		movs	r3, #0
 966 04ac 0393     		str	r3, [sp, #12]
 967 04ae 1FE0     		b	.L50
 968              	.L52:
 969              		.loc 6 172 0
 970 04b0 FFF7FEFF 		bl	chSysLock
 971              		.loc 6 173 0
 972 04b4 01AB     		add	r3, sp, #4
 973 04b6 2A48     		ldr	r0, .L77
 974 04b8 1946     		mov	r1, r3
 975 04ba FFF7FEFF 		bl	chMBFetchI
 976 04be 0290     		str	r0, [sp, #8]
 977              		.loc 6 174 0
 978 04c0 FFF7FEFF 		bl	chSysUnlock
 979              		.loc 6 175 0
 980 04c4 029B     		ldr	r3, [sp, #8]
 981 04c6 002B     		cmp	r3, #0
 982 04c8 14BF     		ite	ne
 983 04ca 0023     		movne	r3, #0
 984 04cc 0123     		moveq	r3, #1
 985 04ce DBB2     		uxtb	r3, r3
 986 04d0 1C20     		movs	r0, #28
 987 04d2 1946     		mov	r1, r3
 988 04d4 FFF7FEFF 		bl	_test_assert
 989 04d8 0346     		mov	r3, r0
 990 04da 002B     		cmp	r3, #0
 991 04dc 00D0     		beq	.L51
 992              		.loc 6 175 0 is_stmt 0 discriminator 1
 993 04de 96E1     		b	.L17
 994              	.L51:
 995              		.loc 6 176 0 is_stmt 1
 996 04e0 019B     		ldr	r3, [sp, #4]
 997 04e2 DBB2     		uxtb	r3, r3
 998 04e4 1846     		mov	r0, r3
 999 04e6 FFF7FEFF 		bl	test_emit_token
 1000              		.loc 6 171 0
 1001 04ea 039B     		ldr	r3, [sp, #12]
 1002 04ec 0133     		adds	r3, r3, #1
 1003 04ee 0393     		str	r3, [sp, #12]
 1004              	.L50:
 1005              		.loc 6 171 0 is_stmt 0 discriminator 1
 1006 04f0 039B     		ldr	r3, [sp, #12]
 1007 04f2 042B     		cmp	r3, #4
 1008 04f4 DCD9     		bls	.L52
 1009              		.loc 6 178 0 is_stmt 1
 1010 04f6 1D20     		movs	r0, #29
 1011 04f8 1A49     		ldr	r1, .L77+4
 1012 04fa FFF7FEFF 		bl	_test_assert_sequence
 1013 04fe 0346     		mov	r3, r0
 1014 0500 002B     		cmp	r3, #0
 1015 0502 00D0     		beq	.L53
 1016              		.loc 6 178 0 is_stmt 0 discriminator 1
 1017 0504 83E1     		b	.L17
 1018              	.L53:
 1019              		.loc 6 179 0 is_stmt 1
 1020 0506 FFF7FEFF 		bl	chSysLock
 1021 050a 1548     		ldr	r0, .L77
ARM GAS  /tmp/ccZrWEni.s 			page 19


 1022 050c FFF7FEFF 		bl	chMBGetFreeCountI
 1023 0510 0346     		mov	r3, r0
 1024 0512 052B     		cmp	r3, #5
 1025 0514 14BF     		ite	ne
 1026 0516 0023     		movne	r3, #0
 1027 0518 0123     		moveq	r3, #1
 1028 051a DBB2     		uxtb	r3, r3
 1029 051c 1E20     		movs	r0, #30
 1030 051e 1946     		mov	r1, r3
 1031 0520 FFF7FEFF 		bl	_test_assert
 1032 0524 0346     		mov	r3, r0
 1033 0526 002B     		cmp	r3, #0
 1034 0528 02D0     		beq	.L54
 1035              		.loc 6 179 0 is_stmt 0 discriminator 1
 1036 052a FFF7FEFF 		bl	chSysUnlock
 1037 052e 6EE1     		b	.L17
 1038              	.L54:
 1039              		.loc 6 179 0 discriminator 2
 1040 0530 FFF7FEFF 		bl	chSysUnlock
 1041              		.loc 6 180 0 is_stmt 1 discriminator 2
 1042 0534 FFF7FEFF 		bl	chSysLock
 1043 0538 0948     		ldr	r0, .L77
 1044 053a FFF7FEFF 		bl	chMBGetUsedCountI
 1045 053e 0346     		mov	r3, r0
 1046 0540 002B     		cmp	r3, #0
 1047 0542 14BF     		ite	ne
 1048 0544 0023     		movne	r3, #0
 1049 0546 0123     		moveq	r3, #1
 1050 0548 DBB2     		uxtb	r3, r3
 1051 054a 1F20     		movs	r0, #31
 1052 054c 1946     		mov	r1, r3
 1053 054e FFF7FEFF 		bl	_test_assert
 1054 0552 0346     		mov	r3, r0
 1055 0554 002B     		cmp	r3, #0
 1056 0556 07D0     		beq	.L55
 1057              		.loc 6 180 0 is_stmt 0 discriminator 1
 1058 0558 FFF7FEFF 		bl	chSysUnlock
 1059 055c 57E1     		b	.L17
 1060              	.L78:
 1061 055e 00BF     		.align	2
 1062              	.L77:
 1063 0560 00000000 		.word	mb1
 1064 0564 00000000 		.word	.LC0
 1065              	.L55:
 1066              		.loc 6 180 0 discriminator 2
 1067 0568 FFF7FEFF 		bl	chSysUnlock
 1068              		.loc 6 181 0 is_stmt 1 discriminator 2
 1069 056c A94B     		ldr	r3, .L79
 1070 056e DA68     		ldr	r2, [r3, #12]
 1071 0570 A84B     		ldr	r3, .L79
 1072 0572 9B68     		ldr	r3, [r3, #8]
 1073 0574 9A42     		cmp	r2, r3
 1074 0576 14BF     		ite	ne
 1075 0578 0023     		movne	r3, #0
 1076 057a 0123     		moveq	r3, #1
 1077 057c DBB2     		uxtb	r3, r3
 1078 057e 2020     		movs	r0, #32
ARM GAS  /tmp/ccZrWEni.s 			page 20


 1079 0580 1946     		mov	r1, r3
 1080 0582 FFF7FEFF 		bl	_test_assert
 1081 0586 0346     		mov	r3, r0
 1082 0588 002B     		cmp	r3, #0
 1083 058a 00D0     		beq	.L56
 1084              		.loc 6 181 0 is_stmt 0 discriminator 1
 1085 058c 3FE1     		b	.L17
 1086              	.L56:
 1087              		.loc 6 183 0 is_stmt 1
 1088 058e FFF7FEFF 		bl	chSysLock
 1089              		.loc 6 184 0
 1090 0592 A048     		ldr	r0, .L79
 1091 0594 4521     		movs	r1, #69
 1092 0596 FFF7FEFF 		bl	chMBPostAheadI
 1093 059a 0290     		str	r0, [sp, #8]
 1094              		.loc 6 185 0
 1095 059c 029B     		ldr	r3, [sp, #8]
 1096 059e 002B     		cmp	r3, #0
 1097 05a0 14BF     		ite	ne
 1098 05a2 0023     		movne	r3, #0
 1099 05a4 0123     		moveq	r3, #1
 1100 05a6 DBB2     		uxtb	r3, r3
 1101 05a8 2120     		movs	r0, #33
 1102 05aa 1946     		mov	r1, r3
 1103 05ac FFF7FEFF 		bl	_test_assert
 1104 05b0 0346     		mov	r3, r0
 1105 05b2 002B     		cmp	r3, #0
 1106 05b4 00D0     		beq	.L57
 1107              		.loc 6 185 0 is_stmt 0 discriminator 1
 1108 05b6 2AE1     		b	.L17
 1109              	.L57:
 1110              		.loc 6 186 0 is_stmt 1
 1111 05b8 9648     		ldr	r0, .L79
 1112 05ba 4421     		movs	r1, #68
 1113 05bc FFF7FEFF 		bl	chMBPostAheadI
 1114 05c0 0290     		str	r0, [sp, #8]
 1115              		.loc 6 187 0
 1116 05c2 029B     		ldr	r3, [sp, #8]
 1117 05c4 002B     		cmp	r3, #0
 1118 05c6 14BF     		ite	ne
 1119 05c8 0023     		movne	r3, #0
 1120 05ca 0123     		moveq	r3, #1
 1121 05cc DBB2     		uxtb	r3, r3
 1122 05ce 2220     		movs	r0, #34
 1123 05d0 1946     		mov	r1, r3
 1124 05d2 FFF7FEFF 		bl	_test_assert
 1125 05d6 0346     		mov	r3, r0
 1126 05d8 002B     		cmp	r3, #0
 1127 05da 00D0     		beq	.L58
 1128              		.loc 6 187 0 is_stmt 0 discriminator 1
 1129 05dc 17E1     		b	.L17
 1130              	.L58:
 1131              		.loc 6 188 0 is_stmt 1
 1132 05de 8D48     		ldr	r0, .L79
 1133 05e0 4321     		movs	r1, #67
 1134 05e2 FFF7FEFF 		bl	chMBPostAheadI
 1135 05e6 0290     		str	r0, [sp, #8]
ARM GAS  /tmp/ccZrWEni.s 			page 21


 1136              		.loc 6 189 0
 1137 05e8 029B     		ldr	r3, [sp, #8]
 1138 05ea 002B     		cmp	r3, #0
 1139 05ec 14BF     		ite	ne
 1140 05ee 0023     		movne	r3, #0
 1141 05f0 0123     		moveq	r3, #1
 1142 05f2 DBB2     		uxtb	r3, r3
 1143 05f4 2320     		movs	r0, #35
 1144 05f6 1946     		mov	r1, r3
 1145 05f8 FFF7FEFF 		bl	_test_assert
 1146 05fc 0346     		mov	r3, r0
 1147 05fe 002B     		cmp	r3, #0
 1148 0600 00D0     		beq	.L59
 1149              		.loc 6 189 0 is_stmt 0 discriminator 1
 1150 0602 04E1     		b	.L17
 1151              	.L59:
 1152              		.loc 6 190 0 is_stmt 1
 1153 0604 8348     		ldr	r0, .L79
 1154 0606 4221     		movs	r1, #66
 1155 0608 FFF7FEFF 		bl	chMBPostAheadI
 1156 060c 0290     		str	r0, [sp, #8]
 1157              		.loc 6 191 0
 1158 060e 029B     		ldr	r3, [sp, #8]
 1159 0610 002B     		cmp	r3, #0
 1160 0612 14BF     		ite	ne
 1161 0614 0023     		movne	r3, #0
 1162 0616 0123     		moveq	r3, #1
 1163 0618 DBB2     		uxtb	r3, r3
 1164 061a 2420     		movs	r0, #36
 1165 061c 1946     		mov	r1, r3
 1166 061e FFF7FEFF 		bl	_test_assert
 1167 0622 0346     		mov	r3, r0
 1168 0624 002B     		cmp	r3, #0
 1169 0626 00D0     		beq	.L60
 1170              		.loc 6 191 0 is_stmt 0 discriminator 1
 1171 0628 F1E0     		b	.L17
 1172              	.L60:
 1173              		.loc 6 192 0 is_stmt 1
 1174 062a 7A48     		ldr	r0, .L79
 1175 062c 4121     		movs	r1, #65
 1176 062e FFF7FEFF 		bl	chMBPostAheadI
 1177 0632 0290     		str	r0, [sp, #8]
 1178              		.loc 6 193 0
 1179 0634 FFF7FEFF 		bl	chSysUnlock
 1180              		.loc 6 194 0
 1181 0638 029B     		ldr	r3, [sp, #8]
 1182 063a 002B     		cmp	r3, #0
 1183 063c 14BF     		ite	ne
 1184 063e 0023     		movne	r3, #0
 1185 0640 0123     		moveq	r3, #1
 1186 0642 DBB2     		uxtb	r3, r3
 1187 0644 2520     		movs	r0, #37
 1188 0646 1946     		mov	r1, r3
 1189 0648 FFF7FEFF 		bl	_test_assert
 1190 064c 0346     		mov	r3, r0
 1191 064e 002B     		cmp	r3, #0
 1192 0650 00D0     		beq	.L61
ARM GAS  /tmp/ccZrWEni.s 			page 22


 1193              		.loc 6 194 0 is_stmt 0 discriminator 1
 1194 0652 DCE0     		b	.L17
 1195              	.L61:
 1196              		.loc 6 195 0 is_stmt 1
 1197 0654 6F4B     		ldr	r3, .L79
 1198 0656 DA68     		ldr	r2, [r3, #12]
 1199 0658 6E4B     		ldr	r3, .L79
 1200 065a 9B68     		ldr	r3, [r3, #8]
 1201 065c 9A42     		cmp	r2, r3
 1202 065e 14BF     		ite	ne
 1203 0660 0023     		movne	r3, #0
 1204 0662 0123     		moveq	r3, #1
 1205 0664 DBB2     		uxtb	r3, r3
 1206 0666 2620     		movs	r0, #38
 1207 0668 1946     		mov	r1, r3
 1208 066a FFF7FEFF 		bl	_test_assert
 1209 066e 0346     		mov	r3, r0
 1210 0670 002B     		cmp	r3, #0
 1211 0672 00D0     		beq	.L62
 1212              		.loc 6 195 0 is_stmt 0 discriminator 1
 1213 0674 CBE0     		b	.L17
 1214              	.L62:
 1215              		.loc 6 196 0 is_stmt 1
 1216 0676 0023     		movs	r3, #0
 1217 0678 0393     		str	r3, [sp, #12]
 1218 067a 1FE0     		b	.L63
 1219              	.L65:
 1220              		.loc 6 197 0
 1221 067c FFF7FEFF 		bl	chSysLock
 1222              		.loc 6 198 0
 1223 0680 01AB     		add	r3, sp, #4
 1224 0682 6448     		ldr	r0, .L79
 1225 0684 1946     		mov	r1, r3
 1226 0686 FFF7FEFF 		bl	chMBFetchI
 1227 068a 0290     		str	r0, [sp, #8]
 1228              		.loc 6 199 0
 1229 068c FFF7FEFF 		bl	chSysUnlock
 1230              		.loc 6 200 0
 1231 0690 029B     		ldr	r3, [sp, #8]
 1232 0692 002B     		cmp	r3, #0
 1233 0694 14BF     		ite	ne
 1234 0696 0023     		movne	r3, #0
 1235 0698 0123     		moveq	r3, #1
 1236 069a DBB2     		uxtb	r3, r3
 1237 069c 2720     		movs	r0, #39
 1238 069e 1946     		mov	r1, r3
 1239 06a0 FFF7FEFF 		bl	_test_assert
 1240 06a4 0346     		mov	r3, r0
 1241 06a6 002B     		cmp	r3, #0
 1242 06a8 00D0     		beq	.L64
 1243              		.loc 6 200 0 is_stmt 0 discriminator 1
 1244 06aa B0E0     		b	.L17
 1245              	.L64:
 1246              		.loc 6 201 0 is_stmt 1
 1247 06ac 019B     		ldr	r3, [sp, #4]
 1248 06ae DBB2     		uxtb	r3, r3
 1249 06b0 1846     		mov	r0, r3
ARM GAS  /tmp/ccZrWEni.s 			page 23


 1250 06b2 FFF7FEFF 		bl	test_emit_token
 1251              		.loc 6 196 0
 1252 06b6 039B     		ldr	r3, [sp, #12]
 1253 06b8 0133     		adds	r3, r3, #1
 1254 06ba 0393     		str	r3, [sp, #12]
 1255              	.L63:
 1256              		.loc 6 196 0 is_stmt 0 discriminator 1
 1257 06bc 039B     		ldr	r3, [sp, #12]
 1258 06be 042B     		cmp	r3, #4
 1259 06c0 DCD9     		bls	.L65
 1260              		.loc 6 203 0 is_stmt 1
 1261 06c2 2820     		movs	r0, #40
 1262 06c4 5449     		ldr	r1, .L79+4
 1263 06c6 FFF7FEFF 		bl	_test_assert_sequence
 1264 06ca 0346     		mov	r3, r0
 1265 06cc 002B     		cmp	r3, #0
 1266 06ce 00D0     		beq	.L66
 1267              		.loc 6 203 0 is_stmt 0 discriminator 1
 1268 06d0 9DE0     		b	.L17
 1269              	.L66:
 1270              		.loc 6 204 0 is_stmt 1
 1271 06d2 FFF7FEFF 		bl	chSysLock
 1272 06d6 4F48     		ldr	r0, .L79
 1273 06d8 FFF7FEFF 		bl	chMBGetFreeCountI
 1274 06dc 0346     		mov	r3, r0
 1275 06de 052B     		cmp	r3, #5
 1276 06e0 14BF     		ite	ne
 1277 06e2 0023     		movne	r3, #0
 1278 06e4 0123     		moveq	r3, #1
 1279 06e6 DBB2     		uxtb	r3, r3
 1280 06e8 2920     		movs	r0, #41
 1281 06ea 1946     		mov	r1, r3
 1282 06ec FFF7FEFF 		bl	_test_assert
 1283 06f0 0346     		mov	r3, r0
 1284 06f2 002B     		cmp	r3, #0
 1285 06f4 02D0     		beq	.L67
 1286              		.loc 6 204 0 is_stmt 0 discriminator 1
 1287 06f6 FFF7FEFF 		bl	chSysUnlock
 1288 06fa 88E0     		b	.L17
 1289              	.L67:
 1290              		.loc 6 204 0 discriminator 2
 1291 06fc FFF7FEFF 		bl	chSysUnlock
 1292              		.loc 6 205 0 is_stmt 1 discriminator 2
 1293 0700 FFF7FEFF 		bl	chSysLock
 1294 0704 4348     		ldr	r0, .L79
 1295 0706 FFF7FEFF 		bl	chMBGetUsedCountI
 1296 070a 0346     		mov	r3, r0
 1297 070c 002B     		cmp	r3, #0
 1298 070e 14BF     		ite	ne
 1299 0710 0023     		movne	r3, #0
 1300 0712 0123     		moveq	r3, #1
 1301 0714 DBB2     		uxtb	r3, r3
 1302 0716 2A20     		movs	r0, #42
 1303 0718 1946     		mov	r1, r3
 1304 071a FFF7FEFF 		bl	_test_assert
 1305 071e 0346     		mov	r3, r0
 1306 0720 002B     		cmp	r3, #0
ARM GAS  /tmp/ccZrWEni.s 			page 24


 1307 0722 02D0     		beq	.L68
 1308              		.loc 6 205 0 is_stmt 0 discriminator 1
 1309 0724 FFF7FEFF 		bl	chSysUnlock
 1310 0728 71E0     		b	.L17
 1311              	.L68:
 1312              		.loc 6 205 0 discriminator 2
 1313 072a FFF7FEFF 		bl	chSysUnlock
 1314              		.loc 6 206 0 is_stmt 1 discriminator 2
 1315 072e 394B     		ldr	r3, .L79
 1316 0730 DA68     		ldr	r2, [r3, #12]
 1317 0732 384B     		ldr	r3, .L79
 1318 0734 9B68     		ldr	r3, [r3, #8]
 1319 0736 9A42     		cmp	r2, r3
 1320 0738 14BF     		ite	ne
 1321 073a 0023     		movne	r3, #0
 1322 073c 0123     		moveq	r3, #1
 1323 073e DBB2     		uxtb	r3, r3
 1324 0740 2B20     		movs	r0, #43
 1325 0742 1946     		mov	r1, r3
 1326 0744 FFF7FEFF 		bl	_test_assert
 1327 0748 0346     		mov	r3, r0
 1328 074a 002B     		cmp	r3, #0
 1329 074c 00D0     		beq	.L69
 1330              		.loc 6 206 0 is_stmt 0 discriminator 1
 1331 074e 5EE0     		b	.L17
 1332              	.L69:
 1333              		.loc 6 211 0 is_stmt 1
 1334 0750 3048     		ldr	r0, .L79
 1335 0752 FFF7FEFF 		bl	chMBReset
 1336              		.loc 6 216 0
 1337 0756 FFF7FEFF 		bl	chSysLock
 1338 075a 2E48     		ldr	r0, .L79
 1339 075c FFF7FEFF 		bl	chMBGetFreeCountI
 1340 0760 0346     		mov	r3, r0
 1341 0762 052B     		cmp	r3, #5
 1342 0764 14BF     		ite	ne
 1343 0766 0023     		movne	r3, #0
 1344 0768 0123     		moveq	r3, #1
 1345 076a DBB2     		uxtb	r3, r3
 1346 076c 2C20     		movs	r0, #44
 1347 076e 1946     		mov	r1, r3
 1348 0770 FFF7FEFF 		bl	_test_assert
 1349 0774 0346     		mov	r3, r0
 1350 0776 002B     		cmp	r3, #0
 1351 0778 02D0     		beq	.L70
 1352              		.loc 6 216 0 is_stmt 0 discriminator 1
 1353 077a FFF7FEFF 		bl	chSysUnlock
 1354 077e 46E0     		b	.L17
 1355              	.L70:
 1356              		.loc 6 216 0 discriminator 2
 1357 0780 FFF7FEFF 		bl	chSysUnlock
 1358              		.loc 6 217 0 is_stmt 1 discriminator 2
 1359 0784 FFF7FEFF 		bl	chSysLock
 1360 0788 2248     		ldr	r0, .L79
 1361 078a FFF7FEFF 		bl	chMBGetUsedCountI
 1362 078e 0346     		mov	r3, r0
 1363 0790 002B     		cmp	r3, #0
ARM GAS  /tmp/ccZrWEni.s 			page 25


 1364 0792 14BF     		ite	ne
 1365 0794 0023     		movne	r3, #0
 1366 0796 0123     		moveq	r3, #1
 1367 0798 DBB2     		uxtb	r3, r3
 1368 079a 2D20     		movs	r0, #45
 1369 079c 1946     		mov	r1, r3
 1370 079e FFF7FEFF 		bl	_test_assert
 1371 07a2 0346     		mov	r3, r0
 1372 07a4 002B     		cmp	r3, #0
 1373 07a6 02D0     		beq	.L71
 1374              		.loc 6 217 0 is_stmt 0 discriminator 1
 1375 07a8 FFF7FEFF 		bl	chSysUnlock
 1376 07ac 2FE0     		b	.L17
 1377              	.L71:
 1378              		.loc 6 217 0 discriminator 2
 1379 07ae FFF7FEFF 		bl	chSysUnlock
 1380              		.loc 6 218 0 is_stmt 1 discriminator 2
 1381 07b2 FFF7FEFF 		bl	chSysLock
 1382 07b6 174B     		ldr	r3, .L79
 1383 07b8 1A68     		ldr	r2, [r3]
 1384 07ba 164B     		ldr	r3, .L79
 1385 07bc 9B68     		ldr	r3, [r3, #8]
 1386 07be 9A42     		cmp	r2, r3
 1387 07c0 14BF     		ite	ne
 1388 07c2 0023     		movne	r3, #0
 1389 07c4 0123     		moveq	r3, #1
 1390 07c6 DBB2     		uxtb	r3, r3
 1391 07c8 2E20     		movs	r0, #46
 1392 07ca 1946     		mov	r1, r3
 1393 07cc FFF7FEFF 		bl	_test_assert
 1394 07d0 0346     		mov	r3, r0
 1395 07d2 002B     		cmp	r3, #0
 1396 07d4 02D0     		beq	.L72
 1397              		.loc 6 218 0 is_stmt 0 discriminator 1
 1398 07d6 FFF7FEFF 		bl	chSysUnlock
 1399 07da 18E0     		b	.L17
 1400              	.L72:
 1401              		.loc 6 218 0 discriminator 2
 1402 07dc FFF7FEFF 		bl	chSysUnlock
 1403              		.loc 6 219 0 is_stmt 1 discriminator 2
 1404 07e0 FFF7FEFF 		bl	chSysLock
 1405 07e4 0B4B     		ldr	r3, .L79
 1406 07e6 1A68     		ldr	r2, [r3]
 1407 07e8 0A4B     		ldr	r3, .L79
 1408 07ea DB68     		ldr	r3, [r3, #12]
 1409 07ec 9A42     		cmp	r2, r3
 1410 07ee 14BF     		ite	ne
 1411 07f0 0023     		movne	r3, #0
 1412 07f2 0123     		moveq	r3, #1
 1413 07f4 DBB2     		uxtb	r3, r3
 1414 07f6 2F20     		movs	r0, #47
 1415 07f8 1946     		mov	r1, r3
 1416 07fa FFF7FEFF 		bl	_test_assert
 1417 07fe 0346     		mov	r3, r0
 1418 0800 002B     		cmp	r3, #0
 1419 0802 02D0     		beq	.L73
 1420              		.loc 6 219 0 is_stmt 0 discriminator 1
ARM GAS  /tmp/ccZrWEni.s 			page 26


 1421 0804 FFF7FEFF 		bl	chSysUnlock
 1422 0808 01E0     		b	.L17
 1423              	.L73:
 1424              		.loc 6 219 0 discriminator 2
 1425 080a FFF7FEFF 		bl	chSysUnlock
 1426              	.L17:
 1427              		.loc 6 220 0 is_stmt 1
 1428 080e 05B0     		add	sp, sp, #20
 1429              		@ sp needed
 1430 0810 5DF804FB 		ldr	pc, [sp], #4
 1431              	.L80:
 1432              		.align	2
 1433              	.L79:
 1434 0814 00000000 		.word	mb1
 1435 0818 00000000 		.word	.LC0
 1436              		.cfi_endproc
 1437              	.LFE241:
 1438              		.size	mbox1_execute, .-mbox1_execute
 1439              		.global	testmbox1
 1440 081c AFF30080 		.section	.rodata
 1441 0006 0000     		.align	2
 1442              	.LC1:
 1443 0008 4D61696C 		.ascii	"Mailboxes, queuing and timeouts\000"
 1443      626F7865 
 1443      732C2071 
 1443      75657569 
 1443      6E672061 
 1444              		.section	.rodata.testmbox1,"a",%progbits
 1445              		.align	2
 1446              		.type	testmbox1, %object
 1447              		.size	testmbox1, 16
 1448              	testmbox1:
 1449 0000 08000000 		.word	.LC1
 1450 0004 00000000 		.word	mbox1_setup
 1451 0008 00000000 		.word	0
 1452 000c 00000000 		.word	mbox1_execute
 1453              		.global	patternmbox
 1454              		.section	.rodata.patternmbox,"a",%progbits
 1455              		.align	2
 1456              		.type	patternmbox, %object
 1457              		.size	patternmbox, 8
 1458              	patternmbox:
 1459 0000 00000000 		.word	testmbox1
 1460 0004 00000000 		.word	0
 1461              		.section	.rodata.__func__.5925,"a",%progbits
 1462              		.align	2
 1463              		.type	__func__.5925, %object
 1464              		.size	__func__.5925, 12
 1465              	__func__.5925:
 1466 0000 63685379 		.ascii	"chSysUnlock\000"
 1466      73556E6C 
 1466      6F636B00 
 1467              		.text
 1468              	.Letext0:
 1469              		.file 7 "/usr/lib/gcc/arm-none-eabi/4.8/include/stddef.h"
 1470              		.file 8 "/usr/include/newlib/machine/_default_types.h"
 1471              		.file 9 "/usr/include/newlib/stdint.h"
ARM GAS  /tmp/ccZrWEni.s 			page 27


 1472              		.file 10 "/home/efe/ChibiOS/os/rt/ports/ARMCMx/compilers/GCC/chtypes.h"
 1473              		.file 11 "/home/efe/ChibiOS/os/rt/include/chsystypes.h"
 1474              		.file 12 "/home/efe/ChibiOS/os/rt/include/chschd.h"
 1475              		.file 13 "/home/efe/ChibiOS/os/rt/ports/ARMCMx/chcore.h"
 1476              		.file 14 "/home/efe/ChibiOS/os/rt/include/chdebug.h"
 1477              		.file 15 "/home/efe/ChibiOS/os/rt/include/chtm.h"
 1478              		.file 16 "/home/efe/ChibiOS/os/rt/include/chstats.h"
 1479              		.file 17 "/home/efe/ChibiOS/os/rt/include/chmtx.h"
 1480              		.file 18 "/home/efe/ChibiOS/test/rt/test.h"
 1481              		.file 19 "/home/efe/ChibiOS/os/ext/CMSIS/include/core_cm4.h"