ARM GAS  /tmp/ccSoisRf.s 			page 1


   1              		.syntax unified
   2              		.cpu cortex-m4
   3              		.fpu softvfp
   4              		.eabi_attribute 20, 1
   5              		.eabi_attribute 21, 1
   6              		.eabi_attribute 23, 3
   7              		.eabi_attribute 24, 1
   8              		.eabi_attribute 25, 1
   9              		.eabi_attribute 26, 1
  10              		.eabi_attribute 30, 6
  11              		.eabi_attribute 34, 1
  12              		.eabi_attribute 18, 4
  13              		.thumb
  14              		.file	"testmtx.c"
  15              		.text
  16              	.Ltext0:
  17              		.cfi_sections	.debug_frame
  18              		.section	.text.port_lock,"ax",%progbits
  19              		.align	2
  20              		.p2align 4,,15
  21              		.thumb
  22              		.thumb_func
  23              		.type	port_lock, %function
  24              	port_lock:
  25              	.LFB127:
  26              		.file 1 "/home/efe/ChibiOS/os/rt/ports/ARMCMx/chcore_v7m.h"
  27              		.loc 1 456 0
  28              		.cfi_startproc
  29              		@ args = 0, pretend = 0, frame = 8
  30              		@ frame_needed = 0, uses_anonymous_args = 0
  31              		@ link register save eliminated.
  32 0000 82B0     		sub	sp, sp, #8
  33              		.cfi_def_cfa_offset 8
  34 0002 2023     		movs	r3, #32
  35 0004 0193     		str	r3, [sp, #4]
  36              	.LBB6:
  37              	.LBB7:
  38              		.file 2 "/home/efe/ChibiOS/os/ext/CMSIS/include/core_cmFunc.h"
  39              		.loc 2 548 0
  40 0006 019B     		ldr	r3, [sp, #4]
  41              	@ 548 "/home/efe/ChibiOS/os/ext/CMSIS/include/core_cmFunc.h" 1
  42 0008 83F31188 		MSR basepri, r3
  43              	@ 0 "" 2
  44              		.thumb
  45              	.LBE7:
  46              	.LBE6:
  47              		.loc 1 463 0
  48 000c 02B0     		add	sp, sp, #8
  49              		@ sp needed
  50 000e 7047     		bx	lr
  51              		.cfi_endproc
  52              	.LFE127:
  53              		.size	port_lock, .-port_lock
  54              		.section	.text.port_unlock,"ax",%progbits
  55              		.align	2
  56              		.p2align 4,,15
  57              		.thumb
ARM GAS  /tmp/ccSoisRf.s 			page 2


  58              		.thumb_func
  59              		.type	port_unlock, %function
  60              	port_unlock:
  61              	.LFB128:
  62              		.loc 1 470 0
  63              		.cfi_startproc
  64              		@ args = 0, pretend = 0, frame = 8
  65              		@ frame_needed = 0, uses_anonymous_args = 0
  66              		@ link register save eliminated.
  67 0000 82B0     		sub	sp, sp, #8
  68              		.cfi_def_cfa_offset 8
  69 0002 0023     		movs	r3, #0
  70 0004 0193     		str	r3, [sp, #4]
  71              	.LBB8:
  72              	.LBB9:
  73              		.loc 2 548 0
  74 0006 019B     		ldr	r3, [sp, #4]
  75              	@ 548 "/home/efe/ChibiOS/os/ext/CMSIS/include/core_cmFunc.h" 1
  76 0008 83F31188 		MSR basepri, r3
  77              	@ 0 "" 2
  78              		.thumb
  79              	.LBE9:
  80              	.LBE8:
  81              		.loc 1 477 0
  82 000c 02B0     		add	sp, sp, #8
  83              		@ sp needed
  84 000e 7047     		bx	lr
  85              		.cfi_endproc
  86              	.LFE128:
  87              		.size	port_unlock, .-port_unlock
  88              		.section	.text.queue_isempty,"ax",%progbits
  89              		.align	2
  90              		.p2align 4,,15
  91              		.thumb
  92              		.thumb_func
  93              		.type	queue_isempty, %function
  94              	queue_isempty:
  95              	.LFB151:
  96              		.file 3 "/home/efe/ChibiOS/os/rt/include/chschd.h"
  97              		.loc 3 616 0
  98              		.cfi_startproc
  99              		@ args = 0, pretend = 0, frame = 8
 100              		@ frame_needed = 0, uses_anonymous_args = 0
 101              		@ link register save eliminated.
 102 0000 82B0     		sub	sp, sp, #8
 103              		.cfi_def_cfa_offset 8
 104 0002 0190     		str	r0, [sp, #4]
 105              		.loc 3 618 0
 106 0004 019B     		ldr	r3, [sp, #4]
 107 0006 1A68     		ldr	r2, [r3]
 108 0008 019B     		ldr	r3, [sp, #4]
 109 000a 9A42     		cmp	r2, r3
 110 000c 14BF     		ite	ne
 111 000e 0023     		movne	r3, #0
 112 0010 0123     		moveq	r3, #1
 113 0012 DBB2     		uxtb	r3, r3
 114              		.loc 3 619 0
ARM GAS  /tmp/ccSoisRf.s 			page 3


 115 0014 1846     		mov	r0, r3
 116 0016 02B0     		add	sp, sp, #8
 117              		@ sp needed
 118 0018 7047     		bx	lr
 119              		.cfi_endproc
 120              	.LFE151:
 121              		.size	queue_isempty, .-queue_isempty
 122 001a 00BFAFF3 		.section	.text.chSysLock,"ax",%progbits
 122      0080
 123              		.align	2
 124              		.p2align 4,,15
 125              		.thumb
 126              		.thumb_func
 127              		.type	chSysLock, %function
 128              	chSysLock:
 129              	.LFB167:
 130              		.file 4 "/home/efe/ChibiOS/os/rt/include/chsys.h"
 131              		.loc 4 346 0
 132              		.cfi_startproc
 133              		@ args = 0, pretend = 0, frame = 0
 134              		@ frame_needed = 0, uses_anonymous_args = 0
 135 0000 08B5     		push	{r3, lr}
 136              		.cfi_def_cfa_offset 8
 137              		.cfi_offset 3, -8
 138              		.cfi_offset 14, -4
 139              		.loc 4 348 0
 140 0002 FFF7FEFF 		bl	port_lock
 141              		.loc 4 349 0
 142 0006 FFF7FEFF 		bl	_stats_start_measure_crit_thd
 143              		.loc 4 350 0
 144 000a FFF7FEFF 		bl	_dbg_check_lock
 145              		.loc 4 351 0
 146 000e 08BD     		pop	{r3, pc}
 147              		.cfi_endproc
 148              	.LFE167:
 149              		.size	chSysLock, .-chSysLock
 150              		.section	.text.chSysUnlock,"ax",%progbits
 151              		.align	2
 152              		.p2align 4,,15
 153              		.thumb
 154              		.thumb_func
 155              		.type	chSysUnlock, %function
 156              	chSysUnlock:
 157              	.LFB168:
 158              		.loc 4 358 0
 159              		.cfi_startproc
 160              		@ args = 0, pretend = 0, frame = 0
 161              		@ frame_needed = 0, uses_anonymous_args = 0
 162 0000 08B5     		push	{r3, lr}
 163              		.cfi_def_cfa_offset 8
 164              		.cfi_offset 3, -8
 165              		.cfi_offset 14, -4
 166              		.loc 4 360 0
 167 0002 FFF7FEFF 		bl	_dbg_check_unlock
 168              		.loc 4 361 0
 169 0006 FFF7FEFF 		bl	_stats_stop_measure_crit_thd
 170              		.loc 4 367 0
ARM GAS  /tmp/ccSoisRf.s 			page 4


 171 000a 094B     		ldr	r3, .L8
 172 000c 1A68     		ldr	r2, [r3]
 173 000e 084B     		ldr	r3, .L8
 174 0010 9A42     		cmp	r2, r3
 175 0012 0AD0     		beq	.L7
 176              		.loc 4 367 0 is_stmt 0 discriminator 1
 177 0014 064B     		ldr	r3, .L8
 178 0016 9B69     		ldr	r3, [r3, #24]
 179 0018 9A68     		ldr	r2, [r3, #8]
 180 001a 054B     		ldr	r3, .L8
 181 001c 1B68     		ldr	r3, [r3]
 182 001e 9B68     		ldr	r3, [r3, #8]
 183 0020 9A42     		cmp	r2, r3
 184 0022 02D2     		bcs	.L7
 185 0024 0348     		ldr	r0, .L8+4
 186 0026 FFF7FEFF 		bl	chSysHalt
 187              	.L7:
 188              		.loc 4 371 0 is_stmt 1
 189 002a FFF7FEFF 		bl	port_unlock
 190              		.loc 4 372 0
 191 002e 08BD     		pop	{r3, pc}
 192              	.L9:
 193              		.align	2
 194              	.L8:
 195 0030 00000000 		.word	ch
 196 0034 00000000 		.word	__func__.5925
 197              		.cfi_endproc
 198              	.LFE168:
 199              		.size	chSysUnlock, .-chSysUnlock
 200 0038 AFF30080 		.section	.text.chThdGetSelfX,"ax",%progbits
 200      AFF30080 
 201              		.align	2
 202              		.p2align 4,,15
 203              		.thumb
 204              		.thumb_func
 205              		.type	chThdGetSelfX, %function
 206              	chThdGetSelfX:
 207              	.LFB188:
 208              		.file 5 "/home/efe/ChibiOS/os/rt/include/chthreads.h"
 209              		.loc 5 174 0
 210              		.cfi_startproc
 211              		@ args = 0, pretend = 0, frame = 0
 212              		@ frame_needed = 0, uses_anonymous_args = 0
 213              		@ link register save eliminated.
 214              		.loc 5 176 0
 215 0000 014B     		ldr	r3, .L12
 216 0002 9B69     		ldr	r3, [r3, #24]
 217              		.loc 5 177 0
 218 0004 1846     		mov	r0, r3
 219 0006 7047     		bx	lr
 220              	.L13:
 221              		.align	2
 222              	.L12:
 223 0008 00000000 		.word	ch
 224              		.cfi_endproc
 225              	.LFE188:
 226              		.size	chThdGetSelfX, .-chThdGetSelfX
ARM GAS  /tmp/ccSoisRf.s 			page 5


 227 000c AFF30080 		.section	.text.chThdGetPriorityX,"ax",%progbits
 228              		.align	2
 229              		.p2align 4,,15
 230              		.thumb
 231              		.thumb_func
 232              		.type	chThdGetPriorityX, %function
 233              	chThdGetPriorityX:
 234              	.LFB189:
 235              		.loc 5 187 0
 236              		.cfi_startproc
 237              		@ args = 0, pretend = 0, frame = 0
 238              		@ frame_needed = 0, uses_anonymous_args = 0
 239 0000 08B5     		push	{r3, lr}
 240              		.cfi_def_cfa_offset 8
 241              		.cfi_offset 3, -8
 242              		.cfi_offset 14, -4
 243              		.loc 5 189 0
 244 0002 FFF7FEFF 		bl	chThdGetSelfX
 245 0006 0346     		mov	r3, r0
 246 0008 9B68     		ldr	r3, [r3, #8]
 247              		.loc 5 190 0
 248 000a 1846     		mov	r0, r3
 249 000c 08BD     		pop	{r3, pc}
 250              		.cfi_endproc
 251              	.LFE189:
 252              		.size	chThdGetPriorityX, .-chThdGetPriorityX
 253 000e 00BF     		.section	.data.m1,"aw",%progbits
 254              		.align	2
 255              		.type	m1, %object
 256              		.size	m1, 16
 257              	m1:
 258 0000 00000000 		.word	m1
 259 0004 00000000 		.word	m1
 260 0008 00000000 		.word	0
 261 000c 00000000 		.word	0
 262              		.section	.data.m2,"aw",%progbits
 263              		.align	2
 264              		.type	m2, %object
 265              		.size	m2, 16
 266              	m2:
 267 0000 00000000 		.word	m2
 268 0004 00000000 		.word	m2
 269 0008 00000000 		.word	0
 270 000c 00000000 		.word	0
 271              		.section	.data.c1,"aw",%progbits
 272              		.align	2
 273              		.type	c1, %object
 274              		.size	c1, 8
 275              	c1:
 276 0000 00000000 		.word	c1
 277 0004 00000000 		.word	c1
 278              		.section	.text.mtx1_setup,"ax",%progbits
 279              		.align	2
 280              		.p2align 4,,15
 281              		.thumb
 282              		.thumb_func
 283              		.type	mtx1_setup, %function
ARM GAS  /tmp/ccSoisRf.s 			page 6


 284              	mtx1_setup:
 285              	.LFB240:
 286              		.file 6 "/home/efe/ChibiOS/test/rt/testmtx.c"
 287              		.loc 6 84 0
 288              		.cfi_startproc
 289              		@ args = 0, pretend = 0, frame = 0
 290              		@ frame_needed = 0, uses_anonymous_args = 0
 291 0000 08B5     		push	{r3, lr}
 292              		.cfi_def_cfa_offset 8
 293              		.cfi_offset 3, -8
 294              		.cfi_offset 14, -4
 295              		.loc 6 86 0
 296 0002 0248     		ldr	r0, .L17
 297 0004 FFF7FEFF 		bl	chMtxObjectInit
 298              		.loc 6 87 0
 299 0008 08BD     		pop	{r3, pc}
 300              	.L18:
 301 000a 00BF     		.align	2
 302              	.L17:
 303 000c 00000000 		.word	m1
 304              		.cfi_endproc
 305              	.LFE240:
 306              		.size	mtx1_setup, .-mtx1_setup
 307              		.section	.text.thread1,"ax",%progbits
 308              		.align	2
 309              		.p2align 4,,15
 310              		.thumb
 311              		.thumb_func
 312              		.type	thread1, %function
 313              	thread1:
 314              	.LFB241:
 315              		.loc 6 89 0
 316              		.cfi_startproc
 317              		@ args = 0, pretend = 0, frame = 8
 318              		@ frame_needed = 0, uses_anonymous_args = 0
 319 0000 00B5     		push	{lr}
 320              		.cfi_def_cfa_offset 4
 321              		.cfi_offset 14, -4
 322 0002 83B0     		sub	sp, sp, #12
 323              		.cfi_def_cfa_offset 16
 324 0004 0190     		str	r0, [sp, #4]
 325              		.loc 6 91 0
 326 0006 0748     		ldr	r0, .L20
 327 0008 FFF7FEFF 		bl	chMtxLock
 328              		.loc 6 92 0
 329 000c 019B     		ldr	r3, [sp, #4]
 330 000e 1B78     		ldrb	r3, [r3]	@ zero_extendqisi2
 331 0010 1846     		mov	r0, r3
 332 0012 FFF7FEFF 		bl	test_emit_token
 333              		.loc 6 93 0
 334 0016 0348     		ldr	r0, .L20
 335 0018 FFF7FEFF 		bl	chMtxUnlock
 336              		.loc 6 94 0
 337 001c 03B0     		add	sp, sp, #12
 338              		@ sp needed
 339 001e 5DF804FB 		ldr	pc, [sp], #4
 340              	.L21:
ARM GAS  /tmp/ccSoisRf.s 			page 7


 341 0022 00BF     		.align	2
 342              	.L20:
 343 0024 00000000 		.word	m1
 344              		.cfi_endproc
 345              	.LFE241:
 346              		.size	thread1, .-thread1
 347 0028 AFF30080 		.section	.rodata
 347      AFF30080 
 348              		.align	2
 349              	.LC0:
 350 0000 4500     		.ascii	"E\000"
 351 0002 0000     		.align	2
 352              	.LC1:
 353 0004 4400     		.ascii	"D\000"
 354 0006 0000     		.align	2
 355              	.LC2:
 356 0008 4300     		.ascii	"C\000"
 357 000a 0000     		.align	2
 358              	.LC3:
 359 000c 4200     		.ascii	"B\000"
 360 000e 0000     		.align	2
 361              	.LC4:
 362 0010 4100     		.ascii	"A\000"
 363 0012 0000     		.align	2
 364              	.LC5:
 365 0014 41424344 		.ascii	"ABCDE\000"
 365      4500
 366              		.section	.text.mtx1_execute,"ax",%progbits
 367              		.align	2
 368              		.p2align 4,,15
 369              		.thumb
 370              		.thumb_func
 371              		.type	mtx1_execute, %function
 372              	mtx1_execute:
 373              	.LFB242:
 374              		.loc 6 96 0
 375              		.cfi_startproc
 376              		@ args = 0, pretend = 0, frame = 8
 377              		@ frame_needed = 0, uses_anonymous_args = 0
 378 0000 00B5     		push	{lr}
 379              		.cfi_def_cfa_offset 4
 380              		.cfi_offset 14, -4
 381 0002 85B0     		sub	sp, sp, #20
 382              		.cfi_def_cfa_offset 24
 383              		.loc 6 98 0
 384 0004 FFF7FEFF 		bl	chThdGetPriorityX
 385 0008 0390     		str	r0, [sp, #12]
 386              		.loc 6 99 0
 387 000a 3A48     		ldr	r0, .L25
 388 000c FFF7FEFF 		bl	chMtxLock
 389              		.loc 6 100 0
 390 0010 394B     		ldr	r3, .L25+4
 391 0012 1A68     		ldr	r2, [r3]
 392 0014 039B     		ldr	r3, [sp, #12]
 393 0016 0133     		adds	r3, r3, #1
 394 0018 3849     		ldr	r1, .L25+8
 395 001a 0091     		str	r1, [sp]
ARM GAS  /tmp/ccSoisRf.s 			page 8


 396 001c 1046     		mov	r0, r2
 397 001e 4FF4B471 		mov	r1, #360
 398 0022 1A46     		mov	r2, r3
 399 0024 364B     		ldr	r3, .L25+12
 400 0026 FFF7FEFF 		bl	chThdCreateStatic
 401 002a 0246     		mov	r2, r0
 402 002c 354B     		ldr	r3, .L25+16
 403 002e 1A60     		str	r2, [r3]
 404              		.loc 6 101 0
 405 0030 314B     		ldr	r3, .L25+4
 406 0032 5A68     		ldr	r2, [r3, #4]
 407 0034 039B     		ldr	r3, [sp, #12]
 408 0036 0233     		adds	r3, r3, #2
 409 0038 3349     		ldr	r1, .L25+20
 410 003a 0091     		str	r1, [sp]
 411 003c 1046     		mov	r0, r2
 412 003e 4FF4B471 		mov	r1, #360
 413 0042 1A46     		mov	r2, r3
 414 0044 2E4B     		ldr	r3, .L25+12
 415 0046 FFF7FEFF 		bl	chThdCreateStatic
 416 004a 0246     		mov	r2, r0
 417 004c 2D4B     		ldr	r3, .L25+16
 418 004e 5A60     		str	r2, [r3, #4]
 419              		.loc 6 102 0
 420 0050 294B     		ldr	r3, .L25+4
 421 0052 9A68     		ldr	r2, [r3, #8]
 422 0054 039B     		ldr	r3, [sp, #12]
 423 0056 0333     		adds	r3, r3, #3
 424 0058 2C49     		ldr	r1, .L25+24
 425 005a 0091     		str	r1, [sp]
 426 005c 1046     		mov	r0, r2
 427 005e 4FF4B471 		mov	r1, #360
 428 0062 1A46     		mov	r2, r3
 429 0064 264B     		ldr	r3, .L25+12
 430 0066 FFF7FEFF 		bl	chThdCreateStatic
 431 006a 0246     		mov	r2, r0
 432 006c 254B     		ldr	r3, .L25+16
 433 006e 9A60     		str	r2, [r3, #8]
 434              		.loc 6 103 0
 435 0070 214B     		ldr	r3, .L25+4
 436 0072 DA68     		ldr	r2, [r3, #12]
 437 0074 039B     		ldr	r3, [sp, #12]
 438 0076 0433     		adds	r3, r3, #4
 439 0078 2549     		ldr	r1, .L25+28
 440 007a 0091     		str	r1, [sp]
 441 007c 1046     		mov	r0, r2
 442 007e 4FF4B471 		mov	r1, #360
 443 0082 1A46     		mov	r2, r3
 444 0084 1E4B     		ldr	r3, .L25+12
 445 0086 FFF7FEFF 		bl	chThdCreateStatic
 446 008a 0246     		mov	r2, r0
 447 008c 1D4B     		ldr	r3, .L25+16
 448 008e DA60     		str	r2, [r3, #12]
 449              		.loc 6 104 0
 450 0090 194B     		ldr	r3, .L25+4
 451 0092 1A69     		ldr	r2, [r3, #16]
 452 0094 039B     		ldr	r3, [sp, #12]
ARM GAS  /tmp/ccSoisRf.s 			page 9


 453 0096 0533     		adds	r3, r3, #5
 454 0098 1E49     		ldr	r1, .L25+32
 455 009a 0091     		str	r1, [sp]
 456 009c 1046     		mov	r0, r2
 457 009e 4FF4B471 		mov	r1, #360
 458 00a2 1A46     		mov	r2, r3
 459 00a4 164B     		ldr	r3, .L25+12
 460 00a6 FFF7FEFF 		bl	chThdCreateStatic
 461 00aa 0246     		mov	r2, r0
 462 00ac 154B     		ldr	r3, .L25+16
 463 00ae 1A61     		str	r2, [r3, #16]
 464              		.loc 6 105 0
 465 00b0 1048     		ldr	r0, .L25
 466 00b2 FFF7FEFF 		bl	chMtxUnlock
 467              		.loc 6 106 0
 468 00b6 FFF7FEFF 		bl	test_wait_threads
 469              		.loc 6 107 0
 470 00ba FFF7FEFF 		bl	chThdGetPriorityX
 471 00be 0246     		mov	r2, r0
 472 00c0 039B     		ldr	r3, [sp, #12]
 473 00c2 9A42     		cmp	r2, r3
 474 00c4 14BF     		ite	ne
 475 00c6 0023     		movne	r3, #0
 476 00c8 0123     		moveq	r3, #1
 477 00ca DBB2     		uxtb	r3, r3
 478 00cc 0120     		movs	r0, #1
 479 00ce 1946     		mov	r1, r3
 480 00d0 FFF7FEFF 		bl	_test_assert
 481 00d4 0346     		mov	r3, r0
 482 00d6 002B     		cmp	r3, #0
 483 00d8 00D0     		beq	.L23
 484              		.loc 6 107 0 is_stmt 0 discriminator 1
 485 00da 07E0     		b	.L22
 486              	.L23:
 487              		.loc 6 108 0 is_stmt 1
 488 00dc 0220     		movs	r0, #2
 489 00de 0E49     		ldr	r1, .L25+36
 490 00e0 FFF7FEFF 		bl	_test_assert_sequence
 491 00e4 0346     		mov	r3, r0
 492 00e6 002B     		cmp	r3, #0
 493 00e8 00D0     		beq	.L22
 494              		.loc 6 108 0 is_stmt 0 discriminator 1
 495 00ea 00BF     		nop
 496              	.L22:
 497              		.loc 6 109 0 is_stmt 1
 498 00ec 05B0     		add	sp, sp, #20
 499              		@ sp needed
 500 00ee 5DF804FB 		ldr	pc, [sp], #4
 501              	.L26:
 502 00f2 00BF     		.align	2
 503              	.L25:
 504 00f4 00000000 		.word	m1
 505 00f8 00000000 		.word	wa
 506 00fc 00000000 		.word	.LC0
 507 0100 00000000 		.word	thread1
 508 0104 00000000 		.word	threads
 509 0108 04000000 		.word	.LC1
ARM GAS  /tmp/ccSoisRf.s 			page 10


 510 010c 08000000 		.word	.LC2
 511 0110 0C000000 		.word	.LC3
 512 0114 10000000 		.word	.LC4
 513 0118 14000000 		.word	.LC5
 514              		.cfi_endproc
 515              	.LFE242:
 516              		.size	mtx1_execute, .-mtx1_execute
 517              		.global	testmtx1
 518 011c AFF30080 		.section	.rodata
 519 001a 0000     		.align	2
 520              	.LC6:
 521 001c 4D757465 		.ascii	"Mutexes, priority enqueuing test\000"
 521      7865732C 
 521      20707269 
 521      6F726974 
 521      7920656E 
 522              		.section	.rodata.testmtx1,"a",%progbits
 523              		.align	2
 524              		.type	testmtx1, %object
 525              		.size	testmtx1, 16
 526              	testmtx1:
 527 0000 1C000000 		.word	.LC6
 528 0004 00000000 		.word	mtx1_setup
 529 0008 00000000 		.word	0
 530 000c 00000000 		.word	mtx1_execute
 531              		.section	.text.mtx4_setup,"ax",%progbits
 532              		.align	2
 533              		.p2align 4,,15
 534              		.thumb
 535              		.thumb_func
 536              		.type	mtx4_setup, %function
 537              	mtx4_setup:
 538              	.LFB243:
 539              		.loc 6 332 0
 540              		.cfi_startproc
 541              		@ args = 0, pretend = 0, frame = 0
 542              		@ frame_needed = 0, uses_anonymous_args = 0
 543 0000 08B5     		push	{r3, lr}
 544              		.cfi_def_cfa_offset 8
 545              		.cfi_offset 3, -8
 546              		.cfi_offset 14, -4
 547              		.loc 6 334 0
 548 0002 0348     		ldr	r0, .L28
 549 0004 FFF7FEFF 		bl	chMtxObjectInit
 550              		.loc 6 335 0
 551 0008 0248     		ldr	r0, .L28+4
 552 000a FFF7FEFF 		bl	chMtxObjectInit
 553              		.loc 6 336 0
 554 000e 08BD     		pop	{r3, pc}
 555              	.L29:
 556              		.align	2
 557              	.L28:
 558 0010 00000000 		.word	m1
 559 0014 00000000 		.word	m2
 560              		.cfi_endproc
 561              	.LFE243:
 562              		.size	mtx4_setup, .-mtx4_setup
ARM GAS  /tmp/ccSoisRf.s 			page 11


 563 0018 AFF30080 		.section	.text.thread4a,"ax",%progbits
 563      AFF30080 
 564              		.align	2
 565              		.p2align 4,,15
 566              		.thumb
 567              		.thumb_func
 568              		.type	thread4a, %function
 569              	thread4a:
 570              	.LFB244:
 571              		.loc 6 338 0
 572              		.cfi_startproc
 573              		@ args = 0, pretend = 0, frame = 8
 574              		@ frame_needed = 0, uses_anonymous_args = 0
 575 0000 00B5     		push	{lr}
 576              		.cfi_def_cfa_offset 4
 577              		.cfi_offset 14, -4
 578 0002 83B0     		sub	sp, sp, #12
 579              		.cfi_def_cfa_offset 16
 580 0004 0190     		str	r0, [sp, #4]
 581              		.loc 6 341 0
 582 0006 4FF4FA70 		mov	r0, #500
 583 000a FFF7FEFF 		bl	chThdSleep
 584              		.loc 6 342 0
 585 000e 0448     		ldr	r0, .L31
 586 0010 FFF7FEFF 		bl	chMtxLock
 587              		.loc 6 343 0
 588 0014 0248     		ldr	r0, .L31
 589 0016 FFF7FEFF 		bl	chMtxUnlock
 590              		.loc 6 344 0
 591 001a 03B0     		add	sp, sp, #12
 592              		@ sp needed
 593 001c 5DF804FB 		ldr	pc, [sp], #4
 594              	.L32:
 595              		.align	2
 596              	.L31:
 597 0020 00000000 		.word	m2
 598              		.cfi_endproc
 599              	.LFE244:
 600              		.size	thread4a, .-thread4a
 601 0024 AFF30080 		.section	.text.thread4b,"ax",%progbits
 601      AFF30080 
 601      AFF30080 
 602              		.align	2
 603              		.p2align 4,,15
 604              		.thumb
 605              		.thumb_func
 606              		.type	thread4b, %function
 607              	thread4b:
 608              	.LFB245:
 609              		.loc 6 346 0
 610              		.cfi_startproc
 611              		@ args = 0, pretend = 0, frame = 8
 612              		@ frame_needed = 0, uses_anonymous_args = 0
 613 0000 00B5     		push	{lr}
 614              		.cfi_def_cfa_offset 4
 615              		.cfi_offset 14, -4
 616 0002 83B0     		sub	sp, sp, #12
ARM GAS  /tmp/ccSoisRf.s 			page 12


 617              		.cfi_def_cfa_offset 16
 618 0004 0190     		str	r0, [sp, #4]
 619              		.loc 6 349 0
 620 0006 40F2DC50 		movw	r0, #1500
 621 000a FFF7FEFF 		bl	chThdSleep
 622              		.loc 6 350 0
 623 000e 0448     		ldr	r0, .L34
 624 0010 FFF7FEFF 		bl	chMtxLock
 625              		.loc 6 351 0
 626 0014 0248     		ldr	r0, .L34
 627 0016 FFF7FEFF 		bl	chMtxUnlock
 628              		.loc 6 352 0
 629 001a 03B0     		add	sp, sp, #12
 630              		@ sp needed
 631 001c 5DF804FB 		ldr	pc, [sp], #4
 632              	.L35:
 633              		.align	2
 634              	.L34:
 635 0020 00000000 		.word	m1
 636              		.cfi_endproc
 637              	.LFE245:
 638              		.size	thread4b, .-thread4b
 639 0024 AFF30080 		.section	.text.mtx4_execute,"ax",%progbits
 639      AFF30080 
 639      AFF30080 
 640              		.align	2
 641              		.p2align 4,,15
 642              		.thumb
 643              		.thumb_func
 644              		.type	mtx4_execute, %function
 645              	mtx4_execute:
 646              	.LFB246:
 647              		.loc 6 354 0
 648              		.cfi_startproc
 649              		@ args = 0, pretend = 0, frame = 16
 650              		@ frame_needed = 0, uses_anonymous_args = 0
 651 0000 00B5     		push	{lr}
 652              		.cfi_def_cfa_offset 4
 653              		.cfi_offset 14, -4
 654 0002 87B0     		sub	sp, sp, #28
 655              		.cfi_def_cfa_offset 32
 656              		.loc 6 357 0
 657 0004 FFF7FEFF 		bl	chThdGetPriorityX
 658 0008 0590     		str	r0, [sp, #20]
 659              		.loc 6 358 0
 660 000a 059B     		ldr	r3, [sp, #20]
 661 000c 0133     		adds	r3, r3, #1
 662 000e 0493     		str	r3, [sp, #16]
 663              		.loc 6 359 0
 664 0010 059B     		ldr	r3, [sp, #20]
 665 0012 0233     		adds	r3, r3, #2
 666 0014 0393     		str	r3, [sp, #12]
 667              		.loc 6 360 0
 668 0016 A44B     		ldr	r3, .L52
 669 0018 1B68     		ldr	r3, [r3]
 670 001a A44A     		ldr	r2, .L52+4
 671 001c 0092     		str	r2, [sp]
ARM GAS  /tmp/ccSoisRf.s 			page 13


 672 001e 1846     		mov	r0, r3
 673 0020 4FF4B471 		mov	r1, #360
 674 0024 049A     		ldr	r2, [sp, #16]
 675 0026 A24B     		ldr	r3, .L52+8
 676 0028 FFF7FEFF 		bl	chThdCreateStatic
 677 002c 0246     		mov	r2, r0
 678 002e A14B     		ldr	r3, .L52+12
 679 0030 1A60     		str	r2, [r3]
 680              		.loc 6 361 0
 681 0032 9D4B     		ldr	r3, .L52
 682 0034 5B68     		ldr	r3, [r3, #4]
 683 0036 A04A     		ldr	r2, .L52+16
 684 0038 0092     		str	r2, [sp]
 685 003a 1846     		mov	r0, r3
 686 003c 4FF4B471 		mov	r1, #360
 687 0040 039A     		ldr	r2, [sp, #12]
 688 0042 9E4B     		ldr	r3, .L52+20
 689 0044 FFF7FEFF 		bl	chThdCreateStatic
 690 0048 0246     		mov	r2, r0
 691 004a 9A4B     		ldr	r3, .L52+12
 692 004c 5A60     		str	r2, [r3, #4]
 693              		.loc 6 362 0
 694 004e 9C48     		ldr	r0, .L52+24
 695 0050 FFF7FEFF 		bl	chMtxLock
 696              		.loc 6 363 0
 697 0054 FFF7FEFF 		bl	chThdGetPriorityX
 698 0058 0246     		mov	r2, r0
 699 005a 059B     		ldr	r3, [sp, #20]
 700 005c 9A42     		cmp	r2, r3
 701 005e 14BF     		ite	ne
 702 0060 0023     		movne	r3, #0
 703 0062 0123     		moveq	r3, #1
 704 0064 DBB2     		uxtb	r3, r3
 705 0066 0120     		movs	r0, #1
 706 0068 1946     		mov	r1, r3
 707 006a FFF7FEFF 		bl	_test_assert
 708 006e 0346     		mov	r3, r0
 709 0070 002B     		cmp	r3, #0
 710 0072 00D0     		beq	.L37
 711              		.loc 6 363 0 is_stmt 0 discriminator 1
 712 0074 41E1     		b	.L36
 713              	.L37:
 714              		.loc 6 364 0 is_stmt 1
 715 0076 4FF47A70 		mov	r0, #1000
 716 007a FFF7FEFF 		bl	chThdSleep
 717              		.loc 6 365 0
 718 007e FFF7FEFF 		bl	chThdGetPriorityX
 719 0082 0246     		mov	r2, r0
 720 0084 049B     		ldr	r3, [sp, #16]
 721 0086 9A42     		cmp	r2, r3
 722 0088 14BF     		ite	ne
 723 008a 0023     		movne	r3, #0
 724 008c 0123     		moveq	r3, #1
 725 008e DBB2     		uxtb	r3, r3
 726 0090 0220     		movs	r0, #2
 727 0092 1946     		mov	r1, r3
 728 0094 FFF7FEFF 		bl	_test_assert
ARM GAS  /tmp/ccSoisRf.s 			page 14


 729 0098 0346     		mov	r3, r0
 730 009a 002B     		cmp	r3, #0
 731 009c 00D0     		beq	.L39
 732              		.loc 6 365 0 is_stmt 0 discriminator 1
 733 009e 2CE1     		b	.L36
 734              	.L39:
 735              		.loc 6 366 0 is_stmt 1
 736 00a0 8848     		ldr	r0, .L52+28
 737 00a2 FFF7FEFF 		bl	chMtxLock
 738              		.loc 6 367 0
 739 00a6 FFF7FEFF 		bl	chThdGetPriorityX
 740 00aa 0246     		mov	r2, r0
 741 00ac 049B     		ldr	r3, [sp, #16]
 742 00ae 9A42     		cmp	r2, r3
 743 00b0 14BF     		ite	ne
 744 00b2 0023     		movne	r3, #0
 745 00b4 0123     		moveq	r3, #1
 746 00b6 DBB2     		uxtb	r3, r3
 747 00b8 0320     		movs	r0, #3
 748 00ba 1946     		mov	r1, r3
 749 00bc FFF7FEFF 		bl	_test_assert
 750 00c0 0346     		mov	r3, r0
 751 00c2 002B     		cmp	r3, #0
 752 00c4 00D0     		beq	.L40
 753              		.loc 6 367 0 is_stmt 0 discriminator 1
 754 00c6 18E1     		b	.L36
 755              	.L40:
 756              		.loc 6 368 0 is_stmt 1
 757 00c8 4FF47A70 		mov	r0, #1000
 758 00cc FFF7FEFF 		bl	chThdSleep
 759              		.loc 6 369 0
 760 00d0 FFF7FEFF 		bl	chThdGetPriorityX
 761 00d4 0246     		mov	r2, r0
 762 00d6 039B     		ldr	r3, [sp, #12]
 763 00d8 9A42     		cmp	r2, r3
 764 00da 14BF     		ite	ne
 765 00dc 0023     		movne	r3, #0
 766 00de 0123     		moveq	r3, #1
 767 00e0 DBB2     		uxtb	r3, r3
 768 00e2 0420     		movs	r0, #4
 769 00e4 1946     		mov	r1, r3
 770 00e6 FFF7FEFF 		bl	_test_assert
 771 00ea 0346     		mov	r3, r0
 772 00ec 002B     		cmp	r3, #0
 773 00ee 00D0     		beq	.L41
 774              		.loc 6 369 0 is_stmt 0 discriminator 1
 775 00f0 03E1     		b	.L36
 776              	.L41:
 777              		.loc 6 370 0 is_stmt 1
 778 00f2 7448     		ldr	r0, .L52+28
 779 00f4 FFF7FEFF 		bl	chMtxUnlock
 780              		.loc 6 371 0
 781 00f8 FFF7FEFF 		bl	chThdGetPriorityX
 782 00fc 0246     		mov	r2, r0
 783 00fe 049B     		ldr	r3, [sp, #16]
 784 0100 9A42     		cmp	r2, r3
 785 0102 14BF     		ite	ne
ARM GAS  /tmp/ccSoisRf.s 			page 15


 786 0104 0023     		movne	r3, #0
 787 0106 0123     		moveq	r3, #1
 788 0108 DBB2     		uxtb	r3, r3
 789 010a 0520     		movs	r0, #5
 790 010c 1946     		mov	r1, r3
 791 010e FFF7FEFF 		bl	_test_assert
 792 0112 0346     		mov	r3, r0
 793 0114 002B     		cmp	r3, #0
 794 0116 00D0     		beq	.L42
 795              		.loc 6 371 0 is_stmt 0 discriminator 1
 796 0118 EFE0     		b	.L36
 797              	.L42:
 798              		.loc 6 372 0 is_stmt 1
 799 011a 4FF47A70 		mov	r0, #1000
 800 011e FFF7FEFF 		bl	chThdSleep
 801              		.loc 6 373 0
 802 0122 FFF7FEFF 		bl	chThdGetPriorityX
 803 0126 0246     		mov	r2, r0
 804 0128 049B     		ldr	r3, [sp, #16]
 805 012a 9A42     		cmp	r2, r3
 806 012c 14BF     		ite	ne
 807 012e 0023     		movne	r3, #0
 808 0130 0123     		moveq	r3, #1
 809 0132 DBB2     		uxtb	r3, r3
 810 0134 0620     		movs	r0, #6
 811 0136 1946     		mov	r1, r3
 812 0138 FFF7FEFF 		bl	_test_assert
 813 013c 0346     		mov	r3, r0
 814 013e 002B     		cmp	r3, #0
 815 0140 00D0     		beq	.L43
 816              		.loc 6 373 0 is_stmt 0 discriminator 1
 817 0142 DAE0     		b	.L36
 818              	.L43:
 819              		.loc 6 374 0 is_stmt 1
 820 0144 FFF7FEFF 		bl	chMtxUnlockAll
 821              		.loc 6 375 0
 822 0148 FFF7FEFF 		bl	chThdGetPriorityX
 823 014c 0246     		mov	r2, r0
 824 014e 059B     		ldr	r3, [sp, #20]
 825 0150 9A42     		cmp	r2, r3
 826 0152 14BF     		ite	ne
 827 0154 0023     		movne	r3, #0
 828 0156 0123     		moveq	r3, #1
 829 0158 DBB2     		uxtb	r3, r3
 830 015a 0720     		movs	r0, #7
 831 015c 1946     		mov	r1, r3
 832 015e FFF7FEFF 		bl	_test_assert
 833 0162 0346     		mov	r3, r0
 834 0164 002B     		cmp	r3, #0
 835 0166 00D0     		beq	.L44
 836              		.loc 6 375 0 is_stmt 0 discriminator 1
 837 0168 C7E0     		b	.L36
 838              	.L44:
 839              		.loc 6 376 0 is_stmt 1
 840 016a FFF7FEFF 		bl	test_wait_threads
 841              		.loc 6 379 0
 842 016e 4E4B     		ldr	r3, .L52
ARM GAS  /tmp/ccSoisRf.s 			page 16


 843 0170 1B68     		ldr	r3, [r3]
 844 0172 554A     		ldr	r2, .L52+32
 845 0174 0092     		str	r2, [sp]
 846 0176 1846     		mov	r0, r3
 847 0178 4FF4B471 		mov	r1, #360
 848 017c 049A     		ldr	r2, [sp, #16]
 849 017e 4C4B     		ldr	r3, .L52+8
 850 0180 FFF7FEFF 		bl	chThdCreateStatic
 851 0184 0246     		mov	r2, r0
 852 0186 4B4B     		ldr	r3, .L52+12
 853 0188 1A60     		str	r2, [r3]
 854              		.loc 6 380 0
 855 018a 474B     		ldr	r3, .L52
 856 018c 5B68     		ldr	r3, [r3, #4]
 857 018e 4F4A     		ldr	r2, .L52+36
 858 0190 0092     		str	r2, [sp]
 859 0192 1846     		mov	r0, r3
 860 0194 4FF4B471 		mov	r1, #360
 861 0198 039A     		ldr	r2, [sp, #12]
 862 019a 484B     		ldr	r3, .L52+20
 863 019c FFF7FEFF 		bl	chThdCreateStatic
 864 01a0 0246     		mov	r2, r0
 865 01a2 444B     		ldr	r3, .L52+12
 866 01a4 5A60     		str	r2, [r3, #4]
 867              		.loc 6 381 0
 868 01a6 4648     		ldr	r0, .L52+24
 869 01a8 FFF7FEFF 		bl	chMtxLock
 870              		.loc 6 382 0
 871 01ac FFF7FEFF 		bl	chThdGetPriorityX
 872 01b0 0246     		mov	r2, r0
 873 01b2 059B     		ldr	r3, [sp, #20]
 874 01b4 9A42     		cmp	r2, r3
 875 01b6 14BF     		ite	ne
 876 01b8 0023     		movne	r3, #0
 877 01ba 0123     		moveq	r3, #1
 878 01bc DBB2     		uxtb	r3, r3
 879 01be 0820     		movs	r0, #8
 880 01c0 1946     		mov	r1, r3
 881 01c2 FFF7FEFF 		bl	_test_assert
 882 01c6 0346     		mov	r3, r0
 883 01c8 002B     		cmp	r3, #0
 884 01ca 00D0     		beq	.L45
 885              		.loc 6 382 0 is_stmt 0 discriminator 1
 886 01cc 95E0     		b	.L36
 887              	.L45:
 888              		.loc 6 383 0 is_stmt 1
 889 01ce 4FF47A70 		mov	r0, #1000
 890 01d2 FFF7FEFF 		bl	chThdSleep
 891              		.loc 6 384 0
 892 01d6 FFF7FEFF 		bl	chThdGetPriorityX
 893 01da 0246     		mov	r2, r0
 894 01dc 049B     		ldr	r3, [sp, #16]
 895 01de 9A42     		cmp	r2, r3
 896 01e0 14BF     		ite	ne
 897 01e2 0023     		movne	r3, #0
 898 01e4 0123     		moveq	r3, #1
 899 01e6 DBB2     		uxtb	r3, r3
ARM GAS  /tmp/ccSoisRf.s 			page 17


 900 01e8 0920     		movs	r0, #9
 901 01ea 1946     		mov	r1, r3
 902 01ec FFF7FEFF 		bl	_test_assert
 903 01f0 0346     		mov	r3, r0
 904 01f2 002B     		cmp	r3, #0
 905 01f4 00D0     		beq	.L46
 906              		.loc 6 384 0 is_stmt 0 discriminator 1
 907 01f6 80E0     		b	.L36
 908              	.L46:
 909              		.loc 6 385 0 is_stmt 1
 910 01f8 3248     		ldr	r0, .L52+28
 911 01fa FFF7FEFF 		bl	chMtxLock
 912              		.loc 6 386 0
 913 01fe FFF7FEFF 		bl	chThdGetPriorityX
 914 0202 0246     		mov	r2, r0
 915 0204 049B     		ldr	r3, [sp, #16]
 916 0206 9A42     		cmp	r2, r3
 917 0208 14BF     		ite	ne
 918 020a 0023     		movne	r3, #0
 919 020c 0123     		moveq	r3, #1
 920 020e DBB2     		uxtb	r3, r3
 921 0210 0A20     		movs	r0, #10
 922 0212 1946     		mov	r1, r3
 923 0214 FFF7FEFF 		bl	_test_assert
 924 0218 0346     		mov	r3, r0
 925 021a 002B     		cmp	r3, #0
 926 021c 00D0     		beq	.L47
 927              		.loc 6 386 0 is_stmt 0 discriminator 1
 928 021e 6CE0     		b	.L36
 929              	.L47:
 930              		.loc 6 387 0 is_stmt 1
 931 0220 4FF47A70 		mov	r0, #1000
 932 0224 FFF7FEFF 		bl	chThdSleep
 933              		.loc 6 388 0
 934 0228 FFF7FEFF 		bl	chThdGetPriorityX
 935 022c 0246     		mov	r2, r0
 936 022e 039B     		ldr	r3, [sp, #12]
 937 0230 9A42     		cmp	r2, r3
 938 0232 14BF     		ite	ne
 939 0234 0023     		movne	r3, #0
 940 0236 0123     		moveq	r3, #1
 941 0238 DBB2     		uxtb	r3, r3
 942 023a 0B20     		movs	r0, #11
 943 023c 1946     		mov	r1, r3
 944 023e FFF7FEFF 		bl	_test_assert
 945 0242 0346     		mov	r3, r0
 946 0244 002B     		cmp	r3, #0
 947 0246 00D0     		beq	.L48
 948              		.loc 6 388 0 is_stmt 0 discriminator 1
 949 0248 57E0     		b	.L36
 950              	.L48:
 951              		.loc 6 389 0 is_stmt 1
 952 024a FFF7FEFF 		bl	chSysLock
 953              		.loc 6 390 0
 954 024e 1D48     		ldr	r0, .L52+28
 955 0250 FFF7FEFF 		bl	chMtxUnlockS
 956              		.loc 6 391 0
ARM GAS  /tmp/ccSoisRf.s 			page 18


 957 0254 FFF7FEFF 		bl	chSchRescheduleS
 958              		.loc 6 392 0
 959 0258 FFF7FEFF 		bl	chSysUnlock
 960              		.loc 6 393 0
 961 025c FFF7FEFF 		bl	chThdGetPriorityX
 962 0260 0246     		mov	r2, r0
 963 0262 049B     		ldr	r3, [sp, #16]
 964 0264 9A42     		cmp	r2, r3
 965 0266 14BF     		ite	ne
 966 0268 0023     		movne	r3, #0
 967 026a 0123     		moveq	r3, #1
 968 026c DBB2     		uxtb	r3, r3
 969 026e 0C20     		movs	r0, #12
 970 0270 1946     		mov	r1, r3
 971 0272 FFF7FEFF 		bl	_test_assert
 972 0276 0346     		mov	r3, r0
 973 0278 002B     		cmp	r3, #0
 974 027a 00D0     		beq	.L49
 975              		.loc 6 393 0 is_stmt 0 discriminator 1
 976 027c 3DE0     		b	.L36
 977              	.L49:
 978              		.loc 6 394 0 is_stmt 1
 979 027e 4FF47A70 		mov	r0, #1000
 980 0282 FFF7FEFF 		bl	chThdSleep
 981              		.loc 6 395 0
 982 0286 FFF7FEFF 		bl	chThdGetPriorityX
 983 028a 0246     		mov	r2, r0
 984 028c 049B     		ldr	r3, [sp, #16]
 985 028e 9A42     		cmp	r2, r3
 986 0290 14BF     		ite	ne
 987 0292 0023     		movne	r3, #0
 988 0294 0123     		moveq	r3, #1
 989 0296 DBB2     		uxtb	r3, r3
 990 0298 0D20     		movs	r0, #13
 991 029a 1946     		mov	r1, r3
 992 029c FFF7FEFF 		bl	_test_assert
 993 02a0 0346     		mov	r3, r0
 994 02a2 002B     		cmp	r3, #0
 995 02a4 14D0     		beq	.L50
 996              		.loc 6 395 0 is_stmt 0 discriminator 1
 997 02a6 28E0     		b	.L36
 998              	.L53:
 999              		.align	2
 1000              	.L52:
 1001 02a8 00000000 		.word	wa
 1002 02ac 0C000000 		.word	.LC3
 1003 02b0 00000000 		.word	thread4a
 1004 02b4 00000000 		.word	threads
 1005 02b8 10000000 		.word	.LC4
 1006 02bc 00000000 		.word	thread4b
 1007 02c0 00000000 		.word	m2
 1008 02c4 00000000 		.word	m1
 1009 02c8 04000000 		.word	.LC1
 1010 02cc 08000000 		.word	.LC2
 1011              	.L50:
 1012              		.loc 6 396 0 is_stmt 1
 1013 02d0 FFF7FEFF 		bl	chMtxUnlockAll
ARM GAS  /tmp/ccSoisRf.s 			page 19


 1014              		.loc 6 397 0
 1015 02d4 FFF7FEFF 		bl	chThdGetPriorityX
 1016 02d8 0246     		mov	r2, r0
 1017 02da 059B     		ldr	r3, [sp, #20]
 1018 02dc 9A42     		cmp	r2, r3
 1019 02de 14BF     		ite	ne
 1020 02e0 0023     		movne	r3, #0
 1021 02e2 0123     		moveq	r3, #1
 1022 02e4 DBB2     		uxtb	r3, r3
 1023 02e6 0E20     		movs	r0, #14
 1024 02e8 1946     		mov	r1, r3
 1025 02ea FFF7FEFF 		bl	_test_assert
 1026 02ee 0346     		mov	r3, r0
 1027 02f0 002B     		cmp	r3, #0
 1028 02f2 00D0     		beq	.L51
 1029              		.loc 6 397 0 is_stmt 0 discriminator 1
 1030 02f4 01E0     		b	.L36
 1031              	.L51:
 1032              		.loc 6 398 0 is_stmt 1
 1033 02f6 FFF7FEFF 		bl	test_wait_threads
 1034              	.L36:
 1035              		.loc 6 399 0
 1036 02fa 07B0     		add	sp, sp, #28
 1037              		@ sp needed
 1038 02fc 5DF804FB 		ldr	pc, [sp], #4
 1039              		.cfi_endproc
 1040              	.LFE246:
 1041              		.size	mtx4_execute, .-mtx4_execute
 1042              		.global	testmtx4
 1043              		.section	.rodata
 1044 003d 000000   		.align	2
 1045              	.LC7:
 1046 0040 4D757465 		.ascii	"Mutexes, priority return\000"
 1046      7865732C 
 1046      20707269 
 1046      6F726974 
 1046      79207265 
 1047              		.section	.rodata.testmtx4,"a",%progbits
 1048              		.align	2
 1049              		.type	testmtx4, %object
 1050              		.size	testmtx4, 16
 1051              	testmtx4:
 1052 0000 40000000 		.word	.LC7
 1053 0004 00000000 		.word	mtx4_setup
 1054 0008 00000000 		.word	0
 1055 000c 00000000 		.word	mtx4_execute
 1056              		.section	.text.mtx5_setup,"ax",%progbits
 1057              		.align	2
 1058              		.p2align 4,,15
 1059              		.thumb
 1060              		.thumb_func
 1061              		.type	mtx5_setup, %function
 1062              	mtx5_setup:
 1063              	.LFB247:
 1064              		.loc 6 418 0
 1065              		.cfi_startproc
 1066              		@ args = 0, pretend = 0, frame = 0
ARM GAS  /tmp/ccSoisRf.s 			page 20


 1067              		@ frame_needed = 0, uses_anonymous_args = 0
 1068 0000 08B5     		push	{r3, lr}
 1069              		.cfi_def_cfa_offset 8
 1070              		.cfi_offset 3, -8
 1071              		.cfi_offset 14, -4
 1072              		.loc 6 420 0
 1073 0002 0248     		ldr	r0, .L55
 1074 0004 FFF7FEFF 		bl	chMtxObjectInit
 1075              		.loc 6 421 0
 1076 0008 08BD     		pop	{r3, pc}
 1077              	.L56:
 1078 000a 00BF     		.align	2
 1079              	.L55:
 1080 000c 00000000 		.word	m1
 1081              		.cfi_endproc
 1082              	.LFE247:
 1083              		.size	mtx5_setup, .-mtx5_setup
 1084              		.section	.text.mtx5_execute,"ax",%progbits
 1085              		.align	2
 1086              		.p2align 4,,15
 1087              		.thumb
 1088              		.thumb_func
 1089              		.type	mtx5_execute, %function
 1090              	mtx5_execute:
 1091              	.LFB248:
 1092              		.loc 6 423 0
 1093              		.cfi_startproc
 1094              		@ args = 0, pretend = 0, frame = 8
 1095              		@ frame_needed = 0, uses_anonymous_args = 0
 1096 0000 00B5     		push	{lr}
 1097              		.cfi_def_cfa_offset 4
 1098              		.cfi_offset 14, -4
 1099 0002 83B0     		sub	sp, sp, #12
 1100              		.cfi_def_cfa_offset 16
 1101              		.loc 6 427 0
 1102 0004 FFF7FEFF 		bl	chThdGetPriorityX
 1103 0008 0190     		str	r0, [sp, #4]
 1104              		.loc 6 429 0
 1105 000a 4048     		ldr	r0, .L65
 1106 000c FFF7FEFF 		bl	chMtxTryLock
 1107 0010 0346     		mov	r3, r0
 1108 0012 8DF80330 		strb	r3, [sp, #3]
 1109              		.loc 6 430 0
 1110 0016 9DF80330 		ldrb	r3, [sp, #3]	@ zero_extendqisi2
 1111 001a 0120     		movs	r0, #1
 1112 001c 1946     		mov	r1, r3
 1113 001e FFF7FEFF 		bl	_test_assert
 1114 0022 0346     		mov	r3, r0
 1115 0024 002B     		cmp	r3, #0
 1116 0026 00D0     		beq	.L58
 1117              		.loc 6 430 0 is_stmt 0 discriminator 1
 1118 0028 6DE0     		b	.L57
 1119              	.L58:
 1120              		.loc 6 432 0 is_stmt 1
 1121 002a 3848     		ldr	r0, .L65
 1122 002c FFF7FEFF 		bl	chMtxTryLock
 1123 0030 0346     		mov	r3, r0
ARM GAS  /tmp/ccSoisRf.s 			page 21


 1124 0032 8DF80330 		strb	r3, [sp, #3]
 1125              		.loc 6 433 0
 1126 0036 9DF80330 		ldrb	r3, [sp, #3]	@ zero_extendqisi2
 1127 003a 002B     		cmp	r3, #0
 1128 003c 0CBF     		ite	eq
 1129 003e 0023     		moveq	r3, #0
 1130 0040 0123     		movne	r3, #1
 1131 0042 DBB2     		uxtb	r3, r3
 1132 0044 83F00103 		eor	r3, r3, #1
 1133 0048 DBB2     		uxtb	r3, r3
 1134 004a 03F00103 		and	r3, r3, #1
 1135 004e DBB2     		uxtb	r3, r3
 1136 0050 0220     		movs	r0, #2
 1137 0052 1946     		mov	r1, r3
 1138 0054 FFF7FEFF 		bl	_test_assert
 1139 0058 0346     		mov	r3, r0
 1140 005a 002B     		cmp	r3, #0
 1141 005c 00D0     		beq	.L60
 1142              		.loc 6 433 0 is_stmt 0 discriminator 1
 1143 005e 52E0     		b	.L57
 1144              	.L60:
 1145              		.loc 6 435 0 is_stmt 1
 1146 0060 FFF7FEFF 		bl	chSysLock
 1147              		.loc 6 436 0
 1148 0064 2948     		ldr	r0, .L65
 1149 0066 FFF7FEFF 		bl	chMtxUnlockS
 1150              		.loc 6 437 0
 1151 006a FFF7FEFF 		bl	chSysUnlock
 1152              		.loc 6 439 0
 1153 006e 2748     		ldr	r0, .L65
 1154 0070 FFF7FEFF 		bl	queue_isempty
 1155 0074 0346     		mov	r3, r0
 1156 0076 0320     		movs	r0, #3
 1157 0078 1946     		mov	r1, r3
 1158 007a FFF7FEFF 		bl	_test_assert
 1159 007e 0346     		mov	r3, r0
 1160 0080 002B     		cmp	r3, #0
 1161 0082 00D0     		beq	.L61
 1162              		.loc 6 439 0 is_stmt 0 discriminator 1
 1163 0084 3FE0     		b	.L57
 1164              	.L61:
 1165              		.loc 6 440 0 is_stmt 1
 1166 0086 214B     		ldr	r3, .L65
 1167 0088 9B68     		ldr	r3, [r3, #8]
 1168 008a 002B     		cmp	r3, #0
 1169 008c 14BF     		ite	ne
 1170 008e 0023     		movne	r3, #0
 1171 0090 0123     		moveq	r3, #1
 1172 0092 DBB2     		uxtb	r3, r3
 1173 0094 0420     		movs	r0, #4
 1174 0096 1946     		mov	r1, r3
 1175 0098 FFF7FEFF 		bl	_test_assert
 1176 009c 0346     		mov	r3, r0
 1177 009e 002B     		cmp	r3, #0
 1178 00a0 00D0     		beq	.L62
 1179              		.loc 6 440 0 is_stmt 0 discriminator 1
 1180 00a2 30E0     		b	.L57
ARM GAS  /tmp/ccSoisRf.s 			page 22


 1181              	.L62:
 1182              		.loc 6 441 0 is_stmt 1
 1183 00a4 FFF7FEFF 		bl	chThdGetPriorityX
 1184 00a8 0246     		mov	r2, r0
 1185 00aa 019B     		ldr	r3, [sp, #4]
 1186 00ac 9A42     		cmp	r2, r3
 1187 00ae 14BF     		ite	ne
 1188 00b0 0023     		movne	r3, #0
 1189 00b2 0123     		moveq	r3, #1
 1190 00b4 DBB2     		uxtb	r3, r3
 1191 00b6 0520     		movs	r0, #5
 1192 00b8 1946     		mov	r1, r3
 1193 00ba FFF7FEFF 		bl	_test_assert
 1194 00be 0346     		mov	r3, r0
 1195 00c0 002B     		cmp	r3, #0
 1196 00c2 00D0     		beq	.L63
 1197              		.loc 6 441 0 is_stmt 0 discriminator 1
 1198 00c4 1FE0     		b	.L57
 1199              	.L63:
 1200              		.loc 6 444 0 is_stmt 1
 1201 00c6 1148     		ldr	r0, .L65
 1202 00c8 FFF7FEFF 		bl	chMtxLock
 1203              		.loc 6 445 0
 1204 00cc FFF7FEFF 		bl	chMtxUnlockAll
 1205              		.loc 6 446 0
 1206 00d0 0E48     		ldr	r0, .L65
 1207 00d2 FFF7FEFF 		bl	queue_isempty
 1208 00d6 0346     		mov	r3, r0
 1209 00d8 0620     		movs	r0, #6
 1210 00da 1946     		mov	r1, r3
 1211 00dc FFF7FEFF 		bl	_test_assert
 1212 00e0 0346     		mov	r3, r0
 1213 00e2 002B     		cmp	r3, #0
 1214 00e4 00D0     		beq	.L64
 1215              		.loc 6 446 0 is_stmt 0 discriminator 1
 1216 00e6 0EE0     		b	.L57
 1217              	.L64:
 1218              		.loc 6 447 0 is_stmt 1
 1219 00e8 084B     		ldr	r3, .L65
 1220 00ea 9B68     		ldr	r3, [r3, #8]
 1221 00ec 002B     		cmp	r3, #0
 1222 00ee 14BF     		ite	ne
 1223 00f0 0023     		movne	r3, #0
 1224 00f2 0123     		moveq	r3, #1
 1225 00f4 DBB2     		uxtb	r3, r3
 1226 00f6 0720     		movs	r0, #7
 1227 00f8 1946     		mov	r1, r3
 1228 00fa FFF7FEFF 		bl	_test_assert
 1229 00fe 0346     		mov	r3, r0
 1230 0100 002B     		cmp	r3, #0
 1231 0102 00D0     		beq	.L57
 1232              		.loc 6 447 0 is_stmt 0 discriminator 1
 1233 0104 00BF     		nop
 1234              	.L57:
 1235              		.loc 6 448 0 is_stmt 1
 1236 0106 03B0     		add	sp, sp, #12
 1237              		@ sp needed
ARM GAS  /tmp/ccSoisRf.s 			page 23


 1238 0108 5DF804FB 		ldr	pc, [sp], #4
 1239              	.L66:
 1240              		.align	2
 1241              	.L65:
 1242 010c 00000000 		.word	m1
 1243              		.cfi_endproc
 1244              	.LFE248:
 1245              		.size	mtx5_execute, .-mtx5_execute
 1246              		.global	testmtx5
 1247              		.section	.rodata
 1248 0059 000000   		.align	2
 1249              	.LC8:
 1250 005c 4D757465 		.ascii	"Mutexes, status\000"
 1250      7865732C 
 1250      20737461 
 1250      74757300 
 1251              		.section	.rodata.testmtx5,"a",%progbits
 1252              		.align	2
 1253              		.type	testmtx5, %object
 1254              		.size	testmtx5, 16
 1255              	testmtx5:
 1256 0000 5C000000 		.word	.LC8
 1257 0004 00000000 		.word	mtx5_setup
 1258 0008 00000000 		.word	0
 1259 000c 00000000 		.word	mtx5_execute
 1260              		.section	.text.mtx6_setup,"ax",%progbits
 1261              		.align	2
 1262              		.p2align 4,,15
 1263              		.thumb
 1264              		.thumb_func
 1265              		.type	mtx6_setup, %function
 1266              	mtx6_setup:
 1267              	.LFB249:
 1268              		.loc 6 469 0
 1269              		.cfi_startproc
 1270              		@ args = 0, pretend = 0, frame = 0
 1271              		@ frame_needed = 0, uses_anonymous_args = 0
 1272 0000 08B5     		push	{r3, lr}
 1273              		.cfi_def_cfa_offset 8
 1274              		.cfi_offset 3, -8
 1275              		.cfi_offset 14, -4
 1276              		.loc 6 471 0
 1277 0002 0348     		ldr	r0, .L68
 1278 0004 FFF7FEFF 		bl	chCondObjectInit
 1279              		.loc 6 472 0
 1280 0008 0248     		ldr	r0, .L68+4
 1281 000a FFF7FEFF 		bl	chMtxObjectInit
 1282              		.loc 6 473 0
 1283 000e 08BD     		pop	{r3, pc}
 1284              	.L69:
 1285              		.align	2
 1286              	.L68:
 1287 0010 00000000 		.word	c1
 1288 0014 00000000 		.word	m1
 1289              		.cfi_endproc
 1290              	.LFE249:
 1291              		.size	mtx6_setup, .-mtx6_setup
ARM GAS  /tmp/ccSoisRf.s 			page 24


 1292 0018 AFF30080 		.section	.text.thread10,"ax",%progbits
 1292      AFF30080 
 1293              		.align	2
 1294              		.p2align 4,,15
 1295              		.thumb
 1296              		.thumb_func
 1297              		.type	thread10, %function
 1298              	thread10:
 1299              	.LFB250:
 1300              		.loc 6 475 0
 1301              		.cfi_startproc
 1302              		@ args = 0, pretend = 0, frame = 8
 1303              		@ frame_needed = 0, uses_anonymous_args = 0
 1304 0000 00B5     		push	{lr}
 1305              		.cfi_def_cfa_offset 4
 1306              		.cfi_offset 14, -4
 1307 0002 83B0     		sub	sp, sp, #12
 1308              		.cfi_def_cfa_offset 16
 1309 0004 0190     		str	r0, [sp, #4]
 1310              		.loc 6 477 0
 1311 0006 0848     		ldr	r0, .L71
 1312 0008 FFF7FEFF 		bl	chMtxLock
 1313              		.loc 6 478 0
 1314 000c 0748     		ldr	r0, .L71+4
 1315 000e FFF7FEFF 		bl	chCondWait
 1316              		.loc 6 479 0
 1317 0012 019B     		ldr	r3, [sp, #4]
 1318 0014 1B78     		ldrb	r3, [r3]	@ zero_extendqisi2
 1319 0016 1846     		mov	r0, r3
 1320 0018 FFF7FEFF 		bl	test_emit_token
 1321              		.loc 6 480 0
 1322 001c 0248     		ldr	r0, .L71
 1323 001e FFF7FEFF 		bl	chMtxUnlock
 1324              		.loc 6 481 0
 1325 0022 03B0     		add	sp, sp, #12
 1326              		@ sp needed
 1327 0024 5DF804FB 		ldr	pc, [sp], #4
 1328              	.L72:
 1329              		.align	2
 1330              	.L71:
 1331 0028 00000000 		.word	m1
 1332 002c 00000000 		.word	c1
 1333              		.cfi_endproc
 1334              	.LFE250:
 1335              		.size	thread10, .-thread10
 1336              		.section	.text.mtx6_execute,"ax",%progbits
 1337              		.align	2
 1338              		.p2align 4,,15
 1339              		.thumb
 1340              		.thumb_func
 1341              		.type	mtx6_execute, %function
 1342              	mtx6_execute:
 1343              	.LFB251:
 1344              		.loc 6 483 0
 1345              		.cfi_startproc
 1346              		@ args = 0, pretend = 0, frame = 8
 1347              		@ frame_needed = 0, uses_anonymous_args = 0
ARM GAS  /tmp/ccSoisRf.s 			page 25


 1348 0000 00B5     		push	{lr}
 1349              		.cfi_def_cfa_offset 4
 1350              		.cfi_offset 14, -4
 1351 0002 85B0     		sub	sp, sp, #20
 1352              		.cfi_def_cfa_offset 24
 1353              		.loc 6 485 0
 1354 0004 FFF7FEFF 		bl	chThdGetPriorityX
 1355 0008 0390     		str	r0, [sp, #12]
 1356              		.loc 6 486 0
 1357 000a 394B     		ldr	r3, .L75
 1358 000c 1A68     		ldr	r2, [r3]
 1359 000e 039B     		ldr	r3, [sp, #12]
 1360 0010 0133     		adds	r3, r3, #1
 1361 0012 3849     		ldr	r1, .L75+4
 1362 0014 0091     		str	r1, [sp]
 1363 0016 1046     		mov	r0, r2
 1364 0018 4FF4B471 		mov	r1, #360
 1365 001c 1A46     		mov	r2, r3
 1366 001e 364B     		ldr	r3, .L75+8
 1367 0020 FFF7FEFF 		bl	chThdCreateStatic
 1368 0024 0246     		mov	r2, r0
 1369 0026 354B     		ldr	r3, .L75+12
 1370 0028 1A60     		str	r2, [r3]
 1371              		.loc 6 487 0
 1372 002a 314B     		ldr	r3, .L75
 1373 002c 5A68     		ldr	r2, [r3, #4]
 1374 002e 039B     		ldr	r3, [sp, #12]
 1375 0030 0233     		adds	r3, r3, #2
 1376 0032 3349     		ldr	r1, .L75+16
 1377 0034 0091     		str	r1, [sp]
 1378 0036 1046     		mov	r0, r2
 1379 0038 4FF4B471 		mov	r1, #360
 1380 003c 1A46     		mov	r2, r3
 1381 003e 2E4B     		ldr	r3, .L75+8
 1382 0040 FFF7FEFF 		bl	chThdCreateStatic
 1383 0044 0246     		mov	r2, r0
 1384 0046 2D4B     		ldr	r3, .L75+12
 1385 0048 5A60     		str	r2, [r3, #4]
 1386              		.loc 6 488 0
 1387 004a 294B     		ldr	r3, .L75
 1388 004c 9A68     		ldr	r2, [r3, #8]
 1389 004e 039B     		ldr	r3, [sp, #12]
 1390 0050 0333     		adds	r3, r3, #3
 1391 0052 2C49     		ldr	r1, .L75+20
 1392 0054 0091     		str	r1, [sp]
 1393 0056 1046     		mov	r0, r2
 1394 0058 4FF4B471 		mov	r1, #360
 1395 005c 1A46     		mov	r2, r3
 1396 005e 264B     		ldr	r3, .L75+8
 1397 0060 FFF7FEFF 		bl	chThdCreateStatic
 1398 0064 0246     		mov	r2, r0
 1399 0066 254B     		ldr	r3, .L75+12
 1400 0068 9A60     		str	r2, [r3, #8]
 1401              		.loc 6 489 0
 1402 006a 214B     		ldr	r3, .L75
 1403 006c DA68     		ldr	r2, [r3, #12]
 1404 006e 039B     		ldr	r3, [sp, #12]
ARM GAS  /tmp/ccSoisRf.s 			page 26


 1405 0070 0433     		adds	r3, r3, #4
 1406 0072 2549     		ldr	r1, .L75+24
 1407 0074 0091     		str	r1, [sp]
 1408 0076 1046     		mov	r0, r2
 1409 0078 4FF4B471 		mov	r1, #360
 1410 007c 1A46     		mov	r2, r3
 1411 007e 1E4B     		ldr	r3, .L75+8
 1412 0080 FFF7FEFF 		bl	chThdCreateStatic
 1413 0084 0246     		mov	r2, r0
 1414 0086 1D4B     		ldr	r3, .L75+12
 1415 0088 DA60     		str	r2, [r3, #12]
 1416              		.loc 6 490 0
 1417 008a 194B     		ldr	r3, .L75
 1418 008c 1A69     		ldr	r2, [r3, #16]
 1419 008e 039B     		ldr	r3, [sp, #12]
 1420 0090 0533     		adds	r3, r3, #5
 1421 0092 1E49     		ldr	r1, .L75+28
 1422 0094 0091     		str	r1, [sp]
 1423 0096 1046     		mov	r0, r2
 1424 0098 4FF4B471 		mov	r1, #360
 1425 009c 1A46     		mov	r2, r3
 1426 009e 164B     		ldr	r3, .L75+8
 1427 00a0 FFF7FEFF 		bl	chThdCreateStatic
 1428 00a4 0246     		mov	r2, r0
 1429 00a6 154B     		ldr	r3, .L75+12
 1430 00a8 1A61     		str	r2, [r3, #16]
 1431              		.loc 6 491 0
 1432 00aa FFF7FEFF 		bl	chSysLock
 1433              		.loc 6 492 0
 1434 00ae 1848     		ldr	r0, .L75+32
 1435 00b0 FFF7FEFF 		bl	chCondSignalI
 1436              		.loc 6 493 0
 1437 00b4 1648     		ldr	r0, .L75+32
 1438 00b6 FFF7FEFF 		bl	chCondSignalI
 1439              		.loc 6 494 0
 1440 00ba 1548     		ldr	r0, .L75+32
 1441 00bc FFF7FEFF 		bl	chCondSignalI
 1442              		.loc 6 495 0
 1443 00c0 1348     		ldr	r0, .L75+32
 1444 00c2 FFF7FEFF 		bl	chCondSignalI
 1445              		.loc 6 496 0
 1446 00c6 1248     		ldr	r0, .L75+32
 1447 00c8 FFF7FEFF 		bl	chCondSignalI
 1448              		.loc 6 497 0
 1449 00cc FFF7FEFF 		bl	chSchRescheduleS
 1450              		.loc 6 498 0
 1451 00d0 FFF7FEFF 		bl	chSysUnlock
 1452              		.loc 6 499 0
 1453 00d4 FFF7FEFF 		bl	test_wait_threads
 1454              		.loc 6 500 0
 1455 00d8 0120     		movs	r0, #1
 1456 00da 0E49     		ldr	r1, .L75+36
 1457 00dc FFF7FEFF 		bl	_test_assert_sequence
 1458 00e0 0346     		mov	r3, r0
 1459 00e2 002B     		cmp	r3, #0
 1460 00e4 00D0     		beq	.L73
 1461              		.loc 6 500 0 is_stmt 0 discriminator 1
ARM GAS  /tmp/ccSoisRf.s 			page 27


 1462 00e6 00BF     		nop
 1463              	.L73:
 1464              		.loc 6 501 0 is_stmt 1
 1465 00e8 05B0     		add	sp, sp, #20
 1466              		@ sp needed
 1467 00ea 5DF804FB 		ldr	pc, [sp], #4
 1468              	.L76:
 1469 00ee 00BF     		.align	2
 1470              	.L75:
 1471 00f0 00000000 		.word	wa
 1472 00f4 00000000 		.word	.LC0
 1473 00f8 00000000 		.word	thread10
 1474 00fc 00000000 		.word	threads
 1475 0100 04000000 		.word	.LC1
 1476 0104 08000000 		.word	.LC2
 1477 0108 0C000000 		.word	.LC3
 1478 010c 10000000 		.word	.LC4
 1479 0110 00000000 		.word	c1
 1480 0114 14000000 		.word	.LC5
 1481              		.cfi_endproc
 1482              	.LFE251:
 1483              		.size	mtx6_execute, .-mtx6_execute
 1484              		.global	testmtx6
 1485              		.section	.rodata
 1486              		.align	2
 1487              	.LC9:
 1488 006c 436F6E64 		.ascii	"CondVar, signal test\000"
 1488      5661722C 
 1488      20736967 
 1488      6E616C20 
 1488      74657374 
 1489              		.section	.rodata.testmtx6,"a",%progbits
 1490              		.align	2
 1491              		.type	testmtx6, %object
 1492              		.size	testmtx6, 16
 1493              	testmtx6:
 1494 0000 6C000000 		.word	.LC9
 1495 0004 00000000 		.word	mtx6_setup
 1496 0008 00000000 		.word	0
 1497 000c 00000000 		.word	mtx6_execute
 1498              		.section	.text.mtx7_setup,"ax",%progbits
 1499              		.align	2
 1500              		.p2align 4,,15
 1501              		.thumb
 1502              		.thumb_func
 1503              		.type	mtx7_setup, %function
 1504              	mtx7_setup:
 1505              	.LFB252:
 1506              		.loc 6 520 0
 1507              		.cfi_startproc
 1508              		@ args = 0, pretend = 0, frame = 0
 1509              		@ frame_needed = 0, uses_anonymous_args = 0
 1510 0000 08B5     		push	{r3, lr}
 1511              		.cfi_def_cfa_offset 8
 1512              		.cfi_offset 3, -8
 1513              		.cfi_offset 14, -4
 1514              		.loc 6 522 0
ARM GAS  /tmp/ccSoisRf.s 			page 28


 1515 0002 0348     		ldr	r0, .L78
 1516 0004 FFF7FEFF 		bl	chCondObjectInit
 1517              		.loc 6 523 0
 1518 0008 0248     		ldr	r0, .L78+4
 1519 000a FFF7FEFF 		bl	chMtxObjectInit
 1520              		.loc 6 524 0
 1521 000e 08BD     		pop	{r3, pc}
 1522              	.L79:
 1523              		.align	2
 1524              	.L78:
 1525 0010 00000000 		.word	c1
 1526 0014 00000000 		.word	m1
 1527              		.cfi_endproc
 1528              	.LFE252:
 1529              		.size	mtx7_setup, .-mtx7_setup
 1530 0018 AFF30080 		.section	.text.mtx7_execute,"ax",%progbits
 1530      AFF30080 
 1531              		.align	2
 1532              		.p2align 4,,15
 1533              		.thumb
 1534              		.thumb_func
 1535              		.type	mtx7_execute, %function
 1536              	mtx7_execute:
 1537              	.LFB253:
 1538              		.loc 6 526 0
 1539              		.cfi_startproc
 1540              		@ args = 0, pretend = 0, frame = 8
 1541              		@ frame_needed = 0, uses_anonymous_args = 0
 1542 0000 00B5     		push	{lr}
 1543              		.cfi_def_cfa_offset 4
 1544              		.cfi_offset 14, -4
 1545 0002 85B0     		sub	sp, sp, #20
 1546              		.cfi_def_cfa_offset 24
 1547              		.loc 6 528 0
 1548 0004 FFF7FEFF 		bl	chThdGetPriorityX
 1549 0008 0390     		str	r0, [sp, #12]
 1550              		.loc 6 529 0
 1551 000a 304B     		ldr	r3, .L82
 1552 000c 1A68     		ldr	r2, [r3]
 1553 000e 039B     		ldr	r3, [sp, #12]
 1554 0010 0133     		adds	r3, r3, #1
 1555 0012 2F49     		ldr	r1, .L82+4
 1556 0014 0091     		str	r1, [sp]
 1557 0016 1046     		mov	r0, r2
 1558 0018 4FF4B471 		mov	r1, #360
 1559 001c 1A46     		mov	r2, r3
 1560 001e 2D4B     		ldr	r3, .L82+8
 1561 0020 FFF7FEFF 		bl	chThdCreateStatic
 1562 0024 0246     		mov	r2, r0
 1563 0026 2C4B     		ldr	r3, .L82+12
 1564 0028 1A60     		str	r2, [r3]
 1565              		.loc 6 530 0
 1566 002a 284B     		ldr	r3, .L82
 1567 002c 5A68     		ldr	r2, [r3, #4]
 1568 002e 039B     		ldr	r3, [sp, #12]
 1569 0030 0233     		adds	r3, r3, #2
 1570 0032 2A49     		ldr	r1, .L82+16
ARM GAS  /tmp/ccSoisRf.s 			page 29


 1571 0034 0091     		str	r1, [sp]
 1572 0036 1046     		mov	r0, r2
 1573 0038 4FF4B471 		mov	r1, #360
 1574 003c 1A46     		mov	r2, r3
 1575 003e 254B     		ldr	r3, .L82+8
 1576 0040 FFF7FEFF 		bl	chThdCreateStatic
 1577 0044 0246     		mov	r2, r0
 1578 0046 244B     		ldr	r3, .L82+12
 1579 0048 5A60     		str	r2, [r3, #4]
 1580              		.loc 6 531 0
 1581 004a 204B     		ldr	r3, .L82
 1582 004c 9A68     		ldr	r2, [r3, #8]
 1583 004e 039B     		ldr	r3, [sp, #12]
 1584 0050 0333     		adds	r3, r3, #3
 1585 0052 2349     		ldr	r1, .L82+20
 1586 0054 0091     		str	r1, [sp]
 1587 0056 1046     		mov	r0, r2
 1588 0058 4FF4B471 		mov	r1, #360
 1589 005c 1A46     		mov	r2, r3
 1590 005e 1D4B     		ldr	r3, .L82+8
 1591 0060 FFF7FEFF 		bl	chThdCreateStatic
 1592 0064 0246     		mov	r2, r0
 1593 0066 1C4B     		ldr	r3, .L82+12
 1594 0068 9A60     		str	r2, [r3, #8]
 1595              		.loc 6 532 0
 1596 006a 184B     		ldr	r3, .L82
 1597 006c DA68     		ldr	r2, [r3, #12]
 1598 006e 039B     		ldr	r3, [sp, #12]
 1599 0070 0433     		adds	r3, r3, #4
 1600 0072 1C49     		ldr	r1, .L82+24
 1601 0074 0091     		str	r1, [sp]
 1602 0076 1046     		mov	r0, r2
 1603 0078 4FF4B471 		mov	r1, #360
 1604 007c 1A46     		mov	r2, r3
 1605 007e 154B     		ldr	r3, .L82+8
 1606 0080 FFF7FEFF 		bl	chThdCreateStatic
 1607 0084 0246     		mov	r2, r0
 1608 0086 144B     		ldr	r3, .L82+12
 1609 0088 DA60     		str	r2, [r3, #12]
 1610              		.loc 6 533 0
 1611 008a 104B     		ldr	r3, .L82
 1612 008c 1A69     		ldr	r2, [r3, #16]
 1613 008e 039B     		ldr	r3, [sp, #12]
 1614 0090 0533     		adds	r3, r3, #5
 1615 0092 1549     		ldr	r1, .L82+28
 1616 0094 0091     		str	r1, [sp]
 1617 0096 1046     		mov	r0, r2
 1618 0098 4FF4B471 		mov	r1, #360
 1619 009c 1A46     		mov	r2, r3
 1620 009e 0D4B     		ldr	r3, .L82+8
 1621 00a0 FFF7FEFF 		bl	chThdCreateStatic
 1622 00a4 0246     		mov	r2, r0
 1623 00a6 0C4B     		ldr	r3, .L82+12
 1624 00a8 1A61     		str	r2, [r3, #16]
 1625              		.loc 6 534 0
 1626 00aa 1048     		ldr	r0, .L82+32
 1627 00ac FFF7FEFF 		bl	chCondBroadcast
ARM GAS  /tmp/ccSoisRf.s 			page 30


 1628              		.loc 6 535 0
 1629 00b0 FFF7FEFF 		bl	test_wait_threads
 1630              		.loc 6 536 0
 1631 00b4 0120     		movs	r0, #1
 1632 00b6 0E49     		ldr	r1, .L82+36
 1633 00b8 FFF7FEFF 		bl	_test_assert_sequence
 1634 00bc 0346     		mov	r3, r0
 1635 00be 002B     		cmp	r3, #0
 1636 00c0 00D0     		beq	.L80
 1637              		.loc 6 536 0 is_stmt 0 discriminator 1
 1638 00c2 00BF     		nop
 1639              	.L80:
 1640              		.loc 6 537 0 is_stmt 1
 1641 00c4 05B0     		add	sp, sp, #20
 1642              		@ sp needed
 1643 00c6 5DF804FB 		ldr	pc, [sp], #4
 1644              	.L83:
 1645 00ca 00BF     		.align	2
 1646              	.L82:
 1647 00cc 00000000 		.word	wa
 1648 00d0 00000000 		.word	.LC0
 1649 00d4 00000000 		.word	thread10
 1650 00d8 00000000 		.word	threads
 1651 00dc 04000000 		.word	.LC1
 1652 00e0 08000000 		.word	.LC2
 1653 00e4 0C000000 		.word	.LC3
 1654 00e8 10000000 		.word	.LC4
 1655 00ec 00000000 		.word	c1
 1656 00f0 14000000 		.word	.LC5
 1657              		.cfi_endproc
 1658              	.LFE253:
 1659              		.size	mtx7_execute, .-mtx7_execute
 1660              		.global	testmtx7
 1661 00f4 AFF30080 		.section	.rodata
 1661      AFF30080 
 1661      AFF30080 
 1662 0081 000000   		.align	2
 1663              	.LC10:
 1664 0084 436F6E64 		.ascii	"CondVar, broadcast test\000"
 1664      5661722C 
 1664      2062726F 
 1664      61646361 
 1664      73742074 
 1665              		.section	.rodata.testmtx7,"a",%progbits
 1666              		.align	2
 1667              		.type	testmtx7, %object
 1668              		.size	testmtx7, 16
 1669              	testmtx7:
 1670 0000 84000000 		.word	.LC10
 1671 0004 00000000 		.word	mtx7_setup
 1672 0008 00000000 		.word	0
 1673 000c 00000000 		.word	mtx7_execute
 1674              		.section	.text.mtx8_setup,"ax",%progbits
 1675              		.align	2
 1676              		.p2align 4,,15
 1677              		.thumb
 1678              		.thumb_func
ARM GAS  /tmp/ccSoisRf.s 			page 31


 1679              		.type	mtx8_setup, %function
 1680              	mtx8_setup:
 1681              	.LFB254:
 1682              		.loc 6 555 0
 1683              		.cfi_startproc
 1684              		@ args = 0, pretend = 0, frame = 0
 1685              		@ frame_needed = 0, uses_anonymous_args = 0
 1686 0000 08B5     		push	{r3, lr}
 1687              		.cfi_def_cfa_offset 8
 1688              		.cfi_offset 3, -8
 1689              		.cfi_offset 14, -4
 1690              		.loc 6 557 0
 1691 0002 0548     		ldr	r0, .L85
 1692 0004 FFF7FEFF 		bl	chCondObjectInit
 1693              		.loc 6 558 0
 1694 0008 0448     		ldr	r0, .L85+4
 1695 000a FFF7FEFF 		bl	chMtxObjectInit
 1696              		.loc 6 559 0
 1697 000e 0448     		ldr	r0, .L85+8
 1698 0010 FFF7FEFF 		bl	chMtxObjectInit
 1699              		.loc 6 560 0
 1700 0014 08BD     		pop	{r3, pc}
 1701              	.L86:
 1702 0016 00BF     		.align	2
 1703              	.L85:
 1704 0018 00000000 		.word	c1
 1705 001c 00000000 		.word	m1
 1706 0020 00000000 		.word	m2
 1707              		.cfi_endproc
 1708              	.LFE254:
 1709              		.size	mtx8_setup, .-mtx8_setup
 1710 0024 AFF30080 		.section	.text.thread11,"ax",%progbits
 1710      AFF30080 
 1710      AFF30080 
 1711              		.align	2
 1712              		.p2align 4,,15
 1713              		.thumb
 1714              		.thumb_func
 1715              		.type	thread11, %function
 1716              	thread11:
 1717              	.LFB255:
 1718              		.loc 6 562 0
 1719              		.cfi_startproc
 1720              		@ args = 0, pretend = 0, frame = 8
 1721              		@ frame_needed = 0, uses_anonymous_args = 0
 1722 0000 00B5     		push	{lr}
 1723              		.cfi_def_cfa_offset 4
 1724              		.cfi_offset 14, -4
 1725 0002 83B0     		sub	sp, sp, #12
 1726              		.cfi_def_cfa_offset 16
 1727 0004 0190     		str	r0, [sp, #4]
 1728              		.loc 6 564 0
 1729 0006 0C48     		ldr	r0, .L88
 1730 0008 FFF7FEFF 		bl	chMtxLock
 1731              		.loc 6 565 0
 1732 000c 0B48     		ldr	r0, .L88+4
 1733 000e FFF7FEFF 		bl	chMtxLock
ARM GAS  /tmp/ccSoisRf.s 			page 32


 1734              		.loc 6 567 0
 1735 0012 0B48     		ldr	r0, .L88+8
 1736 0014 4FF0FF31 		mov	r1, #-1
 1737 0018 FFF7FEFF 		bl	chCondWaitTimeout
 1738              		.loc 6 571 0
 1739 001c 019B     		ldr	r3, [sp, #4]
 1740 001e 1B78     		ldrb	r3, [r3]	@ zero_extendqisi2
 1741 0020 1846     		mov	r0, r3
 1742 0022 FFF7FEFF 		bl	test_emit_token
 1743              		.loc 6 572 0
 1744 0026 0548     		ldr	r0, .L88+4
 1745 0028 FFF7FEFF 		bl	chMtxUnlock
 1746              		.loc 6 573 0
 1747 002c 0248     		ldr	r0, .L88
 1748 002e FFF7FEFF 		bl	chMtxUnlock
 1749              		.loc 6 574 0
 1750 0032 03B0     		add	sp, sp, #12
 1751              		@ sp needed
 1752 0034 5DF804FB 		ldr	pc, [sp], #4
 1753              	.L89:
 1754              		.align	2
 1755              	.L88:
 1756 0038 00000000 		.word	m2
 1757 003c 00000000 		.word	m1
 1758 0040 00000000 		.word	c1
 1759              		.cfi_endproc
 1760              	.LFE255:
 1761              		.size	thread11, .-thread11
 1762 0044 AFF30080 		.section	.text.thread12,"ax",%progbits
 1762      AFF30080 
 1762      AFF30080 
 1763              		.align	2
 1764              		.p2align 4,,15
 1765              		.thumb
 1766              		.thumb_func
 1767              		.type	thread12, %function
 1768              	thread12:
 1769              	.LFB256:
 1770              		.loc 6 576 0
 1771              		.cfi_startproc
 1772              		@ args = 0, pretend = 0, frame = 8
 1773              		@ frame_needed = 0, uses_anonymous_args = 0
 1774 0000 00B5     		push	{lr}
 1775              		.cfi_def_cfa_offset 4
 1776              		.cfi_offset 14, -4
 1777 0002 83B0     		sub	sp, sp, #12
 1778              		.cfi_def_cfa_offset 16
 1779 0004 0190     		str	r0, [sp, #4]
 1780              		.loc 6 578 0
 1781 0006 0748     		ldr	r0, .L91
 1782 0008 FFF7FEFF 		bl	chMtxLock
 1783              		.loc 6 579 0
 1784 000c 019B     		ldr	r3, [sp, #4]
 1785 000e 1B78     		ldrb	r3, [r3]	@ zero_extendqisi2
 1786 0010 1846     		mov	r0, r3
 1787 0012 FFF7FEFF 		bl	test_emit_token
 1788              		.loc 6 580 0
ARM GAS  /tmp/ccSoisRf.s 			page 33


 1789 0016 0348     		ldr	r0, .L91
 1790 0018 FFF7FEFF 		bl	chMtxUnlock
 1791              		.loc 6 581 0
 1792 001c 03B0     		add	sp, sp, #12
 1793              		@ sp needed
 1794 001e 5DF804FB 		ldr	pc, [sp], #4
 1795              	.L92:
 1796 0022 00BF     		.align	2
 1797              	.L91:
 1798 0024 00000000 		.word	m2
 1799              		.cfi_endproc
 1800              	.LFE256:
 1801              		.size	thread12, .-thread12
 1802 0028 AFF30080 		.section	.rodata
 1802      AFF30080 
 1803              		.align	2
 1804              	.LC11:
 1805 009c 41424300 		.ascii	"ABC\000"
 1806              		.section	.text.mtx8_execute,"ax",%progbits
 1807              		.align	2
 1808              		.p2align 4,,15
 1809              		.thumb
 1810              		.thumb_func
 1811              		.type	mtx8_execute, %function
 1812              	mtx8_execute:
 1813              	.LFB257:
 1814              		.loc 6 583 0
 1815              		.cfi_startproc
 1816              		@ args = 0, pretend = 0, frame = 8
 1817              		@ frame_needed = 0, uses_anonymous_args = 0
 1818 0000 00B5     		push	{lr}
 1819              		.cfi_def_cfa_offset 4
 1820              		.cfi_offset 14, -4
 1821 0002 85B0     		sub	sp, sp, #20
 1822              		.cfi_def_cfa_offset 24
 1823              		.loc 6 585 0
 1824 0004 FFF7FEFF 		bl	chThdGetPriorityX
 1825 0008 0390     		str	r0, [sp, #12]
 1826              		.loc 6 586 0
 1827 000a 214B     		ldr	r3, .L95
 1828 000c 1A68     		ldr	r2, [r3]
 1829 000e 039B     		ldr	r3, [sp, #12]
 1830 0010 0133     		adds	r3, r3, #1
 1831 0012 2049     		ldr	r1, .L95+4
 1832 0014 0091     		str	r1, [sp]
 1833 0016 1046     		mov	r0, r2
 1834 0018 4FF4B471 		mov	r1, #360
 1835 001c 1A46     		mov	r2, r3
 1836 001e 1E4B     		ldr	r3, .L95+8
 1837 0020 FFF7FEFF 		bl	chThdCreateStatic
 1838 0024 0246     		mov	r2, r0
 1839 0026 1D4B     		ldr	r3, .L95+12
 1840 0028 1A60     		str	r2, [r3]
 1841              		.loc 6 587 0
 1842 002a 194B     		ldr	r3, .L95
 1843 002c 5A68     		ldr	r2, [r3, #4]
 1844 002e 039B     		ldr	r3, [sp, #12]
ARM GAS  /tmp/ccSoisRf.s 			page 34


 1845 0030 0233     		adds	r3, r3, #2
 1846 0032 1B49     		ldr	r1, .L95+16
 1847 0034 0091     		str	r1, [sp]
 1848 0036 1046     		mov	r0, r2
 1849 0038 4FF4B471 		mov	r1, #360
 1850 003c 1A46     		mov	r2, r3
 1851 003e 194B     		ldr	r3, .L95+20
 1852 0040 FFF7FEFF 		bl	chThdCreateStatic
 1853 0044 0246     		mov	r2, r0
 1854 0046 154B     		ldr	r3, .L95+12
 1855 0048 5A60     		str	r2, [r3, #4]
 1856              		.loc 6 588 0
 1857 004a 114B     		ldr	r3, .L95
 1858 004c 9A68     		ldr	r2, [r3, #8]
 1859 004e 039B     		ldr	r3, [sp, #12]
 1860 0050 0333     		adds	r3, r3, #3
 1861 0052 1549     		ldr	r1, .L95+24
 1862 0054 0091     		str	r1, [sp]
 1863 0056 1046     		mov	r0, r2
 1864 0058 4FF4B471 		mov	r1, #360
 1865 005c 1A46     		mov	r2, r3
 1866 005e 134B     		ldr	r3, .L95+28
 1867 0060 FFF7FEFF 		bl	chThdCreateStatic
 1868 0064 0246     		mov	r2, r0
 1869 0066 0D4B     		ldr	r3, .L95+12
 1870 0068 9A60     		str	r2, [r3, #8]
 1871              		.loc 6 589 0
 1872 006a 1148     		ldr	r0, .L95+32
 1873 006c FFF7FEFF 		bl	chCondSignal
 1874              		.loc 6 590 0
 1875 0070 0F48     		ldr	r0, .L95+32
 1876 0072 FFF7FEFF 		bl	chCondSignal
 1877              		.loc 6 591 0
 1878 0076 FFF7FEFF 		bl	test_wait_threads
 1879              		.loc 6 592 0
 1880 007a 0120     		movs	r0, #1
 1881 007c 0D49     		ldr	r1, .L95+36
 1882 007e FFF7FEFF 		bl	_test_assert_sequence
 1883 0082 0346     		mov	r3, r0
 1884 0084 002B     		cmp	r3, #0
 1885 0086 00D0     		beq	.L93
 1886              		.loc 6 592 0 is_stmt 0 discriminator 1
 1887 0088 00BF     		nop
 1888              	.L93:
 1889              		.loc 6 593 0 is_stmt 1
 1890 008a 05B0     		add	sp, sp, #20
 1891              		@ sp needed
 1892 008c 5DF804FB 		ldr	pc, [sp], #4
 1893              	.L96:
 1894              		.align	2
 1895              	.L95:
 1896 0090 00000000 		.word	wa
 1897 0094 10000000 		.word	.LC4
 1898 0098 00000000 		.word	thread11
 1899 009c 00000000 		.word	threads
 1900 00a0 08000000 		.word	.LC2
 1901 00a4 00000000 		.word	thread10
ARM GAS  /tmp/ccSoisRf.s 			page 35


 1902 00a8 0C000000 		.word	.LC3
 1903 00ac 00000000 		.word	thread12
 1904 00b0 00000000 		.word	c1
 1905 00b4 9C000000 		.word	.LC11
 1906              		.cfi_endproc
 1907              	.LFE257:
 1908              		.size	mtx8_execute, .-mtx8_execute
 1909              		.global	testmtx8
 1910 00b8 AFF30080 		.section	.rodata
 1910      AFF30080 
 1911              		.align	2
 1912              	.LC12:
 1913 00a0 436F6E64 		.ascii	"CondVar, boost test\000"
 1913      5661722C 
 1913      20626F6F 
 1913      73742074 
 1913      65737400 
 1914              		.section	.rodata.testmtx8,"a",%progbits
 1915              		.align	2
 1916              		.type	testmtx8, %object
 1917              		.size	testmtx8, 16
 1918              	testmtx8:
 1919 0000 A0000000 		.word	.LC12
 1920 0004 00000000 		.word	mtx8_setup
 1921 0008 00000000 		.word	0
 1922 000c 00000000 		.word	mtx8_execute
 1923              		.global	patternmtx
 1924              		.section	.rodata.patternmtx,"a",%progbits
 1925              		.align	2
 1926              		.type	patternmtx, %object
 1927              		.size	patternmtx, 28
 1928              	patternmtx:
 1929 0000 00000000 		.word	testmtx1
 1930 0004 00000000 		.word	testmtx4
 1931 0008 00000000 		.word	testmtx5
 1932 000c 00000000 		.word	testmtx6
 1933 0010 00000000 		.word	testmtx7
 1934 0014 00000000 		.word	testmtx8
 1935 0018 00000000 		.word	0
 1936              		.section	.rodata.__func__.5925,"a",%progbits
 1937              		.align	2
 1938              		.type	__func__.5925, %object
 1939              		.size	__func__.5925, 12
 1940              	__func__.5925:
 1941 0000 63685379 		.ascii	"chSysUnlock\000"
 1941      73556E6C 
 1941      6F636B00 
 1942              		.text
 1943              	.Letext0:
 1944              		.file 7 "/usr/lib/gcc/arm-none-eabi/4.8/include/stddef.h"
 1945              		.file 8 "/usr/include/newlib/machine/_default_types.h"
 1946              		.file 9 "/usr/include/newlib/stdint.h"
 1947              		.file 10 "/home/efe/ChibiOS/os/rt/ports/ARMCMx/compilers/GCC/chtypes.h"
 1948              		.file 11 "/home/efe/ChibiOS/os/rt/include/chsystypes.h"
 1949              		.file 12 "/home/efe/ChibiOS/os/rt/ports/ARMCMx/chcore.h"
 1950              		.file 13 "/home/efe/ChibiOS/os/rt/include/chdebug.h"
 1951              		.file 14 "/home/efe/ChibiOS/os/rt/include/chtm.h"
ARM GAS  /tmp/ccSoisRf.s 			page 36


 1952              		.file 15 "/home/efe/ChibiOS/os/rt/include/chstats.h"
 1953              		.file 16 "/home/efe/ChibiOS/os/rt/include/chsem.h"
 1954              		.file 17 "/home/efe/ChibiOS/os/rt/include/chmtx.h"
 1955              		.file 18 "/home/efe/ChibiOS/os/rt/include/chcond.h"
 1956              		.file 19 "/home/efe/ChibiOS/test/rt/test.h"
 1957              		.file 20 "/home/efe/ChibiOS/os/ext/CMSIS/include/core_cm4.h"
 1958              		.section	.debug_info,"",%progbits
 1959              	.Ldebug_info0:
 1960 0000 AA0C0000 		.4byte	0xcaa
 1961 0004 0400     		.2byte	0x4
 1962 0006 00000000 		.4byte	.Ldebug_abbrev0
 1963 000a 04       		.byte	0x4
 1964 000b 01       		.uleb128 0x1
 1965 000c C1010000 		.4byte	.LASF172
 1966 0010 01       		.byte	0x1
 1967 0011 58070000 		.4byte	.LASF173
 1968 0015 00000000 		.4byte	.Ldebug_ranges0+0
 1969 0019 00000000 		.4byte	0
 1970 001d 00000000 		.4byte	.Ldebug_line0
 1971 0021 02       		.uleb128 0x2
 1972 0022 04       		.byte	0x4
 1973 0023 05       		.byte	0x5
 1974 0024 696E7400 		.ascii	"int\000"
 1975 0028 03       		.uleb128 0x3
 1976 0029 1C000000 		.4byte	.LASF2
 1977 002d 07       		.byte	0x7
 1978 002e D4       		.byte	0xd4
 1979 002f 33000000 		.4byte	0x33
 1980 0033 04       		.uleb128 0x4
 1981 0034 04       		.byte	0x4
 1982 0035 07       		.byte	0x7
 1983 0036 F7020000 		.4byte	.LASF0
 1984 003a 04       		.uleb128 0x4
 1985 003b 01       		.byte	0x1
 1986 003c 06       		.byte	0x6
 1987 003d 3D010000 		.4byte	.LASF1
 1988 0041 03       		.uleb128 0x3
 1989 0042 33000000 		.4byte	.LASF3
 1990 0046 08       		.byte	0x8
 1991 0047 1D       		.byte	0x1d
 1992 0048 4C000000 		.4byte	0x4c
 1993 004c 04       		.uleb128 0x4
 1994 004d 01       		.byte	0x1
 1995 004e 08       		.byte	0x8
 1996 004f 39050000 		.4byte	.LASF4
 1997 0053 04       		.uleb128 0x4
 1998 0054 02       		.byte	0x2
 1999 0055 05       		.byte	0x5
 2000 0056 64050000 		.4byte	.LASF5
 2001 005a 04       		.uleb128 0x4
 2002 005b 02       		.byte	0x2
 2003 005c 07       		.byte	0x7
 2004 005d 38030000 		.4byte	.LASF6
 2005 0061 03       		.uleb128 0x3
 2006 0062 AF030000 		.4byte	.LASF7
 2007 0066 08       		.byte	0x8
 2008 0067 3F       		.byte	0x3f
ARM GAS  /tmp/ccSoisRf.s 			page 37


 2009 0068 6C000000 		.4byte	0x6c
 2010 006c 04       		.uleb128 0x4
 2011 006d 04       		.byte	0x4
 2012 006e 05       		.byte	0x5
 2013 006f 9E010000 		.4byte	.LASF8
 2014 0073 03       		.uleb128 0x3
 2015 0074 A9060000 		.4byte	.LASF9
 2016 0078 08       		.byte	0x8
 2017 0079 41       		.byte	0x41
 2018 007a 7E000000 		.4byte	0x7e
 2019 007e 04       		.uleb128 0x4
 2020 007f 04       		.byte	0x4
 2021 0080 07       		.byte	0x7
 2022 0081 4A060000 		.4byte	.LASF10
 2023 0085 04       		.uleb128 0x4
 2024 0086 08       		.byte	0x8
 2025 0087 05       		.byte	0x5
 2026 0088 2F010000 		.4byte	.LASF11
 2027 008c 03       		.uleb128 0x3
 2028 008d 9A040000 		.4byte	.LASF12
 2029 0091 08       		.byte	0x8
 2030 0092 5B       		.byte	0x5b
 2031 0093 97000000 		.4byte	0x97
 2032 0097 04       		.uleb128 0x4
 2033 0098 08       		.byte	0x8
 2034 0099 07       		.byte	0x7
 2035 009a 9E000000 		.4byte	.LASF13
 2036 009e 03       		.uleb128 0x3
 2037 009f 3B070000 		.4byte	.LASF14
 2038 00a3 09       		.byte	0x9
 2039 00a4 2A       		.byte	0x2a
 2040 00a5 41000000 		.4byte	0x41
 2041 00a9 03       		.uleb128 0x3
 2042 00aa 31050000 		.4byte	.LASF15
 2043 00ae 09       		.byte	0x9
 2044 00af 41       		.byte	0x41
 2045 00b0 61000000 		.4byte	0x61
 2046 00b4 03       		.uleb128 0x3
 2047 00b5 EC050000 		.4byte	.LASF16
 2048 00b9 09       		.byte	0x9
 2049 00ba 42       		.byte	0x42
 2050 00bb 73000000 		.4byte	0x73
 2051 00bf 03       		.uleb128 0x3
 2052 00c0 2A000000 		.4byte	.LASF17
 2053 00c4 09       		.byte	0x9
 2054 00c5 4E       		.byte	0x4e
 2055 00c6 8C000000 		.4byte	0x8c
 2056 00ca 05       		.uleb128 0x5
 2057 00cb A9000000 		.4byte	0xa9
 2058 00cf 03       		.uleb128 0x3
 2059 00d0 E7060000 		.4byte	.LASF18
 2060 00d4 0A       		.byte	0xa
 2061 00d5 45       		.byte	0x45
 2062 00d6 B4000000 		.4byte	0xb4
 2063 00da 03       		.uleb128 0x3
 2064 00db 1F010000 		.4byte	.LASF19
 2065 00df 0A       		.byte	0xa
ARM GAS  /tmp/ccSoisRf.s 			page 38


 2066 00e0 46       		.byte	0x46
 2067 00e1 BF000000 		.4byte	0xbf
 2068 00e5 03       		.uleb128 0x3
 2069 00e6 82030000 		.4byte	.LASF20
 2070 00ea 0A       		.byte	0xa
 2071 00eb 48       		.byte	0x48
 2072 00ec 9E000000 		.4byte	0x9e
 2073 00f0 03       		.uleb128 0x3
 2074 00f1 A7010000 		.4byte	.LASF21
 2075 00f5 0A       		.byte	0xa
 2076 00f6 49       		.byte	0x49
 2077 00f7 9E000000 		.4byte	0x9e
 2078 00fb 03       		.uleb128 0x3
 2079 00fc E9040000 		.4byte	.LASF22
 2080 0100 0A       		.byte	0xa
 2081 0101 4A       		.byte	0x4a
 2082 0102 9E000000 		.4byte	0x9e
 2083 0106 03       		.uleb128 0x3
 2084 0107 1A050000 		.4byte	.LASF23
 2085 010b 0A       		.byte	0xa
 2086 010c 4C       		.byte	0x4c
 2087 010d B4000000 		.4byte	0xb4
 2088 0111 03       		.uleb128 0x3
 2089 0112 64030000 		.4byte	.LASF24
 2090 0116 0A       		.byte	0xa
 2091 0117 4D       		.byte	0x4d
 2092 0118 A9000000 		.4byte	0xa9
 2093 011c 03       		.uleb128 0x3
 2094 011d A3030000 		.4byte	.LASF25
 2095 0121 0A       		.byte	0xa
 2096 0122 4F       		.byte	0x4f
 2097 0123 B4000000 		.4byte	0xb4
 2098 0127 03       		.uleb128 0x3
 2099 0128 E6020000 		.4byte	.LASF26
 2100 012c 0A       		.byte	0xa
 2101 012d 51       		.byte	0x51
 2102 012e A9000000 		.4byte	0xa9
 2103 0132 03       		.uleb128 0x3
 2104 0133 6F030000 		.4byte	.LASF27
 2105 0137 0A       		.byte	0xa
 2106 0138 52       		.byte	0x52
 2107 0139 B4000000 		.4byte	0xb4
 2108 013d 03       		.uleb128 0x3
 2109 013e 8B060000 		.4byte	.LASF28
 2110 0142 0B       		.byte	0xb
 2111 0143 33       		.byte	0x33
 2112 0144 B4000000 		.4byte	0xb4
 2113 0148 03       		.uleb128 0x3
 2114 0149 76060000 		.4byte	.LASF29
 2115 014d 0B       		.byte	0xb
 2116 014e 3F       		.byte	0x3f
 2117 014f 53010000 		.4byte	0x153
 2118 0153 06       		.uleb128 0x6
 2119 0154 5A030000 		.4byte	.LASF51
 2120 0158 60       		.byte	0x60
 2121 0159 03       		.byte	0x3
 2122 015a C2       		.byte	0xc2
ARM GAS  /tmp/ccSoisRf.s 			page 39


 2123 015b 59020000 		.4byte	0x259
 2124 015f 07       		.uleb128 0x7
 2125 0160 84050000 		.4byte	.LASF30
 2126 0164 03       		.byte	0x3
 2127 0165 C3       		.byte	0xc3
 2128 0166 64020000 		.4byte	0x264
 2129 016a 00       		.byte	0
 2130 016b 07       		.uleb128 0x7
 2131 016c 0B050000 		.4byte	.LASF31
 2132 0170 03       		.byte	0x3
 2133 0171 C5       		.byte	0xc5
 2134 0172 64020000 		.4byte	0x264
 2135 0176 04       		.byte	0x4
 2136 0177 07       		.uleb128 0x7
 2137 0178 28010000 		.4byte	.LASF32
 2138 017c 03       		.byte	0x3
 2139 017d C7       		.byte	0xc7
 2140 017e 06010000 		.4byte	0x106
 2141 0182 08       		.byte	0x8
 2142 0183 07       		.uleb128 0x7
 2143 0184 D5070000 		.4byte	.LASF33
 2144 0188 03       		.byte	0x3
 2145 0189 C8       		.byte	0xc8
 2146 018a CD040000 		.4byte	0x4cd
 2147 018e 0C       		.byte	0xc
 2148 018f 07       		.uleb128 0x7
 2149 0190 71020000 		.4byte	.LASF34
 2150 0194 03       		.byte	0x3
 2151 0195 CA       		.byte	0xca
 2152 0196 64020000 		.4byte	0x264
 2153 019a 10       		.byte	0x10
 2154 019b 07       		.uleb128 0x7
 2155 019c 4D040000 		.4byte	.LASF35
 2156 01a0 03       		.byte	0x3
 2157 01a1 CB       		.byte	0xcb
 2158 01a2 64020000 		.4byte	0x264
 2159 01a6 14       		.byte	0x14
 2160 01a7 07       		.uleb128 0x7
 2161 01a8 83070000 		.4byte	.LASF36
 2162 01ac 03       		.byte	0x3
 2163 01ad D2       		.byte	0xd2
 2164 01ae 71070000 		.4byte	0x771
 2165 01b2 18       		.byte	0x18
 2166 01b3 07       		.uleb128 0x7
 2167 01b4 EC020000 		.4byte	.LASF37
 2168 01b8 03       		.byte	0x3
 2169 01b9 D8       		.byte	0xd8
 2170 01ba 83070000 		.4byte	0x783
 2171 01be 1C       		.byte	0x1c
 2172 01bf 07       		.uleb128 0x7
 2173 01c0 5E010000 		.4byte	.LASF38
 2174 01c4 03       		.byte	0x3
 2175 01c5 DD       		.byte	0xdd
 2176 01c6 F0000000 		.4byte	0xf0
 2177 01ca 20       		.byte	0x20
 2178 01cb 07       		.uleb128 0x7
 2179 01cc 8B050000 		.4byte	.LASF39
ARM GAS  /tmp/ccSoisRf.s 			page 40


 2180 01d0 03       		.byte	0x3
 2181 01d1 E1       		.byte	0xe1
 2182 01d2 E5000000 		.4byte	0xe5
 2183 01d6 21       		.byte	0x21
 2184 01d7 07       		.uleb128 0x7
 2185 01d8 18070000 		.4byte	.LASF40
 2186 01dc 03       		.byte	0x3
 2187 01dd E6       		.byte	0xe6
 2188 01de FB000000 		.4byte	0xfb
 2189 01e2 22       		.byte	0x22
 2190 01e3 08       		.uleb128 0x8
 2191 01e4 705F7500 		.ascii	"p_u\000"
 2192 01e8 03       		.byte	0x3
 2193 01e9 3101     		.2byte	0x131
 2194 01eb AC060000 		.4byte	0x6ac
 2195 01ef 24       		.byte	0x24
 2196 01f0 09       		.uleb128 0x9
 2197 01f1 C4030000 		.4byte	.LASF41
 2198 01f5 03       		.byte	0x3
 2199 01f6 3601     		.2byte	0x136
 2200 01f8 6A020000 		.4byte	0x26a
 2201 01fc 28       		.byte	0x28
 2202 01fd 09       		.uleb128 0x9
 2203 01fe 13030000 		.4byte	.LASF42
 2204 0202 03       		.byte	0x3
 2205 0203 3C01     		.2byte	0x13c
 2206 0205 8E020000 		.4byte	0x28e
 2207 0209 2C       		.byte	0x2c
 2208 020a 09       		.uleb128 0x9
 2209 020b B2070000 		.4byte	.LASF43
 2210 020f 03       		.byte	0x3
 2211 0210 4001     		.2byte	0x140
 2212 0212 11010000 		.4byte	0x111
 2213 0216 34       		.byte	0x34
 2214 0217 09       		.uleb128 0x9
 2215 0218 E1050000 		.4byte	.LASF44
 2216 021c 03       		.byte	0x3
 2217 021d 4601     		.2byte	0x146
 2218 021f 1C010000 		.4byte	0x11c
 2219 0223 38       		.byte	0x38
 2220 0224 09       		.uleb128 0x9
 2221 0225 5A050000 		.4byte	.LASF45
 2222 0229 03       		.byte	0x3
 2223 022a 4D01     		.2byte	0x14d
 2224 022c 6B070000 		.4byte	0x76b
 2225 0230 3C       		.byte	0x3c
 2226 0231 09       		.uleb128 0x9
 2227 0232 95060000 		.4byte	.LASF46
 2228 0236 03       		.byte	0x3
 2229 0237 5101     		.2byte	0x151
 2230 0239 06010000 		.4byte	0x106
 2231 023d 40       		.byte	0x40
 2232 023e 09       		.uleb128 0x9
 2233 023f 66010000 		.4byte	.LASF47
 2234 0243 03       		.byte	0x3
 2235 0244 5801     		.2byte	0x158
 2236 0246 41030000 		.4byte	0x341
ARM GAS  /tmp/ccSoisRf.s 			page 41


 2237 024a 44       		.byte	0x44
 2238 024b 09       		.uleb128 0x9
 2239 024c 9C050000 		.4byte	.LASF48
 2240 0250 03       		.byte	0x3
 2241 0251 5E01     		.2byte	0x15e
 2242 0253 5D060000 		.4byte	0x65d
 2243 0257 48       		.byte	0x48
 2244 0258 00       		.byte	0
 2245 0259 03       		.uleb128 0x3
 2246 025a D7030000 		.4byte	.LASF49
 2247 025e 0B       		.byte	0xb
 2248 025f 44       		.byte	0x44
 2249 0260 64020000 		.4byte	0x264
 2250 0264 0A       		.uleb128 0xa
 2251 0265 04       		.byte	0x4
 2252 0266 48010000 		.4byte	0x148
 2253 026a 03       		.uleb128 0x3
 2254 026b 8A070000 		.4byte	.LASF50
 2255 026f 0B       		.byte	0xb
 2256 0270 49       		.byte	0x49
 2257 0271 75020000 		.4byte	0x275
 2258 0275 06       		.uleb128 0x6
 2259 0276 0D060000 		.4byte	.LASF52
 2260 027a 04       		.byte	0x4
 2261 027b 03       		.byte	0x3
 2262 027c B0       		.byte	0xb0
 2263 027d 8E020000 		.4byte	0x28e
 2264 0281 07       		.uleb128 0x7
 2265 0282 84050000 		.4byte	.LASF30
 2266 0286 03       		.byte	0x3
 2267 0287 B1       		.byte	0xb1
 2268 0288 64020000 		.4byte	0x264
 2269 028c 00       		.byte	0
 2270 028d 00       		.byte	0
 2271 028e 03       		.uleb128 0x3
 2272 028f FF060000 		.4byte	.LASF53
 2273 0293 0B       		.byte	0xb
 2274 0294 50       		.byte	0x50
 2275 0295 99020000 		.4byte	0x299
 2276 0299 06       		.uleb128 0x6
 2277 029a 49000000 		.4byte	.LASF54
 2278 029e 08       		.byte	0x8
 2279 029f 03       		.byte	0x3
 2280 02a0 B7       		.byte	0xb7
 2281 02a1 BE020000 		.4byte	0x2be
 2282 02a5 07       		.uleb128 0x7
 2283 02a6 84050000 		.4byte	.LASF30
 2284 02aa 03       		.byte	0x3
 2285 02ab B8       		.byte	0xb8
 2286 02ac 64020000 		.4byte	0x264
 2287 02b0 00       		.byte	0
 2288 02b1 07       		.uleb128 0x7
 2289 02b2 0B050000 		.4byte	.LASF31
 2290 02b6 03       		.byte	0x3
 2291 02b7 B9       		.byte	0xb9
 2292 02b8 64020000 		.4byte	0x264
 2293 02bc 04       		.byte	0x4
ARM GAS  /tmp/ccSoisRf.s 			page 42


 2294 02bd 00       		.byte	0
 2295 02be 03       		.uleb128 0x3
 2296 02bf 07000000 		.4byte	.LASF55
 2297 02c3 0B       		.byte	0xb
 2298 02c4 57       		.byte	0x57
 2299 02c5 C9020000 		.4byte	0x2c9
 2300 02c9 0B       		.uleb128 0xb
 2301 02ca 95030000 		.4byte	.LASF56
 2302 02ce 1C       		.byte	0x1c
 2303 02cf 03       		.byte	0x3
 2304 02d0 9001     		.2byte	0x190
 2305 02d2 25030000 		.4byte	0x325
 2306 02d6 09       		.uleb128 0x9
 2307 02d7 FC050000 		.4byte	.LASF57
 2308 02db 03       		.byte	0x3
 2309 02dc 9101     		.2byte	0x191
 2310 02de 8E020000 		.4byte	0x28e
 2311 02e2 00       		.byte	0
 2312 02e3 09       		.uleb128 0x9
 2313 02e4 76050000 		.4byte	.LASF58
 2314 02e8 03       		.byte	0x3
 2315 02e9 9201     		.2byte	0x192
 2316 02eb 06010000 		.4byte	0x106
 2317 02ef 08       		.byte	0x8
 2318 02f0 09       		.uleb128 0x9
 2319 02f1 5D040000 		.4byte	.LASF59
 2320 02f5 03       		.byte	0x3
 2321 02f6 9401     		.2byte	0x194
 2322 02f8 CD040000 		.4byte	0x4cd
 2323 02fc 0C       		.byte	0xc
 2324 02fd 09       		.uleb128 0x9
 2325 02fe 97020000 		.4byte	.LASF60
 2326 0302 03       		.byte	0x3
 2327 0303 9701     		.2byte	0x197
 2328 0305 64020000 		.4byte	0x264
 2329 0309 10       		.byte	0x10
 2330 030a 09       		.uleb128 0x9
 2331 030b 92040000 		.4byte	.LASF61
 2332 030f 03       		.byte	0x3
 2333 0310 9801     		.2byte	0x198
 2334 0312 64020000 		.4byte	0x264
 2335 0316 14       		.byte	0x14
 2336 0317 09       		.uleb128 0x9
 2337 0318 5C060000 		.4byte	.LASF62
 2338 031c 03       		.byte	0x3
 2339 031d 9B01     		.2byte	0x19b
 2340 031f 64020000 		.4byte	0x264
 2341 0323 18       		.byte	0x18
 2342 0324 00       		.byte	0
 2343 0325 03       		.uleb128 0x3
 2344 0326 A0060000 		.4byte	.LASF63
 2345 032a 0B       		.byte	0xb
 2346 032b 5C       		.byte	0x5c
 2347 032c 30030000 		.4byte	0x330
 2348 0330 0A       		.uleb128 0xa
 2349 0331 04       		.byte	0x4
 2350 0332 36030000 		.4byte	0x336
ARM GAS  /tmp/ccSoisRf.s 			page 43


 2351 0336 0C       		.uleb128 0xc
 2352 0337 41030000 		.4byte	0x341
 2353 033b 0D       		.uleb128 0xd
 2354 033c 41030000 		.4byte	0x341
 2355 0340 00       		.byte	0
 2356 0341 0E       		.uleb128 0xe
 2357 0342 04       		.byte	0x4
 2358 0343 03       		.uleb128 0x3
 2359 0344 FB040000 		.4byte	.LASF64
 2360 0348 0B       		.byte	0xb
 2361 0349 61       		.byte	0x61
 2362 034a 4E030000 		.4byte	0x34e
 2363 034e 0B       		.uleb128 0xb
 2364 034f AE050000 		.4byte	.LASF65
 2365 0353 14       		.byte	0x14
 2366 0354 03       		.byte	0x3
 2367 0355 6B01     		.2byte	0x16b
 2368 0357 9D030000 		.4byte	0x39d
 2369 035b 09       		.uleb128 0x9
 2370 035c 04030000 		.4byte	.LASF66
 2371 0360 03       		.byte	0x3
 2372 0361 6C01     		.2byte	0x16c
 2373 0363 89070000 		.4byte	0x789
 2374 0367 00       		.byte	0
 2375 0368 09       		.uleb128 0x9
 2376 0369 A8020000 		.4byte	.LASF67
 2377 036d 03       		.byte	0x3
 2378 036e 6D01     		.2byte	0x16d
 2379 0370 89070000 		.4byte	0x789
 2380 0374 04       		.byte	0x4
 2381 0375 09       		.uleb128 0x9
 2382 0376 04060000 		.4byte	.LASF68
 2383 037a 03       		.byte	0x3
 2384 037b 6E01     		.2byte	0x16e
 2385 037d 3D010000 		.4byte	0x13d
 2386 0381 08       		.byte	0x8
 2387 0382 09       		.uleb128 0x9
 2388 0383 DB070000 		.4byte	.LASF69
 2389 0387 03       		.byte	0x3
 2390 0388 6F01     		.2byte	0x16f
 2391 038a 25030000 		.4byte	0x325
 2392 038e 0C       		.byte	0xc
 2393 038f 09       		.uleb128 0x9
 2394 0390 EF060000 		.4byte	.LASF70
 2395 0394 03       		.byte	0x3
 2396 0395 7101     		.2byte	0x171
 2397 0397 41030000 		.4byte	0x341
 2398 039b 10       		.byte	0x10
 2399 039c 00       		.byte	0
 2400 039d 03       		.uleb128 0x3
 2401 039e EF000000 		.4byte	.LASF71
 2402 03a2 0B       		.byte	0xb
 2403 03a3 66       		.byte	0x66
 2404 03a4 A8030000 		.4byte	0x3a8
 2405 03a8 0B       		.uleb128 0xb
 2406 03a9 FB030000 		.4byte	.LASF72
 2407 03ad 10       		.byte	0x10
ARM GAS  /tmp/ccSoisRf.s 			page 44


 2408 03ae 03       		.byte	0x3
 2409 03af 7B01     		.2byte	0x17b
 2410 03b1 EA030000 		.4byte	0x3ea
 2411 03b5 09       		.uleb128 0x9
 2412 03b6 04030000 		.4byte	.LASF66
 2413 03ba 03       		.byte	0x3
 2414 03bb 7C01     		.2byte	0x17c
 2415 03bd 89070000 		.4byte	0x789
 2416 03c1 00       		.byte	0
 2417 03c2 09       		.uleb128 0x9
 2418 03c3 A8020000 		.4byte	.LASF67
 2419 03c7 03       		.byte	0x3
 2420 03c8 7E01     		.2byte	0x17e
 2421 03ca 89070000 		.4byte	0x789
 2422 03ce 04       		.byte	0x4
 2423 03cf 09       		.uleb128 0x9
 2424 03d0 04060000 		.4byte	.LASF68
 2425 03d4 03       		.byte	0x3
 2426 03d5 8001     		.2byte	0x180
 2427 03d7 3D010000 		.4byte	0x13d
 2428 03db 08       		.byte	0x8
 2429 03dc 09       		.uleb128 0x9
 2430 03dd 41040000 		.4byte	.LASF73
 2431 03e1 03       		.byte	0x3
 2432 03e2 8801     		.2byte	0x188
 2433 03e4 3D010000 		.4byte	0x13d
 2434 03e8 0C       		.byte	0xc
 2435 03e9 00       		.byte	0
 2436 03ea 03       		.uleb128 0x3
 2437 03eb 5A000000 		.4byte	.LASF74
 2438 03ef 0B       		.byte	0xb
 2439 03f0 6B       		.byte	0x6b
 2440 03f1 F5030000 		.4byte	0x3f5
 2441 03f5 0F       		.uleb128 0xf
 2442 03f6 B0020000 		.4byte	.LASF75
 2443 03fa 1404     		.2byte	0x414
 2444 03fc 03       		.byte	0x3
 2445 03fd A201     		.2byte	0x1a2
 2446 03ff 38040000 		.4byte	0x438
 2447 0403 09       		.uleb128 0x9
 2448 0404 43070000 		.4byte	.LASF76
 2449 0408 03       		.byte	0x3
 2450 0409 AA01     		.2byte	0x1aa
 2451 040b 8F070000 		.4byte	0x78f
 2452 040f 00       		.byte	0
 2453 0410 09       		.uleb128 0x9
 2454 0411 1F070000 		.4byte	.LASF77
 2455 0415 03       		.byte	0x3
 2456 0416 AF01     		.2byte	0x1af
 2457 0418 27010000 		.4byte	0x127
 2458 041c 04       		.byte	0x4
 2459 041d 09       		.uleb128 0x9
 2460 041e CE020000 		.4byte	.LASF78
 2461 0422 03       		.byte	0x3
 2462 0423 B301     		.2byte	0x1b3
 2463 0425 27010000 		.4byte	0x127
 2464 0429 08       		.byte	0x8
ARM GAS  /tmp/ccSoisRf.s 			page 45


 2465 042a 09       		.uleb128 0x9
 2466 042b 99070000 		.4byte	.LASF79
 2467 042f 03       		.byte	0x3
 2468 0430 B901     		.2byte	0x1b9
 2469 0432 EF050000 		.4byte	0x5ef
 2470 0436 0C       		.byte	0xc
 2471 0437 00       		.byte	0
 2472 0438 03       		.uleb128 0x3
 2473 0439 76030000 		.4byte	.LASF80
 2474 043d 0B       		.byte	0xb
 2475 043e 70       		.byte	0x70
 2476 043f 43040000 		.4byte	0x443
 2477 0443 0F       		.uleb128 0xf
 2478 0444 94010000 		.4byte	.LASF81
 2479 0448 D805     		.2byte	0x5d8
 2480 044a 03       		.byte	0x3
 2481 044b C201     		.2byte	0x1c2
 2482 044d B0040000 		.4byte	0x4b0
 2483 0451 09       		.uleb128 0x9
 2484 0452 27070000 		.4byte	.LASF82
 2485 0456 03       		.byte	0x3
 2486 0457 C601     		.2byte	0x1c6
 2487 0459 BE020000 		.4byte	0x2be
 2488 045d 00       		.byte	0
 2489 045e 09       		.uleb128 0x9
 2490 045f 7B010000 		.4byte	.LASF83
 2491 0463 03       		.byte	0x3
 2492 0464 CA01     		.2byte	0x1ca
 2493 0466 9D030000 		.4byte	0x39d
 2494 046a 1C       		.byte	0x1c
 2495 046b 08       		.uleb128 0x8
 2496 046c 64626700 		.ascii	"dbg\000"
 2497 0470 03       		.byte	0x3
 2498 0471 CE01     		.2byte	0x1ce
 2499 0473 EA030000 		.4byte	0x3ea
 2500 0477 2C       		.byte	0x2c
 2501 0478 10       		.uleb128 0x10
 2502 0479 E4000000 		.4byte	.LASF84
 2503 047d 03       		.byte	0x3
 2504 047e D201     		.2byte	0x1d2
 2505 0480 48010000 		.4byte	0x148
 2506 0484 4004     		.2byte	0x440
 2507 0486 11       		.uleb128 0x11
 2508 0487 746D00   		.ascii	"tm\000"
 2509 048a 03       		.byte	0x3
 2510 048b D701     		.2byte	0x1d7
 2511 048d 0F060000 		.4byte	0x60f
 2512 0491 A004     		.2byte	0x4a0
 2513 0493 10       		.uleb128 0x10
 2514 0494 DC040000 		.4byte	.LASF85
 2515 0498 03       		.byte	0x3
 2516 0499 DD01     		.2byte	0x1dd
 2517 049b A1060000 		.4byte	0x6a1
 2518 049f A804     		.2byte	0x4a8
 2519 04a1 10       		.uleb128 0x10
 2520 04a2 D7020000 		.4byte	.LASF86
 2521 04a6 03       		.byte	0x3
ARM GAS  /tmp/ccSoisRf.s 			page 46


 2522 04a7 E301     		.2byte	0x1e3
 2523 04a9 94070000 		.4byte	0x794
 2524 04ad E004     		.2byte	0x4e0
 2525 04af 00       		.byte	0
 2526 04b0 04       		.uleb128 0x4
 2527 04b1 04       		.byte	0x4
 2528 04b2 07       		.byte	0x7
 2529 04b3 CE030000 		.4byte	.LASF87
 2530 04b7 03       		.uleb128 0x3
 2531 04b8 9F020000 		.4byte	.LASF88
 2532 04bc 0C       		.byte	0xc
 2533 04bd 65       		.byte	0x65
 2534 04be 41030000 		.4byte	0x341
 2535 04c2 03       		.uleb128 0x3
 2536 04c3 B9030000 		.4byte	.LASF89
 2537 04c7 0C       		.byte	0xc
 2538 04c8 6D       		.byte	0x6d
 2539 04c9 BF000000 		.4byte	0xbf
 2540 04cd 06       		.uleb128 0x6
 2541 04ce DF060000 		.4byte	.LASF90
 2542 04d2 04       		.byte	0x4
 2543 04d3 0C       		.byte	0xc
 2544 04d4 89       		.byte	0x89
 2545 04d5 E6040000 		.4byte	0x4e6
 2546 04d9 12       		.uleb128 0x12
 2547 04da 72313300 		.ascii	"r13\000"
 2548 04de 0C       		.byte	0xc
 2549 04df 8A       		.byte	0x8a
 2550 04e0 61050000 		.4byte	0x561
 2551 04e4 00       		.byte	0
 2552 04e5 00       		.byte	0
 2553 04e6 06       		.uleb128 0x6
 2554 04e7 3D000000 		.4byte	.LASF91
 2555 04eb 24       		.byte	0x24
 2556 04ec 01       		.byte	0x1
 2557 04ed FD       		.byte	0xfd
 2558 04ee 61050000 		.4byte	0x561
 2559 04f2 08       		.uleb128 0x8
 2560 04f3 723400   		.ascii	"r4\000"
 2561 04f6 01       		.byte	0x1
 2562 04f7 1001     		.2byte	0x110
 2563 04f9 B7040000 		.4byte	0x4b7
 2564 04fd 00       		.byte	0
 2565 04fe 08       		.uleb128 0x8
 2566 04ff 723500   		.ascii	"r5\000"
 2567 0502 01       		.byte	0x1
 2568 0503 1101     		.2byte	0x111
 2569 0505 B7040000 		.4byte	0x4b7
 2570 0509 04       		.byte	0x4
 2571 050a 08       		.uleb128 0x8
 2572 050b 723600   		.ascii	"r6\000"
 2573 050e 01       		.byte	0x1
 2574 050f 1201     		.2byte	0x112
 2575 0511 B7040000 		.4byte	0x4b7
 2576 0515 08       		.byte	0x8
 2577 0516 08       		.uleb128 0x8
 2578 0517 723700   		.ascii	"r7\000"
ARM GAS  /tmp/ccSoisRf.s 			page 47


 2579 051a 01       		.byte	0x1
 2580 051b 1301     		.2byte	0x113
 2581 051d B7040000 		.4byte	0x4b7
 2582 0521 0C       		.byte	0xc
 2583 0522 08       		.uleb128 0x8
 2584 0523 723800   		.ascii	"r8\000"
 2585 0526 01       		.byte	0x1
 2586 0527 1401     		.2byte	0x114
 2587 0529 B7040000 		.4byte	0x4b7
 2588 052d 10       		.byte	0x10
 2589 052e 08       		.uleb128 0x8
 2590 052f 723900   		.ascii	"r9\000"
 2591 0532 01       		.byte	0x1
 2592 0533 1501     		.2byte	0x115
 2593 0535 B7040000 		.4byte	0x4b7
 2594 0539 14       		.byte	0x14
 2595 053a 08       		.uleb128 0x8
 2596 053b 72313000 		.ascii	"r10\000"
 2597 053f 01       		.byte	0x1
 2598 0540 1601     		.2byte	0x116
 2599 0542 B7040000 		.4byte	0x4b7
 2600 0546 18       		.byte	0x18
 2601 0547 08       		.uleb128 0x8
 2602 0548 72313100 		.ascii	"r11\000"
 2603 054c 01       		.byte	0x1
 2604 054d 1701     		.2byte	0x117
 2605 054f B7040000 		.4byte	0x4b7
 2606 0553 1C       		.byte	0x1c
 2607 0554 08       		.uleb128 0x8
 2608 0555 6C7200   		.ascii	"lr\000"
 2609 0558 01       		.byte	0x1
 2610 0559 1801     		.2byte	0x118
 2611 055b B7040000 		.4byte	0x4b7
 2612 055f 20       		.byte	0x20
 2613 0560 00       		.byte	0
 2614 0561 0A       		.uleb128 0xa
 2615 0562 04       		.byte	0x4
 2616 0563 E6040000 		.4byte	0x4e6
 2617 0567 13       		.uleb128 0x13
 2618 0568 10       		.byte	0x10
 2619 0569 0D       		.byte	0xd
 2620 056a 51       		.byte	0x51
 2621 056b A0050000 		.4byte	0x5a0
 2622 056f 07       		.uleb128 0x7
 2623 0570 14000000 		.4byte	.LASF92
 2624 0574 0D       		.byte	0xd
 2625 0575 55       		.byte	0x55
 2626 0576 3D010000 		.4byte	0x13d
 2627 057a 00       		.byte	0
 2628 057b 07       		.uleb128 0x7
 2629 057c BB010000 		.4byte	.LASF93
 2630 0580 0D       		.byte	0xd
 2631 0581 59       		.byte	0x59
 2632 0582 64020000 		.4byte	0x264
 2633 0586 04       		.byte	0x4
 2634 0587 07       		.uleb128 0x7
 2635 0588 CB070000 		.4byte	.LASF94
ARM GAS  /tmp/ccSoisRf.s 			page 48


 2636 058c 0D       		.byte	0xd
 2637 058d 5D       		.byte	0x5d
 2638 058e 41030000 		.4byte	0x341
 2639 0592 08       		.byte	0x8
 2640 0593 07       		.uleb128 0x7
 2641 0594 C7000000 		.4byte	.LASF95
 2642 0598 0D       		.byte	0xd
 2643 0599 61       		.byte	0x61
 2644 059a 9E000000 		.4byte	0x9e
 2645 059e 0C       		.byte	0xc
 2646 059f 00       		.byte	0
 2647 05a0 03       		.uleb128 0x3
 2648 05a1 32040000 		.4byte	.LASF96
 2649 05a5 0D       		.byte	0xd
 2650 05a6 62       		.byte	0x62
 2651 05a7 67050000 		.4byte	0x567
 2652 05ab 14       		.uleb128 0x14
 2653 05ac 0804     		.2byte	0x408
 2654 05ae 0D       		.byte	0xd
 2655 05af 67       		.byte	0x67
 2656 05b0 D9050000 		.4byte	0x5d9
 2657 05b4 07       		.uleb128 0x7
 2658 05b5 8F020000 		.4byte	.LASF97
 2659 05b9 0D       		.byte	0xd
 2660 05ba 6B       		.byte	0x6b
 2661 05bb 33000000 		.4byte	0x33
 2662 05bf 00       		.byte	0
 2663 05c0 07       		.uleb128 0x7
 2664 05c1 00000000 		.4byte	.LASF98
 2665 05c5 0D       		.byte	0xd
 2666 05c6 6F       		.byte	0x6f
 2667 05c7 D9050000 		.4byte	0x5d9
 2668 05cb 04       		.byte	0x4
 2669 05cc 07       		.uleb128 0x7
 2670 05cd F1040000 		.4byte	.LASF99
 2671 05d1 0D       		.byte	0xd
 2672 05d2 73       		.byte	0x73
 2673 05d3 DF050000 		.4byte	0x5df
 2674 05d7 08       		.byte	0x8
 2675 05d8 00       		.byte	0
 2676 05d9 0A       		.uleb128 0xa
 2677 05da 04       		.byte	0x4
 2678 05db A0050000 		.4byte	0x5a0
 2679 05df 15       		.uleb128 0x15
 2680 05e0 A0050000 		.4byte	0x5a0
 2681 05e4 EF050000 		.4byte	0x5ef
 2682 05e8 16       		.uleb128 0x16
 2683 05e9 B0040000 		.4byte	0x4b0
 2684 05ed 3F       		.byte	0x3f
 2685 05ee 00       		.byte	0
 2686 05ef 03       		.uleb128 0x3
 2687 05f0 B5000000 		.4byte	.LASF100
 2688 05f4 0D       		.byte	0xd
 2689 05f5 74       		.byte	0x74
 2690 05f6 AB050000 		.4byte	0x5ab
 2691 05fa 13       		.uleb128 0x13
 2692 05fb 04       		.byte	0x4
ARM GAS  /tmp/ccSoisRf.s 			page 49


 2693 05fc 0E       		.byte	0xe
 2694 05fd 38       		.byte	0x38
 2695 05fe 0F060000 		.4byte	0x60f
 2696 0602 07       		.uleb128 0x7
 2697 0603 D8060000 		.4byte	.LASF101
 2698 0607 0E       		.byte	0xe
 2699 0608 3C       		.byte	0x3c
 2700 0609 CF000000 		.4byte	0xcf
 2701 060d 00       		.byte	0
 2702 060e 00       		.byte	0
 2703 060f 03       		.uleb128 0x3
 2704 0610 EA030000 		.4byte	.LASF102
 2705 0614 0E       		.byte	0xe
 2706 0615 3D       		.byte	0x3d
 2707 0616 FA050000 		.4byte	0x5fa
 2708 061a 13       		.uleb128 0x13
 2709 061b 18       		.byte	0x18
 2710 061c 0E       		.byte	0xe
 2711 061d 48       		.byte	0x48
 2712 061e 5D060000 		.4byte	0x65d
 2713 0622 07       		.uleb128 0x7
 2714 0623 7F060000 		.4byte	.LASF103
 2715 0627 0E       		.byte	0xe
 2716 0628 49       		.byte	0x49
 2717 0629 CF000000 		.4byte	0xcf
 2718 062d 00       		.byte	0
 2719 062e 07       		.uleb128 0x7
 2720 062f 73000000 		.4byte	.LASF104
 2721 0633 0E       		.byte	0xe
 2722 0634 4A       		.byte	0x4a
 2723 0635 CF000000 		.4byte	0xcf
 2724 0639 04       		.byte	0x4
 2725 063a 07       		.uleb128 0x7
 2726 063b 6A030000 		.4byte	.LASF105
 2727 063f 0E       		.byte	0xe
 2728 0640 4B       		.byte	0x4b
 2729 0641 CF000000 		.4byte	0xcf
 2730 0645 08       		.byte	0x8
 2731 0646 12       		.uleb128 0x12
 2732 0647 6E00     		.ascii	"n\000"
 2733 0649 0E       		.byte	0xe
 2734 064a 4C       		.byte	0x4c
 2735 064b 32010000 		.4byte	0x132
 2736 064f 0C       		.byte	0xc
 2737 0650 07       		.uleb128 0x7
 2738 0651 B0040000 		.4byte	.LASF106
 2739 0655 0E       		.byte	0xe
 2740 0656 4D       		.byte	0x4d
 2741 0657 DA000000 		.4byte	0xda
 2742 065b 10       		.byte	0x10
 2743 065c 00       		.byte	0
 2744 065d 03       		.uleb128 0x3
 2745 065e 79000000 		.4byte	.LASF107
 2746 0662 0E       		.byte	0xe
 2747 0663 4E       		.byte	0x4e
 2748 0664 1A060000 		.4byte	0x61a
 2749 0668 13       		.uleb128 0x13
ARM GAS  /tmp/ccSoisRf.s 			page 50


 2750 0669 38       		.byte	0x38
 2751 066a 0F       		.byte	0xf
 2752 066b 38       		.byte	0x38
 2753 066c A1060000 		.4byte	0x6a1
 2754 0670 07       		.uleb128 0x7
 2755 0671 27030000 		.4byte	.LASF108
 2756 0675 0F       		.byte	0xf
 2757 0676 39       		.byte	0x39
 2758 0677 32010000 		.4byte	0x132
 2759 067b 00       		.byte	0
 2760 067c 07       		.uleb128 0x7
 2761 067d 22050000 		.4byte	.LASF109
 2762 0681 0F       		.byte	0xf
 2763 0682 3A       		.byte	0x3a
 2764 0683 32010000 		.4byte	0x132
 2765 0687 04       		.byte	0x4
 2766 0688 07       		.uleb128 0x7
 2767 0689 B8070000 		.4byte	.LASF110
 2768 068d 0F       		.byte	0xf
 2769 068e 3B       		.byte	0x3b
 2770 068f 5D060000 		.4byte	0x65d
 2771 0693 08       		.byte	0x8
 2772 0694 07       		.uleb128 0x7
 2773 0695 8A030000 		.4byte	.LASF111
 2774 0699 0F       		.byte	0xf
 2775 069a 3D       		.byte	0x3d
 2776 069b 5D060000 		.4byte	0x65d
 2777 069f 20       		.byte	0x20
 2778 06a0 00       		.byte	0
 2779 06a1 03       		.uleb128 0x3
 2780 06a2 4B030000 		.4byte	.LASF112
 2781 06a6 0F       		.byte	0xf
 2782 06a7 3F       		.byte	0x3f
 2783 06a8 68060000 		.4byte	0x668
 2784 06ac 17       		.uleb128 0x17
 2785 06ad 04       		.byte	0x4
 2786 06ae 03       		.byte	0x3
 2787 06af FA       		.byte	0xfa
 2788 06b0 09070000 		.4byte	0x709
 2789 06b4 18       		.uleb128 0x18
 2790 06b5 23000000 		.4byte	.LASF113
 2791 06b9 03       		.byte	0x3
 2792 06ba 0101     		.2byte	0x101
 2793 06bc 11010000 		.4byte	0x111
 2794 06c0 18       		.uleb128 0x18
 2795 06c1 D0000000 		.4byte	.LASF114
 2796 06c5 03       		.byte	0x3
 2797 06c6 0801     		.2byte	0x108
 2798 06c8 11010000 		.4byte	0x111
 2799 06cc 18       		.uleb128 0x18
 2800 06cd 7C070000 		.4byte	.LASF115
 2801 06d1 03       		.byte	0x3
 2802 06d2 0F01     		.2byte	0x10f
 2803 06d4 41030000 		.4byte	0x341
 2804 06d8 18       		.uleb128 0x18
 2805 06d9 8E010000 		.4byte	.LASF116
 2806 06dd 03       		.byte	0x3
ARM GAS  /tmp/ccSoisRf.s 			page 51


 2807 06de 1601     		.2byte	0x116
 2808 06e0 09070000 		.4byte	0x709
 2809 06e4 18       		.uleb128 0x18
 2810 06e5 0C030000 		.4byte	.LASF117
 2811 06e9 03       		.byte	0x3
 2812 06ea 1E01     		.2byte	0x11e
 2813 06ec 34070000 		.4byte	0x734
 2814 06f0 18       		.uleb128 0x18
 2815 06f1 F5050000 		.4byte	.LASF118
 2816 06f5 03       		.byte	0x3
 2817 06f6 2701     		.2byte	0x127
 2818 06f8 6B070000 		.4byte	0x76b
 2819 06fc 18       		.uleb128 0x18
 2820 06fd 7D050000 		.4byte	.LASF119
 2821 0701 03       		.byte	0x3
 2822 0702 2F01     		.2byte	0x12f
 2823 0704 1C010000 		.4byte	0x11c
 2824 0708 00       		.byte	0
 2825 0709 0A       		.uleb128 0xa
 2826 070a 04       		.byte	0x4
 2827 070b 59020000 		.4byte	0x259
 2828 070f 06       		.uleb128 0x6
 2829 0710 D4050000 		.4byte	.LASF120
 2830 0714 0C       		.byte	0xc
 2831 0715 10       		.byte	0x10
 2832 0716 34       		.byte	0x34
 2833 0717 34070000 		.4byte	0x734
 2834 071b 07       		.uleb128 0x7
 2835 071c 87020000 		.4byte	.LASF121
 2836 0720 10       		.byte	0x10
 2837 0721 35       		.byte	0x35
 2838 0722 8E020000 		.4byte	0x28e
 2839 0726 00       		.byte	0
 2840 0727 07       		.uleb128 0x7
 2841 0728 2D030000 		.4byte	.LASF122
 2842 072c 10       		.byte	0x10
 2843 072d 37       		.byte	0x37
 2844 072e 27010000 		.4byte	0x127
 2845 0732 08       		.byte	0x8
 2846 0733 00       		.byte	0
 2847 0734 0A       		.uleb128 0xa
 2848 0735 04       		.byte	0x4
 2849 0736 0F070000 		.4byte	0x70f
 2850 073a 06       		.uleb128 0x6
 2851 073b 0F070000 		.4byte	.LASF123
 2852 073f 10       		.byte	0x10
 2853 0740 11       		.byte	0x11
 2854 0741 39       		.byte	0x39
 2855 0742 6B070000 		.4byte	0x76b
 2856 0746 07       		.uleb128 0x7
 2857 0747 47050000 		.4byte	.LASF124
 2858 074b 11       		.byte	0x11
 2859 074c 3A       		.byte	0x3a
 2860 074d 8E020000 		.4byte	0x28e
 2861 0751 00       		.byte	0
 2862 0752 07       		.uleb128 0x7
 2863 0753 C3070000 		.4byte	.LASF125
ARM GAS  /tmp/ccSoisRf.s 			page 52


 2864 0757 11       		.byte	0x11
 2865 0758 3C       		.byte	0x3c
 2866 0759 64020000 		.4byte	0x264
 2867 075d 08       		.byte	0x8
 2868 075e 07       		.uleb128 0x7
 2869 075f 84060000 		.4byte	.LASF126
 2870 0763 11       		.byte	0x11
 2871 0764 3E       		.byte	0x3e
 2872 0765 AF070000 		.4byte	0x7af
 2873 0769 0C       		.byte	0xc
 2874 076a 00       		.byte	0
 2875 076b 0A       		.uleb128 0xa
 2876 076c 04       		.byte	0x4
 2877 076d 3A070000 		.4byte	0x73a
 2878 0771 0A       		.uleb128 0xa
 2879 0772 04       		.byte	0x4
 2880 0773 77070000 		.4byte	0x777
 2881 0777 19       		.uleb128 0x19
 2882 0778 7C070000 		.4byte	0x77c
 2883 077c 04       		.uleb128 0x4
 2884 077d 01       		.byte	0x1
 2885 077e 08       		.byte	0x8
 2886 077f 66060000 		.4byte	.LASF127
 2887 0783 0A       		.uleb128 0xa
 2888 0784 04       		.byte	0x4
 2889 0785 C2040000 		.4byte	0x4c2
 2890 0789 0A       		.uleb128 0xa
 2891 078a 04       		.byte	0x4
 2892 078b 43030000 		.4byte	0x343
 2893 078f 05       		.uleb128 0x5
 2894 0790 71070000 		.4byte	0x771
 2895 0794 15       		.uleb128 0x15
 2896 0795 C2040000 		.4byte	0x4c2
 2897 0799 A4070000 		.4byte	0x7a4
 2898 079d 16       		.uleb128 0x16
 2899 079e B0040000 		.4byte	0x4b0
 2900 07a2 1E       		.byte	0x1e
 2901 07a3 00       		.byte	0
 2902 07a4 03       		.uleb128 0x3
 2903 07a5 C0020000 		.4byte	.LASF128
 2904 07a9 11       		.byte	0x11
 2905 07aa 34       		.byte	0x34
 2906 07ab 3A070000 		.4byte	0x73a
 2907 07af 0A       		.uleb128 0xa
 2908 07b0 04       		.byte	0x4
 2909 07b1 A4070000 		.4byte	0x7a4
 2910 07b5 06       		.uleb128 0x6
 2911 07b6 12040000 		.4byte	.LASF129
 2912 07ba 08       		.byte	0x8
 2913 07bb 12       		.byte	0x12
 2914 07bc 3B       		.byte	0x3b
 2915 07bd CE070000 		.4byte	0x7ce
 2916 07c1 07       		.uleb128 0x7
 2917 07c2 BF050000 		.4byte	.LASF130
 2918 07c6 12       		.byte	0x12
 2919 07c7 3C       		.byte	0x3c
 2920 07c8 8E020000 		.4byte	0x28e
ARM GAS  /tmp/ccSoisRf.s 			page 53


 2921 07cc 00       		.byte	0
 2922 07cd 00       		.byte	0
 2923 07ce 03       		.uleb128 0x3
 2924 07cf 49010000 		.4byte	.LASF131
 2925 07d3 12       		.byte	0x12
 2926 07d4 3E       		.byte	0x3e
 2927 07d5 B5070000 		.4byte	0x7b5
 2928 07d9 06       		.uleb128 0x6
 2929 07da F6060000 		.4byte	.LASF132
 2930 07de 10       		.byte	0x10
 2931 07df 13       		.byte	0x13
 2932 07e0 3B       		.byte	0x3b
 2933 07e1 16080000 		.4byte	0x816
 2934 07e5 07       		.uleb128 0x7
 2935 07e6 33030000 		.4byte	.LASF133
 2936 07ea 13       		.byte	0x13
 2937 07eb 3C       		.byte	0x3c
 2938 07ec 71070000 		.4byte	0x771
 2939 07f0 00       		.byte	0
 2940 07f1 07       		.uleb128 0x7
 2941 07f2 D6040000 		.4byte	.LASF134
 2942 07f6 13       		.byte	0x13
 2943 07f7 3D       		.byte	0x3d
 2944 07f8 17080000 		.4byte	0x817
 2945 07fc 04       		.byte	0x4
 2946 07fd 07       		.uleb128 0x7
 2947 07fe 1E030000 		.4byte	.LASF135
 2948 0802 13       		.byte	0x13
 2949 0803 3E       		.byte	0x3e
 2950 0804 17080000 		.4byte	0x817
 2951 0808 08       		.byte	0x8
 2952 0809 07       		.uleb128 0x7
 2953 080a 12050000 		.4byte	.LASF136
 2954 080e 13       		.byte	0x13
 2955 080f 3F       		.byte	0x3f
 2956 0810 17080000 		.4byte	0x817
 2957 0814 0C       		.byte	0xc
 2958 0815 00       		.byte	0
 2959 0816 1A       		.uleb128 0x1a
 2960 0817 0A       		.uleb128 0xa
 2961 0818 04       		.byte	0x4
 2962 0819 16080000 		.4byte	0x816
 2963 081d 1B       		.uleb128 0x1b
 2964 081e B4060000 		.4byte	.LASF174
 2965 0822 02       		.byte	0x2
 2966 0823 2202     		.2byte	0x222
 2967 0825 03       		.byte	0x3
 2968 0826 37080000 		.4byte	0x837
 2969 082a 1C       		.uleb128 0x1c
 2970 082b C8020000 		.4byte	.LASF175
 2971 082f 02       		.byte	0x2
 2972 0830 2202     		.2byte	0x222
 2973 0832 B4000000 		.4byte	0xb4
 2974 0836 00       		.byte	0
 2975 0837 1D       		.uleb128 0x1d
 2976 0838 69000000 		.4byte	.LASF137
 2977 083c 01       		.byte	0x1
ARM GAS  /tmp/ccSoisRf.s 			page 54


 2978 083d C801     		.2byte	0x1c8
 2979 083f 00000000 		.4byte	.LFB127
 2980 0843 10000000 		.4byte	.LFE127-.LFB127
 2981 0847 01       		.uleb128 0x1
 2982 0848 9C       		.byte	0x9c
 2983 0849 67080000 		.4byte	0x867
 2984 084d 1E       		.uleb128 0x1e
 2985 084e 1D080000 		.4byte	0x81d
 2986 0852 06000000 		.4byte	.LBB6
 2987 0856 06000000 		.4byte	.LBE6-.LBB6
 2988 085a 01       		.byte	0x1
 2989 085b CB01     		.2byte	0x1cb
 2990 085d 1F       		.uleb128 0x1f
 2991 085e 2A080000 		.4byte	0x82a
 2992 0862 02       		.uleb128 0x2
 2993 0863 91       		.byte	0x91
 2994 0864 7C       		.sleb128 -4
 2995 0865 00       		.byte	0
 2996 0866 00       		.byte	0
 2997 0867 1D       		.uleb128 0x1d
 2998 0868 82010000 		.4byte	.LASF138
 2999 086c 01       		.byte	0x1
 3000 086d D601     		.2byte	0x1d6
 3001 086f 00000000 		.4byte	.LFB128
 3002 0873 10000000 		.4byte	.LFE128-.LFB128
 3003 0877 01       		.uleb128 0x1
 3004 0878 9C       		.byte	0x9c
 3005 0879 97080000 		.4byte	0x897
 3006 087d 1E       		.uleb128 0x1e
 3007 087e 1D080000 		.4byte	0x81d
 3008 0882 06000000 		.4byte	.LBB8
 3009 0886 06000000 		.4byte	.LBE8-.LBB8
 3010 088a 01       		.byte	0x1
 3011 088b D901     		.2byte	0x1d9
 3012 088d 1F       		.uleb128 0x1f
 3013 088e 2A080000 		.4byte	0x82a
 3014 0892 02       		.uleb128 0x2
 3015 0893 91       		.byte	0x91
 3016 0894 7C       		.sleb128 -4
 3017 0895 00       		.byte	0
 3018 0896 00       		.byte	0
 3019 0897 20       		.uleb128 0x20
 3020 0898 79020000 		.4byte	.LASF176
 3021 089c 03       		.byte	0x3
 3022 089d 6802     		.2byte	0x268
 3023 089f C1080000 		.4byte	0x8c1
 3024 08a3 00000000 		.4byte	.LFB151
 3025 08a7 1A000000 		.4byte	.LFE151-.LFB151
 3026 08ab 01       		.uleb128 0x1
 3027 08ac 9C       		.byte	0x9c
 3028 08ad C1080000 		.4byte	0x8c1
 3029 08b1 21       		.uleb128 0x21
 3030 08b2 74717000 		.ascii	"tqp\000"
 3031 08b6 03       		.byte	0x3
 3032 08b7 6802     		.2byte	0x268
 3033 08b9 C8080000 		.4byte	0x8c8
 3034 08bd 02       		.uleb128 0x2
ARM GAS  /tmp/ccSoisRf.s 			page 55


 3035 08be 91       		.byte	0x91
 3036 08bf 7C       		.sleb128 -4
 3037 08c0 00       		.byte	0
 3038 08c1 04       		.uleb128 0x4
 3039 08c2 01       		.byte	0x1
 3040 08c3 02       		.byte	0x2
 3041 08c4 2B050000 		.4byte	.LASF139
 3042 08c8 0A       		.uleb128 0xa
 3043 08c9 04       		.byte	0x4
 3044 08ca CE080000 		.4byte	0x8ce
 3045 08ce 19       		.uleb128 0x19
 3046 08cf 8E020000 		.4byte	0x28e
 3047 08d3 22       		.uleb128 0x22
 3048 08d4 A4050000 		.4byte	.LASF143
 3049 08d8 04       		.byte	0x4
 3050 08d9 5A01     		.2byte	0x15a
 3051 08db 00000000 		.4byte	.LFB167
 3052 08df 10000000 		.4byte	.LFE167-.LFB167
 3053 08e3 01       		.uleb128 0x1
 3054 08e4 9C       		.byte	0x9c
 3055 08e5 23       		.uleb128 0x23
 3056 08e6 A6070000 		.4byte	.LASF140
 3057 08ea 04       		.byte	0x4
 3058 08eb 6601     		.2byte	0x166
 3059 08ed 00000000 		.4byte	.LFB168
 3060 08f1 38000000 		.4byte	.LFE168-.LFB168
 3061 08f5 01       		.uleb128 0x1
 3062 08f6 9C       		.byte	0x9c
 3063 08f7 0B090000 		.4byte	0x90b
 3064 08fb 24       		.uleb128 0x24
 3065 08fc 93050000 		.4byte	.LASF177
 3066 0900 1B090000 		.4byte	0x91b
 3067 0904 05       		.uleb128 0x5
 3068 0905 03       		.byte	0x3
 3069 0906 00000000 		.4byte	__func__.5925
 3070 090a 00       		.byte	0
 3071 090b 15       		.uleb128 0x15
 3072 090c 7C070000 		.4byte	0x77c
 3073 0910 1B090000 		.4byte	0x91b
 3074 0914 16       		.uleb128 0x16
 3075 0915 B0040000 		.4byte	0x4b0
 3076 0919 0B       		.byte	0xb
 3077 091a 00       		.byte	0
 3078 091b 19       		.uleb128 0x19
 3079 091c 0B090000 		.4byte	0x90b
 3080 0920 25       		.uleb128 0x25
 3081 0921 2D070000 		.4byte	.LASF141
 3082 0925 05       		.byte	0x5
 3083 0926 AE       		.byte	0xae
 3084 0927 64020000 		.4byte	0x264
 3085 092b 00000000 		.4byte	.LFB188
 3086 092f 0C000000 		.4byte	.LFE188-.LFB188
 3087 0933 01       		.uleb128 0x1
 3088 0934 9C       		.byte	0x9c
 3089 0935 26       		.uleb128 0x26
 3090 0936 63040000 		.4byte	.LASF142
 3091 093a 05       		.byte	0x5
ARM GAS  /tmp/ccSoisRf.s 			page 56


 3092 093b BB       		.byte	0xbb
 3093 093c 06010000 		.4byte	0x106
 3094 0940 00000000 		.4byte	.LFB189
 3095 0944 0E000000 		.4byte	.LFE189-.LFB189
 3096 0948 01       		.uleb128 0x1
 3097 0949 9C       		.byte	0x9c
 3098 094a 27       		.uleb128 0x27
 3099 094b B0010000 		.4byte	.LASF144
 3100 094f 06       		.byte	0x6
 3101 0950 54       		.byte	0x54
 3102 0951 00000000 		.4byte	.LFB240
 3103 0955 10000000 		.4byte	.LFE240-.LFB240
 3104 0959 01       		.uleb128 0x1
 3105 095a 9C       		.byte	0x9c
 3106 095b 28       		.uleb128 0x28
 3107 095c 55040000 		.4byte	.LASF145
 3108 0960 06       		.byte	0x6
 3109 0961 59       		.byte	0x59
 3110 0962 00000000 		.4byte	.LFB241
 3111 0966 28000000 		.4byte	.LFE241-.LFB241
 3112 096a 01       		.uleb128 0x1
 3113 096b 9C       		.byte	0x9c
 3114 096c 7D090000 		.4byte	0x97d
 3115 0970 29       		.uleb128 0x29
 3116 0971 7000     		.ascii	"p\000"
 3117 0973 06       		.byte	0x6
 3118 0974 59       		.byte	0x59
 3119 0975 41030000 		.4byte	0x341
 3120 0979 02       		.uleb128 0x2
 3121 097a 91       		.byte	0x91
 3122 097b 74       		.sleb128 -12
 3123 097c 00       		.byte	0
 3124 097d 28       		.uleb128 0x28
 3125 097e 12010000 		.4byte	.LASF146
 3126 0982 06       		.byte	0x6
 3127 0983 60       		.byte	0x60
 3128 0984 00000000 		.4byte	.LFB242
 3129 0988 1C010000 		.4byte	.LFE242-.LFB242
 3130 098c 01       		.uleb128 0x1
 3131 098d 9C       		.byte	0x9c
 3132 098e A1090000 		.4byte	0x9a1
 3133 0992 2A       		.uleb128 0x2a
 3134 0993 8D040000 		.4byte	.LASF151
 3135 0997 06       		.byte	0x6
 3136 0998 62       		.byte	0x62
 3137 0999 06010000 		.4byte	0x106
 3138 099d 02       		.uleb128 0x2
 3139 099e 91       		.byte	0x91
 3140 099f 74       		.sleb128 -12
 3141 09a0 00       		.byte	0
 3142 09a1 22       		.uleb128 0x22
 3143 09a2 75040000 		.4byte	.LASF147
 3144 09a6 06       		.byte	0x6
 3145 09a7 4C01     		.2byte	0x14c
 3146 09a9 00000000 		.4byte	.LFB243
 3147 09ad 18000000 		.4byte	.LFE243-.LFB243
 3148 09b1 01       		.uleb128 0x1
ARM GAS  /tmp/ccSoisRf.s 			page 57


 3149 09b2 9C       		.byte	0x9c
 3150 09b3 23       		.uleb128 0x23
 3151 09b4 8C000000 		.4byte	.LASF148
 3152 09b8 06       		.byte	0x6
 3153 09b9 5201     		.2byte	0x152
 3154 09bb 00000000 		.4byte	.LFB244
 3155 09bf 24000000 		.4byte	.LFE244-.LFB244
 3156 09c3 01       		.uleb128 0x1
 3157 09c4 9C       		.byte	0x9c
 3158 09c5 D7090000 		.4byte	0x9d7
 3159 09c9 21       		.uleb128 0x21
 3160 09ca 7000     		.ascii	"p\000"
 3161 09cc 06       		.byte	0x6
 3162 09cd 5201     		.2byte	0x152
 3163 09cf 41030000 		.4byte	0x341
 3164 09d3 02       		.uleb128 0x2
 3165 09d4 91       		.byte	0x91
 3166 09d5 74       		.sleb128 -12
 3167 09d6 00       		.byte	0
 3168 09d7 23       		.uleb128 0x23
 3169 09d8 95000000 		.4byte	.LASF149
 3170 09dc 06       		.byte	0x6
 3171 09dd 5A01     		.2byte	0x15a
 3172 09df 00000000 		.4byte	.LFB245
 3173 09e3 24000000 		.4byte	.LFE245-.LFB245
 3174 09e7 01       		.uleb128 0x1
 3175 09e8 9C       		.byte	0x9c
 3176 09e9 FB090000 		.4byte	0x9fb
 3177 09ed 21       		.uleb128 0x21
 3178 09ee 7000     		.ascii	"p\000"
 3179 09f0 06       		.byte	0x6
 3180 09f1 5A01     		.2byte	0x15a
 3181 09f3 41030000 		.4byte	0x341
 3182 09f7 02       		.uleb128 0x2
 3183 09f8 91       		.byte	0x91
 3184 09f9 74       		.sleb128 -12
 3185 09fa 00       		.byte	0
 3186 09fb 23       		.uleb128 0x23
 3187 09fc 80040000 		.4byte	.LASF150
 3188 0a00 06       		.byte	0x6
 3189 0a01 6201     		.2byte	0x162
 3190 0a03 00000000 		.4byte	.LFB246
 3191 0a07 00030000 		.4byte	.LFE246-.LFB246
 3192 0a0b 01       		.uleb128 0x1
 3193 0a0c 9C       		.byte	0x9c
 3194 0a0d 3B0A0000 		.4byte	0xa3b
 3195 0a11 2B       		.uleb128 0x2b
 3196 0a12 7000     		.ascii	"p\000"
 3197 0a14 06       		.byte	0x6
 3198 0a15 6301     		.2byte	0x163
 3199 0a17 06010000 		.4byte	0x106
 3200 0a1b 02       		.uleb128 0x2
 3201 0a1c 91       		.byte	0x91
 3202 0a1d 74       		.sleb128 -12
 3203 0a1e 2B       		.uleb128 0x2b
 3204 0a1f 703100   		.ascii	"p1\000"
 3205 0a22 06       		.byte	0x6
ARM GAS  /tmp/ccSoisRf.s 			page 58


 3206 0a23 6301     		.2byte	0x163
 3207 0a25 06010000 		.4byte	0x106
 3208 0a29 02       		.uleb128 0x2
 3209 0a2a 91       		.byte	0x91
 3210 0a2b 70       		.sleb128 -16
 3211 0a2c 2B       		.uleb128 0x2b
 3212 0a2d 703200   		.ascii	"p2\000"
 3213 0a30 06       		.byte	0x6
 3214 0a31 6301     		.2byte	0x163
 3215 0a33 06010000 		.4byte	0x106
 3216 0a37 02       		.uleb128 0x2
 3217 0a38 91       		.byte	0x91
 3218 0a39 6C       		.sleb128 -20
 3219 0a3a 00       		.byte	0
 3220 0a3b 22       		.uleb128 0x22
 3221 0a3c 6B060000 		.4byte	.LASF152
 3222 0a40 06       		.byte	0x6
 3223 0a41 A201     		.2byte	0x1a2
 3224 0a43 00000000 		.4byte	.LFB247
 3225 0a47 10000000 		.4byte	.LFE247-.LFB247
 3226 0a4b 01       		.uleb128 0x1
 3227 0a4c 9C       		.byte	0x9c
 3228 0a4d 23       		.uleb128 0x23
 3229 0a4e C7050000 		.4byte	.LASF153
 3230 0a52 06       		.byte	0x6
 3231 0a53 A701     		.2byte	0x1a7
 3232 0a55 00000000 		.4byte	.LFB248
 3233 0a59 10010000 		.4byte	.LFE248-.LFB248
 3234 0a5d 01       		.uleb128 0x1
 3235 0a5e 9C       		.byte	0x9c
 3236 0a5f 800A0000 		.4byte	0xa80
 3237 0a63 2B       		.uleb128 0x2b
 3238 0a64 6200     		.ascii	"b\000"
 3239 0a66 06       		.byte	0x6
 3240 0a67 AA01     		.2byte	0x1aa
 3241 0a69 C1080000 		.4byte	0x8c1
 3242 0a6d 02       		.uleb128 0x2
 3243 0a6e 91       		.byte	0x91
 3244 0a6f 73       		.sleb128 -13
 3245 0a70 2C       		.uleb128 0x2c
 3246 0a71 8D040000 		.4byte	.LASF151
 3247 0a75 06       		.byte	0x6
 3248 0a76 AB01     		.2byte	0x1ab
 3249 0a78 06010000 		.4byte	0x106
 3250 0a7c 02       		.uleb128 0x2
 3251 0a7d 91       		.byte	0x91
 3252 0a7e 74       		.sleb128 -12
 3253 0a7f 00       		.byte	0
 3254 0a80 22       		.uleb128 0x22
 3255 0a81 A5040000 		.4byte	.LASF154
 3256 0a85 06       		.byte	0x6
 3257 0a86 D501     		.2byte	0x1d5
 3258 0a88 00000000 		.4byte	.LFB249
 3259 0a8c 18000000 		.4byte	.LFE249-.LFB249
 3260 0a90 01       		.uleb128 0x1
 3261 0a91 9C       		.byte	0x9c
 3262 0a92 23       		.uleb128 0x23
ARM GAS  /tmp/ccSoisRf.s 			page 59


 3263 0a93 BB040000 		.4byte	.LASF155
 3264 0a97 06       		.byte	0x6
 3265 0a98 DB01     		.2byte	0x1db
 3266 0a9a 00000000 		.4byte	.LFB250
 3267 0a9e 30000000 		.4byte	.LFE250-.LFB250
 3268 0aa2 01       		.uleb128 0x1
 3269 0aa3 9C       		.byte	0x9c
 3270 0aa4 B60A0000 		.4byte	0xab6
 3271 0aa8 21       		.uleb128 0x21
 3272 0aa9 7000     		.ascii	"p\000"
 3273 0aab 06       		.byte	0x6
 3274 0aac DB01     		.2byte	0x1db
 3275 0aae 41030000 		.4byte	0x341
 3276 0ab2 02       		.uleb128 0x2
 3277 0ab3 91       		.byte	0x91
 3278 0ab4 74       		.sleb128 -12
 3279 0ab5 00       		.byte	0
 3280 0ab6 23       		.uleb128 0x23
 3281 0ab7 25040000 		.4byte	.LASF156
 3282 0abb 06       		.byte	0x6
 3283 0abc E301     		.2byte	0x1e3
 3284 0abe 00000000 		.4byte	.LFB251
 3285 0ac2 18010000 		.4byte	.LFE251-.LFB251
 3286 0ac6 01       		.uleb128 0x1
 3287 0ac7 9C       		.byte	0x9c
 3288 0ac8 DC0A0000 		.4byte	0xadc
 3289 0acc 2C       		.uleb128 0x2c
 3290 0acd 8D040000 		.4byte	.LASF151
 3291 0ad1 06       		.byte	0x6
 3292 0ad2 E501     		.2byte	0x1e5
 3293 0ad4 06010000 		.4byte	0x106
 3294 0ad8 02       		.uleb128 0x2
 3295 0ad9 91       		.byte	0x91
 3296 0ada 74       		.sleb128 -12
 3297 0adb 00       		.byte	0
 3298 0adc 22       		.uleb128 0x22
 3299 0add D9000000 		.4byte	.LASF157
 3300 0ae1 06       		.byte	0x6
 3301 0ae2 0802     		.2byte	0x208
 3302 0ae4 00000000 		.4byte	.LFB252
 3303 0ae8 18000000 		.4byte	.LFE252-.LFB252
 3304 0aec 01       		.uleb128 0x1
 3305 0aed 9C       		.byte	0x9c
 3306 0aee 23       		.uleb128 0x23
 3307 0aef C2060000 		.4byte	.LASF158
 3308 0af3 06       		.byte	0x6
 3309 0af4 0E02     		.2byte	0x20e
 3310 0af6 00000000 		.4byte	.LFB253
 3311 0afa F4000000 		.4byte	.LFE253-.LFB253
 3312 0afe 01       		.uleb128 0x1
 3313 0aff 9C       		.byte	0x9c
 3314 0b00 140B0000 		.4byte	0xb14
 3315 0b04 2C       		.uleb128 0x2c
 3316 0b05 8D040000 		.4byte	.LASF151
 3317 0b09 06       		.byte	0x6
 3318 0b0a 1002     		.2byte	0x210
 3319 0b0c 06010000 		.4byte	0x106
ARM GAS  /tmp/ccSoisRf.s 			page 60


 3320 0b10 02       		.uleb128 0x2
 3321 0b11 91       		.byte	0x91
 3322 0b12 74       		.sleb128 -12
 3323 0b13 00       		.byte	0
 3324 0b14 22       		.uleb128 0x22
 3325 0b15 4D070000 		.4byte	.LASF159
 3326 0b19 06       		.byte	0x6
 3327 0b1a 2B02     		.2byte	0x22b
 3328 0b1c 00000000 		.4byte	.LFB254
 3329 0b20 24000000 		.4byte	.LFE254-.LFB254
 3330 0b24 01       		.uleb128 0x1
 3331 0b25 9C       		.byte	0x9c
 3332 0b26 23       		.uleb128 0x23
 3333 0b27 C4040000 		.4byte	.LASF160
 3334 0b2b 06       		.byte	0x6
 3335 0b2c 3202     		.2byte	0x232
 3336 0b2e 00000000 		.4byte	.LFB255
 3337 0b32 44000000 		.4byte	.LFE255-.LFB255
 3338 0b36 01       		.uleb128 0x1
 3339 0b37 9C       		.byte	0x9c
 3340 0b38 4A0B0000 		.4byte	0xb4a
 3341 0b3c 21       		.uleb128 0x21
 3342 0b3d 7000     		.ascii	"p\000"
 3343 0b3f 06       		.byte	0x6
 3344 0b40 3202     		.2byte	0x232
 3345 0b42 41030000 		.4byte	0x341
 3346 0b46 02       		.uleb128 0x2
 3347 0b47 91       		.byte	0x91
 3348 0b48 74       		.sleb128 -12
 3349 0b49 00       		.byte	0
 3350 0b4a 23       		.uleb128 0x23
 3351 0b4b CD040000 		.4byte	.LASF161
 3352 0b4f 06       		.byte	0x6
 3353 0b50 4002     		.2byte	0x240
 3354 0b52 00000000 		.4byte	.LFB256
 3355 0b56 28000000 		.4byte	.LFE256-.LFB256
 3356 0b5a 01       		.uleb128 0x1
 3357 0b5b 9C       		.byte	0x9c
 3358 0b5c 6E0B0000 		.4byte	0xb6e
 3359 0b60 21       		.uleb128 0x21
 3360 0b61 7000     		.ascii	"p\000"
 3361 0b63 06       		.byte	0x6
 3362 0b64 4002     		.2byte	0x240
 3363 0b66 41030000 		.4byte	0x341
 3364 0b6a 02       		.uleb128 0x2
 3365 0b6b 91       		.byte	0x91
 3366 0b6c 74       		.sleb128 -12
 3367 0b6d 00       		.byte	0
 3368 0b6e 23       		.uleb128 0x23
 3369 0b6f 6E010000 		.4byte	.LASF162
 3370 0b73 06       		.byte	0x6
 3371 0b74 4702     		.2byte	0x247
 3372 0b76 00000000 		.4byte	.LFB257
 3373 0b7a B8000000 		.4byte	.LFE257-.LFB257
 3374 0b7e 01       		.uleb128 0x1
 3375 0b7f 9C       		.byte	0x9c
 3376 0b80 940B0000 		.4byte	0xb94
ARM GAS  /tmp/ccSoisRf.s 			page 61


 3377 0b84 2C       		.uleb128 0x2c
 3378 0b85 8D040000 		.4byte	.LASF151
 3379 0b89 06       		.byte	0x6
 3380 0b8a 4902     		.2byte	0x249
 3381 0b8c 06010000 		.4byte	0x106
 3382 0b90 02       		.uleb128 0x2
 3383 0b91 91       		.byte	0x91
 3384 0b92 74       		.sleb128 -12
 3385 0b93 00       		.byte	0
 3386 0b94 2D       		.uleb128 0x2d
 3387 0b95 6D3100   		.ascii	"m1\000"
 3388 0b98 06       		.byte	0x6
 3389 0b99 44       		.byte	0x44
 3390 0b9a A4070000 		.4byte	0x7a4
 3391 0b9e 05       		.uleb128 0x5
 3392 0b9f 03       		.byte	0x3
 3393 0ba0 00000000 		.4byte	m1
 3394 0ba4 2D       		.uleb128 0x2d
 3395 0ba5 6D3200   		.ascii	"m2\000"
 3396 0ba8 06       		.byte	0x6
 3397 0ba9 45       		.byte	0x45
 3398 0baa A4070000 		.4byte	0x7a4
 3399 0bae 05       		.uleb128 0x5
 3400 0baf 03       		.byte	0x3
 3401 0bb0 00000000 		.4byte	m2
 3402 0bb4 2D       		.uleb128 0x2d
 3403 0bb5 633100   		.ascii	"c1\000"
 3404 0bb8 06       		.byte	0x6
 3405 0bb9 47       		.byte	0x47
 3406 0bba CE070000 		.4byte	0x7ce
 3407 0bbe 05       		.uleb128 0x5
 3408 0bbf 03       		.byte	0x3
 3409 0bc0 00000000 		.4byte	c1
 3410 0bc4 2E       		.uleb128 0x2e
 3411 0bc5 05010000 		.4byte	.LASF163
 3412 0bc9 14       		.byte	0x14
 3413 0bca FA06     		.2byte	0x6fa
 3414 0bcc CA000000 		.4byte	0xca
 3415 0bd0 2F       		.uleb128 0x2f
 3416 0bd1 636800   		.ascii	"ch\000"
 3417 0bd4 03       		.byte	0x3
 3418 0bd5 0902     		.2byte	0x209
 3419 0bd7 38040000 		.4byte	0x438
 3420 0bdb 15       		.uleb128 0x15
 3421 0bdc 64020000 		.4byte	0x264
 3422 0be0 EB0B0000 		.4byte	0xbeb
 3423 0be4 16       		.uleb128 0x16
 3424 0be5 B0040000 		.4byte	0x4b0
 3425 0be9 04       		.byte	0x4
 3426 0bea 00       		.byte	0
 3427 0beb 30       		.uleb128 0x30
 3428 0bec 6E050000 		.4byte	.LASF164
 3429 0bf0 13       		.byte	0x13
 3430 0bf1 A7       		.byte	0xa7
 3431 0bf2 DB0B0000 		.4byte	0xbdb
 3432 0bf6 15       		.uleb128 0x15
 3433 0bf7 41030000 		.4byte	0x341
ARM GAS  /tmp/ccSoisRf.s 			page 62


 3434 0bfb 010C0000 		.4byte	0xc01
 3435 0bff 31       		.uleb128 0x31
 3436 0c00 00       		.byte	0
 3437 0c01 32       		.uleb128 0x32
 3438 0c02 776100   		.ascii	"wa\000"
 3439 0c05 13       		.byte	0x13
 3440 0c06 A9       		.byte	0xa9
 3441 0c07 0B0C0000 		.4byte	0xc0b
 3442 0c0b 19       		.uleb128 0x19
 3443 0c0c F60B0000 		.4byte	0xbf6
 3444 0c10 33       		.uleb128 0x33
 3445 0c11 CF060000 		.4byte	.LASF165
 3446 0c15 06       		.byte	0x6
 3447 0c16 6F       		.byte	0x6f
 3448 0c17 210C0000 		.4byte	0xc21
 3449 0c1b 05       		.uleb128 0x5
 3450 0c1c 03       		.byte	0x3
 3451 0c1d 00000000 		.4byte	testmtx1
 3452 0c21 19       		.uleb128 0x19
 3453 0c22 D9070000 		.4byte	0x7d9
 3454 0c26 34       		.uleb128 0x34
 3455 0c27 1D060000 		.4byte	.LASF166
 3456 0c2b 06       		.byte	0x6
 3457 0c2c 9101     		.2byte	0x191
 3458 0c2e 210C0000 		.4byte	0xc21
 3459 0c32 05       		.uleb128 0x5
 3460 0c33 03       		.byte	0x3
 3461 0c34 00000000 		.4byte	testmtx4
 3462 0c38 34       		.uleb128 0x34
 3463 0c39 26060000 		.4byte	.LASF167
 3464 0c3d 06       		.byte	0x6
 3465 0c3e C201     		.2byte	0x1c2
 3466 0c40 210C0000 		.4byte	0xc21
 3467 0c44 05       		.uleb128 0x5
 3468 0c45 03       		.byte	0x3
 3469 0c46 00000000 		.4byte	testmtx5
 3470 0c4a 34       		.uleb128 0x34
 3471 0c4b 2F060000 		.4byte	.LASF168
 3472 0c4f 06       		.byte	0x6
 3473 0c50 F701     		.2byte	0x1f7
 3474 0c52 210C0000 		.4byte	0xc21
 3475 0c56 05       		.uleb128 0x5
 3476 0c57 03       		.byte	0x3
 3477 0c58 00000000 		.4byte	testmtx6
 3478 0c5c 34       		.uleb128 0x34
 3479 0c5d 38060000 		.4byte	.LASF169
 3480 0c61 06       		.byte	0x6
 3481 0c62 1B02     		.2byte	0x21b
 3482 0c64 210C0000 		.4byte	0xc21
 3483 0c68 05       		.uleb128 0x5
 3484 0c69 03       		.byte	0x3
 3485 0c6a 00000000 		.4byte	testmtx7
 3486 0c6e 34       		.uleb128 0x34
 3487 0c6f 41060000 		.4byte	.LASF170
 3488 0c73 06       		.byte	0x6
 3489 0c74 5302     		.2byte	0x253
 3490 0c76 210C0000 		.4byte	0xc21
ARM GAS  /tmp/ccSoisRf.s 			page 63


 3491 0c7a 05       		.uleb128 0x5
 3492 0c7b 03       		.byte	0x3
 3493 0c7c 00000000 		.4byte	testmtx8
 3494 0c80 15       		.uleb128 0x15
 3495 0c81 900C0000 		.4byte	0xc90
 3496 0c85 900C0000 		.4byte	0xc90
 3497 0c89 16       		.uleb128 0x16
 3498 0c8a B0040000 		.4byte	0x4b0
 3499 0c8e 06       		.byte	0x6
 3500 0c8f 00       		.byte	0
 3501 0c90 0A       		.uleb128 0xa
 3502 0c91 04       		.byte	0x4
 3503 0c92 210C0000 		.4byte	0xc21
 3504 0c96 34       		.uleb128 0x34
 3505 0c97 4F050000 		.4byte	.LASF171
 3506 0c9b 06       		.byte	0x6
 3507 0c9c 5F02     		.2byte	0x25f
 3508 0c9e A80C0000 		.4byte	0xca8
 3509 0ca2 05       		.uleb128 0x5
 3510 0ca3 03       		.byte	0x3
 3511 0ca4 00000000 		.4byte	patternmtx
 3512 0ca8 19       		.uleb128 0x19
 3513 0ca9 800C0000 		.4byte	0xc80
 3514 0cad 00       		.byte	0
 3515              		.section	.debug_abbrev,"",%progbits
 3516              	.Ldebug_abbrev0:
 3517 0000 01       		.uleb128 0x1
 3518 0001 11       		.uleb128 0x11
 3519 0002 01       		.byte	0x1
 3520 0003 25       		.uleb128 0x25
 3521 0004 0E       		.uleb128 0xe
 3522 0005 13       		.uleb128 0x13
 3523 0006 0B       		.uleb128 0xb
 3524 0007 03       		.uleb128 0x3
 3525 0008 0E       		.uleb128 0xe
 3526 0009 55       		.uleb128 0x55
 3527 000a 17       		.uleb128 0x17
 3528 000b 11       		.uleb128 0x11
 3529 000c 01       		.uleb128 0x1
 3530 000d 10       		.uleb128 0x10
 3531 000e 17       		.uleb128 0x17
 3532 000f 00       		.byte	0
 3533 0010 00       		.byte	0
 3534 0011 02       		.uleb128 0x2
 3535 0012 24       		.uleb128 0x24
 3536 0013 00       		.byte	0
 3537 0014 0B       		.uleb128 0xb
 3538 0015 0B       		.uleb128 0xb
 3539 0016 3E       		.uleb128 0x3e
 3540 0017 0B       		.uleb128 0xb
 3541 0018 03       		.uleb128 0x3
 3542 0019 08       		.uleb128 0x8
 3543 001a 00       		.byte	0
 3544 001b 00       		.byte	0
 3545 001c 03       		.uleb128 0x3
 3546 001d 16       		.uleb128 0x16
 3547 001e 00       		.byte	0
ARM GAS  /tmp/ccSoisRf.s 			page 64


 3548 001f 03       		.uleb128 0x3
 3549 0020 0E       		.uleb128 0xe
 3550 0021 3A       		.uleb128 0x3a
 3551 0022 0B       		.uleb128 0xb
 3552 0023 3B       		.uleb128 0x3b
 3553 0024 0B       		.uleb128 0xb
 3554 0025 49       		.uleb128 0x49
 3555 0026 13       		.uleb128 0x13
 3556 0027 00       		.byte	0
 3557 0028 00       		.byte	0
 3558 0029 04       		.uleb128 0x4
 3559 002a 24       		.uleb128 0x24
 3560 002b 00       		.byte	0
 3561 002c 0B       		.uleb128 0xb
 3562 002d 0B       		.uleb128 0xb
 3563 002e 3E       		.uleb128 0x3e
 3564 002f 0B       		.uleb128 0xb
 3565 0030 03       		.uleb128 0x3
 3566 0031 0E       		.uleb128 0xe
 3567 0032 00       		.byte	0
 3568 0033 00       		.byte	0
 3569 0034 05       		.uleb128 0x5
 3570 0035 35       		.uleb128 0x35
 3571 0036 00       		.byte	0
 3572 0037 49       		.uleb128 0x49
 3573 0038 13       		.uleb128 0x13
 3574 0039 00       		.byte	0
 3575 003a 00       		.byte	0
 3576 003b 06       		.uleb128 0x6
 3577 003c 13       		.uleb128 0x13
 3578 003d 01       		.byte	0x1
 3579 003e 03       		.uleb128 0x3
 3580 003f 0E       		.uleb128 0xe
 3581 0040 0B       		.uleb128 0xb
 3582 0041 0B       		.uleb128 0xb
 3583 0042 3A       		.uleb128 0x3a
 3584 0043 0B       		.uleb128 0xb
 3585 0044 3B       		.uleb128 0x3b
 3586 0045 0B       		.uleb128 0xb
 3587 0046 01       		.uleb128 0x1
 3588 0047 13       		.uleb128 0x13
 3589 0048 00       		.byte	0
 3590 0049 00       		.byte	0
 3591 004a 07       		.uleb128 0x7
 3592 004b 0D       		.uleb128 0xd
 3593 004c 00       		.byte	0
 3594 004d 03       		.uleb128 0x3
 3595 004e 0E       		.uleb128 0xe
 3596 004f 3A       		.uleb128 0x3a
 3597 0050 0B       		.uleb128 0xb
 3598 0051 3B       		.uleb128 0x3b
 3599 0052 0B       		.uleb128 0xb
 3600 0053 49       		.uleb128 0x49
 3601 0054 13       		.uleb128 0x13
 3602 0055 38       		.uleb128 0x38
 3603 0056 0B       		.uleb128 0xb
 3604 0057 00       		.byte	0
ARM GAS  /tmp/ccSoisRf.s 			page 65


 3605 0058 00       		.byte	0
 3606 0059 08       		.uleb128 0x8
 3607 005a 0D       		.uleb128 0xd
 3608 005b 00       		.byte	0
 3609 005c 03       		.uleb128 0x3
 3610 005d 08       		.uleb128 0x8
 3611 005e 3A       		.uleb128 0x3a
 3612 005f 0B       		.uleb128 0xb
 3613 0060 3B       		.uleb128 0x3b
 3614 0061 05       		.uleb128 0x5
 3615 0062 49       		.uleb128 0x49
 3616 0063 13       		.uleb128 0x13
 3617 0064 38       		.uleb128 0x38
 3618 0065 0B       		.uleb128 0xb
 3619 0066 00       		.byte	0
 3620 0067 00       		.byte	0
 3621 0068 09       		.uleb128 0x9
 3622 0069 0D       		.uleb128 0xd
 3623 006a 00       		.byte	0
 3624 006b 03       		.uleb128 0x3
 3625 006c 0E       		.uleb128 0xe
 3626 006d 3A       		.uleb128 0x3a
 3627 006e 0B       		.uleb128 0xb
 3628 006f 3B       		.uleb128 0x3b
 3629 0070 05       		.uleb128 0x5
 3630 0071 49       		.uleb128 0x49
 3631 0072 13       		.uleb128 0x13
 3632 0073 38       		.uleb128 0x38
 3633 0074 0B       		.uleb128 0xb
 3634 0075 00       		.byte	0
 3635 0076 00       		.byte	0
 3636 0077 0A       		.uleb128 0xa
 3637 0078 0F       		.uleb128 0xf
 3638 0079 00       		.byte	0
 3639 007a 0B       		.uleb128 0xb
 3640 007b 0B       		.uleb128 0xb
 3641 007c 49       		.uleb128 0x49
 3642 007d 13       		.uleb128 0x13
 3643 007e 00       		.byte	0
 3644 007f 00       		.byte	0
 3645 0080 0B       		.uleb128 0xb
 3646 0081 13       		.uleb128 0x13
 3647 0082 01       		.byte	0x1
 3648 0083 03       		.uleb128 0x3
 3649 0084 0E       		.uleb128 0xe
 3650 0085 0B       		.uleb128 0xb
 3651 0086 0B       		.uleb128 0xb
 3652 0087 3A       		.uleb128 0x3a
 3653 0088 0B       		.uleb128 0xb
 3654 0089 3B       		.uleb128 0x3b
 3655 008a 05       		.uleb128 0x5
 3656 008b 01       		.uleb128 0x1
 3657 008c 13       		.uleb128 0x13
 3658 008d 00       		.byte	0
 3659 008e 00       		.byte	0
 3660 008f 0C       		.uleb128 0xc
 3661 0090 15       		.uleb128 0x15
ARM GAS  /tmp/ccSoisRf.s 			page 66


 3662 0091 01       		.byte	0x1
 3663 0092 27       		.uleb128 0x27
 3664 0093 19       		.uleb128 0x19
 3665 0094 01       		.uleb128 0x1
 3666 0095 13       		.uleb128 0x13
 3667 0096 00       		.byte	0
 3668 0097 00       		.byte	0
 3669 0098 0D       		.uleb128 0xd
 3670 0099 05       		.uleb128 0x5
 3671 009a 00       		.byte	0
 3672 009b 49       		.uleb128 0x49
 3673 009c 13       		.uleb128 0x13
 3674 009d 00       		.byte	0
 3675 009e 00       		.byte	0
 3676 009f 0E       		.uleb128 0xe
 3677 00a0 0F       		.uleb128 0xf
 3678 00a1 00       		.byte	0
 3679 00a2 0B       		.uleb128 0xb
 3680 00a3 0B       		.uleb128 0xb
 3681 00a4 00       		.byte	0
 3682 00a5 00       		.byte	0
 3683 00a6 0F       		.uleb128 0xf
 3684 00a7 13       		.uleb128 0x13
 3685 00a8 01       		.byte	0x1
 3686 00a9 03       		.uleb128 0x3
 3687 00aa 0E       		.uleb128 0xe
 3688 00ab 0B       		.uleb128 0xb
 3689 00ac 05       		.uleb128 0x5
 3690 00ad 3A       		.uleb128 0x3a
 3691 00ae 0B       		.uleb128 0xb
 3692 00af 3B       		.uleb128 0x3b
 3693 00b0 05       		.uleb128 0x5
 3694 00b1 01       		.uleb128 0x1
 3695 00b2 13       		.uleb128 0x13
 3696 00b3 00       		.byte	0
 3697 00b4 00       		.byte	0
 3698 00b5 10       		.uleb128 0x10
 3699 00b6 0D       		.uleb128 0xd
 3700 00b7 00       		.byte	0
 3701 00b8 03       		.uleb128 0x3
 3702 00b9 0E       		.uleb128 0xe
 3703 00ba 3A       		.uleb128 0x3a
 3704 00bb 0B       		.uleb128 0xb
 3705 00bc 3B       		.uleb128 0x3b
 3706 00bd 05       		.uleb128 0x5
 3707 00be 49       		.uleb128 0x49
 3708 00bf 13       		.uleb128 0x13
 3709 00c0 38       		.uleb128 0x38
 3710 00c1 05       		.uleb128 0x5
 3711 00c2 00       		.byte	0
 3712 00c3 00       		.byte	0
 3713 00c4 11       		.uleb128 0x11
 3714 00c5 0D       		.uleb128 0xd
 3715 00c6 00       		.byte	0
 3716 00c7 03       		.uleb128 0x3
 3717 00c8 08       		.uleb128 0x8
 3718 00c9 3A       		.uleb128 0x3a
ARM GAS  /tmp/ccSoisRf.s 			page 67


 3719 00ca 0B       		.uleb128 0xb
 3720 00cb 3B       		.uleb128 0x3b
 3721 00cc 05       		.uleb128 0x5
 3722 00cd 49       		.uleb128 0x49
 3723 00ce 13       		.uleb128 0x13
 3724 00cf 38       		.uleb128 0x38
 3725 00d0 05       		.uleb128 0x5
 3726 00d1 00       		.byte	0
 3727 00d2 00       		.byte	0
 3728 00d3 12       		.uleb128 0x12
 3729 00d4 0D       		.uleb128 0xd
 3730 00d5 00       		.byte	0
 3731 00d6 03       		.uleb128 0x3
 3732 00d7 08       		.uleb128 0x8
 3733 00d8 3A       		.uleb128 0x3a
 3734 00d9 0B       		.uleb128 0xb
 3735 00da 3B       		.uleb128 0x3b
 3736 00db 0B       		.uleb128 0xb
 3737 00dc 49       		.uleb128 0x49
 3738 00dd 13       		.uleb128 0x13
 3739 00de 38       		.uleb128 0x38
 3740 00df 0B       		.uleb128 0xb
 3741 00e0 00       		.byte	0
 3742 00e1 00       		.byte	0
 3743 00e2 13       		.uleb128 0x13
 3744 00e3 13       		.uleb128 0x13
 3745 00e4 01       		.byte	0x1
 3746 00e5 0B       		.uleb128 0xb
 3747 00e6 0B       		.uleb128 0xb
 3748 00e7 3A       		.uleb128 0x3a
 3749 00e8 0B       		.uleb128 0xb
 3750 00e9 3B       		.uleb128 0x3b
 3751 00ea 0B       		.uleb128 0xb
 3752 00eb 01       		.uleb128 0x1
 3753 00ec 13       		.uleb128 0x13
 3754 00ed 00       		.byte	0
 3755 00ee 00       		.byte	0
 3756 00ef 14       		.uleb128 0x14
 3757 00f0 13       		.uleb128 0x13
 3758 00f1 01       		.byte	0x1
 3759 00f2 0B       		.uleb128 0xb
 3760 00f3 05       		.uleb128 0x5
 3761 00f4 3A       		.uleb128 0x3a
 3762 00f5 0B       		.uleb128 0xb
 3763 00f6 3B       		.uleb128 0x3b
 3764 00f7 0B       		.uleb128 0xb
 3765 00f8 01       		.uleb128 0x1
 3766 00f9 13       		.uleb128 0x13
 3767 00fa 00       		.byte	0
 3768 00fb 00       		.byte	0
 3769 00fc 15       		.uleb128 0x15
 3770 00fd 01       		.uleb128 0x1
 3771 00fe 01       		.byte	0x1
 3772 00ff 49       		.uleb128 0x49
 3773 0100 13       		.uleb128 0x13
 3774 0101 01       		.uleb128 0x1
 3775 0102 13       		.uleb128 0x13
ARM GAS  /tmp/ccSoisRf.s 			page 68


 3776 0103 00       		.byte	0
 3777 0104 00       		.byte	0
 3778 0105 16       		.uleb128 0x16
 3779 0106 21       		.uleb128 0x21
 3780 0107 00       		.byte	0
 3781 0108 49       		.uleb128 0x49
 3782 0109 13       		.uleb128 0x13
 3783 010a 2F       		.uleb128 0x2f
 3784 010b 0B       		.uleb128 0xb
 3785 010c 00       		.byte	0
 3786 010d 00       		.byte	0
 3787 010e 17       		.uleb128 0x17
 3788 010f 17       		.uleb128 0x17
 3789 0110 01       		.byte	0x1
 3790 0111 0B       		.uleb128 0xb
 3791 0112 0B       		.uleb128 0xb
 3792 0113 3A       		.uleb128 0x3a
 3793 0114 0B       		.uleb128 0xb
 3794 0115 3B       		.uleb128 0x3b
 3795 0116 0B       		.uleb128 0xb
 3796 0117 01       		.uleb128 0x1
 3797 0118 13       		.uleb128 0x13
 3798 0119 00       		.byte	0
 3799 011a 00       		.byte	0
 3800 011b 18       		.uleb128 0x18
 3801 011c 0D       		.uleb128 0xd
 3802 011d 00       		.byte	0
 3803 011e 03       		.uleb128 0x3
 3804 011f 0E       		.uleb128 0xe
 3805 0120 3A       		.uleb128 0x3a
 3806 0121 0B       		.uleb128 0xb
 3807 0122 3B       		.uleb128 0x3b
 3808 0123 05       		.uleb128 0x5
 3809 0124 49       		.uleb128 0x49
 3810 0125 13       		.uleb128 0x13
 3811 0126 00       		.byte	0
 3812 0127 00       		.byte	0
 3813 0128 19       		.uleb128 0x19
 3814 0129 26       		.uleb128 0x26
 3815 012a 00       		.byte	0
 3816 012b 49       		.uleb128 0x49
 3817 012c 13       		.uleb128 0x13
 3818 012d 00       		.byte	0
 3819 012e 00       		.byte	0
 3820 012f 1A       		.uleb128 0x1a
 3821 0130 15       		.uleb128 0x15
 3822 0131 00       		.byte	0
 3823 0132 27       		.uleb128 0x27
 3824 0133 19       		.uleb128 0x19
 3825 0134 00       		.byte	0
 3826 0135 00       		.byte	0
 3827 0136 1B       		.uleb128 0x1b
 3828 0137 2E       		.uleb128 0x2e
 3829 0138 01       		.byte	0x1
 3830 0139 03       		.uleb128 0x3
 3831 013a 0E       		.uleb128 0xe
 3832 013b 3A       		.uleb128 0x3a
ARM GAS  /tmp/ccSoisRf.s 			page 69


 3833 013c 0B       		.uleb128 0xb
 3834 013d 3B       		.uleb128 0x3b
 3835 013e 05       		.uleb128 0x5
 3836 013f 27       		.uleb128 0x27
 3837 0140 19       		.uleb128 0x19
 3838 0141 20       		.uleb128 0x20
 3839 0142 0B       		.uleb128 0xb
 3840 0143 01       		.uleb128 0x1
 3841 0144 13       		.uleb128 0x13
 3842 0145 00       		.byte	0
 3843 0146 00       		.byte	0
 3844 0147 1C       		.uleb128 0x1c
 3845 0148 05       		.uleb128 0x5
 3846 0149 00       		.byte	0
 3847 014a 03       		.uleb128 0x3
 3848 014b 0E       		.uleb128 0xe
 3849 014c 3A       		.uleb128 0x3a
 3850 014d 0B       		.uleb128 0xb
 3851 014e 3B       		.uleb128 0x3b
 3852 014f 05       		.uleb128 0x5
 3853 0150 49       		.uleb128 0x49
 3854 0151 13       		.uleb128 0x13
 3855 0152 00       		.byte	0
 3856 0153 00       		.byte	0
 3857 0154 1D       		.uleb128 0x1d
 3858 0155 2E       		.uleb128 0x2e
 3859 0156 01       		.byte	0x1
 3860 0157 03       		.uleb128 0x3
 3861 0158 0E       		.uleb128 0xe
 3862 0159 3A       		.uleb128 0x3a
 3863 015a 0B       		.uleb128 0xb
 3864 015b 3B       		.uleb128 0x3b
 3865 015c 05       		.uleb128 0x5
 3866 015d 27       		.uleb128 0x27
 3867 015e 19       		.uleb128 0x19
 3868 015f 11       		.uleb128 0x11
 3869 0160 01       		.uleb128 0x1
 3870 0161 12       		.uleb128 0x12
 3871 0162 06       		.uleb128 0x6
 3872 0163 40       		.uleb128 0x40
 3873 0164 18       		.uleb128 0x18
 3874 0165 9742     		.uleb128 0x2117
 3875 0167 19       		.uleb128 0x19
 3876 0168 01       		.uleb128 0x1
 3877 0169 13       		.uleb128 0x13
 3878 016a 00       		.byte	0
 3879 016b 00       		.byte	0
 3880 016c 1E       		.uleb128 0x1e
 3881 016d 1D       		.uleb128 0x1d
 3882 016e 01       		.byte	0x1
 3883 016f 31       		.uleb128 0x31
 3884 0170 13       		.uleb128 0x13
 3885 0171 11       		.uleb128 0x11
 3886 0172 01       		.uleb128 0x1
 3887 0173 12       		.uleb128 0x12
 3888 0174 06       		.uleb128 0x6
 3889 0175 58       		.uleb128 0x58
ARM GAS  /tmp/ccSoisRf.s 			page 70


 3890 0176 0B       		.uleb128 0xb
 3891 0177 59       		.uleb128 0x59
 3892 0178 05       		.uleb128 0x5
 3893 0179 00       		.byte	0
 3894 017a 00       		.byte	0
 3895 017b 1F       		.uleb128 0x1f
 3896 017c 05       		.uleb128 0x5
 3897 017d 00       		.byte	0
 3898 017e 31       		.uleb128 0x31
 3899 017f 13       		.uleb128 0x13
 3900 0180 02       		.uleb128 0x2
 3901 0181 18       		.uleb128 0x18
 3902 0182 00       		.byte	0
 3903 0183 00       		.byte	0
 3904 0184 20       		.uleb128 0x20
 3905 0185 2E       		.uleb128 0x2e
 3906 0186 01       		.byte	0x1
 3907 0187 03       		.uleb128 0x3
 3908 0188 0E       		.uleb128 0xe
 3909 0189 3A       		.uleb128 0x3a
 3910 018a 0B       		.uleb128 0xb
 3911 018b 3B       		.uleb128 0x3b
 3912 018c 05       		.uleb128 0x5
 3913 018d 27       		.uleb128 0x27
 3914 018e 19       		.uleb128 0x19
 3915 018f 49       		.uleb128 0x49
 3916 0190 13       		.uleb128 0x13
 3917 0191 11       		.uleb128 0x11
 3918 0192 01       		.uleb128 0x1
 3919 0193 12       		.uleb128 0x12
 3920 0194 06       		.uleb128 0x6
 3921 0195 40       		.uleb128 0x40
 3922 0196 18       		.uleb128 0x18
 3923 0197 9742     		.uleb128 0x2117
 3924 0199 19       		.uleb128 0x19
 3925 019a 01       		.uleb128 0x1
 3926 019b 13       		.uleb128 0x13
 3927 019c 00       		.byte	0
 3928 019d 00       		.byte	0
 3929 019e 21       		.uleb128 0x21
 3930 019f 05       		.uleb128 0x5
 3931 01a0 00       		.byte	0
 3932 01a1 03       		.uleb128 0x3
 3933 01a2 08       		.uleb128 0x8
 3934 01a3 3A       		.uleb128 0x3a
 3935 01a4 0B       		.uleb128 0xb
 3936 01a5 3B       		.uleb128 0x3b
 3937 01a6 05       		.uleb128 0x5
 3938 01a7 49       		.uleb128 0x49
 3939 01a8 13       		.uleb128 0x13
 3940 01a9 02       		.uleb128 0x2
 3941 01aa 18       		.uleb128 0x18
 3942 01ab 00       		.byte	0
 3943 01ac 00       		.byte	0
 3944 01ad 22       		.uleb128 0x22
 3945 01ae 2E       		.uleb128 0x2e
 3946 01af 00       		.byte	0
ARM GAS  /tmp/ccSoisRf.s 			page 71


 3947 01b0 03       		.uleb128 0x3
 3948 01b1 0E       		.uleb128 0xe
 3949 01b2 3A       		.uleb128 0x3a
 3950 01b3 0B       		.uleb128 0xb
 3951 01b4 3B       		.uleb128 0x3b
 3952 01b5 05       		.uleb128 0x5
 3953 01b6 27       		.uleb128 0x27
 3954 01b7 19       		.uleb128 0x19
 3955 01b8 11       		.uleb128 0x11
 3956 01b9 01       		.uleb128 0x1
 3957 01ba 12       		.uleb128 0x12
 3958 01bb 06       		.uleb128 0x6
 3959 01bc 40       		.uleb128 0x40
 3960 01bd 18       		.uleb128 0x18
 3961 01be 9642     		.uleb128 0x2116
 3962 01c0 19       		.uleb128 0x19
 3963 01c1 00       		.byte	0
 3964 01c2 00       		.byte	0
 3965 01c3 23       		.uleb128 0x23
 3966 01c4 2E       		.uleb128 0x2e
 3967 01c5 01       		.byte	0x1
 3968 01c6 03       		.uleb128 0x3
 3969 01c7 0E       		.uleb128 0xe
 3970 01c8 3A       		.uleb128 0x3a
 3971 01c9 0B       		.uleb128 0xb
 3972 01ca 3B       		.uleb128 0x3b
 3973 01cb 05       		.uleb128 0x5
 3974 01cc 27       		.uleb128 0x27
 3975 01cd 19       		.uleb128 0x19
 3976 01ce 11       		.uleb128 0x11
 3977 01cf 01       		.uleb128 0x1
 3978 01d0 12       		.uleb128 0x12
 3979 01d1 06       		.uleb128 0x6
 3980 01d2 40       		.uleb128 0x40
 3981 01d3 18       		.uleb128 0x18
 3982 01d4 9642     		.uleb128 0x2116
 3983 01d6 19       		.uleb128 0x19
 3984 01d7 01       		.uleb128 0x1
 3985 01d8 13       		.uleb128 0x13
 3986 01d9 00       		.byte	0
 3987 01da 00       		.byte	0
 3988 01db 24       		.uleb128 0x24
 3989 01dc 34       		.uleb128 0x34
 3990 01dd 00       		.byte	0
 3991 01de 03       		.uleb128 0x3
 3992 01df 0E       		.uleb128 0xe
 3993 01e0 49       		.uleb128 0x49
 3994 01e1 13       		.uleb128 0x13
 3995 01e2 34       		.uleb128 0x34
 3996 01e3 19       		.uleb128 0x19
 3997 01e4 02       		.uleb128 0x2
 3998 01e5 18       		.uleb128 0x18
 3999 01e6 00       		.byte	0
 4000 01e7 00       		.byte	0
 4001 01e8 25       		.uleb128 0x25
 4002 01e9 2E       		.uleb128 0x2e
 4003 01ea 00       		.byte	0
ARM GAS  /tmp/ccSoisRf.s 			page 72


 4004 01eb 03       		.uleb128 0x3
 4005 01ec 0E       		.uleb128 0xe
 4006 01ed 3A       		.uleb128 0x3a
 4007 01ee 0B       		.uleb128 0xb
 4008 01ef 3B       		.uleb128 0x3b
 4009 01f0 0B       		.uleb128 0xb
 4010 01f1 27       		.uleb128 0x27
 4011 01f2 19       		.uleb128 0x19
 4012 01f3 49       		.uleb128 0x49
 4013 01f4 13       		.uleb128 0x13
 4014 01f5 11       		.uleb128 0x11
 4015 01f6 01       		.uleb128 0x1
 4016 01f7 12       		.uleb128 0x12
 4017 01f8 06       		.uleb128 0x6
 4018 01f9 40       		.uleb128 0x40
 4019 01fa 18       		.uleb128 0x18
 4020 01fb 9742     		.uleb128 0x2117
 4021 01fd 19       		.uleb128 0x19
 4022 01fe 00       		.byte	0
 4023 01ff 00       		.byte	0
 4024 0200 26       		.uleb128 0x26
 4025 0201 2E       		.uleb128 0x2e
 4026 0202 00       		.byte	0
 4027 0203 03       		.uleb128 0x3
 4028 0204 0E       		.uleb128 0xe
 4029 0205 3A       		.uleb128 0x3a
 4030 0206 0B       		.uleb128 0xb
 4031 0207 3B       		.uleb128 0x3b
 4032 0208 0B       		.uleb128 0xb
 4033 0209 27       		.uleb128 0x27
 4034 020a 19       		.uleb128 0x19
 4035 020b 49       		.uleb128 0x49
 4036 020c 13       		.uleb128 0x13
 4037 020d 11       		.uleb128 0x11
 4038 020e 01       		.uleb128 0x1
 4039 020f 12       		.uleb128 0x12
 4040 0210 06       		.uleb128 0x6
 4041 0211 40       		.uleb128 0x40
 4042 0212 18       		.uleb128 0x18
 4043 0213 9642     		.uleb128 0x2116
 4044 0215 19       		.uleb128 0x19
 4045 0216 00       		.byte	0
 4046 0217 00       		.byte	0
 4047 0218 27       		.uleb128 0x27
 4048 0219 2E       		.uleb128 0x2e
 4049 021a 00       		.byte	0
 4050 021b 03       		.uleb128 0x3
 4051 021c 0E       		.uleb128 0xe
 4052 021d 3A       		.uleb128 0x3a
 4053 021e 0B       		.uleb128 0xb
 4054 021f 3B       		.uleb128 0x3b
 4055 0220 0B       		.uleb128 0xb
 4056 0221 27       		.uleb128 0x27
 4057 0222 19       		.uleb128 0x19
 4058 0223 11       		.uleb128 0x11
 4059 0224 01       		.uleb128 0x1
 4060 0225 12       		.uleb128 0x12
ARM GAS  /tmp/ccSoisRf.s 			page 73


 4061 0226 06       		.uleb128 0x6
 4062 0227 40       		.uleb128 0x40
 4063 0228 18       		.uleb128 0x18
 4064 0229 9642     		.uleb128 0x2116
 4065 022b 19       		.uleb128 0x19
 4066 022c 00       		.byte	0
 4067 022d 00       		.byte	0
 4068 022e 28       		.uleb128 0x28
 4069 022f 2E       		.uleb128 0x2e
 4070 0230 01       		.byte	0x1
 4071 0231 03       		.uleb128 0x3
 4072 0232 0E       		.uleb128 0xe
 4073 0233 3A       		.uleb128 0x3a
 4074 0234 0B       		.uleb128 0xb
 4075 0235 3B       		.uleb128 0x3b
 4076 0236 0B       		.uleb128 0xb
 4077 0237 27       		.uleb128 0x27
 4078 0238 19       		.uleb128 0x19
 4079 0239 11       		.uleb128 0x11
 4080 023a 01       		.uleb128 0x1
 4081 023b 12       		.uleb128 0x12
 4082 023c 06       		.uleb128 0x6
 4083 023d 40       		.uleb128 0x40
 4084 023e 18       		.uleb128 0x18
 4085 023f 9642     		.uleb128 0x2116
 4086 0241 19       		.uleb128 0x19
 4087 0242 01       		.uleb128 0x1
 4088 0243 13       		.uleb128 0x13
 4089 0244 00       		.byte	0
 4090 0245 00       		.byte	0
 4091 0246 29       		.uleb128 0x29
 4092 0247 05       		.uleb128 0x5
 4093 0248 00       		.byte	0
 4094 0249 03       		.uleb128 0x3
 4095 024a 08       		.uleb128 0x8
 4096 024b 3A       		.uleb128 0x3a
 4097 024c 0B       		.uleb128 0xb
 4098 024d 3B       		.uleb128 0x3b
 4099 024e 0B       		.uleb128 0xb
 4100 024f 49       		.uleb128 0x49
 4101 0250 13       		.uleb128 0x13
 4102 0251 02       		.uleb128 0x2
 4103 0252 18       		.uleb128 0x18
 4104 0253 00       		.byte	0
 4105 0254 00       		.byte	0
 4106 0255 2A       		.uleb128 0x2a
 4107 0256 34       		.uleb128 0x34
 4108 0257 00       		.byte	0
 4109 0258 03       		.uleb128 0x3
 4110 0259 0E       		.uleb128 0xe
 4111 025a 3A       		.uleb128 0x3a
 4112 025b 0B       		.uleb128 0xb
 4113 025c 3B       		.uleb128 0x3b
 4114 025d 0B       		.uleb128 0xb
 4115 025e 49       		.uleb128 0x49
 4116 025f 13       		.uleb128 0x13
 4117 0260 02       		.uleb128 0x2
ARM GAS  /tmp/ccSoisRf.s 			page 74


 4118 0261 18       		.uleb128 0x18
 4119 0262 00       		.byte	0
 4120 0263 00       		.byte	0
 4121 0264 2B       		.uleb128 0x2b
 4122 0265 34       		.uleb128 0x34
 4123 0266 00       		.byte	0
 4124 0267 03       		.uleb128 0x3
 4125 0268 08       		.uleb128 0x8
 4126 0269 3A       		.uleb128 0x3a
 4127 026a 0B       		.uleb128 0xb
 4128 026b 3B       		.uleb128 0x3b
 4129 026c 05       		.uleb128 0x5
 4130 026d 49       		.uleb128 0x49
 4131 026e 13       		.uleb128 0x13
 4132 026f 02       		.uleb128 0x2
 4133 0270 18       		.uleb128 0x18
 4134 0271 00       		.byte	0
 4135 0272 00       		.byte	0
 4136 0273 2C       		.uleb128 0x2c
 4137 0274 34       		.uleb128 0x34
 4138 0275 00       		.byte	0
 4139 0276 03       		.uleb128 0x3
 4140 0277 0E       		.uleb128 0xe
 4141 0278 3A       		.uleb128 0x3a
 4142 0279 0B       		.uleb128 0xb
 4143 027a 3B       		.uleb128 0x3b
 4144 027b 05       		.uleb128 0x5
 4145 027c 49       		.uleb128 0x49
 4146 027d 13       		.uleb128 0x13
 4147 027e 02       		.uleb128 0x2
 4148 027f 18       		.uleb128 0x18
 4149 0280 00       		.byte	0
 4150 0281 00       		.byte	0
 4151 0282 2D       		.uleb128 0x2d
 4152 0283 34       		.uleb128 0x34
 4153 0284 00       		.byte	0
 4154 0285 03       		.uleb128 0x3
 4155 0286 08       		.uleb128 0x8
 4156 0287 3A       		.uleb128 0x3a
 4157 0288 0B       		.uleb128 0xb
 4158 0289 3B       		.uleb128 0x3b
 4159 028a 0B       		.uleb128 0xb
 4160 028b 49       		.uleb128 0x49
 4161 028c 13       		.uleb128 0x13
 4162 028d 02       		.uleb128 0x2
 4163 028e 18       		.uleb128 0x18
 4164 028f 00       		.byte	0
 4165 0290 00       		.byte	0
 4166 0291 2E       		.uleb128 0x2e
 4167 0292 34       		.uleb128 0x34
 4168 0293 00       		.byte	0
 4169 0294 03       		.uleb128 0x3
 4170 0295 0E       		.uleb128 0xe
 4171 0296 3A       		.uleb128 0x3a
 4172 0297 0B       		.uleb128 0xb
 4173 0298 3B       		.uleb128 0x3b
 4174 0299 05       		.uleb128 0x5
ARM GAS  /tmp/ccSoisRf.s 			page 75


 4175 029a 49       		.uleb128 0x49
 4176 029b 13       		.uleb128 0x13
 4177 029c 3F       		.uleb128 0x3f
 4178 029d 19       		.uleb128 0x19
 4179 029e 3C       		.uleb128 0x3c
 4180 029f 19       		.uleb128 0x19
 4181 02a0 00       		.byte	0
 4182 02a1 00       		.byte	0
 4183 02a2 2F       		.uleb128 0x2f
 4184 02a3 34       		.uleb128 0x34
 4185 02a4 00       		.byte	0
 4186 02a5 03       		.uleb128 0x3
 4187 02a6 08       		.uleb128 0x8
 4188 02a7 3A       		.uleb128 0x3a
 4189 02a8 0B       		.uleb128 0xb
 4190 02a9 3B       		.uleb128 0x3b
 4191 02aa 05       		.uleb128 0x5
 4192 02ab 49       		.uleb128 0x49
 4193 02ac 13       		.uleb128 0x13
 4194 02ad 3F       		.uleb128 0x3f
 4195 02ae 19       		.uleb128 0x19
 4196 02af 3C       		.uleb128 0x3c
 4197 02b0 19       		.uleb128 0x19
 4198 02b1 00       		.byte	0
 4199 02b2 00       		.byte	0
 4200 02b3 30       		.uleb128 0x30
 4201 02b4 34       		.uleb128 0x34
 4202 02b5 00       		.byte	0
 4203 02b6 03       		.uleb128 0x3
 4204 02b7 0E       		.uleb128 0xe
 4205 02b8 3A       		.uleb128 0x3a
 4206 02b9 0B       		.uleb128 0xb
 4207 02ba 3B       		.uleb128 0x3b
 4208 02bb 0B       		.uleb128 0xb
 4209 02bc 49       		.uleb128 0x49
 4210 02bd 13       		.uleb128 0x13
 4211 02be 3F       		.uleb128 0x3f
 4212 02bf 19       		.uleb128 0x19
 4213 02c0 3C       		.uleb128 0x3c
 4214 02c1 19       		.uleb128 0x19
 4215 02c2 00       		.byte	0
 4216 02c3 00       		.byte	0
 4217 02c4 31       		.uleb128 0x31
 4218 02c5 21       		.uleb128 0x21
 4219 02c6 00       		.byte	0
 4220 02c7 00       		.byte	0
 4221 02c8 00       		.byte	0
 4222 02c9 32       		.uleb128 0x32
 4223 02ca 34       		.uleb128 0x34
 4224 02cb 00       		.byte	0
 4225 02cc 03       		.uleb128 0x3
 4226 02cd 08       		.uleb128 0x8
 4227 02ce 3A       		.uleb128 0x3a
 4228 02cf 0B       		.uleb128 0xb
 4229 02d0 3B       		.uleb128 0x3b
 4230 02d1 0B       		.uleb128 0xb
 4231 02d2 49       		.uleb128 0x49
ARM GAS  /tmp/ccSoisRf.s 			page 76


 4232 02d3 13       		.uleb128 0x13
 4233 02d4 3F       		.uleb128 0x3f
 4234 02d5 19       		.uleb128 0x19
 4235 02d6 3C       		.uleb128 0x3c
 4236 02d7 19       		.uleb128 0x19
 4237 02d8 00       		.byte	0
 4238 02d9 00       		.byte	0
 4239 02da 33       		.uleb128 0x33
 4240 02db 34       		.uleb128 0x34
 4241 02dc 00       		.byte	0
 4242 02dd 03       		.uleb128 0x3
 4243 02de 0E       		.uleb128 0xe
 4244 02df 3A       		.uleb128 0x3a
 4245 02e0 0B       		.uleb128 0xb
 4246 02e1 3B       		.uleb128 0x3b
 4247 02e2 0B       		.uleb128 0xb
 4248 02e3 49       		.uleb128 0x49
 4249 02e4 13       		.uleb128 0x13
 4250 02e5 3F       		.uleb128 0x3f
 4251 02e6 19       		.uleb128 0x19
 4252 02e7 02       		.uleb128 0x2
 4253 02e8 18       		.uleb128 0x18
 4254 02e9 00       		.byte	0
 4255 02ea 00       		.byte	0
 4256 02eb 34       		.uleb128 0x34
 4257 02ec 34       		.uleb128 0x34
 4258 02ed 00       		.byte	0
 4259 02ee 03       		.uleb128 0x3
 4260 02ef 0E       		.uleb128 0xe
 4261 02f0 3A       		.uleb128 0x3a
 4262 02f1 0B       		.uleb128 0xb
 4263 02f2 3B       		.uleb128 0x3b
 4264 02f3 05       		.uleb128 0x5
 4265 02f4 49       		.uleb128 0x49
 4266 02f5 13       		.uleb128 0x13
 4267 02f6 3F       		.uleb128 0x3f
 4268 02f7 19       		.uleb128 0x19
 4269 02f8 02       		.uleb128 0x2
 4270 02f9 18       		.uleb128 0x18
 4271 02fa 00       		.byte	0
 4272 02fb 00       		.byte	0
 4273 02fc 00       		.byte	0
 4274              		.section	.debug_aranges,"",%progbits
 4275 0000 DC000000 		.4byte	0xdc
 4276 0004 0200     		.2byte	0x2
 4277 0006 00000000 		.4byte	.Ldebug_info0
 4278 000a 04       		.byte	0x4
 4279 000b 00       		.byte	0
 4280 000c 0000     		.2byte	0
 4281 000e 0000     		.2byte	0
 4282 0010 00000000 		.4byte	.LFB127
 4283 0014 10000000 		.4byte	.LFE127-.LFB127
 4284 0018 00000000 		.4byte	.LFB128
 4285 001c 10000000 		.4byte	.LFE128-.LFB128
 4286 0020 00000000 		.4byte	.LFB151
 4287 0024 1A000000 		.4byte	.LFE151-.LFB151
 4288 0028 00000000 		.4byte	.LFB167
ARM GAS  /tmp/ccSoisRf.s 			page 77


 4289 002c 10000000 		.4byte	.LFE167-.LFB167
 4290 0030 00000000 		.4byte	.LFB168
 4291 0034 38000000 		.4byte	.LFE168-.LFB168
 4292 0038 00000000 		.4byte	.LFB188
 4293 003c 0C000000 		.4byte	.LFE188-.LFB188
 4294 0040 00000000 		.4byte	.LFB189
 4295 0044 0E000000 		.4byte	.LFE189-.LFB189
 4296 0048 00000000 		.4byte	.LFB240
 4297 004c 10000000 		.4byte	.LFE240-.LFB240
 4298 0050 00000000 		.4byte	.LFB241
 4299 0054 28000000 		.4byte	.LFE241-.LFB241
 4300 0058 00000000 		.4byte	.LFB242
 4301 005c 1C010000 		.4byte	.LFE242-.LFB242
 4302 0060 00000000 		.4byte	.LFB243
 4303 0064 18000000 		.4byte	.LFE243-.LFB243
 4304 0068 00000000 		.4byte	.LFB244
 4305 006c 24000000 		.4byte	.LFE244-.LFB244
 4306 0070 00000000 		.4byte	.LFB245
 4307 0074 24000000 		.4byte	.LFE245-.LFB245
 4308 0078 00000000 		.4byte	.LFB246
 4309 007c 00030000 		.4byte	.LFE246-.LFB246
 4310 0080 00000000 		.4byte	.LFB247
 4311 0084 10000000 		.4byte	.LFE247-.LFB247
 4312 0088 00000000 		.4byte	.LFB248
 4313 008c 10010000 		.4byte	.LFE248-.LFB248
 4314 0090 00000000 		.4byte	.LFB249
 4315 0094 18000000 		.4byte	.LFE249-.LFB249
 4316 0098 00000000 		.4byte	.LFB250
 4317 009c 30000000 		.4byte	.LFE250-.LFB250
 4318 00a0 00000000 		.4byte	.LFB251
 4319 00a4 18010000 		.4byte	.LFE251-.LFB251
 4320 00a8 00000000 		.4byte	.LFB252
 4321 00ac 18000000 		.4byte	.LFE252-.LFB252
 4322 00b0 00000000 		.4byte	.LFB253
 4323 00b4 F4000000 		.4byte	.LFE253-.LFB253
 4324 00b8 00000000 		.4byte	.LFB254
 4325 00bc 24000000 		.4byte	.LFE254-.LFB254
 4326 00c0 00000000 		.4byte	.LFB255
 4327 00c4 44000000 		.4byte	.LFE255-.LFB255
 4328 00c8 00000000 		.4byte	.LFB256
 4329 00cc 28000000 		.4byte	.LFE256-.LFB256
 4330 00d0 00000000 		.4byte	.LFB257
 4331 00d4 B8000000 		.4byte	.LFE257-.LFB257
 4332 00d8 00000000 		.4byte	0
 4333 00dc 00000000 		.4byte	0
 4334              		.section	.debug_ranges,"",%progbits
 4335              	.Ldebug_ranges0:
 4336 0000 00000000 		.4byte	.LFB127
 4337 0004 10000000 		.4byte	.LFE127
 4338 0008 00000000 		.4byte	.LFB128
 4339 000c 10000000 		.4byte	.LFE128
 4340 0010 00000000 		.4byte	.LFB151
 4341 0014 1A000000 		.4byte	.LFE151
 4342 0018 00000000 		.4byte	.LFB167
 4343 001c 10000000 		.4byte	.LFE167
 4344 0020 00000000 		.4byte	.LFB168
 4345 0024 38000000 		.4byte	.LFE168
ARM GAS  /tmp/ccSoisRf.s 			page 78


 4346 0028 00000000 		.4byte	.LFB188
 4347 002c 0C000000 		.4byte	.LFE188
 4348 0030 00000000 		.4byte	.LFB189
 4349 0034 0E000000 		.4byte	.LFE189
 4350 0038 00000000 		.4byte	.LFB240
 4351 003c 10000000 		.4byte	.LFE240
 4352 0040 00000000 		.4byte	.LFB241
 4353 0044 28000000 		.4byte	.LFE241
 4354 0048 00000000 		.4byte	.LFB242
 4355 004c 1C010000 		.4byte	.LFE242
 4356 0050 00000000 		.4byte	.LFB243
 4357 0054 18000000 		.4byte	.LFE243
 4358 0058 00000000 		.4byte	.LFB244
 4359 005c 24000000 		.4byte	.LFE244
 4360 0060 00000000 		.4byte	.LFB245
 4361 0064 24000000 		.4byte	.LFE245
 4362 0068 00000000 		.4byte	.LFB246
 4363 006c 00030000 		.4byte	.LFE246
 4364 0070 00000000 		.4byte	.LFB247
 4365 0074 10000000 		.4byte	.LFE247
 4366 0078 00000000 		.4byte	.LFB248
 4367 007c 10010000 		.4byte	.LFE248
 4368 0080 00000000 		.4byte	.LFB249
 4369 0084 18000000 		.4byte	.LFE249
 4370 0088 00000000 		.4byte	.LFB250
 4371 008c 30000000 		.4byte	.LFE250
 4372 0090 00000000 		.4byte	.LFB251
 4373 0094 18010000 		.4byte	.LFE251
 4374 0098 00000000 		.4byte	.LFB252
 4375 009c 18000000 		.4byte	.LFE252
 4376 00a0 00000000 		.4byte	.LFB253
 4377 00a4 F4000000 		.4byte	.LFE253
 4378 00a8 00000000 		.4byte	.LFB254
 4379 00ac 24000000 		.4byte	.LFE254
 4380 00b0 00000000 		.4byte	.LFB255
 4381 00b4 44000000 		.4byte	.LFE255
 4382 00b8 00000000 		.4byte	.LFB256
 4383 00bc 28000000 		.4byte	.LFE256
 4384 00c0 00000000 		.4byte	.LFB257
 4385 00c4 B8000000 		.4byte	.LFE257
 4386 00c8 00000000 		.4byte	0
 4387 00cc 00000000 		.4byte	0
 4388              		.section	.debug_line,"",%progbits
 4389              	.Ldebug_line0:
 4390 0000 6A050000 		.section	.debug_str,"MS",%progbits,1
 4390      02002A02 
 4390      00000201 
 4390      FB0E0D00 
 4390      01010101 
 4391              	.LASF98:
 4392 0000 74625F70 		.ascii	"tb_ptr\000"
 4392      747200
 4393              	.LASF55:
 4394 0007 72656164 		.ascii	"ready_list_t\000"
 4394      795F6C69 
 4394      73745F74 
 4394      00
ARM GAS  /tmp/ccSoisRf.s 			page 79


 4395              	.LASF92:
 4396 0014 73655F74 		.ascii	"se_time\000"
 4396      696D6500 
 4397              	.LASF2:
 4398 001c 73697A65 		.ascii	"size_t\000"
 4398      5F7400
 4399              	.LASF113:
 4400 0023 7264796D 		.ascii	"rdymsg\000"
 4400      736700
 4401              	.LASF17:
 4402 002a 75696E74 		.ascii	"uint64_t\000"
 4402      36345F74 
 4402      00
 4403              	.LASF3:
 4404 0033 5F5F7569 		.ascii	"__uint8_t\000"
 4404      6E74385F 
 4404      7400
 4405              	.LASF91:
 4406 003d 706F7274 		.ascii	"port_intctx\000"
 4406      5F696E74 
 4406      63747800 
 4407              	.LASF54:
 4408 0049 63685F74 		.ascii	"ch_threads_queue\000"
 4408      68726561 
 4408      64735F71 
 4408      75657565 
 4408      00
 4409              	.LASF74:
 4410 005a 73797374 		.ascii	"system_debug_t\000"
 4410      656D5F64 
 4410      65627567 
 4410      5F7400
 4411              	.LASF137:
 4412 0069 706F7274 		.ascii	"port_lock\000"
 4412      5F6C6F63 
 4412      6B00
 4413              	.LASF104:
 4414 0073 776F7273 		.ascii	"worst\000"
 4414      7400
 4415              	.LASF107:
 4416 0079 74696D65 		.ascii	"time_measurement_t\000"
 4416      5F6D6561 
 4416      73757265 
 4416      6D656E74 
 4416      5F7400
 4417              	.LASF148:
 4418 008c 74687265 		.ascii	"thread4a\000"
 4418      61643461 
 4418      00
 4419              	.LASF149:
 4420 0095 74687265 		.ascii	"thread4b\000"
 4420      61643462 
 4420      00
 4421              	.LASF13:
 4422 009e 6C6F6E67 		.ascii	"long long unsigned int\000"
 4422      206C6F6E 
 4422      6720756E 
ARM GAS  /tmp/ccSoisRf.s 			page 80


 4422      7369676E 
 4422      65642069 
 4423              	.LASF100:
 4424 00b5 63685F74 		.ascii	"ch_trace_buffer_t\000"
 4424      72616365 
 4424      5F627566 
 4424      6665725F 
 4424      7400
 4425              	.LASF95:
 4426 00c7 73655F73 		.ascii	"se_state\000"
 4426      74617465 
 4426      00
 4427              	.LASF114:
 4428 00d0 65786974 		.ascii	"exitcode\000"
 4428      636F6465 
 4428      00
 4429              	.LASF157:
 4430 00d9 6D747837 		.ascii	"mtx7_setup\000"
 4430      5F736574 
 4430      757000
 4431              	.LASF84:
 4432 00e4 6D61696E 		.ascii	"mainthread\000"
 4432      74687265 
 4432      616400
 4433              	.LASF71:
 4434 00ef 76697274 		.ascii	"virtual_timers_list_t\000"
 4434      75616C5F 
 4434      74696D65 
 4434      72735F6C 
 4434      6973745F 
 4435              	.LASF163:
 4436 0105 49544D5F 		.ascii	"ITM_RxBuffer\000"
 4436      52784275 
 4436      66666572 
 4436      00
 4437              	.LASF146:
 4438 0112 6D747831 		.ascii	"mtx1_execute\000"
 4438      5F657865 
 4438      63757465 
 4438      00
 4439              	.LASF19:
 4440 011f 72747469 		.ascii	"rttime_t\000"
 4440      6D655F74 
 4440      00
 4441              	.LASF32:
 4442 0128 705F7072 		.ascii	"p_prio\000"
 4442      696F00
 4443              	.LASF11:
 4444 012f 6C6F6E67 		.ascii	"long long int\000"
 4444      206C6F6E 
 4444      6720696E 
 4444      7400
 4445              	.LASF1:
 4446 013d 7369676E 		.ascii	"signed char\000"
 4446      65642063 
 4446      68617200 
 4447              	.LASF131:
ARM GAS  /tmp/ccSoisRf.s 			page 81


 4448 0149 636F6E64 		.ascii	"condition_variable_t\000"
 4448      6974696F 
 4448      6E5F7661 
 4448      72696162 
 4448      6C655F74 
 4449              	.LASF38:
 4450 015e 705F7374 		.ascii	"p_state\000"
 4450      61746500 
 4451              	.LASF47:
 4452 0166 705F6D70 		.ascii	"p_mpool\000"
 4452      6F6F6C00 
 4453              	.LASF162:
 4454 016e 6D747838 		.ascii	"mtx8_execute\000"
 4454      5F657865 
 4454      63757465 
 4454      00
 4455              	.LASF83:
 4456 017b 76746C69 		.ascii	"vtlist\000"
 4456      737400
 4457              	.LASF138:
 4458 0182 706F7274 		.ascii	"port_unlock\000"
 4458      5F756E6C 
 4458      6F636B00 
 4459              	.LASF116:
 4460 018e 77747472 		.ascii	"wttrp\000"
 4460      7000
 4461              	.LASF81:
 4462 0194 63685F73 		.ascii	"ch_system\000"
 4462      79737465 
 4462      6D00
 4463              	.LASF8:
 4464 019e 6C6F6E67 		.ascii	"long int\000"
 4464      20696E74 
 4464      00
 4465              	.LASF21:
 4466 01a7 74737461 		.ascii	"tstate_t\000"
 4466      74655F74 
 4466      00
 4467              	.LASF144:
 4468 01b0 6D747831 		.ascii	"mtx1_setup\000"
 4468      5F736574 
 4468      757000
 4469              	.LASF93:
 4470 01bb 73655F74 		.ascii	"se_tp\000"
 4470      7000
 4471              	.LASF172:
 4472 01c1 474E5520 		.ascii	"GNU C 4.8.4 20141219 (release) -mcpu=cortex-m4 -mno"
 4472      4320342E 
 4472      382E3420 
 4472      32303134 
 4472      31323139 
 4473 01f4 2D746875 		.ascii	"-thumb-interwork -mthumb -ggdb -O0 -fomit-frame-poi"
 4473      6D622D69 
 4473      6E746572 
 4473      776F726B 
 4473      202D6D74 
 4474 0227 6E746572 		.ascii	"nter -falign-functions=16 -ffunction-sections -fdat"
ARM GAS  /tmp/ccSoisRf.s 			page 82


 4474      202D6661 
 4474      6C69676E 
 4474      2D66756E 
 4474      6374696F 
 4475 025a 612D7365 		.ascii	"a-sections -fno-common\000"
 4475      6374696F 
 4475      6E73202D 
 4475      666E6F2D 
 4475      636F6D6D 
 4476              	.LASF34:
 4477 0271 705F6E65 		.ascii	"p_newer\000"
 4477      77657200 
 4478              	.LASF176:
 4479 0279 71756575 		.ascii	"queue_isempty\000"
 4479      655F6973 
 4479      656D7074 
 4479      7900
 4480              	.LASF121:
 4481 0287 735F7175 		.ascii	"s_queue\000"
 4481      65756500 
 4482              	.LASF97:
 4483 028f 74625F73 		.ascii	"tb_size\000"
 4483      697A6500 
 4484              	.LASF60:
 4485 0297 725F6E65 		.ascii	"r_newer\000"
 4485      77657200 
 4486              	.LASF88:
 4487 029f 72656761 		.ascii	"regarm_t\000"
 4487      726D5F74 
 4487      00
 4488              	.LASF67:
 4489 02a8 76745F70 		.ascii	"vt_prev\000"
 4489      72657600 
 4490              	.LASF75:
 4491 02b0 63685F73 		.ascii	"ch_system_debug\000"
 4491      79737465 
 4491      6D5F6465 
 4491      62756700 
 4492              	.LASF128:
 4493 02c0 6D757465 		.ascii	"mutex_t\000"
 4493      785F7400 
 4494              	.LASF175:
 4495 02c8 76616C75 		.ascii	"value\000"
 4495      6500
 4496              	.LASF78:
 4497 02ce 6C6F636B 		.ascii	"lock_cnt\000"
 4497      5F636E74 
 4497      00
 4498              	.LASF86:
 4499 02d7 69646C65 		.ascii	"idle_thread_wa\000"
 4499      5F746872 
 4499      6561645F 
 4499      776100
 4500              	.LASF26:
 4501 02e6 636E745F 		.ascii	"cnt_t\000"
 4501      7400
 4502              	.LASF37:
ARM GAS  /tmp/ccSoisRf.s 			page 83


 4503 02ec 705F7374 		.ascii	"p_stklimit\000"
 4503      6B6C696D 
 4503      697400
 4504              	.LASF0:
 4505 02f7 756E7369 		.ascii	"unsigned int\000"
 4505      676E6564 
 4505      20696E74 
 4505      00
 4506              	.LASF66:
 4507 0304 76745F6E 		.ascii	"vt_next\000"
 4507      65787400 
 4508              	.LASF117:
 4509 030c 77747365 		.ascii	"wtsemp\000"
 4509      6D7000
 4510              	.LASF42:
 4511 0313 705F6D73 		.ascii	"p_msgqueue\000"
 4511      67717565 
 4511      756500
 4512              	.LASF135:
 4513 031e 74656172 		.ascii	"teardown\000"
 4513      646F776E 
 4513      00
 4514              	.LASF108:
 4515 0327 6E5F6972 		.ascii	"n_irq\000"
 4515      7100
 4516              	.LASF122:
 4517 032d 735F636E 		.ascii	"s_cnt\000"
 4517      7400
 4518              	.LASF133:
 4519 0333 6E616D65 		.ascii	"name\000"
 4519      00
 4520              	.LASF6:
 4521 0338 73686F72 		.ascii	"short unsigned int\000"
 4521      7420756E 
 4521      7369676E 
 4521      65642069 
 4521      6E7400
 4522              	.LASF112:
 4523 034b 6B65726E 		.ascii	"kernel_stats_t\000"
 4523      656C5F73 
 4523      74617473 
 4523      5F7400
 4524              	.LASF51:
 4525 035a 63685F74 		.ascii	"ch_thread\000"
 4525      68726561 
 4525      6400
 4526              	.LASF24:
 4527 0364 6D73675F 		.ascii	"msg_t\000"
 4527      7400
 4528              	.LASF105:
 4529 036a 6C617374 		.ascii	"last\000"
 4529      00
 4530              	.LASF27:
 4531 036f 75636E74 		.ascii	"ucnt_t\000"
 4531      5F7400
 4532              	.LASF80:
 4533 0376 63685F73 		.ascii	"ch_system_t\000"
ARM GAS  /tmp/ccSoisRf.s 			page 84


 4533      79737465 
 4533      6D5F7400 
 4534              	.LASF20:
 4535 0382 746D6F64 		.ascii	"tmode_t\000"
 4535      655F7400 
 4536              	.LASF111:
 4537 038a 6D5F6372 		.ascii	"m_crit_isr\000"
 4537      69745F69 
 4537      737200
 4538              	.LASF56:
 4539 0395 63685F72 		.ascii	"ch_ready_list\000"
 4539      65616479 
 4539      5F6C6973 
 4539      7400
 4540              	.LASF25:
 4541 03a3 6576656E 		.ascii	"eventmask_t\000"
 4541      746D6173 
 4541      6B5F7400 
 4542              	.LASF7:
 4543 03af 5F5F696E 		.ascii	"__int32_t\000"
 4543      7433325F 
 4543      7400
 4544              	.LASF89:
 4545 03b9 73746B61 		.ascii	"stkalign_t\000"
 4545      6C69676E 
 4545      5F7400
 4546              	.LASF41:
 4547 03c4 705F7761 		.ascii	"p_waiting\000"
 4547      6974696E 
 4547      6700
 4548              	.LASF87:
 4549 03ce 73697A65 		.ascii	"sizetype\000"
 4549      74797065 
 4549      00
 4550              	.LASF49:
 4551 03d7 74687265 		.ascii	"thread_reference_t\000"
 4551      61645F72 
 4551      65666572 
 4551      656E6365 
 4551      5F7400
 4552              	.LASF102:
 4553 03ea 746D5F63 		.ascii	"tm_calibration_t\000"
 4553      616C6962 
 4553      72617469 
 4553      6F6E5F74 
 4553      00
 4554              	.LASF72:
 4555 03fb 63685F76 		.ascii	"ch_virtual_timers_list\000"
 4555      69727475 
 4555      616C5F74 
 4555      696D6572 
 4555      735F6C69 
 4556              	.LASF129:
 4557 0412 636F6E64 		.ascii	"condition_variable\000"
 4557      6974696F 
 4557      6E5F7661 
 4557      72696162 
ARM GAS  /tmp/ccSoisRf.s 			page 85


 4557      6C6500
 4558              	.LASF156:
 4559 0425 6D747836 		.ascii	"mtx6_execute\000"
 4559      5F657865 
 4559      63757465 
 4559      00
 4560              	.LASF96:
 4561 0432 63685F73 		.ascii	"ch_swc_event_t\000"
 4561      77635F65 
 4561      76656E74 
 4561      5F7400
 4562              	.LASF73:
 4563 0441 76745F6C 		.ascii	"vt_lasttime\000"
 4563      61737474 
 4563      696D6500 
 4564              	.LASF35:
 4565 044d 705F6F6C 		.ascii	"p_older\000"
 4565      64657200 
 4566              	.LASF145:
 4567 0455 74687265 		.ascii	"thread1\000"
 4567      61643100 
 4568              	.LASF59:
 4569 045d 725F6374 		.ascii	"r_ctx\000"
 4569      7800
 4570              	.LASF142:
 4571 0463 63685468 		.ascii	"chThdGetPriorityX\000"
 4571      64476574 
 4571      5072696F 
 4571      72697479 
 4571      5800
 4572              	.LASF147:
 4573 0475 6D747834 		.ascii	"mtx4_setup\000"
 4573      5F736574 
 4573      757000
 4574              	.LASF150:
 4575 0480 6D747834 		.ascii	"mtx4_execute\000"
 4575      5F657865 
 4575      63757465 
 4575      00
 4576              	.LASF151:
 4577 048d 7072696F 		.ascii	"prio\000"
 4577      00
 4578              	.LASF61:
 4579 0492 725F6F6C 		.ascii	"r_older\000"
 4579      64657200 
 4580              	.LASF12:
 4581 049a 5F5F7569 		.ascii	"__uint64_t\000"
 4581      6E743634 
 4581      5F7400
 4582              	.LASF154:
 4583 04a5 6D747836 		.ascii	"mtx6_setup\000"
 4583      5F736574 
 4583      757000
 4584              	.LASF106:
 4585 04b0 63756D75 		.ascii	"cumulative\000"
 4585      6C617469 
 4585      766500
ARM GAS  /tmp/ccSoisRf.s 			page 86


 4586              	.LASF155:
 4587 04bb 74687265 		.ascii	"thread10\000"
 4587      61643130 
 4587      00
 4588              	.LASF160:
 4589 04c4 74687265 		.ascii	"thread11\000"
 4589      61643131 
 4589      00
 4590              	.LASF161:
 4591 04cd 74687265 		.ascii	"thread12\000"
 4591      61643132 
 4591      00
 4592              	.LASF134:
 4593 04d6 73657475 		.ascii	"setup\000"
 4593      7000
 4594              	.LASF85:
 4595 04dc 6B65726E 		.ascii	"kernel_stats\000"
 4595      656C5F73 
 4595      74617473 
 4595      00
 4596              	.LASF22:
 4597 04e9 74726566 		.ascii	"trefs_t\000"
 4597      735F7400 
 4598              	.LASF99:
 4599 04f1 74625F62 		.ascii	"tb_buffer\000"
 4599      75666665 
 4599      7200
 4600              	.LASF64:
 4601 04fb 76697274 		.ascii	"virtual_timer_t\000"
 4601      75616C5F 
 4601      74696D65 
 4601      725F7400 
 4602              	.LASF31:
 4603 050b 705F7072 		.ascii	"p_prev\000"
 4603      657600
 4604              	.LASF136:
 4605 0512 65786563 		.ascii	"execute\000"
 4605      75746500 
 4606              	.LASF23:
 4607 051a 74707269 		.ascii	"tprio_t\000"
 4607      6F5F7400 
 4608              	.LASF109:
 4609 0522 6E5F6374 		.ascii	"n_ctxswc\000"
 4609      78737763 
 4609      00
 4610              	.LASF139:
 4611 052b 5F426F6F 		.ascii	"_Bool\000"
 4611      6C00
 4612              	.LASF15:
 4613 0531 696E7433 		.ascii	"int32_t\000"
 4613      325F7400 
 4614              	.LASF4:
 4615 0539 756E7369 		.ascii	"unsigned char\000"
 4615      676E6564 
 4615      20636861 
 4615      7200
 4616              	.LASF124:
ARM GAS  /tmp/ccSoisRf.s 			page 87


 4617 0547 6D5F7175 		.ascii	"m_queue\000"
 4617      65756500 
 4618              	.LASF171:
 4619 054f 70617474 		.ascii	"patternmtx\000"
 4619      65726E6D 
 4619      747800
 4620              	.LASF45:
 4621 055a 705F6D74 		.ascii	"p_mtxlist\000"
 4621      786C6973 
 4621      7400
 4622              	.LASF5:
 4623 0564 73686F72 		.ascii	"short int\000"
 4623      7420696E 
 4623      7400
 4624              	.LASF164:
 4625 056e 74687265 		.ascii	"threads\000"
 4625      61647300 
 4626              	.LASF58:
 4627 0576 725F7072 		.ascii	"r_prio\000"
 4627      696F00
 4628              	.LASF119:
 4629 057d 65776D61 		.ascii	"ewmask\000"
 4629      736B00
 4630              	.LASF30:
 4631 0584 705F6E65 		.ascii	"p_next\000"
 4631      787400
 4632              	.LASF39:
 4633 058b 705F666C 		.ascii	"p_flags\000"
 4633      61677300 
 4634              	.LASF177:
 4635 0593 5F5F6675 		.ascii	"__func__\000"
 4635      6E635F5F 
 4635      00
 4636              	.LASF48:
 4637 059c 705F7374 		.ascii	"p_stats\000"
 4637      61747300 
 4638              	.LASF143:
 4639 05a4 63685379 		.ascii	"chSysLock\000"
 4639      734C6F63 
 4639      6B00
 4640              	.LASF65:
 4641 05ae 63685F76 		.ascii	"ch_virtual_timer\000"
 4641      69727475 
 4641      616C5F74 
 4641      696D6572 
 4641      00
 4642              	.LASF130:
 4643 05bf 635F7175 		.ascii	"c_queue\000"
 4643      65756500 
 4644              	.LASF153:
 4645 05c7 6D747835 		.ascii	"mtx5_execute\000"
 4645      5F657865 
 4645      63757465 
 4645      00
 4646              	.LASF120:
 4647 05d4 63685F73 		.ascii	"ch_semaphore\000"
 4647      656D6170 
ARM GAS  /tmp/ccSoisRf.s 			page 88


 4647      686F7265 
 4647      00
 4648              	.LASF44:
 4649 05e1 705F6570 		.ascii	"p_epending\000"
 4649      656E6469 
 4649      6E6700
 4650              	.LASF16:
 4651 05ec 75696E74 		.ascii	"uint32_t\000"
 4651      33325F74 
 4651      00
 4652              	.LASF118:
 4653 05f5 77746D74 		.ascii	"wtmtxp\000"
 4653      787000
 4654              	.LASF57:
 4655 05fc 725F7175 		.ascii	"r_queue\000"
 4655      65756500 
 4656              	.LASF68:
 4657 0604 76745F64 		.ascii	"vt_delta\000"
 4657      656C7461 
 4657      00
 4658              	.LASF52:
 4659 060d 63685F74 		.ascii	"ch_threads_list\000"
 4659      68726561 
 4659      64735F6C 
 4659      69737400 
 4660              	.LASF166:
 4661 061d 74657374 		.ascii	"testmtx4\000"
 4661      6D747834 
 4661      00
 4662              	.LASF167:
 4663 0626 74657374 		.ascii	"testmtx5\000"
 4663      6D747835 
 4663      00
 4664              	.LASF168:
 4665 062f 74657374 		.ascii	"testmtx6\000"
 4665      6D747836 
 4665      00
 4666              	.LASF169:
 4667 0638 74657374 		.ascii	"testmtx7\000"
 4667      6D747837 
 4667      00
 4668              	.LASF170:
 4669 0641 74657374 		.ascii	"testmtx8\000"
 4669      6D747838 
 4669      00
 4670              	.LASF10:
 4671 064a 6C6F6E67 		.ascii	"long unsigned int\000"
 4671      20756E73 
 4671      69676E65 
 4671      6420696E 
 4671      7400
 4672              	.LASF62:
 4673 065c 725F6375 		.ascii	"r_current\000"
 4673      7272656E 
 4673      7400
 4674              	.LASF127:
 4675 0666 63686172 		.ascii	"char\000"
ARM GAS  /tmp/ccSoisRf.s 			page 89


 4675      00
 4676              	.LASF152:
 4677 066b 6D747835 		.ascii	"mtx5_setup\000"
 4677      5F736574 
 4677      757000
 4678              	.LASF29:
 4679 0676 74687265 		.ascii	"thread_t\000"
 4679      61645F74 
 4679      00
 4680              	.LASF103:
 4681 067f 62657374 		.ascii	"best\000"
 4681      00
 4682              	.LASF126:
 4683 0684 6D5F6E65 		.ascii	"m_next\000"
 4683      787400
 4684              	.LASF28:
 4685 068b 73797374 		.ascii	"systime_t\000"
 4685      696D655F 
 4685      7400
 4686              	.LASF46:
 4687 0695 705F7265 		.ascii	"p_realprio\000"
 4687      616C7072 
 4687      696F00
 4688              	.LASF63:
 4689 06a0 76746675 		.ascii	"vtfunc_t\000"
 4689      6E635F74 
 4689      00
 4690              	.LASF9:
 4691 06a9 5F5F7569 		.ascii	"__uint32_t\000"
 4691      6E743332 
 4691      5F7400
 4692              	.LASF174:
 4693 06b4 5F5F7365 		.ascii	"__set_BASEPRI\000"
 4693      745F4241 
 4693      53455052 
 4693      4900
 4694              	.LASF158:
 4695 06c2 6D747837 		.ascii	"mtx7_execute\000"
 4695      5F657865 
 4695      63757465 
 4695      00
 4696              	.LASF165:
 4697 06cf 74657374 		.ascii	"testmtx1\000"
 4697      6D747831 
 4697      00
 4698              	.LASF101:
 4699 06d8 6F666673 		.ascii	"offset\000"
 4699      657400
 4700              	.LASF90:
 4701 06df 636F6E74 		.ascii	"context\000"
 4701      65787400 
 4702              	.LASF18:
 4703 06e7 7274636E 		.ascii	"rtcnt_t\000"
 4703      745F7400 
 4704              	.LASF70:
 4705 06ef 76745F70 		.ascii	"vt_par\000"
 4705      617200
ARM GAS  /tmp/ccSoisRf.s 			page 90


 4706              	.LASF132:
 4707 06f6 74657374 		.ascii	"testcase\000"
 4707      63617365 
 4707      00
 4708              	.LASF53:
 4709 06ff 74687265 		.ascii	"threads_queue_t\000"
 4709      6164735F 
 4709      71756575 
 4709      655F7400 
 4710              	.LASF123:
 4711 070f 63685F6D 		.ascii	"ch_mutex\000"
 4711      75746578 
 4711      00
 4712              	.LASF40:
 4713 0718 705F7265 		.ascii	"p_refs\000"
 4713      667300
 4714              	.LASF77:
 4715 071f 6973725F 		.ascii	"isr_cnt\000"
 4715      636E7400 
 4716              	.LASF82:
 4717 0727 726C6973 		.ascii	"rlist\000"
 4717      7400
 4718              	.LASF141:
 4719 072d 63685468 		.ascii	"chThdGetSelfX\000"
 4719      64476574 
 4719      53656C66 
 4719      5800
 4720              	.LASF14:
 4721 073b 75696E74 		.ascii	"uint8_t\000"
 4721      385F7400 
 4722              	.LASF76:
 4723 0743 70616E69 		.ascii	"panic_msg\000"
 4723      635F6D73 
 4723      6700
 4724              	.LASF159:
 4725 074d 6D747838 		.ascii	"mtx8_setup\000"
 4725      5F736574 
 4725      757000
 4726              	.LASF173:
 4727 0758 2F686F6D 		.ascii	"/home/efe/ChibiOS/test/rt/testmtx.c\000"
 4727      652F6566 
 4727      652F4368 
 4727      6962694F 
 4727      532F7465 
 4728              	.LASF115:
 4729 077c 77746F62 		.ascii	"wtobjp\000"
 4729      6A7000
 4730              	.LASF36:
 4731 0783 705F6E61 		.ascii	"p_name\000"
 4731      6D6500
 4732              	.LASF50:
 4733 078a 74687265 		.ascii	"threads_list_t\000"
 4733      6164735F 
 4733      6C697374 
 4733      5F7400
 4734              	.LASF79:
 4735 0799 74726163 		.ascii	"trace_buffer\000"
ARM GAS  /tmp/ccSoisRf.s 			page 91


 4735      655F6275 
 4735      66666572 
 4735      00
 4736              	.LASF140:
 4737 07a6 63685379 		.ascii	"chSysUnlock\000"
 4737      73556E6C 
 4737      6F636B00 
 4738              	.LASF43:
 4739 07b2 705F6D73 		.ascii	"p_msg\000"
 4739      6700
 4740              	.LASF110:
 4741 07b8 6D5F6372 		.ascii	"m_crit_thd\000"
 4741      69745F74 
 4741      686400
 4742              	.LASF125:
 4743 07c3 6D5F6F77 		.ascii	"m_owner\000"
 4743      6E657200 
 4744              	.LASF94:
 4745 07cb 73655F77 		.ascii	"se_wtobjp\000"
 4745      746F626A 
 4745      7000
 4746              	.LASF33:
 4747 07d5 705F6374 		.ascii	"p_ctx\000"
 4747      7800
 4748              	.LASF69:
 4749 07db 76745F66 		.ascii	"vt_func\000"
 4749      756E6300 
 4750              		.ident	"GCC: (4.8.4-1+11-1) 4.8.4 20141219 (release)"
ARM GAS  /tmp/ccSoisRf.s 			page 92


DEFINED SYMBOLS
                            *ABS*:0000000000000000 testmtx.c
     /tmp/ccSoisRf.s:19     .text.port_lock:0000000000000000 $t
     /tmp/ccSoisRf.s:24     .text.port_lock:0000000000000000 port_lock
     /tmp/ccSoisRf.s:55     .text.port_unlock:0000000000000000 $t
     /tmp/ccSoisRf.s:60     .text.port_unlock:0000000000000000 port_unlock
     /tmp/ccSoisRf.s:89     .text.queue_isempty:0000000000000000 $t
     /tmp/ccSoisRf.s:94     .text.queue_isempty:0000000000000000 queue_isempty
     /tmp/ccSoisRf.s:123    .text.chSysLock:0000000000000000 $t
     /tmp/ccSoisRf.s:128    .text.chSysLock:0000000000000000 chSysLock
     /tmp/ccSoisRf.s:151    .text.chSysUnlock:0000000000000000 $t
     /tmp/ccSoisRf.s:156    .text.chSysUnlock:0000000000000000 chSysUnlock
     /tmp/ccSoisRf.s:195    .text.chSysUnlock:0000000000000030 $d
     /tmp/ccSoisRf.s:1940   .rodata.__func__.5925:0000000000000000 __func__.5925
     /tmp/ccSoisRf.s:201    .text.chThdGetSelfX:0000000000000000 $t
     /tmp/ccSoisRf.s:206    .text.chThdGetSelfX:0000000000000000 chThdGetSelfX
     /tmp/ccSoisRf.s:223    .text.chThdGetSelfX:0000000000000008 $d
     /tmp/ccSoisRf.s:228    .text.chThdGetPriorityX:0000000000000000 $t
     /tmp/ccSoisRf.s:233    .text.chThdGetPriorityX:0000000000000000 chThdGetPriorityX
     /tmp/ccSoisRf.s:254    .data.m1:0000000000000000 $d
     /tmp/ccSoisRf.s:257    .data.m1:0000000000000000 m1
     /tmp/ccSoisRf.s:263    .data.m2:0000000000000000 $d
     /tmp/ccSoisRf.s:266    .data.m2:0000000000000000 m2
     /tmp/ccSoisRf.s:272    .data.c1:0000000000000000 $d
     /tmp/ccSoisRf.s:275    .data.c1:0000000000000000 c1
     /tmp/ccSoisRf.s:279    .text.mtx1_setup:0000000000000000 $t
     /tmp/ccSoisRf.s:284    .text.mtx1_setup:0000000000000000 mtx1_setup
     /tmp/ccSoisRf.s:303    .text.mtx1_setup:000000000000000c $d
     /tmp/ccSoisRf.s:308    .text.thread1:0000000000000000 $t
     /tmp/ccSoisRf.s:313    .text.thread1:0000000000000000 thread1
     /tmp/ccSoisRf.s:343    .text.thread1:0000000000000024 $d
     /tmp/ccSoisRf.s:348    .rodata:0000000000000000 $d
     /tmp/ccSoisRf.s:367    .text.mtx1_execute:0000000000000000 $t
     /tmp/ccSoisRf.s:372    .text.mtx1_execute:0000000000000000 mtx1_execute
     /tmp/ccSoisRf.s:504    .text.mtx1_execute:00000000000000f4 $d
     /tmp/ccSoisRf.s:526    .rodata.testmtx1:0000000000000000 testmtx1
     /tmp/ccSoisRf.s:523    .rodata.testmtx1:0000000000000000 $d
     /tmp/ccSoisRf.s:532    .text.mtx4_setup:0000000000000000 $t
     /tmp/ccSoisRf.s:537    .text.mtx4_setup:0000000000000000 mtx4_setup
     /tmp/ccSoisRf.s:558    .text.mtx4_setup:0000000000000010 $d
     /tmp/ccSoisRf.s:564    .text.thread4a:0000000000000000 $t
     /tmp/ccSoisRf.s:569    .text.thread4a:0000000000000000 thread4a
     /tmp/ccSoisRf.s:597    .text.thread4a:0000000000000020 $d
     /tmp/ccSoisRf.s:602    .text.thread4b:0000000000000000 $t
     /tmp/ccSoisRf.s:607    .text.thread4b:0000000000000000 thread4b
     /tmp/ccSoisRf.s:635    .text.thread4b:0000000000000020 $d
     /tmp/ccSoisRf.s:640    .text.mtx4_execute:0000000000000000 $t
     /tmp/ccSoisRf.s:645    .text.mtx4_execute:0000000000000000 mtx4_execute
     /tmp/ccSoisRf.s:1001   .text.mtx4_execute:00000000000002a8 $d
     /tmp/ccSoisRf.s:1013   .text.mtx4_execute:00000000000002d0 $t
     /tmp/ccSoisRf.s:1051   .rodata.testmtx4:0000000000000000 testmtx4
     /tmp/ccSoisRf.s:1048   .rodata.testmtx4:0000000000000000 $d
     /tmp/ccSoisRf.s:1057   .text.mtx5_setup:0000000000000000 $t
     /tmp/ccSoisRf.s:1062   .text.mtx5_setup:0000000000000000 mtx5_setup
     /tmp/ccSoisRf.s:1080   .text.mtx5_setup:000000000000000c $d
     /tmp/ccSoisRf.s:1085   .text.mtx5_execute:0000000000000000 $t
     /tmp/ccSoisRf.s:1090   .text.mtx5_execute:0000000000000000 mtx5_execute
ARM GAS  /tmp/ccSoisRf.s 			page 93


     /tmp/ccSoisRf.s:1242   .text.mtx5_execute:000000000000010c $d
     /tmp/ccSoisRf.s:1255   .rodata.testmtx5:0000000000000000 testmtx5
     /tmp/ccSoisRf.s:1252   .rodata.testmtx5:0000000000000000 $d
     /tmp/ccSoisRf.s:1261   .text.mtx6_setup:0000000000000000 $t
     /tmp/ccSoisRf.s:1266   .text.mtx6_setup:0000000000000000 mtx6_setup
     /tmp/ccSoisRf.s:1287   .text.mtx6_setup:0000000000000010 $d
     /tmp/ccSoisRf.s:1293   .text.thread10:0000000000000000 $t
     /tmp/ccSoisRf.s:1298   .text.thread10:0000000000000000 thread10
     /tmp/ccSoisRf.s:1331   .text.thread10:0000000000000028 $d
     /tmp/ccSoisRf.s:1337   .text.mtx6_execute:0000000000000000 $t
     /tmp/ccSoisRf.s:1342   .text.mtx6_execute:0000000000000000 mtx6_execute
     /tmp/ccSoisRf.s:1471   .text.mtx6_execute:00000000000000f0 $d
     /tmp/ccSoisRf.s:1493   .rodata.testmtx6:0000000000000000 testmtx6
     /tmp/ccSoisRf.s:1490   .rodata.testmtx6:0000000000000000 $d
     /tmp/ccSoisRf.s:1499   .text.mtx7_setup:0000000000000000 $t
     /tmp/ccSoisRf.s:1504   .text.mtx7_setup:0000000000000000 mtx7_setup
     /tmp/ccSoisRf.s:1525   .text.mtx7_setup:0000000000000010 $d
     /tmp/ccSoisRf.s:1531   .text.mtx7_execute:0000000000000000 $t
     /tmp/ccSoisRf.s:1536   .text.mtx7_execute:0000000000000000 mtx7_execute
     /tmp/ccSoisRf.s:1647   .text.mtx7_execute:00000000000000cc $d
     /tmp/ccSoisRf.s:1669   .rodata.testmtx7:0000000000000000 testmtx7
     /tmp/ccSoisRf.s:1666   .rodata.testmtx7:0000000000000000 $d
     /tmp/ccSoisRf.s:1675   .text.mtx8_setup:0000000000000000 $t
     /tmp/ccSoisRf.s:1680   .text.mtx8_setup:0000000000000000 mtx8_setup
     /tmp/ccSoisRf.s:1704   .text.mtx8_setup:0000000000000018 $d
     /tmp/ccSoisRf.s:1711   .text.thread11:0000000000000000 $t
     /tmp/ccSoisRf.s:1716   .text.thread11:0000000000000000 thread11
     /tmp/ccSoisRf.s:1756   .text.thread11:0000000000000038 $d
     /tmp/ccSoisRf.s:1763   .text.thread12:0000000000000000 $t
     /tmp/ccSoisRf.s:1768   .text.thread12:0000000000000000 thread12
     /tmp/ccSoisRf.s:1798   .text.thread12:0000000000000024 $d
     /tmp/ccSoisRf.s:1807   .text.mtx8_execute:0000000000000000 $t
     /tmp/ccSoisRf.s:1812   .text.mtx8_execute:0000000000000000 mtx8_execute
     /tmp/ccSoisRf.s:1896   .text.mtx8_execute:0000000000000090 $d
     /tmp/ccSoisRf.s:1918   .rodata.testmtx8:0000000000000000 testmtx8
     /tmp/ccSoisRf.s:1915   .rodata.testmtx8:0000000000000000 $d
     /tmp/ccSoisRf.s:1928   .rodata.patternmtx:0000000000000000 patternmtx
     /tmp/ccSoisRf.s:1925   .rodata.patternmtx:0000000000000000 $d
     /tmp/ccSoisRf.s:1937   .rodata.__func__.5925:0000000000000000 $d
                     .debug_frame:0000000000000010 $d
     /tmp/ccSoisRf.s:200    .text.chSysUnlock:0000000000000038 $t
     /tmp/ccSoisRf.s:227    .text.chThdGetSelfX:000000000000000c $t
     /tmp/ccSoisRf.s:347    .text.thread1:0000000000000028 $t
     /tmp/ccSoisRf.s:518    .text.mtx1_execute:000000000000011c $t
     /tmp/ccSoisRf.s:563    .text.mtx4_setup:0000000000000018 $t
     /tmp/ccSoisRf.s:601    .text.thread4a:0000000000000024 $t
     /tmp/ccSoisRf.s:639    .text.thread4b:0000000000000024 $t
     /tmp/ccSoisRf.s:1292   .text.mtx6_setup:0000000000000018 $t
     /tmp/ccSoisRf.s:4750   .text.mtx6_execute:0000000000000118 $t
     /tmp/ccSoisRf.s:1530   .text.mtx7_setup:0000000000000018 $t
     /tmp/ccSoisRf.s:1661   .text.mtx7_execute:00000000000000f4 $t
     /tmp/ccSoisRf.s:1710   .text.mtx8_setup:0000000000000024 $t
     /tmp/ccSoisRf.s:1762   .text.thread11:0000000000000044 $t
     /tmp/ccSoisRf.s:1802   .text.thread12:0000000000000028 $t
     /tmp/ccSoisRf.s:1910   .text.mtx8_execute:00000000000000b8 $t

UNDEFINED SYMBOLS
ARM GAS  /tmp/ccSoisRf.s 			page 94


_stats_start_measure_crit_thd
_dbg_check_lock
_dbg_check_unlock
_stats_stop_measure_crit_thd
chSysHalt
ch
chMtxObjectInit
chMtxLock
test_emit_token
chMtxUnlock
chThdCreateStatic
test_wait_threads
_test_assert
_test_assert_sequence
wa
threads
chThdSleep
chMtxUnlockAll
chMtxUnlockS
chSchRescheduleS
chMtxTryLock
chCondObjectInit
chCondWait
chCondSignalI
chCondBroadcast
chCondWaitTimeout
chCondSignal
