ARM GAS  /tmp/ccsKobfn.s 			page 1


   1              		.syntax unified
   2              		.cpu cortex-m4
   3              		.fpu softvfp
   4              		.eabi_attribute 20, 1
   5              		.eabi_attribute 21, 1
   6              		.eabi_attribute 23, 3
   7              		.eabi_attribute 24, 1
   8              		.eabi_attribute 25, 1
   9              		.eabi_attribute 26, 1
  10              		.eabi_attribute 30, 6
  11              		.eabi_attribute 34, 1
  12              		.eabi_attribute 18, 4
  13              		.thumb
  14              		.file	"testthd.c"
  15              		.text
  16              	.Ltext0:
  17              		.cfi_sections	.debug_frame
  18              		.section	.text.port_lock,"ax",%progbits
  19              		.align	2
  20              		.p2align 4,,15
  21              		.thumb
  22              		.thumb_func
  23              		.type	port_lock, %function
  24              	port_lock:
  25              	.LFB127:
  26              		.file 1 "/home/efe/ChibiOS/os/rt/ports/ARMCMx/chcore_v7m.h"
  27              		.loc 1 456 0
  28              		.cfi_startproc
  29              		@ args = 0, pretend = 0, frame = 8
  30              		@ frame_needed = 0, uses_anonymous_args = 0
  31              		@ link register save eliminated.
  32 0000 82B0     		sub	sp, sp, #8
  33              		.cfi_def_cfa_offset 8
  34 0002 2023     		movs	r3, #32
  35 0004 0193     		str	r3, [sp, #4]
  36              	.LBB6:
  37              	.LBB7:
  38              		.file 2 "/home/efe/ChibiOS/os/ext/CMSIS/include/core_cmFunc.h"
  39              		.loc 2 548 0
  40 0006 019B     		ldr	r3, [sp, #4]
  41              	@ 548 "/home/efe/ChibiOS/os/ext/CMSIS/include/core_cmFunc.h" 1
  42 0008 83F31188 		MSR basepri, r3
  43              	@ 0 "" 2
  44              		.thumb
  45              	.LBE7:
  46              	.LBE6:
  47              		.loc 1 463 0
  48 000c 02B0     		add	sp, sp, #8
  49              		@ sp needed
  50 000e 7047     		bx	lr
  51              		.cfi_endproc
  52              	.LFE127:
  53              		.size	port_lock, .-port_lock
  54              		.section	.text.port_unlock,"ax",%progbits
  55              		.align	2
  56              		.p2align 4,,15
  57              		.thumb
ARM GAS  /tmp/ccsKobfn.s 			page 2


  58              		.thumb_func
  59              		.type	port_unlock, %function
  60              	port_unlock:
  61              	.LFB128:
  62              		.loc 1 470 0
  63              		.cfi_startproc
  64              		@ args = 0, pretend = 0, frame = 8
  65              		@ frame_needed = 0, uses_anonymous_args = 0
  66              		@ link register save eliminated.
  67 0000 82B0     		sub	sp, sp, #8
  68              		.cfi_def_cfa_offset 8
  69 0002 0023     		movs	r3, #0
  70 0004 0193     		str	r3, [sp, #4]
  71              	.LBB8:
  72              	.LBB9:
  73              		.loc 2 548 0
  74 0006 019B     		ldr	r3, [sp, #4]
  75              	@ 548 "/home/efe/ChibiOS/os/ext/CMSIS/include/core_cmFunc.h" 1
  76 0008 83F31188 		MSR basepri, r3
  77              	@ 0 "" 2
  78              		.thumb
  79              	.LBE9:
  80              	.LBE8:
  81              		.loc 1 477 0
  82 000c 02B0     		add	sp, sp, #8
  83              		@ sp needed
  84 000e 7047     		bx	lr
  85              		.cfi_endproc
  86              	.LFE128:
  87              		.size	port_unlock, .-port_unlock
  88              		.section	.text.st_lld_get_counter,"ax",%progbits
  89              		.align	2
  90              		.p2align 4,,15
  91              		.thumb
  92              		.thumb_func
  93              		.type	st_lld_get_counter, %function
  94              	st_lld_get_counter:
  95              	.LFB136:
  96              		.file 3 "/home/efe/ChibiOS/os/hal/ports/STM32/LLD/TIMv1/st_lld.h"
  97              		.loc 3 139 0
  98              		.cfi_startproc
  99              		@ args = 0, pretend = 0, frame = 0
 100              		@ frame_needed = 0, uses_anonymous_args = 0
 101              		@ link register save eliminated.
 102              		.loc 3 141 0
 103 0000 4FF08043 		mov	r3, #1073741824
 104 0004 5B6A     		ldr	r3, [r3, #36]
 105              		.loc 3 142 0
 106 0006 1846     		mov	r0, r3
 107 0008 7047     		bx	lr
 108              		.cfi_endproc
 109              	.LFE136:
 110              		.size	st_lld_get_counter, .-st_lld_get_counter
 111 000a 00BFAFF3 		.section	.text.port_timer_get_time,"ax",%progbits
 111      0080
 112              		.align	2
 113              		.p2align 4,,15
ARM GAS  /tmp/ccsKobfn.s 			page 3


 114              		.thumb
 115              		.thumb_func
 116              		.type	port_timer_get_time, %function
 117              	port_timer_get_time:
 118              	.LFB145:
 119              		.file 4 "/home/efe/ChibiOS/os/rt/ports/ARMCMx/chcore_timer.h"
 120              		.loc 4 105 0
 121              		.cfi_startproc
 122              		@ args = 0, pretend = 0, frame = 0
 123              		@ frame_needed = 0, uses_anonymous_args = 0
 124 0000 08B5     		push	{r3, lr}
 125              		.cfi_def_cfa_offset 8
 126              		.cfi_offset 3, -8
 127              		.cfi_offset 14, -4
 128              		.loc 4 107 0
 129 0002 FFF7FEFF 		bl	st_lld_get_counter
 130 0006 0346     		mov	r3, r0
 131              		.loc 4 108 0
 132 0008 1846     		mov	r0, r3
 133 000a 08BD     		pop	{r3, pc}
 134              		.cfi_endproc
 135              	.LFE145:
 136              		.size	port_timer_get_time, .-port_timer_get_time
 137              		.section	.text.chSysLock,"ax",%progbits
 138              		.align	2
 139              		.p2align 4,,15
 140              		.thumb
 141              		.thumb_func
 142              		.type	chSysLock, %function
 143              	chSysLock:
 144              	.LFB167:
 145              		.file 5 "/home/efe/ChibiOS/os/rt/include/chsys.h"
 146              		.loc 5 346 0
 147              		.cfi_startproc
 148              		@ args = 0, pretend = 0, frame = 0
 149              		@ frame_needed = 0, uses_anonymous_args = 0
 150 0000 08B5     		push	{r3, lr}
 151              		.cfi_def_cfa_offset 8
 152              		.cfi_offset 3, -8
 153              		.cfi_offset 14, -4
 154              		.loc 5 348 0
 155 0002 FFF7FEFF 		bl	port_lock
 156              		.loc 5 349 0
 157 0006 FFF7FEFF 		bl	_stats_start_measure_crit_thd
 158              		.loc 5 350 0
 159 000a FFF7FEFF 		bl	_dbg_check_lock
 160              		.loc 5 351 0
 161 000e 08BD     		pop	{r3, pc}
 162              		.cfi_endproc
 163              	.LFE167:
 164              		.size	chSysLock, .-chSysLock
 165              		.section	.text.chSysUnlock,"ax",%progbits
 166              		.align	2
 167              		.p2align 4,,15
 168              		.thumb
 169              		.thumb_func
 170              		.type	chSysUnlock, %function
ARM GAS  /tmp/ccsKobfn.s 			page 4


 171              	chSysUnlock:
 172              	.LFB168:
 173              		.loc 5 358 0
 174              		.cfi_startproc
 175              		@ args = 0, pretend = 0, frame = 0
 176              		@ frame_needed = 0, uses_anonymous_args = 0
 177 0000 08B5     		push	{r3, lr}
 178              		.cfi_def_cfa_offset 8
 179              		.cfi_offset 3, -8
 180              		.cfi_offset 14, -4
 181              		.loc 5 360 0
 182 0002 FFF7FEFF 		bl	_dbg_check_unlock
 183              		.loc 5 361 0
 184 0006 FFF7FEFF 		bl	_stats_stop_measure_crit_thd
 185              		.loc 5 367 0
 186 000a 094B     		ldr	r3, .L10
 187 000c 1A68     		ldr	r2, [r3]
 188 000e 084B     		ldr	r3, .L10
 189 0010 9A42     		cmp	r2, r3
 190 0012 0AD0     		beq	.L9
 191              		.loc 5 367 0 is_stmt 0 discriminator 1
 192 0014 064B     		ldr	r3, .L10
 193 0016 9B69     		ldr	r3, [r3, #24]
 194 0018 9A68     		ldr	r2, [r3, #8]
 195 001a 054B     		ldr	r3, .L10
 196 001c 1B68     		ldr	r3, [r3]
 197 001e 9B68     		ldr	r3, [r3, #8]
 198 0020 9A42     		cmp	r2, r3
 199 0022 02D2     		bcs	.L9
 200 0024 0348     		ldr	r0, .L10+4
 201 0026 FFF7FEFF 		bl	chSysHalt
 202              	.L9:
 203              		.loc 5 371 0 is_stmt 1
 204 002a FFF7FEFF 		bl	port_unlock
 205              		.loc 5 372 0
 206 002e 08BD     		pop	{r3, pc}
 207              	.L11:
 208              		.align	2
 209              	.L10:
 210 0030 00000000 		.word	ch
 211 0034 00000000 		.word	__func__.5925
 212              		.cfi_endproc
 213              	.LFE168:
 214              		.size	chSysUnlock, .-chSysUnlock
 215 0038 AFF30080 		.section	.text.chVTGetSystemTimeX,"ax",%progbits
 215      AFF30080 
 216              		.align	2
 217              		.p2align 4,,15
 218              		.thumb
 219              		.thumb_func
 220              		.type	chVTGetSystemTimeX, %function
 221              	chVTGetSystemTimeX:
 222              	.LFB175:
 223              		.file 6 "/home/efe/ChibiOS/os/rt/include/chvt.h"
 224              		.loc 6 228 0
 225              		.cfi_startproc
 226              		@ args = 0, pretend = 0, frame = 0
ARM GAS  /tmp/ccsKobfn.s 			page 5


 227              		@ frame_needed = 0, uses_anonymous_args = 0
 228 0000 08B5     		push	{r3, lr}
 229              		.cfi_def_cfa_offset 8
 230              		.cfi_offset 3, -8
 231              		.cfi_offset 14, -4
 232              		.loc 6 233 0
 233 0002 FFF7FEFF 		bl	port_timer_get_time
 234 0006 0346     		mov	r3, r0
 235              		.loc 6 235 0
 236 0008 1846     		mov	r0, r3
 237 000a 08BD     		pop	{r3, pc}
 238              		.cfi_endproc
 239              	.LFE175:
 240              		.size	chVTGetSystemTimeX, .-chVTGetSystemTimeX
 241              		.section	.text.chVTGetSystemTime,"ax",%progbits
 242              		.align	2
 243              		.p2align 4,,15
 244              		.thumb
 245              		.thumb_func
 246              		.type	chVTGetSystemTime, %function
 247              	chVTGetSystemTime:
 248              	.LFB176:
 249              		.loc 6 247 0
 250              		.cfi_startproc
 251              		@ args = 0, pretend = 0, frame = 8
 252              		@ frame_needed = 0, uses_anonymous_args = 0
 253 0000 00B5     		push	{lr}
 254              		.cfi_def_cfa_offset 4
 255              		.cfi_offset 14, -4
 256 0002 83B0     		sub	sp, sp, #12
 257              		.cfi_def_cfa_offset 16
 258              		.loc 6 250 0
 259 0004 FFF7FEFF 		bl	chSysLock
 260              		.loc 6 251 0
 261 0008 FFF7FEFF 		bl	chVTGetSystemTimeX
 262 000c 0190     		str	r0, [sp, #4]
 263              		.loc 6 252 0
 264 000e FFF7FEFF 		bl	chSysUnlock
 265              		.loc 6 254 0
 266 0012 019B     		ldr	r3, [sp, #4]
 267              		.loc 6 255 0
 268 0014 1846     		mov	r0, r3
 269 0016 03B0     		add	sp, sp, #12
 270              		@ sp needed
 271 0018 5DF804FB 		ldr	pc, [sp], #4
 272              		.cfi_endproc
 273              	.LFE176:
 274              		.size	chVTGetSystemTime, .-chVTGetSystemTime
 275 001c AFF30080 		.section	.text.chThdGetSelfX,"ax",%progbits
 276              		.align	2
 277              		.p2align 4,,15
 278              		.thumb
 279              		.thumb_func
 280              		.type	chThdGetSelfX, %function
 281              	chThdGetSelfX:
 282              	.LFB188:
 283              		.file 7 "/home/efe/ChibiOS/os/rt/include/chthreads.h"
ARM GAS  /tmp/ccsKobfn.s 			page 6


 284              		.loc 7 174 0
 285              		.cfi_startproc
 286              		@ args = 0, pretend = 0, frame = 0
 287              		@ frame_needed = 0, uses_anonymous_args = 0
 288              		@ link register save eliminated.
 289              		.loc 7 176 0
 290 0000 014B     		ldr	r3, .L18
 291 0002 9B69     		ldr	r3, [r3, #24]
 292              		.loc 7 177 0
 293 0004 1846     		mov	r0, r3
 294 0006 7047     		bx	lr
 295              	.L19:
 296              		.align	2
 297              	.L18:
 298 0008 00000000 		.word	ch
 299              		.cfi_endproc
 300              	.LFE188:
 301              		.size	chThdGetSelfX, .-chThdGetSelfX
 302 000c AFF30080 		.section	.text.chThdGetPriorityX,"ax",%progbits
 303              		.align	2
 304              		.p2align 4,,15
 305              		.thumb
 306              		.thumb_func
 307              		.type	chThdGetPriorityX, %function
 308              	chThdGetPriorityX:
 309              	.LFB189:
 310              		.loc 7 187 0
 311              		.cfi_startproc
 312              		@ args = 0, pretend = 0, frame = 0
 313              		@ frame_needed = 0, uses_anonymous_args = 0
 314 0000 08B5     		push	{r3, lr}
 315              		.cfi_def_cfa_offset 8
 316              		.cfi_offset 3, -8
 317              		.cfi_offset 14, -4
 318              		.loc 7 189 0
 319 0002 FFF7FEFF 		bl	chThdGetSelfX
 320 0006 0346     		mov	r3, r0
 321 0008 9B68     		ldr	r3, [r3, #8]
 322              		.loc 7 190 0
 323 000a 1846     		mov	r0, r3
 324 000c 08BD     		pop	{r3, pc}
 325              		.cfi_endproc
 326              	.LFE189:
 327              		.size	chThdGetPriorityX, .-chThdGetPriorityX
 328 000e 00BF     		.section	.text.thread,"ax",%progbits
 329              		.align	2
 330              		.p2align 4,,15
 331              		.thumb
 332              		.thumb_func
 333              		.type	thread, %function
 334              	thread:
 335              	.LFB240:
 336              		.file 8 "/home/efe/ChibiOS/test/rt/testthd.c"
 337              		.loc 8 60 0
 338              		.cfi_startproc
 339              		@ args = 0, pretend = 0, frame = 8
 340              		@ frame_needed = 0, uses_anonymous_args = 0
ARM GAS  /tmp/ccsKobfn.s 			page 7


 341 0000 00B5     		push	{lr}
 342              		.cfi_def_cfa_offset 4
 343              		.cfi_offset 14, -4
 344 0002 83B0     		sub	sp, sp, #12
 345              		.cfi_def_cfa_offset 16
 346 0004 0190     		str	r0, [sp, #4]
 347              		.loc 8 62 0
 348 0006 019B     		ldr	r3, [sp, #4]
 349 0008 1B78     		ldrb	r3, [r3]	@ zero_extendqisi2
 350 000a 1846     		mov	r0, r3
 351 000c FFF7FEFF 		bl	test_emit_token
 352              		.loc 8 63 0
 353 0010 03B0     		add	sp, sp, #12
 354              		@ sp needed
 355 0012 5DF804FB 		ldr	pc, [sp], #4
 356              		.cfi_endproc
 357              	.LFE240:
 358              		.size	thread, .-thread
 359 0016 00BFAFF3 		.section	.rodata
 359      0080AFF3 
 359      0080
 360              		.align	2
 361              	.LC0:
 362 0000 4500     		.ascii	"E\000"
 363 0002 0000     		.align	2
 364              	.LC1:
 365 0004 4400     		.ascii	"D\000"
 366 0006 0000     		.align	2
 367              	.LC2:
 368 0008 4300     		.ascii	"C\000"
 369 000a 0000     		.align	2
 370              	.LC3:
 371 000c 4200     		.ascii	"B\000"
 372 000e 0000     		.align	2
 373              	.LC4:
 374 0010 4100     		.ascii	"A\000"
 375 0012 0000     		.align	2
 376              	.LC5:
 377 0014 41424344 		.ascii	"ABCDE\000"
 377      4500
 378              		.section	.text.thd1_execute,"ax",%progbits
 379              		.align	2
 380              		.p2align 4,,15
 381              		.thumb
 382              		.thumb_func
 383              		.type	thd1_execute, %function
 384              	thd1_execute:
 385              	.LFB241:
 386              		.loc 8 65 0
 387              		.cfi_startproc
 388              		@ args = 0, pretend = 0, frame = 0
 389              		@ frame_needed = 0, uses_anonymous_args = 0
 390 0000 10B5     		push	{r4, lr}
 391              		.cfi_def_cfa_offset 8
 392              		.cfi_offset 4, -8
 393              		.cfi_offset 14, -4
 394 0002 82B0     		sub	sp, sp, #8
ARM GAS  /tmp/ccsKobfn.s 			page 8


 395              		.cfi_def_cfa_offset 16
 396              		.loc 8 67 0
 397 0004 324B     		ldr	r3, .L25
 398 0006 1C68     		ldr	r4, [r3]
 399 0008 FFF7FEFF 		bl	chThdGetPriorityX
 400 000c 0346     		mov	r3, r0
 401 000e 053B     		subs	r3, r3, #5
 402 0010 304A     		ldr	r2, .L25+4
 403 0012 0092     		str	r2, [sp]
 404 0014 2046     		mov	r0, r4
 405 0016 4FF4B471 		mov	r1, #360
 406 001a 1A46     		mov	r2, r3
 407 001c 2E4B     		ldr	r3, .L25+8
 408 001e FFF7FEFF 		bl	chThdCreateStatic
 409 0022 0246     		mov	r2, r0
 410 0024 2D4B     		ldr	r3, .L25+12
 411 0026 1A60     		str	r2, [r3]
 412              		.loc 8 68 0
 413 0028 294B     		ldr	r3, .L25
 414 002a 5C68     		ldr	r4, [r3, #4]
 415 002c FFF7FEFF 		bl	chThdGetPriorityX
 416 0030 0346     		mov	r3, r0
 417 0032 043B     		subs	r3, r3, #4
 418 0034 2A4A     		ldr	r2, .L25+16
 419 0036 0092     		str	r2, [sp]
 420 0038 2046     		mov	r0, r4
 421 003a 4FF4B471 		mov	r1, #360
 422 003e 1A46     		mov	r2, r3
 423 0040 254B     		ldr	r3, .L25+8
 424 0042 FFF7FEFF 		bl	chThdCreateStatic
 425 0046 0246     		mov	r2, r0
 426 0048 244B     		ldr	r3, .L25+12
 427 004a 5A60     		str	r2, [r3, #4]
 428              		.loc 8 69 0
 429 004c 204B     		ldr	r3, .L25
 430 004e 9C68     		ldr	r4, [r3, #8]
 431 0050 FFF7FEFF 		bl	chThdGetPriorityX
 432 0054 0346     		mov	r3, r0
 433 0056 033B     		subs	r3, r3, #3
 434 0058 224A     		ldr	r2, .L25+20
 435 005a 0092     		str	r2, [sp]
 436 005c 2046     		mov	r0, r4
 437 005e 4FF4B471 		mov	r1, #360
 438 0062 1A46     		mov	r2, r3
 439 0064 1C4B     		ldr	r3, .L25+8
 440 0066 FFF7FEFF 		bl	chThdCreateStatic
 441 006a 0246     		mov	r2, r0
 442 006c 1B4B     		ldr	r3, .L25+12
 443 006e 9A60     		str	r2, [r3, #8]
 444              		.loc 8 70 0
 445 0070 174B     		ldr	r3, .L25
 446 0072 DC68     		ldr	r4, [r3, #12]
 447 0074 FFF7FEFF 		bl	chThdGetPriorityX
 448 0078 0346     		mov	r3, r0
 449 007a 023B     		subs	r3, r3, #2
 450 007c 1A4A     		ldr	r2, .L25+24
 451 007e 0092     		str	r2, [sp]
ARM GAS  /tmp/ccsKobfn.s 			page 9


 452 0080 2046     		mov	r0, r4
 453 0082 4FF4B471 		mov	r1, #360
 454 0086 1A46     		mov	r2, r3
 455 0088 134B     		ldr	r3, .L25+8
 456 008a FFF7FEFF 		bl	chThdCreateStatic
 457 008e 0246     		mov	r2, r0
 458 0090 124B     		ldr	r3, .L25+12
 459 0092 DA60     		str	r2, [r3, #12]
 460              		.loc 8 71 0
 461 0094 0E4B     		ldr	r3, .L25
 462 0096 1C69     		ldr	r4, [r3, #16]
 463 0098 FFF7FEFF 		bl	chThdGetPriorityX
 464 009c 0346     		mov	r3, r0
 465 009e 013B     		subs	r3, r3, #1
 466 00a0 124A     		ldr	r2, .L25+28
 467 00a2 0092     		str	r2, [sp]
 468 00a4 2046     		mov	r0, r4
 469 00a6 4FF4B471 		mov	r1, #360
 470 00aa 1A46     		mov	r2, r3
 471 00ac 0A4B     		ldr	r3, .L25+8
 472 00ae FFF7FEFF 		bl	chThdCreateStatic
 473 00b2 0246     		mov	r2, r0
 474 00b4 094B     		ldr	r3, .L25+12
 475 00b6 1A61     		str	r2, [r3, #16]
 476              		.loc 8 72 0
 477 00b8 FFF7FEFF 		bl	test_wait_threads
 478              		.loc 8 73 0
 479 00bc 0120     		movs	r0, #1
 480 00be 0C49     		ldr	r1, .L25+32
 481 00c0 FFF7FEFF 		bl	_test_assert_sequence
 482 00c4 0346     		mov	r3, r0
 483 00c6 002B     		cmp	r3, #0
 484 00c8 00D0     		beq	.L23
 485              		.loc 8 73 0 is_stmt 0 discriminator 1
 486 00ca 00BF     		nop
 487              	.L23:
 488              		.loc 8 74 0 is_stmt 1
 489 00cc 02B0     		add	sp, sp, #8
 490              		@ sp needed
 491 00ce 10BD     		pop	{r4, pc}
 492              	.L26:
 493              		.align	2
 494              	.L25:
 495 00d0 00000000 		.word	wa
 496 00d4 00000000 		.word	.LC0
 497 00d8 00000000 		.word	thread
 498 00dc 00000000 		.word	threads
 499 00e0 04000000 		.word	.LC1
 500 00e4 08000000 		.word	.LC2
 501 00e8 0C000000 		.word	.LC3
 502 00ec 10000000 		.word	.LC4
 503 00f0 14000000 		.word	.LC5
 504              		.cfi_endproc
 505              	.LFE241:
 506              		.size	thd1_execute, .-thd1_execute
 507              		.global	testthd1
 508 00f4 AFF30080 		.section	.rodata
ARM GAS  /tmp/ccsKobfn.s 			page 10


 508      AFF30080 
 508      AFF30080 
 509 001a 0000     		.align	2
 510              	.LC6:
 511 001c 54687265 		.ascii	"Threads, enqueuing test #1\000"
 511      6164732C 
 511      20656E71 
 511      75657569 
 511      6E672074 
 512              		.section	.rodata.testthd1,"a",%progbits
 513              		.align	2
 514              		.type	testthd1, %object
 515              		.size	testthd1, 16
 516              	testthd1:
 517 0000 1C000000 		.word	.LC6
 518 0004 00000000 		.word	0
 519 0008 00000000 		.word	0
 520 000c 00000000 		.word	thd1_execute
 521              		.section	.text.thd2_execute,"ax",%progbits
 522              		.align	2
 523              		.p2align 4,,15
 524              		.thumb
 525              		.thumb_func
 526              		.type	thd2_execute, %function
 527              	thd2_execute:
 528              	.LFB242:
 529              		.loc 8 93 0
 530              		.cfi_startproc
 531              		@ args = 0, pretend = 0, frame = 0
 532              		@ frame_needed = 0, uses_anonymous_args = 0
 533 0000 10B5     		push	{r4, lr}
 534              		.cfi_def_cfa_offset 8
 535              		.cfi_offset 4, -8
 536              		.cfi_offset 14, -4
 537 0002 82B0     		sub	sp, sp, #8
 538              		.cfi_def_cfa_offset 16
 539              		.loc 8 95 0
 540 0004 374B     		ldr	r3, .L29
 541 0006 5C68     		ldr	r4, [r3, #4]
 542 0008 FFF7FEFF 		bl	chThdGetPriorityX
 543 000c 0346     		mov	r3, r0
 544 000e 043B     		subs	r3, r3, #4
 545 0010 354A     		ldr	r2, .L29+4
 546 0012 0092     		str	r2, [sp]
 547 0014 2046     		mov	r0, r4
 548 0016 4FF4B471 		mov	r1, #360
 549 001a 1A46     		mov	r2, r3
 550 001c 334B     		ldr	r3, .L29+8
 551 001e FFF7FEFF 		bl	chThdCreateStatic
 552 0022 0246     		mov	r2, r0
 553 0024 324B     		ldr	r3, .L29+12
 554 0026 5A60     		str	r2, [r3, #4]
 555              		.loc 8 96 0
 556 0028 2E4B     		ldr	r3, .L29
 557 002a 1C68     		ldr	r4, [r3]
 558 002c FFF7FEFF 		bl	chThdGetPriorityX
 559 0030 0346     		mov	r3, r0
ARM GAS  /tmp/ccsKobfn.s 			page 11


 560 0032 053B     		subs	r3, r3, #5
 561 0034 2F4A     		ldr	r2, .L29+16
 562 0036 0092     		str	r2, [sp]
 563 0038 2046     		mov	r0, r4
 564 003a 4FF4B471 		mov	r1, #360
 565 003e 1A46     		mov	r2, r3
 566 0040 2A4B     		ldr	r3, .L29+8
 567 0042 FFF7FEFF 		bl	chThdCreateStatic
 568 0046 0246     		mov	r2, r0
 569 0048 294B     		ldr	r3, .L29+12
 570 004a 1A60     		str	r2, [r3]
 571              		.loc 8 97 0
 572 004c 254B     		ldr	r3, .L29
 573 004e 1C69     		ldr	r4, [r3, #16]
 574 0050 FFF7FEFF 		bl	chThdGetPriorityX
 575 0054 0346     		mov	r3, r0
 576 0056 013B     		subs	r3, r3, #1
 577 0058 274A     		ldr	r2, .L29+20
 578 005a 0092     		str	r2, [sp]
 579 005c 2046     		mov	r0, r4
 580 005e 4FF4B471 		mov	r1, #360
 581 0062 1A46     		mov	r2, r3
 582 0064 214B     		ldr	r3, .L29+8
 583 0066 FFF7FEFF 		bl	chThdCreateStatic
 584 006a 0246     		mov	r2, r0
 585 006c 204B     		ldr	r3, .L29+12
 586 006e 1A61     		str	r2, [r3, #16]
 587              		.loc 8 98 0
 588 0070 1C4B     		ldr	r3, .L29
 589 0072 DC68     		ldr	r4, [r3, #12]
 590 0074 FFF7FEFF 		bl	chThdGetPriorityX
 591 0078 0346     		mov	r3, r0
 592 007a 023B     		subs	r3, r3, #2
 593 007c 1F4A     		ldr	r2, .L29+24
 594 007e 0092     		str	r2, [sp]
 595 0080 2046     		mov	r0, r4
 596 0082 4FF4B471 		mov	r1, #360
 597 0086 1A46     		mov	r2, r3
 598 0088 184B     		ldr	r3, .L29+8
 599 008a FFF7FEFF 		bl	chThdCreateStatic
 600 008e 0246     		mov	r2, r0
 601 0090 174B     		ldr	r3, .L29+12
 602 0092 DA60     		str	r2, [r3, #12]
 603              		.loc 8 100 0
 604 0094 FFF7FEFF 		bl	chSysLock
 605              		.loc 8 101 0
 606 0098 124B     		ldr	r3, .L29
 607 009a 9C68     		ldr	r4, [r3, #8]
 608 009c FFF7FEFF 		bl	chThdGetPriorityX
 609 00a0 0346     		mov	r3, r0
 610 00a2 033B     		subs	r3, r3, #3
 611 00a4 164A     		ldr	r2, .L29+28
 612 00a6 0092     		str	r2, [sp]
 613 00a8 2046     		mov	r0, r4
 614 00aa 4FF4B471 		mov	r1, #360
 615 00ae 1A46     		mov	r2, r3
 616 00b0 0E4B     		ldr	r3, .L29+8
ARM GAS  /tmp/ccsKobfn.s 			page 12


 617 00b2 FFF7FEFF 		bl	chThdCreateI
 618 00b6 0246     		mov	r2, r0
 619 00b8 0D4B     		ldr	r3, .L29+12
 620 00ba 9A60     		str	r2, [r3, #8]
 621              		.loc 8 102 0
 622 00bc FFF7FEFF 		bl	chSysUnlock
 623              		.loc 8 103 0
 624 00c0 0B4B     		ldr	r3, .L29+12
 625 00c2 9B68     		ldr	r3, [r3, #8]
 626 00c4 1846     		mov	r0, r3
 627 00c6 FFF7FEFF 		bl	chThdStart
 628              		.loc 8 104 0
 629 00ca FFF7FEFF 		bl	test_wait_threads
 630              		.loc 8 105 0
 631 00ce 0120     		movs	r0, #1
 632 00d0 0C49     		ldr	r1, .L29+32
 633 00d2 FFF7FEFF 		bl	_test_assert_sequence
 634 00d6 0346     		mov	r3, r0
 635 00d8 002B     		cmp	r3, #0
 636 00da 00D0     		beq	.L27
 637              		.loc 8 105 0 is_stmt 0 discriminator 1
 638 00dc 00BF     		nop
 639              	.L27:
 640              		.loc 8 106 0 is_stmt 1
 641 00de 02B0     		add	sp, sp, #8
 642              		@ sp needed
 643 00e0 10BD     		pop	{r4, pc}
 644              	.L30:
 645 00e2 00BF     		.align	2
 646              	.L29:
 647 00e4 00000000 		.word	wa
 648 00e8 04000000 		.word	.LC1
 649 00ec 00000000 		.word	thread
 650 00f0 00000000 		.word	threads
 651 00f4 00000000 		.word	.LC0
 652 00f8 10000000 		.word	.LC4
 653 00fc 0C000000 		.word	.LC3
 654 0100 08000000 		.word	.LC2
 655 0104 14000000 		.word	.LC5
 656              		.cfi_endproc
 657              	.LFE242:
 658              		.size	thd2_execute, .-thd2_execute
 659              		.global	testthd2
 660 0108 AFF30080 		.section	.rodata
 660      AFF30080 
 661 0037 00       		.align	2
 662              	.LC7:
 663 0038 54687265 		.ascii	"Threads, enqueuing test #2\000"
 663      6164732C 
 663      20656E71 
 663      75657569 
 663      6E672074 
 664              		.section	.rodata.testthd2,"a",%progbits
 665              		.align	2
 666              		.type	testthd2, %object
 667              		.size	testthd2, 16
 668              	testthd2:
ARM GAS  /tmp/ccsKobfn.s 			page 13


 669 0000 38000000 		.word	.LC7
 670 0004 00000000 		.word	0
 671 0008 00000000 		.word	0
 672 000c 00000000 		.word	thd2_execute
 673              		.section	.text.thd3_execute,"ax",%progbits
 674              		.align	2
 675              		.p2align 4,,15
 676              		.thumb
 677              		.thumb_func
 678              		.type	thd3_execute, %function
 679              	thd3_execute:
 680              	.LFB243:
 681              		.loc 8 125 0
 682              		.cfi_startproc
 683              		@ args = 0, pretend = 0, frame = 8
 684              		@ frame_needed = 0, uses_anonymous_args = 0
 685 0000 00B5     		push	{lr}
 686              		.cfi_def_cfa_offset 4
 687              		.cfi_offset 14, -4
 688 0002 83B0     		sub	sp, sp, #12
 689              		.cfi_def_cfa_offset 16
 690              		.loc 8 128 0
 691 0004 FFF7FEFF 		bl	chThdGetPriorityX
 692 0008 0190     		str	r0, [sp, #4]
 693              		.loc 8 129 0
 694 000a 019B     		ldr	r3, [sp, #4]
 695 000c 0133     		adds	r3, r3, #1
 696 000e 1846     		mov	r0, r3
 697 0010 FFF7FEFF 		bl	chThdSetPriority
 698 0014 0090     		str	r0, [sp]
 699              		.loc 8 130 0
 700 0016 009A     		ldr	r2, [sp]
 701 0018 019B     		ldr	r3, [sp, #4]
 702 001a 9A42     		cmp	r2, r3
 703 001c 14BF     		ite	ne
 704 001e 0023     		movne	r3, #0
 705 0020 0123     		moveq	r3, #1
 706 0022 DBB2     		uxtb	r3, r3
 707 0024 0120     		movs	r0, #1
 708 0026 1946     		mov	r1, r3
 709 0028 FFF7FEFF 		bl	_test_assert
 710 002c 0346     		mov	r3, r0
 711 002e 002B     		cmp	r3, #0
 712 0030 00D0     		beq	.L32
 713              		.loc 8 130 0 is_stmt 0 discriminator 1
 714 0032 D7E0     		b	.L31
 715              	.L32:
 716              		.loc 8 132 0 is_stmt 1
 717 0034 FFF7FEFF 		bl	chThdGetPriorityX
 718 0038 0246     		mov	r2, r0
 719 003a 019B     		ldr	r3, [sp, #4]
 720 003c 0133     		adds	r3, r3, #1
 721 003e 9A42     		cmp	r2, r3
 722 0040 14BF     		ite	ne
 723 0042 0023     		movne	r3, #0
 724 0044 0123     		moveq	r3, #1
 725 0046 DBB2     		uxtb	r3, r3
ARM GAS  /tmp/ccsKobfn.s 			page 14


 726 0048 0220     		movs	r0, #2
 727 004a 1946     		mov	r1, r3
 728 004c FFF7FEFF 		bl	_test_assert
 729 0050 0346     		mov	r3, r0
 730 0052 002B     		cmp	r3, #0
 731 0054 00D0     		beq	.L34
 732              		.loc 8 132 0 is_stmt 0 discriminator 1
 733 0056 C5E0     		b	.L31
 734              	.L34:
 735              		.loc 8 134 0 is_stmt 1
 736 0058 0098     		ldr	r0, [sp]
 737 005a FFF7FEFF 		bl	chThdSetPriority
 738 005e 0090     		str	r0, [sp]
 739              		.loc 8 135 0
 740 0060 019B     		ldr	r3, [sp, #4]
 741 0062 5A1C     		adds	r2, r3, #1
 742 0064 009B     		ldr	r3, [sp]
 743 0066 9A42     		cmp	r2, r3
 744 0068 14BF     		ite	ne
 745 006a 0023     		movne	r3, #0
 746 006c 0123     		moveq	r3, #1
 747 006e DBB2     		uxtb	r3, r3
 748 0070 0320     		movs	r0, #3
 749 0072 1946     		mov	r1, r3
 750 0074 FFF7FEFF 		bl	_test_assert
 751 0078 0346     		mov	r3, r0
 752 007a 002B     		cmp	r3, #0
 753 007c 00D0     		beq	.L35
 754              		.loc 8 135 0 is_stmt 0 discriminator 1
 755 007e B1E0     		b	.L31
 756              	.L35:
 757              		.loc 8 137 0 is_stmt 1
 758 0080 FFF7FEFF 		bl	chThdGetPriorityX
 759 0084 0246     		mov	r2, r0
 760 0086 019B     		ldr	r3, [sp, #4]
 761 0088 9A42     		cmp	r2, r3
 762 008a 14BF     		ite	ne
 763 008c 0023     		movne	r3, #0
 764 008e 0123     		moveq	r3, #1
 765 0090 DBB2     		uxtb	r3, r3
 766 0092 0420     		movs	r0, #4
 767 0094 1946     		mov	r1, r3
 768 0096 FFF7FEFF 		bl	_test_assert
 769 009a 0346     		mov	r3, r0
 770 009c 002B     		cmp	r3, #0
 771 009e 00D0     		beq	.L36
 772              		.loc 8 137 0 is_stmt 0 discriminator 1
 773 00a0 A0E0     		b	.L31
 774              	.L36:
 775              		.loc 8 142 0 is_stmt 1
 776 00a2 FFF7FEFF 		bl	chSysLock
 777              		.loc 8 143 0
 778 00a6 FFF7FEFF 		bl	chThdGetSelfX
 779 00aa 0346     		mov	r3, r0
 780 00ac 9A68     		ldr	r2, [r3, #8]
 781 00ae 0232     		adds	r2, r2, #2
 782 00b0 9A60     		str	r2, [r3, #8]
ARM GAS  /tmp/ccsKobfn.s 			page 15


 783              		.loc 8 144 0
 784 00b2 FFF7FEFF 		bl	chSysUnlock
 785              		.loc 8 145 0
 786 00b6 FFF7FEFF 		bl	chThdGetPriorityX
 787 00ba 0246     		mov	r2, r0
 788 00bc 019B     		ldr	r3, [sp, #4]
 789 00be 0233     		adds	r3, r3, #2
 790 00c0 9A42     		cmp	r2, r3
 791 00c2 14BF     		ite	ne
 792 00c4 0023     		movne	r3, #0
 793 00c6 0123     		moveq	r3, #1
 794 00c8 DBB2     		uxtb	r3, r3
 795 00ca 0520     		movs	r0, #5
 796 00cc 1946     		mov	r1, r3
 797 00ce FFF7FEFF 		bl	_test_assert
 798 00d2 0346     		mov	r3, r0
 799 00d4 002B     		cmp	r3, #0
 800 00d6 00D0     		beq	.L37
 801              		.loc 8 145 0 is_stmt 0 discriminator 1
 802 00d8 84E0     		b	.L31
 803              	.L37:
 804              		.loc 8 149 0 is_stmt 1
 805 00da 019B     		ldr	r3, [sp, #4]
 806 00dc 0133     		adds	r3, r3, #1
 807 00de 1846     		mov	r0, r3
 808 00e0 FFF7FEFF 		bl	chThdSetPriority
 809 00e4 0090     		str	r0, [sp]
 810              		.loc 8 150 0
 811 00e6 009A     		ldr	r2, [sp]
 812 00e8 019B     		ldr	r3, [sp, #4]
 813 00ea 9A42     		cmp	r2, r3
 814 00ec 14BF     		ite	ne
 815 00ee 0023     		movne	r3, #0
 816 00f0 0123     		moveq	r3, #1
 817 00f2 DBB2     		uxtb	r3, r3
 818 00f4 0620     		movs	r0, #6
 819 00f6 1946     		mov	r1, r3
 820 00f8 FFF7FEFF 		bl	_test_assert
 821 00fc 0346     		mov	r3, r0
 822 00fe 002B     		cmp	r3, #0
 823 0100 00D0     		beq	.L38
 824              		.loc 8 150 0 is_stmt 0 discriminator 1
 825 0102 6FE0     		b	.L31
 826              	.L38:
 827              		.loc 8 152 0 is_stmt 1
 828 0104 FFF7FEFF 		bl	chThdGetSelfX
 829 0108 0346     		mov	r3, r0
 830 010a 9A68     		ldr	r2, [r3, #8]
 831 010c 019B     		ldr	r3, [sp, #4]
 832 010e 0233     		adds	r3, r3, #2
 833 0110 9A42     		cmp	r2, r3
 834 0112 14BF     		ite	ne
 835 0114 0023     		movne	r3, #0
 836 0116 0123     		moveq	r3, #1
 837 0118 DBB2     		uxtb	r3, r3
 838 011a 0720     		movs	r0, #7
 839 011c 1946     		mov	r1, r3
ARM GAS  /tmp/ccsKobfn.s 			page 16


 840 011e FFF7FEFF 		bl	_test_assert
 841 0122 0346     		mov	r3, r0
 842 0124 002B     		cmp	r3, #0
 843 0126 00D0     		beq	.L39
 844              		.loc 8 152 0 is_stmt 0 discriminator 1
 845 0128 5CE0     		b	.L31
 846              	.L39:
 847              		.loc 8 154 0 is_stmt 1
 848 012a FFF7FEFF 		bl	chThdGetSelfX
 849 012e 0346     		mov	r3, r0
 850 0130 1A6C     		ldr	r2, [r3, #64]
 851 0132 019B     		ldr	r3, [sp, #4]
 852 0134 0133     		adds	r3, r3, #1
 853 0136 9A42     		cmp	r2, r3
 854 0138 14BF     		ite	ne
 855 013a 0023     		movne	r3, #0
 856 013c 0123     		moveq	r3, #1
 857 013e DBB2     		uxtb	r3, r3
 858 0140 0820     		movs	r0, #8
 859 0142 1946     		mov	r1, r3
 860 0144 FFF7FEFF 		bl	_test_assert
 861 0148 0346     		mov	r3, r0
 862 014a 002B     		cmp	r3, #0
 863 014c 00D0     		beq	.L40
 864              		.loc 8 154 0 is_stmt 0 discriminator 1
 865 014e 49E0     		b	.L31
 866              	.L40:
 867              		.loc 8 158 0 is_stmt 1
 868 0150 019B     		ldr	r3, [sp, #4]
 869 0152 0333     		adds	r3, r3, #3
 870 0154 1846     		mov	r0, r3
 871 0156 FFF7FEFF 		bl	chThdSetPriority
 872 015a 0090     		str	r0, [sp]
 873              		.loc 8 159 0
 874 015c 019B     		ldr	r3, [sp, #4]
 875 015e 5A1C     		adds	r2, r3, #1
 876 0160 009B     		ldr	r3, [sp]
 877 0162 9A42     		cmp	r2, r3
 878 0164 14BF     		ite	ne
 879 0166 0023     		movne	r3, #0
 880 0168 0123     		moveq	r3, #1
 881 016a DBB2     		uxtb	r3, r3
 882 016c 0920     		movs	r0, #9
 883 016e 1946     		mov	r1, r3
 884 0170 FFF7FEFF 		bl	_test_assert
 885 0174 0346     		mov	r3, r0
 886 0176 002B     		cmp	r3, #0
 887 0178 00D0     		beq	.L41
 888              		.loc 8 159 0 is_stmt 0 discriminator 1
 889 017a 33E0     		b	.L31
 890              	.L41:
 891              		.loc 8 161 0 is_stmt 1
 892 017c FFF7FEFF 		bl	chThdGetSelfX
 893 0180 0346     		mov	r3, r0
 894 0182 9A68     		ldr	r2, [r3, #8]
 895 0184 019B     		ldr	r3, [sp, #4]
 896 0186 0333     		adds	r3, r3, #3
ARM GAS  /tmp/ccsKobfn.s 			page 17


 897 0188 9A42     		cmp	r2, r3
 898 018a 14BF     		ite	ne
 899 018c 0023     		movne	r3, #0
 900 018e 0123     		moveq	r3, #1
 901 0190 DBB2     		uxtb	r3, r3
 902 0192 0A20     		movs	r0, #10
 903 0194 1946     		mov	r1, r3
 904 0196 FFF7FEFF 		bl	_test_assert
 905 019a 0346     		mov	r3, r0
 906 019c 002B     		cmp	r3, #0
 907 019e 00D0     		beq	.L42
 908              		.loc 8 161 0 is_stmt 0 discriminator 1
 909 01a0 20E0     		b	.L31
 910              	.L42:
 911              		.loc 8 163 0 is_stmt 1
 912 01a2 FFF7FEFF 		bl	chThdGetSelfX
 913 01a6 0346     		mov	r3, r0
 914 01a8 1A6C     		ldr	r2, [r3, #64]
 915 01aa 019B     		ldr	r3, [sp, #4]
 916 01ac 0333     		adds	r3, r3, #3
 917 01ae 9A42     		cmp	r2, r3
 918 01b0 14BF     		ite	ne
 919 01b2 0023     		movne	r3, #0
 920 01b4 0123     		moveq	r3, #1
 921 01b6 DBB2     		uxtb	r3, r3
 922 01b8 0B20     		movs	r0, #11
 923 01ba 1946     		mov	r1, r3
 924 01bc FFF7FEFF 		bl	_test_assert
 925 01c0 0346     		mov	r3, r0
 926 01c2 002B     		cmp	r3, #0
 927 01c4 00D0     		beq	.L43
 928              		.loc 8 163 0 is_stmt 0 discriminator 1
 929 01c6 0DE0     		b	.L31
 930              	.L43:
 931              		.loc 8 166 0 is_stmt 1
 932 01c8 FFF7FEFF 		bl	chSysLock
 933              		.loc 8 167 0
 934 01cc FFF7FEFF 		bl	chThdGetSelfX
 935 01d0 0346     		mov	r3, r0
 936 01d2 019A     		ldr	r2, [sp, #4]
 937 01d4 9A60     		str	r2, [r3, #8]
 938              		.loc 8 168 0
 939 01d6 FFF7FEFF 		bl	chThdGetSelfX
 940 01da 0346     		mov	r3, r0
 941 01dc 019A     		ldr	r2, [sp, #4]
 942 01de 1A64     		str	r2, [r3, #64]
 943              		.loc 8 169 0
 944 01e0 FFF7FEFF 		bl	chSysUnlock
 945              	.L31:
 946              		.loc 8 171 0
 947 01e4 03B0     		add	sp, sp, #12
 948              		@ sp needed
 949 01e6 5DF804FB 		ldr	pc, [sp], #4
 950              		.cfi_endproc
 951              	.LFE243:
 952              		.size	thd3_execute, .-thd3_execute
 953              		.global	testthd3
ARM GAS  /tmp/ccsKobfn.s 			page 18


 954 01ea 00BFAFF3 		.section	.rodata
 954      0080
 955 0053 00       		.align	2
 956              	.LC8:
 957 0054 54687265 		.ascii	"Threads, priority change\000"
 957      6164732C 
 957      20707269 
 957      6F726974 
 957      79206368 
 958              		.section	.rodata.testthd3,"a",%progbits
 959              		.align	2
 960              		.type	testthd3, %object
 961              		.size	testthd3, 16
 962              	testthd3:
 963 0000 54000000 		.word	.LC8
 964 0004 00000000 		.word	0
 965 0008 00000000 		.word	0
 966 000c 00000000 		.word	thd3_execute
 967              		.section	.text.thd4_execute,"ax",%progbits
 968              		.align	2
 969              		.p2align 4,,15
 970              		.thumb
 971              		.thumb_func
 972              		.type	thd4_execute, %function
 973              	thd4_execute:
 974              	.LFB244:
 975              		.loc 8 188 0
 976              		.cfi_startproc
 977              		@ args = 0, pretend = 0, frame = 8
 978              		@ frame_needed = 0, uses_anonymous_args = 0
 979 0000 00B5     		push	{lr}
 980              		.cfi_def_cfa_offset 4
 981              		.cfi_offset 14, -4
 982 0002 83B0     		sub	sp, sp, #12
 983              		.cfi_def_cfa_offset 16
 984              		.loc 8 191 0
 985 0004 FFF7FEFF 		bl	test_wait_tick
 986              		.loc 8 194 0
 987 0008 FFF7FEFF 		bl	chVTGetSystemTime
 988 000c 0190     		str	r0, [sp, #4]
 989              		.loc 8 195 0
 990 000e 4FF47A70 		mov	r0, #1000
 991 0012 FFF7FEFF 		bl	chThdSleep
 992              		.loc 8 196 0
 993 0016 019B     		ldr	r3, [sp, #4]
 994 0018 03F57A72 		add	r2, r3, #1000
 995 001c 019B     		ldr	r3, [sp, #4]
 996 001e 03F2EB33 		addw	r3, r3, #1003
 997 0022 0120     		movs	r0, #1
 998 0024 1146     		mov	r1, r2
 999 0026 1A46     		mov	r2, r3
 1000 0028 FFF7FEFF 		bl	_test_assert_time_window
 1001 002c 0346     		mov	r3, r0
 1002 002e 002B     		cmp	r3, #0
 1003 0030 00D0     		beq	.L45
 1004              		.loc 8 196 0 is_stmt 0 discriminator 1
 1005 0032 41E0     		b	.L44
ARM GAS  /tmp/ccsKobfn.s 			page 19


 1006              	.L45:
 1007              		.loc 8 201 0 is_stmt 1
 1008 0034 FFF7FEFF 		bl	chVTGetSystemTime
 1009 0038 0190     		str	r0, [sp, #4]
 1010              		.loc 8 202 0
 1011 003a 4FF47A70 		mov	r0, #1000
 1012 003e FFF7FEFF 		bl	chThdSleep
 1013              		.loc 8 203 0
 1014 0042 019B     		ldr	r3, [sp, #4]
 1015 0044 03F57A72 		add	r2, r3, #1000
 1016 0048 019B     		ldr	r3, [sp, #4]
 1017 004a 03F2EB33 		addw	r3, r3, #1003
 1018 004e 0220     		movs	r0, #2
 1019 0050 1146     		mov	r1, r2
 1020 0052 1A46     		mov	r2, r3
 1021 0054 FFF7FEFF 		bl	_test_assert_time_window
 1022 0058 0346     		mov	r3, r0
 1023 005a 002B     		cmp	r3, #0
 1024 005c 00D0     		beq	.L47
 1025              		.loc 8 203 0 is_stmt 0 discriminator 1
 1026 005e 2BE0     		b	.L44
 1027              	.L47:
 1028              		.loc 8 208 0 is_stmt 1
 1029 0060 FFF7FEFF 		bl	chVTGetSystemTime
 1030 0064 0190     		str	r0, [sp, #4]
 1031              		.loc 8 209 0
 1032 0066 42F21070 		movw	r0, #10000
 1033 006a FFF7FEFF 		bl	chThdSleep
 1034              		.loc 8 210 0
 1035 006e 019B     		ldr	r3, [sp, #4]
 1036 0070 03F51C52 		add	r2, r3, #9984
 1037 0074 1032     		adds	r2, r2, #16
 1038 0076 019B     		ldr	r3, [sp, #4]
 1039 0078 03F51C53 		add	r3, r3, #9984
 1040 007c 1333     		adds	r3, r3, #19
 1041 007e 0320     		movs	r0, #3
 1042 0080 1146     		mov	r1, r2
 1043 0082 1A46     		mov	r2, r3
 1044 0084 FFF7FEFF 		bl	_test_assert_time_window
 1045 0088 0346     		mov	r3, r0
 1046 008a 002B     		cmp	r3, #0
 1047 008c 00D0     		beq	.L48
 1048              		.loc 8 210 0 is_stmt 0 discriminator 1
 1049 008e 13E0     		b	.L44
 1050              	.L48:
 1051              		.loc 8 215 0 is_stmt 1
 1052 0090 FFF7FEFF 		bl	chVTGetSystemTime
 1053 0094 0346     		mov	r3, r0
 1054 0096 03F57A73 		add	r3, r3, #1000
 1055 009a 0193     		str	r3, [sp, #4]
 1056              		.loc 8 216 0
 1057 009c 0198     		ldr	r0, [sp, #4]
 1058 009e FFF7FEFF 		bl	chThdSleepUntil
 1059              		.loc 8 217 0
 1060 00a2 019B     		ldr	r3, [sp, #4]
 1061 00a4 0333     		adds	r3, r3, #3
 1062 00a6 0420     		movs	r0, #4
ARM GAS  /tmp/ccsKobfn.s 			page 20


 1063 00a8 0199     		ldr	r1, [sp, #4]
 1064 00aa 1A46     		mov	r2, r3
 1065 00ac FFF7FEFF 		bl	_test_assert_time_window
 1066 00b0 0346     		mov	r3, r0
 1067 00b2 002B     		cmp	r3, #0
 1068 00b4 00D0     		beq	.L44
 1069              		.loc 8 217 0 is_stmt 0 discriminator 1
 1070 00b6 00BF     		nop
 1071              	.L44:
 1072              		.loc 8 220 0 is_stmt 1
 1073 00b8 03B0     		add	sp, sp, #12
 1074              		@ sp needed
 1075 00ba 5DF804FB 		ldr	pc, [sp], #4
 1076              		.cfi_endproc
 1077              	.LFE244:
 1078              		.size	thd4_execute, .-thd4_execute
 1079              		.global	testthd4
 1080 00be 00BF     		.section	.rodata
 1081 006d 000000   		.align	2
 1082              	.LC9:
 1083 0070 54687265 		.ascii	"Threads, delays\000"
 1083      6164732C 
 1083      2064656C 
 1083      61797300 
 1084              		.section	.rodata.testthd4,"a",%progbits
 1085              		.align	2
 1086              		.type	testthd4, %object
 1087              		.size	testthd4, 16
 1088              	testthd4:
 1089 0000 70000000 		.word	.LC9
 1090 0004 00000000 		.word	0
 1091 0008 00000000 		.word	0
 1092 000c 00000000 		.word	thd4_execute
 1093              		.global	patternthd
 1094              		.section	.rodata.patternthd,"a",%progbits
 1095              		.align	2
 1096              		.type	patternthd, %object
 1097              		.size	patternthd, 20
 1098              	patternthd:
 1099 0000 00000000 		.word	testthd1
 1100 0004 00000000 		.word	testthd2
 1101 0008 00000000 		.word	testthd3
 1102 000c 00000000 		.word	testthd4
 1103 0010 00000000 		.word	0
 1104              		.section	.rodata.__func__.5925,"a",%progbits
 1105              		.align	2
 1106              		.type	__func__.5925, %object
 1107              		.size	__func__.5925, 12
 1108              	__func__.5925:
 1109 0000 63685379 		.ascii	"chSysUnlock\000"
 1109      73556E6C 
 1109      6F636B00 
 1110              		.text
 1111              	.Letext0:
 1112              		.file 9 "/usr/lib/gcc/arm-none-eabi/4.8/include/stddef.h"
 1113              		.file 10 "/usr/include/newlib/machine/_default_types.h"
 1114              		.file 11 "/usr/include/newlib/stdint.h"
ARM GAS  /tmp/ccsKobfn.s 			page 21


 1115              		.file 12 "/home/efe/ChibiOS/os/rt/ports/ARMCMx/compilers/GCC/chtypes.h"
 1116              		.file 13 "/home/efe/ChibiOS/os/rt/include/chsystypes.h"
 1117              		.file 14 "/home/efe/ChibiOS/os/rt/include/chschd.h"
 1118              		.file 15 "/home/efe/ChibiOS/os/rt/ports/ARMCMx/chcore.h"
 1119              		.file 16 "/home/efe/ChibiOS/os/hal/ports/STM32/LLD/TIMv1/stm32_tim.h"
 1120              		.file 17 "/home/efe/ChibiOS/os/rt/include/chdebug.h"
 1121              		.file 18 "/home/efe/ChibiOS/os/rt/include/chtm.h"
 1122              		.file 19 "/home/efe/ChibiOS/os/rt/include/chstats.h"
 1123              		.file 20 "/home/efe/ChibiOS/os/rt/include/chsem.h"
 1124              		.file 21 "/home/efe/ChibiOS/os/rt/include/chmtx.h"
 1125              		.file 22 "/home/efe/ChibiOS/test/rt/test.h"
 1126              		.file 23 "/home/efe/ChibiOS/os/ext/CMSIS/include/core_cm4.h"
 1127              		.section	.debug_info,"",%progbits
 1128              	.Ldebug_info0:
 1129 0000 EF0B0000 		.4byte	0xbef
 1130 0004 0400     		.2byte	0x4
 1131 0006 00000000 		.4byte	.Ldebug_abbrev0
 1132 000a 04       		.byte	0x4
 1133 000b 01       		.uleb128 0x1
 1134 000c 99010000 		.4byte	.LASF168
 1135 0010 01       		.byte	0x1
 1136 0011 F2060000 		.4byte	.LASF169
 1137 0015 00000000 		.4byte	.Ldebug_ranges0+0
 1138 0019 00000000 		.4byte	0
 1139 001d 00000000 		.4byte	.Ldebug_line0
 1140 0021 02       		.uleb128 0x2
 1141 0022 04       		.byte	0x4
 1142 0023 05       		.byte	0x5
 1143 0024 696E7400 		.ascii	"int\000"
 1144 0028 03       		.uleb128 0x3
 1145 0029 19000000 		.4byte	.LASF2
 1146 002d 09       		.byte	0x9
 1147 002e D4       		.byte	0xd4
 1148 002f 33000000 		.4byte	0x33
 1149 0033 04       		.uleb128 0x4
 1150 0034 04       		.byte	0x4
 1151 0035 07       		.byte	0x7
 1152 0036 FC020000 		.4byte	.LASF0
 1153 003a 04       		.uleb128 0x4
 1154 003b 01       		.byte	0x1
 1155 003c 06       		.byte	0x6
 1156 003d 26010000 		.4byte	.LASF1
 1157 0041 03       		.uleb128 0x3
 1158 0042 3D000000 		.4byte	.LASF3
 1159 0046 0A       		.byte	0xa
 1160 0047 1D       		.byte	0x1d
 1161 0048 4C000000 		.4byte	0x4c
 1162 004c 04       		.uleb128 0x4
 1163 004d 01       		.byte	0x1
 1164 004e 08       		.byte	0x8
 1165 004f FB040000 		.4byte	.LASF4
 1166 0053 04       		.uleb128 0x4
 1167 0054 02       		.byte	0x2
 1168 0055 05       		.byte	0x5
 1169 0056 1B050000 		.4byte	.LASF5
 1170 005a 04       		.uleb128 0x4
 1171 005b 02       		.byte	0x2
ARM GAS  /tmp/ccsKobfn.s 			page 22


 1172 005c 07       		.byte	0x7
 1173 005d 59020000 		.4byte	.LASF6
 1174 0061 03       		.uleb128 0x3
 1175 0062 BF030000 		.4byte	.LASF7
 1176 0066 0A       		.byte	0xa
 1177 0067 3F       		.byte	0x3f
 1178 0068 6C000000 		.4byte	0x6c
 1179 006c 04       		.uleb128 0x4
 1180 006d 04       		.byte	0x4
 1181 006e 05       		.byte	0x5
 1182 006f 65010000 		.4byte	.LASF8
 1183 0073 03       		.uleb128 0x3
 1184 0074 59060000 		.4byte	.LASF9
 1185 0078 0A       		.byte	0xa
 1186 0079 41       		.byte	0x41
 1187 007a 7E000000 		.4byte	0x7e
 1188 007e 04       		.uleb128 0x4
 1189 007f 04       		.byte	0x4
 1190 0080 07       		.byte	0x7
 1191 0081 E8050000 		.4byte	.LASF10
 1192 0085 04       		.uleb128 0x4
 1193 0086 08       		.byte	0x8
 1194 0087 05       		.byte	0x5
 1195 0088 82010000 		.4byte	.LASF11
 1196 008c 03       		.uleb128 0x3
 1197 008d 8F040000 		.4byte	.LASF12
 1198 0091 0A       		.byte	0xa
 1199 0092 5B       		.byte	0x5b
 1200 0093 97000000 		.4byte	0x97
 1201 0097 04       		.uleb128 0x4
 1202 0098 08       		.byte	0x8
 1203 0099 07       		.byte	0x7
 1204 009a 96000000 		.4byte	.LASF13
 1205 009e 03       		.uleb128 0x3
 1206 009f EA060000 		.4byte	.LASF14
 1207 00a3 0B       		.byte	0xb
 1208 00a4 2A       		.byte	0x2a
 1209 00a5 41000000 		.4byte	0x41
 1210 00a9 03       		.uleb128 0x3
 1211 00aa F3040000 		.4byte	.LASF15
 1212 00ae 0B       		.byte	0xb
 1213 00af 41       		.byte	0x41
 1214 00b0 61000000 		.4byte	0x61
 1215 00b4 03       		.uleb128 0x3
 1216 00b5 B7050000 		.4byte	.LASF16
 1217 00b9 0B       		.byte	0xb
 1218 00ba 42       		.byte	0x42
 1219 00bb 73000000 		.4byte	0x73
 1220 00bf 03       		.uleb128 0x3
 1221 00c0 27000000 		.4byte	.LASF17
 1222 00c4 0B       		.byte	0xb
 1223 00c5 4E       		.byte	0x4e
 1224 00c6 8C000000 		.4byte	0x8c
 1225 00ca 05       		.uleb128 0x5
 1226 00cb A9000000 		.4byte	0xa9
 1227 00cf 05       		.uleb128 0x5
 1228 00d0 B4000000 		.4byte	0xb4
ARM GAS  /tmp/ccsKobfn.s 			page 23


 1229 00d4 03       		.uleb128 0x3
 1230 00d5 9F060000 		.4byte	.LASF18
 1231 00d9 0C       		.byte	0xc
 1232 00da 45       		.byte	0x45
 1233 00db B4000000 		.4byte	0xb4
 1234 00df 03       		.uleb128 0x3
 1235 00e0 04010000 		.4byte	.LASF19
 1236 00e4 0C       		.byte	0xc
 1237 00e5 46       		.byte	0x46
 1238 00e6 BF000000 		.4byte	0xbf
 1239 00ea 03       		.uleb128 0x3
 1240 00eb 46070000 		.4byte	.LASF20
 1241 00ef 0C       		.byte	0xc
 1242 00f0 48       		.byte	0x48
 1243 00f1 9E000000 		.4byte	0x9e
 1244 00f5 03       		.uleb128 0x3
 1245 00f6 6E010000 		.4byte	.LASF21
 1246 00fa 0C       		.byte	0xc
 1247 00fb 49       		.byte	0x49
 1248 00fc 9E000000 		.4byte	0x9e
 1249 0100 03       		.uleb128 0x3
 1250 0101 A5040000 		.4byte	.LASF22
 1251 0105 0C       		.byte	0xc
 1252 0106 4A       		.byte	0x4a
 1253 0107 9E000000 		.4byte	0x9e
 1254 010b 03       		.uleb128 0x3
 1255 010c DB040000 		.4byte	.LASF23
 1256 0110 0C       		.byte	0xc
 1257 0111 4C       		.byte	0x4c
 1258 0112 B4000000 		.4byte	0xb4
 1259 0116 03       		.uleb128 0x3
 1260 0117 68030000 		.4byte	.LASF24
 1261 011b 0C       		.byte	0xc
 1262 011c 4D       		.byte	0x4d
 1263 011d A9000000 		.4byte	0xa9
 1264 0121 03       		.uleb128 0x3
 1265 0122 B3030000 		.4byte	.LASF25
 1266 0126 0C       		.byte	0xc
 1267 0127 4F       		.byte	0x4f
 1268 0128 B4000000 		.4byte	0xb4
 1269 012c 03       		.uleb128 0x3
 1270 012d D8020000 		.4byte	.LASF26
 1271 0131 0C       		.byte	0xc
 1272 0132 51       		.byte	0x51
 1273 0133 A9000000 		.4byte	0xa9
 1274 0137 03       		.uleb128 0x3
 1275 0138 73030000 		.4byte	.LASF27
 1276 013c 0C       		.byte	0xc
 1277 013d 52       		.byte	0x52
 1278 013e B4000000 		.4byte	0xb4
 1279 0142 03       		.uleb128 0x3
 1280 0143 3B060000 		.4byte	.LASF28
 1281 0147 0D       		.byte	0xd
 1282 0148 33       		.byte	0x33
 1283 0149 B4000000 		.4byte	0xb4
 1284 014d 03       		.uleb128 0x3
 1285 014e 26060000 		.4byte	.LASF29
ARM GAS  /tmp/ccsKobfn.s 			page 24


 1286 0152 0D       		.byte	0xd
 1287 0153 3F       		.byte	0x3f
 1288 0154 58010000 		.4byte	0x158
 1289 0158 06       		.uleb128 0x6
 1290 0159 5E030000 		.4byte	.LASF51
 1291 015d 60       		.byte	0x60
 1292 015e 0E       		.byte	0xe
 1293 015f C2       		.byte	0xc2
 1294 0160 5E020000 		.4byte	0x25e
 1295 0164 07       		.uleb128 0x7
 1296 0165 43050000 		.4byte	.LASF30
 1297 0169 0E       		.byte	0xe
 1298 016a C3       		.byte	0xc3
 1299 016b 69020000 		.4byte	0x269
 1300 016f 00       		.byte	0
 1301 0170 07       		.uleb128 0x7
 1302 0171 D4040000 		.4byte	.LASF31
 1303 0175 0E       		.byte	0xe
 1304 0176 C5       		.byte	0xc5
 1305 0177 69020000 		.4byte	0x269
 1306 017b 04       		.byte	0x4
 1307 017c 07       		.uleb128 0x7
 1308 017d 0D010000 		.4byte	.LASF32
 1309 0181 0E       		.byte	0xe
 1310 0182 C7       		.byte	0xc7
 1311 0183 0B010000 		.4byte	0x10b
 1312 0187 08       		.byte	0x8
 1313 0188 07       		.uleb128 0x7
 1314 0189 8A070000 		.4byte	.LASF33
 1315 018d 0E       		.byte	0xe
 1316 018e C8       		.byte	0xc8
 1317 018f F2040000 		.4byte	0x4f2
 1318 0193 0C       		.byte	0xc
 1319 0194 07       		.uleb128 0x7
 1320 0195 49020000 		.4byte	.LASF34
 1321 0199 0E       		.byte	0xe
 1322 019a CA       		.byte	0xca
 1323 019b 69020000 		.4byte	0x269
 1324 019f 10       		.byte	0x10
 1325 01a0 07       		.uleb128 0x7
 1326 01a1 45040000 		.4byte	.LASF35
 1327 01a5 0E       		.byte	0xe
 1328 01a6 CB       		.byte	0xcb
 1329 01a7 69020000 		.4byte	0x269
 1330 01ab 14       		.byte	0x14
 1331 01ac 07       		.uleb128 0x7
 1332 01ad 30070000 		.4byte	.LASF36
 1333 01b1 0E       		.byte	0xe
 1334 01b2 D2       		.byte	0xd2
 1335 01b3 B8080000 		.4byte	0x8b8
 1336 01b7 18       		.byte	0x18
 1337 01b8 07       		.uleb128 0x7
 1338 01b9 F1020000 		.4byte	.LASF37
 1339 01bd 0E       		.byte	0xe
 1340 01be D8       		.byte	0xd8
 1341 01bf CA080000 		.4byte	0x8ca
 1342 01c3 1C       		.byte	0x1c
ARM GAS  /tmp/ccsKobfn.s 			page 25


 1343 01c4 07       		.uleb128 0x7
 1344 01c5 25050000 		.4byte	.LASF38
 1345 01c9 0E       		.byte	0xe
 1346 01ca DD       		.byte	0xdd
 1347 01cb F5000000 		.4byte	0xf5
 1348 01cf 20       		.byte	0x20
 1349 01d0 07       		.uleb128 0x7
 1350 01d1 4A050000 		.4byte	.LASF39
 1351 01d5 0E       		.byte	0xe
 1352 01d6 E1       		.byte	0xe1
 1353 01d7 EA000000 		.4byte	0xea
 1354 01db 21       		.byte	0x21
 1355 01dc 07       		.uleb128 0x7
 1356 01dd C7060000 		.4byte	.LASF40
 1357 01e1 0E       		.byte	0xe
 1358 01e2 E6       		.byte	0xe6
 1359 01e3 00010000 		.4byte	0x100
 1360 01e7 22       		.byte	0x22
 1361 01e8 08       		.uleb128 0x8
 1362 01e9 705F7500 		.ascii	"p_u\000"
 1363 01ed 0E       		.byte	0xe
 1364 01ee 3101     		.2byte	0x131
 1365 01f0 F3070000 		.4byte	0x7f3
 1366 01f4 24       		.byte	0x24
 1367 01f5 09       		.uleb128 0x9
 1368 01f6 E5030000 		.4byte	.LASF41
 1369 01fa 0E       		.byte	0xe
 1370 01fb 3601     		.2byte	0x136
 1371 01fd 6F020000 		.4byte	0x26f
 1372 0201 28       		.byte	0x28
 1373 0202 09       		.uleb128 0x9
 1374 0203 25030000 		.4byte	.LASF42
 1375 0207 0E       		.byte	0xe
 1376 0208 3C01     		.2byte	0x13c
 1377 020a 93020000 		.4byte	0x293
 1378 020e 2C       		.byte	0x2c
 1379 020f 09       		.uleb128 0x9
 1380 0210 67070000 		.4byte	.LASF43
 1381 0214 0E       		.byte	0xe
 1382 0215 4001     		.2byte	0x140
 1383 0217 16010000 		.4byte	0x116
 1384 021b 34       		.byte	0x34
 1385 021c 09       		.uleb128 0x9
 1386 021d 99050000 		.4byte	.LASF44
 1387 0221 0E       		.byte	0xe
 1388 0222 4601     		.2byte	0x146
 1389 0224 21010000 		.4byte	0x121
 1390 0228 38       		.byte	0x38
 1391 0229 09       		.uleb128 0x9
 1392 022a 11050000 		.4byte	.LASF45
 1393 022e 0E       		.byte	0xe
 1394 022f 4D01     		.2byte	0x14d
 1395 0231 B2080000 		.4byte	0x8b2
 1396 0235 3C       		.byte	0x3c
 1397 0236 09       		.uleb128 0x9
 1398 0237 45060000 		.4byte	.LASF46
 1399 023b 0E       		.byte	0xe
ARM GAS  /tmp/ccsKobfn.s 			page 26


 1400 023c 5101     		.2byte	0x151
 1401 023e 0B010000 		.4byte	0x10b
 1402 0242 40       		.byte	0x40
 1403 0243 09       		.uleb128 0x9
 1404 0244 7C020000 		.4byte	.LASF47
 1405 0248 0E       		.byte	0xe
 1406 0249 5801     		.2byte	0x158
 1407 024b 46030000 		.4byte	0x346
 1408 024f 44       		.byte	0x44
 1409 0250 09       		.uleb128 0x9
 1410 0251 5B050000 		.4byte	.LASF48
 1411 0255 0E       		.byte	0xe
 1412 0256 5E01     		.2byte	0x15e
 1413 0258 A4070000 		.4byte	0x7a4
 1414 025c 48       		.byte	0x48
 1415 025d 00       		.byte	0
 1416 025e 03       		.uleb128 0x3
 1417 025f 16070000 		.4byte	.LASF49
 1418 0263 0D       		.byte	0xd
 1419 0264 44       		.byte	0x44
 1420 0265 69020000 		.4byte	0x269
 1421 0269 0A       		.uleb128 0xa
 1422 026a 04       		.byte	0x4
 1423 026b 4D010000 		.4byte	0x14d
 1424 026f 03       		.uleb128 0x3
 1425 0270 37070000 		.4byte	.LASF50
 1426 0274 0D       		.byte	0xd
 1427 0275 49       		.byte	0x49
 1428 0276 7A020000 		.4byte	0x27a
 1429 027a 06       		.uleb128 0x6
 1430 027b D8050000 		.4byte	.LASF52
 1431 027f 04       		.byte	0x4
 1432 0280 0E       		.byte	0xe
 1433 0281 B0       		.byte	0xb0
 1434 0282 93020000 		.4byte	0x293
 1435 0286 07       		.uleb128 0x7
 1436 0287 43050000 		.4byte	.LASF30
 1437 028b 0E       		.byte	0xe
 1438 028c B1       		.byte	0xb1
 1439 028d 69020000 		.4byte	0x269
 1440 0291 00       		.byte	0
 1441 0292 00       		.byte	0
 1442 0293 03       		.uleb128 0x3
 1443 0294 AE060000 		.4byte	.LASF53
 1444 0298 0D       		.byte	0xd
 1445 0299 50       		.byte	0x50
 1446 029a 9E020000 		.4byte	0x29e
 1447 029e 06       		.uleb128 0x6
 1448 029f 53000000 		.4byte	.LASF54
 1449 02a3 08       		.byte	0x8
 1450 02a4 0E       		.byte	0xe
 1451 02a5 B7       		.byte	0xb7
 1452 02a6 C3020000 		.4byte	0x2c3
 1453 02aa 07       		.uleb128 0x7
 1454 02ab 43050000 		.4byte	.LASF30
 1455 02af 0E       		.byte	0xe
 1456 02b0 B8       		.byte	0xb8
ARM GAS  /tmp/ccsKobfn.s 			page 27


 1457 02b1 69020000 		.4byte	0x269
 1458 02b5 00       		.byte	0
 1459 02b6 07       		.uleb128 0x7
 1460 02b7 D4040000 		.4byte	.LASF31
 1461 02bb 0E       		.byte	0xe
 1462 02bc B9       		.byte	0xb9
 1463 02bd 69020000 		.4byte	0x269
 1464 02c1 04       		.byte	0x4
 1465 02c2 00       		.byte	0
 1466 02c3 03       		.uleb128 0x3
 1467 02c4 07000000 		.4byte	.LASF55
 1468 02c8 0D       		.byte	0xd
 1469 02c9 57       		.byte	0x57
 1470 02ca CE020000 		.4byte	0x2ce
 1471 02ce 0B       		.uleb128 0xb
 1472 02cf A5030000 		.4byte	.LASF56
 1473 02d3 1C       		.byte	0x1c
 1474 02d4 0E       		.byte	0xe
 1475 02d5 9001     		.2byte	0x190
 1476 02d7 2A030000 		.4byte	0x32a
 1477 02db 09       		.uleb128 0x9
 1478 02dc C7050000 		.4byte	.LASF57
 1479 02e0 0E       		.byte	0xe
 1480 02e1 9101     		.2byte	0x191
 1481 02e3 93020000 		.4byte	0x293
 1482 02e7 00       		.byte	0
 1483 02e8 09       		.uleb128 0x9
 1484 02e9 35050000 		.4byte	.LASF58
 1485 02ed 0E       		.byte	0xe
 1486 02ee 9201     		.2byte	0x192
 1487 02f0 0B010000 		.4byte	0x10b
 1488 02f4 08       		.byte	0x8
 1489 02f5 09       		.uleb128 0x9
 1490 02f6 4D040000 		.4byte	.LASF59
 1491 02fa 0E       		.byte	0xe
 1492 02fb 9401     		.2byte	0x194
 1493 02fd F2040000 		.4byte	0x4f2
 1494 0301 0C       		.byte	0xc
 1495 0302 09       		.uleb128 0x9
 1496 0303 74020000 		.4byte	.LASF60
 1497 0307 0E       		.byte	0xe
 1498 0308 9701     		.2byte	0x197
 1499 030a 69020000 		.4byte	0x269
 1500 030e 10       		.byte	0x10
 1501 030f 09       		.uleb128 0x9
 1502 0310 87040000 		.4byte	.LASF61
 1503 0314 0E       		.byte	0xe
 1504 0315 9801     		.2byte	0x198
 1505 0317 69020000 		.4byte	0x269
 1506 031b 14       		.byte	0x14
 1507 031c 09       		.uleb128 0x9
 1508 031d FA050000 		.4byte	.LASF62
 1509 0321 0E       		.byte	0xe
 1510 0322 9B01     		.2byte	0x19b
 1511 0324 69020000 		.4byte	0x269
 1512 0328 18       		.byte	0x18
 1513 0329 00       		.byte	0
ARM GAS  /tmp/ccsKobfn.s 			page 28


 1514 032a 03       		.uleb128 0x3
 1515 032b 50060000 		.4byte	.LASF63
 1516 032f 0D       		.byte	0xd
 1517 0330 5C       		.byte	0x5c
 1518 0331 35030000 		.4byte	0x335
 1519 0335 0A       		.uleb128 0xa
 1520 0336 04       		.byte	0x4
 1521 0337 3B030000 		.4byte	0x33b
 1522 033b 0C       		.uleb128 0xc
 1523 033c 46030000 		.4byte	0x346
 1524 0340 0D       		.uleb128 0xd
 1525 0341 46030000 		.4byte	0x346
 1526 0345 00       		.byte	0
 1527 0346 0E       		.uleb128 0xe
 1528 0347 04       		.byte	0x4
 1529 0348 03       		.uleb128 0x3
 1530 0349 C4040000 		.4byte	.LASF64
 1531 034d 0D       		.byte	0xd
 1532 034e 61       		.byte	0x61
 1533 034f 53030000 		.4byte	0x353
 1534 0353 0B       		.uleb128 0xb
 1535 0354 6D050000 		.4byte	.LASF65
 1536 0358 14       		.byte	0x14
 1537 0359 0E       		.byte	0xe
 1538 035a 6B01     		.2byte	0x16b
 1539 035c A2030000 		.4byte	0x3a2
 1540 0360 09       		.uleb128 0x9
 1541 0361 16030000 		.4byte	.LASF66
 1542 0365 0E       		.byte	0xe
 1543 0366 6C01     		.2byte	0x16c
 1544 0368 D0080000 		.4byte	0x8d0
 1545 036c 00       		.byte	0
 1546 036d 09       		.uleb128 0x9
 1547 036e 8D020000 		.4byte	.LASF67
 1548 0372 0E       		.byte	0xe
 1549 0373 6D01     		.2byte	0x16d
 1550 0375 D0080000 		.4byte	0x8d0
 1551 0379 04       		.byte	0x4
 1552 037a 09       		.uleb128 0x9
 1553 037b CF050000 		.4byte	.LASF68
 1554 037f 0E       		.byte	0xe
 1555 0380 6E01     		.2byte	0x16e
 1556 0382 42010000 		.4byte	0x142
 1557 0386 08       		.byte	0x8
 1558 0387 09       		.uleb128 0x9
 1559 0388 90070000 		.4byte	.LASF69
 1560 038c 0E       		.byte	0xe
 1561 038d 6F01     		.2byte	0x16f
 1562 038f 2A030000 		.4byte	0x32a
 1563 0393 0C       		.byte	0xc
 1564 0394 09       		.uleb128 0x9
 1565 0395 A7060000 		.4byte	.LASF70
 1566 0399 0E       		.byte	0xe
 1567 039a 7101     		.2byte	0x171
 1568 039c 46030000 		.4byte	0x346
 1569 03a0 10       		.byte	0x10
 1570 03a1 00       		.byte	0
ARM GAS  /tmp/ccsKobfn.s 			page 29


 1571 03a2 03       		.uleb128 0x3
 1572 03a3 DC000000 		.4byte	.LASF71
 1573 03a7 0D       		.byte	0xd
 1574 03a8 66       		.byte	0x66
 1575 03a9 AD030000 		.4byte	0x3ad
 1576 03ad 0B       		.uleb128 0xb
 1577 03ae 0A040000 		.4byte	.LASF72
 1578 03b2 10       		.byte	0x10
 1579 03b3 0E       		.byte	0xe
 1580 03b4 7B01     		.2byte	0x17b
 1581 03b6 EF030000 		.4byte	0x3ef
 1582 03ba 09       		.uleb128 0x9
 1583 03bb 16030000 		.4byte	.LASF66
 1584 03bf 0E       		.byte	0xe
 1585 03c0 7C01     		.2byte	0x17c
 1586 03c2 D0080000 		.4byte	0x8d0
 1587 03c6 00       		.byte	0
 1588 03c7 09       		.uleb128 0x9
 1589 03c8 8D020000 		.4byte	.LASF67
 1590 03cc 0E       		.byte	0xe
 1591 03cd 7E01     		.2byte	0x17e
 1592 03cf D0080000 		.4byte	0x8d0
 1593 03d3 04       		.byte	0x4
 1594 03d4 09       		.uleb128 0x9
 1595 03d5 CF050000 		.4byte	.LASF68
 1596 03d9 0E       		.byte	0xe
 1597 03da 8001     		.2byte	0x180
 1598 03dc 42010000 		.4byte	0x142
 1599 03e0 08       		.byte	0x8
 1600 03e1 09       		.uleb128 0x9
 1601 03e2 39040000 		.4byte	.LASF73
 1602 03e6 0E       		.byte	0xe
 1603 03e7 8801     		.2byte	0x188
 1604 03e9 42010000 		.4byte	0x142
 1605 03ed 0C       		.byte	0xc
 1606 03ee 00       		.byte	0
 1607 03ef 03       		.uleb128 0x3
 1608 03f0 64000000 		.4byte	.LASF74
 1609 03f4 0D       		.byte	0xd
 1610 03f5 6B       		.byte	0x6b
 1611 03f6 FA030000 		.4byte	0x3fa
 1612 03fa 0F       		.uleb128 0xf
 1613 03fb A2020000 		.4byte	.LASF75
 1614 03ff 1404     		.2byte	0x414
 1615 0401 0E       		.byte	0xe
 1616 0402 A201     		.2byte	0x1a2
 1617 0404 3D040000 		.4byte	0x43d
 1618 0408 09       		.uleb128 0x9
 1619 0409 72060000 		.4byte	.LASF76
 1620 040d 0E       		.byte	0xe
 1621 040e AA01     		.2byte	0x1aa
 1622 0410 D6080000 		.4byte	0x8d6
 1623 0414 00       		.byte	0
 1624 0415 09       		.uleb128 0x9
 1625 0416 CE060000 		.4byte	.LASF77
 1626 041a 0E       		.byte	0xe
 1627 041b AF01     		.2byte	0x1af
ARM GAS  /tmp/ccsKobfn.s 			page 30


 1628 041d 2C010000 		.4byte	0x12c
 1629 0421 04       		.byte	0x4
 1630 0422 09       		.uleb128 0x9
 1631 0423 C0020000 		.4byte	.LASF78
 1632 0427 0E       		.byte	0xe
 1633 0428 B301     		.2byte	0x1b3
 1634 042a 2C010000 		.4byte	0x12c
 1635 042e 08       		.byte	0x8
 1636 042f 09       		.uleb128 0x9
 1637 0430 4E070000 		.4byte	.LASF79
 1638 0434 0E       		.byte	0xe
 1639 0435 B901     		.2byte	0x1b9
 1640 0437 36070000 		.4byte	0x736
 1641 043b 0C       		.byte	0xc
 1642 043c 00       		.byte	0
 1643 043d 03       		.uleb128 0x3
 1644 043e 7A030000 		.4byte	.LASF80
 1645 0442 0D       		.byte	0xd
 1646 0443 70       		.byte	0x70
 1647 0444 48040000 		.4byte	0x448
 1648 0448 0F       		.uleb128 0xf
 1649 0449 5B010000 		.4byte	.LASF81
 1650 044d D805     		.2byte	0x5d8
 1651 044f 0E       		.byte	0xe
 1652 0450 C201     		.2byte	0x1c2
 1653 0452 B5040000 		.4byte	0x4b5
 1654 0456 09       		.uleb128 0x9
 1655 0457 D6060000 		.4byte	.LASF82
 1656 045b 0E       		.byte	0xe
 1657 045c C601     		.2byte	0x1c6
 1658 045e C3020000 		.4byte	0x2c3
 1659 0462 00       		.byte	0
 1660 0463 09       		.uleb128 0x9
 1661 0464 42010000 		.4byte	.LASF83
 1662 0468 0E       		.byte	0xe
 1663 0469 CA01     		.2byte	0x1ca
 1664 046b A2030000 		.4byte	0x3a2
 1665 046f 1C       		.byte	0x1c
 1666 0470 08       		.uleb128 0x8
 1667 0471 64626700 		.ascii	"dbg\000"
 1668 0475 0E       		.byte	0xe
 1669 0476 CE01     		.2byte	0x1ce
 1670 0478 EF030000 		.4byte	0x3ef
 1671 047c 2C       		.byte	0x2c
 1672 047d 10       		.uleb128 0x10
 1673 047e D1000000 		.4byte	.LASF84
 1674 0482 0E       		.byte	0xe
 1675 0483 D201     		.2byte	0x1d2
 1676 0485 4D010000 		.4byte	0x14d
 1677 0489 4004     		.2byte	0x440
 1678 048b 11       		.uleb128 0x11
 1679 048c 746D00   		.ascii	"tm\000"
 1680 048f 0E       		.byte	0xe
 1681 0490 D701     		.2byte	0x1d7
 1682 0492 56070000 		.4byte	0x756
 1683 0496 A004     		.2byte	0x4a0
 1684 0498 10       		.uleb128 0x10
ARM GAS  /tmp/ccsKobfn.s 			page 31


 1685 0499 30000000 		.4byte	.LASF85
 1686 049d 0E       		.byte	0xe
 1687 049e DD01     		.2byte	0x1dd
 1688 04a0 E8070000 		.4byte	0x7e8
 1689 04a4 A804     		.2byte	0x4a8
 1690 04a6 10       		.uleb128 0x10
 1691 04a7 C9020000 		.4byte	.LASF86
 1692 04ab 0E       		.byte	0xe
 1693 04ac E301     		.2byte	0x1e3
 1694 04ae DB080000 		.4byte	0x8db
 1695 04b2 E004     		.2byte	0x4e0
 1696 04b4 00       		.byte	0
 1697 04b5 04       		.uleb128 0x4
 1698 04b6 04       		.byte	0x4
 1699 04b7 07       		.byte	0x7
 1700 04b8 EF030000 		.4byte	.LASF87
 1701 04bc 12       		.uleb128 0x12
 1702 04bd B4000000 		.4byte	0xb4
 1703 04c1 CC040000 		.4byte	0x4cc
 1704 04c5 13       		.uleb128 0x13
 1705 04c6 B5040000 		.4byte	0x4b5
 1706 04ca 01       		.byte	0x1
 1707 04cb 00       		.byte	0
 1708 04cc 12       		.uleb128 0x12
 1709 04cd B4000000 		.4byte	0xb4
 1710 04d1 DC040000 		.4byte	0x4dc
 1711 04d5 13       		.uleb128 0x13
 1712 04d6 B5040000 		.4byte	0x4b5
 1713 04da 03       		.byte	0x3
 1714 04db 00       		.byte	0
 1715 04dc 03       		.uleb128 0x3
 1716 04dd 84020000 		.4byte	.LASF88
 1717 04e1 0F       		.byte	0xf
 1718 04e2 65       		.byte	0x65
 1719 04e3 46030000 		.4byte	0x346
 1720 04e7 03       		.uleb128 0x3
 1721 04e8 C9030000 		.4byte	.LASF89
 1722 04ec 0F       		.byte	0xf
 1723 04ed 6D       		.byte	0x6d
 1724 04ee BF000000 		.4byte	0xbf
 1725 04f2 06       		.uleb128 0x6
 1726 04f3 83060000 		.4byte	.LASF90
 1727 04f7 04       		.byte	0x4
 1728 04f8 0F       		.byte	0xf
 1729 04f9 89       		.byte	0x89
 1730 04fa 0B050000 		.4byte	0x50b
 1731 04fe 14       		.uleb128 0x14
 1732 04ff 72313300 		.ascii	"r13\000"
 1733 0503 0F       		.byte	0xf
 1734 0504 8A       		.byte	0x8a
 1735 0505 86050000 		.4byte	0x586
 1736 0509 00       		.byte	0
 1737 050a 00       		.byte	0
 1738 050b 06       		.uleb128 0x6
 1739 050c 47000000 		.4byte	.LASF91
 1740 0510 24       		.byte	0x24
 1741 0511 01       		.byte	0x1
ARM GAS  /tmp/ccsKobfn.s 			page 32


 1742 0512 FD       		.byte	0xfd
 1743 0513 86050000 		.4byte	0x586
 1744 0517 08       		.uleb128 0x8
 1745 0518 723400   		.ascii	"r4\000"
 1746 051b 01       		.byte	0x1
 1747 051c 1001     		.2byte	0x110
 1748 051e DC040000 		.4byte	0x4dc
 1749 0522 00       		.byte	0
 1750 0523 08       		.uleb128 0x8
 1751 0524 723500   		.ascii	"r5\000"
 1752 0527 01       		.byte	0x1
 1753 0528 1101     		.2byte	0x111
 1754 052a DC040000 		.4byte	0x4dc
 1755 052e 04       		.byte	0x4
 1756 052f 08       		.uleb128 0x8
 1757 0530 723600   		.ascii	"r6\000"
 1758 0533 01       		.byte	0x1
 1759 0534 1201     		.2byte	0x112
 1760 0536 DC040000 		.4byte	0x4dc
 1761 053a 08       		.byte	0x8
 1762 053b 08       		.uleb128 0x8
 1763 053c 723700   		.ascii	"r7\000"
 1764 053f 01       		.byte	0x1
 1765 0540 1301     		.2byte	0x113
 1766 0542 DC040000 		.4byte	0x4dc
 1767 0546 0C       		.byte	0xc
 1768 0547 08       		.uleb128 0x8
 1769 0548 723800   		.ascii	"r8\000"
 1770 054b 01       		.byte	0x1
 1771 054c 1401     		.2byte	0x114
 1772 054e DC040000 		.4byte	0x4dc
 1773 0552 10       		.byte	0x10
 1774 0553 08       		.uleb128 0x8
 1775 0554 723900   		.ascii	"r9\000"
 1776 0557 01       		.byte	0x1
 1777 0558 1501     		.2byte	0x115
 1778 055a DC040000 		.4byte	0x4dc
 1779 055e 14       		.byte	0x14
 1780 055f 08       		.uleb128 0x8
 1781 0560 72313000 		.ascii	"r10\000"
 1782 0564 01       		.byte	0x1
 1783 0565 1601     		.2byte	0x116
 1784 0567 DC040000 		.4byte	0x4dc
 1785 056b 18       		.byte	0x18
 1786 056c 08       		.uleb128 0x8
 1787 056d 72313100 		.ascii	"r11\000"
 1788 0571 01       		.byte	0x1
 1789 0572 1701     		.2byte	0x117
 1790 0574 DC040000 		.4byte	0x4dc
 1791 0578 1C       		.byte	0x1c
 1792 0579 08       		.uleb128 0x8
 1793 057a 6C7200   		.ascii	"lr\000"
 1794 057d 01       		.byte	0x1
 1795 057e 1801     		.2byte	0x118
 1796 0580 DC040000 		.4byte	0x4dc
 1797 0584 20       		.byte	0x20
 1798 0585 00       		.byte	0
ARM GAS  /tmp/ccsKobfn.s 			page 33


 1799 0586 0A       		.uleb128 0xa
 1800 0587 04       		.byte	0x4
 1801 0588 0B050000 		.4byte	0x50b
 1802 058c 15       		.uleb128 0x15
 1803 058d 60       		.byte	0x60
 1804 058e 10       		.byte	0x10
 1805 058f A101     		.2byte	0x1a1
 1806 0591 98060000 		.4byte	0x698
 1807 0595 08       		.uleb128 0x8
 1808 0596 43523100 		.ascii	"CR1\000"
 1809 059a 10       		.byte	0x10
 1810 059b A201     		.2byte	0x1a2
 1811 059d CF000000 		.4byte	0xcf
 1812 05a1 00       		.byte	0
 1813 05a2 08       		.uleb128 0x8
 1814 05a3 43523200 		.ascii	"CR2\000"
 1815 05a7 10       		.byte	0x10
 1816 05a8 A301     		.2byte	0x1a3
 1817 05aa CF000000 		.4byte	0xcf
 1818 05ae 04       		.byte	0x4
 1819 05af 09       		.uleb128 0x9
 1820 05b0 4A030000 		.4byte	.LASF92
 1821 05b4 10       		.byte	0x10
 1822 05b5 A401     		.2byte	0x1a4
 1823 05b7 CF000000 		.4byte	0xcf
 1824 05bb 08       		.byte	0x8
 1825 05bc 09       		.uleb128 0x9
 1826 05bd 14000000 		.4byte	.LASF93
 1827 05c1 10       		.byte	0x10
 1828 05c2 A501     		.2byte	0x1a5
 1829 05c4 CF000000 		.4byte	0xcf
 1830 05c8 0C       		.byte	0xc
 1831 05c9 08       		.uleb128 0x8
 1832 05ca 535200   		.ascii	"SR\000"
 1833 05cd 10       		.byte	0x10
 1834 05ce A601     		.2byte	0x1a6
 1835 05d0 CF000000 		.4byte	0xcf
 1836 05d4 10       		.byte	0x10
 1837 05d5 08       		.uleb128 0x8
 1838 05d6 45475200 		.ascii	"EGR\000"
 1839 05da 10       		.byte	0x10
 1840 05db A701     		.2byte	0x1a7
 1841 05dd CF000000 		.4byte	0xcf
 1842 05e1 14       		.byte	0x14
 1843 05e2 09       		.uleb128 0x9
 1844 05e3 14010000 		.4byte	.LASF94
 1845 05e7 10       		.byte	0x10
 1846 05e8 A801     		.2byte	0x1a8
 1847 05ea CF000000 		.4byte	0xcf
 1848 05ee 18       		.byte	0x18
 1849 05ef 09       		.uleb128 0x9
 1850 05f0 1A010000 		.4byte	.LASF95
 1851 05f4 10       		.byte	0x10
 1852 05f5 A901     		.2byte	0x1a9
 1853 05f7 CF000000 		.4byte	0xcf
 1854 05fb 1C       		.byte	0x1c
 1855 05fc 09       		.uleb128 0x9
ARM GAS  /tmp/ccsKobfn.s 			page 34


 1856 05fd 77010000 		.4byte	.LASF96
 1857 0601 10       		.byte	0x10
 1858 0602 AA01     		.2byte	0x1aa
 1859 0604 CF000000 		.4byte	0xcf
 1860 0608 20       		.byte	0x20
 1861 0609 08       		.uleb128 0x8
 1862 060a 434E5400 		.ascii	"CNT\000"
 1863 060e 10       		.byte	0x10
 1864 060f AB01     		.2byte	0x1ab
 1865 0611 CF000000 		.4byte	0xcf
 1866 0615 24       		.byte	0x24
 1867 0616 08       		.uleb128 0x8
 1868 0617 50534300 		.ascii	"PSC\000"
 1869 061b 10       		.byte	0x10
 1870 061c AC01     		.2byte	0x1ac
 1871 061e CF000000 		.4byte	0xcf
 1872 0622 28       		.byte	0x28
 1873 0623 08       		.uleb128 0x8
 1874 0624 41525200 		.ascii	"ARR\000"
 1875 0628 10       		.byte	0x10
 1876 0629 AD01     		.2byte	0x1ad
 1877 062b CF000000 		.4byte	0xcf
 1878 062f 2C       		.byte	0x2c
 1879 0630 08       		.uleb128 0x8
 1880 0631 52435200 		.ascii	"RCR\000"
 1881 0635 10       		.byte	0x10
 1882 0636 AE01     		.2byte	0x1ae
 1883 0638 CF000000 		.4byte	0xcf
 1884 063c 30       		.byte	0x30
 1885 063d 08       		.uleb128 0x8
 1886 063e 43435200 		.ascii	"CCR\000"
 1887 0642 10       		.byte	0x10
 1888 0643 AF01     		.2byte	0x1af
 1889 0645 98060000 		.4byte	0x698
 1890 0649 34       		.byte	0x34
 1891 064a 09       		.uleb128 0x9
 1892 064b FF000000 		.4byte	.LASF97
 1893 064f 10       		.byte	0x10
 1894 0650 B001     		.2byte	0x1b0
 1895 0652 CF000000 		.4byte	0xcf
 1896 0656 44       		.byte	0x44
 1897 0657 08       		.uleb128 0x8
 1898 0658 44435200 		.ascii	"DCR\000"
 1899 065c 10       		.byte	0x10
 1900 065d B101     		.2byte	0x1b1
 1901 065f CF000000 		.4byte	0xcf
 1902 0663 48       		.byte	0x48
 1903 0664 09       		.uleb128 0x9
 1904 0665 16060000 		.4byte	.LASF98
 1905 0669 10       		.byte	0x10
 1906 066a B201     		.2byte	0x1b2
 1907 066c CF000000 		.4byte	0xcf
 1908 0670 4C       		.byte	0x4c
 1909 0671 08       		.uleb128 0x8
 1910 0672 4F5200   		.ascii	"OR\000"
 1911 0675 10       		.byte	0x10
 1912 0676 B301     		.2byte	0x1b3
ARM GAS  /tmp/ccsKobfn.s 			page 35


 1913 0678 CF000000 		.4byte	0xcf
 1914 067c 50       		.byte	0x50
 1915 067d 09       		.uleb128 0x9
 1916 067e 20010000 		.4byte	.LASF99
 1917 0682 10       		.byte	0x10
 1918 0683 B401     		.2byte	0x1b4
 1919 0685 CF000000 		.4byte	0xcf
 1920 0689 54       		.byte	0x54
 1921 068a 09       		.uleb128 0x9
 1922 068b 94050000 		.4byte	.LASF100
 1923 068f 10       		.byte	0x10
 1924 0690 B501     		.2byte	0x1b5
 1925 0692 9D060000 		.4byte	0x69d
 1926 0696 58       		.byte	0x58
 1927 0697 00       		.byte	0
 1928 0698 05       		.uleb128 0x5
 1929 0699 CC040000 		.4byte	0x4cc
 1930 069d 05       		.uleb128 0x5
 1931 069e BC040000 		.4byte	0x4bc
 1932 06a2 16       		.uleb128 0x16
 1933 06a3 86030000 		.4byte	.LASF101
 1934 06a7 10       		.byte	0x10
 1935 06a8 B601     		.2byte	0x1b6
 1936 06aa 8C050000 		.4byte	0x58c
 1937 06ae 17       		.uleb128 0x17
 1938 06af 10       		.byte	0x10
 1939 06b0 11       		.byte	0x11
 1940 06b1 51       		.byte	0x51
 1941 06b2 E7060000 		.4byte	0x6e7
 1942 06b6 07       		.uleb128 0x7
 1943 06b7 32010000 		.4byte	.LASF102
 1944 06bb 11       		.byte	0x11
 1945 06bc 55       		.byte	0x55
 1946 06bd 42010000 		.4byte	0x142
 1947 06c1 00       		.byte	0
 1948 06c2 07       		.uleb128 0x7
 1949 06c3 7C010000 		.4byte	.LASF103
 1950 06c7 11       		.byte	0x11
 1951 06c8 59       		.byte	0x59
 1952 06c9 69020000 		.4byte	0x269
 1953 06cd 04       		.byte	0x4
 1954 06ce 07       		.uleb128 0x7
 1955 06cf 80070000 		.4byte	.LASF104
 1956 06d3 11       		.byte	0x11
 1957 06d4 5D       		.byte	0x5d
 1958 06d5 46030000 		.4byte	0x346
 1959 06d9 08       		.byte	0x8
 1960 06da 07       		.uleb128 0x7
 1961 06db BF000000 		.4byte	.LASF105
 1962 06df 11       		.byte	0x11
 1963 06e0 61       		.byte	0x61
 1964 06e1 9E000000 		.4byte	0x9e
 1965 06e5 0C       		.byte	0xc
 1966 06e6 00       		.byte	0
 1967 06e7 03       		.uleb128 0x3
 1968 06e8 2A040000 		.4byte	.LASF106
 1969 06ec 11       		.byte	0x11
ARM GAS  /tmp/ccsKobfn.s 			page 36


 1970 06ed 62       		.byte	0x62
 1971 06ee AE060000 		.4byte	0x6ae
 1972 06f2 18       		.uleb128 0x18
 1973 06f3 0804     		.2byte	0x408
 1974 06f5 11       		.byte	0x11
 1975 06f6 67       		.byte	0x67
 1976 06f7 20070000 		.4byte	0x720
 1977 06fb 07       		.uleb128 0x7
 1978 06fc 6C020000 		.4byte	.LASF107
 1979 0700 11       		.byte	0x11
 1980 0701 6B       		.byte	0x6b
 1981 0702 33000000 		.4byte	0x33
 1982 0706 00       		.byte	0
 1983 0707 07       		.uleb128 0x7
 1984 0708 00000000 		.4byte	.LASF108
 1985 070c 11       		.byte	0x11
 1986 070d 6F       		.byte	0x6f
 1987 070e 20070000 		.4byte	0x720
 1988 0712 04       		.byte	0x4
 1989 0713 07       		.uleb128 0x7
 1990 0714 AD040000 		.4byte	.LASF109
 1991 0718 11       		.byte	0x11
 1992 0719 73       		.byte	0x73
 1993 071a 26070000 		.4byte	0x726
 1994 071e 08       		.byte	0x8
 1995 071f 00       		.byte	0
 1996 0720 0A       		.uleb128 0xa
 1997 0721 04       		.byte	0x4
 1998 0722 E7060000 		.4byte	0x6e7
 1999 0726 12       		.uleb128 0x12
 2000 0727 E7060000 		.4byte	0x6e7
 2001 072b 36070000 		.4byte	0x736
 2002 072f 13       		.uleb128 0x13
 2003 0730 B5040000 		.4byte	0x4b5
 2004 0734 3F       		.byte	0x3f
 2005 0735 00       		.byte	0
 2006 0736 03       		.uleb128 0x3
 2007 0737 AD000000 		.4byte	.LASF110
 2008 073b 11       		.byte	0x11
 2009 073c 74       		.byte	0x74
 2010 073d F2060000 		.4byte	0x6f2
 2011 0741 17       		.uleb128 0x17
 2012 0742 04       		.byte	0x4
 2013 0743 12       		.byte	0x12
 2014 0744 38       		.byte	0x38
 2015 0745 56070000 		.4byte	0x756
 2016 0749 07       		.uleb128 0x7
 2017 074a 7C060000 		.4byte	.LASF111
 2018 074e 12       		.byte	0x12
 2019 074f 3C       		.byte	0x3c
 2020 0750 D4000000 		.4byte	0xd4
 2021 0754 00       		.byte	0
 2022 0755 00       		.byte	0
 2023 0756 03       		.uleb128 0x3
 2024 0757 D4030000 		.4byte	.LASF112
 2025 075b 12       		.byte	0x12
 2026 075c 3D       		.byte	0x3d
ARM GAS  /tmp/ccsKobfn.s 			page 37


 2027 075d 41070000 		.4byte	0x741
 2028 0761 17       		.uleb128 0x17
 2029 0762 18       		.byte	0x18
 2030 0763 12       		.byte	0x12
 2031 0764 48       		.byte	0x48
 2032 0765 A4070000 		.4byte	0x7a4
 2033 0769 07       		.uleb128 0x7
 2034 076a 2F060000 		.4byte	.LASF113
 2035 076e 12       		.byte	0x12
 2036 076f 49       		.byte	0x49
 2037 0770 D4000000 		.4byte	0xd4
 2038 0774 00       		.byte	0
 2039 0775 07       		.uleb128 0x7
 2040 0776 7D000000 		.4byte	.LASF114
 2041 077a 12       		.byte	0x12
 2042 077b 4A       		.byte	0x4a
 2043 077c D4000000 		.4byte	0xd4
 2044 0780 04       		.byte	0x4
 2045 0781 07       		.uleb128 0x7
 2046 0782 6E030000 		.4byte	.LASF115
 2047 0786 12       		.byte	0x12
 2048 0787 4B       		.byte	0x4b
 2049 0788 D4000000 		.4byte	0xd4
 2050 078c 08       		.byte	0x8
 2051 078d 14       		.uleb128 0x14
 2052 078e 6E00     		.ascii	"n\000"
 2053 0790 12       		.byte	0x12
 2054 0791 4C       		.byte	0x4c
 2055 0792 37010000 		.4byte	0x137
 2056 0796 0C       		.byte	0xc
 2057 0797 07       		.uleb128 0x7
 2058 0798 9A040000 		.4byte	.LASF116
 2059 079c 12       		.byte	0x12
 2060 079d 4D       		.byte	0x4d
 2061 079e DF000000 		.4byte	0xdf
 2062 07a2 10       		.byte	0x10
 2063 07a3 00       		.byte	0
 2064 07a4 03       		.uleb128 0x3
 2065 07a5 83000000 		.4byte	.LASF117
 2066 07a9 12       		.byte	0x12
 2067 07aa 4E       		.byte	0x4e
 2068 07ab 61070000 		.4byte	0x761
 2069 07af 17       		.uleb128 0x17
 2070 07b0 38       		.byte	0x38
 2071 07b1 13       		.byte	0x13
 2072 07b2 38       		.byte	0x38
 2073 07b3 E8070000 		.4byte	0x7e8
 2074 07b7 07       		.uleb128 0x7
 2075 07b8 39030000 		.4byte	.LASF118
 2076 07bc 13       		.byte	0x13
 2077 07bd 39       		.byte	0x39
 2078 07be 37010000 		.4byte	0x137
 2079 07c2 00       		.byte	0
 2080 07c3 07       		.uleb128 0x7
 2081 07c4 EA040000 		.4byte	.LASF119
 2082 07c8 13       		.byte	0x13
 2083 07c9 3A       		.byte	0x3a
ARM GAS  /tmp/ccsKobfn.s 			page 38


 2084 07ca 37010000 		.4byte	0x137
 2085 07ce 04       		.byte	0x4
 2086 07cf 07       		.uleb128 0x7
 2087 07d0 6D070000 		.4byte	.LASF120
 2088 07d4 13       		.byte	0x13
 2089 07d5 3B       		.byte	0x3b
 2090 07d6 A4070000 		.4byte	0x7a4
 2091 07da 08       		.byte	0x8
 2092 07db 07       		.uleb128 0x7
 2093 07dc 9A030000 		.4byte	.LASF121
 2094 07e0 13       		.byte	0x13
 2095 07e1 3D       		.byte	0x3d
 2096 07e2 A4070000 		.4byte	0x7a4
 2097 07e6 20       		.byte	0x20
 2098 07e7 00       		.byte	0
 2099 07e8 03       		.uleb128 0x3
 2100 07e9 4F030000 		.4byte	.LASF122
 2101 07ed 13       		.byte	0x13
 2102 07ee 3F       		.byte	0x3f
 2103 07ef AF070000 		.4byte	0x7af
 2104 07f3 19       		.uleb128 0x19
 2105 07f4 04       		.byte	0x4
 2106 07f5 0E       		.byte	0xe
 2107 07f6 FA       		.byte	0xfa
 2108 07f7 50080000 		.4byte	0x850
 2109 07fb 1A       		.uleb128 0x1a
 2110 07fc 20000000 		.4byte	.LASF123
 2111 0800 0E       		.byte	0xe
 2112 0801 0101     		.2byte	0x101
 2113 0803 16010000 		.4byte	0x116
 2114 0807 1A       		.uleb128 0x1a
 2115 0808 C8000000 		.4byte	.LASF124
 2116 080c 0E       		.byte	0xe
 2117 080d 0801     		.2byte	0x108
 2118 080f 16010000 		.4byte	0x116
 2119 0813 1A       		.uleb128 0x1a
 2120 0814 29070000 		.4byte	.LASF125
 2121 0818 0E       		.byte	0xe
 2122 0819 0F01     		.2byte	0x10f
 2123 081b 46030000 		.4byte	0x346
 2124 081f 1A       		.uleb128 0x1a
 2125 0820 55010000 		.4byte	.LASF126
 2126 0824 0E       		.byte	0xe
 2127 0825 1601     		.2byte	0x116
 2128 0827 50080000 		.4byte	0x850
 2129 082b 1A       		.uleb128 0x1a
 2130 082c 1E030000 		.4byte	.LASF127
 2131 0830 0E       		.byte	0xe
 2132 0831 1E01     		.2byte	0x11e
 2133 0833 7B080000 		.4byte	0x87b
 2134 0837 1A       		.uleb128 0x1a
 2135 0838 C0050000 		.4byte	.LASF128
 2136 083c 0E       		.byte	0xe
 2137 083d 2701     		.2byte	0x127
 2138 083f B2080000 		.4byte	0x8b2
 2139 0843 1A       		.uleb128 0x1a
 2140 0844 3C050000 		.4byte	.LASF129
ARM GAS  /tmp/ccsKobfn.s 			page 39


 2141 0848 0E       		.byte	0xe
 2142 0849 2F01     		.2byte	0x12f
 2143 084b 21010000 		.4byte	0x121
 2144 084f 00       		.byte	0
 2145 0850 0A       		.uleb128 0xa
 2146 0851 04       		.byte	0x4
 2147 0852 5E020000 		.4byte	0x25e
 2148 0856 06       		.uleb128 0x6
 2149 0857 87050000 		.4byte	.LASF130
 2150 085b 0C       		.byte	0xc
 2151 085c 14       		.byte	0x14
 2152 085d 34       		.byte	0x34
 2153 085e 7B080000 		.4byte	0x87b
 2154 0862 07       		.uleb128 0x7
 2155 0863 51020000 		.4byte	.LASF131
 2156 0867 14       		.byte	0x14
 2157 0868 35       		.byte	0x35
 2158 0869 93020000 		.4byte	0x293
 2159 086d 00       		.byte	0
 2160 086e 07       		.uleb128 0x7
 2161 086f 3F030000 		.4byte	.LASF132
 2162 0873 14       		.byte	0x14
 2163 0874 37       		.byte	0x37
 2164 0875 2C010000 		.4byte	0x12c
 2165 0879 08       		.byte	0x8
 2166 087a 00       		.byte	0
 2167 087b 0A       		.uleb128 0xa
 2168 087c 04       		.byte	0x4
 2169 087d 56080000 		.4byte	0x856
 2170 0881 06       		.uleb128 0x6
 2171 0882 BE060000 		.4byte	.LASF133
 2172 0886 10       		.byte	0x10
 2173 0887 15       		.byte	0x15
 2174 0888 39       		.byte	0x39
 2175 0889 B2080000 		.4byte	0x8b2
 2176 088d 07       		.uleb128 0x7
 2177 088e 3A010000 		.4byte	.LASF134
 2178 0892 15       		.byte	0x15
 2179 0893 3A       		.byte	0x3a
 2180 0894 93020000 		.4byte	0x293
 2181 0898 00       		.byte	0
 2182 0899 07       		.uleb128 0x7
 2183 089a 78070000 		.4byte	.LASF135
 2184 089e 15       		.byte	0x15
 2185 089f 3C       		.byte	0x3c
 2186 08a0 69020000 		.4byte	0x269
 2187 08a4 08       		.byte	0x8
 2188 08a5 07       		.uleb128 0x7
 2189 08a6 34060000 		.4byte	.LASF136
 2190 08aa 15       		.byte	0x15
 2191 08ab 3E       		.byte	0x3e
 2192 08ac F6080000 		.4byte	0x8f6
 2193 08b0 0C       		.byte	0xc
 2194 08b1 00       		.byte	0
 2195 08b2 0A       		.uleb128 0xa
 2196 08b3 04       		.byte	0x4
 2197 08b4 81080000 		.4byte	0x881
ARM GAS  /tmp/ccsKobfn.s 			page 40


 2198 08b8 0A       		.uleb128 0xa
 2199 08b9 04       		.byte	0x4
 2200 08ba BE080000 		.4byte	0x8be
 2201 08be 1B       		.uleb128 0x1b
 2202 08bf C3080000 		.4byte	0x8c3
 2203 08c3 04       		.uleb128 0x4
 2204 08c4 01       		.byte	0x1
 2205 08c5 08       		.byte	0x8
 2206 08c6 04060000 		.4byte	.LASF137
 2207 08ca 0A       		.uleb128 0xa
 2208 08cb 04       		.byte	0x4
 2209 08cc E7040000 		.4byte	0x4e7
 2210 08d0 0A       		.uleb128 0xa
 2211 08d1 04       		.byte	0x4
 2212 08d2 48030000 		.4byte	0x348
 2213 08d6 05       		.uleb128 0x5
 2214 08d7 B8080000 		.4byte	0x8b8
 2215 08db 12       		.uleb128 0x12
 2216 08dc E7040000 		.4byte	0x4e7
 2217 08e0 EB080000 		.4byte	0x8eb
 2218 08e4 13       		.uleb128 0x13
 2219 08e5 B5040000 		.4byte	0x4b5
 2220 08e9 1E       		.byte	0x1e
 2221 08ea 00       		.byte	0
 2222 08eb 03       		.uleb128 0x3
 2223 08ec B2020000 		.4byte	.LASF138
 2224 08f0 15       		.byte	0x15
 2225 08f1 34       		.byte	0x34
 2226 08f2 81080000 		.4byte	0x881
 2227 08f6 0A       		.uleb128 0xa
 2228 08f7 04       		.byte	0x4
 2229 08f8 EB080000 		.4byte	0x8eb
 2230 08fc 06       		.uleb128 0x6
 2231 08fd 7E050000 		.4byte	.LASF139
 2232 0901 10       		.byte	0x10
 2233 0902 16       		.byte	0x16
 2234 0903 3B       		.byte	0x3b
 2235 0904 39090000 		.4byte	0x939
 2236 0908 07       		.uleb128 0x7
 2237 0909 45030000 		.4byte	.LASF140
 2238 090d 16       		.byte	0x16
 2239 090e 3C       		.byte	0x3c
 2240 090f B8080000 		.4byte	0x8b8
 2241 0913 00       		.byte	0
 2242 0914 07       		.uleb128 0x7
 2243 0915 65040000 		.4byte	.LASF141
 2244 0919 16       		.byte	0x16
 2245 091a 3D       		.byte	0x3d
 2246 091b 3A090000 		.4byte	0x93a
 2247 091f 04       		.byte	0x4
 2248 0920 07       		.uleb128 0x7
 2249 0921 30030000 		.4byte	.LASF142
 2250 0925 16       		.byte	0x16
 2251 0926 3E       		.byte	0x3e
 2252 0927 3A090000 		.4byte	0x93a
 2253 092b 08       		.byte	0x8
 2254 092c 07       		.uleb128 0x7
ARM GAS  /tmp/ccsKobfn.s 			page 41


 2255 092d 09050000 		.4byte	.LASF143
 2256 0931 16       		.byte	0x16
 2257 0932 3F       		.byte	0x3f
 2258 0933 3A090000 		.4byte	0x93a
 2259 0937 0C       		.byte	0xc
 2260 0938 00       		.byte	0
 2261 0939 1C       		.uleb128 0x1c
 2262 093a 0A       		.uleb128 0xa
 2263 093b 04       		.byte	0x4
 2264 093c 39090000 		.4byte	0x939
 2265 0940 1D       		.uleb128 0x1d
 2266 0941 64060000 		.4byte	.LASF170
 2267 0945 02       		.byte	0x2
 2268 0946 2202     		.2byte	0x222
 2269 0948 03       		.byte	0x3
 2270 0949 5A090000 		.4byte	0x95a
 2271 094d 1E       		.uleb128 0x1e
 2272 094e BA020000 		.4byte	.LASF171
 2273 0952 02       		.byte	0x2
 2274 0953 2202     		.2byte	0x222
 2275 0955 B4000000 		.4byte	0xb4
 2276 0959 00       		.byte	0
 2277 095a 1F       		.uleb128 0x1f
 2278 095b 73000000 		.4byte	.LASF144
 2279 095f 01       		.byte	0x1
 2280 0960 C801     		.2byte	0x1c8
 2281 0962 00000000 		.4byte	.LFB127
 2282 0966 10000000 		.4byte	.LFE127-.LFB127
 2283 096a 01       		.uleb128 0x1
 2284 096b 9C       		.byte	0x9c
 2285 096c 8A090000 		.4byte	0x98a
 2286 0970 20       		.uleb128 0x20
 2287 0971 40090000 		.4byte	0x940
 2288 0975 06000000 		.4byte	.LBB6
 2289 0979 06000000 		.4byte	.LBE6-.LBB6
 2290 097d 01       		.byte	0x1
 2291 097e CB01     		.2byte	0x1cb
 2292 0980 21       		.uleb128 0x21
 2293 0981 4D090000 		.4byte	0x94d
 2294 0985 02       		.uleb128 0x2
 2295 0986 91       		.byte	0x91
 2296 0987 7C       		.sleb128 -4
 2297 0988 00       		.byte	0
 2298 0989 00       		.byte	0
 2299 098a 1F       		.uleb128 0x1f
 2300 098b 49010000 		.4byte	.LASF145
 2301 098f 01       		.byte	0x1
 2302 0990 D601     		.2byte	0x1d6
 2303 0992 00000000 		.4byte	.LFB128
 2304 0996 10000000 		.4byte	.LFE128-.LFB128
 2305 099a 01       		.uleb128 0x1
 2306 099b 9C       		.byte	0x9c
 2307 099c BA090000 		.4byte	0x9ba
 2308 09a0 20       		.uleb128 0x20
 2309 09a1 40090000 		.4byte	0x940
 2310 09a5 06000000 		.4byte	.LBB8
 2311 09a9 06000000 		.4byte	.LBE8-.LBB8
ARM GAS  /tmp/ccsKobfn.s 			page 42


 2312 09ad 01       		.byte	0x1
 2313 09ae D901     		.2byte	0x1d9
 2314 09b0 21       		.uleb128 0x21
 2315 09b1 4D090000 		.4byte	0x94d
 2316 09b5 02       		.uleb128 0x2
 2317 09b6 91       		.byte	0x91
 2318 09b7 7C       		.sleb128 -4
 2319 09b8 00       		.byte	0
 2320 09b9 00       		.byte	0
 2321 09ba 22       		.uleb128 0x22
 2322 09bb A4050000 		.4byte	.LASF146
 2323 09bf 03       		.byte	0x3
 2324 09c0 8B       		.byte	0x8b
 2325 09c1 42010000 		.4byte	0x142
 2326 09c5 00000000 		.4byte	.LFB136
 2327 09c9 0A000000 		.4byte	.LFE136-.LFB136
 2328 09cd 01       		.uleb128 0x1
 2329 09ce 9C       		.byte	0x9c
 2330 09cf 23       		.uleb128 0x23
 2331 09d0 8B060000 		.4byte	.LASF147
 2332 09d4 04       		.byte	0x4
 2333 09d5 69       		.byte	0x69
 2334 09d6 42010000 		.4byte	0x142
 2335 09da 00000000 		.4byte	.LFB145
 2336 09de 0C000000 		.4byte	.LFE145-.LFB145
 2337 09e2 01       		.uleb128 0x1
 2338 09e3 9C       		.byte	0x9c
 2339 09e4 24       		.uleb128 0x24
 2340 09e5 63050000 		.4byte	.LASF153
 2341 09e9 05       		.byte	0x5
 2342 09ea 5A01     		.2byte	0x15a
 2343 09ec 00000000 		.4byte	.LFB167
 2344 09f0 10000000 		.4byte	.LFE167-.LFB167
 2345 09f4 01       		.uleb128 0x1
 2346 09f5 9C       		.byte	0x9c
 2347 09f6 25       		.uleb128 0x25
 2348 09f7 5B070000 		.4byte	.LASF148
 2349 09fb 05       		.byte	0x5
 2350 09fc 6601     		.2byte	0x166
 2351 09fe 00000000 		.4byte	.LFB168
 2352 0a02 38000000 		.4byte	.LFE168-.LFB168
 2353 0a06 01       		.uleb128 0x1
 2354 0a07 9C       		.byte	0x9c
 2355 0a08 1C0A0000 		.4byte	0xa1c
 2356 0a0c 26       		.uleb128 0x26
 2357 0a0d 52050000 		.4byte	.LASF172
 2358 0a11 2C0A0000 		.4byte	0xa2c
 2359 0a15 05       		.uleb128 0x5
 2360 0a16 03       		.byte	0x3
 2361 0a17 00000000 		.4byte	__func__.5925
 2362 0a1b 00       		.byte	0
 2363 0a1c 12       		.uleb128 0x12
 2364 0a1d C3080000 		.4byte	0x8c3
 2365 0a21 2C0A0000 		.4byte	0xa2c
 2366 0a25 13       		.uleb128 0x13
 2367 0a26 B5040000 		.4byte	0x4b5
 2368 0a2a 0B       		.byte	0xb
ARM GAS  /tmp/ccsKobfn.s 			page 43


 2369 0a2b 00       		.byte	0
 2370 0a2c 1B       		.uleb128 0x1b
 2371 0a2d 1C0A0000 		.4byte	0xa1c
 2372 0a31 23       		.uleb128 0x23
 2373 0a32 DE020000 		.4byte	.LASF149
 2374 0a36 06       		.byte	0x6
 2375 0a37 E4       		.byte	0xe4
 2376 0a38 42010000 		.4byte	0x142
 2377 0a3c 00000000 		.4byte	.LFB175
 2378 0a40 0C000000 		.4byte	.LFE175-.LFB175
 2379 0a44 01       		.uleb128 0x1
 2380 0a45 9C       		.byte	0x9c
 2381 0a46 27       		.uleb128 0x27
 2382 0a47 6B040000 		.4byte	.LASF173
 2383 0a4b 06       		.byte	0x6
 2384 0a4c F7       		.byte	0xf7
 2385 0a4d 42010000 		.4byte	0x142
 2386 0a51 00000000 		.4byte	.LFB176
 2387 0a55 1C000000 		.4byte	.LFE176-.LFB176
 2388 0a59 01       		.uleb128 0x1
 2389 0a5a 9C       		.byte	0x9c
 2390 0a5b 6E0A0000 		.4byte	0xa6e
 2391 0a5f 28       		.uleb128 0x28
 2392 0a60 92030000 		.4byte	.LASF157
 2393 0a64 06       		.byte	0x6
 2394 0a65 F8       		.byte	0xf8
 2395 0a66 42010000 		.4byte	0x142
 2396 0a6a 02       		.uleb128 0x2
 2397 0a6b 91       		.byte	0x91
 2398 0a6c 74       		.sleb128 -12
 2399 0a6d 00       		.byte	0
 2400 0a6e 22       		.uleb128 0x22
 2401 0a6f DC060000 		.4byte	.LASF150
 2402 0a73 07       		.byte	0x7
 2403 0a74 AE       		.byte	0xae
 2404 0a75 69020000 		.4byte	0x269
 2405 0a79 00000000 		.4byte	.LFB188
 2406 0a7d 0C000000 		.4byte	.LFE188-.LFB188
 2407 0a81 01       		.uleb128 0x1
 2408 0a82 9C       		.byte	0x9c
 2409 0a83 23       		.uleb128 0x23
 2410 0a84 53040000 		.4byte	.LASF151
 2411 0a88 07       		.byte	0x7
 2412 0a89 BB       		.byte	0xbb
 2413 0a8a 0B010000 		.4byte	0x10b
 2414 0a8e 00000000 		.4byte	.LFB189
 2415 0a92 0E000000 		.4byte	.LFE189-.LFB189
 2416 0a96 01       		.uleb128 0x1
 2417 0a97 9C       		.byte	0x9c
 2418 0a98 29       		.uleb128 0x29
 2419 0a99 E3040000 		.4byte	.LASF152
 2420 0a9d 08       		.byte	0x8
 2421 0a9e 3C       		.byte	0x3c
 2422 0a9f 00000000 		.4byte	.LFB240
 2423 0aa3 16000000 		.4byte	.LFE240-.LFB240
 2424 0aa7 01       		.uleb128 0x1
 2425 0aa8 9C       		.byte	0x9c
ARM GAS  /tmp/ccsKobfn.s 			page 44


 2426 0aa9 BA0A0000 		.4byte	0xaba
 2427 0aad 2A       		.uleb128 0x2a
 2428 0aae 7000     		.ascii	"p\000"
 2429 0ab0 08       		.byte	0x8
 2430 0ab1 3C       		.byte	0x3c
 2431 0ab2 46030000 		.4byte	0x346
 2432 0ab6 02       		.uleb128 0x2
 2433 0ab7 91       		.byte	0x91
 2434 0ab8 74       		.sleb128 -12
 2435 0ab9 00       		.byte	0
 2436 0aba 2B       		.uleb128 0x2b
 2437 0abb 95020000 		.4byte	.LASF154
 2438 0abf 08       		.byte	0x8
 2439 0ac0 41       		.byte	0x41
 2440 0ac1 00000000 		.4byte	.LFB241
 2441 0ac5 F4000000 		.4byte	.LFE241-.LFB241
 2442 0ac9 01       		.uleb128 0x1
 2443 0aca 9C       		.byte	0x9c
 2444 0acb 2B       		.uleb128 0x2b
 2445 0acc 09030000 		.4byte	.LASF155
 2446 0ad0 08       		.byte	0x8
 2447 0ad1 5D       		.byte	0x5d
 2448 0ad2 00000000 		.4byte	.LFB242
 2449 0ad6 08010000 		.4byte	.LFE242-.LFB242
 2450 0ada 01       		.uleb128 0x1
 2451 0adb 9C       		.byte	0x9c
 2452 0adc 29       		.uleb128 0x29
 2453 0add B7040000 		.4byte	.LASF156
 2454 0ae1 08       		.byte	0x8
 2455 0ae2 7D       		.byte	0x7d
 2456 0ae3 00000000 		.4byte	.LFB243
 2457 0ae7 EA010000 		.4byte	.LFE243-.LFB243
 2458 0aeb 01       		.uleb128 0x1
 2459 0aec 9C       		.byte	0x9c
 2460 0aed 0D0B0000 		.4byte	0xb0d
 2461 0af1 28       		.uleb128 0x28
 2462 0af2 82040000 		.4byte	.LASF158
 2463 0af6 08       		.byte	0x8
 2464 0af7 7E       		.byte	0x7e
 2465 0af8 0B010000 		.4byte	0x10b
 2466 0afc 02       		.uleb128 0x2
 2467 0afd 91       		.byte	0x91
 2468 0afe 74       		.sleb128 -12
 2469 0aff 2C       		.uleb128 0x2c
 2470 0b00 703100   		.ascii	"p1\000"
 2471 0b03 08       		.byte	0x8
 2472 0b04 7E       		.byte	0x7e
 2473 0b05 0B010000 		.4byte	0x10b
 2474 0b09 02       		.uleb128 0x2
 2475 0b0a 91       		.byte	0x91
 2476 0b0b 70       		.sleb128 -16
 2477 0b0c 00       		.byte	0
 2478 0b0d 29       		.uleb128 0x29
 2479 0b0e 09060000 		.4byte	.LASF159
 2480 0b12 08       		.byte	0x8
 2481 0b13 BC       		.byte	0xbc
 2482 0b14 00000000 		.4byte	.LFB244
ARM GAS  /tmp/ccsKobfn.s 			page 45


 2483 0b18 BE000000 		.4byte	.LFE244-.LFB244
 2484 0b1c 01       		.uleb128 0x1
 2485 0b1d 9C       		.byte	0x9c
 2486 0b1e 310B0000 		.4byte	0xb31
 2487 0b22 28       		.uleb128 0x28
 2488 0b23 7D040000 		.4byte	.LASF160
 2489 0b27 08       		.byte	0x8
 2490 0b28 BD       		.byte	0xbd
 2491 0b29 42010000 		.4byte	0x142
 2492 0b2d 02       		.uleb128 0x2
 2493 0b2e 91       		.byte	0x91
 2494 0b2f 74       		.sleb128 -12
 2495 0b30 00       		.byte	0
 2496 0b31 2D       		.uleb128 0x2d
 2497 0b32 F2000000 		.4byte	.LASF161
 2498 0b36 17       		.byte	0x17
 2499 0b37 FA06     		.2byte	0x6fa
 2500 0b39 CA000000 		.4byte	0xca
 2501 0b3d 2E       		.uleb128 0x2e
 2502 0b3e 636800   		.ascii	"ch\000"
 2503 0b41 0E       		.byte	0xe
 2504 0b42 0902     		.2byte	0x209
 2505 0b44 3D040000 		.4byte	0x43d
 2506 0b48 12       		.uleb128 0x12
 2507 0b49 69020000 		.4byte	0x269
 2508 0b4d 580B0000 		.4byte	0xb58
 2509 0b51 13       		.uleb128 0x13
 2510 0b52 B5040000 		.4byte	0x4b5
 2511 0b56 04       		.byte	0x4
 2512 0b57 00       		.byte	0
 2513 0b58 2F       		.uleb128 0x2f
 2514 0b59 2D050000 		.4byte	.LASF162
 2515 0b5d 16       		.byte	0x16
 2516 0b5e A7       		.byte	0xa7
 2517 0b5f 480B0000 		.4byte	0xb48
 2518 0b63 12       		.uleb128 0x12
 2519 0b64 46030000 		.4byte	0x346
 2520 0b68 6E0B0000 		.4byte	0xb6e
 2521 0b6c 30       		.uleb128 0x30
 2522 0b6d 00       		.byte	0
 2523 0b6e 31       		.uleb128 0x31
 2524 0b6f 776100   		.ascii	"wa\000"
 2525 0b72 16       		.byte	0x16
 2526 0b73 A9       		.byte	0xa9
 2527 0b74 780B0000 		.4byte	0xb78
 2528 0b78 1B       		.uleb128 0x1b
 2529 0b79 630B0000 		.4byte	0xb63
 2530 0b7d 32       		.uleb128 0x32
 2531 0b7e F8030000 		.4byte	.LASF163
 2532 0b82 08       		.byte	0x8
 2533 0b83 4C       		.byte	0x4c
 2534 0b84 8E0B0000 		.4byte	0xb8e
 2535 0b88 05       		.uleb128 0x5
 2536 0b89 03       		.byte	0x3
 2537 0b8a 00000000 		.4byte	testthd1
 2538 0b8e 1B       		.uleb128 0x1b
 2539 0b8f FC080000 		.4byte	0x8fc
ARM GAS  /tmp/ccsKobfn.s 			page 46


 2540 0b93 32       		.uleb128 0x32
 2541 0b94 01040000 		.4byte	.LASF164
 2542 0b98 08       		.byte	0x8
 2543 0b99 6C       		.byte	0x6c
 2544 0b9a 8E0B0000 		.4byte	0xb8e
 2545 0b9e 05       		.uleb128 0x5
 2546 0b9f 03       		.byte	0x3
 2547 0ba0 00000000 		.4byte	testthd2
 2548 0ba4 32       		.uleb128 0x32
 2549 0ba5 90010000 		.4byte	.LASF165
 2550 0ba9 08       		.byte	0x8
 2551 0baa AD       		.byte	0xad
 2552 0bab 8E0B0000 		.4byte	0xb8e
 2553 0baf 05       		.uleb128 0x5
 2554 0bb0 03       		.byte	0x3
 2555 0bb1 00000000 		.4byte	testthd3
 2556 0bb5 32       		.uleb128 0x32
 2557 0bb6 21040000 		.4byte	.LASF166
 2558 0bba 08       		.byte	0x8
 2559 0bbb DE       		.byte	0xde
 2560 0bbc 8E0B0000 		.4byte	0xb8e
 2561 0bc0 05       		.uleb128 0x5
 2562 0bc1 03       		.byte	0x3
 2563 0bc2 00000000 		.4byte	testthd4
 2564 0bc6 12       		.uleb128 0x12
 2565 0bc7 D60B0000 		.4byte	0xbd6
 2566 0bcb D60B0000 		.4byte	0xbd6
 2567 0bcf 13       		.uleb128 0x13
 2568 0bd0 B5040000 		.4byte	0x4b5
 2569 0bd4 04       		.byte	0x4
 2570 0bd5 00       		.byte	0
 2571 0bd6 0A       		.uleb128 0xa
 2572 0bd7 04       		.byte	0x4
 2573 0bd8 8E0B0000 		.4byte	0xb8e
 2574 0bdc 32       		.uleb128 0x32
 2575 0bdd 1B060000 		.4byte	.LASF167
 2576 0be1 08       		.byte	0x8
 2577 0be2 E8       		.byte	0xe8
 2578 0be3 ED0B0000 		.4byte	0xbed
 2579 0be7 05       		.uleb128 0x5
 2580 0be8 03       		.byte	0x3
 2581 0be9 00000000 		.4byte	patternthd
 2582 0bed 1B       		.uleb128 0x1b
 2583 0bee C60B0000 		.4byte	0xbc6
 2584 0bf2 00       		.byte	0
 2585              		.section	.debug_abbrev,"",%progbits
 2586              	.Ldebug_abbrev0:
 2587 0000 01       		.uleb128 0x1
 2588 0001 11       		.uleb128 0x11
 2589 0002 01       		.byte	0x1
 2590 0003 25       		.uleb128 0x25
 2591 0004 0E       		.uleb128 0xe
 2592 0005 13       		.uleb128 0x13
 2593 0006 0B       		.uleb128 0xb
 2594 0007 03       		.uleb128 0x3
 2595 0008 0E       		.uleb128 0xe
 2596 0009 55       		.uleb128 0x55
ARM GAS  /tmp/ccsKobfn.s 			page 47


 2597 000a 17       		.uleb128 0x17
 2598 000b 11       		.uleb128 0x11
 2599 000c 01       		.uleb128 0x1
 2600 000d 10       		.uleb128 0x10
 2601 000e 17       		.uleb128 0x17
 2602 000f 00       		.byte	0
 2603 0010 00       		.byte	0
 2604 0011 02       		.uleb128 0x2
 2605 0012 24       		.uleb128 0x24
 2606 0013 00       		.byte	0
 2607 0014 0B       		.uleb128 0xb
 2608 0015 0B       		.uleb128 0xb
 2609 0016 3E       		.uleb128 0x3e
 2610 0017 0B       		.uleb128 0xb
 2611 0018 03       		.uleb128 0x3
 2612 0019 08       		.uleb128 0x8
 2613 001a 00       		.byte	0
 2614 001b 00       		.byte	0
 2615 001c 03       		.uleb128 0x3
 2616 001d 16       		.uleb128 0x16
 2617 001e 00       		.byte	0
 2618 001f 03       		.uleb128 0x3
 2619 0020 0E       		.uleb128 0xe
 2620 0021 3A       		.uleb128 0x3a
 2621 0022 0B       		.uleb128 0xb
 2622 0023 3B       		.uleb128 0x3b
 2623 0024 0B       		.uleb128 0xb
 2624 0025 49       		.uleb128 0x49
 2625 0026 13       		.uleb128 0x13
 2626 0027 00       		.byte	0
 2627 0028 00       		.byte	0
 2628 0029 04       		.uleb128 0x4
 2629 002a 24       		.uleb128 0x24
 2630 002b 00       		.byte	0
 2631 002c 0B       		.uleb128 0xb
 2632 002d 0B       		.uleb128 0xb
 2633 002e 3E       		.uleb128 0x3e
 2634 002f 0B       		.uleb128 0xb
 2635 0030 03       		.uleb128 0x3
 2636 0031 0E       		.uleb128 0xe
 2637 0032 00       		.byte	0
 2638 0033 00       		.byte	0
 2639 0034 05       		.uleb128 0x5
 2640 0035 35       		.uleb128 0x35
 2641 0036 00       		.byte	0
 2642 0037 49       		.uleb128 0x49
 2643 0038 13       		.uleb128 0x13
 2644 0039 00       		.byte	0
 2645 003a 00       		.byte	0
 2646 003b 06       		.uleb128 0x6
 2647 003c 13       		.uleb128 0x13
 2648 003d 01       		.byte	0x1
 2649 003e 03       		.uleb128 0x3
 2650 003f 0E       		.uleb128 0xe
 2651 0040 0B       		.uleb128 0xb
 2652 0041 0B       		.uleb128 0xb
 2653 0042 3A       		.uleb128 0x3a
ARM GAS  /tmp/ccsKobfn.s 			page 48


 2654 0043 0B       		.uleb128 0xb
 2655 0044 3B       		.uleb128 0x3b
 2656 0045 0B       		.uleb128 0xb
 2657 0046 01       		.uleb128 0x1
 2658 0047 13       		.uleb128 0x13
 2659 0048 00       		.byte	0
 2660 0049 00       		.byte	0
 2661 004a 07       		.uleb128 0x7
 2662 004b 0D       		.uleb128 0xd
 2663 004c 00       		.byte	0
 2664 004d 03       		.uleb128 0x3
 2665 004e 0E       		.uleb128 0xe
 2666 004f 3A       		.uleb128 0x3a
 2667 0050 0B       		.uleb128 0xb
 2668 0051 3B       		.uleb128 0x3b
 2669 0052 0B       		.uleb128 0xb
 2670 0053 49       		.uleb128 0x49
 2671 0054 13       		.uleb128 0x13
 2672 0055 38       		.uleb128 0x38
 2673 0056 0B       		.uleb128 0xb
 2674 0057 00       		.byte	0
 2675 0058 00       		.byte	0
 2676 0059 08       		.uleb128 0x8
 2677 005a 0D       		.uleb128 0xd
 2678 005b 00       		.byte	0
 2679 005c 03       		.uleb128 0x3
 2680 005d 08       		.uleb128 0x8
 2681 005e 3A       		.uleb128 0x3a
 2682 005f 0B       		.uleb128 0xb
 2683 0060 3B       		.uleb128 0x3b
 2684 0061 05       		.uleb128 0x5
 2685 0062 49       		.uleb128 0x49
 2686 0063 13       		.uleb128 0x13
 2687 0064 38       		.uleb128 0x38
 2688 0065 0B       		.uleb128 0xb
 2689 0066 00       		.byte	0
 2690 0067 00       		.byte	0
 2691 0068 09       		.uleb128 0x9
 2692 0069 0D       		.uleb128 0xd
 2693 006a 00       		.byte	0
 2694 006b 03       		.uleb128 0x3
 2695 006c 0E       		.uleb128 0xe
 2696 006d 3A       		.uleb128 0x3a
 2697 006e 0B       		.uleb128 0xb
 2698 006f 3B       		.uleb128 0x3b
 2699 0070 05       		.uleb128 0x5
 2700 0071 49       		.uleb128 0x49
 2701 0072 13       		.uleb128 0x13
 2702 0073 38       		.uleb128 0x38
 2703 0074 0B       		.uleb128 0xb
 2704 0075 00       		.byte	0
 2705 0076 00       		.byte	0
 2706 0077 0A       		.uleb128 0xa
 2707 0078 0F       		.uleb128 0xf
 2708 0079 00       		.byte	0
 2709 007a 0B       		.uleb128 0xb
 2710 007b 0B       		.uleb128 0xb
ARM GAS  /tmp/ccsKobfn.s 			page 49


 2711 007c 49       		.uleb128 0x49
 2712 007d 13       		.uleb128 0x13
 2713 007e 00       		.byte	0
 2714 007f 00       		.byte	0
 2715 0080 0B       		.uleb128 0xb
 2716 0081 13       		.uleb128 0x13
 2717 0082 01       		.byte	0x1
 2718 0083 03       		.uleb128 0x3
 2719 0084 0E       		.uleb128 0xe
 2720 0085 0B       		.uleb128 0xb
 2721 0086 0B       		.uleb128 0xb
 2722 0087 3A       		.uleb128 0x3a
 2723 0088 0B       		.uleb128 0xb
 2724 0089 3B       		.uleb128 0x3b
 2725 008a 05       		.uleb128 0x5
 2726 008b 01       		.uleb128 0x1
 2727 008c 13       		.uleb128 0x13
 2728 008d 00       		.byte	0
 2729 008e 00       		.byte	0
 2730 008f 0C       		.uleb128 0xc
 2731 0090 15       		.uleb128 0x15
 2732 0091 01       		.byte	0x1
 2733 0092 27       		.uleb128 0x27
 2734 0093 19       		.uleb128 0x19
 2735 0094 01       		.uleb128 0x1
 2736 0095 13       		.uleb128 0x13
 2737 0096 00       		.byte	0
 2738 0097 00       		.byte	0
 2739 0098 0D       		.uleb128 0xd
 2740 0099 05       		.uleb128 0x5
 2741 009a 00       		.byte	0
 2742 009b 49       		.uleb128 0x49
 2743 009c 13       		.uleb128 0x13
 2744 009d 00       		.byte	0
 2745 009e 00       		.byte	0
 2746 009f 0E       		.uleb128 0xe
 2747 00a0 0F       		.uleb128 0xf
 2748 00a1 00       		.byte	0
 2749 00a2 0B       		.uleb128 0xb
 2750 00a3 0B       		.uleb128 0xb
 2751 00a4 00       		.byte	0
 2752 00a5 00       		.byte	0
 2753 00a6 0F       		.uleb128 0xf
 2754 00a7 13       		.uleb128 0x13
 2755 00a8 01       		.byte	0x1
 2756 00a9 03       		.uleb128 0x3
 2757 00aa 0E       		.uleb128 0xe
 2758 00ab 0B       		.uleb128 0xb
 2759 00ac 05       		.uleb128 0x5
 2760 00ad 3A       		.uleb128 0x3a
 2761 00ae 0B       		.uleb128 0xb
 2762 00af 3B       		.uleb128 0x3b
 2763 00b0 05       		.uleb128 0x5
 2764 00b1 01       		.uleb128 0x1
 2765 00b2 13       		.uleb128 0x13
 2766 00b3 00       		.byte	0
 2767 00b4 00       		.byte	0
ARM GAS  /tmp/ccsKobfn.s 			page 50


 2768 00b5 10       		.uleb128 0x10
 2769 00b6 0D       		.uleb128 0xd
 2770 00b7 00       		.byte	0
 2771 00b8 03       		.uleb128 0x3
 2772 00b9 0E       		.uleb128 0xe
 2773 00ba 3A       		.uleb128 0x3a
 2774 00bb 0B       		.uleb128 0xb
 2775 00bc 3B       		.uleb128 0x3b
 2776 00bd 05       		.uleb128 0x5
 2777 00be 49       		.uleb128 0x49
 2778 00bf 13       		.uleb128 0x13
 2779 00c0 38       		.uleb128 0x38
 2780 00c1 05       		.uleb128 0x5
 2781 00c2 00       		.byte	0
 2782 00c3 00       		.byte	0
 2783 00c4 11       		.uleb128 0x11
 2784 00c5 0D       		.uleb128 0xd
 2785 00c6 00       		.byte	0
 2786 00c7 03       		.uleb128 0x3
 2787 00c8 08       		.uleb128 0x8
 2788 00c9 3A       		.uleb128 0x3a
 2789 00ca 0B       		.uleb128 0xb
 2790 00cb 3B       		.uleb128 0x3b
 2791 00cc 05       		.uleb128 0x5
 2792 00cd 49       		.uleb128 0x49
 2793 00ce 13       		.uleb128 0x13
 2794 00cf 38       		.uleb128 0x38
 2795 00d0 05       		.uleb128 0x5
 2796 00d1 00       		.byte	0
 2797 00d2 00       		.byte	0
 2798 00d3 12       		.uleb128 0x12
 2799 00d4 01       		.uleb128 0x1
 2800 00d5 01       		.byte	0x1
 2801 00d6 49       		.uleb128 0x49
 2802 00d7 13       		.uleb128 0x13
 2803 00d8 01       		.uleb128 0x1
 2804 00d9 13       		.uleb128 0x13
 2805 00da 00       		.byte	0
 2806 00db 00       		.byte	0
 2807 00dc 13       		.uleb128 0x13
 2808 00dd 21       		.uleb128 0x21
 2809 00de 00       		.byte	0
 2810 00df 49       		.uleb128 0x49
 2811 00e0 13       		.uleb128 0x13
 2812 00e1 2F       		.uleb128 0x2f
 2813 00e2 0B       		.uleb128 0xb
 2814 00e3 00       		.byte	0
 2815 00e4 00       		.byte	0
 2816 00e5 14       		.uleb128 0x14
 2817 00e6 0D       		.uleb128 0xd
 2818 00e7 00       		.byte	0
 2819 00e8 03       		.uleb128 0x3
 2820 00e9 08       		.uleb128 0x8
 2821 00ea 3A       		.uleb128 0x3a
 2822 00eb 0B       		.uleb128 0xb
 2823 00ec 3B       		.uleb128 0x3b
 2824 00ed 0B       		.uleb128 0xb
ARM GAS  /tmp/ccsKobfn.s 			page 51


 2825 00ee 49       		.uleb128 0x49
 2826 00ef 13       		.uleb128 0x13
 2827 00f0 38       		.uleb128 0x38
 2828 00f1 0B       		.uleb128 0xb
 2829 00f2 00       		.byte	0
 2830 00f3 00       		.byte	0
 2831 00f4 15       		.uleb128 0x15
 2832 00f5 13       		.uleb128 0x13
 2833 00f6 01       		.byte	0x1
 2834 00f7 0B       		.uleb128 0xb
 2835 00f8 0B       		.uleb128 0xb
 2836 00f9 3A       		.uleb128 0x3a
 2837 00fa 0B       		.uleb128 0xb
 2838 00fb 3B       		.uleb128 0x3b
 2839 00fc 05       		.uleb128 0x5
 2840 00fd 01       		.uleb128 0x1
 2841 00fe 13       		.uleb128 0x13
 2842 00ff 00       		.byte	0
 2843 0100 00       		.byte	0
 2844 0101 16       		.uleb128 0x16
 2845 0102 16       		.uleb128 0x16
 2846 0103 00       		.byte	0
 2847 0104 03       		.uleb128 0x3
 2848 0105 0E       		.uleb128 0xe
 2849 0106 3A       		.uleb128 0x3a
 2850 0107 0B       		.uleb128 0xb
 2851 0108 3B       		.uleb128 0x3b
 2852 0109 05       		.uleb128 0x5
 2853 010a 49       		.uleb128 0x49
 2854 010b 13       		.uleb128 0x13
 2855 010c 00       		.byte	0
 2856 010d 00       		.byte	0
 2857 010e 17       		.uleb128 0x17
 2858 010f 13       		.uleb128 0x13
 2859 0110 01       		.byte	0x1
 2860 0111 0B       		.uleb128 0xb
 2861 0112 0B       		.uleb128 0xb
 2862 0113 3A       		.uleb128 0x3a
 2863 0114 0B       		.uleb128 0xb
 2864 0115 3B       		.uleb128 0x3b
 2865 0116 0B       		.uleb128 0xb
 2866 0117 01       		.uleb128 0x1
 2867 0118 13       		.uleb128 0x13
 2868 0119 00       		.byte	0
 2869 011a 00       		.byte	0
 2870 011b 18       		.uleb128 0x18
 2871 011c 13       		.uleb128 0x13
 2872 011d 01       		.byte	0x1
 2873 011e 0B       		.uleb128 0xb
 2874 011f 05       		.uleb128 0x5
 2875 0120 3A       		.uleb128 0x3a
 2876 0121 0B       		.uleb128 0xb
 2877 0122 3B       		.uleb128 0x3b
 2878 0123 0B       		.uleb128 0xb
 2879 0124 01       		.uleb128 0x1
 2880 0125 13       		.uleb128 0x13
 2881 0126 00       		.byte	0
ARM GAS  /tmp/ccsKobfn.s 			page 52


 2882 0127 00       		.byte	0
 2883 0128 19       		.uleb128 0x19
 2884 0129 17       		.uleb128 0x17
 2885 012a 01       		.byte	0x1
 2886 012b 0B       		.uleb128 0xb
 2887 012c 0B       		.uleb128 0xb
 2888 012d 3A       		.uleb128 0x3a
 2889 012e 0B       		.uleb128 0xb
 2890 012f 3B       		.uleb128 0x3b
 2891 0130 0B       		.uleb128 0xb
 2892 0131 01       		.uleb128 0x1
 2893 0132 13       		.uleb128 0x13
 2894 0133 00       		.byte	0
 2895 0134 00       		.byte	0
 2896 0135 1A       		.uleb128 0x1a
 2897 0136 0D       		.uleb128 0xd
 2898 0137 00       		.byte	0
 2899 0138 03       		.uleb128 0x3
 2900 0139 0E       		.uleb128 0xe
 2901 013a 3A       		.uleb128 0x3a
 2902 013b 0B       		.uleb128 0xb
 2903 013c 3B       		.uleb128 0x3b
 2904 013d 05       		.uleb128 0x5
 2905 013e 49       		.uleb128 0x49
 2906 013f 13       		.uleb128 0x13
 2907 0140 00       		.byte	0
 2908 0141 00       		.byte	0
 2909 0142 1B       		.uleb128 0x1b
 2910 0143 26       		.uleb128 0x26
 2911 0144 00       		.byte	0
 2912 0145 49       		.uleb128 0x49
 2913 0146 13       		.uleb128 0x13
 2914 0147 00       		.byte	0
 2915 0148 00       		.byte	0
 2916 0149 1C       		.uleb128 0x1c
 2917 014a 15       		.uleb128 0x15
 2918 014b 00       		.byte	0
 2919 014c 27       		.uleb128 0x27
 2920 014d 19       		.uleb128 0x19
 2921 014e 00       		.byte	0
 2922 014f 00       		.byte	0
 2923 0150 1D       		.uleb128 0x1d
 2924 0151 2E       		.uleb128 0x2e
 2925 0152 01       		.byte	0x1
 2926 0153 03       		.uleb128 0x3
 2927 0154 0E       		.uleb128 0xe
 2928 0155 3A       		.uleb128 0x3a
 2929 0156 0B       		.uleb128 0xb
 2930 0157 3B       		.uleb128 0x3b
 2931 0158 05       		.uleb128 0x5
 2932 0159 27       		.uleb128 0x27
 2933 015a 19       		.uleb128 0x19
 2934 015b 20       		.uleb128 0x20
 2935 015c 0B       		.uleb128 0xb
 2936 015d 01       		.uleb128 0x1
 2937 015e 13       		.uleb128 0x13
 2938 015f 00       		.byte	0
ARM GAS  /tmp/ccsKobfn.s 			page 53


 2939 0160 00       		.byte	0
 2940 0161 1E       		.uleb128 0x1e
 2941 0162 05       		.uleb128 0x5
 2942 0163 00       		.byte	0
 2943 0164 03       		.uleb128 0x3
 2944 0165 0E       		.uleb128 0xe
 2945 0166 3A       		.uleb128 0x3a
 2946 0167 0B       		.uleb128 0xb
 2947 0168 3B       		.uleb128 0x3b
 2948 0169 05       		.uleb128 0x5
 2949 016a 49       		.uleb128 0x49
 2950 016b 13       		.uleb128 0x13
 2951 016c 00       		.byte	0
 2952 016d 00       		.byte	0
 2953 016e 1F       		.uleb128 0x1f
 2954 016f 2E       		.uleb128 0x2e
 2955 0170 01       		.byte	0x1
 2956 0171 03       		.uleb128 0x3
 2957 0172 0E       		.uleb128 0xe
 2958 0173 3A       		.uleb128 0x3a
 2959 0174 0B       		.uleb128 0xb
 2960 0175 3B       		.uleb128 0x3b
 2961 0176 05       		.uleb128 0x5
 2962 0177 27       		.uleb128 0x27
 2963 0178 19       		.uleb128 0x19
 2964 0179 11       		.uleb128 0x11
 2965 017a 01       		.uleb128 0x1
 2966 017b 12       		.uleb128 0x12
 2967 017c 06       		.uleb128 0x6
 2968 017d 40       		.uleb128 0x40
 2969 017e 18       		.uleb128 0x18
 2970 017f 9742     		.uleb128 0x2117
 2971 0181 19       		.uleb128 0x19
 2972 0182 01       		.uleb128 0x1
 2973 0183 13       		.uleb128 0x13
 2974 0184 00       		.byte	0
 2975 0185 00       		.byte	0
 2976 0186 20       		.uleb128 0x20
 2977 0187 1D       		.uleb128 0x1d
 2978 0188 01       		.byte	0x1
 2979 0189 31       		.uleb128 0x31
 2980 018a 13       		.uleb128 0x13
 2981 018b 11       		.uleb128 0x11
 2982 018c 01       		.uleb128 0x1
 2983 018d 12       		.uleb128 0x12
 2984 018e 06       		.uleb128 0x6
 2985 018f 58       		.uleb128 0x58
 2986 0190 0B       		.uleb128 0xb
 2987 0191 59       		.uleb128 0x59
 2988 0192 05       		.uleb128 0x5
 2989 0193 00       		.byte	0
 2990 0194 00       		.byte	0
 2991 0195 21       		.uleb128 0x21
 2992 0196 05       		.uleb128 0x5
 2993 0197 00       		.byte	0
 2994 0198 31       		.uleb128 0x31
 2995 0199 13       		.uleb128 0x13
ARM GAS  /tmp/ccsKobfn.s 			page 54


 2996 019a 02       		.uleb128 0x2
 2997 019b 18       		.uleb128 0x18
 2998 019c 00       		.byte	0
 2999 019d 00       		.byte	0
 3000 019e 22       		.uleb128 0x22
 3001 019f 2E       		.uleb128 0x2e
 3002 01a0 00       		.byte	0
 3003 01a1 03       		.uleb128 0x3
 3004 01a2 0E       		.uleb128 0xe
 3005 01a3 3A       		.uleb128 0x3a
 3006 01a4 0B       		.uleb128 0xb
 3007 01a5 3B       		.uleb128 0x3b
 3008 01a6 0B       		.uleb128 0xb
 3009 01a7 27       		.uleb128 0x27
 3010 01a8 19       		.uleb128 0x19
 3011 01a9 49       		.uleb128 0x49
 3012 01aa 13       		.uleb128 0x13
 3013 01ab 11       		.uleb128 0x11
 3014 01ac 01       		.uleb128 0x1
 3015 01ad 12       		.uleb128 0x12
 3016 01ae 06       		.uleb128 0x6
 3017 01af 40       		.uleb128 0x40
 3018 01b0 18       		.uleb128 0x18
 3019 01b1 9742     		.uleb128 0x2117
 3020 01b3 19       		.uleb128 0x19
 3021 01b4 00       		.byte	0
 3022 01b5 00       		.byte	0
 3023 01b6 23       		.uleb128 0x23
 3024 01b7 2E       		.uleb128 0x2e
 3025 01b8 00       		.byte	0
 3026 01b9 03       		.uleb128 0x3
 3027 01ba 0E       		.uleb128 0xe
 3028 01bb 3A       		.uleb128 0x3a
 3029 01bc 0B       		.uleb128 0xb
 3030 01bd 3B       		.uleb128 0x3b
 3031 01be 0B       		.uleb128 0xb
 3032 01bf 27       		.uleb128 0x27
 3033 01c0 19       		.uleb128 0x19
 3034 01c1 49       		.uleb128 0x49
 3035 01c2 13       		.uleb128 0x13
 3036 01c3 11       		.uleb128 0x11
 3037 01c4 01       		.uleb128 0x1
 3038 01c5 12       		.uleb128 0x12
 3039 01c6 06       		.uleb128 0x6
 3040 01c7 40       		.uleb128 0x40
 3041 01c8 18       		.uleb128 0x18
 3042 01c9 9642     		.uleb128 0x2116
 3043 01cb 19       		.uleb128 0x19
 3044 01cc 00       		.byte	0
 3045 01cd 00       		.byte	0
 3046 01ce 24       		.uleb128 0x24
 3047 01cf 2E       		.uleb128 0x2e
 3048 01d0 00       		.byte	0
 3049 01d1 03       		.uleb128 0x3
 3050 01d2 0E       		.uleb128 0xe
 3051 01d3 3A       		.uleb128 0x3a
 3052 01d4 0B       		.uleb128 0xb
ARM GAS  /tmp/ccsKobfn.s 			page 55


 3053 01d5 3B       		.uleb128 0x3b
 3054 01d6 05       		.uleb128 0x5
 3055 01d7 27       		.uleb128 0x27
 3056 01d8 19       		.uleb128 0x19
 3057 01d9 11       		.uleb128 0x11
 3058 01da 01       		.uleb128 0x1
 3059 01db 12       		.uleb128 0x12
 3060 01dc 06       		.uleb128 0x6
 3061 01dd 40       		.uleb128 0x40
 3062 01de 18       		.uleb128 0x18
 3063 01df 9642     		.uleb128 0x2116
 3064 01e1 19       		.uleb128 0x19
 3065 01e2 00       		.byte	0
 3066 01e3 00       		.byte	0
 3067 01e4 25       		.uleb128 0x25
 3068 01e5 2E       		.uleb128 0x2e
 3069 01e6 01       		.byte	0x1
 3070 01e7 03       		.uleb128 0x3
 3071 01e8 0E       		.uleb128 0xe
 3072 01e9 3A       		.uleb128 0x3a
 3073 01ea 0B       		.uleb128 0xb
 3074 01eb 3B       		.uleb128 0x3b
 3075 01ec 05       		.uleb128 0x5
 3076 01ed 27       		.uleb128 0x27
 3077 01ee 19       		.uleb128 0x19
 3078 01ef 11       		.uleb128 0x11
 3079 01f0 01       		.uleb128 0x1
 3080 01f1 12       		.uleb128 0x12
 3081 01f2 06       		.uleb128 0x6
 3082 01f3 40       		.uleb128 0x40
 3083 01f4 18       		.uleb128 0x18
 3084 01f5 9642     		.uleb128 0x2116
 3085 01f7 19       		.uleb128 0x19
 3086 01f8 01       		.uleb128 0x1
 3087 01f9 13       		.uleb128 0x13
 3088 01fa 00       		.byte	0
 3089 01fb 00       		.byte	0
 3090 01fc 26       		.uleb128 0x26
 3091 01fd 34       		.uleb128 0x34
 3092 01fe 00       		.byte	0
 3093 01ff 03       		.uleb128 0x3
 3094 0200 0E       		.uleb128 0xe
 3095 0201 49       		.uleb128 0x49
 3096 0202 13       		.uleb128 0x13
 3097 0203 34       		.uleb128 0x34
 3098 0204 19       		.uleb128 0x19
 3099 0205 02       		.uleb128 0x2
 3100 0206 18       		.uleb128 0x18
 3101 0207 00       		.byte	0
 3102 0208 00       		.byte	0
 3103 0209 27       		.uleb128 0x27
 3104 020a 2E       		.uleb128 0x2e
 3105 020b 01       		.byte	0x1
 3106 020c 03       		.uleb128 0x3
 3107 020d 0E       		.uleb128 0xe
 3108 020e 3A       		.uleb128 0x3a
 3109 020f 0B       		.uleb128 0xb
ARM GAS  /tmp/ccsKobfn.s 			page 56


 3110 0210 3B       		.uleb128 0x3b
 3111 0211 0B       		.uleb128 0xb
 3112 0212 27       		.uleb128 0x27
 3113 0213 19       		.uleb128 0x19
 3114 0214 49       		.uleb128 0x49
 3115 0215 13       		.uleb128 0x13
 3116 0216 11       		.uleb128 0x11
 3117 0217 01       		.uleb128 0x1
 3118 0218 12       		.uleb128 0x12
 3119 0219 06       		.uleb128 0x6
 3120 021a 40       		.uleb128 0x40
 3121 021b 18       		.uleb128 0x18
 3122 021c 9642     		.uleb128 0x2116
 3123 021e 19       		.uleb128 0x19
 3124 021f 01       		.uleb128 0x1
 3125 0220 13       		.uleb128 0x13
 3126 0221 00       		.byte	0
 3127 0222 00       		.byte	0
 3128 0223 28       		.uleb128 0x28
 3129 0224 34       		.uleb128 0x34
 3130 0225 00       		.byte	0
 3131 0226 03       		.uleb128 0x3
 3132 0227 0E       		.uleb128 0xe
 3133 0228 3A       		.uleb128 0x3a
 3134 0229 0B       		.uleb128 0xb
 3135 022a 3B       		.uleb128 0x3b
 3136 022b 0B       		.uleb128 0xb
 3137 022c 49       		.uleb128 0x49
 3138 022d 13       		.uleb128 0x13
 3139 022e 02       		.uleb128 0x2
 3140 022f 18       		.uleb128 0x18
 3141 0230 00       		.byte	0
 3142 0231 00       		.byte	0
 3143 0232 29       		.uleb128 0x29
 3144 0233 2E       		.uleb128 0x2e
 3145 0234 01       		.byte	0x1
 3146 0235 03       		.uleb128 0x3
 3147 0236 0E       		.uleb128 0xe
 3148 0237 3A       		.uleb128 0x3a
 3149 0238 0B       		.uleb128 0xb
 3150 0239 3B       		.uleb128 0x3b
 3151 023a 0B       		.uleb128 0xb
 3152 023b 27       		.uleb128 0x27
 3153 023c 19       		.uleb128 0x19
 3154 023d 11       		.uleb128 0x11
 3155 023e 01       		.uleb128 0x1
 3156 023f 12       		.uleb128 0x12
 3157 0240 06       		.uleb128 0x6
 3158 0241 40       		.uleb128 0x40
 3159 0242 18       		.uleb128 0x18
 3160 0243 9642     		.uleb128 0x2116
 3161 0245 19       		.uleb128 0x19
 3162 0246 01       		.uleb128 0x1
 3163 0247 13       		.uleb128 0x13
 3164 0248 00       		.byte	0
 3165 0249 00       		.byte	0
 3166 024a 2A       		.uleb128 0x2a
ARM GAS  /tmp/ccsKobfn.s 			page 57


 3167 024b 05       		.uleb128 0x5
 3168 024c 00       		.byte	0
 3169 024d 03       		.uleb128 0x3
 3170 024e 08       		.uleb128 0x8
 3171 024f 3A       		.uleb128 0x3a
 3172 0250 0B       		.uleb128 0xb
 3173 0251 3B       		.uleb128 0x3b
 3174 0252 0B       		.uleb128 0xb
 3175 0253 49       		.uleb128 0x49
 3176 0254 13       		.uleb128 0x13
 3177 0255 02       		.uleb128 0x2
 3178 0256 18       		.uleb128 0x18
 3179 0257 00       		.byte	0
 3180 0258 00       		.byte	0
 3181 0259 2B       		.uleb128 0x2b
 3182 025a 2E       		.uleb128 0x2e
 3183 025b 00       		.byte	0
 3184 025c 03       		.uleb128 0x3
 3185 025d 0E       		.uleb128 0xe
 3186 025e 3A       		.uleb128 0x3a
 3187 025f 0B       		.uleb128 0xb
 3188 0260 3B       		.uleb128 0x3b
 3189 0261 0B       		.uleb128 0xb
 3190 0262 27       		.uleb128 0x27
 3191 0263 19       		.uleb128 0x19
 3192 0264 11       		.uleb128 0x11
 3193 0265 01       		.uleb128 0x1
 3194 0266 12       		.uleb128 0x12
 3195 0267 06       		.uleb128 0x6
 3196 0268 40       		.uleb128 0x40
 3197 0269 18       		.uleb128 0x18
 3198 026a 9642     		.uleb128 0x2116
 3199 026c 19       		.uleb128 0x19
 3200 026d 00       		.byte	0
 3201 026e 00       		.byte	0
 3202 026f 2C       		.uleb128 0x2c
 3203 0270 34       		.uleb128 0x34
 3204 0271 00       		.byte	0
 3205 0272 03       		.uleb128 0x3
 3206 0273 08       		.uleb128 0x8
 3207 0274 3A       		.uleb128 0x3a
 3208 0275 0B       		.uleb128 0xb
 3209 0276 3B       		.uleb128 0x3b
 3210 0277 0B       		.uleb128 0xb
 3211 0278 49       		.uleb128 0x49
 3212 0279 13       		.uleb128 0x13
 3213 027a 02       		.uleb128 0x2
 3214 027b 18       		.uleb128 0x18
 3215 027c 00       		.byte	0
 3216 027d 00       		.byte	0
 3217 027e 2D       		.uleb128 0x2d
 3218 027f 34       		.uleb128 0x34
 3219 0280 00       		.byte	0
 3220 0281 03       		.uleb128 0x3
 3221 0282 0E       		.uleb128 0xe
 3222 0283 3A       		.uleb128 0x3a
 3223 0284 0B       		.uleb128 0xb
ARM GAS  /tmp/ccsKobfn.s 			page 58


 3224 0285 3B       		.uleb128 0x3b
 3225 0286 05       		.uleb128 0x5
 3226 0287 49       		.uleb128 0x49
 3227 0288 13       		.uleb128 0x13
 3228 0289 3F       		.uleb128 0x3f
 3229 028a 19       		.uleb128 0x19
 3230 028b 3C       		.uleb128 0x3c
 3231 028c 19       		.uleb128 0x19
 3232 028d 00       		.byte	0
 3233 028e 00       		.byte	0
 3234 028f 2E       		.uleb128 0x2e
 3235 0290 34       		.uleb128 0x34
 3236 0291 00       		.byte	0
 3237 0292 03       		.uleb128 0x3
 3238 0293 08       		.uleb128 0x8
 3239 0294 3A       		.uleb128 0x3a
 3240 0295 0B       		.uleb128 0xb
 3241 0296 3B       		.uleb128 0x3b
 3242 0297 05       		.uleb128 0x5
 3243 0298 49       		.uleb128 0x49
 3244 0299 13       		.uleb128 0x13
 3245 029a 3F       		.uleb128 0x3f
 3246 029b 19       		.uleb128 0x19
 3247 029c 3C       		.uleb128 0x3c
 3248 029d 19       		.uleb128 0x19
 3249 029e 00       		.byte	0
 3250 029f 00       		.byte	0
 3251 02a0 2F       		.uleb128 0x2f
 3252 02a1 34       		.uleb128 0x34
 3253 02a2 00       		.byte	0
 3254 02a3 03       		.uleb128 0x3
 3255 02a4 0E       		.uleb128 0xe
 3256 02a5 3A       		.uleb128 0x3a
 3257 02a6 0B       		.uleb128 0xb
 3258 02a7 3B       		.uleb128 0x3b
 3259 02a8 0B       		.uleb128 0xb
 3260 02a9 49       		.uleb128 0x49
 3261 02aa 13       		.uleb128 0x13
 3262 02ab 3F       		.uleb128 0x3f
 3263 02ac 19       		.uleb128 0x19
 3264 02ad 3C       		.uleb128 0x3c
 3265 02ae 19       		.uleb128 0x19
 3266 02af 00       		.byte	0
 3267 02b0 00       		.byte	0
 3268 02b1 30       		.uleb128 0x30
 3269 02b2 21       		.uleb128 0x21
 3270 02b3 00       		.byte	0
 3271 02b4 00       		.byte	0
 3272 02b5 00       		.byte	0
 3273 02b6 31       		.uleb128 0x31
 3274 02b7 34       		.uleb128 0x34
 3275 02b8 00       		.byte	0
 3276 02b9 03       		.uleb128 0x3
 3277 02ba 08       		.uleb128 0x8
 3278 02bb 3A       		.uleb128 0x3a
 3279 02bc 0B       		.uleb128 0xb
 3280 02bd 3B       		.uleb128 0x3b
ARM GAS  /tmp/ccsKobfn.s 			page 59


 3281 02be 0B       		.uleb128 0xb
 3282 02bf 49       		.uleb128 0x49
 3283 02c0 13       		.uleb128 0x13
 3284 02c1 3F       		.uleb128 0x3f
 3285 02c2 19       		.uleb128 0x19
 3286 02c3 3C       		.uleb128 0x3c
 3287 02c4 19       		.uleb128 0x19
 3288 02c5 00       		.byte	0
 3289 02c6 00       		.byte	0
 3290 02c7 32       		.uleb128 0x32
 3291 02c8 34       		.uleb128 0x34
 3292 02c9 00       		.byte	0
 3293 02ca 03       		.uleb128 0x3
 3294 02cb 0E       		.uleb128 0xe
 3295 02cc 3A       		.uleb128 0x3a
 3296 02cd 0B       		.uleb128 0xb
 3297 02ce 3B       		.uleb128 0x3b
 3298 02cf 0B       		.uleb128 0xb
 3299 02d0 49       		.uleb128 0x49
 3300 02d1 13       		.uleb128 0x13
 3301 02d2 3F       		.uleb128 0x3f
 3302 02d3 19       		.uleb128 0x19
 3303 02d4 02       		.uleb128 0x2
 3304 02d5 18       		.uleb128 0x18
 3305 02d6 00       		.byte	0
 3306 02d7 00       		.byte	0
 3307 02d8 00       		.byte	0
 3308              		.section	.debug_aranges,"",%progbits
 3309 0000 8C000000 		.4byte	0x8c
 3310 0004 0200     		.2byte	0x2
 3311 0006 00000000 		.4byte	.Ldebug_info0
 3312 000a 04       		.byte	0x4
 3313 000b 00       		.byte	0
 3314 000c 0000     		.2byte	0
 3315 000e 0000     		.2byte	0
 3316 0010 00000000 		.4byte	.LFB127
 3317 0014 10000000 		.4byte	.LFE127-.LFB127
 3318 0018 00000000 		.4byte	.LFB128
 3319 001c 10000000 		.4byte	.LFE128-.LFB128
 3320 0020 00000000 		.4byte	.LFB136
 3321 0024 0A000000 		.4byte	.LFE136-.LFB136
 3322 0028 00000000 		.4byte	.LFB145
 3323 002c 0C000000 		.4byte	.LFE145-.LFB145
 3324 0030 00000000 		.4byte	.LFB167
 3325 0034 10000000 		.4byte	.LFE167-.LFB167
 3326 0038 00000000 		.4byte	.LFB168
 3327 003c 38000000 		.4byte	.LFE168-.LFB168
 3328 0040 00000000 		.4byte	.LFB175
 3329 0044 0C000000 		.4byte	.LFE175-.LFB175
 3330 0048 00000000 		.4byte	.LFB176
 3331 004c 1C000000 		.4byte	.LFE176-.LFB176
 3332 0050 00000000 		.4byte	.LFB188
 3333 0054 0C000000 		.4byte	.LFE188-.LFB188
 3334 0058 00000000 		.4byte	.LFB189
 3335 005c 0E000000 		.4byte	.LFE189-.LFB189
 3336 0060 00000000 		.4byte	.LFB240
 3337 0064 16000000 		.4byte	.LFE240-.LFB240
ARM GAS  /tmp/ccsKobfn.s 			page 60


 3338 0068 00000000 		.4byte	.LFB241
 3339 006c F4000000 		.4byte	.LFE241-.LFB241
 3340 0070 00000000 		.4byte	.LFB242
 3341 0074 08010000 		.4byte	.LFE242-.LFB242
 3342 0078 00000000 		.4byte	.LFB243
 3343 007c EA010000 		.4byte	.LFE243-.LFB243
 3344 0080 00000000 		.4byte	.LFB244
 3345 0084 BE000000 		.4byte	.LFE244-.LFB244
 3346 0088 00000000 		.4byte	0
 3347 008c 00000000 		.4byte	0
 3348              		.section	.debug_ranges,"",%progbits
 3349              	.Ldebug_ranges0:
 3350 0000 00000000 		.4byte	.LFB127
 3351 0004 10000000 		.4byte	.LFE127
 3352 0008 00000000 		.4byte	.LFB128
 3353 000c 10000000 		.4byte	.LFE128
 3354 0010 00000000 		.4byte	.LFB136
 3355 0014 0A000000 		.4byte	.LFE136
 3356 0018 00000000 		.4byte	.LFB145
 3357 001c 0C000000 		.4byte	.LFE145
 3358 0020 00000000 		.4byte	.LFB167
 3359 0024 10000000 		.4byte	.LFE167
 3360 0028 00000000 		.4byte	.LFB168
 3361 002c 38000000 		.4byte	.LFE168
 3362 0030 00000000 		.4byte	.LFB175
 3363 0034 0C000000 		.4byte	.LFE175
 3364 0038 00000000 		.4byte	.LFB176
 3365 003c 1C000000 		.4byte	.LFE176
 3366 0040 00000000 		.4byte	.LFB188
 3367 0044 0C000000 		.4byte	.LFE188
 3368 0048 00000000 		.4byte	.LFB189
 3369 004c 0E000000 		.4byte	.LFE189
 3370 0050 00000000 		.4byte	.LFB240
 3371 0054 16000000 		.4byte	.LFE240
 3372 0058 00000000 		.4byte	.LFB241
 3373 005c F4000000 		.4byte	.LFE241
 3374 0060 00000000 		.4byte	.LFB242
 3375 0064 08010000 		.4byte	.LFE242
 3376 0068 00000000 		.4byte	.LFB243
 3377 006c EA010000 		.4byte	.LFE243
 3378 0070 00000000 		.4byte	.LFB244
 3379 0074 BE000000 		.4byte	.LFE244
 3380 0078 00000000 		.4byte	0
 3381 007c 00000000 		.4byte	0
 3382              		.section	.debug_line,"",%progbits
 3383              	.Ldebug_line0:
 3384 0000 8C040000 		.section	.debug_str,"MS",%progbits,1
 3384      02008402 
 3384      00000201 
 3384      FB0E0D00 
 3384      01010101 
 3385              	.LASF108:
 3386 0000 74625F70 		.ascii	"tb_ptr\000"
 3386      747200
 3387              	.LASF55:
 3388 0007 72656164 		.ascii	"ready_list_t\000"
 3388      795F6C69 
ARM GAS  /tmp/ccsKobfn.s 			page 61


 3388      73745F74 
 3388      00
 3389              	.LASF93:
 3390 0014 44494552 		.ascii	"DIER\000"
 3390      00
 3391              	.LASF2:
 3392 0019 73697A65 		.ascii	"size_t\000"
 3392      5F7400
 3393              	.LASF123:
 3394 0020 7264796D 		.ascii	"rdymsg\000"
 3394      736700
 3395              	.LASF17:
 3396 0027 75696E74 		.ascii	"uint64_t\000"
 3396      36345F74 
 3396      00
 3397              	.LASF85:
 3398 0030 6B65726E 		.ascii	"kernel_stats\000"
 3398      656C5F73 
 3398      74617473 
 3398      00
 3399              	.LASF3:
 3400 003d 5F5F7569 		.ascii	"__uint8_t\000"
 3400      6E74385F 
 3400      7400
 3401              	.LASF91:
 3402 0047 706F7274 		.ascii	"port_intctx\000"
 3402      5F696E74 
 3402      63747800 
 3403              	.LASF54:
 3404 0053 63685F74 		.ascii	"ch_threads_queue\000"
 3404      68726561 
 3404      64735F71 
 3404      75657565 
 3404      00
 3405              	.LASF74:
 3406 0064 73797374 		.ascii	"system_debug_t\000"
 3406      656D5F64 
 3406      65627567 
 3406      5F7400
 3407              	.LASF144:
 3408 0073 706F7274 		.ascii	"port_lock\000"
 3408      5F6C6F63 
 3408      6B00
 3409              	.LASF114:
 3410 007d 776F7273 		.ascii	"worst\000"
 3410      7400
 3411              	.LASF117:
 3412 0083 74696D65 		.ascii	"time_measurement_t\000"
 3412      5F6D6561 
 3412      73757265 
 3412      6D656E74 
 3412      5F7400
 3413              	.LASF13:
 3414 0096 6C6F6E67 		.ascii	"long long unsigned int\000"
 3414      206C6F6E 
 3414      6720756E 
 3414      7369676E 
ARM GAS  /tmp/ccsKobfn.s 			page 62


 3414      65642069 
 3415              	.LASF110:
 3416 00ad 63685F74 		.ascii	"ch_trace_buffer_t\000"
 3416      72616365 
 3416      5F627566 
 3416      6665725F 
 3416      7400
 3417              	.LASF105:
 3418 00bf 73655F73 		.ascii	"se_state\000"
 3418      74617465 
 3418      00
 3419              	.LASF124:
 3420 00c8 65786974 		.ascii	"exitcode\000"
 3420      636F6465 
 3420      00
 3421              	.LASF84:
 3422 00d1 6D61696E 		.ascii	"mainthread\000"
 3422      74687265 
 3422      616400
 3423              	.LASF71:
 3424 00dc 76697274 		.ascii	"virtual_timers_list_t\000"
 3424      75616C5F 
 3424      74696D65 
 3424      72735F6C 
 3424      6973745F 
 3425              	.LASF161:
 3426 00f2 49544D5F 		.ascii	"ITM_RxBuffer\000"
 3426      52784275 
 3426      66666572 
 3426      00
 3427              	.LASF97:
 3428 00ff 42445452 		.ascii	"BDTR\000"
 3428      00
 3429              	.LASF19:
 3430 0104 72747469 		.ascii	"rttime_t\000"
 3430      6D655F74 
 3430      00
 3431              	.LASF32:
 3432 010d 705F7072 		.ascii	"p_prio\000"
 3432      696F00
 3433              	.LASF94:
 3434 0114 43434D52 		.ascii	"CCMR1\000"
 3434      3100
 3435              	.LASF95:
 3436 011a 43434D52 		.ascii	"CCMR2\000"
 3436      3200
 3437              	.LASF99:
 3438 0120 43434D52 		.ascii	"CCMR3\000"
 3438      3300
 3439              	.LASF1:
 3440 0126 7369676E 		.ascii	"signed char\000"
 3440      65642063 
 3440      68617200 
 3441              	.LASF102:
 3442 0132 73655F74 		.ascii	"se_time\000"
 3442      696D6500 
 3443              	.LASF134:
ARM GAS  /tmp/ccsKobfn.s 			page 63


 3444 013a 6D5F7175 		.ascii	"m_queue\000"
 3444      65756500 
 3445              	.LASF83:
 3446 0142 76746C69 		.ascii	"vtlist\000"
 3446      737400
 3447              	.LASF145:
 3448 0149 706F7274 		.ascii	"port_unlock\000"
 3448      5F756E6C 
 3448      6F636B00 
 3449              	.LASF126:
 3450 0155 77747472 		.ascii	"wttrp\000"
 3450      7000
 3451              	.LASF81:
 3452 015b 63685F73 		.ascii	"ch_system\000"
 3452      79737465 
 3452      6D00
 3453              	.LASF8:
 3454 0165 6C6F6E67 		.ascii	"long int\000"
 3454      20696E74 
 3454      00
 3455              	.LASF21:
 3456 016e 74737461 		.ascii	"tstate_t\000"
 3456      74655F74 
 3456      00
 3457              	.LASF96:
 3458 0177 43434552 		.ascii	"CCER\000"
 3458      00
 3459              	.LASF103:
 3460 017c 73655F74 		.ascii	"se_tp\000"
 3460      7000
 3461              	.LASF11:
 3462 0182 6C6F6E67 		.ascii	"long long int\000"
 3462      206C6F6E 
 3462      6720696E 
 3462      7400
 3463              	.LASF165:
 3464 0190 74657374 		.ascii	"testthd3\000"
 3464      74686433 
 3464      00
 3465              	.LASF168:
 3466 0199 474E5520 		.ascii	"GNU C 4.8.4 20141219 (release) -mcpu=cortex-m4 -mno"
 3466      4320342E 
 3466      382E3420 
 3466      32303134 
 3466      31323139 
 3467 01cc 2D746875 		.ascii	"-thumb-interwork -mthumb -ggdb -O0 -fomit-frame-poi"
 3467      6D622D69 
 3467      6E746572 
 3467      776F726B 
 3467      202D6D74 
 3468 01ff 6E746572 		.ascii	"nter -falign-functions=16 -ffunction-sections -fdat"
 3468      202D6661 
 3468      6C69676E 
 3468      2D66756E 
 3468      6374696F 
 3469 0232 612D7365 		.ascii	"a-sections -fno-common\000"
 3469      6374696F 
ARM GAS  /tmp/ccsKobfn.s 			page 64


 3469      6E73202D 
 3469      666E6F2D 
 3469      636F6D6D 
 3470              	.LASF34:
 3471 0249 705F6E65 		.ascii	"p_newer\000"
 3471      77657200 
 3472              	.LASF131:
 3473 0251 735F7175 		.ascii	"s_queue\000"
 3473      65756500 
 3474              	.LASF6:
 3475 0259 73686F72 		.ascii	"short unsigned int\000"
 3475      7420756E 
 3475      7369676E 
 3475      65642069 
 3475      6E7400
 3476              	.LASF107:
 3477 026c 74625F73 		.ascii	"tb_size\000"
 3477      697A6500 
 3478              	.LASF60:
 3479 0274 725F6E65 		.ascii	"r_newer\000"
 3479      77657200 
 3480              	.LASF47:
 3481 027c 705F6D70 		.ascii	"p_mpool\000"
 3481      6F6F6C00 
 3482              	.LASF88:
 3483 0284 72656761 		.ascii	"regarm_t\000"
 3483      726D5F74 
 3483      00
 3484              	.LASF67:
 3485 028d 76745F70 		.ascii	"vt_prev\000"
 3485      72657600 
 3486              	.LASF154:
 3487 0295 74686431 		.ascii	"thd1_execute\000"
 3487      5F657865 
 3487      63757465 
 3487      00
 3488              	.LASF75:
 3489 02a2 63685F73 		.ascii	"ch_system_debug\000"
 3489      79737465 
 3489      6D5F6465 
 3489      62756700 
 3490              	.LASF138:
 3491 02b2 6D757465 		.ascii	"mutex_t\000"
 3491      785F7400 
 3492              	.LASF171:
 3493 02ba 76616C75 		.ascii	"value\000"
 3493      6500
 3494              	.LASF78:
 3495 02c0 6C6F636B 		.ascii	"lock_cnt\000"
 3495      5F636E74 
 3495      00
 3496              	.LASF86:
 3497 02c9 69646C65 		.ascii	"idle_thread_wa\000"
 3497      5F746872 
 3497      6561645F 
 3497      776100
 3498              	.LASF26:
ARM GAS  /tmp/ccsKobfn.s 			page 65


 3499 02d8 636E745F 		.ascii	"cnt_t\000"
 3499      7400
 3500              	.LASF149:
 3501 02de 63685654 		.ascii	"chVTGetSystemTimeX\000"
 3501      47657453 
 3501      79737465 
 3501      6D54696D 
 3501      655800
 3502              	.LASF37:
 3503 02f1 705F7374 		.ascii	"p_stklimit\000"
 3503      6B6C696D 
 3503      697400
 3504              	.LASF0:
 3505 02fc 756E7369 		.ascii	"unsigned int\000"
 3505      676E6564 
 3505      20696E74 
 3505      00
 3506              	.LASF155:
 3507 0309 74686432 		.ascii	"thd2_execute\000"
 3507      5F657865 
 3507      63757465 
 3507      00
 3508              	.LASF66:
 3509 0316 76745F6E 		.ascii	"vt_next\000"
 3509      65787400 
 3510              	.LASF127:
 3511 031e 77747365 		.ascii	"wtsemp\000"
 3511      6D7000
 3512              	.LASF42:
 3513 0325 705F6D73 		.ascii	"p_msgqueue\000"
 3513      67717565 
 3513      756500
 3514              	.LASF142:
 3515 0330 74656172 		.ascii	"teardown\000"
 3515      646F776E 
 3515      00
 3516              	.LASF118:
 3517 0339 6E5F6972 		.ascii	"n_irq\000"
 3517      7100
 3518              	.LASF132:
 3519 033f 735F636E 		.ascii	"s_cnt\000"
 3519      7400
 3520              	.LASF140:
 3521 0345 6E616D65 		.ascii	"name\000"
 3521      00
 3522              	.LASF92:
 3523 034a 534D4352 		.ascii	"SMCR\000"
 3523      00
 3524              	.LASF122:
 3525 034f 6B65726E 		.ascii	"kernel_stats_t\000"
 3525      656C5F73 
 3525      74617473 
 3525      5F7400
 3526              	.LASF51:
 3527 035e 63685F74 		.ascii	"ch_thread\000"
 3527      68726561 
 3527      6400
ARM GAS  /tmp/ccsKobfn.s 			page 66


 3528              	.LASF24:
 3529 0368 6D73675F 		.ascii	"msg_t\000"
 3529      7400
 3530              	.LASF115:
 3531 036e 6C617374 		.ascii	"last\000"
 3531      00
 3532              	.LASF27:
 3533 0373 75636E74 		.ascii	"ucnt_t\000"
 3533      5F7400
 3534              	.LASF80:
 3535 037a 63685F73 		.ascii	"ch_system_t\000"
 3535      79737465 
 3535      6D5F7400 
 3536              	.LASF101:
 3537 0386 73746D33 		.ascii	"stm32_tim_t\000"
 3537      325F7469 
 3537      6D5F7400 
 3538              	.LASF157:
 3539 0392 73797374 		.ascii	"systime\000"
 3539      696D6500 
 3540              	.LASF121:
 3541 039a 6D5F6372 		.ascii	"m_crit_isr\000"
 3541      69745F69 
 3541      737200
 3542              	.LASF56:
 3543 03a5 63685F72 		.ascii	"ch_ready_list\000"
 3543      65616479 
 3543      5F6C6973 
 3543      7400
 3544              	.LASF25:
 3545 03b3 6576656E 		.ascii	"eventmask_t\000"
 3545      746D6173 
 3545      6B5F7400 
 3546              	.LASF7:
 3547 03bf 5F5F696E 		.ascii	"__int32_t\000"
 3547      7433325F 
 3547      7400
 3548              	.LASF89:
 3549 03c9 73746B61 		.ascii	"stkalign_t\000"
 3549      6C69676E 
 3549      5F7400
 3550              	.LASF112:
 3551 03d4 746D5F63 		.ascii	"tm_calibration_t\000"
 3551      616C6962 
 3551      72617469 
 3551      6F6E5F74 
 3551      00
 3552              	.LASF41:
 3553 03e5 705F7761 		.ascii	"p_waiting\000"
 3553      6974696E 
 3553      6700
 3554              	.LASF87:
 3555 03ef 73697A65 		.ascii	"sizetype\000"
 3555      74797065 
 3555      00
 3556              	.LASF163:
 3557 03f8 74657374 		.ascii	"testthd1\000"
ARM GAS  /tmp/ccsKobfn.s 			page 67


 3557      74686431 
 3557      00
 3558              	.LASF164:
 3559 0401 74657374 		.ascii	"testthd2\000"
 3559      74686432 
 3559      00
 3560              	.LASF72:
 3561 040a 63685F76 		.ascii	"ch_virtual_timers_list\000"
 3561      69727475 
 3561      616C5F74 
 3561      696D6572 
 3561      735F6C69 
 3562              	.LASF166:
 3563 0421 74657374 		.ascii	"testthd4\000"
 3563      74686434 
 3563      00
 3564              	.LASF106:
 3565 042a 63685F73 		.ascii	"ch_swc_event_t\000"
 3565      77635F65 
 3565      76656E74 
 3565      5F7400
 3566              	.LASF73:
 3567 0439 76745F6C 		.ascii	"vt_lasttime\000"
 3567      61737474 
 3567      696D6500 
 3568              	.LASF35:
 3569 0445 705F6F6C 		.ascii	"p_older\000"
 3569      64657200 
 3570              	.LASF59:
 3571 044d 725F6374 		.ascii	"r_ctx\000"
 3571      7800
 3572              	.LASF151:
 3573 0453 63685468 		.ascii	"chThdGetPriorityX\000"
 3573      64476574 
 3573      5072696F 
 3573      72697479 
 3573      5800
 3574              	.LASF141:
 3575 0465 73657475 		.ascii	"setup\000"
 3575      7000
 3576              	.LASF173:
 3577 046b 63685654 		.ascii	"chVTGetSystemTime\000"
 3577      47657453 
 3577      79737465 
 3577      6D54696D 
 3577      6500
 3578              	.LASF160:
 3579 047d 74696D65 		.ascii	"time\000"
 3579      00
 3580              	.LASF158:
 3581 0482 7072696F 		.ascii	"prio\000"
 3581      00
 3582              	.LASF61:
 3583 0487 725F6F6C 		.ascii	"r_older\000"
 3583      64657200 
 3584              	.LASF12:
 3585 048f 5F5F7569 		.ascii	"__uint64_t\000"
ARM GAS  /tmp/ccsKobfn.s 			page 68


 3585      6E743634 
 3585      5F7400
 3586              	.LASF116:
 3587 049a 63756D75 		.ascii	"cumulative\000"
 3587      6C617469 
 3587      766500
 3588              	.LASF22:
 3589 04a5 74726566 		.ascii	"trefs_t\000"
 3589      735F7400 
 3590              	.LASF109:
 3591 04ad 74625F62 		.ascii	"tb_buffer\000"
 3591      75666665 
 3591      7200
 3592              	.LASF156:
 3593 04b7 74686433 		.ascii	"thd3_execute\000"
 3593      5F657865 
 3593      63757465 
 3593      00
 3594              	.LASF64:
 3595 04c4 76697274 		.ascii	"virtual_timer_t\000"
 3595      75616C5F 
 3595      74696D65 
 3595      725F7400 
 3596              	.LASF31:
 3597 04d4 705F7072 		.ascii	"p_prev\000"
 3597      657600
 3598              	.LASF23:
 3599 04db 74707269 		.ascii	"tprio_t\000"
 3599      6F5F7400 
 3600              	.LASF152:
 3601 04e3 74687265 		.ascii	"thread\000"
 3601      616400
 3602              	.LASF119:
 3603 04ea 6E5F6374 		.ascii	"n_ctxswc\000"
 3603      78737763 
 3603      00
 3604              	.LASF15:
 3605 04f3 696E7433 		.ascii	"int32_t\000"
 3605      325F7400 
 3606              	.LASF4:
 3607 04fb 756E7369 		.ascii	"unsigned char\000"
 3607      676E6564 
 3607      20636861 
 3607      7200
 3608              	.LASF143:
 3609 0509 65786563 		.ascii	"execute\000"
 3609      75746500 
 3610              	.LASF45:
 3611 0511 705F6D74 		.ascii	"p_mtxlist\000"
 3611      786C6973 
 3611      7400
 3612              	.LASF5:
 3613 051b 73686F72 		.ascii	"short int\000"
 3613      7420696E 
 3613      7400
 3614              	.LASF38:
 3615 0525 705F7374 		.ascii	"p_state\000"
ARM GAS  /tmp/ccsKobfn.s 			page 69


 3615      61746500 
 3616              	.LASF162:
 3617 052d 74687265 		.ascii	"threads\000"
 3617      61647300 
 3618              	.LASF58:
 3619 0535 725F7072 		.ascii	"r_prio\000"
 3619      696F00
 3620              	.LASF129:
 3621 053c 65776D61 		.ascii	"ewmask\000"
 3621      736B00
 3622              	.LASF30:
 3623 0543 705F6E65 		.ascii	"p_next\000"
 3623      787400
 3624              	.LASF39:
 3625 054a 705F666C 		.ascii	"p_flags\000"
 3625      61677300 
 3626              	.LASF172:
 3627 0552 5F5F6675 		.ascii	"__func__\000"
 3627      6E635F5F 
 3627      00
 3628              	.LASF48:
 3629 055b 705F7374 		.ascii	"p_stats\000"
 3629      61747300 
 3630              	.LASF153:
 3631 0563 63685379 		.ascii	"chSysLock\000"
 3631      734C6F63 
 3631      6B00
 3632              	.LASF65:
 3633 056d 63685F76 		.ascii	"ch_virtual_timer\000"
 3633      69727475 
 3633      616C5F74 
 3633      696D6572 
 3633      00
 3634              	.LASF139:
 3635 057e 74657374 		.ascii	"testcase\000"
 3635      63617365 
 3635      00
 3636              	.LASF130:
 3637 0587 63685F73 		.ascii	"ch_semaphore\000"
 3637      656D6170 
 3637      686F7265 
 3637      00
 3638              	.LASF100:
 3639 0594 43435852 		.ascii	"CCXR\000"
 3639      00
 3640              	.LASF44:
 3641 0599 705F6570 		.ascii	"p_epending\000"
 3641      656E6469 
 3641      6E6700
 3642              	.LASF146:
 3643 05a4 73745F6C 		.ascii	"st_lld_get_counter\000"
 3643      6C645F67 
 3643      65745F63 
 3643      6F756E74 
 3643      657200
 3644              	.LASF16:
 3645 05b7 75696E74 		.ascii	"uint32_t\000"
ARM GAS  /tmp/ccsKobfn.s 			page 70


 3645      33325F74 
 3645      00
 3646              	.LASF128:
 3647 05c0 77746D74 		.ascii	"wtmtxp\000"
 3647      787000
 3648              	.LASF57:
 3649 05c7 725F7175 		.ascii	"r_queue\000"
 3649      65756500 
 3650              	.LASF68:
 3651 05cf 76745F64 		.ascii	"vt_delta\000"
 3651      656C7461 
 3651      00
 3652              	.LASF52:
 3653 05d8 63685F74 		.ascii	"ch_threads_list\000"
 3653      68726561 
 3653      64735F6C 
 3653      69737400 
 3654              	.LASF10:
 3655 05e8 6C6F6E67 		.ascii	"long unsigned int\000"
 3655      20756E73 
 3655      69676E65 
 3655      6420696E 
 3655      7400
 3656              	.LASF62:
 3657 05fa 725F6375 		.ascii	"r_current\000"
 3657      7272656E 
 3657      7400
 3658              	.LASF137:
 3659 0604 63686172 		.ascii	"char\000"
 3659      00
 3660              	.LASF159:
 3661 0609 74686434 		.ascii	"thd4_execute\000"
 3661      5F657865 
 3661      63757465 
 3661      00
 3662              	.LASF98:
 3663 0616 444D4152 		.ascii	"DMAR\000"
 3663      00
 3664              	.LASF167:
 3665 061b 70617474 		.ascii	"patternthd\000"
 3665      65726E74 
 3665      686400
 3666              	.LASF29:
 3667 0626 74687265 		.ascii	"thread_t\000"
 3667      61645F74 
 3667      00
 3668              	.LASF113:
 3669 062f 62657374 		.ascii	"best\000"
 3669      00
 3670              	.LASF136:
 3671 0634 6D5F6E65 		.ascii	"m_next\000"
 3671      787400
 3672              	.LASF28:
 3673 063b 73797374 		.ascii	"systime_t\000"
 3673      696D655F 
 3673      7400
 3674              	.LASF46:
ARM GAS  /tmp/ccsKobfn.s 			page 71


 3675 0645 705F7265 		.ascii	"p_realprio\000"
 3675      616C7072 
 3675      696F00
 3676              	.LASF63:
 3677 0650 76746675 		.ascii	"vtfunc_t\000"
 3677      6E635F74 
 3677      00
 3678              	.LASF9:
 3679 0659 5F5F7569 		.ascii	"__uint32_t\000"
 3679      6E743332 
 3679      5F7400
 3680              	.LASF170:
 3681 0664 5F5F7365 		.ascii	"__set_BASEPRI\000"
 3681      745F4241 
 3681      53455052 
 3681      4900
 3682              	.LASF76:
 3683 0672 70616E69 		.ascii	"panic_msg\000"
 3683      635F6D73 
 3683      6700
 3684              	.LASF111:
 3685 067c 6F666673 		.ascii	"offset\000"
 3685      657400
 3686              	.LASF90:
 3687 0683 636F6E74 		.ascii	"context\000"
 3687      65787400 
 3688              	.LASF147:
 3689 068b 706F7274 		.ascii	"port_timer_get_time\000"
 3689      5F74696D 
 3689      65725F67 
 3689      65745F74 
 3689      696D6500 
 3690              	.LASF18:
 3691 069f 7274636E 		.ascii	"rtcnt_t\000"
 3691      745F7400 
 3692              	.LASF70:
 3693 06a7 76745F70 		.ascii	"vt_par\000"
 3693      617200
 3694              	.LASF53:
 3695 06ae 74687265 		.ascii	"threads_queue_t\000"
 3695      6164735F 
 3695      71756575 
 3695      655F7400 
 3696              	.LASF133:
 3697 06be 63685F6D 		.ascii	"ch_mutex\000"
 3697      75746578 
 3697      00
 3698              	.LASF40:
 3699 06c7 705F7265 		.ascii	"p_refs\000"
 3699      667300
 3700              	.LASF77:
 3701 06ce 6973725F 		.ascii	"isr_cnt\000"
 3701      636E7400 
 3702              	.LASF82:
 3703 06d6 726C6973 		.ascii	"rlist\000"
 3703      7400
 3704              	.LASF150:
ARM GAS  /tmp/ccsKobfn.s 			page 72


 3705 06dc 63685468 		.ascii	"chThdGetSelfX\000"
 3705      64476574 
 3705      53656C66 
 3705      5800
 3706              	.LASF14:
 3707 06ea 75696E74 		.ascii	"uint8_t\000"
 3707      385F7400 
 3708              	.LASF169:
 3709 06f2 2F686F6D 		.ascii	"/home/efe/ChibiOS/test/rt/testthd.c\000"
 3709      652F6566 
 3709      652F4368 
 3709      6962694F 
 3709      532F7465 
 3710              	.LASF49:
 3711 0716 74687265 		.ascii	"thread_reference_t\000"
 3711      61645F72 
 3711      65666572 
 3711      656E6365 
 3711      5F7400
 3712              	.LASF125:
 3713 0729 77746F62 		.ascii	"wtobjp\000"
 3713      6A7000
 3714              	.LASF36:
 3715 0730 705F6E61 		.ascii	"p_name\000"
 3715      6D6500
 3716              	.LASF50:
 3717 0737 74687265 		.ascii	"threads_list_t\000"
 3717      6164735F 
 3717      6C697374 
 3717      5F7400
 3718              	.LASF20:
 3719 0746 746D6F64 		.ascii	"tmode_t\000"
 3719      655F7400 
 3720              	.LASF79:
 3721 074e 74726163 		.ascii	"trace_buffer\000"
 3721      655F6275 
 3721      66666572 
 3721      00
 3722              	.LASF148:
 3723 075b 63685379 		.ascii	"chSysUnlock\000"
 3723      73556E6C 
 3723      6F636B00 
 3724              	.LASF43:
 3725 0767 705F6D73 		.ascii	"p_msg\000"
 3725      6700
 3726              	.LASF120:
 3727 076d 6D5F6372 		.ascii	"m_crit_thd\000"
 3727      69745F74 
 3727      686400
 3728              	.LASF135:
 3729 0778 6D5F6F77 		.ascii	"m_owner\000"
 3729      6E657200 
 3730              	.LASF104:
 3731 0780 73655F77 		.ascii	"se_wtobjp\000"
 3731      746F626A 
 3731      7000
 3732              	.LASF33:
ARM GAS  /tmp/ccsKobfn.s 			page 73


 3733 078a 705F6374 		.ascii	"p_ctx\000"
 3733      7800
 3734              	.LASF69:
 3735 0790 76745F66 		.ascii	"vt_func\000"
 3735      756E6300 
 3736              		.ident	"GCC: (4.8.4-1+11-1) 4.8.4 20141219 (release)"
ARM GAS  /tmp/ccsKobfn.s 			page 74


DEFINED SYMBOLS
                            *ABS*:0000000000000000 testthd.c
     /tmp/ccsKobfn.s:19     .text.port_lock:0000000000000000 $t
     /tmp/ccsKobfn.s:24     .text.port_lock:0000000000000000 port_lock
     /tmp/ccsKobfn.s:55     .text.port_unlock:0000000000000000 $t
     /tmp/ccsKobfn.s:60     .text.port_unlock:0000000000000000 port_unlock
     /tmp/ccsKobfn.s:89     .text.st_lld_get_counter:0000000000000000 $t
     /tmp/ccsKobfn.s:94     .text.st_lld_get_counter:0000000000000000 st_lld_get_counter
     /tmp/ccsKobfn.s:112    .text.port_timer_get_time:0000000000000000 $t
     /tmp/ccsKobfn.s:117    .text.port_timer_get_time:0000000000000000 port_timer_get_time
     /tmp/ccsKobfn.s:138    .text.chSysLock:0000000000000000 $t
     /tmp/ccsKobfn.s:143    .text.chSysLock:0000000000000000 chSysLock
     /tmp/ccsKobfn.s:166    .text.chSysUnlock:0000000000000000 $t
     /tmp/ccsKobfn.s:171    .text.chSysUnlock:0000000000000000 chSysUnlock
     /tmp/ccsKobfn.s:210    .text.chSysUnlock:0000000000000030 $d
     /tmp/ccsKobfn.s:1108   .rodata.__func__.5925:0000000000000000 __func__.5925
     /tmp/ccsKobfn.s:216    .text.chVTGetSystemTimeX:0000000000000000 $t
     /tmp/ccsKobfn.s:221    .text.chVTGetSystemTimeX:0000000000000000 chVTGetSystemTimeX
     /tmp/ccsKobfn.s:242    .text.chVTGetSystemTime:0000000000000000 $t
     /tmp/ccsKobfn.s:247    .text.chVTGetSystemTime:0000000000000000 chVTGetSystemTime
     /tmp/ccsKobfn.s:276    .text.chThdGetSelfX:0000000000000000 $t
     /tmp/ccsKobfn.s:281    .text.chThdGetSelfX:0000000000000000 chThdGetSelfX
     /tmp/ccsKobfn.s:298    .text.chThdGetSelfX:0000000000000008 $d
     /tmp/ccsKobfn.s:303    .text.chThdGetPriorityX:0000000000000000 $t
     /tmp/ccsKobfn.s:308    .text.chThdGetPriorityX:0000000000000000 chThdGetPriorityX
     /tmp/ccsKobfn.s:329    .text.thread:0000000000000000 $t
     /tmp/ccsKobfn.s:334    .text.thread:0000000000000000 thread
     /tmp/ccsKobfn.s:360    .rodata:0000000000000000 $d
     /tmp/ccsKobfn.s:379    .text.thd1_execute:0000000000000000 $t
     /tmp/ccsKobfn.s:384    .text.thd1_execute:0000000000000000 thd1_execute
     /tmp/ccsKobfn.s:495    .text.thd1_execute:00000000000000d0 $d
     /tmp/ccsKobfn.s:516    .rodata.testthd1:0000000000000000 testthd1
     /tmp/ccsKobfn.s:513    .rodata.testthd1:0000000000000000 $d
     /tmp/ccsKobfn.s:522    .text.thd2_execute:0000000000000000 $t
     /tmp/ccsKobfn.s:527    .text.thd2_execute:0000000000000000 thd2_execute
     /tmp/ccsKobfn.s:647    .text.thd2_execute:00000000000000e4 $d
     /tmp/ccsKobfn.s:668    .rodata.testthd2:0000000000000000 testthd2
     /tmp/ccsKobfn.s:665    .rodata.testthd2:0000000000000000 $d
     /tmp/ccsKobfn.s:674    .text.thd3_execute:0000000000000000 $t
     /tmp/ccsKobfn.s:679    .text.thd3_execute:0000000000000000 thd3_execute
     /tmp/ccsKobfn.s:962    .rodata.testthd3:0000000000000000 testthd3
     /tmp/ccsKobfn.s:959    .rodata.testthd3:0000000000000000 $d
     /tmp/ccsKobfn.s:968    .text.thd4_execute:0000000000000000 $t
     /tmp/ccsKobfn.s:973    .text.thd4_execute:0000000000000000 thd4_execute
     /tmp/ccsKobfn.s:1088   .rodata.testthd4:0000000000000000 testthd4
     /tmp/ccsKobfn.s:1085   .rodata.testthd4:0000000000000000 $d
     /tmp/ccsKobfn.s:1098   .rodata.patternthd:0000000000000000 patternthd
     /tmp/ccsKobfn.s:1095   .rodata.patternthd:0000000000000000 $d
     /tmp/ccsKobfn.s:1105   .rodata.__func__.5925:0000000000000000 $d
                     .debug_frame:0000000000000010 $d
     /tmp/ccsKobfn.s:215    .text.chSysUnlock:0000000000000038 $t
     /tmp/ccsKobfn.s:302    .text.chThdGetSelfX:000000000000000c $t
     /tmp/ccsKobfn.s:508    .text.thd1_execute:00000000000000f4 $t
     /tmp/ccsKobfn.s:660    .text.thd2_execute:0000000000000108 $t

UNDEFINED SYMBOLS
_stats_start_measure_crit_thd
ARM GAS  /tmp/ccsKobfn.s 			page 75


_dbg_check_lock
_dbg_check_unlock
_stats_stop_measure_crit_thd
chSysHalt
ch
test_emit_token
chThdCreateStatic
test_wait_threads
_test_assert_sequence
wa
threads
chThdCreateI
chThdStart
chThdSetPriority
_test_assert
test_wait_tick
chThdSleep
_test_assert_time_window
chThdSleepUntil
