ARM GAS  /tmp/cce17jkg.s 			page 1


   1              		.syntax unified
   2              		.cpu cortex-m4
   3              		.fpu softvfp
   4              		.eabi_attribute 20, 1
   5              		.eabi_attribute 21, 1
   6              		.eabi_attribute 23, 3
   7              		.eabi_attribute 24, 1
   8              		.eabi_attribute 25, 1
   9              		.eabi_attribute 26, 1
  10              		.eabi_attribute 30, 6
  11              		.eabi_attribute 34, 1
  12              		.eabi_attribute 18, 4
  13              		.thumb
  14              		.file	"testsys.c"
  15              		.text
  16              	.Ltext0:
  17              		.cfi_sections	.debug_frame
  18              		.section	.text.port_get_irq_status,"ax",%progbits
  19              		.align	2
  20              		.p2align 4,,15
  21              		.thumb
  22              		.thumb_func
  23              		.type	port_get_irq_status, %function
  24              	port_get_irq_status:
  25              	.LFB124:
  26              		.file 1 "/home/efe/ChibiOS/os/rt/ports/ARMCMx/chcore_v7m.h"
  27              		.loc 1 410 0
  28              		.cfi_startproc
  29              		@ args = 0, pretend = 0, frame = 8
  30              		@ frame_needed = 0, uses_anonymous_args = 0
  31              		@ link register save eliminated.
  32 0000 82B0     		sub	sp, sp, #8
  33              		.cfi_def_cfa_offset 8
  34              	.LBB18:
  35              	.LBB19:
  36              		.file 2 "/home/efe/ChibiOS/os/ext/CMSIS/include/core_cmFunc.h"
  37              		.loc 2 535 0
  38              	@ 535 "/home/efe/ChibiOS/os/ext/CMSIS/include/core_cmFunc.h" 1
  39 0002 EFF31183 		MRS r3, basepri
  40              	@ 0 "" 2
  41              		.thumb
  42 0006 0093     		str	r3, [sp]
  43              		.loc 2 536 0
  44 0008 009B     		ldr	r3, [sp]
  45              	.LBE19:
  46              	.LBE18:
  47              		.loc 1 414 0
  48 000a 0193     		str	r3, [sp, #4]
  49              		.loc 1 418 0
  50 000c 019B     		ldr	r3, [sp, #4]
  51              		.loc 1 419 0
  52 000e 1846     		mov	r0, r3
  53 0010 02B0     		add	sp, sp, #8
  54              		@ sp needed
  55 0012 7047     		bx	lr
  56              		.cfi_endproc
  57              	.LFE124:
ARM GAS  /tmp/cce17jkg.s 			page 2


  58              		.size	port_get_irq_status, .-port_get_irq_status
  59 0014 AFF30080 		.section	.text.port_irq_enabled,"ax",%progbits
  59      AFF30080 
  59      AFF30080 
  60              		.align	2
  61              		.p2align 4,,15
  62              		.thumb
  63              		.thumb_func
  64              		.type	port_irq_enabled, %function
  65              	port_irq_enabled:
  66              	.LFB125:
  67              		.loc 1 430 0
  68              		.cfi_startproc
  69              		@ args = 0, pretend = 0, frame = 8
  70              		@ frame_needed = 0, uses_anonymous_args = 0
  71              		@ link register save eliminated.
  72 0000 82B0     		sub	sp, sp, #8
  73              		.cfi_def_cfa_offset 8
  74 0002 0190     		str	r0, [sp, #4]
  75              		.loc 1 433 0
  76 0004 019B     		ldr	r3, [sp, #4]
  77 0006 002B     		cmp	r3, #0
  78 0008 14BF     		ite	ne
  79 000a 0023     		movne	r3, #0
  80 000c 0123     		moveq	r3, #1
  81 000e DBB2     		uxtb	r3, r3
  82              		.loc 1 437 0
  83 0010 1846     		mov	r0, r3
  84 0012 02B0     		add	sp, sp, #8
  85              		@ sp needed
  86 0014 7047     		bx	lr
  87              		.cfi_endproc
  88              	.LFE125:
  89              		.size	port_irq_enabled, .-port_irq_enabled
  90 0016 00BFAFF3 		.section	.text.port_lock,"ax",%progbits
  90      0080AFF3 
  90      0080
  91              		.align	2
  92              		.p2align 4,,15
  93              		.thumb
  94              		.thumb_func
  95              		.type	port_lock, %function
  96              	port_lock:
  97              	.LFB127:
  98              		.loc 1 456 0
  99              		.cfi_startproc
 100              		@ args = 0, pretend = 0, frame = 8
 101              		@ frame_needed = 0, uses_anonymous_args = 0
 102              		@ link register save eliminated.
 103 0000 82B0     		sub	sp, sp, #8
 104              		.cfi_def_cfa_offset 8
 105 0002 2023     		movs	r3, #32
 106 0004 0193     		str	r3, [sp, #4]
 107              	.LBB20:
 108              	.LBB21:
 109              		.loc 2 548 0
 110 0006 019B     		ldr	r3, [sp, #4]
ARM GAS  /tmp/cce17jkg.s 			page 3


 111              	@ 548 "/home/efe/ChibiOS/os/ext/CMSIS/include/core_cmFunc.h" 1
 112 0008 83F31188 		MSR basepri, r3
 113              	@ 0 "" 2
 114              		.thumb
 115              	.LBE21:
 116              	.LBE20:
 117              		.loc 1 463 0
 118 000c 02B0     		add	sp, sp, #8
 119              		@ sp needed
 120 000e 7047     		bx	lr
 121              		.cfi_endproc
 122              	.LFE127:
 123              		.size	port_lock, .-port_lock
 124              		.section	.text.port_unlock,"ax",%progbits
 125              		.align	2
 126              		.p2align 4,,15
 127              		.thumb
 128              		.thumb_func
 129              		.type	port_unlock, %function
 130              	port_unlock:
 131              	.LFB128:
 132              		.loc 1 470 0
 133              		.cfi_startproc
 134              		@ args = 0, pretend = 0, frame = 8
 135              		@ frame_needed = 0, uses_anonymous_args = 0
 136              		@ link register save eliminated.
 137 0000 82B0     		sub	sp, sp, #8
 138              		.cfi_def_cfa_offset 8
 139 0002 0023     		movs	r3, #0
 140 0004 0193     		str	r3, [sp, #4]
 141              	.LBB22:
 142              	.LBB23:
 143              		.loc 2 548 0
 144 0006 019B     		ldr	r3, [sp, #4]
 145              	@ 548 "/home/efe/ChibiOS/os/ext/CMSIS/include/core_cmFunc.h" 1
 146 0008 83F31188 		MSR basepri, r3
 147              	@ 0 "" 2
 148              		.thumb
 149              	.LBE23:
 150              	.LBE22:
 151              		.loc 1 477 0
 152 000c 02B0     		add	sp, sp, #8
 153              		@ sp needed
 154 000e 7047     		bx	lr
 155              		.cfi_endproc
 156              	.LFE128:
 157              		.size	port_unlock, .-port_unlock
 158              		.section	.text.port_lock_from_isr,"ax",%progbits
 159              		.align	2
 160              		.p2align 4,,15
 161              		.thumb
 162              		.thumb_func
 163              		.type	port_lock_from_isr, %function
 164              	port_lock_from_isr:
 165              	.LFB129:
 166              		.loc 1 485 0
 167              		.cfi_startproc
ARM GAS  /tmp/cce17jkg.s 			page 4


 168              		@ args = 0, pretend = 0, frame = 0
 169              		@ frame_needed = 0, uses_anonymous_args = 0
 170 0000 08B5     		push	{r3, lr}
 171              		.cfi_def_cfa_offset 8
 172              		.cfi_offset 3, -8
 173              		.cfi_offset 14, -4
 174              		.loc 1 487 0
 175 0002 FFF7FEFF 		bl	port_lock
 176              		.loc 1 488 0
 177 0006 08BD     		pop	{r3, pc}
 178              		.cfi_endproc
 179              	.LFE129:
 180              		.size	port_lock_from_isr, .-port_lock_from_isr
 181 0008 AFF30080 		.section	.text.port_unlock_from_isr,"ax",%progbits
 181      AFF30080 
 182              		.align	2
 183              		.p2align 4,,15
 184              		.thumb
 185              		.thumb_func
 186              		.type	port_unlock_from_isr, %function
 187              	port_unlock_from_isr:
 188              	.LFB130:
 189              		.loc 1 496 0
 190              		.cfi_startproc
 191              		@ args = 0, pretend = 0, frame = 0
 192              		@ frame_needed = 0, uses_anonymous_args = 0
 193 0000 08B5     		push	{r3, lr}
 194              		.cfi_def_cfa_offset 8
 195              		.cfi_offset 3, -8
 196              		.cfi_offset 14, -4
 197              		.loc 1 498 0
 198 0002 FFF7FEFF 		bl	port_unlock
 199              		.loc 1 499 0
 200 0006 08BD     		pop	{r3, pc}
 201              		.cfi_endproc
 202              	.LFE130:
 203              		.size	port_unlock_from_isr, .-port_unlock_from_isr
 204 0008 AFF30080 		.section	.text.port_disable,"ax",%progbits
 204      AFF30080 
 205              		.align	2
 206              		.p2align 4,,15
 207              		.thumb
 208              		.thumb_func
 209              		.type	port_disable, %function
 210              	port_disable:
 211              	.LFB131:
 212              		.loc 1 506 0
 213              		.cfi_startproc
 214              		@ args = 0, pretend = 0, frame = 0
 215              		@ frame_needed = 0, uses_anonymous_args = 0
 216              		@ link register save eliminated.
 217              	.LBB24:
 218              	.LBB25:
 219              		.loc 2 344 0
 220              	@ 344 "/home/efe/ChibiOS/os/ext/CMSIS/include/core_cmFunc.h" 1
 221 0000 72B6     		cpsid i
 222              	@ 0 "" 2
ARM GAS  /tmp/cce17jkg.s 			page 5


 223              		.thumb
 224              	.LBE25:
 225              	.LBE24:
 226              		.loc 1 509 0
 227 0002 7047     		bx	lr
 228              		.cfi_endproc
 229              	.LFE131:
 230              		.size	port_disable, .-port_disable
 231 0004 AFF30080 		.section	.text.port_suspend,"ax",%progbits
 231      AFF30080 
 231      AFF30080 
 232              		.align	2
 233              		.p2align 4,,15
 234              		.thumb
 235              		.thumb_func
 236              		.type	port_suspend, %function
 237              	port_suspend:
 238              	.LFB132:
 239              		.loc 1 516 0
 240              		.cfi_startproc
 241              		@ args = 0, pretend = 0, frame = 8
 242              		@ frame_needed = 0, uses_anonymous_args = 0
 243              		@ link register save eliminated.
 244 0000 82B0     		sub	sp, sp, #8
 245              		.cfi_def_cfa_offset 8
 246 0002 2023     		movs	r3, #32
 247 0004 0193     		str	r3, [sp, #4]
 248              	.LBB26:
 249              	.LBB27:
 250              		.loc 2 548 0
 251 0006 019B     		ldr	r3, [sp, #4]
 252              	@ 548 "/home/efe/ChibiOS/os/ext/CMSIS/include/core_cmFunc.h" 1
 253 0008 83F31188 		MSR basepri, r3
 254              	@ 0 "" 2
 255              		.thumb
 256              	.LBE27:
 257              	.LBE26:
 258              	.LBB28:
 259              	.LBB29:
 260              		.loc 2 333 0
 261              	@ 333 "/home/efe/ChibiOS/os/ext/CMSIS/include/core_cmFunc.h" 1
 262 000c 62B6     		cpsie i
 263              	@ 0 "" 2
 264              		.thumb
 265              	.LBE29:
 266              	.LBE28:
 267              		.loc 1 524 0
 268 000e 02B0     		add	sp, sp, #8
 269              		@ sp needed
 270 0010 7047     		bx	lr
 271              		.cfi_endproc
 272              	.LFE132:
 273              		.size	port_suspend, .-port_suspend
 274 0012 00BFAFF3 		.section	.text.port_enable,"ax",%progbits
 274      0080AFF3 
 274      0080AFF3 
 274      0080
ARM GAS  /tmp/cce17jkg.s 			page 6


 275              		.align	2
 276              		.p2align 4,,15
 277              		.thumb
 278              		.thumb_func
 279              		.type	port_enable, %function
 280              	port_enable:
 281              	.LFB133:
 282              		.loc 1 530 0
 283              		.cfi_startproc
 284              		@ args = 0, pretend = 0, frame = 8
 285              		@ frame_needed = 0, uses_anonymous_args = 0
 286              		@ link register save eliminated.
 287 0000 82B0     		sub	sp, sp, #8
 288              		.cfi_def_cfa_offset 8
 289 0002 0023     		movs	r3, #0
 290 0004 0193     		str	r3, [sp, #4]
 291              	.LBB30:
 292              	.LBB31:
 293              		.loc 2 548 0
 294 0006 019B     		ldr	r3, [sp, #4]
 295              	@ 548 "/home/efe/ChibiOS/os/ext/CMSIS/include/core_cmFunc.h" 1
 296 0008 83F31188 		MSR basepri, r3
 297              	@ 0 "" 2
 298              		.thumb
 299              	.LBE31:
 300              	.LBE30:
 301              	.LBB32:
 302              	.LBB33:
 303              		.loc 2 333 0
 304              	@ 333 "/home/efe/ChibiOS/os/ext/CMSIS/include/core_cmFunc.h" 1
 305 000c 62B6     		cpsie i
 306              	@ 0 "" 2
 307              		.thumb
 308              	.LBE33:
 309              	.LBE32:
 310              		.loc 1 536 0
 311 000e 02B0     		add	sp, sp, #8
 312              		@ sp needed
 313 0010 7047     		bx	lr
 314              		.cfi_endproc
 315              	.LFE133:
 316              		.size	port_enable, .-port_enable
 317 0012 00BFAFF3 		.section	.text.chSysDisable,"ax",%progbits
 317      0080AFF3 
 317      0080AFF3 
 317      0080
 318              		.align	2
 319              		.p2align 4,,15
 320              		.thumb
 321              		.thumb_func
 322              		.type	chSysDisable, %function
 323              	chSysDisable:
 324              	.LFB164:
 325              		.file 3 "/home/efe/ChibiOS/os/rt/include/chsys.h"
 326              		.loc 3 303 0
 327              		.cfi_startproc
 328              		@ args = 0, pretend = 0, frame = 0
ARM GAS  /tmp/cce17jkg.s 			page 7


 329              		@ frame_needed = 0, uses_anonymous_args = 0
 330 0000 08B5     		push	{r3, lr}
 331              		.cfi_def_cfa_offset 8
 332              		.cfi_offset 3, -8
 333              		.cfi_offset 14, -4
 334              		.loc 3 305 0
 335 0002 FFF7FEFF 		bl	port_disable
 336              		.loc 3 306 0
 337 0006 FFF7FEFF 		bl	_dbg_check_disable
 338              		.loc 3 307 0
 339 000a 08BD     		pop	{r3, pc}
 340              		.cfi_endproc
 341              	.LFE164:
 342              		.size	chSysDisable, .-chSysDisable
 343 000c AFF30080 		.section	.text.chSysSuspend,"ax",%progbits
 344              		.align	2
 345              		.p2align 4,,15
 346              		.thumb
 347              		.thumb_func
 348              		.type	chSysSuspend, %function
 349              	chSysSuspend:
 350              	.LFB165:
 351              		.loc 3 320 0
 352              		.cfi_startproc
 353              		@ args = 0, pretend = 0, frame = 0
 354              		@ frame_needed = 0, uses_anonymous_args = 0
 355 0000 08B5     		push	{r3, lr}
 356              		.cfi_def_cfa_offset 8
 357              		.cfi_offset 3, -8
 358              		.cfi_offset 14, -4
 359              		.loc 3 322 0
 360 0002 FFF7FEFF 		bl	port_suspend
 361              		.loc 3 323 0
 362 0006 FFF7FEFF 		bl	_dbg_check_suspend
 363              		.loc 3 324 0
 364 000a 08BD     		pop	{r3, pc}
 365              		.cfi_endproc
 366              	.LFE165:
 367              		.size	chSysSuspend, .-chSysSuspend
 368              		.section	.text.chSysEnable,"ax",%progbits
 369              		.align	2
 370              		.p2align 4,,15
 371              		.thumb
 372              		.thumb_func
 373              		.type	chSysEnable, %function
 374              	chSysEnable:
 375              	.LFB166:
 376              		.loc 3 335 0
 377              		.cfi_startproc
 378              		@ args = 0, pretend = 0, frame = 0
 379              		@ frame_needed = 0, uses_anonymous_args = 0
 380 0000 08B5     		push	{r3, lr}
 381              		.cfi_def_cfa_offset 8
 382              		.cfi_offset 3, -8
 383              		.cfi_offset 14, -4
 384              		.loc 3 337 0
 385 0002 FFF7FEFF 		bl	_dbg_check_enable
ARM GAS  /tmp/cce17jkg.s 			page 8


 386              		.loc 3 338 0
 387 0006 FFF7FEFF 		bl	port_enable
 388              		.loc 3 339 0
 389 000a 08BD     		pop	{r3, pc}
 390              		.cfi_endproc
 391              	.LFE166:
 392              		.size	chSysEnable, .-chSysEnable
 393              		.section	.text.chSysLock,"ax",%progbits
 394              		.align	2
 395              		.p2align 4,,15
 396              		.thumb
 397              		.thumb_func
 398              		.type	chSysLock, %function
 399              	chSysLock:
 400              	.LFB167:
 401              		.loc 3 346 0
 402              		.cfi_startproc
 403              		@ args = 0, pretend = 0, frame = 0
 404              		@ frame_needed = 0, uses_anonymous_args = 0
 405 0000 08B5     		push	{r3, lr}
 406              		.cfi_def_cfa_offset 8
 407              		.cfi_offset 3, -8
 408              		.cfi_offset 14, -4
 409              		.loc 3 348 0
 410 0002 FFF7FEFF 		bl	port_lock
 411              		.loc 3 349 0
 412 0006 FFF7FEFF 		bl	_stats_start_measure_crit_thd
 413              		.loc 3 350 0
 414 000a FFF7FEFF 		bl	_dbg_check_lock
 415              		.loc 3 351 0
 416 000e 08BD     		pop	{r3, pc}
 417              		.cfi_endproc
 418              	.LFE167:
 419              		.size	chSysLock, .-chSysLock
 420              		.section	.text.chSysUnlock,"ax",%progbits
 421              		.align	2
 422              		.p2align 4,,15
 423              		.thumb
 424              		.thumb_func
 425              		.type	chSysUnlock, %function
 426              	chSysUnlock:
 427              	.LFB168:
 428              		.loc 3 358 0
 429              		.cfi_startproc
 430              		@ args = 0, pretend = 0, frame = 0
 431              		@ frame_needed = 0, uses_anonymous_args = 0
 432 0000 08B5     		push	{r3, lr}
 433              		.cfi_def_cfa_offset 8
 434              		.cfi_offset 3, -8
 435              		.cfi_offset 14, -4
 436              		.loc 3 360 0
 437 0002 FFF7FEFF 		bl	_dbg_check_unlock
 438              		.loc 3 361 0
 439 0006 FFF7FEFF 		bl	_stats_stop_measure_crit_thd
 440              		.loc 3 367 0
 441 000a 094B     		ldr	r3, .L19
 442 000c 1A68     		ldr	r2, [r3]
ARM GAS  /tmp/cce17jkg.s 			page 9


 443 000e 084B     		ldr	r3, .L19
 444 0010 9A42     		cmp	r2, r3
 445 0012 0AD0     		beq	.L18
 446              		.loc 3 367 0 is_stmt 0 discriminator 1
 447 0014 064B     		ldr	r3, .L19
 448 0016 9B69     		ldr	r3, [r3, #24]
 449 0018 9A68     		ldr	r2, [r3, #8]
 450 001a 054B     		ldr	r3, .L19
 451 001c 1B68     		ldr	r3, [r3]
 452 001e 9B68     		ldr	r3, [r3, #8]
 453 0020 9A42     		cmp	r2, r3
 454 0022 02D2     		bcs	.L18
 455 0024 0348     		ldr	r0, .L19+4
 456 0026 FFF7FEFF 		bl	chSysHalt
 457              	.L18:
 458              		.loc 3 371 0 is_stmt 1
 459 002a FFF7FEFF 		bl	port_unlock
 460              		.loc 3 372 0
 461 002e 08BD     		pop	{r3, pc}
 462              	.L20:
 463              		.align	2
 464              	.L19:
 465 0030 00000000 		.word	ch
 466 0034 00000000 		.word	__func__.5925
 467              		.cfi_endproc
 468              	.LFE168:
 469              		.size	chSysUnlock, .-chSysUnlock
 470 0038 AFF30080 		.section	.text.chSysLockFromISR,"ax",%progbits
 470      AFF30080 
 471              		.align	2
 472              		.p2align 4,,15
 473              		.thumb
 474              		.thumb_func
 475              		.type	chSysLockFromISR, %function
 476              	chSysLockFromISR:
 477              	.LFB169:
 478              		.loc 3 386 0
 479              		.cfi_startproc
 480              		@ args = 0, pretend = 0, frame = 0
 481              		@ frame_needed = 0, uses_anonymous_args = 0
 482 0000 08B5     		push	{r3, lr}
 483              		.cfi_def_cfa_offset 8
 484              		.cfi_offset 3, -8
 485              		.cfi_offset 14, -4
 486              		.loc 3 388 0
 487 0002 FFF7FEFF 		bl	port_lock_from_isr
 488              		.loc 3 389 0
 489 0006 FFF7FEFF 		bl	_stats_start_measure_crit_isr
 490              		.loc 3 390 0
 491 000a FFF7FEFF 		bl	_dbg_check_lock_from_isr
 492              		.loc 3 391 0
 493 000e 08BD     		pop	{r3, pc}
 494              		.cfi_endproc
 495              	.LFE169:
 496              		.size	chSysLockFromISR, .-chSysLockFromISR
 497              		.section	.text.chSysUnlockFromISR,"ax",%progbits
 498              		.align	2
ARM GAS  /tmp/cce17jkg.s 			page 10


 499              		.p2align 4,,15
 500              		.thumb
 501              		.thumb_func
 502              		.type	chSysUnlockFromISR, %function
 503              	chSysUnlockFromISR:
 504              	.LFB170:
 505              		.loc 3 406 0
 506              		.cfi_startproc
 507              		@ args = 0, pretend = 0, frame = 0
 508              		@ frame_needed = 0, uses_anonymous_args = 0
 509 0000 08B5     		push	{r3, lr}
 510              		.cfi_def_cfa_offset 8
 511              		.cfi_offset 3, -8
 512              		.cfi_offset 14, -4
 513              		.loc 3 408 0
 514 0002 FFF7FEFF 		bl	_dbg_check_unlock_from_isr
 515              		.loc 3 409 0
 516 0006 FFF7FEFF 		bl	_stats_stop_measure_crit_isr
 517              		.loc 3 410 0
 518 000a FFF7FEFF 		bl	port_unlock_from_isr
 519              		.loc 3 411 0
 520 000e 08BD     		pop	{r3, pc}
 521              		.cfi_endproc
 522              	.LFE170:
 523              		.size	chSysUnlockFromISR, .-chSysUnlockFromISR
 524              		.section	.text.chSysUnconditionalLock,"ax",%progbits
 525              		.align	2
 526              		.p2align 4,,15
 527              		.thumb
 528              		.thumb_func
 529              		.type	chSysUnconditionalLock, %function
 530              	chSysUnconditionalLock:
 531              	.LFB171:
 532              		.loc 3 420 0
 533              		.cfi_startproc
 534              		@ args = 0, pretend = 0, frame = 0
 535              		@ frame_needed = 0, uses_anonymous_args = 0
 536 0000 08B5     		push	{r3, lr}
 537              		.cfi_def_cfa_offset 8
 538              		.cfi_offset 3, -8
 539              		.cfi_offset 14, -4
 540              		.loc 3 422 0
 541 0002 FFF7FEFF 		bl	port_get_irq_status
 542 0006 0346     		mov	r3, r0
 543 0008 1846     		mov	r0, r3
 544 000a FFF7FEFF 		bl	port_irq_enabled
 545 000e 0346     		mov	r3, r0
 546 0010 002B     		cmp	r3, #0
 547 0012 01D0     		beq	.L23
 548              		.loc 3 423 0
 549 0014 FFF7FEFF 		bl	chSysLock
 550              	.L23:
 551              		.loc 3 425 0
 552 0018 08BD     		pop	{r3, pc}
 553              		.cfi_endproc
 554              	.LFE171:
 555              		.size	chSysUnconditionalLock, .-chSysUnconditionalLock
ARM GAS  /tmp/cce17jkg.s 			page 11


 556 001a 00BFAFF3 		.section	.text.chSysUnconditionalUnlock,"ax",%progbits
 556      0080
 557              		.align	2
 558              		.p2align 4,,15
 559              		.thumb
 560              		.thumb_func
 561              		.type	chSysUnconditionalUnlock, %function
 562              	chSysUnconditionalUnlock:
 563              	.LFB172:
 564              		.loc 3 434 0
 565              		.cfi_startproc
 566              		@ args = 0, pretend = 0, frame = 0
 567              		@ frame_needed = 0, uses_anonymous_args = 0
 568 0000 08B5     		push	{r3, lr}
 569              		.cfi_def_cfa_offset 8
 570              		.cfi_offset 3, -8
 571              		.cfi_offset 14, -4
 572              		.loc 3 436 0
 573 0002 FFF7FEFF 		bl	port_get_irq_status
 574 0006 0346     		mov	r3, r0
 575 0008 1846     		mov	r0, r3
 576 000a FFF7FEFF 		bl	port_irq_enabled
 577 000e 0346     		mov	r3, r0
 578 0010 83F00103 		eor	r3, r3, #1
 579 0014 DBB2     		uxtb	r3, r3
 580 0016 002B     		cmp	r3, #0
 581 0018 01D0     		beq	.L25
 582              		.loc 3 437 0
 583 001a FFF7FEFF 		bl	chSysUnlock
 584              	.L25:
 585              		.loc 3 439 0
 586 001e 08BD     		pop	{r3, pc}
 587              		.cfi_endproc
 588              	.LFE172:
 589              		.size	chSysUnconditionalUnlock, .-chSysUnconditionalUnlock
 590              		.section	.text.chVTObjectInit,"ax",%progbits
 591              		.align	2
 592              		.p2align 4,,15
 593              		.thumb
 594              		.thumb_func
 595              		.type	chVTObjectInit, %function
 596              	chVTObjectInit:
 597              	.LFB174:
 598              		.file 4 "/home/efe/ChibiOS/os/rt/include/chvt.h"
 599              		.loc 4 210 0
 600              		.cfi_startproc
 601              		@ args = 0, pretend = 0, frame = 8
 602              		@ frame_needed = 0, uses_anonymous_args = 0
 603              		@ link register save eliminated.
 604 0000 82B0     		sub	sp, sp, #8
 605              		.cfi_def_cfa_offset 8
 606 0002 0190     		str	r0, [sp, #4]
 607              		.loc 4 212 0
 608 0004 019B     		ldr	r3, [sp, #4]
 609 0006 0022     		movs	r2, #0
 610 0008 DA60     		str	r2, [r3, #12]
 611              		.loc 4 213 0
ARM GAS  /tmp/cce17jkg.s 			page 12


 612 000a 02B0     		add	sp, sp, #8
 613              		@ sp needed
 614 000c 7047     		bx	lr
 615              		.cfi_endproc
 616              	.LFE174:
 617              		.size	chVTObjectInit, .-chVTObjectInit
 618 000e 00BF     		.section	.text.chVTIsArmedI,"ax",%progbits
 619              		.align	2
 620              		.p2align 4,,15
 621              		.thumb
 622              		.thumb_func
 623              		.type	chVTIsArmedI, %function
 624              	chVTIsArmedI:
 625              	.LFB181:
 626              		.loc 4 337 0
 627              		.cfi_startproc
 628              		@ args = 0, pretend = 0, frame = 8
 629              		@ frame_needed = 0, uses_anonymous_args = 0
 630 0000 00B5     		push	{lr}
 631              		.cfi_def_cfa_offset 4
 632              		.cfi_offset 14, -4
 633 0002 83B0     		sub	sp, sp, #12
 634              		.cfi_def_cfa_offset 16
 635 0004 0190     		str	r0, [sp, #4]
 636              		.loc 4 339 0
 637 0006 FFF7FEFF 		bl	chDbgCheckClassI
 638              		.loc 4 341 0
 639 000a 019B     		ldr	r3, [sp, #4]
 640 000c DB68     		ldr	r3, [r3, #12]
 641 000e 002B     		cmp	r3, #0
 642 0010 0CBF     		ite	eq
 643 0012 0023     		moveq	r3, #0
 644 0014 0123     		movne	r3, #1
 645 0016 DBB2     		uxtb	r3, r3
 646              		.loc 4 342 0
 647 0018 1846     		mov	r0, r3
 648 001a 03B0     		add	sp, sp, #12
 649              		@ sp needed
 650 001c 5DF804FB 		ldr	pc, [sp], #4
 651              		.cfi_endproc
 652              	.LFE181:
 653              		.size	chVTIsArmedI, .-chVTIsArmedI
 654              		.section	.text.chVTIsArmed,"ax",%progbits
 655              		.align	2
 656              		.p2align 4,,15
 657              		.thumb
 658              		.thumb_func
 659              		.type	chVTIsArmed, %function
 660              	chVTIsArmed:
 661              	.LFB182:
 662              		.loc 4 354 0
 663              		.cfi_startproc
 664              		@ args = 0, pretend = 0, frame = 16
 665              		@ frame_needed = 0, uses_anonymous_args = 0
 666 0000 00B5     		push	{lr}
 667              		.cfi_def_cfa_offset 4
 668              		.cfi_offset 14, -4
ARM GAS  /tmp/cce17jkg.s 			page 13


 669 0002 85B0     		sub	sp, sp, #20
 670              		.cfi_def_cfa_offset 24
 671 0004 0190     		str	r0, [sp, #4]
 672              		.loc 4 357 0
 673 0006 FFF7FEFF 		bl	chSysLock
 674              		.loc 4 358 0
 675 000a 0198     		ldr	r0, [sp, #4]
 676 000c FFF7FEFF 		bl	chVTIsArmedI
 677 0010 0346     		mov	r3, r0
 678 0012 8DF80F30 		strb	r3, [sp, #15]
 679              		.loc 4 359 0
 680 0016 FFF7FEFF 		bl	chSysUnlock
 681              		.loc 4 361 0
 682 001a 9DF80F30 		ldrb	r3, [sp, #15]	@ zero_extendqisi2
 683              		.loc 4 362 0
 684 001e 1846     		mov	r0, r3
 685 0020 05B0     		add	sp, sp, #20
 686              		@ sp needed
 687 0022 5DF804FB 		ldr	pc, [sp], #4
 688              		.cfi_endproc
 689              	.LFE182:
 690              		.size	chVTIsArmed, .-chVTIsArmed
 691 0026 00BFAFF3 		.section	.text.chVTResetI,"ax",%progbits
 691      0080AFF3 
 691      0080
 692              		.align	2
 693              		.p2align 4,,15
 694              		.thumb
 695              		.thumb_func
 696              		.type	chVTResetI, %function
 697              	chVTResetI:
 698              	.LFB183:
 699              		.loc 4 374 0
 700              		.cfi_startproc
 701              		@ args = 0, pretend = 0, frame = 8
 702              		@ frame_needed = 0, uses_anonymous_args = 0
 703 0000 00B5     		push	{lr}
 704              		.cfi_def_cfa_offset 4
 705              		.cfi_offset 14, -4
 706 0002 83B0     		sub	sp, sp, #12
 707              		.cfi_def_cfa_offset 16
 708 0004 0190     		str	r0, [sp, #4]
 709              		.loc 4 376 0
 710 0006 0198     		ldr	r0, [sp, #4]
 711 0008 FFF7FEFF 		bl	chVTIsArmedI
 712 000c 0346     		mov	r3, r0
 713 000e 002B     		cmp	r3, #0
 714 0010 02D0     		beq	.L32
 715              		.loc 4 377 0
 716 0012 0198     		ldr	r0, [sp, #4]
 717 0014 FFF7FEFF 		bl	chVTDoResetI
 718              	.L32:
 719              		.loc 4 379 0
 720 0018 03B0     		add	sp, sp, #12
 721              		@ sp needed
 722 001a 5DF804FB 		ldr	pc, [sp], #4
 723              		.cfi_endproc
ARM GAS  /tmp/cce17jkg.s 			page 14


 724              	.LFE183:
 725              		.size	chVTResetI, .-chVTResetI
 726 001e 00BF     		.section	.text.chVTSetI,"ax",%progbits
 727              		.align	2
 728              		.p2align 4,,15
 729              		.thumb
 730              		.thumb_func
 731              		.type	chVTSetI, %function
 732              	chVTSetI:
 733              	.LFB185:
 734              		.loc 4 421 0
 735              		.cfi_startproc
 736              		@ args = 0, pretend = 0, frame = 16
 737              		@ frame_needed = 0, uses_anonymous_args = 0
 738 0000 00B5     		push	{lr}
 739              		.cfi_def_cfa_offset 4
 740              		.cfi_offset 14, -4
 741 0002 85B0     		sub	sp, sp, #20
 742              		.cfi_def_cfa_offset 24
 743 0004 0390     		str	r0, [sp, #12]
 744 0006 0291     		str	r1, [sp, #8]
 745 0008 0192     		str	r2, [sp, #4]
 746 000a 0093     		str	r3, [sp]
 747              		.loc 4 423 0
 748 000c 0398     		ldr	r0, [sp, #12]
 749 000e FFF7FEFF 		bl	chVTResetI
 750              		.loc 4 424 0
 751 0012 0398     		ldr	r0, [sp, #12]
 752 0014 0299     		ldr	r1, [sp, #8]
 753 0016 019A     		ldr	r2, [sp, #4]
 754 0018 009B     		ldr	r3, [sp]
 755 001a FFF7FEFF 		bl	chVTDoSetI
 756              		.loc 4 425 0
 757 001e 05B0     		add	sp, sp, #20
 758              		@ sp needed
 759 0020 5DF804FB 		ldr	pc, [sp], #4
 760              		.cfi_endproc
 761              	.LFE185:
 762              		.size	chVTSetI, .-chVTSetI
 763 0024 AFF30080 		.section	.text.chVTSet,"ax",%progbits
 763      AFF30080 
 763      AFF30080 
 764              		.align	2
 765              		.p2align 4,,15
 766              		.thumb
 767              		.thumb_func
 768              		.type	chVTSet, %function
 769              	chVTSet:
 770              	.LFB186:
 771              		.loc 4 450 0
 772              		.cfi_startproc
 773              		@ args = 0, pretend = 0, frame = 16
 774              		@ frame_needed = 0, uses_anonymous_args = 0
 775 0000 00B5     		push	{lr}
 776              		.cfi_def_cfa_offset 4
 777              		.cfi_offset 14, -4
 778 0002 85B0     		sub	sp, sp, #20
ARM GAS  /tmp/cce17jkg.s 			page 15


 779              		.cfi_def_cfa_offset 24
 780 0004 0390     		str	r0, [sp, #12]
 781 0006 0291     		str	r1, [sp, #8]
 782 0008 0192     		str	r2, [sp, #4]
 783 000a 0093     		str	r3, [sp]
 784              		.loc 4 452 0
 785 000c FFF7FEFF 		bl	chSysLock
 786              		.loc 4 453 0
 787 0010 0398     		ldr	r0, [sp, #12]
 788 0012 0299     		ldr	r1, [sp, #8]
 789 0014 019A     		ldr	r2, [sp, #4]
 790 0016 009B     		ldr	r3, [sp]
 791 0018 FFF7FEFF 		bl	chVTSetI
 792              		.loc 4 454 0
 793 001c FFF7FEFF 		bl	chSysUnlock
 794              		.loc 4 455 0
 795 0020 05B0     		add	sp, sp, #20
 796              		@ sp needed
 797 0022 5DF804FB 		ldr	pc, [sp], #4
 798              		.cfi_endproc
 799              	.LFE186:
 800              		.size	chVTSet, .-chVTSet
 801 0026 00BFAFF3 		.section	.text.vtcb,"ax",%progbits
 801      0080AFF3 
 801      0080
 802              		.align	2
 803              		.p2align 4,,15
 804              		.thumb
 805              		.thumb_func
 806              		.type	vtcb, %function
 807              	vtcb:
 808              	.LFB240:
 809              		.file 5 "/home/efe/ChibiOS/test/rt/testsys.c"
 810              		.loc 5 52 0
 811              		.cfi_startproc
 812              		@ args = 0, pretend = 0, frame = 16
 813              		@ frame_needed = 0, uses_anonymous_args = 0
 814 0000 00B5     		push	{lr}
 815              		.cfi_def_cfa_offset 4
 816              		.cfi_offset 14, -4
 817 0002 85B0     		sub	sp, sp, #20
 818              		.cfi_def_cfa_offset 24
 819 0004 0190     		str	r0, [sp, #4]
 820              		.loc 5 58 0
 821 0006 FFF7FEFF 		bl	chSysLockFromISR
 822              		.loc 5 59 0
 823 000a FFF7FEFF 		bl	chSysUnlockFromISR
 824              		.loc 5 62 0
 825 000e FFF7FEFF 		bl	chSysLockFromISR
 826              		.loc 5 63 0
 827 0012 FFF7FEFF 		bl	chSysGetStatusAndLockX
 828 0016 0390     		str	r0, [sp, #12]
 829              		.loc 5 64 0
 830 0018 0398     		ldr	r0, [sp, #12]
 831 001a FFF7FEFF 		bl	chSysRestoreStatusX
 832              		.loc 5 65 0
 833 001e FFF7FEFF 		bl	chSysUnlockFromISR
ARM GAS  /tmp/cce17jkg.s 			page 16


 834              		.loc 5 66 0
 835 0022 05B0     		add	sp, sp, #20
 836              		@ sp needed
 837 0024 5DF804FB 		ldr	pc, [sp], #4
 838              		.cfi_endproc
 839              	.LFE240:
 840              		.size	vtcb, .-vtcb
 841 0028 AFF30080 		.section	.text.sys1_execute,"ax",%progbits
 841      AFF30080 
 842              		.align	2
 843              		.p2align 4,,15
 844              		.thumb
 845              		.thumb_func
 846              		.type	sys1_execute, %function
 847              	sys1_execute:
 848              	.LFB241:
 849              		.loc 5 68 0
 850              		.cfi_startproc
 851              		@ args = 0, pretend = 0, frame = 24
 852              		@ frame_needed = 0, uses_anonymous_args = 0
 853 0000 00B5     		push	{lr}
 854              		.cfi_def_cfa_offset 4
 855              		.cfi_offset 14, -4
 856 0002 87B0     		sub	sp, sp, #28
 857              		.cfi_def_cfa_offset 32
 858              		.loc 5 73 0
 859 0004 FFF7FEFF 		bl	chSysGetStatusAndLockX
 860 0008 0590     		str	r0, [sp, #20]
 861              		.loc 5 74 0
 862 000a 0598     		ldr	r0, [sp, #20]
 863 000c FFF7FEFF 		bl	chSysRestoreStatusX
 864              		.loc 5 77 0
 865 0010 FFF7FEFF 		bl	chSysLock
 866              		.loc 5 78 0
 867 0014 FFF7FEFF 		bl	chSysGetStatusAndLockX
 868 0018 0590     		str	r0, [sp, #20]
 869              		.loc 5 79 0
 870 001a 0598     		ldr	r0, [sp, #20]
 871 001c FFF7FEFF 		bl	chSysRestoreStatusX
 872              		.loc 5 80 0
 873 0020 FFF7FEFF 		bl	chSysUnlock
 874              		.loc 5 83 0
 875 0024 FFF7FEFF 		bl	chSysUnconditionalLock
 876              		.loc 5 84 0
 877 0028 FFF7FEFF 		bl	chSysUnconditionalLock
 878              		.loc 5 85 0
 879 002c FFF7FEFF 		bl	chSysUnlock
 880              		.loc 5 88 0
 881 0030 FFF7FEFF 		bl	chSysLock
 882              		.loc 5 89 0
 883 0034 FFF7FEFF 		bl	chSysUnconditionalUnlock
 884              		.loc 5 90 0
 885 0038 FFF7FEFF 		bl	chSysUnconditionalUnlock
 886              		.loc 5 93 0
 887 003c 6B46     		mov	r3, sp
 888 003e 1846     		mov	r0, r3
 889 0040 FFF7FEFF 		bl	chVTObjectInit
ARM GAS  /tmp/cce17jkg.s 			page 17


 890              		.loc 5 94 0
 891 0044 6B46     		mov	r3, sp
 892 0046 1846     		mov	r0, r3
 893 0048 0121     		movs	r1, #1
 894 004a 104A     		ldr	r2, .L40
 895 004c 0023     		movs	r3, #0
 896 004e FFF7FEFF 		bl	chVTSet
 897              		.loc 5 95 0
 898 0052 0A20     		movs	r0, #10
 899 0054 FFF7FEFF 		bl	chThdSleep
 900              		.loc 5 97 0
 901 0058 6B46     		mov	r3, sp
 902 005a 1846     		mov	r0, r3
 903 005c FFF7FEFF 		bl	chVTIsArmed
 904 0060 0346     		mov	r3, r0
 905 0062 002B     		cmp	r3, #0
 906 0064 0CBF     		ite	eq
 907 0066 0023     		moveq	r3, #0
 908 0068 0123     		movne	r3, #1
 909 006a DBB2     		uxtb	r3, r3
 910 006c 83F00103 		eor	r3, r3, #1
 911 0070 DBB2     		uxtb	r3, r3
 912 0072 03F00103 		and	r3, r3, #1
 913 0076 DBB2     		uxtb	r3, r3
 914 0078 0120     		movs	r0, #1
 915 007a 1946     		mov	r1, r3
 916 007c FFF7FEFF 		bl	_test_assert
 917 0080 0346     		mov	r3, r0
 918 0082 002B     		cmp	r3, #0
 919              		.loc 5 98 0
 920 0084 07B0     		add	sp, sp, #28
 921              		@ sp needed
 922 0086 5DF804FB 		ldr	pc, [sp], #4
 923              	.L41:
 924 008a 00BF     		.align	2
 925              	.L40:
 926 008c 00000000 		.word	vtcb
 927              		.cfi_endproc
 928              	.LFE241:
 929              		.size	sys1_execute, .-sys1_execute
 930              		.global	testsys1
 931              		.section	.rodata
 932              		.align	2
 933              	.LC0:
 934 0000 53797374 		.ascii	"System, critical zones\000"
 934      656D2C20 
 934      63726974 
 934      6963616C 
 934      207A6F6E 
 935              		.section	.rodata.testsys1,"a",%progbits
 936              		.align	2
 937              		.type	testsys1, %object
 938              		.size	testsys1, 16
 939              	testsys1:
 940 0000 00000000 		.word	.LC0
 941 0004 00000000 		.word	0
 942 0008 00000000 		.word	0
ARM GAS  /tmp/cce17jkg.s 			page 18


 943 000c 00000000 		.word	sys1_execute
 944              		.section	.text.sys2_execute,"ax",%progbits
 945              		.align	2
 946              		.p2align 4,,15
 947              		.thumb
 948              		.thumb_func
 949              		.type	sys2_execute, %function
 950              	sys2_execute:
 951              	.LFB242:
 952              		.loc 5 114 0
 953              		.cfi_startproc
 954              		@ args = 0, pretend = 0, frame = 0
 955              		@ frame_needed = 0, uses_anonymous_args = 0
 956 0000 08B5     		push	{r3, lr}
 957              		.cfi_def_cfa_offset 8
 958              		.cfi_offset 3, -8
 959              		.cfi_offset 14, -4
 960              		.loc 5 116 0
 961 0002 FFF7FEFF 		bl	chSysSuspend
 962              		.loc 5 117 0
 963 0006 FFF7FEFF 		bl	chSysDisable
 964              		.loc 5 118 0
 965 000a FFF7FEFF 		bl	chSysSuspend
 966              		.loc 5 119 0
 967 000e FFF7FEFF 		bl	chSysEnable
 968              		.loc 5 120 0
 969 0012 08BD     		pop	{r3, pc}
 970              		.cfi_endproc
 971              	.LFE242:
 972              		.size	sys2_execute, .-sys2_execute
 973              		.global	testsys2
 974 0014 AFF30080 		.section	.rodata
 974      AFF30080 
 974      AFF30080 
 975 0017 00       		.align	2
 976              	.LC1:
 977 0018 53797374 		.ascii	"System, interrupts handling\000"
 977      656D2C20 
 977      696E7465 
 977      72727570 
 977      74732068 
 978              		.section	.rodata.testsys2,"a",%progbits
 979              		.align	2
 980              		.type	testsys2, %object
 981              		.size	testsys2, 16
 982              	testsys2:
 983 0000 18000000 		.word	.LC1
 984 0004 00000000 		.word	0
 985 0008 00000000 		.word	0
 986 000c 00000000 		.word	sys2_execute
 987              		.section	.text.sys3_execute,"ax",%progbits
 988              		.align	2
 989              		.p2align 4,,15
 990              		.thumb
 991              		.thumb_func
 992              		.type	sys3_execute, %function
 993              	sys3_execute:
ARM GAS  /tmp/cce17jkg.s 			page 19


 994              	.LFB243:
 995              		.loc 5 137 0
 996              		.cfi_startproc
 997              		@ args = 0, pretend = 0, frame = 8
 998              		@ frame_needed = 0, uses_anonymous_args = 0
 999 0000 00B5     		push	{lr}
 1000              		.cfi_def_cfa_offset 4
 1001              		.cfi_offset 14, -4
 1002 0002 83B0     		sub	sp, sp, #12
 1003              		.cfi_def_cfa_offset 16
 1004              		.loc 5 140 0
 1005 0004 FFF7FEFF 		bl	chSysLock
 1006              		.loc 5 141 0
 1007 0008 0120     		movs	r0, #1
 1008 000a FFF7FEFF 		bl	chSysIntegrityCheckI
 1009 000e 0346     		mov	r3, r0
 1010 0010 8DF80730 		strb	r3, [sp, #7]
 1011              		.loc 5 142 0
 1012 0014 FFF7FEFF 		bl	chSysUnlock
 1013              		.loc 5 143 0
 1014 0018 9DF80730 		ldrb	r3, [sp, #7]	@ zero_extendqisi2
 1015 001c 002B     		cmp	r3, #0
 1016 001e 0CBF     		ite	eq
 1017 0020 0023     		moveq	r3, #0
 1018 0022 0123     		movne	r3, #1
 1019 0024 DBB2     		uxtb	r3, r3
 1020 0026 83F00103 		eor	r3, r3, #1
 1021 002a DBB2     		uxtb	r3, r3
 1022 002c 03F00103 		and	r3, r3, #1
 1023 0030 DBB2     		uxtb	r3, r3
 1024 0032 0120     		movs	r0, #1
 1025 0034 1946     		mov	r1, r3
 1026 0036 FFF7FEFF 		bl	_test_assert
 1027 003a 0346     		mov	r3, r0
 1028 003c 002B     		cmp	r3, #0
 1029 003e 00D0     		beq	.L44
 1030              		.loc 5 143 0 is_stmt 0 discriminator 1
 1031 0040 5CE0     		b	.L43
 1032              	.L44:
 1033              		.loc 5 145 0 is_stmt 1
 1034 0042 FFF7FEFF 		bl	chSysLock
 1035              		.loc 5 146 0
 1036 0046 0220     		movs	r0, #2
 1037 0048 FFF7FEFF 		bl	chSysIntegrityCheckI
 1038 004c 0346     		mov	r3, r0
 1039 004e 8DF80730 		strb	r3, [sp, #7]
 1040              		.loc 5 147 0
 1041 0052 FFF7FEFF 		bl	chSysUnlock
 1042              		.loc 5 148 0
 1043 0056 9DF80730 		ldrb	r3, [sp, #7]	@ zero_extendqisi2
 1044 005a 002B     		cmp	r3, #0
 1045 005c 0CBF     		ite	eq
 1046 005e 0023     		moveq	r3, #0
 1047 0060 0123     		movne	r3, #1
 1048 0062 DBB2     		uxtb	r3, r3
 1049 0064 83F00103 		eor	r3, r3, #1
 1050 0068 DBB2     		uxtb	r3, r3
ARM GAS  /tmp/cce17jkg.s 			page 20


 1051 006a 03F00103 		and	r3, r3, #1
 1052 006e DBB2     		uxtb	r3, r3
 1053 0070 0220     		movs	r0, #2
 1054 0072 1946     		mov	r1, r3
 1055 0074 FFF7FEFF 		bl	_test_assert
 1056 0078 0346     		mov	r3, r0
 1057 007a 002B     		cmp	r3, #0
 1058 007c 00D0     		beq	.L46
 1059              		.loc 5 148 0 is_stmt 0 discriminator 1
 1060 007e 3DE0     		b	.L43
 1061              	.L46:
 1062              		.loc 5 150 0 is_stmt 1
 1063 0080 FFF7FEFF 		bl	chSysLock
 1064              		.loc 5 151 0
 1065 0084 0420     		movs	r0, #4
 1066 0086 FFF7FEFF 		bl	chSysIntegrityCheckI
 1067 008a 0346     		mov	r3, r0
 1068 008c 8DF80730 		strb	r3, [sp, #7]
 1069              		.loc 5 152 0
 1070 0090 FFF7FEFF 		bl	chSysUnlock
 1071              		.loc 5 153 0
 1072 0094 9DF80730 		ldrb	r3, [sp, #7]	@ zero_extendqisi2
 1073 0098 002B     		cmp	r3, #0
 1074 009a 0CBF     		ite	eq
 1075 009c 0023     		moveq	r3, #0
 1076 009e 0123     		movne	r3, #1
 1077 00a0 DBB2     		uxtb	r3, r3
 1078 00a2 83F00103 		eor	r3, r3, #1
 1079 00a6 DBB2     		uxtb	r3, r3
 1080 00a8 03F00103 		and	r3, r3, #1
 1081 00ac DBB2     		uxtb	r3, r3
 1082 00ae 0320     		movs	r0, #3
 1083 00b0 1946     		mov	r1, r3
 1084 00b2 FFF7FEFF 		bl	_test_assert
 1085 00b6 0346     		mov	r3, r0
 1086 00b8 002B     		cmp	r3, #0
 1087 00ba 00D0     		beq	.L47
 1088              		.loc 5 153 0 is_stmt 0 discriminator 1
 1089 00bc 1EE0     		b	.L43
 1090              	.L47:
 1091              		.loc 5 155 0 is_stmt 1
 1092 00be FFF7FEFF 		bl	chSysLock
 1093              		.loc 5 156 0
 1094 00c2 0820     		movs	r0, #8
 1095 00c4 FFF7FEFF 		bl	chSysIntegrityCheckI
 1096 00c8 0346     		mov	r3, r0
 1097 00ca 8DF80730 		strb	r3, [sp, #7]
 1098              		.loc 5 157 0
 1099 00ce FFF7FEFF 		bl	chSysUnlock
 1100              		.loc 5 158 0
 1101 00d2 9DF80730 		ldrb	r3, [sp, #7]	@ zero_extendqisi2
 1102 00d6 002B     		cmp	r3, #0
 1103 00d8 0CBF     		ite	eq
 1104 00da 0023     		moveq	r3, #0
 1105 00dc 0123     		movne	r3, #1
 1106 00de DBB2     		uxtb	r3, r3
 1107 00e0 83F00103 		eor	r3, r3, #1
ARM GAS  /tmp/cce17jkg.s 			page 21


 1108 00e4 DBB2     		uxtb	r3, r3
 1109 00e6 03F00103 		and	r3, r3, #1
 1110 00ea DBB2     		uxtb	r3, r3
 1111 00ec 0420     		movs	r0, #4
 1112 00ee 1946     		mov	r1, r3
 1113 00f0 FFF7FEFF 		bl	_test_assert
 1114 00f4 0346     		mov	r3, r0
 1115 00f6 002B     		cmp	r3, #0
 1116 00f8 00D0     		beq	.L43
 1117              		.loc 5 158 0 is_stmt 0 discriminator 1
 1118 00fa 00BF     		nop
 1119              	.L43:
 1120              		.loc 5 159 0 is_stmt 1
 1121 00fc 03B0     		add	sp, sp, #12
 1122              		@ sp needed
 1123 00fe 5DF804FB 		ldr	pc, [sp], #4
 1124              		.cfi_endproc
 1125              	.LFE243:
 1126              		.size	sys3_execute, .-sys3_execute
 1127              		.global	testsys3
 1128 0102 00BFAFF3 		.section	.rodata
 1128      0080AFF3 
 1128      0080AFF3 
 1128      0080
 1129              		.align	2
 1130              	.LC2:
 1131 0034 53797374 		.ascii	"System, integrity\000"
 1131      656D2C20 
 1131      696E7465 
 1131      67726974 
 1131      7900
 1132 0046 0000     		.section	.rodata.testsys3,"a",%progbits
 1133              		.align	2
 1134              		.type	testsys3, %object
 1135              		.size	testsys3, 16
 1136              	testsys3:
 1137 0000 34000000 		.word	.LC2
 1138 0004 00000000 		.word	0
 1139 0008 00000000 		.word	0
 1140 000c 00000000 		.word	sys3_execute
 1141              		.global	patternsys
 1142              		.section	.rodata.patternsys,"a",%progbits
 1143              		.align	2
 1144              		.type	patternsys, %object
 1145              		.size	patternsys, 16
 1146              	patternsys:
 1147 0000 00000000 		.word	testsys1
 1148 0004 00000000 		.word	testsys2
 1149 0008 00000000 		.word	testsys3
 1150 000c 00000000 		.word	0
 1151              		.section	.rodata.__func__.5925,"a",%progbits
 1152              		.align	2
 1153              		.type	__func__.5925, %object
 1154              		.size	__func__.5925, 12
 1155              	__func__.5925:
 1156 0000 63685379 		.ascii	"chSysUnlock\000"
 1156      73556E6C 
ARM GAS  /tmp/cce17jkg.s 			page 22


 1156      6F636B00 
 1157              		.text
 1158              	.Letext0:
 1159              		.file 6 "/usr/lib/gcc/arm-none-eabi/4.8/include/stddef.h"
 1160              		.file 7 "/usr/include/newlib/machine/_default_types.h"
 1161              		.file 8 "/usr/include/newlib/stdint.h"
 1162              		.file 9 "/home/efe/ChibiOS/os/rt/ports/ARMCMx/compilers/GCC/chtypes.h"
 1163              		.file 10 "/home/efe/ChibiOS/os/rt/include/chsystypes.h"
 1164              		.file 11 "/home/efe/ChibiOS/os/rt/include/chschd.h"
 1165              		.file 12 "/home/efe/ChibiOS/os/rt/ports/ARMCMx/chcore.h"
 1166              		.file 13 "/home/efe/ChibiOS/os/rt/include/chdebug.h"
 1167              		.file 14 "/home/efe/ChibiOS/os/rt/include/chtm.h"
 1168              		.file 15 "/home/efe/ChibiOS/os/rt/include/chstats.h"
 1169              		.file 16 "/home/efe/ChibiOS/os/rt/include/chsem.h"
 1170              		.file 17 "/home/efe/ChibiOS/os/rt/include/chmtx.h"
 1171              		.file 18 "/home/efe/ChibiOS/test/rt/test.h"
 1172              		.file 19 "/home/efe/ChibiOS/os/ext/CMSIS/include/core_cm4.h"