ARM GAS  /tmp/ccHTDbCd.s 			page 1


   1              		.syntax unified
   2              		.cpu cortex-m4
   3              		.fpu softvfp
   4              		.eabi_attribute 20, 1
   5              		.eabi_attribute 21, 1
   6              		.eabi_attribute 23, 3
   7              		.eabi_attribute 24, 1
   8              		.eabi_attribute 25, 1
   9              		.eabi_attribute 26, 1
  10              		.eabi_attribute 30, 6
  11              		.eabi_attribute 34, 1
  12              		.eabi_attribute 18, 4
  13              		.thumb
  14              		.file	"testqueues.c"
  15              		.text
  16              	.Ltext0:
  17              		.cfi_sections	.debug_frame
  18              		.section	.text.port_lock,"ax",%progbits
  19              		.align	2
  20              		.p2align 4,,15
  21              		.thumb
  22              		.thumb_func
  23              		.type	port_lock, %function
  24              	port_lock:
  25              	.LFB127:
  26              		.file 1 "/home/efe/ChibiOS/os/rt/ports/ARMCMx/chcore_v7m.h"
  27              		.loc 1 456 0
  28              		.cfi_startproc
  29              		@ args = 0, pretend = 0, frame = 8
  30              		@ frame_needed = 0, uses_anonymous_args = 0
  31              		@ link register save eliminated.
  32 0000 82B0     		sub	sp, sp, #8
  33              		.cfi_def_cfa_offset 8
  34 0002 2023     		movs	r3, #32
  35 0004 0193     		str	r3, [sp, #4]
  36              	.LBB6:
  37              	.LBB7:
  38              		.file 2 "/home/efe/ChibiOS/os/ext/CMSIS/include/core_cmFunc.h"
  39              		.loc 2 548 0
  40 0006 019B     		ldr	r3, [sp, #4]
  41              	@ 548 "/home/efe/ChibiOS/os/ext/CMSIS/include/core_cmFunc.h" 1
  42 0008 83F31188 		MSR basepri, r3
  43              	@ 0 "" 2
  44              		.thumb
  45              	.LBE7:
  46              	.LBE6:
  47              		.loc 1 463 0
  48 000c 02B0     		add	sp, sp, #8
  49              		@ sp needed
  50 000e 7047     		bx	lr
  51              		.cfi_endproc
  52              	.LFE127:
  53              		.size	port_lock, .-port_lock
  54              		.section	.text.port_unlock,"ax",%progbits
  55              		.align	2
  56              		.p2align 4,,15
  57              		.thumb
ARM GAS  /tmp/ccHTDbCd.s 			page 2


  58              		.thumb_func
  59              		.type	port_unlock, %function
  60              	port_unlock:
  61              	.LFB128:
  62              		.loc 1 470 0
  63              		.cfi_startproc
  64              		@ args = 0, pretend = 0, frame = 8
  65              		@ frame_needed = 0, uses_anonymous_args = 0
  66              		@ link register save eliminated.
  67 0000 82B0     		sub	sp, sp, #8
  68              		.cfi_def_cfa_offset 8
  69 0002 0023     		movs	r3, #0
  70 0004 0193     		str	r3, [sp, #4]
  71              	.LBB8:
  72              	.LBB9:
  73              		.loc 2 548 0
  74 0006 019B     		ldr	r3, [sp, #4]
  75              	@ 548 "/home/efe/ChibiOS/os/ext/CMSIS/include/core_cmFunc.h" 1
  76 0008 83F31188 		MSR basepri, r3
  77              	@ 0 "" 2
  78              		.thumb
  79              	.LBE9:
  80              	.LBE8:
  81              		.loc 1 477 0
  82 000c 02B0     		add	sp, sp, #8
  83              		@ sp needed
  84 000e 7047     		bx	lr
  85              		.cfi_endproc
  86              	.LFE128:
  87              		.size	port_unlock, .-port_unlock
  88              		.section	.text.chSysLock,"ax",%progbits
  89              		.align	2
  90              		.p2align 4,,15
  91              		.thumb
  92              		.thumb_func
  93              		.type	chSysLock, %function
  94              	chSysLock:
  95              	.LFB167:
  96              		.file 3 "/home/efe/ChibiOS/os/rt/include/chsys.h"
  97              		.loc 3 346 0
  98              		.cfi_startproc
  99              		@ args = 0, pretend = 0, frame = 0
 100              		@ frame_needed = 0, uses_anonymous_args = 0
 101 0000 08B5     		push	{r3, lr}
 102              		.cfi_def_cfa_offset 8
 103              		.cfi_offset 3, -8
 104              		.cfi_offset 14, -4
 105              		.loc 3 348 0
 106 0002 FFF7FEFF 		bl	port_lock
 107              		.loc 3 349 0
 108 0006 FFF7FEFF 		bl	_stats_start_measure_crit_thd
 109              		.loc 3 350 0
 110 000a FFF7FEFF 		bl	_dbg_check_lock
 111              		.loc 3 351 0
 112 000e 08BD     		pop	{r3, pc}
 113              		.cfi_endproc
 114              	.LFE167:
ARM GAS  /tmp/ccHTDbCd.s 			page 3


 115              		.size	chSysLock, .-chSysLock
 116              		.section	.text.chSysUnlock,"ax",%progbits
 117              		.align	2
 118              		.p2align 4,,15
 119              		.thumb
 120              		.thumb_func
 121              		.type	chSysUnlock, %function
 122              	chSysUnlock:
 123              	.LFB168:
 124              		.loc 3 358 0
 125              		.cfi_startproc
 126              		@ args = 0, pretend = 0, frame = 0
 127              		@ frame_needed = 0, uses_anonymous_args = 0
 128 0000 08B5     		push	{r3, lr}
 129              		.cfi_def_cfa_offset 8
 130              		.cfi_offset 3, -8
 131              		.cfi_offset 14, -4
 132              		.loc 3 360 0
 133 0002 FFF7FEFF 		bl	_dbg_check_unlock
 134              		.loc 3 361 0
 135 0006 FFF7FEFF 		bl	_stats_stop_measure_crit_thd
 136              		.loc 3 367 0
 137 000a 094B     		ldr	r3, .L6
 138 000c 1A68     		ldr	r2, [r3]
 139 000e 084B     		ldr	r3, .L6
 140 0010 9A42     		cmp	r2, r3
 141 0012 0AD0     		beq	.L5
 142              		.loc 3 367 0 is_stmt 0 discriminator 1
 143 0014 064B     		ldr	r3, .L6
 144 0016 9B69     		ldr	r3, [r3, #24]
 145 0018 9A68     		ldr	r2, [r3, #8]
 146 001a 054B     		ldr	r3, .L6
 147 001c 1B68     		ldr	r3, [r3]
 148 001e 9B68     		ldr	r3, [r3, #8]
 149 0020 9A42     		cmp	r2, r3
 150 0022 02D2     		bcs	.L5
 151 0024 0348     		ldr	r0, .L6+4
 152 0026 FFF7FEFF 		bl	chSysHalt
 153              	.L5:
 154              		.loc 3 371 0 is_stmt 1
 155 002a FFF7FEFF 		bl	port_unlock
 156              		.loc 3 372 0
 157 002e 08BD     		pop	{r3, pc}
 158              	.L7:
 159              		.align	2
 160              	.L6:
 161 0030 00000000 		.word	ch
 162 0034 00000000 		.word	__func__.5925
 163              		.cfi_endproc
 164              	.LFE168:
 165              		.size	chSysUnlock, .-chSysUnlock
 166 0038 AFF30080 		.section	.text.chThdGetSelfX,"ax",%progbits
 166      AFF30080 
 167              		.align	2
 168              		.p2align 4,,15
 169              		.thumb
 170              		.thumb_func
ARM GAS  /tmp/ccHTDbCd.s 			page 4


 171              		.type	chThdGetSelfX, %function
 172              	chThdGetSelfX:
 173              	.LFB188:
 174              		.file 4 "/home/efe/ChibiOS/os/rt/include/chthreads.h"
 175              		.loc 4 174 0
 176              		.cfi_startproc
 177              		@ args = 0, pretend = 0, frame = 0
 178              		@ frame_needed = 0, uses_anonymous_args = 0
 179              		@ link register save eliminated.
 180              		.loc 4 176 0
 181 0000 014B     		ldr	r3, .L10
 182 0002 9B69     		ldr	r3, [r3, #24]
 183              		.loc 4 177 0
 184 0004 1846     		mov	r0, r3
 185 0006 7047     		bx	lr
 186              	.L11:
 187              		.align	2
 188              	.L10:
 189 0008 00000000 		.word	ch
 190              		.cfi_endproc
 191              	.LFE188:
 192              		.size	chThdGetSelfX, .-chThdGetSelfX
 193 000c AFF30080 		.section	.text.chThdGetPriorityX,"ax",%progbits
 194              		.align	2
 195              		.p2align 4,,15
 196              		.thumb
 197              		.thumb_func
 198              		.type	chThdGetPriorityX, %function
 199              	chThdGetPriorityX:
 200              	.LFB189:
 201              		.loc 4 187 0
 202              		.cfi_startproc
 203              		@ args = 0, pretend = 0, frame = 0
 204              		@ frame_needed = 0, uses_anonymous_args = 0
 205 0000 08B5     		push	{r3, lr}
 206              		.cfi_def_cfa_offset 8
 207              		.cfi_offset 3, -8
 208              		.cfi_offset 14, -4
 209              		.loc 4 189 0
 210 0002 FFF7FEFF 		bl	chThdGetSelfX
 211 0006 0346     		mov	r3, r0
 212 0008 9B68     		ldr	r3, [r3, #8]
 213              		.loc 4 190 0
 214 000a 1846     		mov	r0, r3
 215 000c 08BD     		pop	{r3, pc}
 216              		.cfi_endproc
 217              	.LFE189:
 218              		.size	chThdGetPriorityX, .-chThdGetPriorityX
 219 000e 00BF     		.section	.text.chIQGetFullI,"ax",%progbits
 220              		.align	2
 221              		.p2align 4,,15
 222              		.thumb
 223              		.thumb_func
 224              		.type	chIQGetFullI, %function
 225              	chIQGetFullI:
 226              	.LFB230:
 227              		.file 5 "/home/efe/ChibiOS/os/rt/include/chqueues.h"
ARM GAS  /tmp/ccHTDbCd.s 			page 5


 228              		.loc 5 270 0
 229              		.cfi_startproc
 230              		@ args = 0, pretend = 0, frame = 8
 231              		@ frame_needed = 0, uses_anonymous_args = 0
 232 0000 00B5     		push	{lr}
 233              		.cfi_def_cfa_offset 4
 234              		.cfi_offset 14, -4
 235 0002 83B0     		sub	sp, sp, #12
 236              		.cfi_def_cfa_offset 16
 237 0004 0190     		str	r0, [sp, #4]
 238              		.loc 5 272 0
 239 0006 FFF7FEFF 		bl	chDbgCheckClassI
 240              		.loc 5 274 0
 241 000a 019B     		ldr	r3, [sp, #4]
 242 000c 9B68     		ldr	r3, [r3, #8]
 243              		.loc 5 275 0
 244 000e 1846     		mov	r0, r3
 245 0010 03B0     		add	sp, sp, #12
 246              		@ sp needed
 247 0012 5DF804FB 		ldr	pc, [sp], #4
 248              		.cfi_endproc
 249              	.LFE230:
 250              		.size	chIQGetFullI, .-chIQGetFullI
 251 0016 00BFAFF3 		.section	.text.chIQIsEmptyI,"ax",%progbits
 251      0080AFF3 
 251      0080
 252              		.align	2
 253              		.p2align 4,,15
 254              		.thumb
 255              		.thumb_func
 256              		.type	chIQIsEmptyI, %function
 257              	chIQIsEmptyI:
 258              	.LFB232:
 259              		.loc 5 303 0
 260              		.cfi_startproc
 261              		@ args = 0, pretend = 0, frame = 8
 262              		@ frame_needed = 0, uses_anonymous_args = 0
 263 0000 00B5     		push	{lr}
 264              		.cfi_def_cfa_offset 4
 265              		.cfi_offset 14, -4
 266 0002 83B0     		sub	sp, sp, #12
 267              		.cfi_def_cfa_offset 16
 268 0004 0190     		str	r0, [sp, #4]
 269              		.loc 5 305 0
 270 0006 FFF7FEFF 		bl	chDbgCheckClassI
 271              		.loc 5 307 0
 272 000a 019B     		ldr	r3, [sp, #4]
 273 000c 9B68     		ldr	r3, [r3, #8]
 274 000e 002B     		cmp	r3, #0
 275 0010 14BF     		ite	ne
 276 0012 0023     		movne	r3, #0
 277 0014 0123     		moveq	r3, #1
 278 0016 DBB2     		uxtb	r3, r3
 279              		.loc 5 308 0
 280 0018 1846     		mov	r0, r3
 281 001a 03B0     		add	sp, sp, #12
 282              		@ sp needed
ARM GAS  /tmp/ccHTDbCd.s 			page 6


 283 001c 5DF804FB 		ldr	pc, [sp], #4
 284              		.cfi_endproc
 285              	.LFE232:
 286              		.size	chIQIsEmptyI, .-chIQIsEmptyI
 287              		.section	.text.chIQIsFullI,"ax",%progbits
 288              		.align	2
 289              		.p2align 4,,15
 290              		.thumb
 291              		.thumb_func
 292              		.type	chIQIsFullI, %function
 293              	chIQIsFullI:
 294              	.LFB233:
 295              		.loc 5 320 0
 296              		.cfi_startproc
 297              		@ args = 0, pretend = 0, frame = 8
 298              		@ frame_needed = 0, uses_anonymous_args = 0
 299 0000 00B5     		push	{lr}
 300              		.cfi_def_cfa_offset 4
 301              		.cfi_offset 14, -4
 302 0002 83B0     		sub	sp, sp, #12
 303              		.cfi_def_cfa_offset 16
 304 0004 0190     		str	r0, [sp, #4]
 305              		.loc 5 322 0
 306 0006 FFF7FEFF 		bl	chDbgCheckClassI
 307              		.loc 5 324 0
 308 000a 019B     		ldr	r3, [sp, #4]
 309 000c 5A69     		ldr	r2, [r3, #20]
 310 000e 019B     		ldr	r3, [sp, #4]
 311 0010 9B69     		ldr	r3, [r3, #24]
 312 0012 9A42     		cmp	r2, r3
 313 0014 05D1     		bne	.L19
 314              		.loc 5 324 0 is_stmt 0 discriminator 1
 315 0016 019B     		ldr	r3, [sp, #4]
 316 0018 9B68     		ldr	r3, [r3, #8]
 317 001a 002B     		cmp	r3, #0
 318 001c 01D0     		beq	.L19
 319              		.loc 5 324 0 discriminator 3
 320 001e 0123     		movs	r3, #1
 321 0020 00E0     		b	.L20
 322              	.L19:
 323              		.loc 5 324 0 discriminator 2
 324 0022 0023     		movs	r3, #0
 325              	.L20:
 326              		.loc 5 324 0 discriminator 4
 327 0024 03F00103 		and	r3, r3, #1
 328 0028 DBB2     		uxtb	r3, r3
 329              		.loc 5 325 0 is_stmt 1 discriminator 4
 330 002a 1846     		mov	r0, r3
 331 002c 03B0     		add	sp, sp, #12
 332              		@ sp needed
 333 002e 5DF804FB 		ldr	pc, [sp], #4
 334              		.cfi_endproc
 335              	.LFE233:
 336              		.size	chIQIsFullI, .-chIQIsFullI
 337 0032 00BFAFF3 		.section	.text.chIQGet,"ax",%progbits
 337      0080AFF3 
 337      0080AFF3 
ARM GAS  /tmp/ccHTDbCd.s 			page 7


 337      0080
 338              		.align	2
 339              		.p2align 4,,15
 340              		.thumb
 341              		.thumb_func
 342              		.type	chIQGet, %function
 343              	chIQGet:
 344              	.LFB234:
 345              		.loc 5 339 0
 346              		.cfi_startproc
 347              		@ args = 0, pretend = 0, frame = 8
 348              		@ frame_needed = 0, uses_anonymous_args = 0
 349 0000 00B5     		push	{lr}
 350              		.cfi_def_cfa_offset 4
 351              		.cfi_offset 14, -4
 352 0002 83B0     		sub	sp, sp, #12
 353              		.cfi_def_cfa_offset 16
 354 0004 0190     		str	r0, [sp, #4]
 355              		.loc 5 341 0
 356 0006 0198     		ldr	r0, [sp, #4]
 357 0008 4FF0FF31 		mov	r1, #-1
 358 000c FFF7FEFF 		bl	chIQGetTimeout
 359 0010 0346     		mov	r3, r0
 360              		.loc 5 342 0
 361 0012 1846     		mov	r0, r3
 362 0014 03B0     		add	sp, sp, #12
 363              		@ sp needed
 364 0016 5DF804FB 		ldr	pc, [sp], #4
 365              		.cfi_endproc
 366              	.LFE234:
 367              		.size	chIQGet, .-chIQGet
 368 001a 00BFAFF3 		.section	.text.chOQGetFullI,"ax",%progbits
 368      0080
 369              		.align	2
 370              		.p2align 4,,15
 371              		.thumb
 372              		.thumb_func
 373              		.type	chOQGetFullI, %function
 374              	chOQGetFullI:
 375              	.LFB235:
 376              		.loc 5 353 0
 377              		.cfi_startproc
 378              		@ args = 0, pretend = 0, frame = 8
 379              		@ frame_needed = 0, uses_anonymous_args = 0
 380 0000 00B5     		push	{lr}
 381              		.cfi_def_cfa_offset 4
 382              		.cfi_offset 14, -4
 383 0002 83B0     		sub	sp, sp, #12
 384              		.cfi_def_cfa_offset 16
 385 0004 0190     		str	r0, [sp, #4]
 386              		.loc 5 355 0
 387 0006 FFF7FEFF 		bl	chDbgCheckClassI
 388              		.loc 5 357 0
 389 000a 019B     		ldr	r3, [sp, #4]
 390 000c 1B69     		ldr	r3, [r3, #16]
 391 000e 1A46     		mov	r2, r3
 392 0010 019B     		ldr	r3, [sp, #4]
ARM GAS  /tmp/ccHTDbCd.s 			page 8


 393 0012 DB68     		ldr	r3, [r3, #12]
 394 0014 D31A     		subs	r3, r2, r3
 395 0016 1A46     		mov	r2, r3
 396 0018 019B     		ldr	r3, [sp, #4]
 397 001a 9B68     		ldr	r3, [r3, #8]
 398 001c D31A     		subs	r3, r2, r3
 399              		.loc 5 358 0
 400 001e 1846     		mov	r0, r3
 401 0020 03B0     		add	sp, sp, #12
 402              		@ sp needed
 403 0022 5DF804FB 		ldr	pc, [sp], #4
 404              		.cfi_endproc
 405              	.LFE235:
 406              		.size	chOQGetFullI, .-chOQGetFullI
 407 0026 00BFAFF3 		.section	.text.chOQIsEmptyI,"ax",%progbits
 407      0080AFF3 
 407      0080
 408              		.align	2
 409              		.p2align 4,,15
 410              		.thumb
 411              		.thumb_func
 412              		.type	chOQIsEmptyI, %function
 413              	chOQIsEmptyI:
 414              	.LFB237:
 415              		.loc 5 386 0
 416              		.cfi_startproc
 417              		@ args = 0, pretend = 0, frame = 8
 418              		@ frame_needed = 0, uses_anonymous_args = 0
 419 0000 00B5     		push	{lr}
 420              		.cfi_def_cfa_offset 4
 421              		.cfi_offset 14, -4
 422 0002 83B0     		sub	sp, sp, #12
 423              		.cfi_def_cfa_offset 16
 424 0004 0190     		str	r0, [sp, #4]
 425              		.loc 5 388 0
 426 0006 FFF7FEFF 		bl	chDbgCheckClassI
 427              		.loc 5 390 0
 428 000a 019B     		ldr	r3, [sp, #4]
 429 000c 5A69     		ldr	r2, [r3, #20]
 430 000e 019B     		ldr	r3, [sp, #4]
 431 0010 9B69     		ldr	r3, [r3, #24]
 432 0012 9A42     		cmp	r2, r3
 433 0014 05D1     		bne	.L27
 434              		.loc 5 390 0 is_stmt 0 discriminator 1
 435 0016 019B     		ldr	r3, [sp, #4]
 436 0018 9B68     		ldr	r3, [r3, #8]
 437 001a 002B     		cmp	r3, #0
 438 001c 01D0     		beq	.L27
 439              		.loc 5 390 0 discriminator 3
 440 001e 0123     		movs	r3, #1
 441 0020 00E0     		b	.L28
 442              	.L27:
 443              		.loc 5 390 0 discriminator 2
 444 0022 0023     		movs	r3, #0
 445              	.L28:
 446              		.loc 5 390 0 discriminator 4
 447 0024 03F00103 		and	r3, r3, #1
ARM GAS  /tmp/ccHTDbCd.s 			page 9


 448 0028 DBB2     		uxtb	r3, r3
 449              		.loc 5 391 0 is_stmt 1 discriminator 4
 450 002a 1846     		mov	r0, r3
 451 002c 03B0     		add	sp, sp, #12
 452              		@ sp needed
 453 002e 5DF804FB 		ldr	pc, [sp], #4
 454              		.cfi_endproc
 455              	.LFE237:
 456              		.size	chOQIsEmptyI, .-chOQIsEmptyI
 457 0032 00BFAFF3 		.section	.text.chOQIsFullI,"ax",%progbits
 457      0080AFF3 
 457      0080AFF3 
 457      0080
 458              		.align	2
 459              		.p2align 4,,15
 460              		.thumb
 461              		.thumb_func
 462              		.type	chOQIsFullI, %function
 463              	chOQIsFullI:
 464              	.LFB238:
 465              		.loc 5 403 0
 466              		.cfi_startproc
 467              		@ args = 0, pretend = 0, frame = 8
 468              		@ frame_needed = 0, uses_anonymous_args = 0
 469 0000 00B5     		push	{lr}
 470              		.cfi_def_cfa_offset 4
 471              		.cfi_offset 14, -4
 472 0002 83B0     		sub	sp, sp, #12
 473              		.cfi_def_cfa_offset 16
 474 0004 0190     		str	r0, [sp, #4]
 475              		.loc 5 405 0
 476 0006 FFF7FEFF 		bl	chDbgCheckClassI
 477              		.loc 5 407 0
 478 000a 019B     		ldr	r3, [sp, #4]
 479 000c 9B68     		ldr	r3, [r3, #8]
 480 000e 002B     		cmp	r3, #0
 481 0010 14BF     		ite	ne
 482 0012 0023     		movne	r3, #0
 483 0014 0123     		moveq	r3, #1
 484 0016 DBB2     		uxtb	r3, r3
 485              		.loc 5 408 0
 486 0018 1846     		mov	r0, r3
 487 001a 03B0     		add	sp, sp, #12
 488              		@ sp needed
 489 001c 5DF804FB 		ldr	pc, [sp], #4
 490              		.cfi_endproc
 491              	.LFE238:
 492              		.size	chOQIsFullI, .-chOQIsFullI
 493              		.section	.text.chOQPut,"ax",%progbits
 494              		.align	2
 495              		.p2align 4,,15
 496              		.thumb
 497              		.thumb_func
 498              		.type	chOQPut, %function
 499              	chOQPut:
 500              	.LFB239:
 501              		.loc 5 424 0
ARM GAS  /tmp/ccHTDbCd.s 			page 10


 502              		.cfi_startproc
 503              		@ args = 0, pretend = 0, frame = 8
 504              		@ frame_needed = 0, uses_anonymous_args = 0
 505 0000 00B5     		push	{lr}
 506              		.cfi_def_cfa_offset 4
 507              		.cfi_offset 14, -4
 508 0002 83B0     		sub	sp, sp, #12
 509              		.cfi_def_cfa_offset 16
 510 0004 0190     		str	r0, [sp, #4]
 511 0006 0B46     		mov	r3, r1
 512 0008 8DF80330 		strb	r3, [sp, #3]
 513              		.loc 5 426 0
 514 000c 9DF80330 		ldrb	r3, [sp, #3]	@ zero_extendqisi2
 515 0010 0198     		ldr	r0, [sp, #4]
 516 0012 1946     		mov	r1, r3
 517 0014 4FF0FF32 		mov	r2, #-1
 518 0018 FFF7FEFF 		bl	chOQPutTimeout
 519 001c 0346     		mov	r3, r0
 520              		.loc 5 427 0
 521 001e 1846     		mov	r0, r3
 522 0020 03B0     		add	sp, sp, #12
 523              		@ sp needed
 524 0022 5DF804FB 		ldr	pc, [sp], #4
 525              		.cfi_endproc
 526              	.LFE239:
 527              		.size	chOQPut, .-chOQPut
 528 0026 00BFAFF3 		.section	.text.notify,"ax",%progbits
 528      0080AFF3 
 528      0080
 529              		.align	2
 530              		.p2align 4,,15
 531              		.thumb
 532              		.thumb_func
 533              		.type	notify, %function
 534              	notify:
 535              	.LFB240:
 536              		.file 6 "/home/efe/ChibiOS/test/rt/testqueues.c"
 537              		.loc 6 57 0
 538              		.cfi_startproc
 539              		@ args = 0, pretend = 0, frame = 8
 540              		@ frame_needed = 0, uses_anonymous_args = 0
 541              		@ link register save eliminated.
 542 0000 82B0     		sub	sp, sp, #8
 543              		.cfi_def_cfa_offset 8
 544 0002 0190     		str	r0, [sp, #4]
 545              		.loc 6 59 0
 546 0004 02B0     		add	sp, sp, #8
 547              		@ sp needed
 548 0006 7047     		bx	lr
 549              		.cfi_endproc
 550              	.LFE240:
 551              		.size	notify, .-notify
 552 0008 AFF30080 		.section	.data.iq,"aw",%progbits
 552      AFF30080 
 553              		.align	2
 554              		.type	iq, %object
 555              		.size	iq, 36
ARM GAS  /tmp/ccHTDbCd.s 			page 11


 556              	iq:
 557 0000 00000000 		.word	iq
 558 0004 00000000 		.word	iq
 559 0008 00000000 		.word	0
 560 000c 00000000 		.word	test
 561 0010 04000000 		.word	test+4
 562 0014 00000000 		.word	test
 563 0018 00000000 		.word	test
 564 001c 00000000 		.word	notify
 565 0020 00000000 		.word	0
 566              		.section	.data.oq,"aw",%progbits
 567              		.align	2
 568              		.type	oq, %object
 569              		.size	oq, 36
 570              	oq:
 571 0000 00000000 		.word	oq
 572 0004 00000000 		.word	oq
 573 0008 04000000 		.word	4
 574 000c 68010000 		.word	test+360
 575 0010 6C010000 		.word	test+364
 576 0014 68010000 		.word	test+360
 577 0018 68010000 		.word	test+360
 578 001c 00000000 		.word	notify
 579 0020 00000000 		.word	0
 580              		.section	.text.queues1_setup,"ax",%progbits
 581              		.align	2
 582              		.p2align 4,,15
 583              		.thumb
 584              		.thumb_func
 585              		.type	queues1_setup, %function
 586              	queues1_setup:
 587              	.LFB241:
 588              		.loc 6 78 0
 589              		.cfi_startproc
 590              		@ args = 0, pretend = 0, frame = 0
 591              		@ frame_needed = 0, uses_anonymous_args = 0
 592 0000 00B5     		push	{lr}
 593              		.cfi_def_cfa_offset 4
 594              		.cfi_offset 14, -4
 595 0002 83B0     		sub	sp, sp, #12
 596              		.cfi_def_cfa_offset 16
 597              		.loc 6 80 0
 598 0004 064B     		ldr	r3, .L36
 599 0006 1B68     		ldr	r3, [r3]
 600 0008 0022     		movs	r2, #0
 601 000a 0092     		str	r2, [sp]
 602 000c 0548     		ldr	r0, .L36+4
 603 000e 1946     		mov	r1, r3
 604 0010 0422     		movs	r2, #4
 605 0012 054B     		ldr	r3, .L36+8
 606 0014 FFF7FEFF 		bl	chIQObjectInit
 607              		.loc 6 81 0
 608 0018 03B0     		add	sp, sp, #12
 609              		@ sp needed
 610 001a 5DF804FB 		ldr	pc, [sp], #4
 611              	.L37:
 612 001e 00BF     		.align	2
ARM GAS  /tmp/ccHTDbCd.s 			page 12


 613              	.L36:
 614 0020 00000000 		.word	wa
 615 0024 00000000 		.word	iq
 616 0028 00000000 		.word	notify
 617              		.cfi_endproc
 618              	.LFE241:
 619              		.size	queues1_setup, .-queues1_setup
 620 002c AFF30080 		.section	.text.thread1,"ax",%progbits
 621              		.align	2
 622              		.p2align 4,,15
 623              		.thumb
 624              		.thumb_func
 625              		.type	thread1, %function
 626              	thread1:
 627              	.LFB242:
 628              		.loc 6 83 0
 629              		.cfi_startproc
 630              		@ args = 0, pretend = 0, frame = 8
 631              		@ frame_needed = 0, uses_anonymous_args = 0
 632 0000 00B5     		push	{lr}
 633              		.cfi_def_cfa_offset 4
 634              		.cfi_offset 14, -4
 635 0002 83B0     		sub	sp, sp, #12
 636              		.cfi_def_cfa_offset 16
 637 0004 0190     		str	r0, [sp, #4]
 638              		.loc 6 86 0
 639 0006 0448     		ldr	r0, .L39
 640 0008 4FF4FA61 		mov	r1, #2000
 641 000c FFF7FEFF 		bl	chIQGetTimeout
 642              		.loc 6 87 0
 643 0010 03B0     		add	sp, sp, #12
 644              		@ sp needed
 645 0012 5DF804FB 		ldr	pc, [sp], #4
 646              	.L40:
 647 0016 00BF     		.align	2
 648              	.L39:
 649 0018 00000000 		.word	iq
 650              		.cfi_endproc
 651              	.LFE242:
 652              		.size	thread1, .-thread1
 653 001c AFF30080 		.section	.rodata
 654              		.align	2
 655              	.LC0:
 656 0000 41424344 		.ascii	"ABCD\000"
 656      00
 657              		.section	.text.queues1_execute,"ax",%progbits
 658              		.align	2
 659              		.p2align 4,,15
 660              		.thumb
 661              		.thumb_func
 662              		.type	queues1_execute, %function
 663              	queues1_execute:
 664              	.LFB243:
 665              		.loc 6 89 0
 666              		.cfi_startproc
 667              		@ args = 0, pretend = 0, frame = 8
 668              		@ frame_needed = 0, uses_anonymous_args = 0
ARM GAS  /tmp/ccHTDbCd.s 			page 13


 669 0000 10B5     		push	{r4, lr}
 670              		.cfi_def_cfa_offset 8
 671              		.cfi_offset 4, -8
 672              		.cfi_offset 14, -4
 673 0002 84B0     		sub	sp, sp, #16
 674              		.cfi_def_cfa_offset 24
 675              		.loc 6 94 0
 676 0004 FFF7FEFF 		bl	chSysLock
 677 0008 AB48     		ldr	r0, .L63
 678 000a FFF7FEFF 		bl	chIQIsEmptyI
 679 000e 0346     		mov	r3, r0
 680 0010 0120     		movs	r0, #1
 681 0012 1946     		mov	r1, r3
 682 0014 FFF7FEFF 		bl	_test_assert
 683 0018 0346     		mov	r3, r0
 684 001a 002B     		cmp	r3, #0
 685 001c 02D0     		beq	.L42
 686              		.loc 6 94 0 is_stmt 0 discriminator 1
 687 001e FFF7FEFF 		bl	chSysUnlock
 688 0022 6AE1     		b	.L41
 689              	.L42:
 690              		.loc 6 94 0 discriminator 2
 691 0024 FFF7FEFF 		bl	chSysUnlock
 692              		.loc 6 97 0 is_stmt 1 discriminator 2
 693 0028 FFF7FEFF 		bl	chSysLock
 694              		.loc 6 98 0 discriminator 2
 695 002c 0023     		movs	r3, #0
 696 002e 0393     		str	r3, [sp, #12]
 697 0030 0AE0     		b	.L44
 698              	.L45:
 699              		.loc 6 99 0 discriminator 2
 700 0032 039B     		ldr	r3, [sp, #12]
 701 0034 DBB2     		uxtb	r3, r3
 702 0036 4133     		adds	r3, r3, #65
 703 0038 DBB2     		uxtb	r3, r3
 704 003a 9F48     		ldr	r0, .L63
 705 003c 1946     		mov	r1, r3
 706 003e FFF7FEFF 		bl	chIQPutI
 707              		.loc 6 98 0 discriminator 2
 708 0042 039B     		ldr	r3, [sp, #12]
 709 0044 0133     		adds	r3, r3, #1
 710 0046 0393     		str	r3, [sp, #12]
 711              	.L44:
 712              		.loc 6 98 0 is_stmt 0 discriminator 1
 713 0048 039B     		ldr	r3, [sp, #12]
 714 004a 032B     		cmp	r3, #3
 715 004c F1D9     		bls	.L45
 716              		.loc 6 100 0 is_stmt 1
 717 004e FFF7FEFF 		bl	chSysUnlock
 718              		.loc 6 101 0
 719 0052 FFF7FEFF 		bl	chSysLock
 720 0056 9848     		ldr	r0, .L63
 721 0058 FFF7FEFF 		bl	chIQIsFullI
 722 005c 0346     		mov	r3, r0
 723 005e 0220     		movs	r0, #2
 724 0060 1946     		mov	r1, r3
 725 0062 FFF7FEFF 		bl	_test_assert
ARM GAS  /tmp/ccHTDbCd.s 			page 14


 726 0066 0346     		mov	r3, r0
 727 0068 002B     		cmp	r3, #0
 728 006a 02D0     		beq	.L46
 729              		.loc 6 101 0 is_stmt 0 discriminator 1
 730 006c FFF7FEFF 		bl	chSysUnlock
 731 0070 43E1     		b	.L41
 732              	.L46:
 733              		.loc 6 101 0 discriminator 2
 734 0072 FFF7FEFF 		bl	chSysUnlock
 735              		.loc 6 102 0 is_stmt 1 discriminator 2
 736 0076 FFF7FEFF 		bl	chSysLock
 737 007a 8F48     		ldr	r0, .L63
 738 007c 0021     		movs	r1, #0
 739 007e FFF7FEFF 		bl	chIQPutI
 740 0082 0346     		mov	r3, r0
 741 0084 13F1040F 		cmn	r3, #4
 742 0088 14BF     		ite	ne
 743 008a 0023     		movne	r3, #0
 744 008c 0123     		moveq	r3, #1
 745 008e DBB2     		uxtb	r3, r3
 746 0090 0320     		movs	r0, #3
 747 0092 1946     		mov	r1, r3
 748 0094 FFF7FEFF 		bl	_test_assert
 749 0098 0346     		mov	r3, r0
 750 009a 002B     		cmp	r3, #0
 751 009c 02D0     		beq	.L47
 752              		.loc 6 102 0 is_stmt 0 discriminator 1
 753 009e FFF7FEFF 		bl	chSysUnlock
 754 00a2 2AE1     		b	.L41
 755              	.L47:
 756              		.loc 6 102 0 discriminator 2
 757 00a4 FFF7FEFF 		bl	chSysUnlock
 758              		.loc 6 105 0 is_stmt 1 discriminator 2
 759 00a8 0023     		movs	r3, #0
 760 00aa 0393     		str	r3, [sp, #12]
 761 00ac 0AE0     		b	.L48
 762              	.L49:
 763              		.loc 6 106 0 discriminator 2
 764 00ae 8248     		ldr	r0, .L63
 765 00b0 FFF7FEFF 		bl	chIQGet
 766 00b4 0346     		mov	r3, r0
 767 00b6 DBB2     		uxtb	r3, r3
 768 00b8 1846     		mov	r0, r3
 769 00ba FFF7FEFF 		bl	test_emit_token
 770              		.loc 6 105 0 discriminator 2
 771 00be 039B     		ldr	r3, [sp, #12]
 772 00c0 0133     		adds	r3, r3, #1
 773 00c2 0393     		str	r3, [sp, #12]
 774              	.L48:
 775              		.loc 6 105 0 is_stmt 0 discriminator 1
 776 00c4 039B     		ldr	r3, [sp, #12]
 777 00c6 032B     		cmp	r3, #3
 778 00c8 F1D9     		bls	.L49
 779              		.loc 6 107 0 is_stmt 1
 780 00ca FFF7FEFF 		bl	chSysLock
 781 00ce 7A48     		ldr	r0, .L63
 782 00d0 FFF7FEFF 		bl	chIQIsEmptyI
ARM GAS  /tmp/ccHTDbCd.s 			page 15


 783 00d4 0346     		mov	r3, r0
 784 00d6 0420     		movs	r0, #4
 785 00d8 1946     		mov	r1, r3
 786 00da FFF7FEFF 		bl	_test_assert
 787 00de 0346     		mov	r3, r0
 788 00e0 002B     		cmp	r3, #0
 789 00e2 02D0     		beq	.L50
 790              		.loc 6 107 0 is_stmt 0 discriminator 1
 791 00e4 FFF7FEFF 		bl	chSysUnlock
 792 00e8 07E1     		b	.L41
 793              	.L50:
 794              		.loc 6 107 0 discriminator 2
 795 00ea FFF7FEFF 		bl	chSysUnlock
 796              		.loc 6 108 0 is_stmt 1 discriminator 2
 797 00ee 0520     		movs	r0, #5
 798 00f0 7249     		ldr	r1, .L63+4
 799 00f2 FFF7FEFF 		bl	_test_assert_sequence
 800 00f6 0346     		mov	r3, r0
 801 00f8 002B     		cmp	r3, #0
 802 00fa 00D0     		beq	.L51
 803              		.loc 6 108 0 is_stmt 0 discriminator 1
 804 00fc FDE0     		b	.L41
 805              	.L51:
 806              		.loc 6 111 0 is_stmt 1
 807 00fe FFF7FEFF 		bl	chSysLock
 808              		.loc 6 112 0
 809 0102 0023     		movs	r3, #0
 810 0104 0393     		str	r3, [sp, #12]
 811 0106 0AE0     		b	.L52
 812              	.L53:
 813              		.loc 6 113 0 discriminator 2
 814 0108 039B     		ldr	r3, [sp, #12]
 815 010a DBB2     		uxtb	r3, r3
 816 010c 4133     		adds	r3, r3, #65
 817 010e DBB2     		uxtb	r3, r3
 818 0110 6948     		ldr	r0, .L63
 819 0112 1946     		mov	r1, r3
 820 0114 FFF7FEFF 		bl	chIQPutI
 821              		.loc 6 112 0 discriminator 2
 822 0118 039B     		ldr	r3, [sp, #12]
 823 011a 0133     		adds	r3, r3, #1
 824 011c 0393     		str	r3, [sp, #12]
 825              	.L52:
 826              		.loc 6 112 0 is_stmt 0 discriminator 1
 827 011e 039B     		ldr	r3, [sp, #12]
 828 0120 032B     		cmp	r3, #3
 829 0122 F1D9     		bls	.L53
 830              		.loc 6 114 0 is_stmt 1
 831 0124 FFF7FEFF 		bl	chSysUnlock
 832              		.loc 6 117 0
 833 0128 654B     		ldr	r3, .L63+8
 834 012a 5B68     		ldr	r3, [r3, #4]
 835 012c 6248     		ldr	r0, .L63
 836 012e 1946     		mov	r1, r3
 837 0130 0822     		movs	r2, #8
 838 0132 0023     		movs	r3, #0
 839 0134 FFF7FEFF 		bl	chIQReadTimeout
ARM GAS  /tmp/ccHTDbCd.s 			page 16


 840 0138 0290     		str	r0, [sp, #8]
 841              		.loc 6 118 0
 842 013a 029B     		ldr	r3, [sp, #8]
 843 013c 042B     		cmp	r3, #4
 844 013e 14BF     		ite	ne
 845 0140 0023     		movne	r3, #0
 846 0142 0123     		moveq	r3, #1
 847 0144 DBB2     		uxtb	r3, r3
 848 0146 0620     		movs	r0, #6
 849 0148 1946     		mov	r1, r3
 850 014a FFF7FEFF 		bl	_test_assert
 851 014e 0346     		mov	r3, r0
 852 0150 002B     		cmp	r3, #0
 853 0152 00D0     		beq	.L54
 854              		.loc 6 118 0 is_stmt 0 discriminator 1
 855 0154 D1E0     		b	.L41
 856              	.L54:
 857              		.loc 6 119 0 is_stmt 1
 858 0156 FFF7FEFF 		bl	chSysLock
 859 015a 5748     		ldr	r0, .L63
 860 015c FFF7FEFF 		bl	chIQIsEmptyI
 861 0160 0346     		mov	r3, r0
 862 0162 0720     		movs	r0, #7
 863 0164 1946     		mov	r1, r3
 864 0166 FFF7FEFF 		bl	_test_assert
 865 016a 0346     		mov	r3, r0
 866 016c 002B     		cmp	r3, #0
 867 016e 02D0     		beq	.L55
 868              		.loc 6 119 0 is_stmt 0 discriminator 1
 869 0170 FFF7FEFF 		bl	chSysUnlock
 870 0174 C1E0     		b	.L41
 871              	.L55:
 872              		.loc 6 119 0 discriminator 2
 873 0176 FFF7FEFF 		bl	chSysUnlock
 874              		.loc 6 122 0 is_stmt 1 discriminator 2
 875 017a FFF7FEFF 		bl	chSysLock
 876              		.loc 6 123 0 discriminator 2
 877 017e 0023     		movs	r3, #0
 878 0180 0393     		str	r3, [sp, #12]
 879 0182 0AE0     		b	.L56
 880              	.L57:
 881              		.loc 6 124 0 discriminator 2
 882 0184 039B     		ldr	r3, [sp, #12]
 883 0186 DBB2     		uxtb	r3, r3
 884 0188 4133     		adds	r3, r3, #65
 885 018a DBB2     		uxtb	r3, r3
 886 018c 4A48     		ldr	r0, .L63
 887 018e 1946     		mov	r1, r3
 888 0190 FFF7FEFF 		bl	chIQPutI
 889              		.loc 6 123 0 discriminator 2
 890 0194 039B     		ldr	r3, [sp, #12]
 891 0196 0133     		adds	r3, r3, #1
 892 0198 0393     		str	r3, [sp, #12]
 893              	.L56:
 894              		.loc 6 123 0 is_stmt 0 discriminator 1
 895 019a 039B     		ldr	r3, [sp, #12]
 896 019c 032B     		cmp	r3, #3
ARM GAS  /tmp/ccHTDbCd.s 			page 17


 897 019e F1D9     		bls	.L57
 898              		.loc 6 125 0 is_stmt 1
 899 01a0 FFF7FEFF 		bl	chSysUnlock
 900              		.loc 6 128 0
 901 01a4 464B     		ldr	r3, .L63+8
 902 01a6 5B68     		ldr	r3, [r3, #4]
 903 01a8 4348     		ldr	r0, .L63
 904 01aa 1946     		mov	r1, r3
 905 01ac 0222     		movs	r2, #2
 906 01ae 0023     		movs	r3, #0
 907 01b0 FFF7FEFF 		bl	chIQReadTimeout
 908 01b4 0290     		str	r0, [sp, #8]
 909              		.loc 6 129 0
 910 01b6 029B     		ldr	r3, [sp, #8]
 911 01b8 022B     		cmp	r3, #2
 912 01ba 14BF     		ite	ne
 913 01bc 0023     		movne	r3, #0
 914 01be 0123     		moveq	r3, #1
 915 01c0 DBB2     		uxtb	r3, r3
 916 01c2 0820     		movs	r0, #8
 917 01c4 1946     		mov	r1, r3
 918 01c6 FFF7FEFF 		bl	_test_assert
 919 01ca 0346     		mov	r3, r0
 920 01cc 002B     		cmp	r3, #0
 921 01ce 00D0     		beq	.L58
 922              		.loc 6 129 0 is_stmt 0 discriminator 1
 923 01d0 93E0     		b	.L41
 924              	.L58:
 925              		.loc 6 130 0 is_stmt 1
 926 01d2 3B4B     		ldr	r3, .L63+8
 927 01d4 5B68     		ldr	r3, [r3, #4]
 928 01d6 3848     		ldr	r0, .L63
 929 01d8 1946     		mov	r1, r3
 930 01da 0222     		movs	r2, #2
 931 01dc 0023     		movs	r3, #0
 932 01de FFF7FEFF 		bl	chIQReadTimeout
 933 01e2 0290     		str	r0, [sp, #8]
 934              		.loc 6 131 0
 935 01e4 029B     		ldr	r3, [sp, #8]
 936 01e6 022B     		cmp	r3, #2
 937 01e8 14BF     		ite	ne
 938 01ea 0023     		movne	r3, #0
 939 01ec 0123     		moveq	r3, #1
 940 01ee DBB2     		uxtb	r3, r3
 941 01f0 0920     		movs	r0, #9
 942 01f2 1946     		mov	r1, r3
 943 01f4 FFF7FEFF 		bl	_test_assert
 944 01f8 0346     		mov	r3, r0
 945 01fa 002B     		cmp	r3, #0
 946 01fc 00D0     		beq	.L59
 947              		.loc 6 131 0 is_stmt 0 discriminator 1
 948 01fe 7CE0     		b	.L41
 949              	.L59:
 950              		.loc 6 132 0 is_stmt 1
 951 0200 FFF7FEFF 		bl	chSysLock
 952 0204 2C48     		ldr	r0, .L63
 953 0206 FFF7FEFF 		bl	chIQIsEmptyI
ARM GAS  /tmp/ccHTDbCd.s 			page 18


 954 020a 0346     		mov	r3, r0
 955 020c 0A20     		movs	r0, #10
 956 020e 1946     		mov	r1, r3
 957 0210 FFF7FEFF 		bl	_test_assert
 958 0214 0346     		mov	r3, r0
 959 0216 002B     		cmp	r3, #0
 960 0218 02D0     		beq	.L60
 961              		.loc 6 132 0 is_stmt 0 discriminator 1
 962 021a FFF7FEFF 		bl	chSysUnlock
 963 021e 6CE0     		b	.L41
 964              	.L60:
 965              		.loc 6 132 0 discriminator 2
 966 0220 FFF7FEFF 		bl	chSysUnlock
 967              		.loc 6 135 0 is_stmt 1 discriminator 2
 968 0224 FFF7FEFF 		bl	chSysLock
 969              		.loc 6 136 0 discriminator 2
 970 0228 2348     		ldr	r0, .L63
 971 022a 0021     		movs	r1, #0
 972 022c FFF7FEFF 		bl	chIQPutI
 973              		.loc 6 137 0 discriminator 2
 974 0230 2148     		ldr	r0, .L63
 975 0232 FFF7FEFF 		bl	chIQResetI
 976              		.loc 6 138 0 discriminator 2
 977 0236 FFF7FEFF 		bl	chSysUnlock
 978              		.loc 6 139 0 discriminator 2
 979 023a FFF7FEFF 		bl	chSysLock
 980 023e 1E48     		ldr	r0, .L63
 981 0240 FFF7FEFF 		bl	chIQGetFullI
 982 0244 0346     		mov	r3, r0
 983 0246 002B     		cmp	r3, #0
 984 0248 14BF     		ite	ne
 985 024a 0023     		movne	r3, #0
 986 024c 0123     		moveq	r3, #1
 987 024e DBB2     		uxtb	r3, r3
 988 0250 0B20     		movs	r0, #11
 989 0252 1946     		mov	r1, r3
 990 0254 FFF7FEFF 		bl	_test_assert
 991 0258 0346     		mov	r3, r0
 992 025a 002B     		cmp	r3, #0
 993 025c 02D0     		beq	.L61
 994              		.loc 6 139 0 is_stmt 0 discriminator 1
 995 025e FFF7FEFF 		bl	chSysUnlock
 996 0262 4AE0     		b	.L41
 997              	.L61:
 998              		.loc 6 139 0 discriminator 2
 999 0264 FFF7FEFF 		bl	chSysUnlock
 1000              		.loc 6 140 0 is_stmt 1 discriminator 2
 1001 0268 154B     		ldr	r3, .L63+8
 1002 026a 1C68     		ldr	r4, [r3]
 1003 026c FFF7FEFF 		bl	chThdGetPriorityX
 1004 0270 0346     		mov	r3, r0
 1005 0272 0133     		adds	r3, r3, #1
 1006 0274 0022     		movs	r2, #0
 1007 0276 0092     		str	r2, [sp]
 1008 0278 2046     		mov	r0, r4
 1009 027a 4FF4B471 		mov	r1, #360
 1010 027e 1A46     		mov	r2, r3
ARM GAS  /tmp/ccHTDbCd.s 			page 19


 1011 0280 104B     		ldr	r3, .L63+12
 1012 0282 FFF7FEFF 		bl	chThdCreateStatic
 1013 0286 0246     		mov	r2, r0
 1014 0288 0F4B     		ldr	r3, .L63+16
 1015 028a 1A60     		str	r2, [r3]
 1016              		.loc 6 141 0 discriminator 2
 1017 028c FFF7FEFF 		bl	chSysLock
 1018 0290 0948     		ldr	r0, .L63
 1019 0292 FFF7FEFF 		bl	chIQGetFullI
 1020 0296 0346     		mov	r3, r0
 1021 0298 002B     		cmp	r3, #0
 1022 029a 14BF     		ite	ne
 1023 029c 0023     		movne	r3, #0
 1024 029e 0123     		moveq	r3, #1
 1025 02a0 DBB2     		uxtb	r3, r3
 1026 02a2 0C20     		movs	r0, #12
 1027 02a4 1946     		mov	r1, r3
 1028 02a6 FFF7FEFF 		bl	_test_assert
 1029 02aa 0346     		mov	r3, r0
 1030 02ac 002B     		cmp	r3, #0
 1031 02ae 0DD0     		beq	.L62
 1032              		.loc 6 141 0 is_stmt 0 discriminator 1
 1033 02b0 FFF7FEFF 		bl	chSysUnlock
 1034 02b4 21E0     		b	.L41
 1035              	.L64:
 1036 02b6 00BF     		.align	2
 1037              	.L63:
 1038 02b8 00000000 		.word	iq
 1039 02bc 00000000 		.word	.LC0
 1040 02c0 00000000 		.word	wa
 1041 02c4 00000000 		.word	thread1
 1042 02c8 00000000 		.word	threads
 1043              	.L62:
 1044              		.loc 6 141 0 discriminator 2
 1045 02cc FFF7FEFF 		bl	chSysUnlock
 1046              		.loc 6 142 0 is_stmt 1 discriminator 2
 1047 02d0 FFF7FEFF 		bl	test_wait_threads
 1048              		.loc 6 145 0 discriminator 2
 1049 02d4 0A48     		ldr	r0, .L65
 1050 02d6 0A21     		movs	r1, #10
 1051 02d8 FFF7FEFF 		bl	chIQGetTimeout
 1052 02dc 0346     		mov	r3, r0
 1053 02de B3F1FF3F 		cmp	r3, #-1
 1054 02e2 14BF     		ite	ne
 1055 02e4 0023     		movne	r3, #0
 1056 02e6 0123     		moveq	r3, #1
 1057 02e8 DBB2     		uxtb	r3, r3
 1058 02ea 0D20     		movs	r0, #13
 1059 02ec 1946     		mov	r1, r3
 1060 02ee FFF7FEFF 		bl	_test_assert
 1061 02f2 0346     		mov	r3, r0
 1062 02f4 002B     		cmp	r3, #0
 1063 02f6 00D0     		beq	.L41
 1064              		.loc 6 145 0 is_stmt 0 discriminator 1
 1065 02f8 00BF     		nop
 1066              	.L41:
 1067              		.loc 6 146 0 is_stmt 1
ARM GAS  /tmp/ccHTDbCd.s 			page 20


 1068 02fa 04B0     		add	sp, sp, #16
 1069              		@ sp needed
 1070 02fc 10BD     		pop	{r4, pc}
 1071              	.L66:
 1072 02fe 00BF     		.align	2
 1073              	.L65:
 1074 0300 00000000 		.word	iq
 1075              		.cfi_endproc
 1076              	.LFE243:
 1077              		.size	queues1_execute, .-queues1_execute
 1078              		.global	testqueues1
 1079 0304 AFF30080 		.section	.rodata
 1079      AFF30080 
 1079      AFF30080 
 1080 0005 000000   		.align	2
 1081              	.LC1:
 1082 0008 51756575 		.ascii	"Queues, input queues\000"
 1082      65732C20 
 1082      696E7075 
 1082      74207175 
 1082      65756573 
 1083              		.section	.rodata.testqueues1,"a",%progbits
 1084              		.align	2
 1085              		.type	testqueues1, %object
 1086              		.size	testqueues1, 16
 1087              	testqueues1:
 1088 0000 08000000 		.word	.LC1
 1089 0004 00000000 		.word	queues1_setup
 1090 0008 00000000 		.word	0
 1091 000c 00000000 		.word	queues1_execute
 1092              		.section	.text.queues2_setup,"ax",%progbits
 1093              		.align	2
 1094              		.p2align 4,,15
 1095              		.thumb
 1096              		.thumb_func
 1097              		.type	queues2_setup, %function
 1098              	queues2_setup:
 1099              	.LFB244:
 1100              		.loc 6 164 0
 1101              		.cfi_startproc
 1102              		@ args = 0, pretend = 0, frame = 0
 1103              		@ frame_needed = 0, uses_anonymous_args = 0
 1104 0000 00B5     		push	{lr}
 1105              		.cfi_def_cfa_offset 4
 1106              		.cfi_offset 14, -4
 1107 0002 83B0     		sub	sp, sp, #12
 1108              		.cfi_def_cfa_offset 16
 1109              		.loc 6 166 0
 1110 0004 064B     		ldr	r3, .L68
 1111 0006 1B68     		ldr	r3, [r3]
 1112 0008 0022     		movs	r2, #0
 1113 000a 0092     		str	r2, [sp]
 1114 000c 0548     		ldr	r0, .L68+4
 1115 000e 1946     		mov	r1, r3
 1116 0010 0422     		movs	r2, #4
 1117 0012 054B     		ldr	r3, .L68+8
 1118 0014 FFF7FEFF 		bl	chOQObjectInit
ARM GAS  /tmp/ccHTDbCd.s 			page 21


 1119              		.loc 6 167 0
 1120 0018 03B0     		add	sp, sp, #12
 1121              		@ sp needed
 1122 001a 5DF804FB 		ldr	pc, [sp], #4
 1123              	.L69:
 1124 001e 00BF     		.align	2
 1125              	.L68:
 1126 0020 00000000 		.word	wa
 1127 0024 00000000 		.word	oq
 1128 0028 00000000 		.word	notify
 1129              		.cfi_endproc
 1130              	.LFE244:
 1131              		.size	queues2_setup, .-queues2_setup
 1132 002c AFF30080 		.section	.text.thread2,"ax",%progbits
 1133              		.align	2
 1134              		.p2align 4,,15
 1135              		.thumb
 1136              		.thumb_func
 1137              		.type	thread2, %function
 1138              	thread2:
 1139              	.LFB245:
 1140              		.loc 6 169 0
 1141              		.cfi_startproc
 1142              		@ args = 0, pretend = 0, frame = 8
 1143              		@ frame_needed = 0, uses_anonymous_args = 0
 1144 0000 00B5     		push	{lr}
 1145              		.cfi_def_cfa_offset 4
 1146              		.cfi_offset 14, -4
 1147 0002 83B0     		sub	sp, sp, #12
 1148              		.cfi_def_cfa_offset 16
 1149 0004 0190     		str	r0, [sp, #4]
 1150              		.loc 6 172 0
 1151 0006 0448     		ldr	r0, .L71
 1152 0008 0021     		movs	r1, #0
 1153 000a 4FF4FA62 		mov	r2, #2000
 1154 000e FFF7FEFF 		bl	chOQPutTimeout
 1155              		.loc 6 173 0
 1156 0012 03B0     		add	sp, sp, #12
 1157              		@ sp needed
 1158 0014 5DF804FB 		ldr	pc, [sp], #4
 1159              	.L72:
 1160              		.align	2
 1161              	.L71:
 1162 0018 00000000 		.word	oq
 1163              		.cfi_endproc
 1164              	.LFE245:
 1165              		.size	thread2, .-thread2
 1166 001c AFF30080 		.section	.text.queues2_execute,"ax",%progbits
 1167              		.align	2
 1168              		.p2align 4,,15
 1169              		.thumb
 1170              		.thumb_func
 1171              		.type	queues2_execute, %function
 1172              	queues2_execute:
 1173              	.LFB246:
 1174              		.loc 6 175 0
 1175              		.cfi_startproc
ARM GAS  /tmp/ccHTDbCd.s 			page 22


 1176              		@ args = 0, pretend = 0, frame = 16
 1177              		@ frame_needed = 0, uses_anonymous_args = 0
 1178 0000 10B5     		push	{r4, lr}
 1179              		.cfi_def_cfa_offset 8
 1180              		.cfi_offset 4, -8
 1181              		.cfi_offset 14, -4
 1182 0002 86B0     		sub	sp, sp, #24
 1183              		.cfi_def_cfa_offset 32
 1184              		.loc 6 180 0
 1185 0004 FFF7FEFF 		bl	chSysLock
 1186 0008 A248     		ldr	r0, .L91
 1187 000a FFF7FEFF 		bl	chOQIsEmptyI
 1188 000e 0346     		mov	r3, r0
 1189 0010 0120     		movs	r0, #1
 1190 0012 1946     		mov	r1, r3
 1191 0014 FFF7FEFF 		bl	_test_assert
 1192 0018 0346     		mov	r3, r0
 1193 001a 002B     		cmp	r3, #0
 1194 001c 02D0     		beq	.L74
 1195              		.loc 6 180 0 is_stmt 0 discriminator 1
 1196 001e FFF7FEFF 		bl	chSysUnlock
 1197 0022 34E1     		b	.L73
 1198              	.L74:
 1199              		.loc 6 180 0 discriminator 2
 1200 0024 FFF7FEFF 		bl	chSysUnlock
 1201              		.loc 6 183 0 is_stmt 1 discriminator 2
 1202 0028 0023     		movs	r3, #0
 1203 002a 0593     		str	r3, [sp, #20]
 1204 002c 0AE0     		b	.L76
 1205              	.L77:
 1206              		.loc 6 184 0 discriminator 2
 1207 002e 059B     		ldr	r3, [sp, #20]
 1208 0030 DBB2     		uxtb	r3, r3
 1209 0032 4133     		adds	r3, r3, #65
 1210 0034 DBB2     		uxtb	r3, r3
 1211 0036 9748     		ldr	r0, .L91
 1212 0038 1946     		mov	r1, r3
 1213 003a FFF7FEFF 		bl	chOQPut
 1214              		.loc 6 183 0 discriminator 2
 1215 003e 059B     		ldr	r3, [sp, #20]
 1216 0040 0133     		adds	r3, r3, #1
 1217 0042 0593     		str	r3, [sp, #20]
 1218              	.L76:
 1219              		.loc 6 183 0 is_stmt 0 discriminator 1
 1220 0044 059B     		ldr	r3, [sp, #20]
 1221 0046 032B     		cmp	r3, #3
 1222 0048 F1D9     		bls	.L77
 1223              		.loc 6 185 0 is_stmt 1
 1224 004a FFF7FEFF 		bl	chSysLock
 1225 004e 9148     		ldr	r0, .L91
 1226 0050 FFF7FEFF 		bl	chOQIsFullI
 1227 0054 0346     		mov	r3, r0
 1228 0056 0220     		movs	r0, #2
 1229 0058 1946     		mov	r1, r3
 1230 005a FFF7FEFF 		bl	_test_assert
 1231 005e 0346     		mov	r3, r0
 1232 0060 002B     		cmp	r3, #0
ARM GAS  /tmp/ccHTDbCd.s 			page 23


 1233 0062 02D0     		beq	.L78
 1234              		.loc 6 185 0 is_stmt 0 discriminator 1
 1235 0064 FFF7FEFF 		bl	chSysUnlock
 1236 0068 11E1     		b	.L73
 1237              	.L78:
 1238              		.loc 6 185 0 discriminator 2
 1239 006a FFF7FEFF 		bl	chSysUnlock
 1240              		.loc 6 188 0 is_stmt 1 discriminator 2
 1241 006e 0023     		movs	r3, #0
 1242 0070 0593     		str	r3, [sp, #20]
 1243 0072 11E0     		b	.L79
 1244              	.L80:
 1245              	.LBB10:
 1246              		.loc 6 191 0 discriminator 2
 1247 0074 FFF7FEFF 		bl	chSysLock
 1248              		.loc 6 192 0 discriminator 2
 1249 0078 8648     		ldr	r0, .L91
 1250 007a FFF7FEFF 		bl	chOQGetI
 1251 007e 0346     		mov	r3, r0
 1252 0080 8DF81330 		strb	r3, [sp, #19]
 1253              		.loc 6 193 0 discriminator 2
 1254 0084 FFF7FEFF 		bl	chSysUnlock
 1255              		.loc 6 194 0 discriminator 2
 1256 0088 9DF81330 		ldrb	r3, [sp, #19]	@ zero_extendqisi2
 1257 008c 1846     		mov	r0, r3
 1258 008e FFF7FEFF 		bl	test_emit_token
 1259              	.LBE10:
 1260              		.loc 6 188 0 discriminator 2
 1261 0092 059B     		ldr	r3, [sp, #20]
 1262 0094 0133     		adds	r3, r3, #1
 1263 0096 0593     		str	r3, [sp, #20]
 1264              	.L79:
 1265              		.loc 6 188 0 is_stmt 0 discriminator 1
 1266 0098 059B     		ldr	r3, [sp, #20]
 1267 009a 032B     		cmp	r3, #3
 1268 009c EAD9     		bls	.L80
 1269              		.loc 6 196 0 is_stmt 1
 1270 009e FFF7FEFF 		bl	chSysLock
 1271 00a2 7C48     		ldr	r0, .L91
 1272 00a4 FFF7FEFF 		bl	chOQIsEmptyI
 1273 00a8 0346     		mov	r3, r0
 1274 00aa 0320     		movs	r0, #3
 1275 00ac 1946     		mov	r1, r3
 1276 00ae FFF7FEFF 		bl	_test_assert
 1277 00b2 0346     		mov	r3, r0
 1278 00b4 002B     		cmp	r3, #0
 1279 00b6 02D0     		beq	.L81
 1280              		.loc 6 196 0 is_stmt 0 discriminator 1
 1281 00b8 FFF7FEFF 		bl	chSysUnlock
 1282 00bc E7E0     		b	.L73
 1283              	.L81:
 1284              		.loc 6 196 0 discriminator 2
 1285 00be FFF7FEFF 		bl	chSysUnlock
 1286              		.loc 6 197 0 is_stmt 1 discriminator 2
 1287 00c2 0420     		movs	r0, #4
 1288 00c4 7449     		ldr	r1, .L91+4
 1289 00c6 FFF7FEFF 		bl	_test_assert_sequence
ARM GAS  /tmp/ccHTDbCd.s 			page 24


 1290 00ca 0346     		mov	r3, r0
 1291 00cc 002B     		cmp	r3, #0
 1292 00ce 00D0     		beq	.L82
 1293              		.loc 6 197 0 is_stmt 0 discriminator 1
 1294 00d0 DDE0     		b	.L73
 1295              	.L82:
 1296              		.loc 6 198 0 is_stmt 1
 1297 00d2 FFF7FEFF 		bl	chSysLock
 1298 00d6 6F48     		ldr	r0, .L91
 1299 00d8 FFF7FEFF 		bl	chOQGetI
 1300 00dc 0346     		mov	r3, r0
 1301 00de 13F1030F 		cmn	r3, #3
 1302 00e2 14BF     		ite	ne
 1303 00e4 0023     		movne	r3, #0
 1304 00e6 0123     		moveq	r3, #1
 1305 00e8 DBB2     		uxtb	r3, r3
 1306 00ea 0520     		movs	r0, #5
 1307 00ec 1946     		mov	r1, r3
 1308 00ee FFF7FEFF 		bl	_test_assert
 1309 00f2 0346     		mov	r3, r0
 1310 00f4 002B     		cmp	r3, #0
 1311 00f6 02D0     		beq	.L83
 1312              		.loc 6 198 0 is_stmt 0 discriminator 1
 1313 00f8 FFF7FEFF 		bl	chSysUnlock
 1314 00fc C7E0     		b	.L73
 1315              	.L83:
 1316              		.loc 6 198 0 discriminator 2
 1317 00fe FFF7FEFF 		bl	chSysUnlock
 1318              		.loc 6 201 0 is_stmt 1 discriminator 2
 1319 0102 664B     		ldr	r3, .L91+8
 1320 0104 5B68     		ldr	r3, [r3, #4]
 1321 0106 6348     		ldr	r0, .L91
 1322 0108 1946     		mov	r1, r3
 1323 010a 0822     		movs	r2, #8
 1324 010c 0023     		movs	r3, #0
 1325 010e FFF7FEFF 		bl	chOQWriteTimeout
 1326 0112 0390     		str	r0, [sp, #12]
 1327              		.loc 6 202 0 discriminator 2
 1328 0114 039B     		ldr	r3, [sp, #12]
 1329 0116 042B     		cmp	r3, #4
 1330 0118 14BF     		ite	ne
 1331 011a 0023     		movne	r3, #0
 1332 011c 0123     		moveq	r3, #1
 1333 011e DBB2     		uxtb	r3, r3
 1334 0120 0620     		movs	r0, #6
 1335 0122 1946     		mov	r1, r3
 1336 0124 FFF7FEFF 		bl	_test_assert
 1337 0128 0346     		mov	r3, r0
 1338 012a 002B     		cmp	r3, #0
 1339 012c 00D0     		beq	.L84
 1340              		.loc 6 202 0 is_stmt 0 discriminator 1
 1341 012e AEE0     		b	.L73
 1342              	.L84:
 1343              		.loc 6 203 0 is_stmt 1
 1344 0130 FFF7FEFF 		bl	chSysLock
 1345 0134 5748     		ldr	r0, .L91
 1346 0136 FFF7FEFF 		bl	chOQIsFullI
ARM GAS  /tmp/ccHTDbCd.s 			page 25


 1347 013a 0346     		mov	r3, r0
 1348 013c 0720     		movs	r0, #7
 1349 013e 1946     		mov	r1, r3
 1350 0140 FFF7FEFF 		bl	_test_assert
 1351 0144 0346     		mov	r3, r0
 1352 0146 002B     		cmp	r3, #0
 1353 0148 02D0     		beq	.L85
 1354              		.loc 6 203 0 is_stmt 0 discriminator 1
 1355 014a FFF7FEFF 		bl	chSysUnlock
 1356 014e 9EE0     		b	.L73
 1357              	.L85:
 1358              		.loc 6 203 0 discriminator 2
 1359 0150 FFF7FEFF 		bl	chSysUnlock
 1360              		.loc 6 204 0 is_stmt 1 discriminator 2
 1361 0154 514B     		ldr	r3, .L91+8
 1362 0156 1C68     		ldr	r4, [r3]
 1363 0158 FFF7FEFF 		bl	chThdGetPriorityX
 1364 015c 0346     		mov	r3, r0
 1365 015e 0133     		adds	r3, r3, #1
 1366 0160 0022     		movs	r2, #0
 1367 0162 0092     		str	r2, [sp]
 1368 0164 2046     		mov	r0, r4
 1369 0166 4FF4B471 		mov	r1, #360
 1370 016a 1A46     		mov	r2, r3
 1371 016c 4C4B     		ldr	r3, .L91+12
 1372 016e FFF7FEFF 		bl	chThdCreateStatic
 1373 0172 0246     		mov	r2, r0
 1374 0174 4B4B     		ldr	r3, .L91+16
 1375 0176 1A60     		str	r2, [r3]
 1376              		.loc 6 205 0 discriminator 2
 1377 0178 FFF7FEFF 		bl	chSysLock
 1378 017c 4548     		ldr	r0, .L91
 1379 017e FFF7FEFF 		bl	chOQGetFullI
 1380 0182 0346     		mov	r3, r0
 1381 0184 042B     		cmp	r3, #4
 1382 0186 14BF     		ite	ne
 1383 0188 0023     		movne	r3, #0
 1384 018a 0123     		moveq	r3, #1
 1385 018c DBB2     		uxtb	r3, r3
 1386 018e 0820     		movs	r0, #8
 1387 0190 1946     		mov	r1, r3
 1388 0192 FFF7FEFF 		bl	_test_assert
 1389 0196 0346     		mov	r3, r0
 1390 0198 002B     		cmp	r3, #0
 1391 019a 02D0     		beq	.L86
 1392              		.loc 6 205 0 is_stmt 0 discriminator 1
 1393 019c FFF7FEFF 		bl	chSysUnlock
 1394 01a0 75E0     		b	.L73
 1395              	.L86:
 1396              		.loc 6 205 0 discriminator 2
 1397 01a2 FFF7FEFF 		bl	chSysUnlock
 1398              		.loc 6 206 0 is_stmt 1 discriminator 2
 1399 01a6 FFF7FEFF 		bl	test_wait_threads
 1400              		.loc 6 209 0 discriminator 2
 1401 01aa FFF7FEFF 		bl	chSysLock
 1402              		.loc 6 210 0 discriminator 2
 1403 01ae 3948     		ldr	r0, .L91
ARM GAS  /tmp/ccHTDbCd.s 			page 26


 1404 01b0 FFF7FEFF 		bl	chOQResetI
 1405              		.loc 6 211 0 discriminator 2
 1406 01b4 FFF7FEFF 		bl	chSysUnlock
 1407              		.loc 6 212 0 discriminator 2
 1408 01b8 FFF7FEFF 		bl	chSysLock
 1409 01bc 3548     		ldr	r0, .L91
 1410 01be FFF7FEFF 		bl	chOQGetFullI
 1411 01c2 0346     		mov	r3, r0
 1412 01c4 002B     		cmp	r3, #0
 1413 01c6 14BF     		ite	ne
 1414 01c8 0023     		movne	r3, #0
 1415 01ca 0123     		moveq	r3, #1
 1416 01cc DBB2     		uxtb	r3, r3
 1417 01ce 0920     		movs	r0, #9
 1418 01d0 1946     		mov	r1, r3
 1419 01d2 FFF7FEFF 		bl	_test_assert
 1420 01d6 0346     		mov	r3, r0
 1421 01d8 002B     		cmp	r3, #0
 1422 01da 02D0     		beq	.L87
 1423              		.loc 6 212 0 is_stmt 0 discriminator 1
 1424 01dc FFF7FEFF 		bl	chSysUnlock
 1425 01e0 55E0     		b	.L73
 1426              	.L87:
 1427              		.loc 6 212 0 discriminator 2
 1428 01e2 FFF7FEFF 		bl	chSysUnlock
 1429              		.loc 6 215 0 is_stmt 1 discriminator 2
 1430 01e6 2D4B     		ldr	r3, .L91+8
 1431 01e8 5B68     		ldr	r3, [r3, #4]
 1432 01ea 2A48     		ldr	r0, .L91
 1433 01ec 1946     		mov	r1, r3
 1434 01ee 0222     		movs	r2, #2
 1435 01f0 0023     		movs	r3, #0
 1436 01f2 FFF7FEFF 		bl	chOQWriteTimeout
 1437 01f6 0390     		str	r0, [sp, #12]
 1438              		.loc 6 216 0 discriminator 2
 1439 01f8 039B     		ldr	r3, [sp, #12]
 1440 01fa 022B     		cmp	r3, #2
 1441 01fc 14BF     		ite	ne
 1442 01fe 0023     		movne	r3, #0
 1443 0200 0123     		moveq	r3, #1
 1444 0202 DBB2     		uxtb	r3, r3
 1445 0204 0A20     		movs	r0, #10
 1446 0206 1946     		mov	r1, r3
 1447 0208 FFF7FEFF 		bl	_test_assert
 1448 020c 0346     		mov	r3, r0
 1449 020e 002B     		cmp	r3, #0
 1450 0210 00D0     		beq	.L88
 1451              		.loc 6 216 0 is_stmt 0 discriminator 1
 1452 0212 3CE0     		b	.L73
 1453              	.L88:
 1454              		.loc 6 217 0 is_stmt 1
 1455 0214 214B     		ldr	r3, .L91+8
 1456 0216 5B68     		ldr	r3, [r3, #4]
 1457 0218 1E48     		ldr	r0, .L91
 1458 021a 1946     		mov	r1, r3
 1459 021c 0222     		movs	r2, #2
 1460 021e 0023     		movs	r3, #0
ARM GAS  /tmp/ccHTDbCd.s 			page 27


 1461 0220 FFF7FEFF 		bl	chOQWriteTimeout
 1462 0224 0390     		str	r0, [sp, #12]
 1463              		.loc 6 218 0
 1464 0226 039B     		ldr	r3, [sp, #12]
 1465 0228 022B     		cmp	r3, #2
 1466 022a 14BF     		ite	ne
 1467 022c 0023     		movne	r3, #0
 1468 022e 0123     		moveq	r3, #1
 1469 0230 DBB2     		uxtb	r3, r3
 1470 0232 0B20     		movs	r0, #11
 1471 0234 1946     		mov	r1, r3
 1472 0236 FFF7FEFF 		bl	_test_assert
 1473 023a 0346     		mov	r3, r0
 1474 023c 002B     		cmp	r3, #0
 1475 023e 00D0     		beq	.L89
 1476              		.loc 6 218 0 is_stmt 0 discriminator 1
 1477 0240 25E0     		b	.L73
 1478              	.L89:
 1479              		.loc 6 219 0 is_stmt 1
 1480 0242 FFF7FEFF 		bl	chSysLock
 1481 0246 1348     		ldr	r0, .L91
 1482 0248 FFF7FEFF 		bl	chOQIsFullI
 1483 024c 0346     		mov	r3, r0
 1484 024e 0C20     		movs	r0, #12
 1485 0250 1946     		mov	r1, r3
 1486 0252 FFF7FEFF 		bl	_test_assert
 1487 0256 0346     		mov	r3, r0
 1488 0258 002B     		cmp	r3, #0
 1489 025a 02D0     		beq	.L90
 1490              		.loc 6 219 0 is_stmt 0 discriminator 1
 1491 025c FFF7FEFF 		bl	chSysUnlock
 1492 0260 15E0     		b	.L73
 1493              	.L90:
 1494              		.loc 6 219 0 discriminator 2
 1495 0262 FFF7FEFF 		bl	chSysUnlock
 1496              		.loc 6 222 0 is_stmt 1 discriminator 2
 1497 0266 0B48     		ldr	r0, .L91
 1498 0268 0021     		movs	r1, #0
 1499 026a 0A22     		movs	r2, #10
 1500 026c FFF7FEFF 		bl	chOQPutTimeout
 1501 0270 0346     		mov	r3, r0
 1502 0272 B3F1FF3F 		cmp	r3, #-1
 1503 0276 14BF     		ite	ne
 1504 0278 0023     		movne	r3, #0
 1505 027a 0123     		moveq	r3, #1
 1506 027c DBB2     		uxtb	r3, r3
 1507 027e 0D20     		movs	r0, #13
 1508 0280 1946     		mov	r1, r3
 1509 0282 FFF7FEFF 		bl	_test_assert
 1510 0286 0346     		mov	r3, r0
 1511 0288 002B     		cmp	r3, #0
 1512 028a 00D0     		beq	.L73
 1513              		.loc 6 222 0 is_stmt 0 discriminator 1
 1514 028c 00BF     		nop
 1515              	.L73:
 1516              		.loc 6 223 0 is_stmt 1
 1517 028e 06B0     		add	sp, sp, #24
ARM GAS  /tmp/ccHTDbCd.s 			page 28


 1518              		@ sp needed
 1519 0290 10BD     		pop	{r4, pc}
 1520              	.L92:
 1521 0292 00BF     		.align	2
 1522              	.L91:
 1523 0294 00000000 		.word	oq
 1524 0298 00000000 		.word	.LC0
 1525 029c 00000000 		.word	wa
 1526 02a0 00000000 		.word	thread2
 1527 02a4 00000000 		.word	threads
 1528              		.cfi_endproc
 1529              	.LFE246:
 1530              		.size	queues2_execute, .-queues2_execute
 1531              		.global	testqueues2
 1532 02a8 AFF30080 		.section	.rodata
 1532      AFF30080 
 1533 001d 000000   		.align	2
 1534              	.LC2:
 1535 0020 51756575 		.ascii	"Queues, output queues\000"
 1535      65732C20 
 1535      6F757470 
 1535      75742071 
 1535      75657565 
 1536 0036 0000     		.section	.rodata.testqueues2,"a",%progbits
 1537              		.align	2
 1538              		.type	testqueues2, %object
 1539              		.size	testqueues2, 16
 1540              	testqueues2:
 1541 0000 20000000 		.word	.LC2
 1542 0004 00000000 		.word	queues2_setup
 1543 0008 00000000 		.word	0
 1544 000c 00000000 		.word	queues2_execute
 1545              		.global	patternqueues
 1546              		.section	.rodata.patternqueues,"a",%progbits
 1547              		.align	2
 1548              		.type	patternqueues, %object
 1549              		.size	patternqueues, 12
 1550              	patternqueues:
 1551 0000 00000000 		.word	testqueues1
 1552 0004 00000000 		.word	testqueues2
 1553 0008 00000000 		.word	0
 1554              		.section	.rodata.__func__.5925,"a",%progbits
 1555              		.align	2
 1556              		.type	__func__.5925, %object
 1557              		.size	__func__.5925, 12
 1558              	__func__.5925:
 1559 0000 63685379 		.ascii	"chSysUnlock\000"
 1559      73556E6C 
 1559      6F636B00 
 1560              		.text
 1561              	.Letext0:
 1562              		.file 7 "/usr/lib/gcc/arm-none-eabi/4.8/include/stddef.h"
 1563              		.file 8 "/usr/include/newlib/machine/_default_types.h"
 1564              		.file 9 "/usr/include/newlib/stdint.h"
 1565              		.file 10 "/home/efe/ChibiOS/os/rt/ports/ARMCMx/compilers/GCC/chtypes.h"
 1566              		.file 11 "/home/efe/ChibiOS/os/rt/include/chsystypes.h"
 1567              		.file 12 "/home/efe/ChibiOS/os/rt/include/chschd.h"
ARM GAS  /tmp/ccHTDbCd.s 			page 29


 1568              		.file 13 "/home/efe/ChibiOS/os/rt/ports/ARMCMx/chcore.h"
 1569              		.file 14 "/home/efe/ChibiOS/os/rt/include/chdebug.h"
 1570              		.file 15 "/home/efe/ChibiOS/os/rt/include/chtm.h"
 1571              		.file 16 "/home/efe/ChibiOS/os/rt/include/chstats.h"
 1572              		.file 17 "/home/efe/ChibiOS/os/rt/include/chsem.h"
 1573              		.file 18 "/home/efe/ChibiOS/os/rt/include/chmtx.h"
 1574              		.file 19 "/home/efe/ChibiOS/test/rt/test.h"
 1575              		.file 20 "/home/efe/ChibiOS/os/ext/CMSIS/include/core_cm4.h"