ARM GAS  /tmp/ccJR2hba.s 			page 1


   1              		.syntax unified
   2              		.cpu cortex-m4
   3              		.fpu softvfp
   4              		.eabi_attribute 20, 1
   5              		.eabi_attribute 21, 1
   6              		.eabi_attribute 23, 3
   7              		.eabi_attribute 24, 1
   8              		.eabi_attribute 25, 1
   9              		.eabi_attribute 26, 1
  10              		.eabi_attribute 30, 6
  11              		.eabi_attribute 34, 1
  12              		.eabi_attribute 18, 4
  13              		.thumb
  14              		.file	"testpools.c"
  15              		.text
  16              	.Ltext0:
  17              		.cfi_sections	.debug_frame
  18              		.section	.data.mp1,"aw",%progbits
  19              		.align	2
  20              		.type	mp1, %object
  21              		.size	mp1, 12
  22              	mp1:
  23 0000 00000000 		.word	0
  24 0004 68010000 		.word	360
  25 0008 00000000 		.word	0
  26              		.section	.text.null_provider,"ax",%progbits
  27              		.align	2
  28              		.p2align 4,,15
  29              		.thumb
  30              		.thumb_func
  31              		.type	null_provider, %function
  32              	null_provider:
  33              	.LFB240:
  34              		.file 1 "/home/efe/ChibiOS/test/rt/testpools.c"
  35              		.loc 1 60 0
  36              		.cfi_startproc
  37              		@ args = 0, pretend = 0, frame = 8
  38              		@ frame_needed = 0, uses_anonymous_args = 0
  39              		@ link register save eliminated.
  40 0000 82B0     		sub	sp, sp, #8
  41              		.cfi_def_cfa_offset 8
  42 0002 0190     		str	r0, [sp, #4]
  43              		.loc 1 63 0
  44 0004 0023     		movs	r3, #0
  45              		.loc 1 64 0
  46 0006 1846     		mov	r0, r3
  47 0008 02B0     		add	sp, sp, #8
  48              		@ sp needed
  49 000a 7047     		bx	lr
  50              		.cfi_endproc
  51              	.LFE240:
  52              		.size	null_provider, .-null_provider
  53 000c AFF30080 		.section	.text.pools1_setup,"ax",%progbits
  54              		.align	2
  55              		.p2align 4,,15
  56              		.thumb
  57              		.thumb_func
ARM GAS  /tmp/ccJR2hba.s 			page 2


  58              		.type	pools1_setup, %function
  59              	pools1_setup:
  60              	.LFB241:
  61              		.loc 1 66 0
  62              		.cfi_startproc
  63              		@ args = 0, pretend = 0, frame = 0
  64              		@ frame_needed = 0, uses_anonymous_args = 0
  65 0000 08B5     		push	{r3, lr}
  66              		.cfi_def_cfa_offset 8
  67              		.cfi_offset 3, -8
  68              		.cfi_offset 14, -4
  69              		.loc 1 68 0
  70 0002 0348     		ldr	r0, .L4
  71 0004 4FF4B471 		mov	r1, #360
  72 0008 0022     		movs	r2, #0
  73 000a FFF7FEFF 		bl	chPoolObjectInit
  74              		.loc 1 69 0
  75 000e 08BD     		pop	{r3, pc}
  76              	.L5:
  77              		.align	2
  78              	.L4:
  79 0010 00000000 		.word	mp1
  80              		.cfi_endproc
  81              	.LFE241:
  82              		.size	pools1_setup, .-pools1_setup
  83 0014 AFF30080 		.section	.text.pools1_execute,"ax",%progbits
  83      AFF30080 
  83      AFF30080 
  84              		.align	2
  85              		.p2align 4,,15
  86              		.thumb
  87              		.thumb_func
  88              		.type	pools1_execute, %function
  89              	pools1_execute:
  90              	.LFB242:
  91              		.loc 1 71 0
  92              		.cfi_startproc
  93              		@ args = 0, pretend = 0, frame = 8
  94              		@ frame_needed = 0, uses_anonymous_args = 0
  95 0000 00B5     		push	{lr}
  96              		.cfi_def_cfa_offset 4
  97              		.cfi_offset 14, -4
  98 0002 83B0     		sub	sp, sp, #12
  99              		.cfi_def_cfa_offset 16
 100              		.loc 1 75 0
 101 0004 434B     		ldr	r3, .L18
 102 0006 1B68     		ldr	r3, [r3]
 103 0008 4348     		ldr	r0, .L18+4
 104 000a 1946     		mov	r1, r3
 105 000c 0522     		movs	r2, #5
 106 000e FFF7FEFF 		bl	chPoolLoadArray
 107              		.loc 1 78 0
 108 0012 0023     		movs	r3, #0
 109 0014 0193     		str	r3, [sp, #4]
 110 0016 13E0     		b	.L7
 111              	.L10:
 112              		.loc 1 79 0
ARM GAS  /tmp/ccJR2hba.s 			page 3


 113 0018 3F48     		ldr	r0, .L18+4
 114 001a FFF7FEFF 		bl	chPoolAlloc
 115 001e 0346     		mov	r3, r0
 116 0020 002B     		cmp	r3, #0
 117 0022 0CBF     		ite	eq
 118 0024 0023     		moveq	r3, #0
 119 0026 0123     		movne	r3, #1
 120 0028 DBB2     		uxtb	r3, r3
 121 002a 0120     		movs	r0, #1
 122 002c 1946     		mov	r1, r3
 123 002e FFF7FEFF 		bl	_test_assert
 124 0032 0346     		mov	r3, r0
 125 0034 002B     		cmp	r3, #0
 126 0036 00D0     		beq	.L8
 127              		.loc 1 79 0 is_stmt 0 discriminator 1
 128 0038 68E0     		b	.L6
 129              	.L8:
 130              		.loc 1 78 0 is_stmt 1
 131 003a 019B     		ldr	r3, [sp, #4]
 132 003c 0133     		adds	r3, r3, #1
 133 003e 0193     		str	r3, [sp, #4]
 134              	.L7:
 135              		.loc 1 78 0 is_stmt 0 discriminator 1
 136 0040 019B     		ldr	r3, [sp, #4]
 137 0042 042B     		cmp	r3, #4
 138 0044 E8DD     		ble	.L10
 139              		.loc 1 82 0 is_stmt 1
 140 0046 3448     		ldr	r0, .L18+4
 141 0048 FFF7FEFF 		bl	chPoolAlloc
 142 004c 0346     		mov	r3, r0
 143 004e 002B     		cmp	r3, #0
 144 0050 14BF     		ite	ne
 145 0052 0023     		movne	r3, #0
 146 0054 0123     		moveq	r3, #1
 147 0056 DBB2     		uxtb	r3, r3
 148 0058 0220     		movs	r0, #2
 149 005a 1946     		mov	r1, r3
 150 005c FFF7FEFF 		bl	_test_assert
 151 0060 0346     		mov	r3, r0
 152 0062 002B     		cmp	r3, #0
 153 0064 00D0     		beq	.L11
 154              		.loc 1 82 0 is_stmt 0 discriminator 1
 155 0066 51E0     		b	.L6
 156              	.L11:
 157              		.loc 1 85 0 is_stmt 1
 158 0068 0023     		movs	r3, #0
 159 006a 0193     		str	r3, [sp, #4]
 160 006c 0AE0     		b	.L12
 161              	.L13:
 162              		.loc 1 86 0 discriminator 2
 163 006e 294B     		ldr	r3, .L18
 164 0070 019A     		ldr	r2, [sp, #4]
 165 0072 53F82230 		ldr	r3, [r3, r2, lsl #2]
 166 0076 2848     		ldr	r0, .L18+4
 167 0078 1946     		mov	r1, r3
 168 007a FFF7FEFF 		bl	chPoolFree
 169              		.loc 1 85 0 discriminator 2
ARM GAS  /tmp/ccJR2hba.s 			page 4


 170 007e 019B     		ldr	r3, [sp, #4]
 171 0080 0133     		adds	r3, r3, #1
 172 0082 0193     		str	r3, [sp, #4]
 173              	.L12:
 174              		.loc 1 85 0 is_stmt 0 discriminator 1
 175 0084 019B     		ldr	r3, [sp, #4]
 176 0086 042B     		cmp	r3, #4
 177 0088 F1DD     		ble	.L13
 178              		.loc 1 89 0 is_stmt 1
 179 008a 0023     		movs	r3, #0
 180 008c 0193     		str	r3, [sp, #4]
 181 008e 13E0     		b	.L14
 182              	.L16:
 183              		.loc 1 90 0
 184 0090 2148     		ldr	r0, .L18+4
 185 0092 FFF7FEFF 		bl	chPoolAlloc
 186 0096 0346     		mov	r3, r0
 187 0098 002B     		cmp	r3, #0
 188 009a 0CBF     		ite	eq
 189 009c 0023     		moveq	r3, #0
 190 009e 0123     		movne	r3, #1
 191 00a0 DBB2     		uxtb	r3, r3
 192 00a2 0320     		movs	r0, #3
 193 00a4 1946     		mov	r1, r3
 194 00a6 FFF7FEFF 		bl	_test_assert
 195 00aa 0346     		mov	r3, r0
 196 00ac 002B     		cmp	r3, #0
 197 00ae 00D0     		beq	.L15
 198              		.loc 1 90 0 is_stmt 0 discriminator 1
 199 00b0 2CE0     		b	.L6
 200              	.L15:
 201              		.loc 1 89 0 is_stmt 1
 202 00b2 019B     		ldr	r3, [sp, #4]
 203 00b4 0133     		adds	r3, r3, #1
 204 00b6 0193     		str	r3, [sp, #4]
 205              	.L14:
 206              		.loc 1 89 0 is_stmt 0 discriminator 1
 207 00b8 019B     		ldr	r3, [sp, #4]
 208 00ba 042B     		cmp	r3, #4
 209 00bc E8DD     		ble	.L16
 210              		.loc 1 93 0 is_stmt 1
 211 00be 1648     		ldr	r0, .L18+4
 212 00c0 FFF7FEFF 		bl	chPoolAlloc
 213 00c4 0346     		mov	r3, r0
 214 00c6 002B     		cmp	r3, #0
 215 00c8 14BF     		ite	ne
 216 00ca 0023     		movne	r3, #0
 217 00cc 0123     		moveq	r3, #1
 218 00ce DBB2     		uxtb	r3, r3
 219 00d0 0420     		movs	r0, #4
 220 00d2 1946     		mov	r1, r3
 221 00d4 FFF7FEFF 		bl	_test_assert
 222 00d8 0346     		mov	r3, r0
 223 00da 002B     		cmp	r3, #0
 224 00dc 00D0     		beq	.L17
 225              		.loc 1 93 0 is_stmt 0 discriminator 1
 226 00de 15E0     		b	.L6
ARM GAS  /tmp/ccJR2hba.s 			page 5


 227              	.L17:
 228              		.loc 1 96 0 is_stmt 1
 229 00e0 0D48     		ldr	r0, .L18+4
 230 00e2 1021     		movs	r1, #16
 231 00e4 0D4A     		ldr	r2, .L18+8
 232 00e6 FFF7FEFF 		bl	chPoolObjectInit
 233              		.loc 1 97 0
 234 00ea 0B48     		ldr	r0, .L18+4
 235 00ec FFF7FEFF 		bl	chPoolAlloc
 236 00f0 0346     		mov	r3, r0
 237 00f2 002B     		cmp	r3, #0
 238 00f4 14BF     		ite	ne
 239 00f6 0023     		movne	r3, #0
 240 00f8 0123     		moveq	r3, #1
 241 00fa DBB2     		uxtb	r3, r3
 242 00fc 0520     		movs	r0, #5
 243 00fe 1946     		mov	r1, r3
 244 0100 FFF7FEFF 		bl	_test_assert
 245 0104 0346     		mov	r3, r0
 246 0106 002B     		cmp	r3, #0
 247 0108 00D0     		beq	.L6
 248              		.loc 1 97 0 is_stmt 0 discriminator 1
 249 010a 00BF     		nop
 250              	.L6:
 251              		.loc 1 98 0 is_stmt 1
 252 010c 03B0     		add	sp, sp, #12
 253              		@ sp needed
 254 010e 5DF804FB 		ldr	pc, [sp], #4
 255              	.L19:
 256 0112 00BF     		.align	2
 257              	.L18:
 258 0114 00000000 		.word	wa
 259 0118 00000000 		.word	mp1
 260 011c 00000000 		.word	null_provider
 261              		.cfi_endproc
 262              	.LFE242:
 263              		.size	pools1_execute, .-pools1_execute
 264              		.global	testpools1
 265              		.section	.rodata
 266              		.align	2
 267              	.LC0:
 268 0000 4D656D6F 		.ascii	"Memory Pools, queue/dequeue\000"
 268      72792050 
 268      6F6F6C73 
 268      2C207175 
 268      6575652F 
 269              		.section	.rodata.testpools1,"a",%progbits
 270              		.align	2
 271              		.type	testpools1, %object
 272              		.size	testpools1, 16
 273              	testpools1:
 274 0000 00000000 		.word	.LC0
 275 0004 00000000 		.word	pools1_setup
 276 0008 00000000 		.word	0
 277 000c 00000000 		.word	pools1_execute
 278              		.global	patternpools
 279              		.section	.rodata.patternpools,"a",%progbits
ARM GAS  /tmp/ccJR2hba.s 			page 6


 280              		.align	2
 281              		.type	patternpools, %object
 282              		.size	patternpools, 8
 283              	patternpools:
 284 0000 00000000 		.word	testpools1
 285 0004 00000000 		.word	0
 286              		.text
 287              	.Letext0:
 288              		.file 2 "/usr/lib/gcc/arm-none-eabi/4.8/include/stddef.h"
 289              		.file 3 "/usr/include/newlib/machine/_default_types.h"
 290              		.file 4 "/usr/include/newlib/stdint.h"
 291              		.file 5 "/home/efe/ChibiOS/os/rt/ports/ARMCMx/compilers/GCC/chtypes.h"
 292              		.file 6 "/home/efe/ChibiOS/os/rt/include/chsystypes.h"
 293              		.file 7 "/home/efe/ChibiOS/os/rt/include/chschd.h"
 294              		.file 8 "/home/efe/ChibiOS/os/rt/ports/ARMCMx/chcore.h"
 295              		.file 9 "/home/efe/ChibiOS/os/rt/ports/ARMCMx/chcore_v7m.h"
 296              		.file 10 "/home/efe/ChibiOS/os/rt/include/chdebug.h"
 297              		.file 11 "/home/efe/ChibiOS/os/rt/include/chtm.h"
 298              		.file 12 "/home/efe/ChibiOS/os/rt/include/chstats.h"
 299              		.file 13 "/home/efe/ChibiOS/os/rt/include/chsem.h"
 300              		.file 14 "/home/efe/ChibiOS/os/rt/include/chmtx.h"
 301              		.file 15 "/home/efe/ChibiOS/os/rt/include/chmemcore.h"
 302              		.file 16 "/home/efe/ChibiOS/os/rt/include/chmempools.h"
 303              		.file 17 "/home/efe/ChibiOS/test/rt/test.h"
 304              		.file 18 "/home/efe/ChibiOS/os/ext/CMSIS/include/core_cm4.h"