ARM GAS  /tmp/ccNJMr1l.s 			page 1


   1              		.syntax unified
   2              		.cpu cortex-m4
   3              		.fpu softvfp
   4              		.eabi_attribute 20, 1
   5              		.eabi_attribute 21, 1
   6              		.eabi_attribute 23, 3
   7              		.eabi_attribute 24, 1
   8              		.eabi_attribute 25, 1
   9              		.eabi_attribute 26, 1
  10              		.eabi_attribute 30, 6
  11              		.eabi_attribute 34, 1
  12              		.eabi_attribute 18, 4
  13              		.thumb
  14              		.file	"testbmk.c"
  15              		.text
  16              	.Ltext0:
  17              		.cfi_sections	.debug_frame
  18              		.section	.text.port_lock,"ax",%progbits
  19              		.align	2
  20              		.p2align 4,,15
  21              		.thumb
  22              		.thumb_func
  23              		.type	port_lock, %function
  24              	port_lock:
  25              	.LFB127:
  26              		.file 1 "/home/efe/ChibiOS/os/rt/ports/ARMCMx/chcore_v7m.h"
  27              		.loc 1 456 0
  28              		.cfi_startproc
  29              		@ args = 0, pretend = 0, frame = 8
  30              		@ frame_needed = 0, uses_anonymous_args = 0
  31              		@ link register save eliminated.
  32 0000 82B0     		sub	sp, sp, #8
  33              		.cfi_def_cfa_offset 8
  34 0002 2023     		movs	r3, #32
  35 0004 0193     		str	r3, [sp, #4]
  36              	.LBB6:
  37              	.LBB7:
  38              		.file 2 "/home/efe/ChibiOS/os/ext/CMSIS/include/core_cmFunc.h"
  39              		.loc 2 548 0
  40 0006 019B     		ldr	r3, [sp, #4]
  41              	@ 548 "/home/efe/ChibiOS/os/ext/CMSIS/include/core_cmFunc.h" 1
  42 0008 83F31188 		MSR basepri, r3
  43              	@ 0 "" 2
  44              		.thumb
  45              	.LBE7:
  46              	.LBE6:
  47              		.loc 1 463 0
  48 000c 02B0     		add	sp, sp, #8
  49              		@ sp needed
  50 000e 7047     		bx	lr
  51              		.cfi_endproc
  52              	.LFE127:
  53              		.size	port_lock, .-port_lock
  54              		.section	.text.port_unlock,"ax",%progbits
  55              		.align	2
  56              		.p2align 4,,15
  57              		.thumb
ARM GAS  /tmp/ccNJMr1l.s 			page 2


  58              		.thumb_func
  59              		.type	port_unlock, %function
  60              	port_unlock:
  61              	.LFB128:
  62              		.loc 1 470 0
  63              		.cfi_startproc
  64              		@ args = 0, pretend = 0, frame = 8
  65              		@ frame_needed = 0, uses_anonymous_args = 0
  66              		@ link register save eliminated.
  67 0000 82B0     		sub	sp, sp, #8
  68              		.cfi_def_cfa_offset 8
  69 0002 0023     		movs	r3, #0
  70 0004 0193     		str	r3, [sp, #4]
  71              	.LBB8:
  72              	.LBB9:
  73              		.loc 2 548 0
  74 0006 019B     		ldr	r3, [sp, #4]
  75              	@ 548 "/home/efe/ChibiOS/os/ext/CMSIS/include/core_cmFunc.h" 1
  76 0008 83F31188 		MSR basepri, r3
  77              	@ 0 "" 2
  78              		.thumb
  79              	.LBE9:
  80              	.LBE8:
  81              		.loc 1 477 0
  82 000c 02B0     		add	sp, sp, #8
  83              		@ sp needed
  84 000e 7047     		bx	lr
  85              		.cfi_endproc
  86              	.LFE128:
  87              		.size	port_unlock, .-port_unlock
  88              		.section	.text.chSysLock,"ax",%progbits
  89              		.align	2
  90              		.p2align 4,,15
  91              		.thumb
  92              		.thumb_func
  93              		.type	chSysLock, %function
  94              	chSysLock:
  95              	.LFB167:
  96              		.file 3 "/home/efe/ChibiOS/os/rt/include/chsys.h"
  97              		.loc 3 346 0
  98              		.cfi_startproc
  99              		@ args = 0, pretend = 0, frame = 0
 100              		@ frame_needed = 0, uses_anonymous_args = 0
 101 0000 08B5     		push	{r3, lr}
 102              		.cfi_def_cfa_offset 8
 103              		.cfi_offset 3, -8
 104              		.cfi_offset 14, -4
 105              		.loc 3 348 0
 106 0002 FFF7FEFF 		bl	port_lock
 107              		.loc 3 349 0
 108 0006 FFF7FEFF 		bl	_stats_start_measure_crit_thd
 109              		.loc 3 350 0
 110 000a FFF7FEFF 		bl	_dbg_check_lock
 111              		.loc 3 351 0
 112 000e 08BD     		pop	{r3, pc}
 113              		.cfi_endproc
 114              	.LFE167:
ARM GAS  /tmp/ccNJMr1l.s 			page 3


 115              		.size	chSysLock, .-chSysLock
 116              		.section	.text.chSysUnlock,"ax",%progbits
 117              		.align	2
 118              		.p2align 4,,15
 119              		.thumb
 120              		.thumb_func
 121              		.type	chSysUnlock, %function
 122              	chSysUnlock:
 123              	.LFB168:
 124              		.loc 3 358 0
 125              		.cfi_startproc
 126              		@ args = 0, pretend = 0, frame = 0
 127              		@ frame_needed = 0, uses_anonymous_args = 0
 128 0000 08B5     		push	{r3, lr}
 129              		.cfi_def_cfa_offset 8
 130              		.cfi_offset 3, -8
 131              		.cfi_offset 14, -4
 132              		.loc 3 360 0
 133 0002 FFF7FEFF 		bl	_dbg_check_unlock
 134              		.loc 3 361 0
 135 0006 FFF7FEFF 		bl	_stats_stop_measure_crit_thd
 136              		.loc 3 367 0
 137 000a 094B     		ldr	r3, .L6
 138 000c 1A68     		ldr	r2, [r3]
 139 000e 084B     		ldr	r3, .L6
 140 0010 9A42     		cmp	r2, r3
 141 0012 0AD0     		beq	.L5
 142              		.loc 3 367 0 is_stmt 0 discriminator 1
 143 0014 064B     		ldr	r3, .L6
 144 0016 9B69     		ldr	r3, [r3, #24]
 145 0018 9A68     		ldr	r2, [r3, #8]
 146 001a 054B     		ldr	r3, .L6
 147 001c 1B68     		ldr	r3, [r3]
 148 001e 9B68     		ldr	r3, [r3, #8]
 149 0020 9A42     		cmp	r2, r3
 150 0022 02D2     		bcs	.L5
 151 0024 0348     		ldr	r0, .L6+4
 152 0026 FFF7FEFF 		bl	chSysHalt
 153              	.L5:
 154              		.loc 3 371 0 is_stmt 1
 155 002a FFF7FEFF 		bl	port_unlock
 156              		.loc 3 372 0
 157 002e 08BD     		pop	{r3, pc}
 158              	.L7:
 159              		.align	2
 160              	.L6:
 161 0030 00000000 		.word	ch
 162 0034 00000000 		.word	__func__.5925
 163              		.cfi_endproc
 164              	.LFE168:
 165              		.size	chSysUnlock, .-chSysUnlock
 166 0038 AFF30080 		.section	.text.chThdGetSelfX,"ax",%progbits
 166      AFF30080 
 167              		.align	2
 168              		.p2align 4,,15
 169              		.thumb
 170              		.thumb_func
ARM GAS  /tmp/ccNJMr1l.s 			page 4


 171              		.type	chThdGetSelfX, %function
 172              	chThdGetSelfX:
 173              	.LFB188:
 174              		.file 4 "/home/efe/ChibiOS/os/rt/include/chthreads.h"
 175              		.loc 4 174 0
 176              		.cfi_startproc
 177              		@ args = 0, pretend = 0, frame = 0
 178              		@ frame_needed = 0, uses_anonymous_args = 0
 179              		@ link register save eliminated.
 180              		.loc 4 176 0
 181 0000 014B     		ldr	r3, .L10
 182 0002 9B69     		ldr	r3, [r3, #24]
 183              		.loc 4 177 0
 184 0004 1846     		mov	r0, r3
 185 0006 7047     		bx	lr
 186              	.L11:
 187              		.align	2
 188              	.L10:
 189 0008 00000000 		.word	ch
 190              		.cfi_endproc
 191              	.LFE188:
 192              		.size	chThdGetSelfX, .-chThdGetSelfX
 193 000c AFF30080 		.section	.text.chThdGetPriorityX,"ax",%progbits
 194              		.align	2
 195              		.p2align 4,,15
 196              		.thumb
 197              		.thumb_func
 198              		.type	chThdGetPriorityX, %function
 199              	chThdGetPriorityX:
 200              	.LFB189:
 201              		.loc 4 187 0
 202              		.cfi_startproc
 203              		@ args = 0, pretend = 0, frame = 0
 204              		@ frame_needed = 0, uses_anonymous_args = 0
 205 0000 08B5     		push	{r3, lr}
 206              		.cfi_def_cfa_offset 8
 207              		.cfi_offset 3, -8
 208              		.cfi_offset 14, -4
 209              		.loc 4 189 0
 210 0002 FFF7FEFF 		bl	chThdGetSelfX
 211 0006 0346     		mov	r3, r0
 212 0008 9B68     		ldr	r3, [r3, #8]
 213              		.loc 4 190 0
 214 000a 1846     		mov	r0, r3
 215 000c 08BD     		pop	{r3, pc}
 216              		.cfi_endproc
 217              	.LFE189:
 218              		.size	chThdGetPriorityX, .-chThdGetPriorityX
 219 000e 00BF     		.section	.text.chThdShouldTerminateX,"ax",%progbits
 220              		.align	2
 221              		.p2align 4,,15
 222              		.thumb
 223              		.thumb_func
 224              		.type	chThdShouldTerminateX, %function
 225              	chThdShouldTerminateX:
 226              	.LFB191:
 227              		.loc 4 231 0
ARM GAS  /tmp/ccNJMr1l.s 			page 5


 228              		.cfi_startproc
 229              		@ args = 0, pretend = 0, frame = 0
 230              		@ frame_needed = 0, uses_anonymous_args = 0
 231 0000 08B5     		push	{r3, lr}
 232              		.cfi_def_cfa_offset 8
 233              		.cfi_offset 3, -8
 234              		.cfi_offset 14, -4
 235              		.loc 4 233 0
 236 0002 FFF7FEFF 		bl	chThdGetSelfX
 237 0006 0346     		mov	r3, r0
 238 0008 93F82130 		ldrb	r3, [r3, #33]	@ zero_extendqisi2
 239 000c 03F00403 		and	r3, r3, #4
 240 0010 002B     		cmp	r3, #0
 241 0012 0CBF     		ite	eq
 242 0014 0023     		moveq	r3, #0
 243 0016 0123     		movne	r3, #1
 244 0018 DBB2     		uxtb	r3, r3
 245              		.loc 4 234 0
 246 001a 1846     		mov	r0, r3
 247 001c 08BD     		pop	{r3, pc}
 248              		.cfi_endproc
 249              	.LFE191:
 250              		.size	chThdShouldTerminateX, .-chThdShouldTerminateX
 251 001e 00BF     		.section	.text.chMsgGet,"ax",%progbits
 252              		.align	2
 253              		.p2align 4,,15
 254              		.thumb
 255              		.thumb_func
 256              		.type	chMsgGet, %function
 257              	chMsgGet:
 258              	.LFB222:
 259              		.file 5 "/home/efe/ChibiOS/os/rt/include/chmsg.h"
 260              		.loc 5 96 0
 261              		.cfi_startproc
 262              		@ args = 0, pretend = 0, frame = 8
 263              		@ frame_needed = 0, uses_anonymous_args = 0
 264              		@ link register save eliminated.
 265 0000 82B0     		sub	sp, sp, #8
 266              		.cfi_def_cfa_offset 8
 267 0002 0190     		str	r0, [sp, #4]
 268              		.loc 5 98 0
 269 0004 019B     		ldr	r3, [sp, #4]
 270 0006 5B6B     		ldr	r3, [r3, #52]
 271              		.loc 5 99 0
 272 0008 1846     		mov	r0, r3
 273 000a 02B0     		add	sp, sp, #8
 274              		@ sp needed
 275 000c 7047     		bx	lr
 276              		.cfi_endproc
 277              	.LFE222:
 278              		.size	chMsgGet, .-chMsgGet
 279 000e 00BF     		.section	.text.chIQGet,"ax",%progbits
 280              		.align	2
 281              		.p2align 4,,15
 282              		.thumb
 283              		.thumb_func
 284              		.type	chIQGet, %function
ARM GAS  /tmp/ccNJMr1l.s 			page 6


 285              	chIQGet:
 286              	.LFB234:
 287              		.file 6 "/home/efe/ChibiOS/os/rt/include/chqueues.h"
 288              		.loc 6 339 0
 289              		.cfi_startproc
 290              		@ args = 0, pretend = 0, frame = 8
 291              		@ frame_needed = 0, uses_anonymous_args = 0
 292 0000 00B5     		push	{lr}
 293              		.cfi_def_cfa_offset 4
 294              		.cfi_offset 14, -4
 295 0002 83B0     		sub	sp, sp, #12
 296              		.cfi_def_cfa_offset 16
 297 0004 0190     		str	r0, [sp, #4]
 298              		.loc 6 341 0
 299 0006 0198     		ldr	r0, [sp, #4]
 300 0008 4FF0FF31 		mov	r1, #-1
 301 000c FFF7FEFF 		bl	chIQGetTimeout
 302 0010 0346     		mov	r3, r0
 303              		.loc 6 342 0
 304 0012 1846     		mov	r0, r3
 305 0014 03B0     		add	sp, sp, #12
 306              		@ sp needed
 307 0016 5DF804FB 		ldr	pc, [sp], #4
 308              		.cfi_endproc
 309              	.LFE234:
 310              		.size	chIQGet, .-chIQGet
 311 001a 00BFAFF3 		.section	.bss.sem1,"aw",%nobits
 311      0080
 312              		.align	2
 313              		.type	sem1, %object
 314              		.size	sem1, 12
 315              	sem1:
 316 0000 00000000 		.space	12
 316      00000000 
 316      00000000 
 317              		.section	.bss.mtx1,"aw",%nobits
 318              		.align	2
 319              		.type	mtx1, %object
 320              		.size	mtx1, 16
 321              	mtx1:
 322 0000 00000000 		.space	16
 322      00000000 
 322      00000000 
 322      00000000 
 323              		.section	.text.thread1,"ax",%progbits
 324              		.align	2
 325              		.p2align 4,,15
 326              		.thumb
 327              		.thumb_func
 328              		.type	thread1, %function
 329              	thread1:
 330              	.LFB240:
 331              		.file 7 "/home/efe/ChibiOS/test/rt/testbmk.c"
 332              		.loc 7 66 0
 333              		.cfi_startproc
 334              		@ args = 0, pretend = 0, frame = 8
 335              		@ frame_needed = 0, uses_anonymous_args = 0
ARM GAS  /tmp/ccNJMr1l.s 			page 7


 336 0000 00B5     		push	{lr}
 337              		.cfi_def_cfa_offset 4
 338              		.cfi_offset 14, -4
 339 0002 83B0     		sub	sp, sp, #12
 340              		.cfi_def_cfa_offset 16
 341 0004 0190     		str	r0, [sp, #4]
 342              		.loc 7 68 0
 343 0006 019B     		ldr	r3, [sp, #4]
 344 0008 1846     		mov	r0, r3
 345 000a FFF7FEFF 		bl	chThdExit
 346              		.loc 7 69 0
 347 000e 03B0     		add	sp, sp, #12
 348              		@ sp needed
 349 0010 5DF804FB 		ldr	pc, [sp], #4
 350              		.cfi_endproc
 351              	.LFE240:
 352              		.size	thread1, .-thread1
 353 0014 AFF30080 		.section	.text.thread2,"ax",%progbits
 353      AFF30080 
 353      AFF30080 
 354              		.align	2
 355              		.p2align 4,,15
 356              		.thumb
 357              		.thumb_func
 358              		.type	thread2, %function
 359              	thread2:
 360              	.LFB241:
 361              		.loc 7 72 0
 362              		.cfi_startproc
 363              		@ args = 0, pretend = 0, frame = 16
 364              		@ frame_needed = 0, uses_anonymous_args = 0
 365 0000 00B5     		push	{lr}
 366              		.cfi_def_cfa_offset 4
 367              		.cfi_offset 14, -4
 368 0002 85B0     		sub	sp, sp, #20
 369              		.cfi_def_cfa_offset 24
 370 0004 0190     		str	r0, [sp, #4]
 371              	.L22:
 372              		.loc 7 78 0 discriminator 1
 373 0006 FFF7FEFF 		bl	chMsgWait
 374 000a 0390     		str	r0, [sp, #12]
 375              		.loc 7 79 0 discriminator 1
 376 000c 0398     		ldr	r0, [sp, #12]
 377 000e FFF7FEFF 		bl	chMsgGet
 378 0012 0290     		str	r0, [sp, #8]
 379              		.loc 7 80 0 discriminator 1
 380 0014 0398     		ldr	r0, [sp, #12]
 381 0016 0299     		ldr	r1, [sp, #8]
 382 0018 FFF7FEFF 		bl	chMsgRelease
 383              		.loc 7 81 0 discriminator 1
 384 001c 029B     		ldr	r3, [sp, #8]
 385 001e 002B     		cmp	r3, #0
 386 0020 F1D1     		bne	.L22
 387              		.loc 7 82 0
 388 0022 05B0     		add	sp, sp, #20
 389              		@ sp needed
 390 0024 5DF804FB 		ldr	pc, [sp], #4
ARM GAS  /tmp/ccNJMr1l.s 			page 8


 391              		.cfi_endproc
 392              	.LFE241:
 393              		.size	thread2, .-thread2
 394 0028 AFF30080 		.section	.text.msg_loop_test,"ax",%progbits
 394      AFF30080 
 395              		.align	2
 396              		.p2align 4,,15
 397              		.thumb
 398              		.thumb_func
 399              		.type	msg_loop_test, %function
 400              	msg_loop_test:
 401              	.LFB242:
 402              		.loc 7 87 0
 403              		.cfi_startproc
 404              		@ args = 0, pretend = 0, frame = 16
 405              		@ frame_needed = 0, uses_anonymous_args = 0
 406 0000 00B5     		push	{lr}
 407              		.cfi_def_cfa_offset 4
 408              		.cfi_offset 14, -4
 409 0002 85B0     		sub	sp, sp, #20
 410              		.cfi_def_cfa_offset 24
 411 0004 0190     		str	r0, [sp, #4]
 412              		.loc 7 89 0
 413 0006 0023     		movs	r3, #0
 414 0008 0393     		str	r3, [sp, #12]
 415              		.loc 7 90 0
 416 000a FFF7FEFF 		bl	test_wait_tick
 417              		.loc 7 91 0
 418 000e 4FF47A70 		mov	r0, #1000
 419 0012 FFF7FEFF 		bl	test_start_timer
 420              	.L24:
 421              		.loc 7 93 0 discriminator 1
 422 0016 0198     		ldr	r0, [sp, #4]
 423 0018 0121     		movs	r1, #1
 424 001a FFF7FEFF 		bl	chMsgSend
 425              		.loc 7 94 0 discriminator 1
 426 001e 039B     		ldr	r3, [sp, #12]
 427 0020 0133     		adds	r3, r3, #1
 428 0022 0393     		str	r3, [sp, #12]
 429              		.loc 7 98 0 discriminator 1
 430 0024 074B     		ldr	r3, .L26
 431 0026 1B78     		ldrb	r3, [r3]	@ zero_extendqisi2
 432 0028 83F00103 		eor	r3, r3, #1
 433 002c DBB2     		uxtb	r3, r3
 434 002e 002B     		cmp	r3, #0
 435 0030 F1D1     		bne	.L24
 436              		.loc 7 99 0
 437 0032 0198     		ldr	r0, [sp, #4]
 438 0034 0021     		movs	r1, #0
 439 0036 FFF7FEFF 		bl	chMsgSend
 440              		.loc 7 100 0
 441 003a 039B     		ldr	r3, [sp, #12]
 442              		.loc 7 101 0
 443 003c 1846     		mov	r0, r3
 444 003e 05B0     		add	sp, sp, #20
 445              		@ sp needed
 446 0040 5DF804FB 		ldr	pc, [sp], #4
ARM GAS  /tmp/ccNJMr1l.s 			page 9


 447              	.L27:
 448              		.align	2
 449              	.L26:
 450 0044 00000000 		.word	test_timer_done
 451              		.cfi_endproc
 452              	.LFE242:
 453              		.size	msg_loop_test, .-msg_loop_test
 454 0048 AFF30080 		.section	.rodata
 454      AFF30080 
 455              		.align	2
 456              	.LC0:
 457 0000 2D2D2D20 		.ascii	"--- Score : \000"
 457      53636F72 
 457      65203A20 
 457      00
 458 000d 000000   		.align	2
 459              	.LC1:
 460 0010 206D7367 		.ascii	" msgs/S, \000"
 460      732F532C 
 460      2000
 461 001a 0000     		.align	2
 462              	.LC2:
 463 001c 20637478 		.ascii	" ctxswc/S\000"
 463      7377632F 
 463      5300
 464              		.section	.text.bmk1_execute,"ax",%progbits
 465              		.align	2
 466              		.p2align 4,,15
 467              		.thumb
 468              		.thumb_func
 469              		.type	bmk1_execute, %function
 470              	bmk1_execute:
 471              	.LFB243:
 472              		.loc 7 112 0
 473              		.cfi_startproc
 474              		@ args = 0, pretend = 0, frame = 8
 475              		@ frame_needed = 0, uses_anonymous_args = 0
 476 0000 10B5     		push	{r4, lr}
 477              		.cfi_def_cfa_offset 8
 478              		.cfi_offset 4, -8
 479              		.cfi_offset 14, -4
 480 0002 84B0     		sub	sp, sp, #16
 481              		.cfi_def_cfa_offset 24
 482              		.loc 7 115 0
 483 0004 164B     		ldr	r3, .L29
 484 0006 1C68     		ldr	r4, [r3]
 485 0008 FFF7FEFF 		bl	chThdGetPriorityX
 486 000c 0346     		mov	r3, r0
 487 000e 013B     		subs	r3, r3, #1
 488 0010 0022     		movs	r2, #0
 489 0012 0092     		str	r2, [sp]
 490 0014 2046     		mov	r0, r4
 491 0016 4FF4B471 		mov	r1, #360
 492 001a 1A46     		mov	r2, r3
 493 001c 114B     		ldr	r3, .L29+4
 494 001e FFF7FEFF 		bl	chThdCreateStatic
 495 0022 0246     		mov	r2, r0
ARM GAS  /tmp/ccNJMr1l.s 			page 10


 496 0024 104B     		ldr	r3, .L29+8
 497 0026 1A60     		str	r2, [r3]
 498              		.loc 7 116 0
 499 0028 0F4B     		ldr	r3, .L29+8
 500 002a 1B68     		ldr	r3, [r3]
 501 002c 1846     		mov	r0, r3
 502 002e FFF7FEFF 		bl	msg_loop_test
 503 0032 0390     		str	r0, [sp, #12]
 504              		.loc 7 117 0
 505 0034 FFF7FEFF 		bl	test_wait_threads
 506              		.loc 7 118 0
 507 0038 0C48     		ldr	r0, .L29+12
 508 003a FFF7FEFF 		bl	test_print
 509              		.loc 7 119 0
 510 003e 0398     		ldr	r0, [sp, #12]
 511 0040 FFF7FEFF 		bl	test_printn
 512              		.loc 7 120 0
 513 0044 0A48     		ldr	r0, .L29+16
 514 0046 FFF7FEFF 		bl	test_print
 515              		.loc 7 121 0
 516 004a 039B     		ldr	r3, [sp, #12]
 517 004c 5B00     		lsls	r3, r3, #1
 518 004e 1846     		mov	r0, r3
 519 0050 FFF7FEFF 		bl	test_printn
 520              		.loc 7 122 0
 521 0054 0748     		ldr	r0, .L29+20
 522 0056 FFF7FEFF 		bl	test_println
 523              		.loc 7 123 0
 524 005a 04B0     		add	sp, sp, #16
 525              		@ sp needed
 526 005c 10BD     		pop	{r4, pc}
 527              	.L30:
 528 005e 00BF     		.align	2
 529              	.L29:
 530 0060 00000000 		.word	wa
 531 0064 00000000 		.word	thread2
 532 0068 00000000 		.word	threads
 533 006c 00000000 		.word	.LC0
 534 0070 10000000 		.word	.LC1
 535 0074 1C000000 		.word	.LC2
 536              		.cfi_endproc
 537              	.LFE243:
 538              		.size	bmk1_execute, .-bmk1_execute
 539              		.global	testbmk1
 540 0078 AFF30080 		.section	.rodata
 540      AFF30080 
 541 0026 0000     		.align	2
 542              	.LC3:
 543 0028 42656E63 		.ascii	"Benchmark, messages #1\000"
 543      686D6172 
 543      6B2C206D 
 543      65737361 
 543      67657320 
 544              		.section	.rodata.testbmk1,"a",%progbits
 545              		.align	2
 546              		.type	testbmk1, %object
 547              		.size	testbmk1, 16
ARM GAS  /tmp/ccNJMr1l.s 			page 11


 548              	testbmk1:
 549 0000 28000000 		.word	.LC3
 550 0004 00000000 		.word	0
 551 0008 00000000 		.word	0
 552 000c 00000000 		.word	bmk1_execute
 553              		.section	.text.bmk2_execute,"ax",%progbits
 554              		.align	2
 555              		.p2align 4,,15
 556              		.thumb
 557              		.thumb_func
 558              		.type	bmk2_execute, %function
 559              	bmk2_execute:
 560              	.LFB244:
 561              		.loc 7 141 0
 562              		.cfi_startproc
 563              		@ args = 0, pretend = 0, frame = 8
 564              		@ frame_needed = 0, uses_anonymous_args = 0
 565 0000 10B5     		push	{r4, lr}
 566              		.cfi_def_cfa_offset 8
 567              		.cfi_offset 4, -8
 568              		.cfi_offset 14, -4
 569 0002 84B0     		sub	sp, sp, #16
 570              		.cfi_def_cfa_offset 24
 571              		.loc 7 144 0
 572 0004 164B     		ldr	r3, .L32
 573 0006 1C68     		ldr	r4, [r3]
 574 0008 FFF7FEFF 		bl	chThdGetPriorityX
 575 000c 0346     		mov	r3, r0
 576 000e 0133     		adds	r3, r3, #1
 577 0010 0022     		movs	r2, #0
 578 0012 0092     		str	r2, [sp]
 579 0014 2046     		mov	r0, r4
 580 0016 4FF4B471 		mov	r1, #360
 581 001a 1A46     		mov	r2, r3
 582 001c 114B     		ldr	r3, .L32+4
 583 001e FFF7FEFF 		bl	chThdCreateStatic
 584 0022 0246     		mov	r2, r0
 585 0024 104B     		ldr	r3, .L32+8
 586 0026 1A60     		str	r2, [r3]
 587              		.loc 7 145 0
 588 0028 0F4B     		ldr	r3, .L32+8
 589 002a 1B68     		ldr	r3, [r3]
 590 002c 1846     		mov	r0, r3
 591 002e FFF7FEFF 		bl	msg_loop_test
 592 0032 0390     		str	r0, [sp, #12]
 593              		.loc 7 146 0
 594 0034 FFF7FEFF 		bl	test_wait_threads
 595              		.loc 7 147 0
 596 0038 0C48     		ldr	r0, .L32+12
 597 003a FFF7FEFF 		bl	test_print
 598              		.loc 7 148 0
 599 003e 0398     		ldr	r0, [sp, #12]
 600 0040 FFF7FEFF 		bl	test_printn
 601              		.loc 7 149 0
 602 0044 0A48     		ldr	r0, .L32+16
 603 0046 FFF7FEFF 		bl	test_print
 604              		.loc 7 150 0
ARM GAS  /tmp/ccNJMr1l.s 			page 12


 605 004a 039B     		ldr	r3, [sp, #12]
 606 004c 5B00     		lsls	r3, r3, #1
 607 004e 1846     		mov	r0, r3
 608 0050 FFF7FEFF 		bl	test_printn
 609              		.loc 7 151 0
 610 0054 0748     		ldr	r0, .L32+20
 611 0056 FFF7FEFF 		bl	test_println
 612              		.loc 7 152 0
 613 005a 04B0     		add	sp, sp, #16
 614              		@ sp needed
 615 005c 10BD     		pop	{r4, pc}
 616              	.L33:
 617 005e 00BF     		.align	2
 618              	.L32:
 619 0060 00000000 		.word	wa
 620 0064 00000000 		.word	thread2
 621 0068 00000000 		.word	threads
 622 006c 00000000 		.word	.LC0
 623 0070 10000000 		.word	.LC1
 624 0074 1C000000 		.word	.LC2
 625              		.cfi_endproc
 626              	.LFE244:
 627              		.size	bmk2_execute, .-bmk2_execute
 628              		.global	testbmk2
 629 0078 AFF30080 		.section	.rodata
 629      AFF30080 
 630 003f 00       		.align	2
 631              	.LC4:
 632 0040 42656E63 		.ascii	"Benchmark, messages #2\000"
 632      686D6172 
 632      6B2C206D 
 632      65737361 
 632      67657320 
 633              		.section	.rodata.testbmk2,"a",%progbits
 634              		.align	2
 635              		.type	testbmk2, %object
 636              		.size	testbmk2, 16
 637              	testbmk2:
 638 0000 40000000 		.word	.LC4
 639 0004 00000000 		.word	0
 640 0008 00000000 		.word	0
 641 000c 00000000 		.word	bmk2_execute
 642              		.section	.text.bmk3_execute,"ax",%progbits
 643              		.align	2
 644              		.p2align 4,,15
 645              		.thumb
 646              		.thumb_func
 647              		.type	bmk3_execute, %function
 648              	bmk3_execute:
 649              	.LFB245:
 650              		.loc 7 171 0
 651              		.cfi_startproc
 652              		@ args = 0, pretend = 0, frame = 8
 653              		@ frame_needed = 0, uses_anonymous_args = 0
 654 0000 10B5     		push	{r4, lr}
 655              		.cfi_def_cfa_offset 8
 656              		.cfi_offset 4, -8
ARM GAS  /tmp/ccNJMr1l.s 			page 13


 657              		.cfi_offset 14, -4
 658 0002 84B0     		sub	sp, sp, #16
 659              		.cfi_def_cfa_offset 24
 660              		.loc 7 174 0
 661 0004 3A4B     		ldr	r3, .L35
 662 0006 1C68     		ldr	r4, [r3]
 663 0008 FFF7FEFF 		bl	chThdGetPriorityX
 664 000c 0346     		mov	r3, r0
 665 000e 0133     		adds	r3, r3, #1
 666 0010 0022     		movs	r2, #0
 667 0012 0092     		str	r2, [sp]
 668 0014 2046     		mov	r0, r4
 669 0016 4FF4B471 		mov	r1, #360
 670 001a 1A46     		mov	r2, r3
 671 001c 354B     		ldr	r3, .L35+4
 672 001e FFF7FEFF 		bl	chThdCreateStatic
 673 0022 0246     		mov	r2, r0
 674 0024 344B     		ldr	r3, .L35+8
 675 0026 1A60     		str	r2, [r3]
 676              		.loc 7 175 0
 677 0028 314B     		ldr	r3, .L35
 678 002a 5C68     		ldr	r4, [r3, #4]
 679 002c FFF7FEFF 		bl	chThdGetPriorityX
 680 0030 0346     		mov	r3, r0
 681 0032 023B     		subs	r3, r3, #2
 682 0034 0022     		movs	r2, #0
 683 0036 0092     		str	r2, [sp]
 684 0038 2046     		mov	r0, r4
 685 003a 4FF4B471 		mov	r1, #360
 686 003e 1A46     		mov	r2, r3
 687 0040 2E4B     		ldr	r3, .L35+12
 688 0042 FFF7FEFF 		bl	chThdCreateStatic
 689 0046 0246     		mov	r2, r0
 690 0048 2B4B     		ldr	r3, .L35+8
 691 004a 5A60     		str	r2, [r3, #4]
 692              		.loc 7 176 0
 693 004c 284B     		ldr	r3, .L35
 694 004e 9C68     		ldr	r4, [r3, #8]
 695 0050 FFF7FEFF 		bl	chThdGetPriorityX
 696 0054 0346     		mov	r3, r0
 697 0056 033B     		subs	r3, r3, #3
 698 0058 0022     		movs	r2, #0
 699 005a 0092     		str	r2, [sp]
 700 005c 2046     		mov	r0, r4
 701 005e 4FF4B471 		mov	r1, #360
 702 0062 1A46     		mov	r2, r3
 703 0064 254B     		ldr	r3, .L35+12
 704 0066 FFF7FEFF 		bl	chThdCreateStatic
 705 006a 0246     		mov	r2, r0
 706 006c 224B     		ldr	r3, .L35+8
 707 006e 9A60     		str	r2, [r3, #8]
 708              		.loc 7 177 0
 709 0070 1F4B     		ldr	r3, .L35
 710 0072 DC68     		ldr	r4, [r3, #12]
 711 0074 FFF7FEFF 		bl	chThdGetPriorityX
 712 0078 0346     		mov	r3, r0
 713 007a 043B     		subs	r3, r3, #4
ARM GAS  /tmp/ccNJMr1l.s 			page 14


 714 007c 0022     		movs	r2, #0
 715 007e 0092     		str	r2, [sp]
 716 0080 2046     		mov	r0, r4
 717 0082 4FF4B471 		mov	r1, #360
 718 0086 1A46     		mov	r2, r3
 719 0088 1C4B     		ldr	r3, .L35+12
 720 008a FFF7FEFF 		bl	chThdCreateStatic
 721 008e 0246     		mov	r2, r0
 722 0090 194B     		ldr	r3, .L35+8
 723 0092 DA60     		str	r2, [r3, #12]
 724              		.loc 7 178 0
 725 0094 164B     		ldr	r3, .L35
 726 0096 1C69     		ldr	r4, [r3, #16]
 727 0098 FFF7FEFF 		bl	chThdGetPriorityX
 728 009c 0346     		mov	r3, r0
 729 009e 053B     		subs	r3, r3, #5
 730 00a0 0022     		movs	r2, #0
 731 00a2 0092     		str	r2, [sp]
 732 00a4 2046     		mov	r0, r4
 733 00a6 4FF4B471 		mov	r1, #360
 734 00aa 1A46     		mov	r2, r3
 735 00ac 134B     		ldr	r3, .L35+12
 736 00ae FFF7FEFF 		bl	chThdCreateStatic
 737 00b2 0246     		mov	r2, r0
 738 00b4 104B     		ldr	r3, .L35+8
 739 00b6 1A61     		str	r2, [r3, #16]
 740              		.loc 7 179 0
 741 00b8 0F4B     		ldr	r3, .L35+8
 742 00ba 1B68     		ldr	r3, [r3]
 743 00bc 1846     		mov	r0, r3
 744 00be FFF7FEFF 		bl	msg_loop_test
 745 00c2 0390     		str	r0, [sp, #12]
 746              		.loc 7 180 0
 747 00c4 FFF7FEFF 		bl	test_wait_threads
 748              		.loc 7 181 0
 749 00c8 0D48     		ldr	r0, .L35+16
 750 00ca FFF7FEFF 		bl	test_print
 751              		.loc 7 182 0
 752 00ce 0398     		ldr	r0, [sp, #12]
 753 00d0 FFF7FEFF 		bl	test_printn
 754              		.loc 7 183 0
 755 00d4 0B48     		ldr	r0, .L35+20
 756 00d6 FFF7FEFF 		bl	test_print
 757              		.loc 7 184 0
 758 00da 039B     		ldr	r3, [sp, #12]
 759 00dc 5B00     		lsls	r3, r3, #1
 760 00de 1846     		mov	r0, r3
 761 00e0 FFF7FEFF 		bl	test_printn
 762              		.loc 7 185 0
 763 00e4 0848     		ldr	r0, .L35+24
 764 00e6 FFF7FEFF 		bl	test_println
 765              		.loc 7 186 0
 766 00ea 04B0     		add	sp, sp, #16
 767              		@ sp needed
 768 00ec 10BD     		pop	{r4, pc}
 769              	.L36:
 770 00ee 00BF     		.align	2
ARM GAS  /tmp/ccNJMr1l.s 			page 15


 771              	.L35:
 772 00f0 00000000 		.word	wa
 773 00f4 00000000 		.word	thread2
 774 00f8 00000000 		.word	threads
 775 00fc 00000000 		.word	thread1
 776 0100 00000000 		.word	.LC0
 777 0104 10000000 		.word	.LC1
 778 0108 1C000000 		.word	.LC2
 779              		.cfi_endproc
 780              	.LFE245:
 781              		.size	bmk3_execute, .-bmk3_execute
 782              		.global	testbmk3
 783 010c AFF30080 		.section	.rodata
 784 0057 00       		.align	2
 785              	.LC5:
 786 0058 42656E63 		.ascii	"Benchmark, messages #3\000"
 786      686D6172 
 786      6B2C206D 
 786      65737361 
 786      67657320 
 787              		.section	.rodata.testbmk3,"a",%progbits
 788              		.align	2
 789              		.type	testbmk3, %object
 790              		.size	testbmk3, 16
 791              	testbmk3:
 792 0000 58000000 		.word	.LC5
 793 0004 00000000 		.word	0
 794 0008 00000000 		.word	0
 795 000c 00000000 		.word	bmk3_execute
 796              		.section	.text.thread4,"ax",%progbits
 797              		.align	2
 798              		.p2align 4,,15
 799              		.thumb
 800              		.thumb_func
 801              		.type	thread4, %function
 802              	thread4:
 803              	.LFB246:
 804              		.loc 7 206 0
 805              		.cfi_startproc
 806              		@ args = 0, pretend = 0, frame = 16
 807              		@ frame_needed = 0, uses_anonymous_args = 0
 808 0000 00B5     		push	{lr}
 809              		.cfi_def_cfa_offset 4
 810              		.cfi_offset 14, -4
 811 0002 85B0     		sub	sp, sp, #20
 812              		.cfi_def_cfa_offset 24
 813 0004 0190     		str	r0, [sp, #4]
 814              		.loc 7 208 0
 815 0006 FFF7FEFF 		bl	chThdGetSelfX
 816 000a 0390     		str	r0, [sp, #12]
 817              		.loc 7 211 0
 818 000c FFF7FEFF 		bl	chSysLock
 819              	.L38:
 820              		.loc 7 213 0 discriminator 1
 821 0010 0320     		movs	r0, #3
 822 0012 FFF7FEFF 		bl	chSchGoSleepS
 823              		.loc 7 214 0 discriminator 1
ARM GAS  /tmp/ccNJMr1l.s 			page 16


 824 0016 039B     		ldr	r3, [sp, #12]
 825 0018 5B6A     		ldr	r3, [r3, #36]
 826 001a 0293     		str	r3, [sp, #8]
 827              		.loc 7 215 0 discriminator 1
 828 001c 029B     		ldr	r3, [sp, #8]
 829 001e 002B     		cmp	r3, #0
 830 0020 F6D0     		beq	.L38
 831              		.loc 7 216 0
 832 0022 FFF7FEFF 		bl	chSysUnlock
 833              		.loc 7 217 0
 834 0026 05B0     		add	sp, sp, #20
 835              		@ sp needed
 836 0028 5DF804FB 		ldr	pc, [sp], #4
 837              		.cfi_endproc
 838              	.LFE246:
 839              		.size	thread4, .-thread4
 840 002c AFF30080 		.section	.text.bmk4_execute,"ax",%progbits
 841              		.align	2
 842              		.p2align 4,,15
 843              		.thumb
 844              		.thumb_func
 845              		.type	bmk4_execute, %function
 846              	bmk4_execute:
 847              	.LFB247:
 848              		.loc 7 219 0
 849              		.cfi_startproc
 850              		@ args = 0, pretend = 0, frame = 8
 851              		@ frame_needed = 0, uses_anonymous_args = 0
 852 0000 10B5     		push	{r4, lr}
 853              		.cfi_def_cfa_offset 8
 854              		.cfi_offset 4, -8
 855              		.cfi_offset 14, -4
 856 0002 84B0     		sub	sp, sp, #16
 857              		.cfi_def_cfa_offset 24
 858              		.loc 7 223 0
 859 0004 294B     		ldr	r3, .L41
 860 0006 1C68     		ldr	r4, [r3]
 861 0008 FFF7FEFF 		bl	chThdGetPriorityX
 862 000c 0346     		mov	r3, r0
 863 000e 0133     		adds	r3, r3, #1
 864 0010 0022     		movs	r2, #0
 865 0012 0092     		str	r2, [sp]
 866 0014 2046     		mov	r0, r4
 867 0016 4FF4B471 		mov	r1, #360
 868 001a 1A46     		mov	r2, r3
 869 001c 244B     		ldr	r3, .L41+4
 870 001e FFF7FEFF 		bl	chThdCreateStatic
 871 0022 0246     		mov	r2, r0
 872 0024 234B     		ldr	r3, .L41+8
 873 0026 1A60     		str	r2, [r3]
 874 0028 224B     		ldr	r3, .L41+8
 875 002a 1B68     		ldr	r3, [r3]
 876 002c 0293     		str	r3, [sp, #8]
 877              		.loc 7 225 0
 878 002e 0023     		movs	r3, #0
 879 0030 0393     		str	r3, [sp, #12]
 880              		.loc 7 226 0
ARM GAS  /tmp/ccNJMr1l.s 			page 17


 881 0032 FFF7FEFF 		bl	test_wait_tick
 882              		.loc 7 227 0
 883 0036 4FF47A70 		mov	r0, #1000
 884 003a FFF7FEFF 		bl	test_start_timer
 885              	.L40:
 886              		.loc 7 229 0 discriminator 1
 887 003e FFF7FEFF 		bl	chSysLock
 888              		.loc 7 230 0 discriminator 1
 889 0042 0298     		ldr	r0, [sp, #8]
 890 0044 0021     		movs	r1, #0
 891 0046 FFF7FEFF 		bl	chSchWakeupS
 892              		.loc 7 231 0 discriminator 1
 893 004a 0298     		ldr	r0, [sp, #8]
 894 004c 0021     		movs	r1, #0
 895 004e FFF7FEFF 		bl	chSchWakeupS
 896              		.loc 7 232 0 discriminator 1
 897 0052 0298     		ldr	r0, [sp, #8]
 898 0054 0021     		movs	r1, #0
 899 0056 FFF7FEFF 		bl	chSchWakeupS
 900              		.loc 7 233 0 discriminator 1
 901 005a 0298     		ldr	r0, [sp, #8]
 902 005c 0021     		movs	r1, #0
 903 005e FFF7FEFF 		bl	chSchWakeupS
 904              		.loc 7 234 0 discriminator 1
 905 0062 FFF7FEFF 		bl	chSysUnlock
 906              		.loc 7 235 0 discriminator 1
 907 0066 039B     		ldr	r3, [sp, #12]
 908 0068 0433     		adds	r3, r3, #4
 909 006a 0393     		str	r3, [sp, #12]
 910              		.loc 7 239 0 discriminator 1
 911 006c 124B     		ldr	r3, .L41+12
 912 006e 1B78     		ldrb	r3, [r3]	@ zero_extendqisi2
 913 0070 83F00103 		eor	r3, r3, #1
 914 0074 DBB2     		uxtb	r3, r3
 915 0076 002B     		cmp	r3, #0
 916 0078 E1D1     		bne	.L40
 917              		.loc 7 240 0
 918 007a FFF7FEFF 		bl	chSysLock
 919              		.loc 7 241 0
 920 007e 0298     		ldr	r0, [sp, #8]
 921 0080 4FF0FF31 		mov	r1, #-1
 922 0084 FFF7FEFF 		bl	chSchWakeupS
 923              		.loc 7 242 0
 924 0088 FFF7FEFF 		bl	chSysUnlock
 925              		.loc 7 244 0
 926 008c FFF7FEFF 		bl	test_wait_threads
 927              		.loc 7 245 0
 928 0090 0A48     		ldr	r0, .L41+16
 929 0092 FFF7FEFF 		bl	test_print
 930              		.loc 7 246 0
 931 0096 039B     		ldr	r3, [sp, #12]
 932 0098 5B00     		lsls	r3, r3, #1
 933 009a 1846     		mov	r0, r3
 934 009c FFF7FEFF 		bl	test_printn
 935              		.loc 7 247 0
 936 00a0 0748     		ldr	r0, .L41+20
 937 00a2 FFF7FEFF 		bl	test_println
ARM GAS  /tmp/ccNJMr1l.s 			page 18


 938              		.loc 7 248 0
 939 00a6 04B0     		add	sp, sp, #16
 940              		@ sp needed
 941 00a8 10BD     		pop	{r4, pc}
 942              	.L42:
 943 00aa 00BF     		.align	2
 944              	.L41:
 945 00ac 00000000 		.word	wa
 946 00b0 00000000 		.word	thread4
 947 00b4 00000000 		.word	threads
 948 00b8 00000000 		.word	test_timer_done
 949 00bc 00000000 		.word	.LC0
 950 00c0 1C000000 		.word	.LC2
 951              		.cfi_endproc
 952              	.LFE247:
 953              		.size	bmk4_execute, .-bmk4_execute
 954              		.global	testbmk4
 955 00c4 AFF30080 		.section	.rodata
 955      AFF30080 
 955      AFF30080 
 956 006f 00       		.align	2
 957              	.LC6:
 958 0070 42656E63 		.ascii	"Benchmark, context switch\000"
 958      686D6172 
 958      6B2C2063 
 958      6F6E7465 
 958      78742073 
 959              		.section	.rodata.testbmk4,"a",%progbits
 960              		.align	2
 961              		.type	testbmk4, %object
 962              		.size	testbmk4, 16
 963              	testbmk4:
 964 0000 70000000 		.word	.LC6
 965 0004 00000000 		.word	0
 966 0008 00000000 		.word	0
 967 000c 00000000 		.word	bmk4_execute
 968              		.section	.rodata
 969 008a 0000     		.align	2
 970              	.LC7:
 971 008c 20746872 		.ascii	" threads/S\000"
 971      65616473 
 971      2F5300
 972              		.section	.text.bmk5_execute,"ax",%progbits
 973              		.align	2
 974              		.p2align 4,,15
 975              		.thumb
 976              		.thumb_func
 977              		.type	bmk5_execute, %function
 978              	bmk5_execute:
 979              	.LFB248:
 980              		.loc 7 268 0
 981              		.cfi_startproc
 982              		@ args = 0, pretend = 0, frame = 16
 983              		@ frame_needed = 0, uses_anonymous_args = 0
 984 0000 00B5     		push	{lr}
 985              		.cfi_def_cfa_offset 4
 986              		.cfi_offset 14, -4
ARM GAS  /tmp/ccNJMr1l.s 			page 19


 987 0002 87B0     		sub	sp, sp, #28
 988              		.cfi_def_cfa_offset 32
 989              		.loc 7 270 0
 990 0004 0023     		movs	r3, #0
 991 0006 0593     		str	r3, [sp, #20]
 992              		.loc 7 271 0
 993 0008 184B     		ldr	r3, .L45
 994 000a 1B68     		ldr	r3, [r3]
 995 000c 0493     		str	r3, [sp, #16]
 996              		.loc 7 272 0
 997 000e FFF7FEFF 		bl	chThdGetPriorityX
 998 0012 0346     		mov	r3, r0
 999 0014 013B     		subs	r3, r3, #1
 1000 0016 0393     		str	r3, [sp, #12]
 1001              		.loc 7 273 0
 1002 0018 FFF7FEFF 		bl	test_wait_tick
 1003              		.loc 7 274 0
 1004 001c 4FF47A70 		mov	r0, #1000
 1005 0020 FFF7FEFF 		bl	test_start_timer
 1006              	.L44:
 1007              		.loc 7 276 0 discriminator 1
 1008 0024 0023     		movs	r3, #0
 1009 0026 0093     		str	r3, [sp]
 1010 0028 0498     		ldr	r0, [sp, #16]
 1011 002a 4FF4B471 		mov	r1, #360
 1012 002e 039A     		ldr	r2, [sp, #12]
 1013 0030 0F4B     		ldr	r3, .L45+4
 1014 0032 FFF7FEFF 		bl	chThdCreateStatic
 1015 0036 0346     		mov	r3, r0
 1016 0038 1846     		mov	r0, r3
 1017 003a FFF7FEFF 		bl	chThdWait
 1018              		.loc 7 277 0 discriminator 1
 1019 003e 059B     		ldr	r3, [sp, #20]
 1020 0040 0133     		adds	r3, r3, #1
 1021 0042 0593     		str	r3, [sp, #20]
 1022              		.loc 7 281 0 discriminator 1
 1023 0044 0B4B     		ldr	r3, .L45+8
 1024 0046 1B78     		ldrb	r3, [r3]	@ zero_extendqisi2
 1025 0048 83F00103 		eor	r3, r3, #1
 1026 004c DBB2     		uxtb	r3, r3
 1027 004e 002B     		cmp	r3, #0
 1028 0050 E8D1     		bne	.L44
 1029              		.loc 7 282 0
 1030 0052 0948     		ldr	r0, .L45+12
 1031 0054 FFF7FEFF 		bl	test_print
 1032              		.loc 7 283 0
 1033 0058 0598     		ldr	r0, [sp, #20]
 1034 005a FFF7FEFF 		bl	test_printn
 1035              		.loc 7 284 0
 1036 005e 0748     		ldr	r0, .L45+16
 1037 0060 FFF7FEFF 		bl	test_println
 1038              		.loc 7 285 0
 1039 0064 07B0     		add	sp, sp, #28
 1040              		@ sp needed
 1041 0066 5DF804FB 		ldr	pc, [sp], #4
 1042              	.L46:
 1043 006a 00BF     		.align	2
ARM GAS  /tmp/ccNJMr1l.s 			page 20


 1044              	.L45:
 1045 006c 00000000 		.word	wa
 1046 0070 00000000 		.word	thread1
 1047 0074 00000000 		.word	test_timer_done
 1048 0078 00000000 		.word	.LC0
 1049 007c 8C000000 		.word	.LC7
 1050              		.cfi_endproc
 1051              	.LFE248:
 1052              		.size	bmk5_execute, .-bmk5_execute
 1053              		.global	testbmk5
 1054              		.section	.rodata
 1055 0097 00       		.align	2
 1056              	.LC8:
 1057 0098 42656E63 		.ascii	"Benchmark, threads, full cycle\000"
 1057      686D6172 
 1057      6B2C2074 
 1057      68726561 
 1057      64732C20 
 1058              		.section	.rodata.testbmk5,"a",%progbits
 1059              		.align	2
 1060              		.type	testbmk5, %object
 1061              		.size	testbmk5, 16
 1062              	testbmk5:
 1063 0000 98000000 		.word	.LC8
 1064 0004 00000000 		.word	0
 1065 0008 00000000 		.word	0
 1066 000c 00000000 		.word	bmk5_execute
 1067              		.section	.text.bmk6_execute,"ax",%progbits
 1068              		.align	2
 1069              		.p2align 4,,15
 1070              		.thumb
 1071              		.thumb_func
 1072              		.type	bmk6_execute, %function
 1073              	bmk6_execute:
 1074              	.LFB249:
 1075              		.loc 7 307 0
 1076              		.cfi_startproc
 1077              		@ args = 0, pretend = 0, frame = 16
 1078              		@ frame_needed = 0, uses_anonymous_args = 0
 1079 0000 00B5     		push	{lr}
 1080              		.cfi_def_cfa_offset 4
 1081              		.cfi_offset 14, -4
 1082 0002 87B0     		sub	sp, sp, #28
 1083              		.cfi_def_cfa_offset 32
 1084              		.loc 7 309 0
 1085 0004 0023     		movs	r3, #0
 1086 0006 0593     		str	r3, [sp, #20]
 1087              		.loc 7 310 0
 1088 0008 164B     		ldr	r3, .L49
 1089 000a 1B68     		ldr	r3, [r3]
 1090 000c 0493     		str	r3, [sp, #16]
 1091              		.loc 7 311 0
 1092 000e FFF7FEFF 		bl	chThdGetPriorityX
 1093 0012 0346     		mov	r3, r0
 1094 0014 0133     		adds	r3, r3, #1
 1095 0016 0393     		str	r3, [sp, #12]
 1096              		.loc 7 312 0
ARM GAS  /tmp/ccNJMr1l.s 			page 21


 1097 0018 FFF7FEFF 		bl	test_wait_tick
 1098              		.loc 7 313 0
 1099 001c 4FF47A70 		mov	r0, #1000
 1100 0020 FFF7FEFF 		bl	test_start_timer
 1101              	.L48:
 1102              		.loc 7 315 0 discriminator 1
 1103 0024 0023     		movs	r3, #0
 1104 0026 0093     		str	r3, [sp]
 1105 0028 0498     		ldr	r0, [sp, #16]
 1106 002a 4FF4B471 		mov	r1, #360
 1107 002e 039A     		ldr	r2, [sp, #12]
 1108 0030 0D4B     		ldr	r3, .L49+4
 1109 0032 FFF7FEFF 		bl	chThdCreateStatic
 1110              		.loc 7 316 0 discriminator 1
 1111 0036 059B     		ldr	r3, [sp, #20]
 1112 0038 0133     		adds	r3, r3, #1
 1113 003a 0593     		str	r3, [sp, #20]
 1114              		.loc 7 320 0 discriminator 1
 1115 003c 0B4B     		ldr	r3, .L49+8
 1116 003e 1B78     		ldrb	r3, [r3]	@ zero_extendqisi2
 1117 0040 83F00103 		eor	r3, r3, #1
 1118 0044 DBB2     		uxtb	r3, r3
 1119 0046 002B     		cmp	r3, #0
 1120 0048 ECD1     		bne	.L48
 1121              		.loc 7 321 0
 1122 004a 0948     		ldr	r0, .L49+12
 1123 004c FFF7FEFF 		bl	test_print
 1124              		.loc 7 322 0
 1125 0050 0598     		ldr	r0, [sp, #20]
 1126 0052 FFF7FEFF 		bl	test_printn
 1127              		.loc 7 323 0
 1128 0056 0748     		ldr	r0, .L49+16
 1129 0058 FFF7FEFF 		bl	test_println
 1130              		.loc 7 324 0
 1131 005c 07B0     		add	sp, sp, #28
 1132              		@ sp needed
 1133 005e 5DF804FB 		ldr	pc, [sp], #4
 1134              	.L50:
 1135 0062 00BF     		.align	2
 1136              	.L49:
 1137 0064 00000000 		.word	wa
 1138 0068 00000000 		.word	thread1
 1139 006c 00000000 		.word	test_timer_done
 1140 0070 00000000 		.word	.LC0
 1141 0074 8C000000 		.word	.LC7
 1142              		.cfi_endproc
 1143              	.LFE249:
 1144              		.size	bmk6_execute, .-bmk6_execute
 1145              		.global	testbmk6
 1146 0078 AFF30080 		.section	.rodata
 1146      AFF30080 
 1147 00b7 00       		.align	2
 1148              	.LC9:
 1149 00b8 42656E63 		.ascii	"Benchmark, threads, create only\000"
 1149      686D6172 
 1149      6B2C2074 
 1149      68726561 
ARM GAS  /tmp/ccNJMr1l.s 			page 22


 1149      64732C20 
 1150              		.section	.rodata.testbmk6,"a",%progbits
 1151              		.align	2
 1152              		.type	testbmk6, %object
 1153              		.size	testbmk6, 16
 1154              	testbmk6:
 1155 0000 B8000000 		.word	.LC9
 1156 0004 00000000 		.word	0
 1157 0008 00000000 		.word	0
 1158 000c 00000000 		.word	bmk6_execute
 1159              		.section	.text.thread3,"ax",%progbits
 1160              		.align	2
 1161              		.p2align 4,,15
 1162              		.thumb
 1163              		.thumb_func
 1164              		.type	thread3, %function
 1165              	thread3:
 1166              	.LFB250:
 1167              		.loc 7 345 0
 1168              		.cfi_startproc
 1169              		@ args = 0, pretend = 0, frame = 8
 1170              		@ frame_needed = 0, uses_anonymous_args = 0
 1171 0000 00B5     		push	{lr}
 1172              		.cfi_def_cfa_offset 4
 1173              		.cfi_offset 14, -4
 1174 0002 83B0     		sub	sp, sp, #12
 1175              		.cfi_def_cfa_offset 16
 1176 0004 0190     		str	r0, [sp, #4]
 1177              		.loc 7 348 0
 1178 0006 02E0     		b	.L52
 1179              	.L53:
 1180              		.loc 7 349 0
 1181 0008 0648     		ldr	r0, .L54
 1182 000a FFF7FEFF 		bl	chSemWait
 1183              	.L52:
 1184              		.loc 7 348 0 discriminator 1
 1185 000e FFF7FEFF 		bl	chThdShouldTerminateX
 1186 0012 0346     		mov	r3, r0
 1187 0014 83F00103 		eor	r3, r3, #1
 1188 0018 DBB2     		uxtb	r3, r3
 1189 001a 002B     		cmp	r3, #0
 1190 001c F4D1     		bne	.L53
 1191              		.loc 7 350 0
 1192 001e 03B0     		add	sp, sp, #12
 1193              		@ sp needed
 1194 0020 5DF804FB 		ldr	pc, [sp], #4
 1195              	.L55:
 1196              		.align	2
 1197              	.L54:
 1198 0024 00000000 		.word	sem1
 1199              		.cfi_endproc
 1200              	.LFE250:
 1201              		.size	thread3, .-thread3
 1202 0028 AFF30080 		.section	.text.bmk7_setup,"ax",%progbits
 1202      AFF30080 
 1203              		.align	2
 1204              		.p2align 4,,15
ARM GAS  /tmp/ccNJMr1l.s 			page 23


 1205              		.thumb
 1206              		.thumb_func
 1207              		.type	bmk7_setup, %function
 1208              	bmk7_setup:
 1209              	.LFB251:
 1210              		.loc 7 352 0
 1211              		.cfi_startproc
 1212              		@ args = 0, pretend = 0, frame = 0
 1213              		@ frame_needed = 0, uses_anonymous_args = 0
 1214 0000 08B5     		push	{r3, lr}
 1215              		.cfi_def_cfa_offset 8
 1216              		.cfi_offset 3, -8
 1217              		.cfi_offset 14, -4
 1218              		.loc 7 354 0
 1219 0002 0248     		ldr	r0, .L57
 1220 0004 0021     		movs	r1, #0
 1221 0006 FFF7FEFF 		bl	chSemObjectInit
 1222              		.loc 7 355 0
 1223 000a 08BD     		pop	{r3, pc}
 1224              	.L58:
 1225              		.align	2
 1226              	.L57:
 1227 000c 00000000 		.word	sem1
 1228              		.cfi_endproc
 1229              	.LFE251:
 1230              		.size	bmk7_setup, .-bmk7_setup
 1231              		.section	.rodata
 1232              		.align	2
 1233              	.LC10:
 1234 00d8 20726573 		.ascii	" reschedules/S, \000"
 1234      63686564 
 1234      756C6573 
 1234      2F532C20 
 1234      00
 1235              		.section	.text.bmk7_execute,"ax",%progbits
 1236              		.align	2
 1237              		.p2align 4,,15
 1238              		.thumb
 1239              		.thumb_func
 1240              		.type	bmk7_execute, %function
 1241              	bmk7_execute:
 1242              	.LFB252:
 1243              		.loc 7 357 0
 1244              		.cfi_startproc
 1245              		@ args = 0, pretend = 0, frame = 8
 1246              		@ frame_needed = 0, uses_anonymous_args = 0
 1247 0000 10B5     		push	{r4, lr}
 1248              		.cfi_def_cfa_offset 8
 1249              		.cfi_offset 4, -8
 1250              		.cfi_offset 14, -4
 1251 0002 84B0     		sub	sp, sp, #16
 1252              		.cfi_def_cfa_offset 24
 1253              		.loc 7 360 0
 1254 0004 464B     		ldr	r3, .L61
 1255 0006 1C68     		ldr	r4, [r3]
 1256 0008 FFF7FEFF 		bl	chThdGetPriorityX
 1257 000c 0346     		mov	r3, r0
ARM GAS  /tmp/ccNJMr1l.s 			page 24


 1258 000e 0533     		adds	r3, r3, #5
 1259 0010 0022     		movs	r2, #0
 1260 0012 0092     		str	r2, [sp]
 1261 0014 2046     		mov	r0, r4
 1262 0016 4FF4B471 		mov	r1, #360
 1263 001a 1A46     		mov	r2, r3
 1264 001c 414B     		ldr	r3, .L61+4
 1265 001e FFF7FEFF 		bl	chThdCreateStatic
 1266 0022 0246     		mov	r2, r0
 1267 0024 404B     		ldr	r3, .L61+8
 1268 0026 1A60     		str	r2, [r3]
 1269              		.loc 7 361 0
 1270 0028 3D4B     		ldr	r3, .L61
 1271 002a 5C68     		ldr	r4, [r3, #4]
 1272 002c FFF7FEFF 		bl	chThdGetPriorityX
 1273 0030 0346     		mov	r3, r0
 1274 0032 0433     		adds	r3, r3, #4
 1275 0034 0022     		movs	r2, #0
 1276 0036 0092     		str	r2, [sp]
 1277 0038 2046     		mov	r0, r4
 1278 003a 4FF4B471 		mov	r1, #360
 1279 003e 1A46     		mov	r2, r3
 1280 0040 384B     		ldr	r3, .L61+4
 1281 0042 FFF7FEFF 		bl	chThdCreateStatic
 1282 0046 0246     		mov	r2, r0
 1283 0048 374B     		ldr	r3, .L61+8
 1284 004a 5A60     		str	r2, [r3, #4]
 1285              		.loc 7 362 0
 1286 004c 344B     		ldr	r3, .L61
 1287 004e 9C68     		ldr	r4, [r3, #8]
 1288 0050 FFF7FEFF 		bl	chThdGetPriorityX
 1289 0054 0346     		mov	r3, r0
 1290 0056 0333     		adds	r3, r3, #3
 1291 0058 0022     		movs	r2, #0
 1292 005a 0092     		str	r2, [sp]
 1293 005c 2046     		mov	r0, r4
 1294 005e 4FF4B471 		mov	r1, #360
 1295 0062 1A46     		mov	r2, r3
 1296 0064 2F4B     		ldr	r3, .L61+4
 1297 0066 FFF7FEFF 		bl	chThdCreateStatic
 1298 006a 0246     		mov	r2, r0
 1299 006c 2E4B     		ldr	r3, .L61+8
 1300 006e 9A60     		str	r2, [r3, #8]
 1301              		.loc 7 363 0
 1302 0070 2B4B     		ldr	r3, .L61
 1303 0072 DC68     		ldr	r4, [r3, #12]
 1304 0074 FFF7FEFF 		bl	chThdGetPriorityX
 1305 0078 0346     		mov	r3, r0
 1306 007a 0233     		adds	r3, r3, #2
 1307 007c 0022     		movs	r2, #0
 1308 007e 0092     		str	r2, [sp]
 1309 0080 2046     		mov	r0, r4
 1310 0082 4FF4B471 		mov	r1, #360
 1311 0086 1A46     		mov	r2, r3
 1312 0088 264B     		ldr	r3, .L61+4
 1313 008a FFF7FEFF 		bl	chThdCreateStatic
 1314 008e 0246     		mov	r2, r0
ARM GAS  /tmp/ccNJMr1l.s 			page 25


 1315 0090 254B     		ldr	r3, .L61+8
 1316 0092 DA60     		str	r2, [r3, #12]
 1317              		.loc 7 364 0
 1318 0094 224B     		ldr	r3, .L61
 1319 0096 1C69     		ldr	r4, [r3, #16]
 1320 0098 FFF7FEFF 		bl	chThdGetPriorityX
 1321 009c 0346     		mov	r3, r0
 1322 009e 0133     		adds	r3, r3, #1
 1323 00a0 0022     		movs	r2, #0
 1324 00a2 0092     		str	r2, [sp]
 1325 00a4 2046     		mov	r0, r4
 1326 00a6 4FF4B471 		mov	r1, #360
 1327 00aa 1A46     		mov	r2, r3
 1328 00ac 1D4B     		ldr	r3, .L61+4
 1329 00ae FFF7FEFF 		bl	chThdCreateStatic
 1330 00b2 0246     		mov	r2, r0
 1331 00b4 1C4B     		ldr	r3, .L61+8
 1332 00b6 1A61     		str	r2, [r3, #16]
 1333              		.loc 7 366 0
 1334 00b8 0023     		movs	r3, #0
 1335 00ba 0393     		str	r3, [sp, #12]
 1336              		.loc 7 367 0
 1337 00bc FFF7FEFF 		bl	test_wait_tick
 1338              		.loc 7 368 0
 1339 00c0 4FF47A70 		mov	r0, #1000
 1340 00c4 FFF7FEFF 		bl	test_start_timer
 1341              	.L60:
 1342              		.loc 7 370 0 discriminator 1
 1343 00c8 1848     		ldr	r0, .L61+12
 1344 00ca 0021     		movs	r1, #0
 1345 00cc FFF7FEFF 		bl	chSemReset
 1346              		.loc 7 371 0 discriminator 1
 1347 00d0 039B     		ldr	r3, [sp, #12]
 1348 00d2 0133     		adds	r3, r3, #1
 1349 00d4 0393     		str	r3, [sp, #12]
 1350              		.loc 7 375 0 discriminator 1
 1351 00d6 164B     		ldr	r3, .L61+16
 1352 00d8 1B78     		ldrb	r3, [r3]	@ zero_extendqisi2
 1353 00da 83F00103 		eor	r3, r3, #1
 1354 00de DBB2     		uxtb	r3, r3
 1355 00e0 002B     		cmp	r3, #0
 1356 00e2 F1D1     		bne	.L60
 1357              		.loc 7 376 0
 1358 00e4 FFF7FEFF 		bl	test_terminate_threads
 1359              		.loc 7 377 0
 1360 00e8 1048     		ldr	r0, .L61+12
 1361 00ea 0021     		movs	r1, #0
 1362 00ec FFF7FEFF 		bl	chSemReset
 1363              		.loc 7 378 0
 1364 00f0 FFF7FEFF 		bl	test_wait_threads
 1365              		.loc 7 380 0
 1366 00f4 0F48     		ldr	r0, .L61+20
 1367 00f6 FFF7FEFF 		bl	test_print
 1368              		.loc 7 381 0
 1369 00fa 0398     		ldr	r0, [sp, #12]
 1370 00fc FFF7FEFF 		bl	test_printn
 1371              		.loc 7 382 0
ARM GAS  /tmp/ccNJMr1l.s 			page 26


 1372 0100 0D48     		ldr	r0, .L61+24
 1373 0102 FFF7FEFF 		bl	test_print
 1374              		.loc 7 383 0
 1375 0106 039A     		ldr	r2, [sp, #12]
 1376 0108 1346     		mov	r3, r2
 1377 010a 5B00     		lsls	r3, r3, #1
 1378 010c 1344     		add	r3, r3, r2
 1379 010e 5B00     		lsls	r3, r3, #1
 1380 0110 1846     		mov	r0, r3
 1381 0112 FFF7FEFF 		bl	test_printn
 1382              		.loc 7 384 0
 1383 0116 0948     		ldr	r0, .L61+28
 1384 0118 FFF7FEFF 		bl	test_println
 1385              		.loc 7 385 0
 1386 011c 04B0     		add	sp, sp, #16
 1387              		@ sp needed
 1388 011e 10BD     		pop	{r4, pc}
 1389              	.L62:
 1390              		.align	2
 1391              	.L61:
 1392 0120 00000000 		.word	wa
 1393 0124 00000000 		.word	thread3
 1394 0128 00000000 		.word	threads
 1395 012c 00000000 		.word	sem1
 1396 0130 00000000 		.word	test_timer_done
 1397 0134 00000000 		.word	.LC0
 1398 0138 D8000000 		.word	.LC10
 1399 013c 1C000000 		.word	.LC2
 1400              		.cfi_endproc
 1401              	.LFE252:
 1402              		.size	bmk7_execute, .-bmk7_execute
 1403              		.global	testbmk7
 1404              		.section	.rodata
 1405 00e9 000000   		.align	2
 1406              	.LC11:
 1407 00ec 42656E63 		.ascii	"Benchmark, mass reschedule, 5 threads\000"
 1407      686D6172 
 1407      6B2C206D 
 1407      61737320 
 1407      72657363 
 1408              		.section	.rodata.testbmk7,"a",%progbits
 1409              		.align	2
 1410              		.type	testbmk7, %object
 1411              		.size	testbmk7, 16
 1412              	testbmk7:
 1413 0000 EC000000 		.word	.LC11
 1414 0004 00000000 		.word	bmk7_setup
 1415 0008 00000000 		.word	0
 1416 000c 00000000 		.word	bmk7_execute
 1417              		.section	.text.thread8,"ax",%progbits
 1418              		.align	2
 1419              		.p2align 4,,15
 1420              		.thumb
 1421              		.thumb_func
 1422              		.type	thread8, %function
 1423              	thread8:
 1424              	.LFB253:
ARM GAS  /tmp/ccNJMr1l.s 			page 27


 1425              		.loc 7 405 0
 1426              		.cfi_startproc
 1427              		@ args = 0, pretend = 0, frame = 8
 1428              		@ frame_needed = 0, uses_anonymous_args = 0
 1429 0000 00B5     		push	{lr}
 1430              		.cfi_def_cfa_offset 4
 1431              		.cfi_offset 14, -4
 1432 0002 83B0     		sub	sp, sp, #12
 1433              		.cfi_def_cfa_offset 16
 1434 0004 0190     		str	r0, [sp, #4]
 1435              	.L64:
 1436              		.loc 7 408 0 discriminator 1
 1437 0006 FFF7FEFF 		bl	chThdYield
 1438              		.loc 7 409 0 discriminator 1
 1439 000a FFF7FEFF 		bl	chThdYield
 1440              		.loc 7 410 0 discriminator 1
 1441 000e FFF7FEFF 		bl	chThdYield
 1442              		.loc 7 411 0 discriminator 1
 1443 0012 FFF7FEFF 		bl	chThdYield
 1444              		.loc 7 412 0 discriminator 1
 1445 0016 019B     		ldr	r3, [sp, #4]
 1446 0018 1B68     		ldr	r3, [r3]
 1447 001a 1A1D     		adds	r2, r3, #4
 1448 001c 019B     		ldr	r3, [sp, #4]
 1449 001e 1A60     		str	r2, [r3]
 1450              		.loc 7 416 0 discriminator 1
 1451 0020 FFF7FEFF 		bl	chThdShouldTerminateX
 1452 0024 0346     		mov	r3, r0
 1453 0026 83F00103 		eor	r3, r3, #1
 1454 002a DBB2     		uxtb	r3, r3
 1455 002c 002B     		cmp	r3, #0
 1456 002e EAD1     		bne	.L64
 1457              		.loc 7 417 0
 1458 0030 03B0     		add	sp, sp, #12
 1459              		@ sp needed
 1460 0032 5DF804FB 		ldr	pc, [sp], #4
 1461              		.cfi_endproc
 1462              	.LFE253:
 1463              		.size	thread8, .-thread8
 1464              		.section	.text.bmk8_execute,"ax",%progbits
 1465              		.align	2
 1466              		.p2align 4,,15
 1467              		.thumb
 1468              		.thumb_func
 1469              		.type	bmk8_execute, %function
 1470              	bmk8_execute:
 1471              	.LFB254:
 1472              		.loc 7 419 0
 1473              		.cfi_startproc
 1474              		@ args = 0, pretend = 0, frame = 8
 1475              		@ frame_needed = 0, uses_anonymous_args = 0
 1476 0000 10B5     		push	{r4, lr}
 1477              		.cfi_def_cfa_offset 8
 1478              		.cfi_offset 4, -8
 1479              		.cfi_offset 14, -4
 1480 0002 84B0     		sub	sp, sp, #16
 1481              		.cfi_def_cfa_offset 24
ARM GAS  /tmp/ccNJMr1l.s 			page 28


 1482              		.loc 7 422 0
 1483 0004 0023     		movs	r3, #0
 1484 0006 0393     		str	r3, [sp, #12]
 1485              		.loc 7 423 0
 1486 0008 FFF7FEFF 		bl	test_wait_tick
 1487              		.loc 7 425 0
 1488 000c 364B     		ldr	r3, .L66
 1489 000e 1C68     		ldr	r4, [r3]
 1490 0010 FFF7FEFF 		bl	chThdGetPriorityX
 1491 0014 0346     		mov	r3, r0
 1492 0016 013B     		subs	r3, r3, #1
 1493 0018 03AA     		add	r2, sp, #12
 1494 001a 0092     		str	r2, [sp]
 1495 001c 2046     		mov	r0, r4
 1496 001e 4FF4B471 		mov	r1, #360
 1497 0022 1A46     		mov	r2, r3
 1498 0024 314B     		ldr	r3, .L66+4
 1499 0026 FFF7FEFF 		bl	chThdCreateStatic
 1500 002a 0246     		mov	r2, r0
 1501 002c 304B     		ldr	r3, .L66+8
 1502 002e 1A60     		str	r2, [r3]
 1503              		.loc 7 426 0
 1504 0030 2D4B     		ldr	r3, .L66
 1505 0032 5C68     		ldr	r4, [r3, #4]
 1506 0034 FFF7FEFF 		bl	chThdGetPriorityX
 1507 0038 0346     		mov	r3, r0
 1508 003a 013B     		subs	r3, r3, #1
 1509 003c 03AA     		add	r2, sp, #12
 1510 003e 0092     		str	r2, [sp]
 1511 0040 2046     		mov	r0, r4
 1512 0042 4FF4B471 		mov	r1, #360
 1513 0046 1A46     		mov	r2, r3
 1514 0048 284B     		ldr	r3, .L66+4
 1515 004a FFF7FEFF 		bl	chThdCreateStatic
 1516 004e 0246     		mov	r2, r0
 1517 0050 274B     		ldr	r3, .L66+8
 1518 0052 5A60     		str	r2, [r3, #4]
 1519              		.loc 7 427 0
 1520 0054 244B     		ldr	r3, .L66
 1521 0056 9C68     		ldr	r4, [r3, #8]
 1522 0058 FFF7FEFF 		bl	chThdGetPriorityX
 1523 005c 0346     		mov	r3, r0
 1524 005e 013B     		subs	r3, r3, #1
 1525 0060 03AA     		add	r2, sp, #12
 1526 0062 0092     		str	r2, [sp]
 1527 0064 2046     		mov	r0, r4
 1528 0066 4FF4B471 		mov	r1, #360
 1529 006a 1A46     		mov	r2, r3
 1530 006c 1F4B     		ldr	r3, .L66+4
 1531 006e FFF7FEFF 		bl	chThdCreateStatic
 1532 0072 0246     		mov	r2, r0
 1533 0074 1E4B     		ldr	r3, .L66+8
 1534 0076 9A60     		str	r2, [r3, #8]
 1535              		.loc 7 428 0
 1536 0078 1B4B     		ldr	r3, .L66
 1537 007a DC68     		ldr	r4, [r3, #12]
 1538 007c FFF7FEFF 		bl	chThdGetPriorityX
ARM GAS  /tmp/ccNJMr1l.s 			page 29


 1539 0080 0346     		mov	r3, r0
 1540 0082 013B     		subs	r3, r3, #1
 1541 0084 03AA     		add	r2, sp, #12
 1542 0086 0092     		str	r2, [sp]
 1543 0088 2046     		mov	r0, r4
 1544 008a 4FF4B471 		mov	r1, #360
 1545 008e 1A46     		mov	r2, r3
 1546 0090 164B     		ldr	r3, .L66+4
 1547 0092 FFF7FEFF 		bl	chThdCreateStatic
 1548 0096 0246     		mov	r2, r0
 1549 0098 154B     		ldr	r3, .L66+8
 1550 009a DA60     		str	r2, [r3, #12]
 1551              		.loc 7 429 0
 1552 009c 124B     		ldr	r3, .L66
 1553 009e 1C69     		ldr	r4, [r3, #16]
 1554 00a0 FFF7FEFF 		bl	chThdGetPriorityX
 1555 00a4 0346     		mov	r3, r0
 1556 00a6 013B     		subs	r3, r3, #1
 1557 00a8 03AA     		add	r2, sp, #12
 1558 00aa 0092     		str	r2, [sp]
 1559 00ac 2046     		mov	r0, r4
 1560 00ae 4FF4B471 		mov	r1, #360
 1561 00b2 1A46     		mov	r2, r3
 1562 00b4 0D4B     		ldr	r3, .L66+4
 1563 00b6 FFF7FEFF 		bl	chThdCreateStatic
 1564 00ba 0246     		mov	r2, r0
 1565 00bc 0C4B     		ldr	r3, .L66+8
 1566 00be 1A61     		str	r2, [r3, #16]
 1567              		.loc 7 431 0
 1568 00c0 42F21070 		movw	r0, #10000
 1569 00c4 FFF7FEFF 		bl	chThdSleep
 1570              		.loc 7 432 0
 1571 00c8 FFF7FEFF 		bl	test_terminate_threads
 1572              		.loc 7 433 0
 1573 00cc FFF7FEFF 		bl	test_wait_threads
 1574              		.loc 7 435 0
 1575 00d0 0848     		ldr	r0, .L66+12
 1576 00d2 FFF7FEFF 		bl	test_print
 1577              		.loc 7 436 0
 1578 00d6 039B     		ldr	r3, [sp, #12]
 1579 00d8 1846     		mov	r0, r3
 1580 00da FFF7FEFF 		bl	test_printn
 1581              		.loc 7 437 0
 1582 00de 0648     		ldr	r0, .L66+16
 1583 00e0 FFF7FEFF 		bl	test_println
 1584              		.loc 7 438 0
 1585 00e4 04B0     		add	sp, sp, #16
 1586              		@ sp needed
 1587 00e6 10BD     		pop	{r4, pc}
 1588              	.L67:
 1589              		.align	2
 1590              	.L66:
 1591 00e8 00000000 		.word	wa
 1592 00ec 00000000 		.word	thread8
 1593 00f0 00000000 		.word	threads
 1594 00f4 00000000 		.word	.LC0
 1595 00f8 1C000000 		.word	.LC2
ARM GAS  /tmp/ccNJMr1l.s 			page 30


 1596              		.cfi_endproc
 1597              	.LFE254:
 1598              		.size	bmk8_execute, .-bmk8_execute
 1599              		.global	testbmk8
 1600 00fc AFF30080 		.section	.rodata
 1601 0112 0000     		.align	2
 1602              	.LC12:
 1603 0114 42656E63 		.ascii	"Benchmark, round robin context switching\000"
 1603      686D6172 
 1603      6B2C2072 
 1603      6F756E64 
 1603      20726F62 
 1604              		.section	.rodata.testbmk8,"a",%progbits
 1605              		.align	2
 1606              		.type	testbmk8, %object
 1607              		.size	testbmk8, 16
 1608              	testbmk8:
 1609 0000 14010000 		.word	.LC12
 1610 0004 00000000 		.word	0
 1611 0008 00000000 		.word	0
 1612 000c 00000000 		.word	bmk8_execute
 1613              		.section	.rodata
 1614 013d 000000   		.align	2
 1615              	.LC13:
 1616 0140 20627974 		.ascii	" bytes/S\000"
 1616      65732F53 
 1616      00
 1617              		.section	.text.bmk9_execute,"ax",%progbits
 1618              		.align	2
 1619              		.p2align 4,,15
 1620              		.thumb
 1621              		.thumb_func
 1622              		.type	bmk9_execute, %function
 1623              	bmk9_execute:
 1624              	.LFB255:
 1625              		.loc 7 458 0
 1626              		.cfi_startproc
 1627              		@ args = 0, pretend = 0, frame = 8
 1628              		@ frame_needed = 0, uses_anonymous_args = 0
 1629 0000 00B5     		push	{lr}
 1630              		.cfi_def_cfa_offset 4
 1631              		.cfi_offset 14, -4
 1632 0002 85B0     		sub	sp, sp, #20
 1633              		.cfi_def_cfa_offset 24
 1634              		.loc 7 463 0
 1635 0004 0023     		movs	r3, #0
 1636 0006 0093     		str	r3, [sp]
 1637 0008 2248     		ldr	r0, .L70
 1638 000a 2349     		ldr	r1, .L70+4
 1639 000c 1022     		movs	r2, #16
 1640 000e 0023     		movs	r3, #0
 1641 0010 FFF7FEFF 		bl	chIQObjectInit
 1642              		.loc 7 464 0
 1643 0014 0023     		movs	r3, #0
 1644 0016 0393     		str	r3, [sp, #12]
 1645              		.loc 7 465 0
 1646 0018 FFF7FEFF 		bl	test_wait_tick
ARM GAS  /tmp/ccNJMr1l.s 			page 31


 1647              		.loc 7 466 0
 1648 001c 4FF47A70 		mov	r0, #1000
 1649 0020 FFF7FEFF 		bl	test_start_timer
 1650              	.L69:
 1651              		.loc 7 468 0 discriminator 1
 1652 0024 FFF7FEFF 		bl	chSysLock
 1653              		.loc 7 469 0 discriminator 1
 1654 0028 1A48     		ldr	r0, .L70
 1655 002a 0021     		movs	r1, #0
 1656 002c FFF7FEFF 		bl	chIQPutI
 1657              		.loc 7 470 0 discriminator 1
 1658 0030 1848     		ldr	r0, .L70
 1659 0032 0121     		movs	r1, #1
 1660 0034 FFF7FEFF 		bl	chIQPutI
 1661              		.loc 7 471 0 discriminator 1
 1662 0038 1648     		ldr	r0, .L70
 1663 003a 0221     		movs	r1, #2
 1664 003c FFF7FEFF 		bl	chIQPutI
 1665              		.loc 7 472 0 discriminator 1
 1666 0040 1448     		ldr	r0, .L70
 1667 0042 0321     		movs	r1, #3
 1668 0044 FFF7FEFF 		bl	chIQPutI
 1669              		.loc 7 473 0 discriminator 1
 1670 0048 FFF7FEFF 		bl	chSysUnlock
 1671              		.loc 7 474 0 discriminator 1
 1672 004c 1148     		ldr	r0, .L70
 1673 004e FFF7FEFF 		bl	chIQGet
 1674              		.loc 7 475 0 discriminator 1
 1675 0052 1048     		ldr	r0, .L70
 1676 0054 FFF7FEFF 		bl	chIQGet
 1677              		.loc 7 476 0 discriminator 1
 1678 0058 0E48     		ldr	r0, .L70
 1679 005a FFF7FEFF 		bl	chIQGet
 1680              		.loc 7 477 0 discriminator 1
 1681 005e 0D48     		ldr	r0, .L70
 1682 0060 FFF7FEFF 		bl	chIQGet
 1683              		.loc 7 478 0 discriminator 1
 1684 0064 039B     		ldr	r3, [sp, #12]
 1685 0066 0133     		adds	r3, r3, #1
 1686 0068 0393     		str	r3, [sp, #12]
 1687              		.loc 7 482 0 discriminator 1
 1688 006a 0C4B     		ldr	r3, .L70+8
 1689 006c 1B78     		ldrb	r3, [r3]	@ zero_extendqisi2
 1690 006e 83F00103 		eor	r3, r3, #1
 1691 0072 DBB2     		uxtb	r3, r3
 1692 0074 002B     		cmp	r3, #0
 1693 0076 D5D1     		bne	.L69
 1694              		.loc 7 483 0
 1695 0078 0948     		ldr	r0, .L70+12
 1696 007a FFF7FEFF 		bl	test_print
 1697              		.loc 7 484 0
 1698 007e 039B     		ldr	r3, [sp, #12]
 1699 0080 9B00     		lsls	r3, r3, #2
 1700 0082 1846     		mov	r0, r3
 1701 0084 FFF7FEFF 		bl	test_printn
 1702              		.loc 7 485 0
 1703 0088 0648     		ldr	r0, .L70+16
ARM GAS  /tmp/ccNJMr1l.s 			page 32


 1704 008a FFF7FEFF 		bl	test_println
 1705              		.loc 7 486 0
 1706 008e 05B0     		add	sp, sp, #20
 1707              		@ sp needed
 1708 0090 5DF804FB 		ldr	pc, [sp], #4
 1709              	.L71:
 1710              		.align	2
 1711              	.L70:
 1712 0094 00000000 		.word	iq.6766
 1713 0098 00000000 		.word	ib.6765
 1714 009c 00000000 		.word	test_timer_done
 1715 00a0 00000000 		.word	.LC0
 1716 00a4 40010000 		.word	.LC13
 1717              		.cfi_endproc
 1718              	.LFE255:
 1719              		.size	bmk9_execute, .-bmk9_execute
 1720              		.global	testbmk9
 1721 00a8 AFF30080 		.section	.rodata
 1721      AFF30080 
 1722 0149 000000   		.align	2
 1723              	.LC14:
 1724 014c 42656E63 		.ascii	"Benchmark, I/O Queues throughput\000"
 1724      686D6172 
 1724      6B2C2049 
 1724      2F4F2051 
 1724      75657565 
 1725              		.section	.rodata.testbmk9,"a",%progbits
 1726              		.align	2
 1727              		.type	testbmk9, %object
 1728              		.size	testbmk9, 16
 1729              	testbmk9:
 1730 0000 4C010000 		.word	.LC14
 1731 0004 00000000 		.word	0
 1732 0008 00000000 		.word	0
 1733 000c 00000000 		.word	bmk9_execute
 1734              		.section	.text.tmo,"ax",%progbits
 1735              		.align	2
 1736              		.p2align 4,,15
 1737              		.thumb
 1738              		.thumb_func
 1739              		.type	tmo, %function
 1740              	tmo:
 1741              	.LFB256:
 1742              		.loc 7 505 0
 1743              		.cfi_startproc
 1744              		@ args = 0, pretend = 0, frame = 8
 1745              		@ frame_needed = 0, uses_anonymous_args = 0
 1746              		@ link register save eliminated.
 1747 0000 82B0     		sub	sp, sp, #8
 1748              		.cfi_def_cfa_offset 8
 1749 0002 0190     		str	r0, [sp, #4]
 1750              		.loc 7 505 0
 1751 0004 02B0     		add	sp, sp, #8
 1752              		@ sp needed
 1753 0006 7047     		bx	lr
 1754              		.cfi_endproc
 1755              	.LFE256:
ARM GAS  /tmp/ccNJMr1l.s 			page 33


 1756              		.size	tmo, .-tmo
 1757 0008 AFF30080 		.section	.rodata
 1757      AFF30080 
 1758 016d 000000   		.align	2
 1759              	.LC15:
 1760 0170 2074696D 		.ascii	" timers/S\000"
 1760      6572732F 
 1760      5300
 1761              		.section	.text.bmk10_execute,"ax",%progbits
 1762              		.align	2
 1763              		.p2align 4,,15
 1764              		.thumb
 1765              		.thumb_func
 1766              		.type	bmk10_execute, %function
 1767              	bmk10_execute:
 1768              	.LFB257:
 1769              		.loc 7 507 0
 1770              		.cfi_startproc
 1771              		@ args = 0, pretend = 0, frame = 8
 1772              		@ frame_needed = 0, uses_anonymous_args = 0
 1773 0000 00B5     		push	{lr}
 1774              		.cfi_def_cfa_offset 4
 1775              		.cfi_offset 14, -4
 1776 0002 83B0     		sub	sp, sp, #12
 1777              		.cfi_def_cfa_offset 16
 1778              		.loc 7 509 0
 1779 0004 0023     		movs	r3, #0
 1780 0006 0193     		str	r3, [sp, #4]
 1781              		.loc 7 511 0
 1782 0008 FFF7FEFF 		bl	test_wait_tick
 1783              		.loc 7 512 0
 1784 000c 4FF47A70 		mov	r0, #1000
 1785 0010 FFF7FEFF 		bl	test_start_timer
 1786              	.L74:
 1787              		.loc 7 514 0 discriminator 1
 1788 0014 FFF7FEFF 		bl	chSysLock
 1789              		.loc 7 515 0 discriminator 1
 1790 0018 1648     		ldr	r0, .L75
 1791 001a 0121     		movs	r1, #1
 1792 001c 164A     		ldr	r2, .L75+4
 1793 001e 0023     		movs	r3, #0
 1794 0020 FFF7FEFF 		bl	chVTDoSetI
 1795              		.loc 7 516 0 discriminator 1
 1796 0024 1548     		ldr	r0, .L75+8
 1797 0026 42F21071 		movw	r1, #10000
 1798 002a 134A     		ldr	r2, .L75+4
 1799 002c 0023     		movs	r3, #0
 1800 002e FFF7FEFF 		bl	chVTDoSetI
 1801              		.loc 7 517 0 discriminator 1
 1802 0032 1048     		ldr	r0, .L75
 1803 0034 FFF7FEFF 		bl	chVTDoResetI
 1804              		.loc 7 518 0 discriminator 1
 1805 0038 1048     		ldr	r0, .L75+8
 1806 003a FFF7FEFF 		bl	chVTDoResetI
 1807              		.loc 7 519 0 discriminator 1
 1808 003e FFF7FEFF 		bl	chSysUnlock
 1809              		.loc 7 520 0 discriminator 1
ARM GAS  /tmp/ccNJMr1l.s 			page 34


 1810 0042 019B     		ldr	r3, [sp, #4]
 1811 0044 0133     		adds	r3, r3, #1
 1812 0046 0193     		str	r3, [sp, #4]
 1813              		.loc 7 524 0 discriminator 1
 1814 0048 0D4B     		ldr	r3, .L75+12
 1815 004a 1B78     		ldrb	r3, [r3]	@ zero_extendqisi2
 1816 004c 83F00103 		eor	r3, r3, #1
 1817 0050 DBB2     		uxtb	r3, r3
 1818 0052 002B     		cmp	r3, #0
 1819 0054 DED1     		bne	.L74
 1820              		.loc 7 525 0
 1821 0056 0B48     		ldr	r0, .L75+16
 1822 0058 FFF7FEFF 		bl	test_print
 1823              		.loc 7 526 0
 1824 005c 019B     		ldr	r3, [sp, #4]
 1825 005e 5B00     		lsls	r3, r3, #1
 1826 0060 1846     		mov	r0, r3
 1827 0062 FFF7FEFF 		bl	test_printn
 1828              		.loc 7 527 0
 1829 0066 0848     		ldr	r0, .L75+20
 1830 0068 FFF7FEFF 		bl	test_println
 1831              		.loc 7 528 0
 1832 006c 03B0     		add	sp, sp, #12
 1833              		@ sp needed
 1834 006e 5DF804FB 		ldr	pc, [sp], #4
 1835              	.L76:
 1836 0072 00BF     		.align	2
 1837              	.L75:
 1838 0074 00000000 		.word	vt1.6776
 1839 0078 00000000 		.word	tmo
 1840 007c 00000000 		.word	vt2.6777
 1841 0080 00000000 		.word	test_timer_done
 1842 0084 00000000 		.word	.LC0
 1843 0088 70010000 		.word	.LC15
 1844              		.cfi_endproc
 1845              	.LFE257:
 1846              		.size	bmk10_execute, .-bmk10_execute
 1847              		.global	testbmk10
 1848 008c AFF30080 		.section	.rodata
 1849 017a 0000     		.align	2
 1850              	.LC16:
 1851 017c 42656E63 		.ascii	"Benchmark, virtual timers set/reset\000"
 1851      686D6172 
 1851      6B2C2076 
 1851      69727475 
 1851      616C2074 
 1852              		.section	.rodata.testbmk10,"a",%progbits
 1853              		.align	2
 1854              		.type	testbmk10, %object
 1855              		.size	testbmk10, 16
 1856              	testbmk10:
 1857 0000 7C010000 		.word	.LC16
 1858 0004 00000000 		.word	0
 1859 0008 00000000 		.word	0
 1860 000c 00000000 		.word	bmk10_execute
 1861              		.section	.text.bmk11_setup,"ax",%progbits
 1862              		.align	2
ARM GAS  /tmp/ccNJMr1l.s 			page 35


 1863              		.p2align 4,,15
 1864              		.thumb
 1865              		.thumb_func
 1866              		.type	bmk11_setup, %function
 1867              	bmk11_setup:
 1868              	.LFB258:
 1869              		.loc 7 548 0
 1870              		.cfi_startproc
 1871              		@ args = 0, pretend = 0, frame = 0
 1872              		@ frame_needed = 0, uses_anonymous_args = 0
 1873 0000 08B5     		push	{r3, lr}
 1874              		.cfi_def_cfa_offset 8
 1875              		.cfi_offset 3, -8
 1876              		.cfi_offset 14, -4
 1877              		.loc 7 550 0
 1878 0002 0248     		ldr	r0, .L78
 1879 0004 0121     		movs	r1, #1
 1880 0006 FFF7FEFF 		bl	chSemObjectInit
 1881              		.loc 7 551 0
 1882 000a 08BD     		pop	{r3, pc}
 1883              	.L79:
 1884              		.align	2
 1885              	.L78:
 1886 000c 00000000 		.word	sem1
 1887              		.cfi_endproc
 1888              	.LFE258:
 1889              		.size	bmk11_setup, .-bmk11_setup
 1890              		.section	.rodata
 1891              		.align	2
 1892              	.LC17:
 1893 01a0 20776169 		.ascii	" wait+signal/S\000"
 1893      742B7369 
 1893      676E616C 
 1893      2F5300
 1894              		.section	.text.bmk11_execute,"ax",%progbits
 1895              		.align	2
 1896              		.p2align 4,,15
 1897              		.thumb
 1898              		.thumb_func
 1899              		.type	bmk11_execute, %function
 1900              	bmk11_execute:
 1901              	.LFB259:
 1902              		.loc 7 553 0
 1903              		.cfi_startproc
 1904              		@ args = 0, pretend = 0, frame = 8
 1905              		@ frame_needed = 0, uses_anonymous_args = 0
 1906 0000 00B5     		push	{lr}
 1907              		.cfi_def_cfa_offset 4
 1908              		.cfi_offset 14, -4
 1909 0002 83B0     		sub	sp, sp, #12
 1910              		.cfi_def_cfa_offset 16
 1911              		.loc 7 554 0
 1912 0004 0023     		movs	r3, #0
 1913 0006 0193     		str	r3, [sp, #4]
 1914              		.loc 7 556 0
 1915 0008 FFF7FEFF 		bl	test_wait_tick
 1916              		.loc 7 557 0
ARM GAS  /tmp/ccNJMr1l.s 			page 36


 1917 000c 4FF47A70 		mov	r0, #1000
 1918 0010 FFF7FEFF 		bl	test_start_timer
 1919              	.L81:
 1920              		.loc 7 559 0 discriminator 1
 1921 0014 1748     		ldr	r0, .L82
 1922 0016 FFF7FEFF 		bl	chSemWait
 1923              		.loc 7 560 0 discriminator 1
 1924 001a 1648     		ldr	r0, .L82
 1925 001c FFF7FEFF 		bl	chSemSignal
 1926              		.loc 7 561 0 discriminator 1
 1927 0020 1448     		ldr	r0, .L82
 1928 0022 FFF7FEFF 		bl	chSemWait
 1929              		.loc 7 562 0 discriminator 1
 1930 0026 1348     		ldr	r0, .L82
 1931 0028 FFF7FEFF 		bl	chSemSignal
 1932              		.loc 7 563 0 discriminator 1
 1933 002c 1148     		ldr	r0, .L82
 1934 002e FFF7FEFF 		bl	chSemWait
 1935              		.loc 7 564 0 discriminator 1
 1936 0032 1048     		ldr	r0, .L82
 1937 0034 FFF7FEFF 		bl	chSemSignal
 1938              		.loc 7 565 0 discriminator 1
 1939 0038 0E48     		ldr	r0, .L82
 1940 003a FFF7FEFF 		bl	chSemWait
 1941              		.loc 7 566 0 discriminator 1
 1942 003e 0D48     		ldr	r0, .L82
 1943 0040 FFF7FEFF 		bl	chSemSignal
 1944              		.loc 7 567 0 discriminator 1
 1945 0044 019B     		ldr	r3, [sp, #4]
 1946 0046 0133     		adds	r3, r3, #1
 1947 0048 0193     		str	r3, [sp, #4]
 1948              		.loc 7 571 0 discriminator 1
 1949 004a 0B4B     		ldr	r3, .L82+4
 1950 004c 1B78     		ldrb	r3, [r3]	@ zero_extendqisi2
 1951 004e 83F00103 		eor	r3, r3, #1
 1952 0052 DBB2     		uxtb	r3, r3
 1953 0054 002B     		cmp	r3, #0
 1954 0056 DDD1     		bne	.L81
 1955              		.loc 7 572 0
 1956 0058 0848     		ldr	r0, .L82+8
 1957 005a FFF7FEFF 		bl	test_print
 1958              		.loc 7 573 0
 1959 005e 019B     		ldr	r3, [sp, #4]
 1960 0060 9B00     		lsls	r3, r3, #2
 1961 0062 1846     		mov	r0, r3
 1962 0064 FFF7FEFF 		bl	test_printn
 1963              		.loc 7 574 0
 1964 0068 0548     		ldr	r0, .L82+12
 1965 006a FFF7FEFF 		bl	test_println
 1966              		.loc 7 575 0
 1967 006e 03B0     		add	sp, sp, #12
 1968              		@ sp needed
 1969 0070 5DF804FB 		ldr	pc, [sp], #4
 1970              	.L83:
 1971              		.align	2
 1972              	.L82:
 1973 0074 00000000 		.word	sem1
ARM GAS  /tmp/ccNJMr1l.s 			page 37


 1974 0078 00000000 		.word	test_timer_done
 1975 007c 00000000 		.word	.LC0
 1976 0080 A0010000 		.word	.LC17
 1977              		.cfi_endproc
 1978              	.LFE259:
 1979              		.size	bmk11_execute, .-bmk11_execute
 1980              		.global	testbmk11
 1981 0084 AFF30080 		.section	.rodata
 1981      AFF30080 
 1981      AFF30080 
 1982 01af 00       		.align	2
 1983              	.LC18:
 1984 01b0 42656E63 		.ascii	"Benchmark, semaphores wait/signal\000"
 1984      686D6172 
 1984      6B2C2073 
 1984      656D6170 
 1984      686F7265 
 1985              		.section	.rodata.testbmk11,"a",%progbits
 1986              		.align	2
 1987              		.type	testbmk11, %object
 1988              		.size	testbmk11, 16
 1989              	testbmk11:
 1990 0000 B0010000 		.word	.LC18
 1991 0004 00000000 		.word	bmk11_setup
 1992 0008 00000000 		.word	0
 1993 000c 00000000 		.word	bmk11_execute
 1994              		.section	.text.bmk12_setup,"ax",%progbits
 1995              		.align	2
 1996              		.p2align 4,,15
 1997              		.thumb
 1998              		.thumb_func
 1999              		.type	bmk12_setup, %function
 2000              	bmk12_setup:
 2001              	.LFB260:
 2002              		.loc 7 596 0
 2003              		.cfi_startproc
 2004              		@ args = 0, pretend = 0, frame = 0
 2005              		@ frame_needed = 0, uses_anonymous_args = 0
 2006 0000 08B5     		push	{r3, lr}
 2007              		.cfi_def_cfa_offset 8
 2008              		.cfi_offset 3, -8
 2009              		.cfi_offset 14, -4
 2010              		.loc 7 598 0
 2011 0002 0248     		ldr	r0, .L85
 2012 0004 FFF7FEFF 		bl	chMtxObjectInit
 2013              		.loc 7 599 0
 2014 0008 08BD     		pop	{r3, pc}
 2015              	.L86:
 2016 000a 00BF     		.align	2
 2017              	.L85:
 2018 000c 00000000 		.word	mtx1
 2019              		.cfi_endproc
 2020              	.LFE260:
 2021              		.size	bmk12_setup, .-bmk12_setup
 2022              		.section	.rodata
 2023 01d2 0000     		.align	2
 2024              	.LC19:
ARM GAS  /tmp/ccNJMr1l.s 			page 38


 2025 01d4 206C6F63 		.ascii	" lock+unlock/S\000"
 2025      6B2B756E 
 2025      6C6F636B 
 2025      2F5300
 2026              		.section	.text.bmk12_execute,"ax",%progbits
 2027              		.align	2
 2028              		.p2align 4,,15
 2029              		.thumb
 2030              		.thumb_func
 2031              		.type	bmk12_execute, %function
 2032              	bmk12_execute:
 2033              	.LFB261:
 2034              		.loc 7 601 0
 2035              		.cfi_startproc
 2036              		@ args = 0, pretend = 0, frame = 8
 2037              		@ frame_needed = 0, uses_anonymous_args = 0
 2038 0000 00B5     		push	{lr}
 2039              		.cfi_def_cfa_offset 4
 2040              		.cfi_offset 14, -4
 2041 0002 83B0     		sub	sp, sp, #12
 2042              		.cfi_def_cfa_offset 16
 2043              		.loc 7 602 0
 2044 0004 0023     		movs	r3, #0
 2045 0006 0193     		str	r3, [sp, #4]
 2046              		.loc 7 604 0
 2047 0008 FFF7FEFF 		bl	test_wait_tick
 2048              		.loc 7 605 0
 2049 000c 4FF47A70 		mov	r0, #1000
 2050 0010 FFF7FEFF 		bl	test_start_timer
 2051              	.L88:
 2052              		.loc 7 607 0 discriminator 1
 2053 0014 1748     		ldr	r0, .L89
 2054 0016 FFF7FEFF 		bl	chMtxLock
 2055              		.loc 7 608 0 discriminator 1
 2056 001a 1648     		ldr	r0, .L89
 2057 001c FFF7FEFF 		bl	chMtxUnlock
 2058              		.loc 7 609 0 discriminator 1
 2059 0020 1448     		ldr	r0, .L89
 2060 0022 FFF7FEFF 		bl	chMtxLock
 2061              		.loc 7 610 0 discriminator 1
 2062 0026 1348     		ldr	r0, .L89
 2063 0028 FFF7FEFF 		bl	chMtxUnlock
 2064              		.loc 7 611 0 discriminator 1
 2065 002c 1148     		ldr	r0, .L89
 2066 002e FFF7FEFF 		bl	chMtxLock
 2067              		.loc 7 612 0 discriminator 1
 2068 0032 1048     		ldr	r0, .L89
 2069 0034 FFF7FEFF 		bl	chMtxUnlock
 2070              		.loc 7 613 0 discriminator 1
 2071 0038 0E48     		ldr	r0, .L89
 2072 003a FFF7FEFF 		bl	chMtxLock
 2073              		.loc 7 614 0 discriminator 1
 2074 003e 0D48     		ldr	r0, .L89
 2075 0040 FFF7FEFF 		bl	chMtxUnlock
 2076              		.loc 7 615 0 discriminator 1
 2077 0044 019B     		ldr	r3, [sp, #4]
 2078 0046 0133     		adds	r3, r3, #1
ARM GAS  /tmp/ccNJMr1l.s 			page 39


 2079 0048 0193     		str	r3, [sp, #4]
 2080              		.loc 7 619 0 discriminator 1
 2081 004a 0B4B     		ldr	r3, .L89+4
 2082 004c 1B78     		ldrb	r3, [r3]	@ zero_extendqisi2
 2083 004e 83F00103 		eor	r3, r3, #1
 2084 0052 DBB2     		uxtb	r3, r3
 2085 0054 002B     		cmp	r3, #0
 2086 0056 DDD1     		bne	.L88
 2087              		.loc 7 620 0
 2088 0058 0848     		ldr	r0, .L89+8
 2089 005a FFF7FEFF 		bl	test_print
 2090              		.loc 7 621 0
 2091 005e 019B     		ldr	r3, [sp, #4]
 2092 0060 9B00     		lsls	r3, r3, #2
 2093 0062 1846     		mov	r0, r3
 2094 0064 FFF7FEFF 		bl	test_printn
 2095              		.loc 7 622 0
 2096 0068 0548     		ldr	r0, .L89+12
 2097 006a FFF7FEFF 		bl	test_println
 2098              		.loc 7 623 0
 2099 006e 03B0     		add	sp, sp, #12
 2100              		@ sp needed
 2101 0070 5DF804FB 		ldr	pc, [sp], #4
 2102              	.L90:
 2103              		.align	2
 2104              	.L89:
 2105 0074 00000000 		.word	mtx1
 2106 0078 00000000 		.word	test_timer_done
 2107 007c 00000000 		.word	.LC0
 2108 0080 D4010000 		.word	.LC19
 2109              		.cfi_endproc
 2110              	.LFE261:
 2111              		.size	bmk12_execute, .-bmk12_execute
 2112              		.global	testbmk12
 2113 0084 AFF30080 		.section	.rodata
 2113      AFF30080 
 2113      AFF30080 
 2114 01e3 00       		.align	2
 2115              	.LC20:
 2116 01e4 42656E63 		.ascii	"Benchmark, mutexes lock/unlock\000"
 2116      686D6172 
 2116      6B2C206D 
 2116      75746578 
 2116      6573206C 
 2117              		.section	.rodata.testbmk12,"a",%progbits
 2118              		.align	2
 2119              		.type	testbmk12, %object
 2120              		.size	testbmk12, 16
 2121              	testbmk12:
 2122 0000 E4010000 		.word	.LC20
 2123 0004 00000000 		.word	bmk12_setup
 2124 0008 00000000 		.word	0
 2125 000c 00000000 		.word	bmk12_execute
 2126              		.section	.rodata
 2127 0203 00       		.align	2
 2128              	.LC21:
 2129 0204 2D2D2D20 		.ascii	"--- System: \000"
ARM GAS  /tmp/ccNJMr1l.s 			page 40


 2129      53797374 
 2129      656D3A20 
 2129      00
 2130 0211 000000   		.align	2
 2131              	.LC22:
 2132 0214 20627974 		.ascii	" bytes\000"
 2132      657300
 2133 021b 00       		.align	2
 2134              	.LC23:
 2135 021c 2D2D2D20 		.ascii	"--- Thread: \000"
 2135      54687265 
 2135      61643A20 
 2135      00
 2136 0229 000000   		.align	2
 2137              	.LC24:
 2138 022c 2D2D2D20 		.ascii	"--- Timer : \000"
 2138      54696D65 
 2138      72203A20 
 2138      00
 2139 0239 000000   		.align	2
 2140              	.LC25:
 2141 023c 2D2D2D20 		.ascii	"--- Semaph: \000"
 2141      53656D61 
 2141      70683A20 
 2141      00
 2142 0249 000000   		.align	2
 2143              	.LC26:
 2144 024c 2D2D2D20 		.ascii	"--- EventS: \000"
 2144      4576656E 
 2144      74533A20 
 2144      00
 2145 0259 000000   		.align	2
 2146              	.LC27:
 2147 025c 2D2D2D20 		.ascii	"--- EventL: \000"
 2147      4576656E 
 2147      744C3A20 
 2147      00
 2148 0269 000000   		.align	2
 2149              	.LC28:
 2150 026c 2D2D2D20 		.ascii	"--- Mutex : \000"
 2150      4D757465 
 2150      78203A20 
 2150      00
 2151 0279 000000   		.align	2
 2152              	.LC29:
 2153 027c 2D2D2D20 		.ascii	"--- CondV.: \000"
 2153      436F6E64 
 2153      562E3A20 
 2153      00
 2154 0289 000000   		.align	2
 2155              	.LC30:
 2156 028c 2D2D2D20 		.ascii	"--- Queue : \000"
 2156      51756575 
 2156      65203A20 
 2156      00
 2157 0299 000000   		.align	2
 2158              	.LC31:
ARM GAS  /tmp/ccNJMr1l.s 			page 41


 2159 029c 2D2D2D20 		.ascii	"--- MailB.: \000"
 2159      4D61696C 
 2159      422E3A20 
 2159      00
 2160              		.section	.text.bmk13_execute,"ax",%progbits
 2161              		.align	2
 2162              		.p2align 4,,15
 2163              		.thumb
 2164              		.thumb_func
 2165              		.type	bmk13_execute, %function
 2166              	bmk13_execute:
 2167              	.LFB262:
 2168              		.loc 7 640 0
 2169              		.cfi_startproc
 2170              		@ args = 0, pretend = 0, frame = 0
 2171              		@ frame_needed = 0, uses_anonymous_args = 0
 2172 0000 08B5     		push	{r3, lr}
 2173              		.cfi_def_cfa_offset 8
 2174              		.cfi_offset 3, -8
 2175              		.cfi_offset 14, -4
 2176              		.loc 7 642 0
 2177 0002 2E48     		ldr	r0, .L92
 2178 0004 FFF7FEFF 		bl	test_print
 2179              		.loc 7 643 0
 2180 0008 4FF4BB60 		mov	r0, #1496
 2181 000c FFF7FEFF 		bl	test_printn
 2182              		.loc 7 644 0
 2183 0010 2B48     		ldr	r0, .L92+4
 2184 0012 FFF7FEFF 		bl	test_println
 2185              		.loc 7 645 0
 2186 0016 2B48     		ldr	r0, .L92+8
 2187 0018 FFF7FEFF 		bl	test_print
 2188              		.loc 7 646 0
 2189 001c 6020     		movs	r0, #96
 2190 001e FFF7FEFF 		bl	test_printn
 2191              		.loc 7 647 0
 2192 0022 2748     		ldr	r0, .L92+4
 2193 0024 FFF7FEFF 		bl	test_println
 2194              		.loc 7 648 0
 2195 0028 2748     		ldr	r0, .L92+12
 2196 002a FFF7FEFF 		bl	test_print
 2197              		.loc 7 649 0
 2198 002e 1420     		movs	r0, #20
 2199 0030 FFF7FEFF 		bl	test_printn
 2200              		.loc 7 650 0
 2201 0034 2248     		ldr	r0, .L92+4
 2202 0036 FFF7FEFF 		bl	test_println
 2203              		.loc 7 652 0
 2204 003a 2448     		ldr	r0, .L92+16
 2205 003c FFF7FEFF 		bl	test_print
 2206              		.loc 7 653 0
 2207 0040 0C20     		movs	r0, #12
 2208 0042 FFF7FEFF 		bl	test_printn
 2209              		.loc 7 654 0
 2210 0046 1E48     		ldr	r0, .L92+4
 2211 0048 FFF7FEFF 		bl	test_println
 2212              		.loc 7 657 0
ARM GAS  /tmp/ccNJMr1l.s 			page 42


 2213 004c 2048     		ldr	r0, .L92+20
 2214 004e FFF7FEFF 		bl	test_print
 2215              		.loc 7 658 0
 2216 0052 0420     		movs	r0, #4
 2217 0054 FFF7FEFF 		bl	test_printn
 2218              		.loc 7 659 0
 2219 0058 1948     		ldr	r0, .L92+4
 2220 005a FFF7FEFF 		bl	test_println
 2221              		.loc 7 660 0
 2222 005e 1D48     		ldr	r0, .L92+24
 2223 0060 FFF7FEFF 		bl	test_print
 2224              		.loc 7 661 0
 2225 0064 1420     		movs	r0, #20
 2226 0066 FFF7FEFF 		bl	test_printn
 2227              		.loc 7 662 0
 2228 006a 1548     		ldr	r0, .L92+4
 2229 006c FFF7FEFF 		bl	test_println
 2230              		.loc 7 665 0
 2231 0070 1948     		ldr	r0, .L92+28
 2232 0072 FFF7FEFF 		bl	test_print
 2233              		.loc 7 666 0
 2234 0076 1020     		movs	r0, #16
 2235 0078 FFF7FEFF 		bl	test_printn
 2236              		.loc 7 667 0
 2237 007c 1048     		ldr	r0, .L92+4
 2238 007e FFF7FEFF 		bl	test_println
 2239              		.loc 7 670 0
 2240 0082 1648     		ldr	r0, .L92+32
 2241 0084 FFF7FEFF 		bl	test_print
 2242              		.loc 7 671 0
 2243 0088 0820     		movs	r0, #8
 2244 008a FFF7FEFF 		bl	test_printn
 2245              		.loc 7 672 0
 2246 008e 0C48     		ldr	r0, .L92+4
 2247 0090 FFF7FEFF 		bl	test_println
 2248              		.loc 7 675 0
 2249 0094 1248     		ldr	r0, .L92+36
 2250 0096 FFF7FEFF 		bl	test_print
 2251              		.loc 7 676 0
 2252 009a 2420     		movs	r0, #36
 2253 009c FFF7FEFF 		bl	test_printn
 2254              		.loc 7 677 0
 2255 00a0 0748     		ldr	r0, .L92+4
 2256 00a2 FFF7FEFF 		bl	test_println
 2257              		.loc 7 680 0
 2258 00a6 0F48     		ldr	r0, .L92+40
 2259 00a8 FFF7FEFF 		bl	test_print
 2260              		.loc 7 681 0
 2261 00ac 2820     		movs	r0, #40
 2262 00ae FFF7FEFF 		bl	test_printn
 2263              		.loc 7 682 0
 2264 00b2 0348     		ldr	r0, .L92+4
 2265 00b4 FFF7FEFF 		bl	test_println
 2266              		.loc 7 684 0
 2267 00b8 08BD     		pop	{r3, pc}
 2268              	.L93:
 2269 00ba 00BF     		.align	2
ARM GAS  /tmp/ccNJMr1l.s 			page 43


 2270              	.L92:
 2271 00bc 04020000 		.word	.LC21
 2272 00c0 14020000 		.word	.LC22
 2273 00c4 1C020000 		.word	.LC23
 2274 00c8 2C020000 		.word	.LC24
 2275 00cc 3C020000 		.word	.LC25
 2276 00d0 4C020000 		.word	.LC26
 2277 00d4 5C020000 		.word	.LC27
 2278 00d8 6C020000 		.word	.LC28
 2279 00dc 7C020000 		.word	.LC29
 2280 00e0 8C020000 		.word	.LC30
 2281 00e4 9C020000 		.word	.LC31
 2282              		.cfi_endproc
 2283              	.LFE262:
 2284              		.size	bmk13_execute, .-bmk13_execute
 2285              		.global	testbmk13
 2286 00e8 AFF30080 		.section	.rodata
 2286      AFF30080 
 2287 02a9 000000   		.align	2
 2288              	.LC32:
 2289 02ac 42656E63 		.ascii	"Benchmark, RAM footprint\000"
 2289      686D6172 
 2289      6B2C2052 
 2289      414D2066 
 2289      6F6F7470 
 2290 02c5 000000   		.section	.rodata.testbmk13,"a",%progbits
 2291              		.align	2
 2292              		.type	testbmk13, %object
 2293              		.size	testbmk13, 16
 2294              	testbmk13:
 2295 0000 AC020000 		.word	.LC32
 2296 0004 00000000 		.word	0
 2297 0008 00000000 		.word	0
 2298 000c 00000000 		.word	bmk13_execute
 2299              		.global	patternbmk
 2300              		.section	.rodata.patternbmk,"a",%progbits
 2301              		.align	2
 2302              		.type	patternbmk, %object
 2303              		.size	patternbmk, 56
 2304              	patternbmk:
 2305 0000 00000000 		.word	testbmk1
 2306 0004 00000000 		.word	testbmk2
 2307 0008 00000000 		.word	testbmk3
 2308 000c 00000000 		.word	testbmk4
 2309 0010 00000000 		.word	testbmk5
 2310 0014 00000000 		.word	testbmk6
 2311 0018 00000000 		.word	testbmk7
 2312 001c 00000000 		.word	testbmk8
 2313 0020 00000000 		.word	testbmk9
 2314 0024 00000000 		.word	testbmk10
 2315 0028 00000000 		.word	testbmk11
 2316 002c 00000000 		.word	testbmk12
 2317 0030 00000000 		.word	testbmk13
 2318 0034 00000000 		.word	0
 2319              		.section	.rodata.__func__.5925,"a",%progbits
 2320              		.align	2
 2321              		.type	__func__.5925, %object
ARM GAS  /tmp/ccNJMr1l.s 			page 44


 2322              		.size	__func__.5925, 12
 2323              	__func__.5925:
 2324 0000 63685379 		.ascii	"chSysUnlock\000"
 2324      73556E6C 
 2324      6F636B00 
 2325              		.section	.bss.iq.6766,"aw",%nobits
 2326              		.align	2
 2327              		.type	iq.6766, %object
 2328              		.size	iq.6766, 36
 2329              	iq.6766:
 2330 0000 00000000 		.space	36
 2330      00000000 
 2330      00000000 
 2330      00000000 
 2330      00000000 
 2331              		.section	.bss.ib.6765,"aw",%nobits
 2332              		.align	2
 2333              		.type	ib.6765, %object
 2334              		.size	ib.6765, 16
 2335              	ib.6765:
 2336 0000 00000000 		.space	16
 2336      00000000 
 2336      00000000 
 2336      00000000 
 2337              		.section	.bss.vt1.6776,"aw",%nobits
 2338              		.align	2
 2339              		.type	vt1.6776, %object
 2340              		.size	vt1.6776, 20
 2341              	vt1.6776:
 2342 0000 00000000 		.space	20
 2342      00000000 
 2342      00000000 
 2342      00000000 
 2342      00000000 
 2343              		.section	.bss.vt2.6777,"aw",%nobits
 2344              		.align	2
 2345              		.type	vt2.6777, %object
 2346              		.size	vt2.6777, 20
 2347              	vt2.6777:
 2348 0000 00000000 		.space	20
 2348      00000000 
 2348      00000000 
 2348      00000000 
 2348      00000000 
 2349              		.text
 2350              	.Letext0:
 2351              		.file 8 "/usr/lib/gcc/arm-none-eabi/4.8/include/stddef.h"
 2352              		.file 9 "/usr/include/newlib/machine/_default_types.h"
 2353              		.file 10 "/usr/include/newlib/stdint.h"
 2354              		.file 11 "/home/efe/ChibiOS/os/rt/ports/ARMCMx/compilers/GCC/chtypes.h"
 2355              		.file 12 "/home/efe/ChibiOS/os/rt/include/chsystypes.h"
 2356              		.file 13 "/home/efe/ChibiOS/os/rt/include/chschd.h"
 2357              		.file 14 "/home/efe/ChibiOS/os/rt/ports/ARMCMx/chcore.h"
 2358              		.file 15 "/home/efe/ChibiOS/os/rt/include/chdebug.h"
 2359              		.file 16 "/home/efe/ChibiOS/os/rt/include/chtm.h"
 2360              		.file 17 "/home/efe/ChibiOS/os/rt/include/chstats.h"
 2361              		.file 18 "/home/efe/ChibiOS/os/rt/include/chsem.h"
ARM GAS  /tmp/ccNJMr1l.s 			page 45


 2362              		.file 19 "/home/efe/ChibiOS/os/rt/include/chmtx.h"
 2363              		.file 20 "/home/efe/ChibiOS/test/rt/test.h"
 2364              		.file 21 "/home/efe/ChibiOS/os/ext/CMSIS/include/core_cm4.h"