ARM GAS  /tmp/cc3BbLdQ.s 			page 1


   1              		.syntax unified
   2              		.cpu cortex-m4
   3              		.fpu softvfp
   4              		.eabi_attribute 20, 1
   5              		.eabi_attribute 21, 1
   6              		.eabi_attribute 23, 3
   7              		.eabi_attribute 24, 1
   8              		.eabi_attribute 25, 1
   9              		.eabi_attribute 26, 1
  10              		.eabi_attribute 30, 6
  11              		.eabi_attribute 34, 1
  12              		.eabi_attribute 18, 4
  13              		.thumb
  14              		.file	"testmsg.c"
  15              		.text
  16              	.Ltext0:
  17              		.cfi_sections	.debug_frame
  18              		.section	.text.chThdGetSelfX,"ax",%progbits
  19              		.align	2
  20              		.p2align 4,,15
  21              		.thumb
  22              		.thumb_func
  23              		.type	chThdGetSelfX, %function
  24              	chThdGetSelfX:
  25              	.LFB188:
  26              		.file 1 "/home/efe/ChibiOS/os/rt/include/chthreads.h"
  27              		.loc 1 174 0
  28              		.cfi_startproc
  29              		@ args = 0, pretend = 0, frame = 0
  30              		@ frame_needed = 0, uses_anonymous_args = 0
  31              		@ link register save eliminated.
  32              		.loc 1 176 0
  33 0000 014B     		ldr	r3, .L3
  34 0002 9B69     		ldr	r3, [r3, #24]
  35              		.loc 1 177 0
  36 0004 1846     		mov	r0, r3
  37 0006 7047     		bx	lr
  38              	.L4:
  39              		.align	2
  40              	.L3:
  41 0008 00000000 		.word	ch
  42              		.cfi_endproc
  43              	.LFE188:
  44              		.size	chThdGetSelfX, .-chThdGetSelfX
  45 000c AFF30080 		.section	.text.chThdGetPriorityX,"ax",%progbits
  46              		.align	2
  47              		.p2align 4,,15
  48              		.thumb
  49              		.thumb_func
  50              		.type	chThdGetPriorityX, %function
  51              	chThdGetPriorityX:
  52              	.LFB189:
  53              		.loc 1 187 0
  54              		.cfi_startproc
  55              		@ args = 0, pretend = 0, frame = 0
  56              		@ frame_needed = 0, uses_anonymous_args = 0
  57 0000 08B5     		push	{r3, lr}
ARM GAS  /tmp/cc3BbLdQ.s 			page 2


  58              		.cfi_def_cfa_offset 8
  59              		.cfi_offset 3, -8
  60              		.cfi_offset 14, -4
  61              		.loc 1 189 0
  62 0002 FFF7FEFF 		bl	chThdGetSelfX
  63 0006 0346     		mov	r3, r0
  64 0008 9B68     		ldr	r3, [r3, #8]
  65              		.loc 1 190 0
  66 000a 1846     		mov	r0, r3
  67 000c 08BD     		pop	{r3, pc}
  68              		.cfi_endproc
  69              	.LFE189:
  70              		.size	chThdGetPriorityX, .-chThdGetPriorityX
  71 000e 00BF     		.section	.text.chMsgGet,"ax",%progbits
  72              		.align	2
  73              		.p2align 4,,15
  74              		.thumb
  75              		.thumb_func
  76              		.type	chMsgGet, %function
  77              	chMsgGet:
  78              	.LFB222:
  79              		.file 2 "/home/efe/ChibiOS/os/rt/include/chmsg.h"
  80              		.loc 2 96 0
  81              		.cfi_startproc
  82              		@ args = 0, pretend = 0, frame = 8
  83              		@ frame_needed = 0, uses_anonymous_args = 0
  84              		@ link register save eliminated.
  85 0000 82B0     		sub	sp, sp, #8
  86              		.cfi_def_cfa_offset 8
  87 0002 0190     		str	r0, [sp, #4]
  88              		.loc 2 98 0
  89 0004 019B     		ldr	r3, [sp, #4]
  90 0006 5B6B     		ldr	r3, [r3, #52]
  91              		.loc 2 99 0
  92 0008 1846     		mov	r0, r3
  93 000a 02B0     		add	sp, sp, #8
  94              		@ sp needed
  95 000c 7047     		bx	lr
  96              		.cfi_endproc
  97              	.LFE222:
  98              		.size	chMsgGet, .-chMsgGet
  99 000e 00BF     		.section	.text.thread,"ax",%progbits
 100              		.align	2
 101              		.p2align 4,,15
 102              		.thumb
 103              		.thumb_func
 104              		.type	thread, %function
 105              	thread:
 106              	.LFB240:
 107              		.file 3 "/home/efe/ChibiOS/test/rt/testmsg.c"
 108              		.loc 3 59 0
 109              		.cfi_startproc
 110              		@ args = 0, pretend = 0, frame = 8
 111              		@ frame_needed = 0, uses_anonymous_args = 0
 112 0000 00B5     		push	{lr}
 113              		.cfi_def_cfa_offset 4
 114              		.cfi_offset 14, -4
ARM GAS  /tmp/cc3BbLdQ.s 			page 3


 115 0002 83B0     		sub	sp, sp, #12
 116              		.cfi_def_cfa_offset 16
 117 0004 0190     		str	r0, [sp, #4]
 118              		.loc 3 61 0
 119 0006 0198     		ldr	r0, [sp, #4]
 120 0008 4121     		movs	r1, #65
 121 000a FFF7FEFF 		bl	chMsgSend
 122              		.loc 3 62 0
 123 000e 0198     		ldr	r0, [sp, #4]
 124 0010 4221     		movs	r1, #66
 125 0012 FFF7FEFF 		bl	chMsgSend
 126              		.loc 3 63 0
 127 0016 0198     		ldr	r0, [sp, #4]
 128 0018 4321     		movs	r1, #67
 129 001a FFF7FEFF 		bl	chMsgSend
 130              		.loc 3 64 0
 131 001e 03B0     		add	sp, sp, #12
 132              		@ sp needed
 133 0020 5DF804FB 		ldr	pc, [sp], #4
 134              		.cfi_endproc
 135              	.LFE240:
 136              		.size	thread, .-thread
 137 0024 AFF30080 		.section	.rodata
 137      AFF30080 
 137      AFF30080 
 138              		.align	2
 139              	.LC0:
 140 0000 41424300 		.ascii	"ABC\000"
 141              		.section	.text.msg1_execute,"ax",%progbits
 142              		.align	2
 143              		.p2align 4,,15
 144              		.thumb
 145              		.thumb_func
 146              		.type	msg1_execute, %function
 147              	msg1_execute:
 148              	.LFB241:
 149              		.loc 3 66 0
 150              		.cfi_startproc
 151              		@ args = 0, pretend = 0, frame = 8
 152              		@ frame_needed = 0, uses_anonymous_args = 0
 153 0000 30B5     		push	{r4, r5, lr}
 154              		.cfi_def_cfa_offset 12
 155              		.cfi_offset 4, -12
 156              		.cfi_offset 5, -8
 157              		.cfi_offset 14, -4
 158 0002 85B0     		sub	sp, sp, #20
 159              		.cfi_def_cfa_offset 32
 160              		.loc 3 73 0
 161 0004 264B     		ldr	r3, .L12
 162 0006 1D68     		ldr	r5, [r3]
 163 0008 FFF7FEFF 		bl	chThdGetPriorityX
 164 000c 0346     		mov	r3, r0
 165 000e 5C1C     		adds	r4, r3, #1
 166              		.loc 3 74 0
 167 0010 FFF7FEFF 		bl	chThdGetSelfX
 168 0014 0346     		mov	r3, r0
 169              		.loc 3 73 0
ARM GAS  /tmp/cc3BbLdQ.s 			page 4


 170 0016 0093     		str	r3, [sp]
 171 0018 2846     		mov	r0, r5
 172 001a 4FF4B471 		mov	r1, #360
 173 001e 2246     		mov	r2, r4
 174 0020 204B     		ldr	r3, .L12+4
 175 0022 FFF7FEFF 		bl	chThdCreateStatic
 176 0026 0246     		mov	r2, r0
 177 0028 1F4B     		ldr	r3, .L12+8
 178 002a 1A60     		str	r2, [r3]
 179              		.loc 3 75 0
 180 002c FFF7FEFF 		bl	chMsgWait
 181 0030 0390     		str	r0, [sp, #12]
 182              		.loc 3 76 0
 183 0032 0398     		ldr	r0, [sp, #12]
 184 0034 FFF7FEFF 		bl	chMsgGet
 185 0038 0290     		str	r0, [sp, #8]
 186              		.loc 3 77 0
 187 003a 0398     		ldr	r0, [sp, #12]
 188 003c 0299     		ldr	r1, [sp, #8]
 189 003e FFF7FEFF 		bl	chMsgRelease
 190              		.loc 3 78 0
 191 0042 029B     		ldr	r3, [sp, #8]
 192 0044 DBB2     		uxtb	r3, r3
 193 0046 1846     		mov	r0, r3
 194 0048 FFF7FEFF 		bl	test_emit_token
 195              		.loc 3 79 0
 196 004c FFF7FEFF 		bl	chMsgWait
 197 0050 0390     		str	r0, [sp, #12]
 198              		.loc 3 80 0
 199 0052 0398     		ldr	r0, [sp, #12]
 200 0054 FFF7FEFF 		bl	chMsgGet
 201 0058 0290     		str	r0, [sp, #8]
 202              		.loc 3 81 0
 203 005a 0398     		ldr	r0, [sp, #12]
 204 005c 0299     		ldr	r1, [sp, #8]
 205 005e FFF7FEFF 		bl	chMsgRelease
 206              		.loc 3 82 0
 207 0062 029B     		ldr	r3, [sp, #8]
 208 0064 DBB2     		uxtb	r3, r3
 209 0066 1846     		mov	r0, r3
 210 0068 FFF7FEFF 		bl	test_emit_token
 211              		.loc 3 83 0
 212 006c FFF7FEFF 		bl	chMsgWait
 213 0070 0390     		str	r0, [sp, #12]
 214              		.loc 3 84 0
 215 0072 0398     		ldr	r0, [sp, #12]
 216 0074 FFF7FEFF 		bl	chMsgGet
 217 0078 0290     		str	r0, [sp, #8]
 218              		.loc 3 85 0
 219 007a 0398     		ldr	r0, [sp, #12]
 220 007c 0299     		ldr	r1, [sp, #8]
 221 007e FFF7FEFF 		bl	chMsgRelease
 222              		.loc 3 86 0
 223 0082 029B     		ldr	r3, [sp, #8]
 224 0084 DBB2     		uxtb	r3, r3
 225 0086 1846     		mov	r0, r3
 226 0088 FFF7FEFF 		bl	test_emit_token
ARM GAS  /tmp/cc3BbLdQ.s 			page 5


 227              		.loc 3 87 0
 228 008c 0120     		movs	r0, #1
 229 008e 0749     		ldr	r1, .L12+12
 230 0090 FFF7FEFF 		bl	_test_assert_sequence
 231 0094 0346     		mov	r3, r0
 232 0096 002B     		cmp	r3, #0
 233 0098 00D0     		beq	.L10
 234              		.loc 3 87 0 is_stmt 0 discriminator 1
 235 009a 00BF     		nop
 236              	.L10:
 237              		.loc 3 88 0 is_stmt 1
 238 009c 05B0     		add	sp, sp, #20
 239              		@ sp needed
 240 009e 30BD     		pop	{r4, r5, pc}
 241              	.L13:
 242              		.align	2
 243              	.L12:
 244 00a0 00000000 		.word	wa
 245 00a4 00000000 		.word	thread
 246 00a8 00000000 		.word	threads
 247 00ac 00000000 		.word	.LC0
 248              		.cfi_endproc
 249              	.LFE241:
 250              		.size	msg1_execute, .-msg1_execute
 251              		.global	testmsg1
 252              		.section	.rodata
 253              		.align	2
 254              	.LC1:
 255 0004 4D657373 		.ascii	"Messages, loop\000"
 255      61676573 
 255      2C206C6F 
 255      6F7000
 256 0013 00       		.section	.rodata.testmsg1,"a",%progbits
 257              		.align	2
 258              		.type	testmsg1, %object
 259              		.size	testmsg1, 16
 260              	testmsg1:
 261 0000 04000000 		.word	.LC1
 262 0004 00000000 		.word	0
 263 0008 00000000 		.word	0
 264 000c 00000000 		.word	msg1_execute
 265              		.global	patternmsg
 266              		.section	.rodata.patternmsg,"a",%progbits
 267              		.align	2
 268              		.type	patternmsg, %object
 269              		.size	patternmsg, 8
 270              	patternmsg:
 271 0000 00000000 		.word	testmsg1
 272 0004 00000000 		.word	0
 273              		.text
 274              	.Letext0:
 275              		.file 4 "/usr/lib/gcc/arm-none-eabi/4.8/include/stddef.h"
 276              		.file 5 "/usr/include/newlib/machine/_default_types.h"
 277              		.file 6 "/usr/include/newlib/stdint.h"
 278              		.file 7 "/home/efe/ChibiOS/os/rt/ports/ARMCMx/compilers/GCC/chtypes.h"
 279              		.file 8 "/home/efe/ChibiOS/os/rt/include/chsystypes.h"
 280              		.file 9 "/home/efe/ChibiOS/os/rt/include/chschd.h"
ARM GAS  /tmp/cc3BbLdQ.s 			page 6


 281              		.file 10 "/home/efe/ChibiOS/os/rt/ports/ARMCMx/chcore.h"
 282              		.file 11 "/home/efe/ChibiOS/os/rt/ports/ARMCMx/chcore_v7m.h"
 283              		.file 12 "/home/efe/ChibiOS/os/rt/include/chdebug.h"
 284              		.file 13 "/home/efe/ChibiOS/os/rt/include/chtm.h"
 285              		.file 14 "/home/efe/ChibiOS/os/rt/include/chstats.h"
 286              		.file 15 "/home/efe/ChibiOS/os/rt/include/chsem.h"
 287              		.file 16 "/home/efe/ChibiOS/os/rt/include/chmtx.h"
 288              		.file 17 "/home/efe/ChibiOS/test/rt/test.h"
 289              		.file 18 "/home/efe/ChibiOS/os/ext/CMSIS/include/core_cm4.h"