ARM GAS  /tmp/ccSoisRf.s 			page 1


   1              		.syntax unified
   2              		.cpu cortex-m4
   3              		.fpu softvfp
   4              		.eabi_attribute 20, 1
   5              		.eabi_attribute 21, 1
   6              		.eabi_attribute 23, 3
   7              		.eabi_attribute 24, 1
   8              		.eabi_attribute 25, 1
   9              		.eabi_attribute 26, 1
  10              		.eabi_attribute 30, 6
  11              		.eabi_attribute 34, 1
  12              		.eabi_attribute 18, 4
  13              		.thumb
  14              		.file	"testmtx.c"
  15              		.text
  16              	.Ltext0:
  17              		.cfi_sections	.debug_frame
  18              		.section	.text.port_lock,"ax",%progbits
  19              		.align	2
  20              		.p2align 4,,15
  21              		.thumb
  22              		.thumb_func
  23              		.type	port_lock, %function
  24              	port_lock:
  25              	.LFB127:
  26              		.file 1 "/home/efe/ChibiOS/os/rt/ports/ARMCMx/chcore_v7m.h"
  27              		.loc 1 456 0
  28              		.cfi_startproc
  29              		@ args = 0, pretend = 0, frame = 8
  30              		@ frame_needed = 0, uses_anonymous_args = 0
  31              		@ link register save eliminated.
  32 0000 82B0     		sub	sp, sp, #8
  33              		.cfi_def_cfa_offset 8
  34 0002 2023     		movs	r3, #32
  35 0004 0193     		str	r3, [sp, #4]
  36              	.LBB6:
  37              	.LBB7:
  38              		.file 2 "/home/efe/ChibiOS/os/ext/CMSIS/include/core_cmFunc.h"
  39              		.loc 2 548 0
  40 0006 019B     		ldr	r3, [sp, #4]
  41              	@ 548 "/home/efe/ChibiOS/os/ext/CMSIS/include/core_cmFunc.h" 1
  42 0008 83F31188 		MSR basepri, r3
  43              	@ 0 "" 2
  44              		.thumb
  45              	.LBE7:
  46              	.LBE6:
  47              		.loc 1 463 0
  48 000c 02B0     		add	sp, sp, #8
  49              		@ sp needed
  50 000e 7047     		bx	lr
  51              		.cfi_endproc
  52              	.LFE127:
  53              		.size	port_lock, .-port_lock
  54              		.section	.text.port_unlock,"ax",%progbits
  55              		.align	2
  56              		.p2align 4,,15
  57              		.thumb
ARM GAS  /tmp/ccSoisRf.s 			page 2


  58              		.thumb_func
  59              		.type	port_unlock, %function
  60              	port_unlock:
  61              	.LFB128:
  62              		.loc 1 470 0
  63              		.cfi_startproc
  64              		@ args = 0, pretend = 0, frame = 8
  65              		@ frame_needed = 0, uses_anonymous_args = 0
  66              		@ link register save eliminated.
  67 0000 82B0     		sub	sp, sp, #8
  68              		.cfi_def_cfa_offset 8
  69 0002 0023     		movs	r3, #0
  70 0004 0193     		str	r3, [sp, #4]
  71              	.LBB8:
  72              	.LBB9:
  73              		.loc 2 548 0
  74 0006 019B     		ldr	r3, [sp, #4]
  75              	@ 548 "/home/efe/ChibiOS/os/ext/CMSIS/include/core_cmFunc.h" 1
  76 0008 83F31188 		MSR basepri, r3
  77              	@ 0 "" 2
  78              		.thumb
  79              	.LBE9:
  80              	.LBE8:
  81              		.loc 1 477 0
  82 000c 02B0     		add	sp, sp, #8
  83              		@ sp needed
  84 000e 7047     		bx	lr
  85              		.cfi_endproc
  86              	.LFE128:
  87              		.size	port_unlock, .-port_unlock
  88              		.section	.text.queue_isempty,"ax",%progbits
  89              		.align	2
  90              		.p2align 4,,15
  91              		.thumb
  92              		.thumb_func
  93              		.type	queue_isempty, %function
  94              	queue_isempty:
  95              	.LFB151:
  96              		.file 3 "/home/efe/ChibiOS/os/rt/include/chschd.h"
  97              		.loc 3 616 0
  98              		.cfi_startproc
  99              		@ args = 0, pretend = 0, frame = 8
 100              		@ frame_needed = 0, uses_anonymous_args = 0
 101              		@ link register save eliminated.
 102 0000 82B0     		sub	sp, sp, #8
 103              		.cfi_def_cfa_offset 8
 104 0002 0190     		str	r0, [sp, #4]
 105              		.loc 3 618 0
 106 0004 019B     		ldr	r3, [sp, #4]
 107 0006 1A68     		ldr	r2, [r3]
 108 0008 019B     		ldr	r3, [sp, #4]
 109 000a 9A42     		cmp	r2, r3
 110 000c 14BF     		ite	ne
 111 000e 0023     		movne	r3, #0
 112 0010 0123     		moveq	r3, #1
 113 0012 DBB2     		uxtb	r3, r3
 114              		.loc 3 619 0
ARM GAS  /tmp/ccSoisRf.s 			page 3


 115 0014 1846     		mov	r0, r3
 116 0016 02B0     		add	sp, sp, #8
 117              		@ sp needed
 118 0018 7047     		bx	lr
 119              		.cfi_endproc
 120              	.LFE151:
 121              		.size	queue_isempty, .-queue_isempty
 122 001a 00BFAFF3 		.section	.text.chSysLock,"ax",%progbits
 122      0080
 123              		.align	2
 124              		.p2align 4,,15
 125              		.thumb
 126              		.thumb_func
 127              		.type	chSysLock, %function
 128              	chSysLock:
 129              	.LFB167:
 130              		.file 4 "/home/efe/ChibiOS/os/rt/include/chsys.h"
 131              		.loc 4 346 0
 132              		.cfi_startproc
 133              		@ args = 0, pretend = 0, frame = 0
 134              		@ frame_needed = 0, uses_anonymous_args = 0
 135 0000 08B5     		push	{r3, lr}
 136              		.cfi_def_cfa_offset 8
 137              		.cfi_offset 3, -8
 138              		.cfi_offset 14, -4
 139              		.loc 4 348 0
 140 0002 FFF7FEFF 		bl	port_lock
 141              		.loc 4 349 0
 142 0006 FFF7FEFF 		bl	_stats_start_measure_crit_thd
 143              		.loc 4 350 0
 144 000a FFF7FEFF 		bl	_dbg_check_lock
 145              		.loc 4 351 0
 146 000e 08BD     		pop	{r3, pc}
 147              		.cfi_endproc
 148              	.LFE167:
 149              		.size	chSysLock, .-chSysLock
 150              		.section	.text.chSysUnlock,"ax",%progbits
 151              		.align	2
 152              		.p2align 4,,15
 153              		.thumb
 154              		.thumb_func
 155              		.type	chSysUnlock, %function
 156              	chSysUnlock:
 157              	.LFB168:
 158              		.loc 4 358 0
 159              		.cfi_startproc
 160              		@ args = 0, pretend = 0, frame = 0
 161              		@ frame_needed = 0, uses_anonymous_args = 0
 162 0000 08B5     		push	{r3, lr}
 163              		.cfi_def_cfa_offset 8
 164              		.cfi_offset 3, -8
 165              		.cfi_offset 14, -4
 166              		.loc 4 360 0
 167 0002 FFF7FEFF 		bl	_dbg_check_unlock
 168              		.loc 4 361 0
 169 0006 FFF7FEFF 		bl	_stats_stop_measure_crit_thd
 170              		.loc 4 367 0
ARM GAS  /tmp/ccSoisRf.s 			page 4


 171 000a 094B     		ldr	r3, .L8
 172 000c 1A68     		ldr	r2, [r3]
 173 000e 084B     		ldr	r3, .L8
 174 0010 9A42     		cmp	r2, r3
 175 0012 0AD0     		beq	.L7
 176              		.loc 4 367 0 is_stmt 0 discriminator 1
 177 0014 064B     		ldr	r3, .L8
 178 0016 9B69     		ldr	r3, [r3, #24]
 179 0018 9A68     		ldr	r2, [r3, #8]
 180 001a 054B     		ldr	r3, .L8
 181 001c 1B68     		ldr	r3, [r3]
 182 001e 9B68     		ldr	r3, [r3, #8]
 183 0020 9A42     		cmp	r2, r3
 184 0022 02D2     		bcs	.L7
 185 0024 0348     		ldr	r0, .L8+4
 186 0026 FFF7FEFF 		bl	chSysHalt
 187              	.L7:
 188              		.loc 4 371 0 is_stmt 1
 189 002a FFF7FEFF 		bl	port_unlock
 190              		.loc 4 372 0
 191 002e 08BD     		pop	{r3, pc}
 192              	.L9:
 193              		.align	2
 194              	.L8:
 195 0030 00000000 		.word	ch
 196 0034 00000000 		.word	__func__.5925
 197              		.cfi_endproc
 198              	.LFE168:
 199              		.size	chSysUnlock, .-chSysUnlock
 200 0038 AFF30080 		.section	.text.chThdGetSelfX,"ax",%progbits
 200      AFF30080 
 201              		.align	2
 202              		.p2align 4,,15
 203              		.thumb
 204              		.thumb_func
 205              		.type	chThdGetSelfX, %function
 206              	chThdGetSelfX:
 207              	.LFB188:
 208              		.file 5 "/home/efe/ChibiOS/os/rt/include/chthreads.h"
 209              		.loc 5 174 0
 210              		.cfi_startproc
 211              		@ args = 0, pretend = 0, frame = 0
 212              		@ frame_needed = 0, uses_anonymous_args = 0
 213              		@ link register save eliminated.
 214              		.loc 5 176 0
 215 0000 014B     		ldr	r3, .L12
 216 0002 9B69     		ldr	r3, [r3, #24]
 217              		.loc 5 177 0
 218 0004 1846     		mov	r0, r3
 219 0006 7047     		bx	lr
 220              	.L13:
 221              		.align	2
 222              	.L12:
 223 0008 00000000 		.word	ch
 224              		.cfi_endproc
 225              	.LFE188:
 226              		.size	chThdGetSelfX, .-chThdGetSelfX
ARM GAS  /tmp/ccSoisRf.s 			page 5


 227 000c AFF30080 		.section	.text.chThdGetPriorityX,"ax",%progbits
 228              		.align	2
 229              		.p2align 4,,15
 230              		.thumb
 231              		.thumb_func
 232              		.type	chThdGetPriorityX, %function
 233              	chThdGetPriorityX:
 234              	.LFB189:
 235              		.loc 5 187 0
 236              		.cfi_startproc
 237              		@ args = 0, pretend = 0, frame = 0
 238              		@ frame_needed = 0, uses_anonymous_args = 0
 239 0000 08B5     		push	{r3, lr}
 240              		.cfi_def_cfa_offset 8
 241              		.cfi_offset 3, -8
 242              		.cfi_offset 14, -4
 243              		.loc 5 189 0
 244 0002 FFF7FEFF 		bl	chThdGetSelfX
 245 0006 0346     		mov	r3, r0
 246 0008 9B68     		ldr	r3, [r3, #8]
 247              		.loc 5 190 0
 248 000a 1846     		mov	r0, r3
 249 000c 08BD     		pop	{r3, pc}
 250              		.cfi_endproc
 251              	.LFE189:
 252              		.size	chThdGetPriorityX, .-chThdGetPriorityX
 253 000e 00BF     		.section	.data.m1,"aw",%progbits
 254              		.align	2
 255              		.type	m1, %object
 256              		.size	m1, 16
 257              	m1:
 258 0000 00000000 		.word	m1
 259 0004 00000000 		.word	m1
 260 0008 00000000 		.word	0
 261 000c 00000000 		.word	0
 262              		.section	.data.m2,"aw",%progbits
 263              		.align	2
 264              		.type	m2, %object
 265              		.size	m2, 16
 266              	m2:
 267 0000 00000000 		.word	m2
 268 0004 00000000 		.word	m2
 269 0008 00000000 		.word	0
 270 000c 00000000 		.word	0
 271              		.section	.data.c1,"aw",%progbits
 272              		.align	2
 273              		.type	c1, %object
 274              		.size	c1, 8
 275              	c1:
 276 0000 00000000 		.word	c1
 277 0004 00000000 		.word	c1
 278              		.section	.text.mtx1_setup,"ax",%progbits
 279              		.align	2
 280              		.p2align 4,,15
 281              		.thumb
 282              		.thumb_func
 283              		.type	mtx1_setup, %function
ARM GAS  /tmp/ccSoisRf.s 			page 6


 284              	mtx1_setup:
 285              	.LFB240:
 286              		.file 6 "/home/efe/ChibiOS/test/rt/testmtx.c"
 287              		.loc 6 84 0
 288              		.cfi_startproc
 289              		@ args = 0, pretend = 0, frame = 0
 290              		@ frame_needed = 0, uses_anonymous_args = 0
 291 0000 08B5     		push	{r3, lr}
 292              		.cfi_def_cfa_offset 8
 293              		.cfi_offset 3, -8
 294              		.cfi_offset 14, -4
 295              		.loc 6 86 0
 296 0002 0248     		ldr	r0, .L17
 297 0004 FFF7FEFF 		bl	chMtxObjectInit
 298              		.loc 6 87 0
 299 0008 08BD     		pop	{r3, pc}
 300              	.L18:
 301 000a 00BF     		.align	2
 302              	.L17:
 303 000c 00000000 		.word	m1
 304              		.cfi_endproc
 305              	.LFE240:
 306              		.size	mtx1_setup, .-mtx1_setup
 307              		.section	.text.thread1,"ax",%progbits
 308              		.align	2
 309              		.p2align 4,,15
 310              		.thumb
 311              		.thumb_func
 312              		.type	thread1, %function
 313              	thread1:
 314              	.LFB241:
 315              		.loc 6 89 0
 316              		.cfi_startproc
 317              		@ args = 0, pretend = 0, frame = 8
 318              		@ frame_needed = 0, uses_anonymous_args = 0
 319 0000 00B5     		push	{lr}
 320              		.cfi_def_cfa_offset 4
 321              		.cfi_offset 14, -4
 322 0002 83B0     		sub	sp, sp, #12
 323              		.cfi_def_cfa_offset 16
 324 0004 0190     		str	r0, [sp, #4]
 325              		.loc 6 91 0
 326 0006 0748     		ldr	r0, .L20
 327 0008 FFF7FEFF 		bl	chMtxLock
 328              		.loc 6 92 0
 329 000c 019B     		ldr	r3, [sp, #4]
 330 000e 1B78     		ldrb	r3, [r3]	@ zero_extendqisi2
 331 0010 1846     		mov	r0, r3
 332 0012 FFF7FEFF 		bl	test_emit_token
 333              		.loc 6 93 0
 334 0016 0348     		ldr	r0, .L20
 335 0018 FFF7FEFF 		bl	chMtxUnlock
 336              		.loc 6 94 0
 337 001c 03B0     		add	sp, sp, #12
 338              		@ sp needed
 339 001e 5DF804FB 		ldr	pc, [sp], #4
 340              	.L21:
ARM GAS  /tmp/ccSoisRf.s 			page 7


 341 0022 00BF     		.align	2
 342              	.L20:
 343 0024 00000000 		.word	m1
 344              		.cfi_endproc
 345              	.LFE241:
 346              		.size	thread1, .-thread1
 347 0028 AFF30080 		.section	.rodata
 347      AFF30080 
 348              		.align	2
 349              	.LC0:
 350 0000 4500     		.ascii	"E\000"
 351 0002 0000     		.align	2
 352              	.LC1:
 353 0004 4400     		.ascii	"D\000"
 354 0006 0000     		.align	2
 355              	.LC2:
 356 0008 4300     		.ascii	"C\000"
 357 000a 0000     		.align	2
 358              	.LC3:
 359 000c 4200     		.ascii	"B\000"
 360 000e 0000     		.align	2
 361              	.LC4:
 362 0010 4100     		.ascii	"A\000"
 363 0012 0000     		.align	2
 364              	.LC5:
 365 0014 41424344 		.ascii	"ABCDE\000"
 365      4500
 366              		.section	.text.mtx1_execute,"ax",%progbits
 367              		.align	2
 368              		.p2align 4,,15
 369              		.thumb
 370              		.thumb_func
 371              		.type	mtx1_execute, %function
 372              	mtx1_execute:
 373              	.LFB242:
 374              		.loc 6 96 0
 375              		.cfi_startproc
 376              		@ args = 0, pretend = 0, frame = 8
 377              		@ frame_needed = 0, uses_anonymous_args = 0
 378 0000 00B5     		push	{lr}
 379              		.cfi_def_cfa_offset 4
 380              		.cfi_offset 14, -4
 381 0002 85B0     		sub	sp, sp, #20
 382              		.cfi_def_cfa_offset 24
 383              		.loc 6 98 0
 384 0004 FFF7FEFF 		bl	chThdGetPriorityX
 385 0008 0390     		str	r0, [sp, #12]
 386              		.loc 6 99 0
 387 000a 3A48     		ldr	r0, .L25
 388 000c FFF7FEFF 		bl	chMtxLock
 389              		.loc 6 100 0
 390 0010 394B     		ldr	r3, .L25+4
 391 0012 1A68     		ldr	r2, [r3]
 392 0014 039B     		ldr	r3, [sp, #12]
 393 0016 0133     		adds	r3, r3, #1
 394 0018 3849     		ldr	r1, .L25+8
 395 001a 0091     		str	r1, [sp]
ARM GAS  /tmp/ccSoisRf.s 			page 8


 396 001c 1046     		mov	r0, r2
 397 001e 4FF4B471 		mov	r1, #360
 398 0022 1A46     		mov	r2, r3
 399 0024 364B     		ldr	r3, .L25+12
 400 0026 FFF7FEFF 		bl	chThdCreateStatic
 401 002a 0246     		mov	r2, r0
 402 002c 354B     		ldr	r3, .L25+16
 403 002e 1A60     		str	r2, [r3]
 404              		.loc 6 101 0
 405 0030 314B     		ldr	r3, .L25+4
 406 0032 5A68     		ldr	r2, [r3, #4]
 407 0034 039B     		ldr	r3, [sp, #12]
 408 0036 0233     		adds	r3, r3, #2
 409 0038 3349     		ldr	r1, .L25+20
 410 003a 0091     		str	r1, [sp]
 411 003c 1046     		mov	r0, r2
 412 003e 4FF4B471 		mov	r1, #360
 413 0042 1A46     		mov	r2, r3
 414 0044 2E4B     		ldr	r3, .L25+12
 415 0046 FFF7FEFF 		bl	chThdCreateStatic
 416 004a 0246     		mov	r2, r0
 417 004c 2D4B     		ldr	r3, .L25+16
 418 004e 5A60     		str	r2, [r3, #4]
 419              		.loc 6 102 0
 420 0050 294B     		ldr	r3, .L25+4
 421 0052 9A68     		ldr	r2, [r3, #8]
 422 0054 039B     		ldr	r3, [sp, #12]
 423 0056 0333     		adds	r3, r3, #3
 424 0058 2C49     		ldr	r1, .L25+24
 425 005a 0091     		str	r1, [sp]
 426 005c 1046     		mov	r0, r2
 427 005e 4FF4B471 		mov	r1, #360
 428 0062 1A46     		mov	r2, r3
 429 0064 264B     		ldr	r3, .L25+12
 430 0066 FFF7FEFF 		bl	chThdCreateStatic
 431 006a 0246     		mov	r2, r0
 432 006c 254B     		ldr	r3, .L25+16
 433 006e 9A60     		str	r2, [r3, #8]
 434              		.loc 6 103 0
 435 0070 214B     		ldr	r3, .L25+4
 436 0072 DA68     		ldr	r2, [r3, #12]
 437 0074 039B     		ldr	r3, [sp, #12]
 438 0076 0433     		adds	r3, r3, #4
 439 0078 2549     		ldr	r1, .L25+28
 440 007a 0091     		str	r1, [sp]
 441 007c 1046     		mov	r0, r2
 442 007e 4FF4B471 		mov	r1, #360
 443 0082 1A46     		mov	r2, r3
 444 0084 1E4B     		ldr	r3, .L25+12
 445 0086 FFF7FEFF 		bl	chThdCreateStatic
 446 008a 0246     		mov	r2, r0
 447 008c 1D4B     		ldr	r3, .L25+16
 448 008e DA60     		str	r2, [r3, #12]
 449              		.loc 6 104 0
 450 0090 194B     		ldr	r3, .L25+4
 451 0092 1A69     		ldr	r2, [r3, #16]
 452 0094 039B     		ldr	r3, [sp, #12]
ARM GAS  /tmp/ccSoisRf.s 			page 9


 453 0096 0533     		adds	r3, r3, #5
 454 0098 1E49     		ldr	r1, .L25+32
 455 009a 0091     		str	r1, [sp]
 456 009c 1046     		mov	r0, r2
 457 009e 4FF4B471 		mov	r1, #360
 458 00a2 1A46     		mov	r2, r3
 459 00a4 164B     		ldr	r3, .L25+12
 460 00a6 FFF7FEFF 		bl	chThdCreateStatic
 461 00aa 0246     		mov	r2, r0
 462 00ac 154B     		ldr	r3, .L25+16
 463 00ae 1A61     		str	r2, [r3, #16]
 464              		.loc 6 105 0
 465 00b0 1048     		ldr	r0, .L25
 466 00b2 FFF7FEFF 		bl	chMtxUnlock
 467              		.loc 6 106 0
 468 00b6 FFF7FEFF 		bl	test_wait_threads
 469              		.loc 6 107 0
 470 00ba FFF7FEFF 		bl	chThdGetPriorityX
 471 00be 0246     		mov	r2, r0
 472 00c0 039B     		ldr	r3, [sp, #12]
 473 00c2 9A42     		cmp	r2, r3
 474 00c4 14BF     		ite	ne
 475 00c6 0023     		movne	r3, #0
 476 00c8 0123     		moveq	r3, #1
 477 00ca DBB2     		uxtb	r3, r3
 478 00cc 0120     		movs	r0, #1
 479 00ce 1946     		mov	r1, r3
 480 00d0 FFF7FEFF 		bl	_test_assert
 481 00d4 0346     		mov	r3, r0
 482 00d6 002B     		cmp	r3, #0
 483 00d8 00D0     		beq	.L23
 484              		.loc 6 107 0 is_stmt 0 discriminator 1
 485 00da 07E0     		b	.L22
 486              	.L23:
 487              		.loc 6 108 0 is_stmt 1
 488 00dc 0220     		movs	r0, #2
 489 00de 0E49     		ldr	r1, .L25+36
 490 00e0 FFF7FEFF 		bl	_test_assert_sequence
 491 00e4 0346     		mov	r3, r0
 492 00e6 002B     		cmp	r3, #0
 493 00e8 00D0     		beq	.L22
 494              		.loc 6 108 0 is_stmt 0 discriminator 1
 495 00ea 00BF     		nop
 496              	.L22:
 497              		.loc 6 109 0 is_stmt 1
 498 00ec 05B0     		add	sp, sp, #20
 499              		@ sp needed
 500 00ee 5DF804FB 		ldr	pc, [sp], #4
 501              	.L26:
 502 00f2 00BF     		.align	2
 503              	.L25:
 504 00f4 00000000 		.word	m1
 505 00f8 00000000 		.word	wa
 506 00fc 00000000 		.word	.LC0
 507 0100 00000000 		.word	thread1
 508 0104 00000000 		.word	threads
 509 0108 04000000 		.word	.LC1
ARM GAS  /tmp/ccSoisRf.s 			page 10


 510 010c 08000000 		.word	.LC2
 511 0110 0C000000 		.word	.LC3
 512 0114 10000000 		.word	.LC4
 513 0118 14000000 		.word	.LC5
 514              		.cfi_endproc
 515              	.LFE242:
 516              		.size	mtx1_execute, .-mtx1_execute
 517              		.global	testmtx1
 518 011c AFF30080 		.section	.rodata
 519 001a 0000     		.align	2
 520              	.LC6:
 521 001c 4D757465 		.ascii	"Mutexes, priority enqueuing test\000"
 521      7865732C 
 521      20707269 
 521      6F726974 
 521      7920656E 
 522              		.section	.rodata.testmtx1,"a",%progbits
 523              		.align	2
 524              		.type	testmtx1, %object
 525              		.size	testmtx1, 16
 526              	testmtx1:
 527 0000 1C000000 		.word	.LC6
 528 0004 00000000 		.word	mtx1_setup
 529 0008 00000000 		.word	0
 530 000c 00000000 		.word	mtx1_execute
 531              		.section	.text.mtx4_setup,"ax",%progbits
 532              		.align	2
 533              		.p2align 4,,15
 534              		.thumb
 535              		.thumb_func
 536              		.type	mtx4_setup, %function
 537              	mtx4_setup:
 538              	.LFB243:
 539              		.loc 6 332 0
 540              		.cfi_startproc
 541              		@ args = 0, pretend = 0, frame = 0
 542              		@ frame_needed = 0, uses_anonymous_args = 0
 543 0000 08B5     		push	{r3, lr}
 544              		.cfi_def_cfa_offset 8
 545              		.cfi_offset 3, -8
 546              		.cfi_offset 14, -4
 547              		.loc 6 334 0
 548 0002 0348     		ldr	r0, .L28
 549 0004 FFF7FEFF 		bl	chMtxObjectInit
 550              		.loc 6 335 0
 551 0008 0248     		ldr	r0, .L28+4
 552 000a FFF7FEFF 		bl	chMtxObjectInit
 553              		.loc 6 336 0
 554 000e 08BD     		pop	{r3, pc}
 555              	.L29:
 556              		.align	2
 557              	.L28:
 558 0010 00000000 		.word	m1
 559 0014 00000000 		.word	m2
 560              		.cfi_endproc
 561              	.LFE243:
 562              		.size	mtx4_setup, .-mtx4_setup
ARM GAS  /tmp/ccSoisRf.s 			page 11


 563 0018 AFF30080 		.section	.text.thread4a,"ax",%progbits
 563      AFF30080 
 564              		.align	2
 565              		.p2align 4,,15
 566              		.thumb
 567              		.thumb_func
 568              		.type	thread4a, %function
 569              	thread4a:
 570              	.LFB244:
 571              		.loc 6 338 0
 572              		.cfi_startproc
 573              		@ args = 0, pretend = 0, frame = 8
 574              		@ frame_needed = 0, uses_anonymous_args = 0
 575 0000 00B5     		push	{lr}
 576              		.cfi_def_cfa_offset 4
 577              		.cfi_offset 14, -4
 578 0002 83B0     		sub	sp, sp, #12
 579              		.cfi_def_cfa_offset 16
 580 0004 0190     		str	r0, [sp, #4]
 581              		.loc 6 341 0
 582 0006 4FF4FA70 		mov	r0, #500
 583 000a FFF7FEFF 		bl	chThdSleep
 584              		.loc 6 342 0
 585 000e 0448     		ldr	r0, .L31
 586 0010 FFF7FEFF 		bl	chMtxLock
 587              		.loc 6 343 0
 588 0014 0248     		ldr	r0, .L31
 589 0016 FFF7FEFF 		bl	chMtxUnlock
 590              		.loc 6 344 0
 591 001a 03B0     		add	sp, sp, #12
 592              		@ sp needed
 593 001c 5DF804FB 		ldr	pc, [sp], #4
 594              	.L32:
 595              		.align	2
 596              	.L31:
 597 0020 00000000 		.word	m2
 598              		.cfi_endproc
 599              	.LFE244:
 600              		.size	thread4a, .-thread4a
 601 0024 AFF30080 		.section	.text.thread4b,"ax",%progbits
 601      AFF30080 
 601      AFF30080 
 602              		.align	2
 603              		.p2align 4,,15
 604              		.thumb
 605              		.thumb_func
 606              		.type	thread4b, %function
 607              	thread4b:
 608              	.LFB245:
 609              		.loc 6 346 0
 610              		.cfi_startproc
 611              		@ args = 0, pretend = 0, frame = 8
 612              		@ frame_needed = 0, uses_anonymous_args = 0
 613 0000 00B5     		push	{lr}
 614              		.cfi_def_cfa_offset 4
 615              		.cfi_offset 14, -4
 616 0002 83B0     		sub	sp, sp, #12
ARM GAS  /tmp/ccSoisRf.s 			page 12


 617              		.cfi_def_cfa_offset 16
 618 0004 0190     		str	r0, [sp, #4]
 619              		.loc 6 349 0
 620 0006 40F2DC50 		movw	r0, #1500
 621 000a FFF7FEFF 		bl	chThdSleep
 622              		.loc 6 350 0
 623 000e 0448     		ldr	r0, .L34
 624 0010 FFF7FEFF 		bl	chMtxLock
 625              		.loc 6 351 0
 626 0014 0248     		ldr	r0, .L34
 627 0016 FFF7FEFF 		bl	chMtxUnlock
 628              		.loc 6 352 0
 629 001a 03B0     		add	sp, sp, #12
 630              		@ sp needed
 631 001c 5DF804FB 		ldr	pc, [sp], #4
 632              	.L35:
 633              		.align	2
 634              	.L34:
 635 0020 00000000 		.word	m1
 636              		.cfi_endproc
 637              	.LFE245:
 638              		.size	thread4b, .-thread4b
 639 0024 AFF30080 		.section	.text.mtx4_execute,"ax",%progbits
 639      AFF30080 
 639      AFF30080 
 640              		.align	2
 641              		.p2align 4,,15
 642              		.thumb
 643              		.thumb_func
 644              		.type	mtx4_execute, %function
 645              	mtx4_execute:
 646              	.LFB246:
 647              		.loc 6 354 0
 648              		.cfi_startproc
 649              		@ args = 0, pretend = 0, frame = 16
 650              		@ frame_needed = 0, uses_anonymous_args = 0
 651 0000 00B5     		push	{lr}
 652              		.cfi_def_cfa_offset 4
 653              		.cfi_offset 14, -4
 654 0002 87B0     		sub	sp, sp, #28
 655              		.cfi_def_cfa_offset 32
 656              		.loc 6 357 0
 657 0004 FFF7FEFF 		bl	chThdGetPriorityX
 658 0008 0590     		str	r0, [sp, #20]
 659              		.loc 6 358 0
 660 000a 059B     		ldr	r3, [sp, #20]
 661 000c 0133     		adds	r3, r3, #1
 662 000e 0493     		str	r3, [sp, #16]
 663              		.loc 6 359 0
 664 0010 059B     		ldr	r3, [sp, #20]
 665 0012 0233     		adds	r3, r3, #2
 666 0014 0393     		str	r3, [sp, #12]
 667              		.loc 6 360 0
 668 0016 A44B     		ldr	r3, .L52
 669 0018 1B68     		ldr	r3, [r3]
 670 001a A44A     		ldr	r2, .L52+4
 671 001c 0092     		str	r2, [sp]
ARM GAS  /tmp/ccSoisRf.s 			page 13


 672 001e 1846     		mov	r0, r3
 673 0020 4FF4B471 		mov	r1, #360
 674 0024 049A     		ldr	r2, [sp, #16]
 675 0026 A24B     		ldr	r3, .L52+8
 676 0028 FFF7FEFF 		bl	chThdCreateStatic
 677 002c 0246     		mov	r2, r0
 678 002e A14B     		ldr	r3, .L52+12
 679 0030 1A60     		str	r2, [r3]
 680              		.loc 6 361 0
 681 0032 9D4B     		ldr	r3, .L52
 682 0034 5B68     		ldr	r3, [r3, #4]
 683 0036 A04A     		ldr	r2, .L52+16
 684 0038 0092     		str	r2, [sp]
 685 003a 1846     		mov	r0, r3
 686 003c 4FF4B471 		mov	r1, #360
 687 0040 039A     		ldr	r2, [sp, #12]
 688 0042 9E4B     		ldr	r3, .L52+20
 689 0044 FFF7FEFF 		bl	chThdCreateStatic
 690 0048 0246     		mov	r2, r0
 691 004a 9A4B     		ldr	r3, .L52+12
 692 004c 5A60     		str	r2, [r3, #4]
 693              		.loc 6 362 0
 694 004e 9C48     		ldr	r0, .L52+24
 695 0050 FFF7FEFF 		bl	chMtxLock
 696              		.loc 6 363 0
 697 0054 FFF7FEFF 		bl	chThdGetPriorityX
 698 0058 0246     		mov	r2, r0
 699 005a 059B     		ldr	r3, [sp, #20]
 700 005c 9A42     		cmp	r2, r3
 701 005e 14BF     		ite	ne
 702 0060 0023     		movne	r3, #0
 703 0062 0123     		moveq	r3, #1
 704 0064 DBB2     		uxtb	r3, r3
 705 0066 0120     		movs	r0, #1
 706 0068 1946     		mov	r1, r3
 707 006a FFF7FEFF 		bl	_test_assert
 708 006e 0346     		mov	r3, r0
 709 0070 002B     		cmp	r3, #0
 710 0072 00D0     		beq	.L37
 711              		.loc 6 363 0 is_stmt 0 discriminator 1
 712 0074 41E1     		b	.L36
 713              	.L37:
 714              		.loc 6 364 0 is_stmt 1
 715 0076 4FF47A70 		mov	r0, #1000
 716 007a FFF7FEFF 		bl	chThdSleep
 717              		.loc 6 365 0
 718 007e FFF7FEFF 		bl	chThdGetPriorityX
 719 0082 0246     		mov	r2, r0
 720 0084 049B     		ldr	r3, [sp, #16]
 721 0086 9A42     		cmp	r2, r3
 722 0088 14BF     		ite	ne
 723 008a 0023     		movne	r3, #0
 724 008c 0123     		moveq	r3, #1
 725 008e DBB2     		uxtb	r3, r3
 726 0090 0220     		movs	r0, #2
 727 0092 1946     		mov	r1, r3
 728 0094 FFF7FEFF 		bl	_test_assert
ARM GAS  /tmp/ccSoisRf.s 			page 14


 729 0098 0346     		mov	r3, r0
 730 009a 002B     		cmp	r3, #0
 731 009c 00D0     		beq	.L39
 732              		.loc 6 365 0 is_stmt 0 discriminator 1
 733 009e 2CE1     		b	.L36
 734              	.L39:
 735              		.loc 6 366 0 is_stmt 1
 736 00a0 8848     		ldr	r0, .L52+28
 737 00a2 FFF7FEFF 		bl	chMtxLock
 738              		.loc 6 367 0
 739 00a6 FFF7FEFF 		bl	chThdGetPriorityX
 740 00aa 0246     		mov	r2, r0
 741 00ac 049B     		ldr	r3, [sp, #16]
 742 00ae 9A42     		cmp	r2, r3
 743 00b0 14BF     		ite	ne
 744 00b2 0023     		movne	r3, #0
 745 00b4 0123     		moveq	r3, #1
 746 00b6 DBB2     		uxtb	r3, r3
 747 00b8 0320     		movs	r0, #3
 748 00ba 1946     		mov	r1, r3
 749 00bc FFF7FEFF 		bl	_test_assert
 750 00c0 0346     		mov	r3, r0
 751 00c2 002B     		cmp	r3, #0
 752 00c4 00D0     		beq	.L40
 753              		.loc 6 367 0 is_stmt 0 discriminator 1
 754 00c6 18E1     		b	.L36
 755              	.L40:
 756              		.loc 6 368 0 is_stmt 1
 757 00c8 4FF47A70 		mov	r0, #1000
 758 00cc FFF7FEFF 		bl	chThdSleep
 759              		.loc 6 369 0
 760 00d0 FFF7FEFF 		bl	chThdGetPriorityX
 761 00d4 0246     		mov	r2, r0
 762 00d6 039B     		ldr	r3, [sp, #12]
 763 00d8 9A42     		cmp	r2, r3
 764 00da 14BF     		ite	ne
 765 00dc 0023     		movne	r3, #0
 766 00de 0123     		moveq	r3, #1
 767 00e0 DBB2     		uxtb	r3, r3
 768 00e2 0420     		movs	r0, #4
 769 00e4 1946     		mov	r1, r3
 770 00e6 FFF7FEFF 		bl	_test_assert
 771 00ea 0346     		mov	r3, r0
 772 00ec 002B     		cmp	r3, #0
 773 00ee 00D0     		beq	.L41
 774              		.loc 6 369 0 is_stmt 0 discriminator 1
 775 00f0 03E1     		b	.L36
 776              	.L41:
 777              		.loc 6 370 0 is_stmt 1
 778 00f2 7448     		ldr	r0, .L52+28
 779 00f4 FFF7FEFF 		bl	chMtxUnlock
 780              		.loc 6 371 0
 781 00f8 FFF7FEFF 		bl	chThdGetPriorityX
 782 00fc 0246     		mov	r2, r0
 783 00fe 049B     		ldr	r3, [sp, #16]
 784 0100 9A42     		cmp	r2, r3
 785 0102 14BF     		ite	ne
ARM GAS  /tmp/ccSoisRf.s 			page 15


 786 0104 0023     		movne	r3, #0
 787 0106 0123     		moveq	r3, #1
 788 0108 DBB2     		uxtb	r3, r3
 789 010a 0520     		movs	r0, #5
 790 010c 1946     		mov	r1, r3
 791 010e FFF7FEFF 		bl	_test_assert
 792 0112 0346     		mov	r3, r0
 793 0114 002B     		cmp	r3, #0
 794 0116 00D0     		beq	.L42
 795              		.loc 6 371 0 is_stmt 0 discriminator 1
 796 0118 EFE0     		b	.L36
 797              	.L42:
 798              		.loc 6 372 0 is_stmt 1
 799 011a 4FF47A70 		mov	r0, #1000
 800 011e FFF7FEFF 		bl	chThdSleep
 801              		.loc 6 373 0
 802 0122 FFF7FEFF 		bl	chThdGetPriorityX
 803 0126 0246     		mov	r2, r0
 804 0128 049B     		ldr	r3, [sp, #16]
 805 012a 9A42     		cmp	r2, r3
 806 012c 14BF     		ite	ne
 807 012e 0023     		movne	r3, #0
 808 0130 0123     		moveq	r3, #1
 809 0132 DBB2     		uxtb	r3, r3
 810 0134 0620     		movs	r0, #6
 811 0136 1946     		mov	r1, r3
 812 0138 FFF7FEFF 		bl	_test_assert
 813 013c 0346     		mov	r3, r0
 814 013e 002B     		cmp	r3, #0
 815 0140 00D0     		beq	.L43
 816              		.loc 6 373 0 is_stmt 0 discriminator 1
 817 0142 DAE0     		b	.L36
 818              	.L43:
 819              		.loc 6 374 0 is_stmt 1
 820 0144 FFF7FEFF 		bl	chMtxUnlockAll
 821              		.loc 6 375 0
 822 0148 FFF7FEFF 		bl	chThdGetPriorityX
 823 014c 0246     		mov	r2, r0
 824 014e 059B     		ldr	r3, [sp, #20]
 825 0150 9A42     		cmp	r2, r3
 826 0152 14BF     		ite	ne
 827 0154 0023     		movne	r3, #0
 828 0156 0123     		moveq	r3, #1
 829 0158 DBB2     		uxtb	r3, r3
 830 015a 0720     		movs	r0, #7
 831 015c 1946     		mov	r1, r3
 832 015e FFF7FEFF 		bl	_test_assert
 833 0162 0346     		mov	r3, r0
 834 0164 002B     		cmp	r3, #0
 835 0166 00D0     		beq	.L44
 836              		.loc 6 375 0 is_stmt 0 discriminator 1
 837 0168 C7E0     		b	.L36
 838              	.L44:
 839              		.loc 6 376 0 is_stmt 1
 840 016a FFF7FEFF 		bl	test_wait_threads
 841              		.loc 6 379 0
 842 016e 4E4B     		ldr	r3, .L52
ARM GAS  /tmp/ccSoisRf.s 			page 16


 843 0170 1B68     		ldr	r3, [r3]
 844 0172 554A     		ldr	r2, .L52+32
 845 0174 0092     		str	r2, [sp]
 846 0176 1846     		mov	r0, r3
 847 0178 4FF4B471 		mov	r1, #360
 848 017c 049A     		ldr	r2, [sp, #16]
 849 017e 4C4B     		ldr	r3, .L52+8
 850 0180 FFF7FEFF 		bl	chThdCreateStatic
 851 0184 0246     		mov	r2, r0
 852 0186 4B4B     		ldr	r3, .L52+12
 853 0188 1A60     		str	r2, [r3]
 854              		.loc 6 380 0
 855 018a 474B     		ldr	r3, .L52
 856 018c 5B68     		ldr	r3, [r3, #4]
 857 018e 4F4A     		ldr	r2, .L52+36
 858 0190 0092     		str	r2, [sp]
 859 0192 1846     		mov	r0, r3
 860 0194 4FF4B471 		mov	r1, #360
 861 0198 039A     		ldr	r2, [sp, #12]
 862 019a 484B     		ldr	r3, .L52+20
 863 019c FFF7FEFF 		bl	chThdCreateStatic
 864 01a0 0246     		mov	r2, r0
 865 01a2 444B     		ldr	r3, .L52+12
 866 01a4 5A60     		str	r2, [r3, #4]
 867              		.loc 6 381 0
 868 01a6 4648     		ldr	r0, .L52+24
 869 01a8 FFF7FEFF 		bl	chMtxLock
 870              		.loc 6 382 0
 871 01ac FFF7FEFF 		bl	chThdGetPriorityX
 872 01b0 0246     		mov	r2, r0
 873 01b2 059B     		ldr	r3, [sp, #20]
 874 01b4 9A42     		cmp	r2, r3
 875 01b6 14BF     		ite	ne
 876 01b8 0023     		movne	r3, #0
 877 01ba 0123     		moveq	r3, #1
 878 01bc DBB2     		uxtb	r3, r3
 879 01be 0820     		movs	r0, #8
 880 01c0 1946     		mov	r1, r3
 881 01c2 FFF7FEFF 		bl	_test_assert
 882 01c6 0346     		mov	r3, r0
 883 01c8 002B     		cmp	r3, #0
 884 01ca 00D0     		beq	.L45
 885              		.loc 6 382 0 is_stmt 0 discriminator 1
 886 01cc 95E0     		b	.L36
 887              	.L45:
 888              		.loc 6 383 0 is_stmt 1
 889 01ce 4FF47A70 		mov	r0, #1000
 890 01d2 FFF7FEFF 		bl	chThdSleep
 891              		.loc 6 384 0
 892 01d6 FFF7FEFF 		bl	chThdGetPriorityX
 893 01da 0246     		mov	r2, r0
 894 01dc 049B     		ldr	r3, [sp, #16]
 895 01de 9A42     		cmp	r2, r3
 896 01e0 14BF     		ite	ne
 897 01e2 0023     		movne	r3, #0
 898 01e4 0123     		moveq	r3, #1
 899 01e6 DBB2     		uxtb	r3, r3
ARM GAS  /tmp/ccSoisRf.s 			page 17


 900 01e8 0920     		movs	r0, #9
 901 01ea 1946     		mov	r1, r3
 902 01ec FFF7FEFF 		bl	_test_assert
 903 01f0 0346     		mov	r3, r0
 904 01f2 002B     		cmp	r3, #0
 905 01f4 00D0     		beq	.L46
 906              		.loc 6 384 0 is_stmt 0 discriminator 1
 907 01f6 80E0     		b	.L36
 908              	.L46:
 909              		.loc 6 385 0 is_stmt 1
 910 01f8 3248     		ldr	r0, .L52+28
 911 01fa FFF7FEFF 		bl	chMtxLock
 912              		.loc 6 386 0
 913 01fe FFF7FEFF 		bl	chThdGetPriorityX
 914 0202 0246     		mov	r2, r0
 915 0204 049B     		ldr	r3, [sp, #16]
 916 0206 9A42     		cmp	r2, r3
 917 0208 14BF     		ite	ne
 918 020a 0023     		movne	r3, #0
 919 020c 0123     		moveq	r3, #1
 920 020e DBB2     		uxtb	r3, r3
 921 0210 0A20     		movs	r0, #10
 922 0212 1946     		mov	r1, r3
 923 0214 FFF7FEFF 		bl	_test_assert
 924 0218 0346     		mov	r3, r0
 925 021a 002B     		cmp	r3, #0
 926 021c 00D0     		beq	.L47
 927              		.loc 6 386 0 is_stmt 0 discriminator 1
 928 021e 6CE0     		b	.L36
 929              	.L47:
 930              		.loc 6 387 0 is_stmt 1
 931 0220 4FF47A70 		mov	r0, #1000
 932 0224 FFF7FEFF 		bl	chThdSleep
 933              		.loc 6 388 0
 934 0228 FFF7FEFF 		bl	chThdGetPriorityX
 935 022c 0246     		mov	r2, r0
 936 022e 039B     		ldr	r3, [sp, #12]
 937 0230 9A42     		cmp	r2, r3
 938 0232 14BF     		ite	ne
 939 0234 0023     		movne	r3, #0
 940 0236 0123     		moveq	r3, #1
 941 0238 DBB2     		uxtb	r3, r3
 942 023a 0B20     		movs	r0, #11
 943 023c 1946     		mov	r1, r3
 944 023e FFF7FEFF 		bl	_test_assert
 945 0242 0346     		mov	r3, r0
 946 0244 002B     		cmp	r3, #0
 947 0246 00D0     		beq	.L48
 948              		.loc 6 388 0 is_stmt 0 discriminator 1
 949 0248 57E0     		b	.L36
 950              	.L48:
 951              		.loc 6 389 0 is_stmt 1
 952 024a FFF7FEFF 		bl	chSysLock
 953              		.loc 6 390 0
 954 024e 1D48     		ldr	r0, .L52+28
 955 0250 FFF7FEFF 		bl	chMtxUnlockS
 956              		.loc 6 391 0
ARM GAS  /tmp/ccSoisRf.s 			page 18


 957 0254 FFF7FEFF 		bl	chSchRescheduleS
 958              		.loc 6 392 0
 959 0258 FFF7FEFF 		bl	chSysUnlock
 960              		.loc 6 393 0
 961 025c FFF7FEFF 		bl	chThdGetPriorityX
 962 0260 0246     		mov	r2, r0
 963 0262 049B     		ldr	r3, [sp, #16]
 964 0264 9A42     		cmp	r2, r3
 965 0266 14BF     		ite	ne
 966 0268 0023     		movne	r3, #0
 967 026a 0123     		moveq	r3, #1
 968 026c DBB2     		uxtb	r3, r3
 969 026e 0C20     		movs	r0, #12
 970 0270 1946     		mov	r1, r3
 971 0272 FFF7FEFF 		bl	_test_assert
 972 0276 0346     		mov	r3, r0
 973 0278 002B     		cmp	r3, #0
 974 027a 00D0     		beq	.L49
 975              		.loc 6 393 0 is_stmt 0 discriminator 1
 976 027c 3DE0     		b	.L36
 977              	.L49:
 978              		.loc 6 394 0 is_stmt 1
 979 027e 4FF47A70 		mov	r0, #1000
 980 0282 FFF7FEFF 		bl	chThdSleep
 981              		.loc 6 395 0
 982 0286 FFF7FEFF 		bl	chThdGetPriorityX
 983 028a 0246     		mov	r2, r0
 984 028c 049B     		ldr	r3, [sp, #16]
 985 028e 9A42     		cmp	r2, r3
 986 0290 14BF     		ite	ne
 987 0292 0023     		movne	r3, #0
 988 0294 0123     		moveq	r3, #1
 989 0296 DBB2     		uxtb	r3, r3
 990 0298 0D20     		movs	r0, #13
 991 029a 1946     		mov	r1, r3
 992 029c FFF7FEFF 		bl	_test_assert
 993 02a0 0346     		mov	r3, r0
 994 02a2 002B     		cmp	r3, #0
 995 02a4 14D0     		beq	.L50
 996              		.loc 6 395 0 is_stmt 0 discriminator 1
 997 02a6 28E0     		b	.L36
 998              	.L53:
 999              		.align	2
 1000              	.L52:
 1001 02a8 00000000 		.word	wa
 1002 02ac 0C000000 		.word	.LC3
 1003 02b0 00000000 		.word	thread4a
 1004 02b4 00000000 		.word	threads
 1005 02b8 10000000 		.word	.LC4
 1006 02bc 00000000 		.word	thread4b
 1007 02c0 00000000 		.word	m2
 1008 02c4 00000000 		.word	m1
 1009 02c8 04000000 		.word	.LC1
 1010 02cc 08000000 		.word	.LC2
 1011              	.L50:
 1012              		.loc 6 396 0 is_stmt 1
 1013 02d0 FFF7FEFF 		bl	chMtxUnlockAll
ARM GAS  /tmp/ccSoisRf.s 			page 19


 1014              		.loc 6 397 0
 1015 02d4 FFF7FEFF 		bl	chThdGetPriorityX
 1016 02d8 0246     		mov	r2, r0
 1017 02da 059B     		ldr	r3, [sp, #20]
 1018 02dc 9A42     		cmp	r2, r3
 1019 02de 14BF     		ite	ne
 1020 02e0 0023     		movne	r3, #0
 1021 02e2 0123     		moveq	r3, #1
 1022 02e4 DBB2     		uxtb	r3, r3
 1023 02e6 0E20     		movs	r0, #14
 1024 02e8 1946     		mov	r1, r3
 1025 02ea FFF7FEFF 		bl	_test_assert
 1026 02ee 0346     		mov	r3, r0
 1027 02f0 002B     		cmp	r3, #0
 1028 02f2 00D0     		beq	.L51
 1029              		.loc 6 397 0 is_stmt 0 discriminator 1
 1030 02f4 01E0     		b	.L36
 1031              	.L51:
 1032              		.loc 6 398 0 is_stmt 1
 1033 02f6 FFF7FEFF 		bl	test_wait_threads
 1034              	.L36:
 1035              		.loc 6 399 0
 1036 02fa 07B0     		add	sp, sp, #28
 1037              		@ sp needed
 1038 02fc 5DF804FB 		ldr	pc, [sp], #4
 1039              		.cfi_endproc
 1040              	.LFE246:
 1041              		.size	mtx4_execute, .-mtx4_execute
 1042              		.global	testmtx4
 1043              		.section	.rodata
 1044 003d 000000   		.align	2
 1045              	.LC7:
 1046 0040 4D757465 		.ascii	"Mutexes, priority return\000"
 1046      7865732C 
 1046      20707269 
 1046      6F726974 
 1046      79207265 
 1047              		.section	.rodata.testmtx4,"a",%progbits
 1048              		.align	2
 1049              		.type	testmtx4, %object
 1050              		.size	testmtx4, 16
 1051              	testmtx4:
 1052 0000 40000000 		.word	.LC7
 1053 0004 00000000 		.word	mtx4_setup
 1054 0008 00000000 		.word	0
 1055 000c 00000000 		.word	mtx4_execute
 1056              		.section	.text.mtx5_setup,"ax",%progbits
 1057              		.align	2
 1058              		.p2align 4,,15
 1059              		.thumb
 1060              		.thumb_func
 1061              		.type	mtx5_setup, %function
 1062              	mtx5_setup:
 1063              	.LFB247:
 1064              		.loc 6 418 0
 1065              		.cfi_startproc
 1066              		@ args = 0, pretend = 0, frame = 0
ARM GAS  /tmp/ccSoisRf.s 			page 20


 1067              		@ frame_needed = 0, uses_anonymous_args = 0
 1068 0000 08B5     		push	{r3, lr}
 1069              		.cfi_def_cfa_offset 8
 1070              		.cfi_offset 3, -8
 1071              		.cfi_offset 14, -4
 1072              		.loc 6 420 0
 1073 0002 0248     		ldr	r0, .L55
 1074 0004 FFF7FEFF 		bl	chMtxObjectInit
 1075              		.loc 6 421 0
 1076 0008 08BD     		pop	{r3, pc}
 1077              	.L56:
 1078 000a 00BF     		.align	2
 1079              	.L55:
 1080 000c 00000000 		.word	m1
 1081              		.cfi_endproc
 1082              	.LFE247:
 1083              		.size	mtx5_setup, .-mtx5_setup
 1084              		.section	.text.mtx5_execute,"ax",%progbits
 1085              		.align	2
 1086              		.p2align 4,,15
 1087              		.thumb
 1088              		.thumb_func
 1089              		.type	mtx5_execute, %function
 1090              	mtx5_execute:
 1091              	.LFB248:
 1092              		.loc 6 423 0
 1093              		.cfi_startproc
 1094              		@ args = 0, pretend = 0, frame = 8
 1095              		@ frame_needed = 0, uses_anonymous_args = 0
 1096 0000 00B5     		push	{lr}
 1097              		.cfi_def_cfa_offset 4
 1098              		.cfi_offset 14, -4
 1099 0002 83B0     		sub	sp, sp, #12
 1100              		.cfi_def_cfa_offset 16
 1101              		.loc 6 427 0
 1102 0004 FFF7FEFF 		bl	chThdGetPriorityX
 1103 0008 0190     		str	r0, [sp, #4]
 1104              		.loc 6 429 0
 1105 000a 4048     		ldr	r0, .L65
 1106 000c FFF7FEFF 		bl	chMtxTryLock
 1107 0010 0346     		mov	r3, r0
 1108 0012 8DF80330 		strb	r3, [sp, #3]
 1109              		.loc 6 430 0
 1110 0016 9DF80330 		ldrb	r3, [sp, #3]	@ zero_extendqisi2
 1111 001a 0120     		movs	r0, #1
 1112 001c 1946     		mov	r1, r3
 1113 001e FFF7FEFF 		bl	_test_assert
 1114 0022 0346     		mov	r3, r0
 1115 0024 002B     		cmp	r3, #0
 1116 0026 00D0     		beq	.L58
 1117              		.loc 6 430 0 is_stmt 0 discriminator 1
 1118 0028 6DE0     		b	.L57
 1119              	.L58:
 1120              		.loc 6 432 0 is_stmt 1
 1121 002a 3848     		ldr	r0, .L65
 1122 002c FFF7FEFF 		bl	chMtxTryLock
 1123 0030 0346     		mov	r3, r0
ARM GAS  /tmp/ccSoisRf.s 			page 21


 1124 0032 8DF80330 		strb	r3, [sp, #3]
 1125              		.loc 6 433 0
 1126 0036 9DF80330 		ldrb	r3, [sp, #3]	@ zero_extendqisi2
 1127 003a 002B     		cmp	r3, #0
 1128 003c 0CBF     		ite	eq
 1129 003e 0023     		moveq	r3, #0
 1130 0040 0123     		movne	r3, #1
 1131 0042 DBB2     		uxtb	r3, r3
 1132 0044 83F00103 		eor	r3, r3, #1
 1133 0048 DBB2     		uxtb	r3, r3
 1134 004a 03F00103 		and	r3, r3, #1
 1135 004e DBB2     		uxtb	r3, r3
 1136 0050 0220     		movs	r0, #2
 1137 0052 1946     		mov	r1, r3
 1138 0054 FFF7FEFF 		bl	_test_assert
 1139 0058 0346     		mov	r3, r0
 1140 005a 002B     		cmp	r3, #0
 1141 005c 00D0     		beq	.L60
 1142              		.loc 6 433 0 is_stmt 0 discriminator 1
 1143 005e 52E0     		b	.L57
 1144              	.L60:
 1145              		.loc 6 435 0 is_stmt 1
 1146 0060 FFF7FEFF 		bl	chSysLock
 1147              		.loc 6 436 0
 1148 0064 2948     		ldr	r0, .L65
 1149 0066 FFF7FEFF 		bl	chMtxUnlockS
 1150              		.loc 6 437 0
 1151 006a FFF7FEFF 		bl	chSysUnlock
 1152              		.loc 6 439 0
 1153 006e 2748     		ldr	r0, .L65
 1154 0070 FFF7FEFF 		bl	queue_isempty
 1155 0074 0346     		mov	r3, r0
 1156 0076 0320     		movs	r0, #3
 1157 0078 1946     		mov	r1, r3
 1158 007a FFF7FEFF 		bl	_test_assert
 1159 007e 0346     		mov	r3, r0
 1160 0080 002B     		cmp	r3, #0
 1161 0082 00D0     		beq	.L61
 1162              		.loc 6 439 0 is_stmt 0 discriminator 1
 1163 0084 3FE0     		b	.L57
 1164              	.L61:
 1165              		.loc 6 440 0 is_stmt 1
 1166 0086 214B     		ldr	r3, .L65
 1167 0088 9B68     		ldr	r3, [r3, #8]
 1168 008a 002B     		cmp	r3, #0
 1169 008c 14BF     		ite	ne
 1170 008e 0023     		movne	r3, #0
 1171 0090 0123     		moveq	r3, #1
 1172 0092 DBB2     		uxtb	r3, r3
 1173 0094 0420     		movs	r0, #4
 1174 0096 1946     		mov	r1, r3
 1175 0098 FFF7FEFF 		bl	_test_assert
 1176 009c 0346     		mov	r3, r0
 1177 009e 002B     		cmp	r3, #0
 1178 00a0 00D0     		beq	.L62
 1179              		.loc 6 440 0 is_stmt 0 discriminator 1
 1180 00a2 30E0     		b	.L57
ARM GAS  /tmp/ccSoisRf.s 			page 22


 1181              	.L62:
 1182              		.loc 6 441 0 is_stmt 1
 1183 00a4 FFF7FEFF 		bl	chThdGetPriorityX
 1184 00a8 0246     		mov	r2, r0
 1185 00aa 019B     		ldr	r3, [sp, #4]
 1186 00ac 9A42     		cmp	r2, r3
 1187 00ae 14BF     		ite	ne
 1188 00b0 0023     		movne	r3, #0
 1189 00b2 0123     		moveq	r3, #1
 1190 00b4 DBB2     		uxtb	r3, r3
 1191 00b6 0520     		movs	r0, #5
 1192 00b8 1946     		mov	r1, r3
 1193 00ba FFF7FEFF 		bl	_test_assert
 1194 00be 0346     		mov	r3, r0
 1195 00c0 002B     		cmp	r3, #0
 1196 00c2 00D0     		beq	.L63
 1197              		.loc 6 441 0 is_stmt 0 discriminator 1
 1198 00c4 1FE0     		b	.L57
 1199              	.L63:
 1200              		.loc 6 444 0 is_stmt 1
 1201 00c6 1148     		ldr	r0, .L65
 1202 00c8 FFF7FEFF 		bl	chMtxLock
 1203              		.loc 6 445 0
 1204 00cc FFF7FEFF 		bl	chMtxUnlockAll
 1205              		.loc 6 446 0
 1206 00d0 0E48     		ldr	r0, .L65
 1207 00d2 FFF7FEFF 		bl	queue_isempty
 1208 00d6 0346     		mov	r3, r0
 1209 00d8 0620     		movs	r0, #6
 1210 00da 1946     		mov	r1, r3
 1211 00dc FFF7FEFF 		bl	_test_assert
 1212 00e0 0346     		mov	r3, r0
 1213 00e2 002B     		cmp	r3, #0
 1214 00e4 00D0     		beq	.L64
 1215              		.loc 6 446 0 is_stmt 0 discriminator 1
 1216 00e6 0EE0     		b	.L57
 1217              	.L64:
 1218              		.loc 6 447 0 is_stmt 1
 1219 00e8 084B     		ldr	r3, .L65
 1220 00ea 9B68     		ldr	r3, [r3, #8]
 1221 00ec 002B     		cmp	r3, #0
 1222 00ee 14BF     		ite	ne
 1223 00f0 0023     		movne	r3, #0
 1224 00f2 0123     		moveq	r3, #1
 1225 00f4 DBB2     		uxtb	r3, r3
 1226 00f6 0720     		movs	r0, #7
 1227 00f8 1946     		mov	r1, r3
 1228 00fa FFF7FEFF 		bl	_test_assert
 1229 00fe 0346     		mov	r3, r0
 1230 0100 002B     		cmp	r3, #0
 1231 0102 00D0     		beq	.L57
 1232              		.loc 6 447 0 is_stmt 0 discriminator 1
 1233 0104 00BF     		nop
 1234              	.L57:
 1235              		.loc 6 448 0 is_stmt 1
 1236 0106 03B0     		add	sp, sp, #12
 1237              		@ sp needed
ARM GAS  /tmp/ccSoisRf.s 			page 23


 1238 0108 5DF804FB 		ldr	pc, [sp], #4
 1239              	.L66:
 1240              		.align	2
 1241              	.L65:
 1242 010c 00000000 		.word	m1
 1243              		.cfi_endproc
 1244              	.LFE248:
 1245              		.size	mtx5_execute, .-mtx5_execute
 1246              		.global	testmtx5
 1247              		.section	.rodata
 1248 0059 000000   		.align	2
 1249              	.LC8:
 1250 005c 4D757465 		.ascii	"Mutexes, status\000"
 1250      7865732C 
 1250      20737461 
 1250      74757300 
 1251              		.section	.rodata.testmtx5,"a",%progbits
 1252              		.align	2
 1253              		.type	testmtx5, %object
 1254              		.size	testmtx5, 16
 1255              	testmtx5:
 1256 0000 5C000000 		.word	.LC8
 1257 0004 00000000 		.word	mtx5_setup
 1258 0008 00000000 		.word	0
 1259 000c 00000000 		.word	mtx5_execute
 1260              		.section	.text.mtx6_setup,"ax",%progbits
 1261              		.align	2
 1262              		.p2align 4,,15
 1263              		.thumb
 1264              		.thumb_func
 1265              		.type	mtx6_setup, %function
 1266              	mtx6_setup:
 1267              	.LFB249:
 1268              		.loc 6 469 0
 1269              		.cfi_startproc
 1270              		@ args = 0, pretend = 0, frame = 0
 1271              		@ frame_needed = 0, uses_anonymous_args = 0
 1272 0000 08B5     		push	{r3, lr}
 1273              		.cfi_def_cfa_offset 8
 1274              		.cfi_offset 3, -8
 1275              		.cfi_offset 14, -4
 1276              		.loc 6 471 0
 1277 0002 0348     		ldr	r0, .L68
 1278 0004 FFF7FEFF 		bl	chCondObjectInit
 1279              		.loc 6 472 0
 1280 0008 0248     		ldr	r0, .L68+4
 1281 000a FFF7FEFF 		bl	chMtxObjectInit
 1282              		.loc 6 473 0
 1283 000e 08BD     		pop	{r3, pc}
 1284              	.L69:
 1285              		.align	2
 1286              	.L68:
 1287 0010 00000000 		.word	c1
 1288 0014 00000000 		.word	m1
 1289              		.cfi_endproc
 1290              	.LFE249:
 1291              		.size	mtx6_setup, .-mtx6_setup
ARM GAS  /tmp/ccSoisRf.s 			page 24


 1292 0018 AFF30080 		.section	.text.thread10,"ax",%progbits
 1292      AFF30080 
 1293              		.align	2
 1294              		.p2align 4,,15
 1295              		.thumb
 1296              		.thumb_func
 1297              		.type	thread10, %function
 1298              	thread10:
 1299              	.LFB250:
 1300              		.loc 6 475 0
 1301              		.cfi_startproc
 1302              		@ args = 0, pretend = 0, frame = 8
 1303              		@ frame_needed = 0, uses_anonymous_args = 0
 1304 0000 00B5     		push	{lr}
 1305              		.cfi_def_cfa_offset 4
 1306              		.cfi_offset 14, -4
 1307 0002 83B0     		sub	sp, sp, #12
 1308              		.cfi_def_cfa_offset 16
 1309 0004 0190     		str	r0, [sp, #4]
 1310              		.loc 6 477 0
 1311 0006 0848     		ldr	r0, .L71
 1312 0008 FFF7FEFF 		bl	chMtxLock
 1313              		.loc 6 478 0
 1314 000c 0748     		ldr	r0, .L71+4
 1315 000e FFF7FEFF 		bl	chCondWait
 1316              		.loc 6 479 0
 1317 0012 019B     		ldr	r3, [sp, #4]
 1318 0014 1B78     		ldrb	r3, [r3]	@ zero_extendqisi2
 1319 0016 1846     		mov	r0, r3
 1320 0018 FFF7FEFF 		bl	test_emit_token
 1321              		.loc 6 480 0
 1322 001c 0248     		ldr	r0, .L71
 1323 001e FFF7FEFF 		bl	chMtxUnlock
 1324              		.loc 6 481 0
 1325 0022 03B0     		add	sp, sp, #12
 1326              		@ sp needed
 1327 0024 5DF804FB 		ldr	pc, [sp], #4
 1328              	.L72:
 1329              		.align	2
 1330              	.L71:
 1331 0028 00000000 		.word	m1
 1332 002c 00000000 		.word	c1
 1333              		.cfi_endproc
 1334              	.LFE250:
 1335              		.size	thread10, .-thread10
 1336              		.section	.text.mtx6_execute,"ax",%progbits
 1337              		.align	2
 1338              		.p2align 4,,15
 1339              		.thumb
 1340              		.thumb_func
 1341              		.type	mtx6_execute, %function
 1342              	mtx6_execute:
 1343              	.LFB251:
 1344              		.loc 6 483 0
 1345              		.cfi_startproc
 1346              		@ args = 0, pretend = 0, frame = 8
 1347              		@ frame_needed = 0, uses_anonymous_args = 0
ARM GAS  /tmp/ccSoisRf.s 			page 25


 1348 0000 00B5     		push	{lr}
 1349              		.cfi_def_cfa_offset 4
 1350              		.cfi_offset 14, -4
 1351 0002 85B0     		sub	sp, sp, #20
 1352              		.cfi_def_cfa_offset 24
 1353              		.loc 6 485 0
 1354 0004 FFF7FEFF 		bl	chThdGetPriorityX
 1355 0008 0390     		str	r0, [sp, #12]
 1356              		.loc 6 486 0
 1357 000a 394B     		ldr	r3, .L75
 1358 000c 1A68     		ldr	r2, [r3]
 1359 000e 039B     		ldr	r3, [sp, #12]
 1360 0010 0133     		adds	r3, r3, #1
 1361 0012 3849     		ldr	r1, .L75+4
 1362 0014 0091     		str	r1, [sp]
 1363 0016 1046     		mov	r0, r2
 1364 0018 4FF4B471 		mov	r1, #360
 1365 001c 1A46     		mov	r2, r3
 1366 001e 364B     		ldr	r3, .L75+8
 1367 0020 FFF7FEFF 		bl	chThdCreateStatic
 1368 0024 0246     		mov	r2, r0
 1369 0026 354B     		ldr	r3, .L75+12
 1370 0028 1A60     		str	r2, [r3]
 1371              		.loc 6 487 0
 1372 002a 314B     		ldr	r3, .L75
 1373 002c 5A68     		ldr	r2, [r3, #4]
 1374 002e 039B     		ldr	r3, [sp, #12]
 1375 0030 0233     		adds	r3, r3, #2
 1376 0032 3349     		ldr	r1, .L75+16
 1377 0034 0091     		str	r1, [sp]
 1378 0036 1046     		mov	r0, r2
 1379 0038 4FF4B471 		mov	r1, #360
 1380 003c 1A46     		mov	r2, r3
 1381 003e 2E4B     		ldr	r3, .L75+8
 1382 0040 FFF7FEFF 		bl	chThdCreateStatic
 1383 0044 0246     		mov	r2, r0
 1384 0046 2D4B     		ldr	r3, .L75+12
 1385 0048 5A60     		str	r2, [r3, #4]
 1386              		.loc 6 488 0
 1387 004a 294B     		ldr	r3, .L75
 1388 004c 9A68     		ldr	r2, [r3, #8]
 1389 004e 039B     		ldr	r3, [sp, #12]
 1390 0050 0333     		adds	r3, r3, #3
 1391 0052 2C49     		ldr	r1, .L75+20
 1392 0054 0091     		str	r1, [sp]
 1393 0056 1046     		mov	r0, r2
 1394 0058 4FF4B471 		mov	r1, #360
 1395 005c 1A46     		mov	r2, r3
 1396 005e 264B     		ldr	r3, .L75+8
 1397 0060 FFF7FEFF 		bl	chThdCreateStatic
 1398 0064 0246     		mov	r2, r0
 1399 0066 254B     		ldr	r3, .L75+12
 1400 0068 9A60     		str	r2, [r3, #8]
 1401              		.loc 6 489 0
 1402 006a 214B     		ldr	r3, .L75
 1403 006c DA68     		ldr	r2, [r3, #12]
 1404 006e 039B     		ldr	r3, [sp, #12]
ARM GAS  /tmp/ccSoisRf.s 			page 26


 1405 0070 0433     		adds	r3, r3, #4
 1406 0072 2549     		ldr	r1, .L75+24
 1407 0074 0091     		str	r1, [sp]
 1408 0076 1046     		mov	r0, r2
 1409 0078 4FF4B471 		mov	r1, #360
 1410 007c 1A46     		mov	r2, r3
 1411 007e 1E4B     		ldr	r3, .L75+8
 1412 0080 FFF7FEFF 		bl	chThdCreateStatic
 1413 0084 0246     		mov	r2, r0
 1414 0086 1D4B     		ldr	r3, .L75+12
 1415 0088 DA60     		str	r2, [r3, #12]
 1416              		.loc 6 490 0
 1417 008a 194B     		ldr	r3, .L75
 1418 008c 1A69     		ldr	r2, [r3, #16]
 1419 008e 039B     		ldr	r3, [sp, #12]
 1420 0090 0533     		adds	r3, r3, #5
 1421 0092 1E49     		ldr	r1, .L75+28
 1422 0094 0091     		str	r1, [sp]
 1423 0096 1046     		mov	r0, r2
 1424 0098 4FF4B471 		mov	r1, #360
 1425 009c 1A46     		mov	r2, r3
 1426 009e 164B     		ldr	r3, .L75+8
 1427 00a0 FFF7FEFF 		bl	chThdCreateStatic
 1428 00a4 0246     		mov	r2, r0
 1429 00a6 154B     		ldr	r3, .L75+12
 1430 00a8 1A61     		str	r2, [r3, #16]
 1431              		.loc 6 491 0
 1432 00aa FFF7FEFF 		bl	chSysLock
 1433              		.loc 6 492 0
 1434 00ae 1848     		ldr	r0, .L75+32
 1435 00b0 FFF7FEFF 		bl	chCondSignalI
 1436              		.loc 6 493 0
 1437 00b4 1648     		ldr	r0, .L75+32
 1438 00b6 FFF7FEFF 		bl	chCondSignalI
 1439              		.loc 6 494 0
 1440 00ba 1548     		ldr	r0, .L75+32
 1441 00bc FFF7FEFF 		bl	chCondSignalI
 1442              		.loc 6 495 0
 1443 00c0 1348     		ldr	r0, .L75+32
 1444 00c2 FFF7FEFF 		bl	chCondSignalI
 1445              		.loc 6 496 0
 1446 00c6 1248     		ldr	r0, .L75+32
 1447 00c8 FFF7FEFF 		bl	chCondSignalI
 1448              		.loc 6 497 0
 1449 00cc FFF7FEFF 		bl	chSchRescheduleS
 1450              		.loc 6 498 0
 1451 00d0 FFF7FEFF 		bl	chSysUnlock
 1452              		.loc 6 499 0
 1453 00d4 FFF7FEFF 		bl	test_wait_threads
 1454              		.loc 6 500 0
 1455 00d8 0120     		movs	r0, #1
 1456 00da 0E49     		ldr	r1, .L75+36
 1457 00dc FFF7FEFF 		bl	_test_assert_sequence
 1458 00e0 0346     		mov	r3, r0
 1459 00e2 002B     		cmp	r3, #0
 1460 00e4 00D0     		beq	.L73
 1461              		.loc 6 500 0 is_stmt 0 discriminator 1
ARM GAS  /tmp/ccSoisRf.s 			page 27


 1462 00e6 00BF     		nop
 1463              	.L73:
 1464              		.loc 6 501 0 is_stmt 1
 1465 00e8 05B0     		add	sp, sp, #20
 1466              		@ sp needed
 1467 00ea 5DF804FB 		ldr	pc, [sp], #4
 1468              	.L76:
 1469 00ee 00BF     		.align	2
 1470              	.L75:
 1471 00f0 00000000 		.word	wa
 1472 00f4 00000000 		.word	.LC0
 1473 00f8 00000000 		.word	thread10
 1474 00fc 00000000 		.word	threads
 1475 0100 04000000 		.word	.LC1
 1476 0104 08000000 		.word	.LC2
 1477 0108 0C000000 		.word	.LC3
 1478 010c 10000000 		.word	.LC4
 1479 0110 00000000 		.word	c1
 1480 0114 14000000 		.word	.LC5
 1481              		.cfi_endproc
 1482              	.LFE251:
 1483              		.size	mtx6_execute, .-mtx6_execute
 1484              		.global	testmtx6
 1485              		.section	.rodata
 1486              		.align	2
 1487              	.LC9:
 1488 006c 436F6E64 		.ascii	"CondVar, signal test\000"
 1488      5661722C 
 1488      20736967 
 1488      6E616C20 
 1488      74657374 
 1489              		.section	.rodata.testmtx6,"a",%progbits
 1490              		.align	2
 1491              		.type	testmtx6, %object
 1492              		.size	testmtx6, 16
 1493              	testmtx6:
 1494 0000 6C000000 		.word	.LC9
 1495 0004 00000000 		.word	mtx6_setup
 1496 0008 00000000 		.word	0
 1497 000c 00000000 		.word	mtx6_execute
 1498              		.section	.text.mtx7_setup,"ax",%progbits
 1499              		.align	2
 1500              		.p2align 4,,15
 1501              		.thumb
 1502              		.thumb_func
 1503              		.type	mtx7_setup, %function
 1504              	mtx7_setup:
 1505              	.LFB252:
 1506              		.loc 6 520 0
 1507              		.cfi_startproc
 1508              		@ args = 0, pretend = 0, frame = 0
 1509              		@ frame_needed = 0, uses_anonymous_args = 0
 1510 0000 08B5     		push	{r3, lr}
 1511              		.cfi_def_cfa_offset 8
 1512              		.cfi_offset 3, -8
 1513              		.cfi_offset 14, -4
 1514              		.loc 6 522 0
ARM GAS  /tmp/ccSoisRf.s 			page 28


 1515 0002 0348     		ldr	r0, .L78
 1516 0004 FFF7FEFF 		bl	chCondObjectInit
 1517              		.loc 6 523 0
 1518 0008 0248     		ldr	r0, .L78+4
 1519 000a FFF7FEFF 		bl	chMtxObjectInit
 1520              		.loc 6 524 0
 1521 000e 08BD     		pop	{r3, pc}
 1522              	.L79:
 1523              		.align	2
 1524              	.L78:
 1525 0010 00000000 		.word	c1
 1526 0014 00000000 		.word	m1
 1527              		.cfi_endproc
 1528              	.LFE252:
 1529              		.size	mtx7_setup, .-mtx7_setup
 1530 0018 AFF30080 		.section	.text.mtx7_execute,"ax",%progbits
 1530      AFF30080 
 1531              		.align	2
 1532              		.p2align 4,,15
 1533              		.thumb
 1534              		.thumb_func
 1535              		.type	mtx7_execute, %function
 1536              	mtx7_execute:
 1537              	.LFB253:
 1538              		.loc 6 526 0
 1539              		.cfi_startproc
 1540              		@ args = 0, pretend = 0, frame = 8
 1541              		@ frame_needed = 0, uses_anonymous_args = 0
 1542 0000 00B5     		push	{lr}
 1543              		.cfi_def_cfa_offset 4
 1544              		.cfi_offset 14, -4
 1545 0002 85B0     		sub	sp, sp, #20
 1546              		.cfi_def_cfa_offset 24
 1547              		.loc 6 528 0
 1548 0004 FFF7FEFF 		bl	chThdGetPriorityX
 1549 0008 0390     		str	r0, [sp, #12]
 1550              		.loc 6 529 0
 1551 000a 304B     		ldr	r3, .L82
 1552 000c 1A68     		ldr	r2, [r3]
 1553 000e 039B     		ldr	r3, [sp, #12]
 1554 0010 0133     		adds	r3, r3, #1
 1555 0012 2F49     		ldr	r1, .L82+4
 1556 0014 0091     		str	r1, [sp]
 1557 0016 1046     		mov	r0, r2
 1558 0018 4FF4B471 		mov	r1, #360
 1559 001c 1A46     		mov	r2, r3
 1560 001e 2D4B     		ldr	r3, .L82+8
 1561 0020 FFF7FEFF 		bl	chThdCreateStatic
 1562 0024 0246     		mov	r2, r0
 1563 0026 2C4B     		ldr	r3, .L82+12
 1564 0028 1A60     		str	r2, [r3]
 1565              		.loc 6 530 0
 1566 002a 284B     		ldr	r3, .L82
 1567 002c 5A68     		ldr	r2, [r3, #4]
 1568 002e 039B     		ldr	r3, [sp, #12]
 1569 0030 0233     		adds	r3, r3, #2
 1570 0032 2A49     		ldr	r1, .L82+16
ARM GAS  /tmp/ccSoisRf.s 			page 29


 1571 0034 0091     		str	r1, [sp]
 1572 0036 1046     		mov	r0, r2
 1573 0038 4FF4B471 		mov	r1, #360
 1574 003c 1A46     		mov	r2, r3
 1575 003e 254B     		ldr	r3, .L82+8
 1576 0040 FFF7FEFF 		bl	chThdCreateStatic
 1577 0044 0246     		mov	r2, r0
 1578 0046 244B     		ldr	r3, .L82+12
 1579 0048 5A60     		str	r2, [r3, #4]
 1580              		.loc 6 531 0
 1581 004a 204B     		ldr	r3, .L82
 1582 004c 9A68     		ldr	r2, [r3, #8]
 1583 004e 039B     		ldr	r3, [sp, #12]
 1584 0050 0333     		adds	r3, r3, #3
 1585 0052 2349     		ldr	r1, .L82+20
 1586 0054 0091     		str	r1, [sp]
 1587 0056 1046     		mov	r0, r2
 1588 0058 4FF4B471 		mov	r1, #360
 1589 005c 1A46     		mov	r2, r3
 1590 005e 1D4B     		ldr	r3, .L82+8
 1591 0060 FFF7FEFF 		bl	chThdCreateStatic
 1592 0064 0246     		mov	r2, r0
 1593 0066 1C4B     		ldr	r3, .L82+12
 1594 0068 9A60     		str	r2, [r3, #8]
 1595              		.loc 6 532 0
 1596 006a 184B     		ldr	r3, .L82
 1597 006c DA68     		ldr	r2, [r3, #12]
 1598 006e 039B     		ldr	r3, [sp, #12]
 1599 0070 0433     		adds	r3, r3, #4
 1600 0072 1C49     		ldr	r1, .L82+24
 1601 0074 0091     		str	r1, [sp]
 1602 0076 1046     		mov	r0, r2
 1603 0078 4FF4B471 		mov	r1, #360
 1604 007c 1A46     		mov	r2, r3
 1605 007e 154B     		ldr	r3, .L82+8
 1606 0080 FFF7FEFF 		bl	chThdCreateStatic
 1607 0084 0246     		mov	r2, r0
 1608 0086 144B     		ldr	r3, .L82+12
 1609 0088 DA60     		str	r2, [r3, #12]
 1610              		.loc 6 533 0
 1611 008a 104B     		ldr	r3, .L82
 1612 008c 1A69     		ldr	r2, [r3, #16]
 1613 008e 039B     		ldr	r3, [sp, #12]
 1614 0090 0533     		adds	r3, r3, #5
 1615 0092 1549     		ldr	r1, .L82+28
 1616 0094 0091     		str	r1, [sp]
 1617 0096 1046     		mov	r0, r2
 1618 0098 4FF4B471 		mov	r1, #360
 1619 009c 1A46     		mov	r2, r3
 1620 009e 0D4B     		ldr	r3, .L82+8
 1621 00a0 FFF7FEFF 		bl	chThdCreateStatic
 1622 00a4 0246     		mov	r2, r0
 1623 00a6 0C4B     		ldr	r3, .L82+12
 1624 00a8 1A61     		str	r2, [r3, #16]
 1625              		.loc 6 534 0
 1626 00aa 1048     		ldr	r0, .L82+32
 1627 00ac FFF7FEFF 		bl	chCondBroadcast
ARM GAS  /tmp/ccSoisRf.s 			page 30


 1628              		.loc 6 535 0
 1629 00b0 FFF7FEFF 		bl	test_wait_threads
 1630              		.loc 6 536 0
 1631 00b4 0120     		movs	r0, #1
 1632 00b6 0E49     		ldr	r1, .L82+36
 1633 00b8 FFF7FEFF 		bl	_test_assert_sequence
 1634 00bc 0346     		mov	r3, r0
 1635 00be 002B     		cmp	r3, #0
 1636 00c0 00D0     		beq	.L80
 1637              		.loc 6 536 0 is_stmt 0 discriminator 1
 1638 00c2 00BF     		nop
 1639              	.L80:
 1640              		.loc 6 537 0 is_stmt 1
 1641 00c4 05B0     		add	sp, sp, #20
 1642              		@ sp needed
 1643 00c6 5DF804FB 		ldr	pc, [sp], #4
 1644              	.L83:
 1645 00ca 00BF     		.align	2
 1646              	.L82:
 1647 00cc 00000000 		.word	wa
 1648 00d0 00000000 		.word	.LC0
 1649 00d4 00000000 		.word	thread10
 1650 00d8 00000000 		.word	threads
 1651 00dc 04000000 		.word	.LC1
 1652 00e0 08000000 		.word	.LC2
 1653 00e4 0C000000 		.word	.LC3
 1654 00e8 10000000 		.word	.LC4
 1655 00ec 00000000 		.word	c1
 1656 00f0 14000000 		.word	.LC5
 1657              		.cfi_endproc
 1658              	.LFE253:
 1659              		.size	mtx7_execute, .-mtx7_execute
 1660              		.global	testmtx7
 1661 00f4 AFF30080 		.section	.rodata
 1661      AFF30080 
 1661      AFF30080 
 1662 0081 000000   		.align	2
 1663              	.LC10:
 1664 0084 436F6E64 		.ascii	"CondVar, broadcast test\000"
 1664      5661722C 
 1664      2062726F 
 1664      61646361 
 1664      73742074 
 1665              		.section	.rodata.testmtx7,"a",%progbits
 1666              		.align	2
 1667              		.type	testmtx7, %object
 1668              		.size	testmtx7, 16
 1669              	testmtx7:
 1670 0000 84000000 		.word	.LC10
 1671 0004 00000000 		.word	mtx7_setup
 1672 0008 00000000 		.word	0
 1673 000c 00000000 		.word	mtx7_execute
 1674              		.section	.text.mtx8_setup,"ax",%progbits
 1675              		.align	2
 1676              		.p2align 4,,15
 1677              		.thumb
 1678              		.thumb_func
ARM GAS  /tmp/ccSoisRf.s 			page 31


 1679              		.type	mtx8_setup, %function
 1680              	mtx8_setup:
 1681              	.LFB254:
 1682              		.loc 6 555 0
 1683              		.cfi_startproc
 1684              		@ args = 0, pretend = 0, frame = 0
 1685              		@ frame_needed = 0, uses_anonymous_args = 0
 1686 0000 08B5     		push	{r3, lr}
 1687              		.cfi_def_cfa_offset 8
 1688              		.cfi_offset 3, -8
 1689              		.cfi_offset 14, -4
 1690              		.loc 6 557 0
 1691 0002 0548     		ldr	r0, .L85
 1692 0004 FFF7FEFF 		bl	chCondObjectInit
 1693              		.loc 6 558 0
 1694 0008 0448     		ldr	r0, .L85+4
 1695 000a FFF7FEFF 		bl	chMtxObjectInit
 1696              		.loc 6 559 0
 1697 000e 0448     		ldr	r0, .L85+8
 1698 0010 FFF7FEFF 		bl	chMtxObjectInit
 1699              		.loc 6 560 0
 1700 0014 08BD     		pop	{r3, pc}
 1701              	.L86:
 1702 0016 00BF     		.align	2
 1703              	.L85:
 1704 0018 00000000 		.word	c1
 1705 001c 00000000 		.word	m1
 1706 0020 00000000 		.word	m2
 1707              		.cfi_endproc
 1708              	.LFE254:
 1709              		.size	mtx8_setup, .-mtx8_setup
 1710 0024 AFF30080 		.section	.text.thread11,"ax",%progbits
 1710      AFF30080 
 1710      AFF30080 
 1711              		.align	2
 1712              		.p2align 4,,15
 1713              		.thumb
 1714              		.thumb_func
 1715              		.type	thread11, %function
 1716              	thread11:
 1717              	.LFB255:
 1718              		.loc 6 562 0
 1719              		.cfi_startproc
 1720              		@ args = 0, pretend = 0, frame = 8
 1721              		@ frame_needed = 0, uses_anonymous_args = 0
 1722 0000 00B5     		push	{lr}
 1723              		.cfi_def_cfa_offset 4
 1724              		.cfi_offset 14, -4
 1725 0002 83B0     		sub	sp, sp, #12
 1726              		.cfi_def_cfa_offset 16
 1727 0004 0190     		str	r0, [sp, #4]
 1728              		.loc 6 564 0
 1729 0006 0C48     		ldr	r0, .L88
 1730 0008 FFF7FEFF 		bl	chMtxLock
 1731              		.loc 6 565 0
 1732 000c 0B48     		ldr	r0, .L88+4
 1733 000e FFF7FEFF 		bl	chMtxLock
ARM GAS  /tmp/ccSoisRf.s 			page 32


 1734              		.loc 6 567 0
 1735 0012 0B48     		ldr	r0, .L88+8
 1736 0014 4FF0FF31 		mov	r1, #-1
 1737 0018 FFF7FEFF 		bl	chCondWaitTimeout
 1738              		.loc 6 571 0
 1739 001c 019B     		ldr	r3, [sp, #4]
 1740 001e 1B78     		ldrb	r3, [r3]	@ zero_extendqisi2
 1741 0020 1846     		mov	r0, r3
 1742 0022 FFF7FEFF 		bl	test_emit_token
 1743              		.loc 6 572 0
 1744 0026 0548     		ldr	r0, .L88+4
 1745 0028 FFF7FEFF 		bl	chMtxUnlock
 1746              		.loc 6 573 0
 1747 002c 0248     		ldr	r0, .L88
 1748 002e FFF7FEFF 		bl	chMtxUnlock
 1749              		.loc 6 574 0
 1750 0032 03B0     		add	sp, sp, #12
 1751              		@ sp needed
 1752 0034 5DF804FB 		ldr	pc, [sp], #4
 1753              	.L89:
 1754              		.align	2
 1755              	.L88:
 1756 0038 00000000 		.word	m2
 1757 003c 00000000 		.word	m1
 1758 0040 00000000 		.word	c1
 1759              		.cfi_endproc
 1760              	.LFE255:
 1761              		.size	thread11, .-thread11
 1762 0044 AFF30080 		.section	.text.thread12,"ax",%progbits
 1762      AFF30080 
 1762      AFF30080 
 1763              		.align	2
 1764              		.p2align 4,,15
 1765              		.thumb
 1766              		.thumb_func
 1767              		.type	thread12, %function
 1768              	thread12:
 1769              	.LFB256:
 1770              		.loc 6 576 0
 1771              		.cfi_startproc
 1772              		@ args = 0, pretend = 0, frame = 8
 1773              		@ frame_needed = 0, uses_anonymous_args = 0
 1774 0000 00B5     		push	{lr}
 1775              		.cfi_def_cfa_offset 4
 1776              		.cfi_offset 14, -4
 1777 0002 83B0     		sub	sp, sp, #12
 1778              		.cfi_def_cfa_offset 16
 1779 0004 0190     		str	r0, [sp, #4]
 1780              		.loc 6 578 0
 1781 0006 0748     		ldr	r0, .L91
 1782 0008 FFF7FEFF 		bl	chMtxLock
 1783              		.loc 6 579 0
 1784 000c 019B     		ldr	r3, [sp, #4]
 1785 000e 1B78     		ldrb	r3, [r3]	@ zero_extendqisi2
 1786 0010 1846     		mov	r0, r3
 1787 0012 FFF7FEFF 		bl	test_emit_token
 1788              		.loc 6 580 0
ARM GAS  /tmp/ccSoisRf.s 			page 33


 1789 0016 0348     		ldr	r0, .L91
 1790 0018 FFF7FEFF 		bl	chMtxUnlock
 1791              		.loc 6 581 0
 1792 001c 03B0     		add	sp, sp, #12
 1793              		@ sp needed
 1794 001e 5DF804FB 		ldr	pc, [sp], #4
 1795              	.L92:
 1796 0022 00BF     		.align	2
 1797              	.L91:
 1798 0024 00000000 		.word	m2
 1799              		.cfi_endproc
 1800              	.LFE256:
 1801              		.size	thread12, .-thread12
 1802 0028 AFF30080 		.section	.rodata
 1802      AFF30080 
 1803              		.align	2
 1804              	.LC11:
 1805 009c 41424300 		.ascii	"ABC\000"
 1806              		.section	.text.mtx8_execute,"ax",%progbits
 1807              		.align	2
 1808              		.p2align 4,,15
 1809              		.thumb
 1810              		.thumb_func
 1811              		.type	mtx8_execute, %function
 1812              	mtx8_execute:
 1813              	.LFB257:
 1814              		.loc 6 583 0
 1815              		.cfi_startproc
 1816              		@ args = 0, pretend = 0, frame = 8
 1817              		@ frame_needed = 0, uses_anonymous_args = 0
 1818 0000 00B5     		push	{lr}
 1819              		.cfi_def_cfa_offset 4
 1820              		.cfi_offset 14, -4
 1821 0002 85B0     		sub	sp, sp, #20
 1822              		.cfi_def_cfa_offset 24
 1823              		.loc 6 585 0
 1824 0004 FFF7FEFF 		bl	chThdGetPriorityX
 1825 0008 0390     		str	r0, [sp, #12]
 1826              		.loc 6 586 0
 1827 000a 214B     		ldr	r3, .L95
 1828 000c 1A68     		ldr	r2, [r3]
 1829 000e 039B     		ldr	r3, [sp, #12]
 1830 0010 0133     		adds	r3, r3, #1
 1831 0012 2049     		ldr	r1, .L95+4
 1832 0014 0091     		str	r1, [sp]
 1833 0016 1046     		mov	r0, r2
 1834 0018 4FF4B471 		mov	r1, #360
 1835 001c 1A46     		mov	r2, r3
 1836 001e 1E4B     		ldr	r3, .L95+8
 1837 0020 FFF7FEFF 		bl	chThdCreateStatic
 1838 0024 0246     		mov	r2, r0
 1839 0026 1D4B     		ldr	r3, .L95+12
 1840 0028 1A60     		str	r2, [r3]
 1841              		.loc 6 587 0
 1842 002a 194B     		ldr	r3, .L95
 1843 002c 5A68     		ldr	r2, [r3, #4]
 1844 002e 039B     		ldr	r3, [sp, #12]
ARM GAS  /tmp/ccSoisRf.s 			page 34


 1845 0030 0233     		adds	r3, r3, #2
 1846 0032 1B49     		ldr	r1, .L95+16
 1847 0034 0091     		str	r1, [sp]
 1848 0036 1046     		mov	r0, r2
 1849 0038 4FF4B471 		mov	r1, #360
 1850 003c 1A46     		mov	r2, r3
 1851 003e 194B     		ldr	r3, .L95+20
 1852 0040 FFF7FEFF 		bl	chThdCreateStatic
 1853 0044 0246     		mov	r2, r0
 1854 0046 154B     		ldr	r3, .L95+12
 1855 0048 5A60     		str	r2, [r3, #4]
 1856              		.loc 6 588 0
 1857 004a 114B     		ldr	r3, .L95
 1858 004c 9A68     		ldr	r2, [r3, #8]
 1859 004e 039B     		ldr	r3, [sp, #12]
 1860 0050 0333     		adds	r3, r3, #3
 1861 0052 1549     		ldr	r1, .L95+24
 1862 0054 0091     		str	r1, [sp]
 1863 0056 1046     		mov	r0, r2
 1864 0058 4FF4B471 		mov	r1, #360
 1865 005c 1A46     		mov	r2, r3
 1866 005e 134B     		ldr	r3, .L95+28
 1867 0060 FFF7FEFF 		bl	chThdCreateStatic
 1868 0064 0246     		mov	r2, r0
 1869 0066 0D4B     		ldr	r3, .L95+12
 1870 0068 9A60     		str	r2, [r3, #8]
 1871              		.loc 6 589 0
 1872 006a 1148     		ldr	r0, .L95+32
 1873 006c FFF7FEFF 		bl	chCondSignal
 1874              		.loc 6 590 0
 1875 0070 0F48     		ldr	r0, .L95+32
 1876 0072 FFF7FEFF 		bl	chCondSignal
 1877              		.loc 6 591 0
 1878 0076 FFF7FEFF 		bl	test_wait_threads
 1879              		.loc 6 592 0
 1880 007a 0120     		movs	r0, #1
 1881 007c 0D49     		ldr	r1, .L95+36
 1882 007e FFF7FEFF 		bl	_test_assert_sequence
 1883 0082 0346     		mov	r3, r0
 1884 0084 002B     		cmp	r3, #0
 1885 0086 00D0     		beq	.L93
 1886              		.loc 6 592 0 is_stmt 0 discriminator 1
 1887 0088 00BF     		nop
 1888              	.L93:
 1889              		.loc 6 593 0 is_stmt 1
 1890 008a 05B0     		add	sp, sp, #20
 1891              		@ sp needed
 1892 008c 5DF804FB 		ldr	pc, [sp], #4
 1893              	.L96:
 1894              		.align	2
 1895              	.L95:
 1896 0090 00000000 		.word	wa
 1897 0094 10000000 		.word	.LC4
 1898 0098 00000000 		.word	thread11
 1899 009c 00000000 		.word	threads
 1900 00a0 08000000 		.word	.LC2
 1901 00a4 00000000 		.word	thread10
ARM GAS  /tmp/ccSoisRf.s 			page 35


 1902 00a8 0C000000 		.word	.LC3
 1903 00ac 00000000 		.word	thread12
 1904 00b0 00000000 		.word	c1
 1905 00b4 9C000000 		.word	.LC11
 1906              		.cfi_endproc
 1907              	.LFE257:
 1908              		.size	mtx8_execute, .-mtx8_execute
 1909              		.global	testmtx8
 1910 00b8 AFF30080 		.section	.rodata
 1910      AFF30080 
 1911              		.align	2
 1912              	.LC12:
 1913 00a0 436F6E64 		.ascii	"CondVar, boost test\000"
 1913      5661722C 
 1913      20626F6F 
 1913      73742074 
 1913      65737400 
 1914              		.section	.rodata.testmtx8,"a",%progbits
 1915              		.align	2
 1916              		.type	testmtx8, %object
 1917              		.size	testmtx8, 16
 1918              	testmtx8:
 1919 0000 A0000000 		.word	.LC12
 1920 0004 00000000 		.word	mtx8_setup
 1921 0008 00000000 		.word	0
 1922 000c 00000000 		.word	mtx8_execute
 1923              		.global	patternmtx
 1924              		.section	.rodata.patternmtx,"a",%progbits
 1925              		.align	2
 1926              		.type	patternmtx, %object
 1927              		.size	patternmtx, 28
 1928              	patternmtx:
 1929 0000 00000000 		.word	testmtx1
 1930 0004 00000000 		.word	testmtx4
 1931 0008 00000000 		.word	testmtx5
 1932 000c 00000000 		.word	testmtx6
 1933 0010 00000000 		.word	testmtx7
 1934 0014 00000000 		.word	testmtx8
 1935 0018 00000000 		.word	0
 1936              		.section	.rodata.__func__.5925,"a",%progbits
 1937              		.align	2
 1938              		.type	__func__.5925, %object
 1939              		.size	__func__.5925, 12
 1940              	__func__.5925:
 1941 0000 63685379 		.ascii	"chSysUnlock\000"
 1941      73556E6C 
 1941      6F636B00 
 1942              		.text
 1943              	.Letext0:
 1944              		.file 7 "/usr/lib/gcc/arm-none-eabi/4.8/include/stddef.h"
 1945              		.file 8 "/usr/include/newlib/machine/_default_types.h"
 1946              		.file 9 "/usr/include/newlib/stdint.h"
 1947              		.file 10 "/home/efe/ChibiOS/os/rt/ports/ARMCMx/compilers/GCC/chtypes.h"
 1948              		.file 11 "/home/efe/ChibiOS/os/rt/include/chsystypes.h"
 1949              		.file 12 "/home/efe/ChibiOS/os/rt/ports/ARMCMx/chcore.h"
 1950              		.file 13 "/home/efe/ChibiOS/os/rt/include/chdebug.h"
 1951              		.file 14 "/home/efe/ChibiOS/os/rt/include/chtm.h"
ARM GAS  /tmp/ccSoisRf.s 			page 36


 1952              		.file 15 "/home/efe/ChibiOS/os/rt/include/chstats.h"
 1953              		.file 16 "/home/efe/ChibiOS/os/rt/include/chsem.h"
 1954              		.file 17 "/home/efe/ChibiOS/os/rt/include/chmtx.h"
 1955              		.file 18 "/home/efe/ChibiOS/os/rt/include/chcond.h"
 1956              		.file 19 "/home/efe/ChibiOS/test/rt/test.h"
 1957              		.file 20 "/home/efe/ChibiOS/os/ext/CMSIS/include/core_cm4.h"