ARM GAS  /tmp/cce17jkg.s 			page 1


   1              		.syntax unified
   2              		.cpu cortex-m4
   3              		.fpu softvfp
   4              		.eabi_attribute 20, 1
   5              		.eabi_attribute 21, 1
   6              		.eabi_attribute 23, 3
   7              		.eabi_attribute 24, 1
   8              		.eabi_attribute 25, 1
   9              		.eabi_attribute 26, 1
  10              		.eabi_attribute 30, 6
  11              		.eabi_attribute 34, 1
  12              		.eabi_attribute 18, 4
  13              		.thumb
  14              		.file	"testsys.c"
  15              		.text
  16              	.Ltext0:
  17              		.cfi_sections	.debug_frame
  18              		.section	.text.port_get_irq_status,"ax",%progbits
  19              		.align	2
  20              		.p2align 4,,15
  21              		.thumb
  22              		.thumb_func
  23              		.type	port_get_irq_status, %function
  24              	port_get_irq_status:
  25              	.LFB124:
  26              		.file 1 "/home/efe/ChibiOS/os/rt/ports/ARMCMx/chcore_v7m.h"
  27              		.loc 1 410 0
  28              		.cfi_startproc
  29              		@ args = 0, pretend = 0, frame = 8
  30              		@ frame_needed = 0, uses_anonymous_args = 0
  31              		@ link register save eliminated.
  32 0000 82B0     		sub	sp, sp, #8
  33              		.cfi_def_cfa_offset 8
  34              	.LBB18:
  35              	.LBB19:
  36              		.file 2 "/home/efe/ChibiOS/os/ext/CMSIS/include/core_cmFunc.h"
  37              		.loc 2 535 0
  38              	@ 535 "/home/efe/ChibiOS/os/ext/CMSIS/include/core_cmFunc.h" 1
  39 0002 EFF31183 		MRS r3, basepri
  40              	@ 0 "" 2
  41              		.thumb
  42 0006 0093     		str	r3, [sp]
  43              		.loc 2 536 0
  44 0008 009B     		ldr	r3, [sp]
  45              	.LBE19:
  46              	.LBE18:
  47              		.loc 1 414 0
  48 000a 0193     		str	r3, [sp, #4]
  49              		.loc 1 418 0
  50 000c 019B     		ldr	r3, [sp, #4]
  51              		.loc 1 419 0
  52 000e 1846     		mov	r0, r3
  53 0010 02B0     		add	sp, sp, #8
  54              		@ sp needed
  55 0012 7047     		bx	lr
  56              		.cfi_endproc
  57              	.LFE124:
ARM GAS  /tmp/cce17jkg.s 			page 2


  58              		.size	port_get_irq_status, .-port_get_irq_status
  59 0014 AFF30080 		.section	.text.port_irq_enabled,"ax",%progbits
  59      AFF30080 
  59      AFF30080 
  60              		.align	2
  61              		.p2align 4,,15
  62              		.thumb
  63              		.thumb_func
  64              		.type	port_irq_enabled, %function
  65              	port_irq_enabled:
  66              	.LFB125:
  67              		.loc 1 430 0
  68              		.cfi_startproc
  69              		@ args = 0, pretend = 0, frame = 8
  70              		@ frame_needed = 0, uses_anonymous_args = 0
  71              		@ link register save eliminated.
  72 0000 82B0     		sub	sp, sp, #8
  73              		.cfi_def_cfa_offset 8
  74 0002 0190     		str	r0, [sp, #4]
  75              		.loc 1 433 0
  76 0004 019B     		ldr	r3, [sp, #4]
  77 0006 002B     		cmp	r3, #0
  78 0008 14BF     		ite	ne
  79 000a 0023     		movne	r3, #0
  80 000c 0123     		moveq	r3, #1
  81 000e DBB2     		uxtb	r3, r3
  82              		.loc 1 437 0
  83 0010 1846     		mov	r0, r3
  84 0012 02B0     		add	sp, sp, #8
  85              		@ sp needed
  86 0014 7047     		bx	lr
  87              		.cfi_endproc
  88              	.LFE125:
  89              		.size	port_irq_enabled, .-port_irq_enabled
  90 0016 00BFAFF3 		.section	.text.port_lock,"ax",%progbits
  90      0080AFF3 
  90      0080
  91              		.align	2
  92              		.p2align 4,,15
  93              		.thumb
  94              		.thumb_func
  95              		.type	port_lock, %function
  96              	port_lock:
  97              	.LFB127:
  98              		.loc 1 456 0
  99              		.cfi_startproc
 100              		@ args = 0, pretend = 0, frame = 8
 101              		@ frame_needed = 0, uses_anonymous_args = 0
 102              		@ link register save eliminated.
 103 0000 82B0     		sub	sp, sp, #8
 104              		.cfi_def_cfa_offset 8
 105 0002 2023     		movs	r3, #32
 106 0004 0193     		str	r3, [sp, #4]
 107              	.LBB20:
 108              	.LBB21:
 109              		.loc 2 548 0
 110 0006 019B     		ldr	r3, [sp, #4]
ARM GAS  /tmp/cce17jkg.s 			page 3


 111              	@ 548 "/home/efe/ChibiOS/os/ext/CMSIS/include/core_cmFunc.h" 1
 112 0008 83F31188 		MSR basepri, r3
 113              	@ 0 "" 2
 114              		.thumb
 115              	.LBE21:
 116              	.LBE20:
 117              		.loc 1 463 0
 118 000c 02B0     		add	sp, sp, #8
 119              		@ sp needed
 120 000e 7047     		bx	lr
 121              		.cfi_endproc
 122              	.LFE127:
 123              		.size	port_lock, .-port_lock
 124              		.section	.text.port_unlock,"ax",%progbits
 125              		.align	2
 126              		.p2align 4,,15
 127              		.thumb
 128              		.thumb_func
 129              		.type	port_unlock, %function
 130              	port_unlock:
 131              	.LFB128:
 132              		.loc 1 470 0
 133              		.cfi_startproc
 134              		@ args = 0, pretend = 0, frame = 8
 135              		@ frame_needed = 0, uses_anonymous_args = 0
 136              		@ link register save eliminated.
 137 0000 82B0     		sub	sp, sp, #8
 138              		.cfi_def_cfa_offset 8
 139 0002 0023     		movs	r3, #0
 140 0004 0193     		str	r3, [sp, #4]
 141              	.LBB22:
 142              	.LBB23:
 143              		.loc 2 548 0
 144 0006 019B     		ldr	r3, [sp, #4]
 145              	@ 548 "/home/efe/ChibiOS/os/ext/CMSIS/include/core_cmFunc.h" 1
 146 0008 83F31188 		MSR basepri, r3
 147              	@ 0 "" 2
 148              		.thumb
 149              	.LBE23:
 150              	.LBE22:
 151              		.loc 1 477 0
 152 000c 02B0     		add	sp, sp, #8
 153              		@ sp needed
 154 000e 7047     		bx	lr
 155              		.cfi_endproc
 156              	.LFE128:
 157              		.size	port_unlock, .-port_unlock
 158              		.section	.text.port_lock_from_isr,"ax",%progbits
 159              		.align	2
 160              		.p2align 4,,15
 161              		.thumb
 162              		.thumb_func
 163              		.type	port_lock_from_isr, %function
 164              	port_lock_from_isr:
 165              	.LFB129:
 166              		.loc 1 485 0
 167              		.cfi_startproc
ARM GAS  /tmp/cce17jkg.s 			page 4


 168              		@ args = 0, pretend = 0, frame = 0
 169              		@ frame_needed = 0, uses_anonymous_args = 0
 170 0000 08B5     		push	{r3, lr}
 171              		.cfi_def_cfa_offset 8
 172              		.cfi_offset 3, -8
 173              		.cfi_offset 14, -4
 174              		.loc 1 487 0
 175 0002 FFF7FEFF 		bl	port_lock
 176              		.loc 1 488 0
 177 0006 08BD     		pop	{r3, pc}
 178              		.cfi_endproc
 179              	.LFE129:
 180              		.size	port_lock_from_isr, .-port_lock_from_isr
 181 0008 AFF30080 		.section	.text.port_unlock_from_isr,"ax",%progbits
 181      AFF30080 
 182              		.align	2
 183              		.p2align 4,,15
 184              		.thumb
 185              		.thumb_func
 186              		.type	port_unlock_from_isr, %function
 187              	port_unlock_from_isr:
 188              	.LFB130:
 189              		.loc 1 496 0
 190              		.cfi_startproc
 191              		@ args = 0, pretend = 0, frame = 0
 192              		@ frame_needed = 0, uses_anonymous_args = 0
 193 0000 08B5     		push	{r3, lr}
 194              		.cfi_def_cfa_offset 8
 195              		.cfi_offset 3, -8
 196              		.cfi_offset 14, -4
 197              		.loc 1 498 0
 198 0002 FFF7FEFF 		bl	port_unlock
 199              		.loc 1 499 0
 200 0006 08BD     		pop	{r3, pc}
 201              		.cfi_endproc
 202              	.LFE130:
 203              		.size	port_unlock_from_isr, .-port_unlock_from_isr
 204 0008 AFF30080 		.section	.text.port_disable,"ax",%progbits
 204      AFF30080 
 205              		.align	2
 206              		.p2align 4,,15
 207              		.thumb
 208              		.thumb_func
 209              		.type	port_disable, %function
 210              	port_disable:
 211              	.LFB131:
 212              		.loc 1 506 0
 213              		.cfi_startproc
 214              		@ args = 0, pretend = 0, frame = 0
 215              		@ frame_needed = 0, uses_anonymous_args = 0
 216              		@ link register save eliminated.
 217              	.LBB24:
 218              	.LBB25:
 219              		.loc 2 344 0
 220              	@ 344 "/home/efe/ChibiOS/os/ext/CMSIS/include/core_cmFunc.h" 1
 221 0000 72B6     		cpsid i
 222              	@ 0 "" 2
ARM GAS  /tmp/cce17jkg.s 			page 5


 223              		.thumb
 224              	.LBE25:
 225              	.LBE24:
 226              		.loc 1 509 0
 227 0002 7047     		bx	lr
 228              		.cfi_endproc
 229              	.LFE131:
 230              		.size	port_disable, .-port_disable
 231 0004 AFF30080 		.section	.text.port_suspend,"ax",%progbits
 231      AFF30080 
 231      AFF30080 
 232              		.align	2
 233              		.p2align 4,,15
 234              		.thumb
 235              		.thumb_func
 236              		.type	port_suspend, %function
 237              	port_suspend:
 238              	.LFB132:
 239              		.loc 1 516 0
 240              		.cfi_startproc
 241              		@ args = 0, pretend = 0, frame = 8
 242              		@ frame_needed = 0, uses_anonymous_args = 0
 243              		@ link register save eliminated.
 244 0000 82B0     		sub	sp, sp, #8
 245              		.cfi_def_cfa_offset 8
 246 0002 2023     		movs	r3, #32
 247 0004 0193     		str	r3, [sp, #4]
 248              	.LBB26:
 249              	.LBB27:
 250              		.loc 2 548 0
 251 0006 019B     		ldr	r3, [sp, #4]
 252              	@ 548 "/home/efe/ChibiOS/os/ext/CMSIS/include/core_cmFunc.h" 1
 253 0008 83F31188 		MSR basepri, r3
 254              	@ 0 "" 2
 255              		.thumb
 256              	.LBE27:
 257              	.LBE26:
 258              	.LBB28:
 259              	.LBB29:
 260              		.loc 2 333 0
 261              	@ 333 "/home/efe/ChibiOS/os/ext/CMSIS/include/core_cmFunc.h" 1
 262 000c 62B6     		cpsie i
 263              	@ 0 "" 2
 264              		.thumb
 265              	.LBE29:
 266              	.LBE28:
 267              		.loc 1 524 0
 268 000e 02B0     		add	sp, sp, #8
 269              		@ sp needed
 270 0010 7047     		bx	lr
 271              		.cfi_endproc
 272              	.LFE132:
 273              		.size	port_suspend, .-port_suspend
 274 0012 00BFAFF3 		.section	.text.port_enable,"ax",%progbits
 274      0080AFF3 
 274      0080AFF3 
 274      0080
ARM GAS  /tmp/cce17jkg.s 			page 6


 275              		.align	2
 276              		.p2align 4,,15
 277              		.thumb
 278              		.thumb_func
 279              		.type	port_enable, %function
 280              	port_enable:
 281              	.LFB133:
 282              		.loc 1 530 0
 283              		.cfi_startproc
 284              		@ args = 0, pretend = 0, frame = 8
 285              		@ frame_needed = 0, uses_anonymous_args = 0
 286              		@ link register save eliminated.
 287 0000 82B0     		sub	sp, sp, #8
 288              		.cfi_def_cfa_offset 8
 289 0002 0023     		movs	r3, #0
 290 0004 0193     		str	r3, [sp, #4]
 291              	.LBB30:
 292              	.LBB31:
 293              		.loc 2 548 0
 294 0006 019B     		ldr	r3, [sp, #4]
 295              	@ 548 "/home/efe/ChibiOS/os/ext/CMSIS/include/core_cmFunc.h" 1
 296 0008 83F31188 		MSR basepri, r3
 297              	@ 0 "" 2
 298              		.thumb
 299              	.LBE31:
 300              	.LBE30:
 301              	.LBB32:
 302              	.LBB33:
 303              		.loc 2 333 0
 304              	@ 333 "/home/efe/ChibiOS/os/ext/CMSIS/include/core_cmFunc.h" 1
 305 000c 62B6     		cpsie i
 306              	@ 0 "" 2
 307              		.thumb
 308              	.LBE33:
 309              	.LBE32:
 310              		.loc 1 536 0
 311 000e 02B0     		add	sp, sp, #8
 312              		@ sp needed
 313 0010 7047     		bx	lr
 314              		.cfi_endproc
 315              	.LFE133:
 316              		.size	port_enable, .-port_enable
 317 0012 00BFAFF3 		.section	.text.chSysDisable,"ax",%progbits
 317      0080AFF3 
 317      0080AFF3 
 317      0080
 318              		.align	2
 319              		.p2align 4,,15
 320              		.thumb
 321              		.thumb_func
 322              		.type	chSysDisable, %function
 323              	chSysDisable:
 324              	.LFB164:
 325              		.file 3 "/home/efe/ChibiOS/os/rt/include/chsys.h"
 326              		.loc 3 303 0
 327              		.cfi_startproc
 328              		@ args = 0, pretend = 0, frame = 0
ARM GAS  /tmp/cce17jkg.s 			page 7


 329              		@ frame_needed = 0, uses_anonymous_args = 0
 330 0000 08B5     		push	{r3, lr}
 331              		.cfi_def_cfa_offset 8
 332              		.cfi_offset 3, -8
 333              		.cfi_offset 14, -4
 334              		.loc 3 305 0
 335 0002 FFF7FEFF 		bl	port_disable
 336              		.loc 3 306 0
 337 0006 FFF7FEFF 		bl	_dbg_check_disable
 338              		.loc 3 307 0
 339 000a 08BD     		pop	{r3, pc}
 340              		.cfi_endproc
 341              	.LFE164:
 342              		.size	chSysDisable, .-chSysDisable
 343 000c AFF30080 		.section	.text.chSysSuspend,"ax",%progbits
 344              		.align	2
 345              		.p2align 4,,15
 346              		.thumb
 347              		.thumb_func
 348              		.type	chSysSuspend, %function
 349              	chSysSuspend:
 350              	.LFB165:
 351              		.loc 3 320 0
 352              		.cfi_startproc
 353              		@ args = 0, pretend = 0, frame = 0
 354              		@ frame_needed = 0, uses_anonymous_args = 0
 355 0000 08B5     		push	{r3, lr}
 356              		.cfi_def_cfa_offset 8
 357              		.cfi_offset 3, -8
 358              		.cfi_offset 14, -4
 359              		.loc 3 322 0
 360 0002 FFF7FEFF 		bl	port_suspend
 361              		.loc 3 323 0
 362 0006 FFF7FEFF 		bl	_dbg_check_suspend
 363              		.loc 3 324 0
 364 000a 08BD     		pop	{r3, pc}
 365              		.cfi_endproc
 366              	.LFE165:
 367              		.size	chSysSuspend, .-chSysSuspend
 368              		.section	.text.chSysEnable,"ax",%progbits
 369              		.align	2
 370              		.p2align 4,,15
 371              		.thumb
 372              		.thumb_func
 373              		.type	chSysEnable, %function
 374              	chSysEnable:
 375              	.LFB166:
 376              		.loc 3 335 0
 377              		.cfi_startproc
 378              		@ args = 0, pretend = 0, frame = 0
 379              		@ frame_needed = 0, uses_anonymous_args = 0
 380 0000 08B5     		push	{r3, lr}
 381              		.cfi_def_cfa_offset 8
 382              		.cfi_offset 3, -8
 383              		.cfi_offset 14, -4
 384              		.loc 3 337 0
 385 0002 FFF7FEFF 		bl	_dbg_check_enable
ARM GAS  /tmp/cce17jkg.s 			page 8


 386              		.loc 3 338 0
 387 0006 FFF7FEFF 		bl	port_enable
 388              		.loc 3 339 0
 389 000a 08BD     		pop	{r3, pc}
 390              		.cfi_endproc
 391              	.LFE166:
 392              		.size	chSysEnable, .-chSysEnable
 393              		.section	.text.chSysLock,"ax",%progbits
 394              		.align	2
 395              		.p2align 4,,15
 396              		.thumb
 397              		.thumb_func
 398              		.type	chSysLock, %function
 399              	chSysLock:
 400              	.LFB167:
 401              		.loc 3 346 0
 402              		.cfi_startproc
 403              		@ args = 0, pretend = 0, frame = 0
 404              		@ frame_needed = 0, uses_anonymous_args = 0
 405 0000 08B5     		push	{r3, lr}
 406              		.cfi_def_cfa_offset 8
 407              		.cfi_offset 3, -8
 408              		.cfi_offset 14, -4
 409              		.loc 3 348 0
 410 0002 FFF7FEFF 		bl	port_lock
 411              		.loc 3 349 0
 412 0006 FFF7FEFF 		bl	_stats_start_measure_crit_thd
 413              		.loc 3 350 0
 414 000a FFF7FEFF 		bl	_dbg_check_lock
 415              		.loc 3 351 0
 416 000e 08BD     		pop	{r3, pc}
 417              		.cfi_endproc
 418              	.LFE167:
 419              		.size	chSysLock, .-chSysLock
 420              		.section	.text.chSysUnlock,"ax",%progbits
 421              		.align	2
 422              		.p2align 4,,15
 423              		.thumb
 424              		.thumb_func
 425              		.type	chSysUnlock, %function
 426              	chSysUnlock:
 427              	.LFB168:
 428              		.loc 3 358 0
 429              		.cfi_startproc
 430              		@ args = 0, pretend = 0, frame = 0
 431              		@ frame_needed = 0, uses_anonymous_args = 0
 432 0000 08B5     		push	{r3, lr}
 433              		.cfi_def_cfa_offset 8
 434              		.cfi_offset 3, -8
 435              		.cfi_offset 14, -4
 436              		.loc 3 360 0
 437 0002 FFF7FEFF 		bl	_dbg_check_unlock
 438              		.loc 3 361 0
 439 0006 FFF7FEFF 		bl	_stats_stop_measure_crit_thd
 440              		.loc 3 367 0
 441 000a 094B     		ldr	r3, .L19
 442 000c 1A68     		ldr	r2, [r3]
ARM GAS  /tmp/cce17jkg.s 			page 9


 443 000e 084B     		ldr	r3, .L19
 444 0010 9A42     		cmp	r2, r3
 445 0012 0AD0     		beq	.L18
 446              		.loc 3 367 0 is_stmt 0 discriminator 1
 447 0014 064B     		ldr	r3, .L19
 448 0016 9B69     		ldr	r3, [r3, #24]
 449 0018 9A68     		ldr	r2, [r3, #8]
 450 001a 054B     		ldr	r3, .L19
 451 001c 1B68     		ldr	r3, [r3]
 452 001e 9B68     		ldr	r3, [r3, #8]
 453 0020 9A42     		cmp	r2, r3
 454 0022 02D2     		bcs	.L18
 455 0024 0348     		ldr	r0, .L19+4
 456 0026 FFF7FEFF 		bl	chSysHalt
 457              	.L18:
 458              		.loc 3 371 0 is_stmt 1
 459 002a FFF7FEFF 		bl	port_unlock
 460              		.loc 3 372 0
 461 002e 08BD     		pop	{r3, pc}
 462              	.L20:
 463              		.align	2
 464              	.L19:
 465 0030 00000000 		.word	ch
 466 0034 00000000 		.word	__func__.5925
 467              		.cfi_endproc
 468              	.LFE168:
 469              		.size	chSysUnlock, .-chSysUnlock
 470 0038 AFF30080 		.section	.text.chSysLockFromISR,"ax",%progbits
 470      AFF30080 
 471              		.align	2
 472              		.p2align 4,,15
 473              		.thumb
 474              		.thumb_func
 475              		.type	chSysLockFromISR, %function
 476              	chSysLockFromISR:
 477              	.LFB169:
 478              		.loc 3 386 0
 479              		.cfi_startproc
 480              		@ args = 0, pretend = 0, frame = 0
 481              		@ frame_needed = 0, uses_anonymous_args = 0
 482 0000 08B5     		push	{r3, lr}
 483              		.cfi_def_cfa_offset 8
 484              		.cfi_offset 3, -8
 485              		.cfi_offset 14, -4
 486              		.loc 3 388 0
 487 0002 FFF7FEFF 		bl	port_lock_from_isr
 488              		.loc 3 389 0
 489 0006 FFF7FEFF 		bl	_stats_start_measure_crit_isr
 490              		.loc 3 390 0
 491 000a FFF7FEFF 		bl	_dbg_check_lock_from_isr
 492              		.loc 3 391 0
 493 000e 08BD     		pop	{r3, pc}
 494              		.cfi_endproc
 495              	.LFE169:
 496              		.size	chSysLockFromISR, .-chSysLockFromISR
 497              		.section	.text.chSysUnlockFromISR,"ax",%progbits
 498              		.align	2
ARM GAS  /tmp/cce17jkg.s 			page 10


 499              		.p2align 4,,15
 500              		.thumb
 501              		.thumb_func
 502              		.type	chSysUnlockFromISR, %function
 503              	chSysUnlockFromISR:
 504              	.LFB170:
 505              		.loc 3 406 0
 506              		.cfi_startproc
 507              		@ args = 0, pretend = 0, frame = 0
 508              		@ frame_needed = 0, uses_anonymous_args = 0
 509 0000 08B5     		push	{r3, lr}
 510              		.cfi_def_cfa_offset 8
 511              		.cfi_offset 3, -8
 512              		.cfi_offset 14, -4
 513              		.loc 3 408 0
 514 0002 FFF7FEFF 		bl	_dbg_check_unlock_from_isr
 515              		.loc 3 409 0
 516 0006 FFF7FEFF 		bl	_stats_stop_measure_crit_isr
 517              		.loc 3 410 0
 518 000a FFF7FEFF 		bl	port_unlock_from_isr
 519              		.loc 3 411 0
 520 000e 08BD     		pop	{r3, pc}
 521              		.cfi_endproc
 522              	.LFE170:
 523              		.size	chSysUnlockFromISR, .-chSysUnlockFromISR
 524              		.section	.text.chSysUnconditionalLock,"ax",%progbits
 525              		.align	2
 526              		.p2align 4,,15
 527              		.thumb
 528              		.thumb_func
 529              		.type	chSysUnconditionalLock, %function
 530              	chSysUnconditionalLock:
 531              	.LFB171:
 532              		.loc 3 420 0
 533              		.cfi_startproc
 534              		@ args = 0, pretend = 0, frame = 0
 535              		@ frame_needed = 0, uses_anonymous_args = 0
 536 0000 08B5     		push	{r3, lr}
 537              		.cfi_def_cfa_offset 8
 538              		.cfi_offset 3, -8
 539              		.cfi_offset 14, -4
 540              		.loc 3 422 0
 541 0002 FFF7FEFF 		bl	port_get_irq_status
 542 0006 0346     		mov	r3, r0
 543 0008 1846     		mov	r0, r3
 544 000a FFF7FEFF 		bl	port_irq_enabled
 545 000e 0346     		mov	r3, r0
 546 0010 002B     		cmp	r3, #0
 547 0012 01D0     		beq	.L23
 548              		.loc 3 423 0
 549 0014 FFF7FEFF 		bl	chSysLock
 550              	.L23:
 551              		.loc 3 425 0
 552 0018 08BD     		pop	{r3, pc}
 553              		.cfi_endproc
 554              	.LFE171:
 555              		.size	chSysUnconditionalLock, .-chSysUnconditionalLock
ARM GAS  /tmp/cce17jkg.s 			page 11


 556 001a 00BFAFF3 		.section	.text.chSysUnconditionalUnlock,"ax",%progbits
 556      0080
 557              		.align	2
 558              		.p2align 4,,15
 559              		.thumb
 560              		.thumb_func
 561              		.type	chSysUnconditionalUnlock, %function
 562              	chSysUnconditionalUnlock:
 563              	.LFB172:
 564              		.loc 3 434 0
 565              		.cfi_startproc
 566              		@ args = 0, pretend = 0, frame = 0
 567              		@ frame_needed = 0, uses_anonymous_args = 0
 568 0000 08B5     		push	{r3, lr}
 569              		.cfi_def_cfa_offset 8
 570              		.cfi_offset 3, -8
 571              		.cfi_offset 14, -4
 572              		.loc 3 436 0
 573 0002 FFF7FEFF 		bl	port_get_irq_status
 574 0006 0346     		mov	r3, r0
 575 0008 1846     		mov	r0, r3
 576 000a FFF7FEFF 		bl	port_irq_enabled
 577 000e 0346     		mov	r3, r0
 578 0010 83F00103 		eor	r3, r3, #1
 579 0014 DBB2     		uxtb	r3, r3
 580 0016 002B     		cmp	r3, #0
 581 0018 01D0     		beq	.L25
 582              		.loc 3 437 0
 583 001a FFF7FEFF 		bl	chSysUnlock
 584              	.L25:
 585              		.loc 3 439 0
 586 001e 08BD     		pop	{r3, pc}
 587              		.cfi_endproc
 588              	.LFE172:
 589              		.size	chSysUnconditionalUnlock, .-chSysUnconditionalUnlock
 590              		.section	.text.chVTObjectInit,"ax",%progbits
 591              		.align	2
 592              		.p2align 4,,15
 593              		.thumb
 594              		.thumb_func
 595              		.type	chVTObjectInit, %function
 596              	chVTObjectInit:
 597              	.LFB174:
 598              		.file 4 "/home/efe/ChibiOS/os/rt/include/chvt.h"
 599              		.loc 4 210 0
 600              		.cfi_startproc
 601              		@ args = 0, pretend = 0, frame = 8
 602              		@ frame_needed = 0, uses_anonymous_args = 0
 603              		@ link register save eliminated.
 604 0000 82B0     		sub	sp, sp, #8
 605              		.cfi_def_cfa_offset 8
 606 0002 0190     		str	r0, [sp, #4]
 607              		.loc 4 212 0
 608 0004 019B     		ldr	r3, [sp, #4]
 609 0006 0022     		movs	r2, #0
 610 0008 DA60     		str	r2, [r3, #12]
 611              		.loc 4 213 0
ARM GAS  /tmp/cce17jkg.s 			page 12


 612 000a 02B0     		add	sp, sp, #8
 613              		@ sp needed
 614 000c 7047     		bx	lr
 615              		.cfi_endproc
 616              	.LFE174:
 617              		.size	chVTObjectInit, .-chVTObjectInit
 618 000e 00BF     		.section	.text.chVTIsArmedI,"ax",%progbits
 619              		.align	2
 620              		.p2align 4,,15
 621              		.thumb
 622              		.thumb_func
 623              		.type	chVTIsArmedI, %function
 624              	chVTIsArmedI:
 625              	.LFB181:
 626              		.loc 4 337 0
 627              		.cfi_startproc
 628              		@ args = 0, pretend = 0, frame = 8
 629              		@ frame_needed = 0, uses_anonymous_args = 0
 630 0000 00B5     		push	{lr}
 631              		.cfi_def_cfa_offset 4
 632              		.cfi_offset 14, -4
 633 0002 83B0     		sub	sp, sp, #12
 634              		.cfi_def_cfa_offset 16
 635 0004 0190     		str	r0, [sp, #4]
 636              		.loc 4 339 0
 637 0006 FFF7FEFF 		bl	chDbgCheckClassI
 638              		.loc 4 341 0
 639 000a 019B     		ldr	r3, [sp, #4]
 640 000c DB68     		ldr	r3, [r3, #12]
 641 000e 002B     		cmp	r3, #0
 642 0010 0CBF     		ite	eq
 643 0012 0023     		moveq	r3, #0
 644 0014 0123     		movne	r3, #1
 645 0016 DBB2     		uxtb	r3, r3
 646              		.loc 4 342 0
 647 0018 1846     		mov	r0, r3
 648 001a 03B0     		add	sp, sp, #12
 649              		@ sp needed
 650 001c 5DF804FB 		ldr	pc, [sp], #4
 651              		.cfi_endproc
 652              	.LFE181:
 653              		.size	chVTIsArmedI, .-chVTIsArmedI
 654              		.section	.text.chVTIsArmed,"ax",%progbits
 655              		.align	2
 656              		.p2align 4,,15
 657              		.thumb
 658              		.thumb_func
 659              		.type	chVTIsArmed, %function
 660              	chVTIsArmed:
 661              	.LFB182:
 662              		.loc 4 354 0
 663              		.cfi_startproc
 664              		@ args = 0, pretend = 0, frame = 16
 665              		@ frame_needed = 0, uses_anonymous_args = 0
 666 0000 00B5     		push	{lr}
 667              		.cfi_def_cfa_offset 4
 668              		.cfi_offset 14, -4
ARM GAS  /tmp/cce17jkg.s 			page 13


 669 0002 85B0     		sub	sp, sp, #20
 670              		.cfi_def_cfa_offset 24
 671 0004 0190     		str	r0, [sp, #4]
 672              		.loc 4 357 0
 673 0006 FFF7FEFF 		bl	chSysLock
 674              		.loc 4 358 0
 675 000a 0198     		ldr	r0, [sp, #4]
 676 000c FFF7FEFF 		bl	chVTIsArmedI
 677 0010 0346     		mov	r3, r0
 678 0012 8DF80F30 		strb	r3, [sp, #15]
 679              		.loc 4 359 0
 680 0016 FFF7FEFF 		bl	chSysUnlock
 681              		.loc 4 361 0
 682 001a 9DF80F30 		ldrb	r3, [sp, #15]	@ zero_extendqisi2
 683              		.loc 4 362 0
 684 001e 1846     		mov	r0, r3
 685 0020 05B0     		add	sp, sp, #20
 686              		@ sp needed
 687 0022 5DF804FB 		ldr	pc, [sp], #4
 688              		.cfi_endproc
 689              	.LFE182:
 690              		.size	chVTIsArmed, .-chVTIsArmed
 691 0026 00BFAFF3 		.section	.text.chVTResetI,"ax",%progbits
 691      0080AFF3 
 691      0080
 692              		.align	2
 693              		.p2align 4,,15
 694              		.thumb
 695              		.thumb_func
 696              		.type	chVTResetI, %function
 697              	chVTResetI:
 698              	.LFB183:
 699              		.loc 4 374 0
 700              		.cfi_startproc
 701              		@ args = 0, pretend = 0, frame = 8
 702              		@ frame_needed = 0, uses_anonymous_args = 0
 703 0000 00B5     		push	{lr}
 704              		.cfi_def_cfa_offset 4
 705              		.cfi_offset 14, -4
 706 0002 83B0     		sub	sp, sp, #12
 707              		.cfi_def_cfa_offset 16
 708 0004 0190     		str	r0, [sp, #4]
 709              		.loc 4 376 0
 710 0006 0198     		ldr	r0, [sp, #4]
 711 0008 FFF7FEFF 		bl	chVTIsArmedI
 712 000c 0346     		mov	r3, r0
 713 000e 002B     		cmp	r3, #0
 714 0010 02D0     		beq	.L32
 715              		.loc 4 377 0
 716 0012 0198     		ldr	r0, [sp, #4]
 717 0014 FFF7FEFF 		bl	chVTDoResetI
 718              	.L32:
 719              		.loc 4 379 0
 720 0018 03B0     		add	sp, sp, #12
 721              		@ sp needed
 722 001a 5DF804FB 		ldr	pc, [sp], #4
 723              		.cfi_endproc
ARM GAS  /tmp/cce17jkg.s 			page 14


 724              	.LFE183:
 725              		.size	chVTResetI, .-chVTResetI
 726 001e 00BF     		.section	.text.chVTSetI,"ax",%progbits
 727              		.align	2
 728              		.p2align 4,,15
 729              		.thumb
 730              		.thumb_func
 731              		.type	chVTSetI, %function
 732              	chVTSetI:
 733              	.LFB185:
 734              		.loc 4 421 0
 735              		.cfi_startproc
 736              		@ args = 0, pretend = 0, frame = 16
 737              		@ frame_needed = 0, uses_anonymous_args = 0
 738 0000 00B5     		push	{lr}
 739              		.cfi_def_cfa_offset 4
 740              		.cfi_offset 14, -4
 741 0002 85B0     		sub	sp, sp, #20
 742              		.cfi_def_cfa_offset 24
 743 0004 0390     		str	r0, [sp, #12]
 744 0006 0291     		str	r1, [sp, #8]
 745 0008 0192     		str	r2, [sp, #4]
 746 000a 0093     		str	r3, [sp]
 747              		.loc 4 423 0
 748 000c 0398     		ldr	r0, [sp, #12]
 749 000e FFF7FEFF 		bl	chVTResetI
 750              		.loc 4 424 0
 751 0012 0398     		ldr	r0, [sp, #12]
 752 0014 0299     		ldr	r1, [sp, #8]
 753 0016 019A     		ldr	r2, [sp, #4]
 754 0018 009B     		ldr	r3, [sp]
 755 001a FFF7FEFF 		bl	chVTDoSetI
 756              		.loc 4 425 0
 757 001e 05B0     		add	sp, sp, #20
 758              		@ sp needed
 759 0020 5DF804FB 		ldr	pc, [sp], #4
 760              		.cfi_endproc
 761              	.LFE185:
 762              		.size	chVTSetI, .-chVTSetI
 763 0024 AFF30080 		.section	.text.chVTSet,"ax",%progbits
 763      AFF30080 
 763      AFF30080 
 764              		.align	2
 765              		.p2align 4,,15
 766              		.thumb
 767              		.thumb_func
 768              		.type	chVTSet, %function
 769              	chVTSet:
 770              	.LFB186:
 771              		.loc 4 450 0
 772              		.cfi_startproc
 773              		@ args = 0, pretend = 0, frame = 16
 774              		@ frame_needed = 0, uses_anonymous_args = 0
 775 0000 00B5     		push	{lr}
 776              		.cfi_def_cfa_offset 4
 777              		.cfi_offset 14, -4
 778 0002 85B0     		sub	sp, sp, #20
ARM GAS  /tmp/cce17jkg.s 			page 15


 779              		.cfi_def_cfa_offset 24
 780 0004 0390     		str	r0, [sp, #12]
 781 0006 0291     		str	r1, [sp, #8]
 782 0008 0192     		str	r2, [sp, #4]
 783 000a 0093     		str	r3, [sp]
 784              		.loc 4 452 0
 785 000c FFF7FEFF 		bl	chSysLock
 786              		.loc 4 453 0
 787 0010 0398     		ldr	r0, [sp, #12]
 788 0012 0299     		ldr	r1, [sp, #8]
 789 0014 019A     		ldr	r2, [sp, #4]
 790 0016 009B     		ldr	r3, [sp]
 791 0018 FFF7FEFF 		bl	chVTSetI
 792              		.loc 4 454 0
 793 001c FFF7FEFF 		bl	chSysUnlock
 794              		.loc 4 455 0
 795 0020 05B0     		add	sp, sp, #20
 796              		@ sp needed
 797 0022 5DF804FB 		ldr	pc, [sp], #4
 798              		.cfi_endproc
 799              	.LFE186:
 800              		.size	chVTSet, .-chVTSet
 801 0026 00BFAFF3 		.section	.text.vtcb,"ax",%progbits
 801      0080AFF3 
 801      0080
 802              		.align	2
 803              		.p2align 4,,15
 804              		.thumb
 805              		.thumb_func
 806              		.type	vtcb, %function
 807              	vtcb:
 808              	.LFB240:
 809              		.file 5 "/home/efe/ChibiOS/test/rt/testsys.c"
 810              		.loc 5 52 0
 811              		.cfi_startproc
 812              		@ args = 0, pretend = 0, frame = 16
 813              		@ frame_needed = 0, uses_anonymous_args = 0
 814 0000 00B5     		push	{lr}
 815              		.cfi_def_cfa_offset 4
 816              		.cfi_offset 14, -4
 817 0002 85B0     		sub	sp, sp, #20
 818              		.cfi_def_cfa_offset 24
 819 0004 0190     		str	r0, [sp, #4]
 820              		.loc 5 58 0
 821 0006 FFF7FEFF 		bl	chSysLockFromISR
 822              		.loc 5 59 0
 823 000a FFF7FEFF 		bl	chSysUnlockFromISR
 824              		.loc 5 62 0
 825 000e FFF7FEFF 		bl	chSysLockFromISR
 826              		.loc 5 63 0
 827 0012 FFF7FEFF 		bl	chSysGetStatusAndLockX
 828 0016 0390     		str	r0, [sp, #12]
 829              		.loc 5 64 0
 830 0018 0398     		ldr	r0, [sp, #12]
 831 001a FFF7FEFF 		bl	chSysRestoreStatusX
 832              		.loc 5 65 0
 833 001e FFF7FEFF 		bl	chSysUnlockFromISR
ARM GAS  /tmp/cce17jkg.s 			page 16


 834              		.loc 5 66 0
 835 0022 05B0     		add	sp, sp, #20
 836              		@ sp needed
 837 0024 5DF804FB 		ldr	pc, [sp], #4
 838              		.cfi_endproc
 839              	.LFE240:
 840              		.size	vtcb, .-vtcb
 841 0028 AFF30080 		.section	.text.sys1_execute,"ax",%progbits
 841      AFF30080 
 842              		.align	2
 843              		.p2align 4,,15
 844              		.thumb
 845              		.thumb_func
 846              		.type	sys1_execute, %function
 847              	sys1_execute:
 848              	.LFB241:
 849              		.loc 5 68 0
 850              		.cfi_startproc
 851              		@ args = 0, pretend = 0, frame = 24
 852              		@ frame_needed = 0, uses_anonymous_args = 0
 853 0000 00B5     		push	{lr}
 854              		.cfi_def_cfa_offset 4
 855              		.cfi_offset 14, -4
 856 0002 87B0     		sub	sp, sp, #28
 857              		.cfi_def_cfa_offset 32
 858              		.loc 5 73 0
 859 0004 FFF7FEFF 		bl	chSysGetStatusAndLockX
 860 0008 0590     		str	r0, [sp, #20]
 861              		.loc 5 74 0
 862 000a 0598     		ldr	r0, [sp, #20]
 863 000c FFF7FEFF 		bl	chSysRestoreStatusX
 864              		.loc 5 77 0
 865 0010 FFF7FEFF 		bl	chSysLock
 866              		.loc 5 78 0
 867 0014 FFF7FEFF 		bl	chSysGetStatusAndLockX
 868 0018 0590     		str	r0, [sp, #20]
 869              		.loc 5 79 0
 870 001a 0598     		ldr	r0, [sp, #20]
 871 001c FFF7FEFF 		bl	chSysRestoreStatusX
 872              		.loc 5 80 0
 873 0020 FFF7FEFF 		bl	chSysUnlock
 874              		.loc 5 83 0
 875 0024 FFF7FEFF 		bl	chSysUnconditionalLock
 876              		.loc 5 84 0
 877 0028 FFF7FEFF 		bl	chSysUnconditionalLock
 878              		.loc 5 85 0
 879 002c FFF7FEFF 		bl	chSysUnlock
 880              		.loc 5 88 0
 881 0030 FFF7FEFF 		bl	chSysLock
 882              		.loc 5 89 0
 883 0034 FFF7FEFF 		bl	chSysUnconditionalUnlock
 884              		.loc 5 90 0
 885 0038 FFF7FEFF 		bl	chSysUnconditionalUnlock
 886              		.loc 5 93 0
 887 003c 6B46     		mov	r3, sp
 888 003e 1846     		mov	r0, r3
 889 0040 FFF7FEFF 		bl	chVTObjectInit
ARM GAS  /tmp/cce17jkg.s 			page 17


 890              		.loc 5 94 0
 891 0044 6B46     		mov	r3, sp
 892 0046 1846     		mov	r0, r3
 893 0048 0121     		movs	r1, #1
 894 004a 104A     		ldr	r2, .L40
 895 004c 0023     		movs	r3, #0
 896 004e FFF7FEFF 		bl	chVTSet
 897              		.loc 5 95 0
 898 0052 0A20     		movs	r0, #10
 899 0054 FFF7FEFF 		bl	chThdSleep
 900              		.loc 5 97 0
 901 0058 6B46     		mov	r3, sp
 902 005a 1846     		mov	r0, r3
 903 005c FFF7FEFF 		bl	chVTIsArmed
 904 0060 0346     		mov	r3, r0
 905 0062 002B     		cmp	r3, #0
 906 0064 0CBF     		ite	eq
 907 0066 0023     		moveq	r3, #0
 908 0068 0123     		movne	r3, #1
 909 006a DBB2     		uxtb	r3, r3
 910 006c 83F00103 		eor	r3, r3, #1
 911 0070 DBB2     		uxtb	r3, r3
 912 0072 03F00103 		and	r3, r3, #1
 913 0076 DBB2     		uxtb	r3, r3
 914 0078 0120     		movs	r0, #1
 915 007a 1946     		mov	r1, r3
 916 007c FFF7FEFF 		bl	_test_assert
 917 0080 0346     		mov	r3, r0
 918 0082 002B     		cmp	r3, #0
 919              		.loc 5 98 0
 920 0084 07B0     		add	sp, sp, #28
 921              		@ sp needed
 922 0086 5DF804FB 		ldr	pc, [sp], #4
 923              	.L41:
 924 008a 00BF     		.align	2
 925              	.L40:
 926 008c 00000000 		.word	vtcb
 927              		.cfi_endproc
 928              	.LFE241:
 929              		.size	sys1_execute, .-sys1_execute
 930              		.global	testsys1
 931              		.section	.rodata
 932              		.align	2
 933              	.LC0:
 934 0000 53797374 		.ascii	"System, critical zones\000"
 934      656D2C20 
 934      63726974 
 934      6963616C 
 934      207A6F6E 
 935              		.section	.rodata.testsys1,"a",%progbits
 936              		.align	2
 937              		.type	testsys1, %object
 938              		.size	testsys1, 16
 939              	testsys1:
 940 0000 00000000 		.word	.LC0
 941 0004 00000000 		.word	0
 942 0008 00000000 		.word	0
ARM GAS  /tmp/cce17jkg.s 			page 18


 943 000c 00000000 		.word	sys1_execute
 944              		.section	.text.sys2_execute,"ax",%progbits
 945              		.align	2
 946              		.p2align 4,,15
 947              		.thumb
 948              		.thumb_func
 949              		.type	sys2_execute, %function
 950              	sys2_execute:
 951              	.LFB242:
 952              		.loc 5 114 0
 953              		.cfi_startproc
 954              		@ args = 0, pretend = 0, frame = 0
 955              		@ frame_needed = 0, uses_anonymous_args = 0
 956 0000 08B5     		push	{r3, lr}
 957              		.cfi_def_cfa_offset 8
 958              		.cfi_offset 3, -8
 959              		.cfi_offset 14, -4
 960              		.loc 5 116 0
 961 0002 FFF7FEFF 		bl	chSysSuspend
 962              		.loc 5 117 0
 963 0006 FFF7FEFF 		bl	chSysDisable
 964              		.loc 5 118 0
 965 000a FFF7FEFF 		bl	chSysSuspend
 966              		.loc 5 119 0
 967 000e FFF7FEFF 		bl	chSysEnable
 968              		.loc 5 120 0
 969 0012 08BD     		pop	{r3, pc}
 970              		.cfi_endproc
 971              	.LFE242:
 972              		.size	sys2_execute, .-sys2_execute
 973              		.global	testsys2
 974 0014 AFF30080 		.section	.rodata
 974      AFF30080 
 974      AFF30080 
 975 0017 00       		.align	2
 976              	.LC1:
 977 0018 53797374 		.ascii	"System, interrupts handling\000"
 977      656D2C20 
 977      696E7465 
 977      72727570 
 977      74732068 
 978              		.section	.rodata.testsys2,"a",%progbits
 979              		.align	2
 980              		.type	testsys2, %object
 981              		.size	testsys2, 16
 982              	testsys2:
 983 0000 18000000 		.word	.LC1
 984 0004 00000000 		.word	0
 985 0008 00000000 		.word	0
 986 000c 00000000 		.word	sys2_execute
 987              		.section	.text.sys3_execute,"ax",%progbits
 988              		.align	2
 989              		.p2align 4,,15
 990              		.thumb
 991              		.thumb_func
 992              		.type	sys3_execute, %function
 993              	sys3_execute:
ARM GAS  /tmp/cce17jkg.s 			page 19


 994              	.LFB243:
 995              		.loc 5 137 0
 996              		.cfi_startproc
 997              		@ args = 0, pretend = 0, frame = 8
 998              		@ frame_needed = 0, uses_anonymous_args = 0
 999 0000 00B5     		push	{lr}
 1000              		.cfi_def_cfa_offset 4
 1001              		.cfi_offset 14, -4
 1002 0002 83B0     		sub	sp, sp, #12
 1003              		.cfi_def_cfa_offset 16
 1004              		.loc 5 140 0
 1005 0004 FFF7FEFF 		bl	chSysLock
 1006              		.loc 5 141 0
 1007 0008 0120     		movs	r0, #1
 1008 000a FFF7FEFF 		bl	chSysIntegrityCheckI
 1009 000e 0346     		mov	r3, r0
 1010 0010 8DF80730 		strb	r3, [sp, #7]
 1011              		.loc 5 142 0
 1012 0014 FFF7FEFF 		bl	chSysUnlock
 1013              		.loc 5 143 0
 1014 0018 9DF80730 		ldrb	r3, [sp, #7]	@ zero_extendqisi2
 1015 001c 002B     		cmp	r3, #0
 1016 001e 0CBF     		ite	eq
 1017 0020 0023     		moveq	r3, #0
 1018 0022 0123     		movne	r3, #1
 1019 0024 DBB2     		uxtb	r3, r3
 1020 0026 83F00103 		eor	r3, r3, #1
 1021 002a DBB2     		uxtb	r3, r3
 1022 002c 03F00103 		and	r3, r3, #1
 1023 0030 DBB2     		uxtb	r3, r3
 1024 0032 0120     		movs	r0, #1
 1025 0034 1946     		mov	r1, r3
 1026 0036 FFF7FEFF 		bl	_test_assert
 1027 003a 0346     		mov	r3, r0
 1028 003c 002B     		cmp	r3, #0
 1029 003e 00D0     		beq	.L44
 1030              		.loc 5 143 0 is_stmt 0 discriminator 1
 1031 0040 5CE0     		b	.L43
 1032              	.L44:
 1033              		.loc 5 145 0 is_stmt 1
 1034 0042 FFF7FEFF 		bl	chSysLock
 1035              		.loc 5 146 0
 1036 0046 0220     		movs	r0, #2
 1037 0048 FFF7FEFF 		bl	chSysIntegrityCheckI
 1038 004c 0346     		mov	r3, r0
 1039 004e 8DF80730 		strb	r3, [sp, #7]
 1040              		.loc 5 147 0
 1041 0052 FFF7FEFF 		bl	chSysUnlock
 1042              		.loc 5 148 0
 1043 0056 9DF80730 		ldrb	r3, [sp, #7]	@ zero_extendqisi2
 1044 005a 002B     		cmp	r3, #0
 1045 005c 0CBF     		ite	eq
 1046 005e 0023     		moveq	r3, #0
 1047 0060 0123     		movne	r3, #1
 1048 0062 DBB2     		uxtb	r3, r3
 1049 0064 83F00103 		eor	r3, r3, #1
 1050 0068 DBB2     		uxtb	r3, r3
ARM GAS  /tmp/cce17jkg.s 			page 20


 1051 006a 03F00103 		and	r3, r3, #1
 1052 006e DBB2     		uxtb	r3, r3
 1053 0070 0220     		movs	r0, #2
 1054 0072 1946     		mov	r1, r3
 1055 0074 FFF7FEFF 		bl	_test_assert
 1056 0078 0346     		mov	r3, r0
 1057 007a 002B     		cmp	r3, #0
 1058 007c 00D0     		beq	.L46
 1059              		.loc 5 148 0 is_stmt 0 discriminator 1
 1060 007e 3DE0     		b	.L43
 1061              	.L46:
 1062              		.loc 5 150 0 is_stmt 1
 1063 0080 FFF7FEFF 		bl	chSysLock
 1064              		.loc 5 151 0
 1065 0084 0420     		movs	r0, #4
 1066 0086 FFF7FEFF 		bl	chSysIntegrityCheckI
 1067 008a 0346     		mov	r3, r0
 1068 008c 8DF80730 		strb	r3, [sp, #7]
 1069              		.loc 5 152 0
 1070 0090 FFF7FEFF 		bl	chSysUnlock
 1071              		.loc 5 153 0
 1072 0094 9DF80730 		ldrb	r3, [sp, #7]	@ zero_extendqisi2
 1073 0098 002B     		cmp	r3, #0
 1074 009a 0CBF     		ite	eq
 1075 009c 0023     		moveq	r3, #0
 1076 009e 0123     		movne	r3, #1
 1077 00a0 DBB2     		uxtb	r3, r3
 1078 00a2 83F00103 		eor	r3, r3, #1
 1079 00a6 DBB2     		uxtb	r3, r3
 1080 00a8 03F00103 		and	r3, r3, #1
 1081 00ac DBB2     		uxtb	r3, r3
 1082 00ae 0320     		movs	r0, #3
 1083 00b0 1946     		mov	r1, r3
 1084 00b2 FFF7FEFF 		bl	_test_assert
 1085 00b6 0346     		mov	r3, r0
 1086 00b8 002B     		cmp	r3, #0
 1087 00ba 00D0     		beq	.L47
 1088              		.loc 5 153 0 is_stmt 0 discriminator 1
 1089 00bc 1EE0     		b	.L43
 1090              	.L47:
 1091              		.loc 5 155 0 is_stmt 1
 1092 00be FFF7FEFF 		bl	chSysLock
 1093              		.loc 5 156 0
 1094 00c2 0820     		movs	r0, #8
 1095 00c4 FFF7FEFF 		bl	chSysIntegrityCheckI
 1096 00c8 0346     		mov	r3, r0
 1097 00ca 8DF80730 		strb	r3, [sp, #7]
 1098              		.loc 5 157 0
 1099 00ce FFF7FEFF 		bl	chSysUnlock
 1100              		.loc 5 158 0
 1101 00d2 9DF80730 		ldrb	r3, [sp, #7]	@ zero_extendqisi2
 1102 00d6 002B     		cmp	r3, #0
 1103 00d8 0CBF     		ite	eq
 1104 00da 0023     		moveq	r3, #0
 1105 00dc 0123     		movne	r3, #1
 1106 00de DBB2     		uxtb	r3, r3
 1107 00e0 83F00103 		eor	r3, r3, #1
ARM GAS  /tmp/cce17jkg.s 			page 21


 1108 00e4 DBB2     		uxtb	r3, r3
 1109 00e6 03F00103 		and	r3, r3, #1
 1110 00ea DBB2     		uxtb	r3, r3
 1111 00ec 0420     		movs	r0, #4
 1112 00ee 1946     		mov	r1, r3
 1113 00f0 FFF7FEFF 		bl	_test_assert
 1114 00f4 0346     		mov	r3, r0
 1115 00f6 002B     		cmp	r3, #0
 1116 00f8 00D0     		beq	.L43
 1117              		.loc 5 158 0 is_stmt 0 discriminator 1
 1118 00fa 00BF     		nop
 1119              	.L43:
 1120              		.loc 5 159 0 is_stmt 1
 1121 00fc 03B0     		add	sp, sp, #12
 1122              		@ sp needed
 1123 00fe 5DF804FB 		ldr	pc, [sp], #4
 1124              		.cfi_endproc
 1125              	.LFE243:
 1126              		.size	sys3_execute, .-sys3_execute
 1127              		.global	testsys3
 1128 0102 00BFAFF3 		.section	.rodata
 1128      0080AFF3 
 1128      0080AFF3 
 1128      0080
 1129              		.align	2
 1130              	.LC2:
 1131 0034 53797374 		.ascii	"System, integrity\000"
 1131      656D2C20 
 1131      696E7465 
 1131      67726974 
 1131      7900
 1132 0046 0000     		.section	.rodata.testsys3,"a",%progbits
 1133              		.align	2
 1134              		.type	testsys3, %object
 1135              		.size	testsys3, 16
 1136              	testsys3:
 1137 0000 34000000 		.word	.LC2
 1138 0004 00000000 		.word	0
 1139 0008 00000000 		.word	0
 1140 000c 00000000 		.word	sys3_execute
 1141              		.global	patternsys
 1142              		.section	.rodata.patternsys,"a",%progbits
 1143              		.align	2
 1144              		.type	patternsys, %object
 1145              		.size	patternsys, 16
 1146              	patternsys:
 1147 0000 00000000 		.word	testsys1
 1148 0004 00000000 		.word	testsys2
 1149 0008 00000000 		.word	testsys3
 1150 000c 00000000 		.word	0
 1151              		.section	.rodata.__func__.5925,"a",%progbits
 1152              		.align	2
 1153              		.type	__func__.5925, %object
 1154              		.size	__func__.5925, 12
 1155              	__func__.5925:
 1156 0000 63685379 		.ascii	"chSysUnlock\000"
 1156      73556E6C 
ARM GAS  /tmp/cce17jkg.s 			page 22


 1156      6F636B00 
 1157              		.text
 1158              	.Letext0:
 1159              		.file 6 "/usr/lib/gcc/arm-none-eabi/4.8/include/stddef.h"
 1160              		.file 7 "/usr/include/newlib/machine/_default_types.h"
 1161              		.file 8 "/usr/include/newlib/stdint.h"
 1162              		.file 9 "/home/efe/ChibiOS/os/rt/ports/ARMCMx/compilers/GCC/chtypes.h"
 1163              		.file 10 "/home/efe/ChibiOS/os/rt/include/chsystypes.h"
 1164              		.file 11 "/home/efe/ChibiOS/os/rt/include/chschd.h"
 1165              		.file 12 "/home/efe/ChibiOS/os/rt/ports/ARMCMx/chcore.h"
 1166              		.file 13 "/home/efe/ChibiOS/os/rt/include/chdebug.h"
 1167              		.file 14 "/home/efe/ChibiOS/os/rt/include/chtm.h"
 1168              		.file 15 "/home/efe/ChibiOS/os/rt/include/chstats.h"
 1169              		.file 16 "/home/efe/ChibiOS/os/rt/include/chsem.h"
 1170              		.file 17 "/home/efe/ChibiOS/os/rt/include/chmtx.h"
 1171              		.file 18 "/home/efe/ChibiOS/test/rt/test.h"
 1172              		.file 19 "/home/efe/ChibiOS/os/ext/CMSIS/include/core_cm4.h"
 1173              		.section	.debug_info,"",%progbits
 1174              	.Ldebug_info0:
 1175 0000 290D0000 		.4byte	0xd29
 1176 0004 0400     		.2byte	0x4
 1177 0006 00000000 		.4byte	.Ldebug_abbrev0
 1178 000a 04       		.byte	0x4
 1179 000b 01       		.uleb128 0x1
 1180 000c DB010000 		.4byte	.LASF175
 1181 0010 01       		.byte	0x1
 1182 0011 B9050000 		.4byte	.LASF176
 1183 0015 00000000 		.4byte	.Ldebug_ranges0+0
 1184 0019 00000000 		.4byte	0
 1185 001d 00000000 		.4byte	.Ldebug_line0
 1186 0021 02       		.uleb128 0x2
 1187 0022 04       		.byte	0x4
 1188 0023 05       		.byte	0x5
 1189 0024 696E7400 		.ascii	"int\000"
 1190 0028 03       		.uleb128 0x3
 1191 0029 1D000000 		.4byte	.LASF2
 1192 002d 06       		.byte	0x6
 1193 002e D4       		.byte	0xd4
 1194 002f 33000000 		.4byte	0x33
 1195 0033 04       		.uleb128 0x4
 1196 0034 04       		.byte	0x4
 1197 0035 07       		.byte	0x7
 1198 0036 0C030000 		.4byte	.LASF0
 1199 003a 04       		.uleb128 0x4
 1200 003b 01       		.byte	0x1
 1201 003c 06       		.byte	0x6
 1202 003d 42010000 		.4byte	.LASF1
 1203 0041 03       		.uleb128 0x3
 1204 0042 3F000000 		.4byte	.LASF3
 1205 0046 07       		.byte	0x7
 1206 0047 1D       		.byte	0x1d
 1207 0048 4C000000 		.4byte	0x4c
 1208 004c 04       		.uleb128 0x4
 1209 004d 01       		.byte	0x1
 1210 004e 08       		.byte	0x8
 1211 004f 7E050000 		.4byte	.LASF4
 1212 0053 04       		.uleb128 0x4
ARM GAS  /tmp/cce17jkg.s 			page 23


 1213 0054 02       		.byte	0x2
 1214 0055 05       		.byte	0x5
 1215 0056 9A050000 		.4byte	.LASF5
 1216 005a 04       		.uleb128 0x4
 1217 005b 02       		.byte	0x2
 1218 005c 07       		.byte	0x7
 1219 005d 7C030000 		.4byte	.LASF6
 1220 0061 03       		.uleb128 0x3
 1221 0062 FB030000 		.4byte	.LASF7
 1222 0066 07       		.byte	0x7
 1223 0067 3F       		.byte	0x3f
 1224 0068 6C000000 		.4byte	0x6c
 1225 006c 04       		.uleb128 0x4
 1226 006d 04       		.byte	0x4
 1227 006e 05       		.byte	0x5
 1228 006f 82000000 		.4byte	.LASF8
 1229 0073 03       		.uleb128 0x3
 1230 0074 E1060000 		.4byte	.LASF9
 1231 0078 07       		.byte	0x7
 1232 0079 41       		.byte	0x41
 1233 007a 7E000000 		.4byte	0x7e
 1234 007e 04       		.uleb128 0x4
 1235 007f 04       		.byte	0x4
 1236 0080 07       		.byte	0x7
 1237 0081 82060000 		.4byte	.LASF10
 1238 0085 04       		.uleb128 0x4
 1239 0086 08       		.byte	0x8
 1240 0087 05       		.byte	0x5
 1241 0088 34010000 		.4byte	.LASF11
 1242 008c 03       		.uleb128 0x3
 1243 008d FF040000 		.4byte	.LASF12
 1244 0091 07       		.byte	0x7
 1245 0092 5B       		.byte	0x5b
 1246 0093 97000000 		.4byte	0x97
 1247 0097 04       		.uleb128 0x4
 1248 0098 08       		.byte	0x8
 1249 0099 07       		.byte	0x7
 1250 009a AE000000 		.4byte	.LASF13
 1251 009e 03       		.uleb128 0x3
 1252 009f 8F070000 		.4byte	.LASF14
 1253 00a3 08       		.byte	0x8
 1254 00a4 2A       		.byte	0x2a
 1255 00a5 41000000 		.4byte	0x41
 1256 00a9 03       		.uleb128 0x3
 1257 00aa 76050000 		.4byte	.LASF15
 1258 00ae 08       		.byte	0x8
 1259 00af 41       		.byte	0x41
 1260 00b0 61000000 		.4byte	0x61
 1261 00b4 03       		.uleb128 0x3
 1262 00b5 51060000 		.4byte	.LASF16
 1263 00b9 08       		.byte	0x8
 1264 00ba 42       		.byte	0x42
 1265 00bb 73000000 		.4byte	0x73
 1266 00bf 03       		.uleb128 0x3
 1267 00c0 29000000 		.4byte	.LASF17
 1268 00c4 08       		.byte	0x8
 1269 00c5 4E       		.byte	0x4e
ARM GAS  /tmp/cce17jkg.s 			page 24


 1270 00c6 8C000000 		.4byte	0x8c
 1271 00ca 05       		.uleb128 0x5
 1272 00cb A9000000 		.4byte	0xa9
 1273 00cf 03       		.uleb128 0x3
 1274 00d0 2C070000 		.4byte	.LASF18
 1275 00d4 09       		.byte	0x9
 1276 00d5 45       		.byte	0x45
 1277 00d6 B4000000 		.4byte	0xb4
 1278 00da 03       		.uleb128 0x3
 1279 00db 17010000 		.4byte	.LASF19
 1280 00df 09       		.byte	0x9
 1281 00e0 46       		.byte	0x46
 1282 00e1 BF000000 		.4byte	0xbf
 1283 00e5 03       		.uleb128 0x3
 1284 00e6 9B020000 		.4byte	.LASF20
 1285 00ea 09       		.byte	0x9
 1286 00eb 47       		.byte	0x47
 1287 00ec B4000000 		.4byte	0xb4
 1288 00f0 03       		.uleb128 0x3
 1289 00f1 D5070000 		.4byte	.LASF21
 1290 00f5 09       		.byte	0x9
 1291 00f6 48       		.byte	0x48
 1292 00f7 9E000000 		.4byte	0x9e
 1293 00fb 03       		.uleb128 0x3
 1294 00fc AD010000 		.4byte	.LASF22
 1295 0100 09       		.byte	0x9
 1296 0101 49       		.byte	0x49
 1297 0102 9E000000 		.4byte	0x9e
 1298 0106 03       		.uleb128 0x3
 1299 0107 00000000 		.4byte	.LASF23
 1300 010b 09       		.byte	0x9
 1301 010c 4A       		.byte	0x4a
 1302 010d 9E000000 		.4byte	0x9e
 1303 0111 03       		.uleb128 0x3
 1304 0112 4C050000 		.4byte	.LASF24
 1305 0116 09       		.byte	0x9
 1306 0117 4C       		.byte	0x4c
 1307 0118 B4000000 		.4byte	0xb4
 1308 011c 03       		.uleb128 0x3
 1309 011d A8030000 		.4byte	.LASF25
 1310 0121 09       		.byte	0x9
 1311 0122 4D       		.byte	0x4d
 1312 0123 A9000000 		.4byte	0xa9
 1313 0127 03       		.uleb128 0x3
 1314 0128 E3030000 		.4byte	.LASF26
 1315 012c 09       		.byte	0x9
 1316 012d 4F       		.byte	0x4f
 1317 012e B4000000 		.4byte	0xb4
 1318 0132 03       		.uleb128 0x3
 1319 0133 FB020000 		.4byte	.LASF27
 1320 0137 09       		.byte	0x9
 1321 0138 51       		.byte	0x51
 1322 0139 A9000000 		.4byte	0xa9
 1323 013d 03       		.uleb128 0x3
 1324 013e B3030000 		.4byte	.LASF28
 1325 0142 09       		.byte	0x9
 1326 0143 52       		.byte	0x52
ARM GAS  /tmp/cce17jkg.s 			page 25


 1327 0144 B4000000 		.4byte	0xb4
 1328 0148 03       		.uleb128 0x3
 1329 0149 C3060000 		.4byte	.LASF29
 1330 014d 0A       		.byte	0xa
 1331 014e 33       		.byte	0x33
 1332 014f B4000000 		.4byte	0xb4
 1333 0153 03       		.uleb128 0x3
 1334 0154 AE060000 		.4byte	.LASF30
 1335 0158 0A       		.byte	0xa
 1336 0159 3F       		.byte	0x3f
 1337 015a 5E010000 		.4byte	0x15e
 1338 015e 06       		.uleb128 0x6
 1339 015f 9E030000 		.4byte	.LASF52
 1340 0163 60       		.byte	0x60
 1341 0164 0B       		.byte	0xb
 1342 0165 C2       		.byte	0xc2
 1343 0166 64020000 		.4byte	0x264
 1344 016a 07       		.uleb128 0x7
 1345 016b B2050000 		.4byte	.LASF31
 1346 016f 0B       		.byte	0xb
 1347 0170 C3       		.byte	0xc3
 1348 0171 6F020000 		.4byte	0x26f
 1349 0175 00       		.byte	0
 1350 0176 07       		.uleb128 0x7
 1351 0177 3D050000 		.4byte	.LASF32
 1352 017b 0B       		.byte	0xb
 1353 017c C5       		.byte	0xc5
 1354 017d 6F020000 		.4byte	0x26f
 1355 0181 04       		.byte	0x4
 1356 0182 07       		.uleb128 0x7
 1357 0183 20010000 		.4byte	.LASF33
 1358 0187 0B       		.byte	0xb
 1359 0188 C7       		.byte	0xc7
 1360 0189 11010000 		.4byte	0x111
 1361 018d 08       		.byte	0x8
 1362 018e 07       		.uleb128 0x7
 1363 018f 2D080000 		.4byte	.LASF34
 1364 0193 0B       		.byte	0xb
 1365 0194 C8       		.byte	0xc8
 1366 0195 D8040000 		.4byte	0x4d8
 1367 0199 0C       		.byte	0xc
 1368 019a 07       		.uleb128 0x7
 1369 019b 8B020000 		.4byte	.LASF35
 1370 019f 0B       		.byte	0xb
 1371 01a0 CA       		.byte	0xca
 1372 01a1 6F020000 		.4byte	0x26f
 1373 01a5 10       		.byte	0x10
 1374 01a6 07       		.uleb128 0x7
 1375 01a7 A2040000 		.4byte	.LASF36
 1376 01ab 0B       		.byte	0xb
 1377 01ac CB       		.byte	0xcb
 1378 01ad 6F020000 		.4byte	0x26f
 1379 01b1 14       		.byte	0x14
 1380 01b2 07       		.uleb128 0x7
 1381 01b3 BF070000 		.4byte	.LASF37
 1382 01b7 0B       		.byte	0xb
 1383 01b8 D2       		.byte	0xd2
ARM GAS  /tmp/cce17jkg.s 			page 26


 1384 01b9 7C070000 		.4byte	0x77c
 1385 01bd 18       		.byte	0x18
 1386 01be 07       		.uleb128 0x7
 1387 01bf 01030000 		.4byte	.LASF38
 1388 01c3 0B       		.byte	0xb
 1389 01c4 D8       		.byte	0xd8
 1390 01c5 8E070000 		.4byte	0x78e
 1391 01c9 1C       		.byte	0x1c
 1392 01ca 07       		.uleb128 0x7
 1393 01cb 92050000 		.4byte	.LASF39
 1394 01cf 0B       		.byte	0xb
 1395 01d0 DD       		.byte	0xdd
 1396 01d1 FB000000 		.4byte	0xfb
 1397 01d5 20       		.byte	0x20
 1398 01d6 07       		.uleb128 0x7
 1399 01d7 DD050000 		.4byte	.LASF40
 1400 01db 0B       		.byte	0xb
 1401 01dc E1       		.byte	0xe1
 1402 01dd F0000000 		.4byte	0xf0
 1403 01e1 21       		.byte	0x21
 1404 01e2 07       		.uleb128 0x7
 1405 01e3 6E070000 		.4byte	.LASF41
 1406 01e7 0B       		.byte	0xb
 1407 01e8 E6       		.byte	0xe6
 1408 01e9 06010000 		.4byte	0x106
 1409 01ed 22       		.byte	0x22
 1410 01ee 08       		.uleb128 0x8
 1411 01ef 705F7500 		.ascii	"p_u\000"
 1412 01f3 0B       		.byte	0xb
 1413 01f4 3101     		.2byte	0x131
 1414 01f6 B7060000 		.4byte	0x6b7
 1415 01fa 24       		.byte	0x24
 1416 01fb 09       		.uleb128 0x9
 1417 01fc 1F040000 		.4byte	.LASF42
 1418 0200 0B       		.byte	0xb
 1419 0201 3601     		.2byte	0x136
 1420 0203 75020000 		.4byte	0x275
 1421 0207 28       		.byte	0x28
 1422 0208 09       		.uleb128 0x9
 1423 0209 28030000 		.4byte	.LASF43
 1424 020d 0B       		.byte	0xb
 1425 020e 3C01     		.2byte	0x13c
 1426 0210 99020000 		.4byte	0x299
 1427 0214 2C       		.byte	0x2c
 1428 0215 09       		.uleb128 0x9
 1429 0216 F6070000 		.4byte	.LASF44
 1430 021a 0B       		.byte	0xb
 1431 021b 4001     		.2byte	0x140
 1432 021d 1C010000 		.4byte	0x11c
 1433 0221 34       		.byte	0x34
 1434 0222 09       		.uleb128 0x9
 1435 0223 46060000 		.4byte	.LASF45
 1436 0227 0B       		.byte	0xb
 1437 0228 4601     		.2byte	0x146
 1438 022a 27010000 		.4byte	0x127
 1439 022e 38       		.byte	0x38
 1440 022f 09       		.uleb128 0x9
ARM GAS  /tmp/cce17jkg.s 			page 27


 1441 0230 D9030000 		.4byte	.LASF46
 1442 0234 0B       		.byte	0xb
 1443 0235 4D01     		.2byte	0x14d
 1444 0237 76070000 		.4byte	0x776
 1445 023b 3C       		.byte	0x3c
 1446 023c 09       		.uleb128 0x9
 1447 023d CD060000 		.4byte	.LASF47
 1448 0241 0B       		.byte	0xb
 1449 0242 5101     		.2byte	0x151
 1450 0244 11010000 		.4byte	0x111
 1451 0248 40       		.byte	0x40
 1452 0249 09       		.uleb128 0x9
 1453 024a 4E010000 		.4byte	.LASF48
 1454 024e 0B       		.byte	0xb
 1455 024f 5801     		.2byte	0x158
 1456 0251 4C030000 		.4byte	0x34c
 1457 0255 44       		.byte	0x44
 1458 0256 09       		.uleb128 0x9
 1459 0257 EE050000 		.4byte	.LASF49
 1460 025b 0B       		.byte	0xb
 1461 025c 5E01     		.2byte	0x15e
 1462 025e 68060000 		.4byte	0x668
 1463 0262 48       		.byte	0x48
 1464 0263 00       		.byte	0
 1465 0264 03       		.uleb128 0x3
 1466 0265 32040000 		.4byte	.LASF50
 1467 0269 0A       		.byte	0xa
 1468 026a 44       		.byte	0x44
 1469 026b 6F020000 		.4byte	0x26f
 1470 026f 0A       		.uleb128 0xa
 1471 0270 04       		.byte	0x4
 1472 0271 53010000 		.4byte	0x153
 1473 0275 03       		.uleb128 0x3
 1474 0276 C6070000 		.4byte	.LASF51
 1475 027a 0A       		.byte	0xa
 1476 027b 49       		.byte	0x49
 1477 027c 80020000 		.4byte	0x280
 1478 0280 06       		.uleb128 0x6
 1479 0281 72060000 		.4byte	.LASF53
 1480 0285 04       		.byte	0x4
 1481 0286 0B       		.byte	0xb
 1482 0287 B0       		.byte	0xb0
 1483 0288 99020000 		.4byte	0x299
 1484 028c 07       		.uleb128 0x7
 1485 028d B2050000 		.4byte	.LASF31
 1486 0291 0B       		.byte	0xb
 1487 0292 B1       		.byte	0xb1
 1488 0293 6F020000 		.4byte	0x26f
 1489 0297 00       		.byte	0
 1490 0298 00       		.byte	0
 1491 0299 03       		.uleb128 0x3
 1492 029a 55070000 		.4byte	.LASF54
 1493 029e 0A       		.byte	0xa
 1494 029f 50       		.byte	0x50
 1495 02a0 A4020000 		.4byte	0x2a4
 1496 02a4 06       		.uleb128 0x6
 1497 02a5 55000000 		.4byte	.LASF55
ARM GAS  /tmp/cce17jkg.s 			page 28


 1498 02a9 08       		.byte	0x8
 1499 02aa 0B       		.byte	0xb
 1500 02ab B7       		.byte	0xb7
 1501 02ac C9020000 		.4byte	0x2c9
 1502 02b0 07       		.uleb128 0x7
 1503 02b1 B2050000 		.4byte	.LASF31
 1504 02b5 0B       		.byte	0xb
 1505 02b6 B8       		.byte	0xb8
 1506 02b7 6F020000 		.4byte	0x26f
 1507 02bb 00       		.byte	0
 1508 02bc 07       		.uleb128 0x7
 1509 02bd 3D050000 		.4byte	.LASF32
 1510 02c1 0B       		.byte	0xb
 1511 02c2 B9       		.byte	0xb9
 1512 02c3 6F020000 		.4byte	0x26f
 1513 02c7 04       		.byte	0x4
 1514 02c8 00       		.byte	0
 1515 02c9 03       		.uleb128 0x3
 1516 02ca 08000000 		.4byte	.LASF56
 1517 02ce 0A       		.byte	0xa
 1518 02cf 57       		.byte	0x57
 1519 02d0 D4020000 		.4byte	0x2d4
 1520 02d4 0B       		.uleb128 0xb
 1521 02d5 50030000 		.4byte	.LASF57
 1522 02d9 1C       		.byte	0x1c
 1523 02da 0B       		.byte	0xb
 1524 02db 9001     		.2byte	0x190
 1525 02dd 30030000 		.4byte	0x330
 1526 02e1 09       		.uleb128 0x9
 1527 02e2 61060000 		.4byte	.LASF58
 1528 02e6 0B       		.byte	0xb
 1529 02e7 9101     		.2byte	0x191
 1530 02e9 99020000 		.4byte	0x299
 1531 02ed 00       		.byte	0
 1532 02ee 09       		.uleb128 0x9
 1533 02ef A4050000 		.4byte	.LASF59
 1534 02f3 0B       		.byte	0xb
 1535 02f4 9201     		.2byte	0x192
 1536 02f6 11010000 		.4byte	0x111
 1537 02fa 08       		.byte	0x8
 1538 02fb 09       		.uleb128 0x9
 1539 02fc AA040000 		.4byte	.LASF60
 1540 0300 0B       		.byte	0xb
 1541 0301 9401     		.2byte	0x194
 1542 0303 D8040000 		.4byte	0x4d8
 1543 0307 0C       		.byte	0xc
 1544 0308 09       		.uleb128 0x9
 1545 0309 AC020000 		.4byte	.LASF61
 1546 030d 0B       		.byte	0xb
 1547 030e 9701     		.2byte	0x197
 1548 0310 6F020000 		.4byte	0x26f
 1549 0314 10       		.byte	0x10
 1550 0315 09       		.uleb128 0x9
 1551 0316 F7040000 		.4byte	.LASF62
 1552 031a 0B       		.byte	0xb
 1553 031b 9801     		.2byte	0x198
 1554 031d 6F020000 		.4byte	0x26f
ARM GAS  /tmp/cce17jkg.s 			page 29


 1555 0321 14       		.byte	0x14
 1556 0322 09       		.uleb128 0x9
 1557 0323 ED040000 		.4byte	.LASF63
 1558 0327 0B       		.byte	0xb
 1559 0328 9B01     		.2byte	0x19b
 1560 032a 6F020000 		.4byte	0x26f
 1561 032e 18       		.byte	0x18
 1562 032f 00       		.byte	0
 1563 0330 03       		.uleb128 0x3
 1564 0331 D8060000 		.4byte	.LASF64
 1565 0335 0A       		.byte	0xa
 1566 0336 5C       		.byte	0x5c
 1567 0337 3B030000 		.4byte	0x33b
 1568 033b 0A       		.uleb128 0xa
 1569 033c 04       		.byte	0x4
 1570 033d 41030000 		.4byte	0x341
 1571 0341 0C       		.uleb128 0xc
 1572 0342 4C030000 		.4byte	0x34c
 1573 0346 0D       		.uleb128 0xd
 1574 0347 4C030000 		.4byte	0x34c
 1575 034b 00       		.byte	0
 1576 034c 0E       		.uleb128 0xe
 1577 034d 04       		.byte	0x4
 1578 034e 03       		.uleb128 0x3
 1579 034f 2D050000 		.4byte	.LASF65
 1580 0353 0A       		.byte	0xa
 1581 0354 61       		.byte	0x61
 1582 0355 59030000 		.4byte	0x359
 1583 0359 0B       		.uleb128 0xb
 1584 035a 14060000 		.4byte	.LASF66
 1585 035e 14       		.byte	0x14
 1586 035f 0B       		.byte	0xb
 1587 0360 6B01     		.2byte	0x16b
 1588 0362 A8030000 		.4byte	0x3a8
 1589 0366 09       		.uleb128 0x9
 1590 0367 19030000 		.4byte	.LASF67
 1591 036b 0B       		.byte	0xb
 1592 036c 6C01     		.2byte	0x16c
 1593 036e 94070000 		.4byte	0x794
 1594 0372 00       		.byte	0
 1595 0373 09       		.uleb128 0x9
 1596 0374 BD020000 		.4byte	.LASF68
 1597 0378 0B       		.byte	0xb
 1598 0379 6D01     		.2byte	0x16d
 1599 037b 94070000 		.4byte	0x794
 1600 037f 04       		.byte	0x4
 1601 0380 09       		.uleb128 0x9
 1602 0381 69060000 		.4byte	.LASF69
 1603 0385 0B       		.byte	0xb
 1604 0386 6E01     		.2byte	0x16e
 1605 0388 48010000 		.4byte	0x148
 1606 038c 08       		.byte	0x8
 1607 038d 09       		.uleb128 0x9
 1608 038e 33080000 		.4byte	.LASF70
 1609 0392 0B       		.byte	0xb
 1610 0393 6F01     		.2byte	0x16f
 1611 0395 30030000 		.4byte	0x330
ARM GAS  /tmp/cce17jkg.s 			page 30


 1612 0399 0C       		.byte	0xc
 1613 039a 09       		.uleb128 0x9
 1614 039b 47070000 		.4byte	.LASF71
 1615 039f 0B       		.byte	0xb
 1616 03a0 7101     		.2byte	0x171
 1617 03a2 4C030000 		.4byte	0x34c
 1618 03a6 10       		.byte	0x10
 1619 03a7 00       		.byte	0
 1620 03a8 03       		.uleb128 0x3
 1621 03a9 F4000000 		.4byte	.LASF72
 1622 03ad 0A       		.byte	0xa
 1623 03ae 66       		.byte	0x66
 1624 03af B3030000 		.4byte	0x3b3
 1625 03b3 0B       		.uleb128 0xb
 1626 03b4 45040000 		.4byte	.LASF73
 1627 03b8 10       		.byte	0x10
 1628 03b9 0B       		.byte	0xb
 1629 03ba 7B01     		.2byte	0x17b
 1630 03bc F5030000 		.4byte	0x3f5
 1631 03c0 09       		.uleb128 0x9
 1632 03c1 19030000 		.4byte	.LASF67
 1633 03c5 0B       		.byte	0xb
 1634 03c6 7C01     		.2byte	0x17c
 1635 03c8 94070000 		.4byte	0x794
 1636 03cc 00       		.byte	0
 1637 03cd 09       		.uleb128 0x9
 1638 03ce BD020000 		.4byte	.LASF68
 1639 03d2 0B       		.byte	0xb
 1640 03d3 7E01     		.2byte	0x17e
 1641 03d5 94070000 		.4byte	0x794
 1642 03d9 04       		.byte	0x4
 1643 03da 09       		.uleb128 0x9
 1644 03db 69060000 		.4byte	.LASF69
 1645 03df 0B       		.byte	0xb
 1646 03e0 8001     		.2byte	0x180
 1647 03e2 48010000 		.4byte	0x148
 1648 03e6 08       		.byte	0x8
 1649 03e7 09       		.uleb128 0x9
 1650 03e8 8D040000 		.4byte	.LASF74
 1651 03ec 0B       		.byte	0xb
 1652 03ed 8801     		.2byte	0x188
 1653 03ef 48010000 		.4byte	0x148
 1654 03f3 0C       		.byte	0xc
 1655 03f4 00       		.byte	0
 1656 03f5 03       		.uleb128 0x3
 1657 03f6 66000000 		.4byte	.LASF75
 1658 03fa 0A       		.byte	0xa
 1659 03fb 6B       		.byte	0x6b
 1660 03fc 00040000 		.4byte	0x400
 1661 0400 0F       		.uleb128 0xf
 1662 0401 C5020000 		.4byte	.LASF76
 1663 0405 1404     		.2byte	0x414
 1664 0407 0B       		.byte	0xb
 1665 0408 A201     		.2byte	0x1a2
 1666 040a 43040000 		.4byte	0x443
 1667 040e 09       		.uleb128 0x9
 1668 040f FA060000 		.4byte	.LASF77
ARM GAS  /tmp/cce17jkg.s 			page 31


 1669 0413 0B       		.byte	0xb
 1670 0414 AA01     		.2byte	0x1aa
 1671 0416 9A070000 		.4byte	0x79a
 1672 041a 00       		.byte	0
 1673 041b 09       		.uleb128 0x9
 1674 041c 75070000 		.4byte	.LASF78
 1675 0420 0B       		.byte	0xb
 1676 0421 AF01     		.2byte	0x1af
 1677 0423 32010000 		.4byte	0x132
 1678 0427 04       		.byte	0x4
 1679 0428 09       		.uleb128 0x9
 1680 0429 E3020000 		.4byte	.LASF79
 1681 042d 0B       		.byte	0xb
 1682 042e B301     		.2byte	0x1b3
 1683 0430 32010000 		.4byte	0x132
 1684 0434 08       		.byte	0x8
 1685 0435 09       		.uleb128 0x9
 1686 0436 DD070000 		.4byte	.LASF80
 1687 043a 0B       		.byte	0xb
 1688 043b B901     		.2byte	0x1b9
 1689 043d FA050000 		.4byte	0x5fa
 1690 0441 0C       		.byte	0xc
 1691 0442 00       		.byte	0
 1692 0443 03       		.uleb128 0x3
 1693 0444 13070000 		.4byte	.LASF81
 1694 0448 0A       		.byte	0xa
 1695 0449 70       		.byte	0x70
 1696 044a 4E040000 		.4byte	0x44e
 1697 044e 0F       		.uleb128 0xf
 1698 044f 90010000 		.4byte	.LASF82
 1699 0453 D805     		.2byte	0x5d8
 1700 0455 0B       		.byte	0xb
 1701 0456 C201     		.2byte	0x1c2
 1702 0458 BB040000 		.4byte	0x4bb
 1703 045c 09       		.uleb128 0x9
 1704 045d 7D070000 		.4byte	.LASF83
 1705 0461 0B       		.byte	0xb
 1706 0462 C601     		.2byte	0x1c6
 1707 0464 C9020000 		.4byte	0x2c9
 1708 0468 00       		.byte	0
 1709 0469 09       		.uleb128 0x9
 1710 046a 77010000 		.4byte	.LASF84
 1711 046e 0B       		.byte	0xb
 1712 046f CA01     		.2byte	0x1ca
 1713 0471 A8030000 		.4byte	0x3a8
 1714 0475 1C       		.byte	0x1c
 1715 0476 08       		.uleb128 0x8
 1716 0477 64626700 		.ascii	"dbg\000"
 1717 047b 0B       		.byte	0xb
 1718 047c CE01     		.2byte	0x1ce
 1719 047e F5030000 		.4byte	0x3f5
 1720 0482 2C       		.byte	0x2c
 1721 0483 10       		.uleb128 0x10
 1722 0484 E9000000 		.4byte	.LASF85
 1723 0488 0B       		.byte	0xb
 1724 0489 D201     		.2byte	0x1d2
 1725 048b 53010000 		.4byte	0x153
ARM GAS  /tmp/cce17jkg.s 			page 32


 1726 048f 4004     		.2byte	0x440
 1727 0491 11       		.uleb128 0x11
 1728 0492 746D00   		.ascii	"tm\000"
 1729 0495 0B       		.byte	0xb
 1730 0496 D701     		.2byte	0x1d7
 1731 0498 1A060000 		.4byte	0x61a
 1732 049c A004     		.2byte	0x4a0
 1733 049e 10       		.uleb128 0x10
 1734 049f 32000000 		.4byte	.LASF86
 1735 04a3 0B       		.byte	0xb
 1736 04a4 DD01     		.2byte	0x1dd
 1737 04a6 AC060000 		.4byte	0x6ac
 1738 04aa A804     		.2byte	0x4a8
 1739 04ac 10       		.uleb128 0x10
 1740 04ad EC020000 		.4byte	.LASF87
 1741 04b1 0B       		.byte	0xb
 1742 04b2 E301     		.2byte	0x1e3
 1743 04b4 9F070000 		.4byte	0x79f
 1744 04b8 E004     		.2byte	0x4e0
 1745 04ba 00       		.byte	0
 1746 04bb 04       		.uleb128 0x4
 1747 04bc 04       		.byte	0x4
 1748 04bd 07       		.byte	0x7
 1749 04be 29040000 		.4byte	.LASF88
 1750 04c2 03       		.uleb128 0x3
 1751 04c3 B4020000 		.4byte	.LASF89
 1752 04c7 0C       		.byte	0xc
 1753 04c8 65       		.byte	0x65
 1754 04c9 4C030000 		.4byte	0x34c
 1755 04cd 03       		.uleb128 0x3
 1756 04ce 14040000 		.4byte	.LASF90
 1757 04d2 0C       		.byte	0xc
 1758 04d3 6D       		.byte	0x6d
 1759 04d4 BF000000 		.4byte	0xbf
 1760 04d8 06       		.uleb128 0x6
 1761 04d9 0B070000 		.4byte	.LASF91
 1762 04dd 04       		.byte	0x4
 1763 04de 0C       		.byte	0xc
 1764 04df 89       		.byte	0x89
 1765 04e0 F1040000 		.4byte	0x4f1
 1766 04e4 12       		.uleb128 0x12
 1767 04e5 72313300 		.ascii	"r13\000"
 1768 04e9 0C       		.byte	0xc
 1769 04ea 8A       		.byte	0x8a
 1770 04eb 6C050000 		.4byte	0x56c
 1771 04ef 00       		.byte	0
 1772 04f0 00       		.byte	0
 1773 04f1 06       		.uleb128 0x6
 1774 04f2 49000000 		.4byte	.LASF92
 1775 04f6 24       		.byte	0x24
 1776 04f7 01       		.byte	0x1
 1777 04f8 FD       		.byte	0xfd
 1778 04f9 6C050000 		.4byte	0x56c
 1779 04fd 08       		.uleb128 0x8
 1780 04fe 723400   		.ascii	"r4\000"
 1781 0501 01       		.byte	0x1
 1782 0502 1001     		.2byte	0x110
ARM GAS  /tmp/cce17jkg.s 			page 33


 1783 0504 C2040000 		.4byte	0x4c2
 1784 0508 00       		.byte	0
 1785 0509 08       		.uleb128 0x8
 1786 050a 723500   		.ascii	"r5\000"
 1787 050d 01       		.byte	0x1
 1788 050e 1101     		.2byte	0x111
 1789 0510 C2040000 		.4byte	0x4c2
 1790 0514 04       		.byte	0x4
 1791 0515 08       		.uleb128 0x8
 1792 0516 723600   		.ascii	"r6\000"
 1793 0519 01       		.byte	0x1
 1794 051a 1201     		.2byte	0x112
 1795 051c C2040000 		.4byte	0x4c2
 1796 0520 08       		.byte	0x8
 1797 0521 08       		.uleb128 0x8
 1798 0522 723700   		.ascii	"r7\000"
 1799 0525 01       		.byte	0x1
 1800 0526 1301     		.2byte	0x113
 1801 0528 C2040000 		.4byte	0x4c2
 1802 052c 0C       		.byte	0xc
 1803 052d 08       		.uleb128 0x8
 1804 052e 723800   		.ascii	"r8\000"
 1805 0531 01       		.byte	0x1
 1806 0532 1401     		.2byte	0x114
 1807 0534 C2040000 		.4byte	0x4c2
 1808 0538 10       		.byte	0x10
 1809 0539 08       		.uleb128 0x8
 1810 053a 723900   		.ascii	"r9\000"
 1811 053d 01       		.byte	0x1
 1812 053e 1501     		.2byte	0x115
 1813 0540 C2040000 		.4byte	0x4c2
 1814 0544 14       		.byte	0x14
 1815 0545 08       		.uleb128 0x8
 1816 0546 72313000 		.ascii	"r10\000"
 1817 054a 01       		.byte	0x1
 1818 054b 1601     		.2byte	0x116
 1819 054d C2040000 		.4byte	0x4c2
 1820 0551 18       		.byte	0x18
 1821 0552 08       		.uleb128 0x8
 1822 0553 72313100 		.ascii	"r11\000"
 1823 0557 01       		.byte	0x1
 1824 0558 1701     		.2byte	0x117
 1825 055a C2040000 		.4byte	0x4c2
 1826 055e 1C       		.byte	0x1c
 1827 055f 08       		.uleb128 0x8
 1828 0560 6C7200   		.ascii	"lr\000"
 1829 0563 01       		.byte	0x1
 1830 0564 1801     		.2byte	0x118
 1831 0566 C2040000 		.4byte	0x4c2
 1832 056a 20       		.byte	0x20
 1833 056b 00       		.byte	0
 1834 056c 0A       		.uleb128 0xa
 1835 056d 04       		.byte	0x4
 1836 056e F1040000 		.4byte	0x4f1
 1837 0572 13       		.uleb128 0x13
 1838 0573 10       		.byte	0x10
 1839 0574 0D       		.byte	0xd
ARM GAS  /tmp/cce17jkg.s 			page 34


 1840 0575 51       		.byte	0x51
 1841 0576 AB050000 		.4byte	0x5ab
 1842 057a 07       		.uleb128 0x7
 1843 057b 15000000 		.4byte	.LASF93
 1844 057f 0D       		.byte	0xd
 1845 0580 55       		.byte	0x55
 1846 0581 48010000 		.4byte	0x148
 1847 0585 00       		.byte	0
 1848 0586 07       		.uleb128 0x7
 1849 0587 9A010000 		.4byte	.LASF94
 1850 058b 0D       		.byte	0xd
 1851 058c 59       		.byte	0x59
 1852 058d 6F020000 		.4byte	0x26f
 1853 0591 04       		.byte	0x4
 1854 0592 07       		.uleb128 0x7
 1855 0593 23080000 		.4byte	.LASF95
 1856 0597 0D       		.byte	0xd
 1857 0598 5D       		.byte	0x5d
 1858 0599 4C030000 		.4byte	0x34c
 1859 059d 08       		.byte	0x8
 1860 059e 07       		.uleb128 0x7
 1861 059f D7000000 		.4byte	.LASF96
 1862 05a3 0D       		.byte	0xd
 1863 05a4 61       		.byte	0x61
 1864 05a5 9E000000 		.4byte	0x9e
 1865 05a9 0C       		.byte	0xc
 1866 05aa 00       		.byte	0
 1867 05ab 03       		.uleb128 0x3
 1868 05ac 7E040000 		.4byte	.LASF97
 1869 05b0 0D       		.byte	0xd
 1870 05b1 62       		.byte	0x62
 1871 05b2 72050000 		.4byte	0x572
 1872 05b6 14       		.uleb128 0x14
 1873 05b7 0804     		.2byte	0x408
 1874 05b9 0D       		.byte	0xd
 1875 05ba 67       		.byte	0x67
 1876 05bb E4050000 		.4byte	0x5e4
 1877 05bf 07       		.uleb128 0x7
 1878 05c0 A4020000 		.4byte	.LASF98
 1879 05c4 0D       		.byte	0xd
 1880 05c5 6B       		.byte	0x6b
 1881 05c6 33000000 		.4byte	0x33
 1882 05ca 00       		.byte	0
 1883 05cb 07       		.uleb128 0x7
 1884 05cc 77040000 		.4byte	.LASF99
 1885 05d0 0D       		.byte	0xd
 1886 05d1 6F       		.byte	0x6f
 1887 05d2 E4050000 		.4byte	0x5e4
 1888 05d6 04       		.byte	0x4
 1889 05d7 07       		.uleb128 0x7
 1890 05d8 23050000 		.4byte	.LASF100
 1891 05dc 0D       		.byte	0xd
 1892 05dd 73       		.byte	0x73
 1893 05de EA050000 		.4byte	0x5ea
 1894 05e2 08       		.byte	0x8
 1895 05e3 00       		.byte	0
 1896 05e4 0A       		.uleb128 0xa
ARM GAS  /tmp/cce17jkg.s 			page 35


 1897 05e5 04       		.byte	0x4
 1898 05e6 AB050000 		.4byte	0x5ab
 1899 05ea 15       		.uleb128 0x15
 1900 05eb AB050000 		.4byte	0x5ab
 1901 05ef FA050000 		.4byte	0x5fa
 1902 05f3 16       		.uleb128 0x16
 1903 05f4 BB040000 		.4byte	0x4bb
 1904 05f8 3F       		.byte	0x3f
 1905 05f9 00       		.byte	0
 1906 05fa 03       		.uleb128 0x3
 1907 05fb C5000000 		.4byte	.LASF101
 1908 05ff 0D       		.byte	0xd
 1909 0600 74       		.byte	0x74
 1910 0601 B6050000 		.4byte	0x5b6
 1911 0605 13       		.uleb128 0x13
 1912 0606 04       		.byte	0x4
 1913 0607 0E       		.byte	0xe
 1914 0608 38       		.byte	0x38
 1915 0609 1A060000 		.4byte	0x61a
 1916 060d 07       		.uleb128 0x7
 1917 060e 04070000 		.4byte	.LASF102
 1918 0612 0E       		.byte	0xe
 1919 0613 3C       		.byte	0x3c
 1920 0614 CF000000 		.4byte	0xcf
 1921 0618 00       		.byte	0
 1922 0619 00       		.byte	0
 1923 061a 03       		.uleb128 0x3
 1924 061b D6040000 		.4byte	.LASF103
 1925 061f 0E       		.byte	0xe
 1926 0620 3D       		.byte	0x3d
 1927 0621 05060000 		.4byte	0x605
 1928 0625 13       		.uleb128 0x13
 1929 0626 18       		.byte	0x18
 1930 0627 0E       		.byte	0xe
 1931 0628 48       		.byte	0x48
 1932 0629 68060000 		.4byte	0x668
 1933 062d 07       		.uleb128 0x7
 1934 062e B7060000 		.4byte	.LASF104
 1935 0632 0E       		.byte	0xe
 1936 0633 49       		.byte	0x49
 1937 0634 CF000000 		.4byte	0xcf
 1938 0638 00       		.byte	0
 1939 0639 07       		.uleb128 0x7
 1940 063a 95000000 		.4byte	.LASF105
 1941 063e 0E       		.byte	0xe
 1942 063f 4A       		.byte	0x4a
 1943 0640 CF000000 		.4byte	0xcf
 1944 0644 04       		.byte	0x4
 1945 0645 07       		.uleb128 0x7
 1946 0646 AE030000 		.4byte	.LASF106
 1947 064a 0E       		.byte	0xe
 1948 064b 4B       		.byte	0x4b
 1949 064c CF000000 		.4byte	0xcf
 1950 0650 08       		.byte	0x8
 1951 0651 12       		.uleb128 0x12
 1952 0652 6E00     		.ascii	"n\000"
 1953 0654 0E       		.byte	0xe
ARM GAS  /tmp/cce17jkg.s 			page 36


 1954 0655 4C       		.byte	0x4c
 1955 0656 3D010000 		.4byte	0x13d
 1956 065a 0C       		.byte	0xc
 1957 065b 07       		.uleb128 0x7
 1958 065c 0A050000 		.4byte	.LASF107
 1959 0660 0E       		.byte	0xe
 1960 0661 4D       		.byte	0x4d
 1961 0662 DA000000 		.4byte	0xda
 1962 0666 10       		.byte	0x10
 1963 0667 00       		.byte	0
 1964 0668 03       		.uleb128 0x3
 1965 0669 9B000000 		.4byte	.LASF108
 1966 066d 0E       		.byte	0xe
 1967 066e 4E       		.byte	0x4e
 1968 066f 25060000 		.4byte	0x625
 1969 0673 13       		.uleb128 0x13
 1970 0674 38       		.byte	0x38
 1971 0675 0F       		.byte	0xf
 1972 0676 38       		.byte	0x38
 1973 0677 AC060000 		.4byte	0x6ac
 1974 067b 07       		.uleb128 0x7
 1975 067c 5E030000 		.4byte	.LASF109
 1976 0680 0F       		.byte	0xf
 1977 0681 39       		.byte	0x39
 1978 0682 3D010000 		.4byte	0x13d
 1979 0686 00       		.byte	0
 1980 0687 07       		.uleb128 0x7
 1981 0688 67050000 		.4byte	.LASF110
 1982 068c 0F       		.byte	0xf
 1983 068d 3A       		.byte	0x3a
 1984 068e 3D010000 		.4byte	0x13d
 1985 0692 04       		.byte	0x4
 1986 0693 07       		.uleb128 0x7
 1987 0694 FC070000 		.4byte	.LASF111
 1988 0698 0F       		.byte	0xf
 1989 0699 3B       		.byte	0x3b
 1990 069a 68060000 		.4byte	0x668
 1991 069e 08       		.byte	0x8
 1992 069f 07       		.uleb128 0x7
 1993 06a0 CE030000 		.4byte	.LASF112
 1994 06a4 0F       		.byte	0xf
 1995 06a5 3D       		.byte	0x3d
 1996 06a6 68060000 		.4byte	0x668
 1997 06aa 20       		.byte	0x20
 1998 06ab 00       		.byte	0
 1999 06ac 03       		.uleb128 0x3
 2000 06ad 8F030000 		.4byte	.LASF113
 2001 06b1 0F       		.byte	0xf
 2002 06b2 3F       		.byte	0x3f
 2003 06b3 73060000 		.4byte	0x673
 2004 06b7 17       		.uleb128 0x17
 2005 06b8 04       		.byte	0x4
 2006 06b9 0B       		.byte	0xb
 2007 06ba FA       		.byte	0xfa
 2008 06bb 14070000 		.4byte	0x714
 2009 06bf 18       		.uleb128 0x18
 2010 06c0 0D060000 		.4byte	.LASF114
ARM GAS  /tmp/cce17jkg.s 			page 37


 2011 06c4 0B       		.byte	0xb
 2012 06c5 0101     		.2byte	0x101
 2013 06c7 1C010000 		.4byte	0x11c
 2014 06cb 18       		.uleb128 0x18
 2015 06cc E0000000 		.4byte	.LASF115
 2016 06d0 0B       		.byte	0xb
 2017 06d1 0801     		.2byte	0x108
 2018 06d3 1C010000 		.4byte	0x11c
 2019 06d7 18       		.uleb128 0x18
 2020 06d8 C7030000 		.4byte	.LASF116
 2021 06dc 0B       		.byte	0xb
 2022 06dd 0F01     		.2byte	0x10f
 2023 06df 4C030000 		.4byte	0x34c
 2024 06e3 18       		.uleb128 0x18
 2025 06e4 8A010000 		.4byte	.LASF117
 2026 06e8 0B       		.byte	0xb
 2027 06e9 1601     		.2byte	0x116
 2028 06eb 14070000 		.4byte	0x714
 2029 06ef 18       		.uleb128 0x18
 2030 06f0 21030000 		.4byte	.LASF118
 2031 06f4 0B       		.byte	0xb
 2032 06f5 1E01     		.2byte	0x11e
 2033 06f7 3F070000 		.4byte	0x73f
 2034 06fb 18       		.uleb128 0x18
 2035 06fc 5A060000 		.4byte	.LASF119
 2036 0700 0B       		.byte	0xb
 2037 0701 2701     		.2byte	0x127
 2038 0703 76070000 		.4byte	0x776
 2039 0707 18       		.uleb128 0x18
 2040 0708 AB050000 		.4byte	.LASF120
 2041 070c 0B       		.byte	0xb
 2042 070d 2F01     		.2byte	0x12f
 2043 070f 27010000 		.4byte	0x127
 2044 0713 00       		.byte	0
 2045 0714 0A       		.uleb128 0xa
 2046 0715 04       		.byte	0x4
 2047 0716 64020000 		.4byte	0x264
 2048 071a 06       		.uleb128 0x6
 2049 071b 39060000 		.4byte	.LASF121
 2050 071f 0C       		.byte	0xc
 2051 0720 10       		.byte	0x10
 2052 0721 34       		.byte	0x34
 2053 0722 3F070000 		.4byte	0x73f
 2054 0726 07       		.uleb128 0x7
 2055 0727 93020000 		.4byte	.LASF122
 2056 072b 10       		.byte	0x10
 2057 072c 35       		.byte	0x35
 2058 072d 99020000 		.4byte	0x299
 2059 0731 00       		.byte	0
 2060 0732 07       		.uleb128 0x7
 2061 0733 71030000 		.4byte	.LASF123
 2062 0737 10       		.byte	0x10
 2063 0738 37       		.byte	0x37
 2064 0739 32010000 		.4byte	0x132
 2065 073d 08       		.byte	0x8
 2066 073e 00       		.byte	0
 2067 073f 0A       		.uleb128 0xa
ARM GAS  /tmp/cce17jkg.s 			page 38


 2068 0740 04       		.byte	0x4
 2069 0741 1A070000 		.4byte	0x71a
 2070 0745 06       		.uleb128 0x6
 2071 0746 65070000 		.4byte	.LASF124
 2072 074a 10       		.byte	0x10
 2073 074b 11       		.byte	0x11
 2074 074c 39       		.byte	0x39
 2075 074d 76070000 		.4byte	0x776
 2076 0751 07       		.uleb128 0x7
 2077 0752 56010000 		.4byte	.LASF125
 2078 0756 11       		.byte	0x11
 2079 0757 3A       		.byte	0x3a
 2080 0758 99020000 		.4byte	0x299
 2081 075c 00       		.byte	0
 2082 075d 07       		.uleb128 0x7
 2083 075e 07080000 		.4byte	.LASF126
 2084 0762 11       		.byte	0x11
 2085 0763 3C       		.byte	0x3c
 2086 0764 6F020000 		.4byte	0x26f
 2087 0768 08       		.byte	0x8
 2088 0769 07       		.uleb128 0x7
 2089 076a BC060000 		.4byte	.LASF127
 2090 076e 11       		.byte	0x11
 2091 076f 3E       		.byte	0x3e
 2092 0770 BA070000 		.4byte	0x7ba
 2093 0774 0C       		.byte	0xc
 2094 0775 00       		.byte	0
 2095 0776 0A       		.uleb128 0xa
 2096 0777 04       		.byte	0x4
 2097 0778 45070000 		.4byte	0x745
 2098 077c 0A       		.uleb128 0xa
 2099 077d 04       		.byte	0x4
 2100 077e 82070000 		.4byte	0x782
 2101 0782 19       		.uleb128 0x19
 2102 0783 87070000 		.4byte	0x787
 2103 0787 04       		.uleb128 0x4
 2104 0788 01       		.byte	0x1
 2105 0789 08       		.byte	0x8
 2106 078a 94060000 		.4byte	.LASF128
 2107 078e 0A       		.uleb128 0xa
 2108 078f 04       		.byte	0x4
 2109 0790 CD040000 		.4byte	0x4cd
 2110 0794 0A       		.uleb128 0xa
 2111 0795 04       		.byte	0x4
 2112 0796 4E030000 		.4byte	0x34e
 2113 079a 05       		.uleb128 0x5
 2114 079b 7C070000 		.4byte	0x77c
 2115 079f 15       		.uleb128 0x15
 2116 07a0 CD040000 		.4byte	0x4cd
 2117 07a4 AF070000 		.4byte	0x7af
 2118 07a8 16       		.uleb128 0x16
 2119 07a9 BB040000 		.4byte	0x4bb
 2120 07ad 1E       		.byte	0x1e
 2121 07ae 00       		.byte	0
 2122 07af 03       		.uleb128 0x3
 2123 07b0 D5020000 		.4byte	.LASF129
 2124 07b4 11       		.byte	0x11
ARM GAS  /tmp/cce17jkg.s 			page 39


 2125 07b5 34       		.byte	0x34
 2126 07b6 45070000 		.4byte	0x745
 2127 07ba 0A       		.uleb128 0xa
 2128 07bb 04       		.byte	0x4
 2129 07bc AF070000 		.4byte	0x7af
 2130 07c0 06       		.uleb128 0x6
 2131 07c1 30060000 		.4byte	.LASF130
 2132 07c5 10       		.byte	0x10
 2133 07c6 12       		.byte	0x12
 2134 07c7 3B       		.byte	0x3b
 2135 07c8 FD070000 		.4byte	0x7fd
 2136 07cc 07       		.uleb128 0x7
 2137 07cd 77030000 		.4byte	.LASF131
 2138 07d1 12       		.byte	0x12
 2139 07d2 3C       		.byte	0x3c
 2140 07d3 7C070000 		.4byte	0x77c
 2141 07d7 00       		.byte	0
 2142 07d8 07       		.uleb128 0x7
 2143 07d9 E7040000 		.4byte	.LASF132
 2144 07dd 12       		.byte	0x12
 2145 07de 3D       		.byte	0x3d
 2146 07df FE070000 		.4byte	0x7fe
 2147 07e3 04       		.byte	0x4
 2148 07e4 07       		.uleb128 0x7
 2149 07e5 47030000 		.4byte	.LASF133
 2150 07e9 12       		.byte	0x12
 2151 07ea 3E       		.byte	0x3e
 2152 07eb FE070000 		.4byte	0x7fe
 2153 07ef 08       		.byte	0x8
 2154 07f0 07       		.uleb128 0x7
 2155 07f1 44050000 		.4byte	.LASF134
 2156 07f5 12       		.byte	0x12
 2157 07f6 3F       		.byte	0x3f
 2158 07f7 FE070000 		.4byte	0x7fe
 2159 07fb 0C       		.byte	0xc
 2160 07fc 00       		.byte	0
 2161 07fd 1A       		.uleb128 0x1a
 2162 07fe 0A       		.uleb128 0xa
 2163 07ff 04       		.byte	0x4
 2164 0800 FD070000 		.4byte	0x7fd
 2165 0804 1B       		.uleb128 0x1b
 2166 0805 B6010000 		.4byte	.LASF177
 2167 0809 02       		.byte	0x2
 2168 080a 1302     		.2byte	0x213
 2169 080c B4000000 		.4byte	0xb4
 2170 0810 03       		.byte	0x3
 2171 0811 22080000 		.4byte	0x822
 2172 0815 1C       		.uleb128 0x1c
 2173 0816 0F080000 		.4byte	.LASF152
 2174 081a 02       		.byte	0x2
 2175 081b 1502     		.2byte	0x215
 2176 081d B4000000 		.4byte	0xb4
 2177 0821 00       		.byte	0
 2178 0822 1D       		.uleb128 0x1d
 2179 0823 EC060000 		.4byte	.LASF178
 2180 0827 02       		.byte	0x2
 2181 0828 2202     		.2byte	0x222
ARM GAS  /tmp/cce17jkg.s 			page 40


 2182 082a 03       		.byte	0x3
 2183 082b 3C080000 		.4byte	0x83c
 2184 082f 1E       		.uleb128 0x1e
 2185 0830 DD020000 		.4byte	.LASF179
 2186 0834 02       		.byte	0x2
 2187 0835 2202     		.2byte	0x222
 2188 0837 B4000000 		.4byte	0xb4
 2189 083b 00       		.byte	0
 2190 083c 1F       		.uleb128 0x1f
 2191 083d 15050000 		.4byte	.LASF135
 2192 0841 02       		.byte	0x2
 2193 0842 5601     		.2byte	0x156
 2194 0844 03       		.byte	0x3
 2195 0845 1F       		.uleb128 0x1f
 2196 0846 75000000 		.4byte	.LASF136
 2197 084a 02       		.byte	0x2
 2198 084b 4B01     		.2byte	0x14b
 2199 084d 03       		.byte	0x3
 2200 084e 20       		.uleb128 0x20
 2201 084f 33030000 		.4byte	.LASF137
 2202 0853 01       		.byte	0x1
 2203 0854 9A01     		.2byte	0x19a
 2204 0856 E5000000 		.4byte	0xe5
 2205 085a 00000000 		.4byte	.LFB124
 2206 085e 14000000 		.4byte	.LFE124-.LFB124
 2207 0862 01       		.uleb128 0x1
 2208 0863 9C       		.byte	0x9c
 2209 0864 9B080000 		.4byte	0x89b
 2210 0868 21       		.uleb128 0x21
 2211 0869 73747300 		.ascii	"sts\000"
 2212 086d 01       		.byte	0x1
 2213 086e 9B01     		.2byte	0x19b
 2214 0870 E5000000 		.4byte	0xe5
 2215 0874 02       		.uleb128 0x2
 2216 0875 91       		.byte	0x91
 2217 0876 7C       		.sleb128 -4
 2218 0877 22       		.uleb128 0x22
 2219 0878 04080000 		.4byte	0x804
 2220 087c 02000000 		.4byte	.LBB18
 2221 0880 08000000 		.4byte	.LBE18-.LBB18
 2222 0884 01       		.byte	0x1
 2223 0885 9E01     		.2byte	0x19e
 2224 0887 23       		.uleb128 0x23
 2225 0888 02000000 		.4byte	.LBB19
 2226 088c 08000000 		.4byte	.LBE19-.LBB19
 2227 0890 24       		.uleb128 0x24
 2228 0891 15080000 		.4byte	0x815
 2229 0895 02       		.uleb128 0x2
 2230 0896 91       		.byte	0x91
 2231 0897 78       		.sleb128 -8
 2232 0898 00       		.byte	0
 2233 0899 00       		.byte	0
 2234 089a 00       		.byte	0
 2235 089b 20       		.uleb128 0x20
 2236 089c B0040000 		.4byte	.LASF138
 2237 08a0 01       		.byte	0x1
 2238 08a1 AE01     		.2byte	0x1ae
ARM GAS  /tmp/cce17jkg.s 			page 41


 2239 08a3 C5080000 		.4byte	0x8c5
 2240 08a7 00000000 		.4byte	.LFB125
 2241 08ab 16000000 		.4byte	.LFE125-.LFB125
 2242 08af 01       		.uleb128 0x1
 2243 08b0 9C       		.byte	0x9c
 2244 08b1 C5080000 		.4byte	0x8c5
 2245 08b5 25       		.uleb128 0x25
 2246 08b6 73747300 		.ascii	"sts\000"
 2247 08ba 01       		.byte	0x1
 2248 08bb AE01     		.2byte	0x1ae
 2249 08bd E5000000 		.4byte	0xe5
 2250 08c1 02       		.uleb128 0x2
 2251 08c2 91       		.byte	0x91
 2252 08c3 7C       		.sleb128 -4
 2253 08c4 00       		.byte	0
 2254 08c5 04       		.uleb128 0x4
 2255 08c6 01       		.byte	0x1
 2256 08c7 02       		.byte	0x2
 2257 08c8 70050000 		.4byte	.LASF139
 2258 08cc 26       		.uleb128 0x26
 2259 08cd 8B000000 		.4byte	.LASF140
 2260 08d1 01       		.byte	0x1
 2261 08d2 C801     		.2byte	0x1c8
 2262 08d4 00000000 		.4byte	.LFB127
 2263 08d8 10000000 		.4byte	.LFE127-.LFB127
 2264 08dc 01       		.uleb128 0x1
 2265 08dd 9C       		.byte	0x9c
 2266 08de FC080000 		.4byte	0x8fc
 2267 08e2 22       		.uleb128 0x22
 2268 08e3 22080000 		.4byte	0x822
 2269 08e7 06000000 		.4byte	.LBB20
 2270 08eb 06000000 		.4byte	.LBE20-.LBB20
 2271 08ef 01       		.byte	0x1
 2272 08f0 CB01     		.2byte	0x1cb
 2273 08f2 27       		.uleb128 0x27
 2274 08f3 2F080000 		.4byte	0x82f
 2275 08f7 02       		.uleb128 0x2
 2276 08f8 91       		.byte	0x91
 2277 08f9 7C       		.sleb128 -4
 2278 08fa 00       		.byte	0
 2279 08fb 00       		.byte	0
 2280 08fc 26       		.uleb128 0x26
 2281 08fd 7E010000 		.4byte	.LASF141
 2282 0901 01       		.byte	0x1
 2283 0902 D601     		.2byte	0x1d6
 2284 0904 00000000 		.4byte	.LFB128
 2285 0908 10000000 		.4byte	.LFE128-.LFB128
 2286 090c 01       		.uleb128 0x1
 2287 090d 9C       		.byte	0x9c
 2288 090e 2C090000 		.4byte	0x92c
 2289 0912 22       		.uleb128 0x22
 2290 0913 22080000 		.4byte	0x822
 2291 0917 06000000 		.4byte	.LBB22
 2292 091b 06000000 		.4byte	.LBE22-.LBB22
 2293 091f 01       		.byte	0x1
 2294 0920 D901     		.2byte	0x1d9
 2295 0922 27       		.uleb128 0x27
ARM GAS  /tmp/cce17jkg.s 			page 42


 2296 0923 2F080000 		.4byte	0x82f
 2297 0927 02       		.uleb128 0x2
 2298 0928 91       		.byte	0x91
 2299 0929 7C       		.sleb128 -4
 2300 092a 00       		.byte	0
 2301 092b 00       		.byte	0
 2302 092c 28       		.uleb128 0x28
 2303 092d 34070000 		.4byte	.LASF142
 2304 0931 01       		.byte	0x1
 2305 0932 E501     		.2byte	0x1e5
 2306 0934 00000000 		.4byte	.LFB129
 2307 0938 08000000 		.4byte	.LFE129-.LFB129
 2308 093c 01       		.uleb128 0x1
 2309 093d 9C       		.byte	0x9c
 2310 093e 28       		.uleb128 0x28
 2311 093f 99060000 		.4byte	.LASF143
 2312 0943 01       		.byte	0x1
 2313 0944 F001     		.2byte	0x1f0
 2314 0946 00000000 		.4byte	.LFB130
 2315 094a 08000000 		.4byte	.LFE130-.LFB130
 2316 094e 01       		.uleb128 0x1
 2317 094f 9C       		.byte	0x9c
 2318 0950 26       		.uleb128 0x26
 2319 0951 A0010000 		.4byte	.LASF144
 2320 0955 01       		.byte	0x1
 2321 0956 FA01     		.2byte	0x1fa
 2322 0958 00000000 		.4byte	.LFB131
 2323 095c 04000000 		.4byte	.LFE131-.LFB131
 2324 0960 01       		.uleb128 0x1
 2325 0961 9C       		.byte	0x9c
 2326 0962 77090000 		.4byte	0x977
 2327 0966 29       		.uleb128 0x29
 2328 0967 3C080000 		.4byte	0x83c
 2329 096b 00000000 		.4byte	.LBB24
 2330 096f 02000000 		.4byte	.LBE24-.LBB24
 2331 0973 01       		.byte	0x1
 2332 0974 FC01     		.2byte	0x1fc
 2333 0976 00       		.byte	0
 2334 0977 26       		.uleb128 0x26
 2335 0978 BA030000 		.4byte	.LASF145
 2336 097c 01       		.byte	0x1
 2337 097d 0402     		.2byte	0x204
 2338 097f 00000000 		.4byte	.LFB132
 2339 0983 12000000 		.4byte	.LFE132-.LFB132
 2340 0987 01       		.uleb128 0x1
 2341 0988 9C       		.byte	0x9c
 2342 0989 BB090000 		.4byte	0x9bb
 2343 098d 2A       		.uleb128 0x2a
 2344 098e 22080000 		.4byte	0x822
 2345 0992 06000000 		.4byte	.LBB26
 2346 0996 06000000 		.4byte	.LBE26-.LBB26
 2347 099a 01       		.byte	0x1
 2348 099b 0702     		.2byte	0x207
 2349 099d AA090000 		.4byte	0x9aa
 2350 09a1 27       		.uleb128 0x27
 2351 09a2 2F080000 		.4byte	0x82f
 2352 09a6 02       		.uleb128 0x2
ARM GAS  /tmp/cce17jkg.s 			page 43


 2353 09a7 91       		.byte	0x91
 2354 09a8 7C       		.sleb128 -4
 2355 09a9 00       		.byte	0
 2356 09aa 29       		.uleb128 0x29
 2357 09ab 45080000 		.4byte	0x845
 2358 09af 0C000000 		.4byte	.LBB28
 2359 09b3 02000000 		.4byte	.LBE28-.LBB28
 2360 09b7 01       		.byte	0x1
 2361 09b8 0802     		.2byte	0x208
 2362 09ba 00       		.byte	0
 2363 09bb 26       		.uleb128 0x26
 2364 09bc EF030000 		.4byte	.LASF146
 2365 09c0 01       		.byte	0x1
 2366 09c1 1202     		.2byte	0x212
 2367 09c3 00000000 		.4byte	.LFB133
 2368 09c7 12000000 		.4byte	.LFE133-.LFB133
 2369 09cb 01       		.uleb128 0x1
 2370 09cc 9C       		.byte	0x9c
 2371 09cd FF090000 		.4byte	0x9ff
 2372 09d1 2A       		.uleb128 0x2a
 2373 09d2 22080000 		.4byte	0x822
 2374 09d6 06000000 		.4byte	.LBB30
 2375 09da 06000000 		.4byte	.LBE30-.LBB30
 2376 09de 01       		.byte	0x1
 2377 09df 1502     		.2byte	0x215
 2378 09e1 EE090000 		.4byte	0x9ee
 2379 09e5 27       		.uleb128 0x27
 2380 09e6 2F080000 		.4byte	0x82f
 2381 09ea 02       		.uleb128 0x2
 2382 09eb 91       		.byte	0x91
 2383 09ec 7C       		.sleb128 -4
 2384 09ed 00       		.byte	0
 2385 09ee 29       		.uleb128 0x29
 2386 09ef 45080000 		.4byte	0x845
 2387 09f3 0C000000 		.4byte	.LBB32
 2388 09f7 02000000 		.4byte	.LBE32-.LBB32
 2389 09fb 01       		.byte	0x1
 2390 09fc 1702     		.2byte	0x217
 2391 09fe 00       		.byte	0
 2392 09ff 28       		.uleb128 0x28
 2393 0a00 64030000 		.4byte	.LASF147
 2394 0a04 03       		.byte	0x3
 2395 0a05 2F01     		.2byte	0x12f
 2396 0a07 00000000 		.4byte	.LFB164
 2397 0a0b 0C000000 		.4byte	.LFE164-.LFB164
 2398 0a0f 01       		.uleb128 0x1
 2399 0a10 9C       		.byte	0x9c
 2400 0a11 28       		.uleb128 0x28
 2401 0a12 C9040000 		.4byte	.LASF148
 2402 0a16 03       		.byte	0x3
 2403 0a17 4001     		.2byte	0x140
 2404 0a19 00000000 		.4byte	.LFB165
 2405 0a1d 0C000000 		.4byte	.LFE165-.LFB165
 2406 0a21 01       		.uleb128 0x1
 2407 0a22 9C       		.byte	0x9c
 2408 0a23 28       		.uleb128 0x28
 2409 0a24 C4010000 		.4byte	.LASF149
ARM GAS  /tmp/cce17jkg.s 			page 44


 2410 0a28 03       		.byte	0x3
 2411 0a29 4F01     		.2byte	0x14f
 2412 0a2b 00000000 		.4byte	.LFB166
 2413 0a2f 0C000000 		.4byte	.LFE166-.LFB166
 2414 0a33 01       		.uleb128 0x1
 2415 0a34 9C       		.byte	0x9c
 2416 0a35 28       		.uleb128 0x28
 2417 0a36 F6050000 		.4byte	.LASF150
 2418 0a3a 03       		.byte	0x3
 2419 0a3b 5A01     		.2byte	0x15a
 2420 0a3d 00000000 		.4byte	.LFB167
 2421 0a41 10000000 		.4byte	.LFE167-.LFB167
 2422 0a45 01       		.uleb128 0x1
 2423 0a46 9C       		.byte	0x9c
 2424 0a47 2B       		.uleb128 0x2b
 2425 0a48 EA070000 		.4byte	.LASF151
 2426 0a4c 03       		.byte	0x3
 2427 0a4d 6601     		.2byte	0x166
 2428 0a4f 00000000 		.4byte	.LFB168
 2429 0a53 38000000 		.4byte	.LFE168-.LFB168
 2430 0a57 01       		.uleb128 0x1
 2431 0a58 9C       		.byte	0x9c
 2432 0a59 6D0A0000 		.4byte	0xa6d
 2433 0a5d 2C       		.uleb128 0x2c
 2434 0a5e E5050000 		.4byte	.LASF153
 2435 0a62 7D0A0000 		.4byte	0xa7d
 2436 0a66 05       		.uleb128 0x5
 2437 0a67 03       		.byte	0x3
 2438 0a68 00000000 		.4byte	__func__.5925
 2439 0a6c 00       		.byte	0
 2440 0a6d 15       		.uleb128 0x15
 2441 0a6e 87070000 		.4byte	0x787
 2442 0a72 7D0A0000 		.4byte	0xa7d
 2443 0a76 16       		.uleb128 0x16
 2444 0a77 BB040000 		.4byte	0x4bb
 2445 0a7b 0B       		.byte	0xb
 2446 0a7c 00       		.byte	0
 2447 0a7d 19       		.uleb128 0x19
 2448 0a7e 6D0A0000 		.4byte	0xa6d
 2449 0a82 28       		.uleb128 0x28
 2450 0a83 AE070000 		.4byte	.LASF154
 2451 0a87 03       		.byte	0x3
 2452 0a88 8201     		.2byte	0x182
 2453 0a8a 00000000 		.4byte	.LFB169
 2454 0a8e 10000000 		.4byte	.LFE169-.LFB169
 2455 0a92 01       		.uleb128 0x1
 2456 0a93 9C       		.byte	0x9c
 2457 0a94 28       		.uleb128 0x28
 2458 0a95 54050000 		.4byte	.LASF155
 2459 0a99 03       		.byte	0x3
 2460 0a9a 9601     		.2byte	0x196
 2461 0a9c 00000000 		.4byte	.LFB170
 2462 0aa0 10000000 		.4byte	.LFE170-.LFB170
 2463 0aa4 01       		.uleb128 0x1
 2464 0aa5 9C       		.byte	0x9c
 2465 0aa6 28       		.uleb128 0x28
 2466 0aa7 97070000 		.4byte	.LASF156
ARM GAS  /tmp/cce17jkg.s 			page 45


 2467 0aab 03       		.byte	0x3
 2468 0aac A401     		.2byte	0x1a4
 2469 0aae 00000000 		.4byte	.LFB171
 2470 0ab2 1A000000 		.4byte	.LFE171-.LFB171
 2471 0ab6 01       		.uleb128 0x1
 2472 0ab7 9C       		.byte	0x9c
 2473 0ab8 28       		.uleb128 0x28
 2474 0ab9 5E010000 		.4byte	.LASF157
 2475 0abd 03       		.byte	0x3
 2476 0abe B201     		.2byte	0x1b2
 2477 0ac0 00000000 		.4byte	.LFB172
 2478 0ac4 20000000 		.4byte	.LFE172-.LFB172
 2479 0ac8 01       		.uleb128 0x1
 2480 0ac9 9C       		.byte	0x9c
 2481 0aca 2D       		.uleb128 0x2d
 2482 0acb 05040000 		.4byte	.LASF158
 2483 0acf 04       		.byte	0x4
 2484 0ad0 D2       		.byte	0xd2
 2485 0ad1 00000000 		.4byte	.LFB174
 2486 0ad5 0E000000 		.4byte	.LFE174-.LFB174
 2487 0ad9 01       		.uleb128 0x1
 2488 0ada 9C       		.byte	0x9c
 2489 0adb EE0A0000 		.4byte	0xaee
 2490 0adf 2E       		.uleb128 0x2e
 2491 0ae0 76747000 		.ascii	"vtp\000"
 2492 0ae4 04       		.byte	0x4
 2493 0ae5 D2       		.byte	0xd2
 2494 0ae6 94070000 		.4byte	0x794
 2495 0aea 02       		.uleb128 0x2
 2496 0aeb 91       		.byte	0x91
 2497 0aec 7C       		.sleb128 -4
 2498 0aed 00       		.byte	0
 2499 0aee 2F       		.uleb128 0x2f
 2500 0aef 00060000 		.4byte	.LASF159
 2501 0af3 04       		.byte	0x4
 2502 0af4 5101     		.2byte	0x151
 2503 0af6 C5080000 		.4byte	0x8c5
 2504 0afa 00000000 		.4byte	.LFB181
 2505 0afe 20000000 		.4byte	.LFE181-.LFB181
 2506 0b02 01       		.uleb128 0x1
 2507 0b03 9C       		.byte	0x9c
 2508 0b04 180B0000 		.4byte	0xb18
 2509 0b08 25       		.uleb128 0x25
 2510 0b09 76747000 		.ascii	"vtp\000"
 2511 0b0d 04       		.byte	0x4
 2512 0b0e 5101     		.2byte	0x151
 2513 0b10 94070000 		.4byte	0x794
 2514 0b14 02       		.uleb128 0x2
 2515 0b15 91       		.byte	0x91
 2516 0b16 74       		.sleb128 -12
 2517 0b17 00       		.byte	0
 2518 0b18 2F       		.uleb128 0x2f
 2519 0b19 83070000 		.4byte	.LASF160
 2520 0b1d 04       		.byte	0x4
 2521 0b1e 6201     		.2byte	0x162
 2522 0b20 C5080000 		.4byte	0x8c5
 2523 0b24 00000000 		.4byte	.LFB182
ARM GAS  /tmp/cce17jkg.s 			page 46


 2524 0b28 26000000 		.4byte	.LFE182-.LFB182
 2525 0b2c 01       		.uleb128 0x1
 2526 0b2d 9C       		.byte	0x9c
 2527 0b2e 4F0B0000 		.4byte	0xb4f
 2528 0b32 25       		.uleb128 0x25
 2529 0b33 76747000 		.ascii	"vtp\000"
 2530 0b37 04       		.byte	0x4
 2531 0b38 6201     		.2byte	0x162
 2532 0b3a 94070000 		.4byte	0x794
 2533 0b3e 02       		.uleb128 0x2
 2534 0b3f 91       		.byte	0x91
 2535 0b40 6C       		.sleb128 -20
 2536 0b41 21       		.uleb128 0x21
 2537 0b42 6200     		.ascii	"b\000"
 2538 0b44 04       		.byte	0x4
 2539 0b45 6301     		.2byte	0x163
 2540 0b47 C5080000 		.4byte	0x8c5
 2541 0b4b 02       		.uleb128 0x2
 2542 0b4c 91       		.byte	0x91
 2543 0b4d 77       		.sleb128 -9
 2544 0b4e 00       		.byte	0
 2545 0b4f 2B       		.uleb128 0x2b
 2546 0b50 25060000 		.4byte	.LASF161
 2547 0b54 04       		.byte	0x4
 2548 0b55 7601     		.2byte	0x176
 2549 0b57 00000000 		.4byte	.LFB183
 2550 0b5b 1E000000 		.4byte	.LFE183-.LFB183
 2551 0b5f 01       		.uleb128 0x1
 2552 0b60 9C       		.byte	0x9c
 2553 0b61 750B0000 		.4byte	0xb75
 2554 0b65 25       		.uleb128 0x25
 2555 0b66 76747000 		.ascii	"vtp\000"
 2556 0b6a 04       		.byte	0x4
 2557 0b6b 7601     		.2byte	0x176
 2558 0b6d 94070000 		.4byte	0x794
 2559 0b71 02       		.uleb128 0x2
 2560 0b72 91       		.byte	0x91
 2561 0b73 74       		.sleb128 -12
 2562 0b74 00       		.byte	0
 2563 0b75 2B       		.uleb128 0x2b
 2564 0b76 99040000 		.4byte	.LASF162
 2565 0b7a 04       		.byte	0x4
 2566 0b7b A401     		.2byte	0x1a4
 2567 0b7d 00000000 		.4byte	.LFB185
 2568 0b81 24000000 		.4byte	.LFE185-.LFB185
 2569 0b85 01       		.uleb128 0x1
 2570 0b86 9C       		.byte	0x9c
 2571 0b87 C80B0000 		.4byte	0xbc8
 2572 0b8b 25       		.uleb128 0x25
 2573 0b8c 76747000 		.ascii	"vtp\000"
 2574 0b90 04       		.byte	0x4
 2575 0b91 A401     		.2byte	0x1a4
 2576 0b93 94070000 		.4byte	0x794
 2577 0b97 02       		.uleb128 0x2
 2578 0b98 91       		.byte	0x91
 2579 0b99 74       		.sleb128 -12
 2580 0b9a 30       		.uleb128 0x30
ARM GAS  /tmp/cce17jkg.s 			page 47


 2581 0b9b 8C050000 		.4byte	.LASF163
 2582 0b9f 04       		.byte	0x4
 2583 0ba0 A401     		.2byte	0x1a4
 2584 0ba2 48010000 		.4byte	0x148
 2585 0ba6 02       		.uleb128 0x2
 2586 0ba7 91       		.byte	0x91
 2587 0ba8 70       		.sleb128 -16
 2588 0ba9 30       		.uleb128 0x30
 2589 0baa 4E070000 		.4byte	.LASF164
 2590 0bae 04       		.byte	0x4
 2591 0baf A501     		.2byte	0x1a5
 2592 0bb1 30030000 		.4byte	0x330
 2593 0bb5 02       		.uleb128 0x2
 2594 0bb6 91       		.byte	0x91
 2595 0bb7 6C       		.sleb128 -20
 2596 0bb8 25       		.uleb128 0x25
 2597 0bb9 70617200 		.ascii	"par\000"
 2598 0bbd 04       		.byte	0x4
 2599 0bbe A501     		.2byte	0x1a5
 2600 0bc0 4C030000 		.4byte	0x34c
 2601 0bc4 02       		.uleb128 0x2
 2602 0bc5 91       		.byte	0x91
 2603 0bc6 68       		.sleb128 -24
 2604 0bc7 00       		.byte	0
 2605 0bc8 2B       		.uleb128 0x2b
 2606 0bc9 C1040000 		.4byte	.LASF165
 2607 0bcd 04       		.byte	0x4
 2608 0bce C101     		.2byte	0x1c1
 2609 0bd0 00000000 		.4byte	.LFB186
 2610 0bd4 26000000 		.4byte	.LFE186-.LFB186
 2611 0bd8 01       		.uleb128 0x1
 2612 0bd9 9C       		.byte	0x9c
 2613 0bda 1B0C0000 		.4byte	0xc1b
 2614 0bde 25       		.uleb128 0x25
 2615 0bdf 76747000 		.ascii	"vtp\000"
 2616 0be3 04       		.byte	0x4
 2617 0be4 C101     		.2byte	0x1c1
 2618 0be6 94070000 		.4byte	0x794
 2619 0bea 02       		.uleb128 0x2
 2620 0beb 91       		.byte	0x91
 2621 0bec 74       		.sleb128 -12
 2622 0bed 30       		.uleb128 0x30
 2623 0bee 8C050000 		.4byte	.LASF163
 2624 0bf2 04       		.byte	0x4
 2625 0bf3 C101     		.2byte	0x1c1
 2626 0bf5 48010000 		.4byte	0x148
 2627 0bf9 02       		.uleb128 0x2
 2628 0bfa 91       		.byte	0x91
 2629 0bfb 70       		.sleb128 -16
 2630 0bfc 30       		.uleb128 0x30
 2631 0bfd 4E070000 		.4byte	.LASF164
 2632 0c01 04       		.byte	0x4
 2633 0c02 C201     		.2byte	0x1c2
 2634 0c04 30030000 		.4byte	0x330
 2635 0c08 02       		.uleb128 0x2
 2636 0c09 91       		.byte	0x91
 2637 0c0a 6C       		.sleb128 -20
ARM GAS  /tmp/cce17jkg.s 			page 48


 2638 0c0b 25       		.uleb128 0x25
 2639 0c0c 70617200 		.ascii	"par\000"
 2640 0c10 04       		.byte	0x4
 2641 0c11 C201     		.2byte	0x1c2
 2642 0c13 4C030000 		.4byte	0x34c
 2643 0c17 02       		.uleb128 0x2
 2644 0c18 91       		.byte	0x91
 2645 0c19 68       		.sleb128 -24
 2646 0c1a 00       		.byte	0
 2647 0c1b 31       		.uleb128 0x31
 2648 0c1c 24000000 		.4byte	.LASF166
 2649 0c20 05       		.byte	0x5
 2650 0c21 34       		.byte	0x34
 2651 0c22 00000000 		.4byte	.LFB240
 2652 0c26 28000000 		.4byte	.LFE240-.LFB240
 2653 0c2a 01       		.uleb128 0x1
 2654 0c2b 9C       		.byte	0x9c
 2655 0c2c 4B0C0000 		.4byte	0xc4b
 2656 0c30 2E       		.uleb128 0x2e
 2657 0c31 7000     		.ascii	"p\000"
 2658 0c33 05       		.byte	0x5
 2659 0c34 34       		.byte	0x34
 2660 0c35 4C030000 		.4byte	0x34c
 2661 0c39 02       		.uleb128 0x2
 2662 0c3a 91       		.byte	0x91
 2663 0c3b 6C       		.sleb128 -20
 2664 0c3c 32       		.uleb128 0x32
 2665 0c3d 73747300 		.ascii	"sts\000"
 2666 0c41 05       		.byte	0x5
 2667 0c42 35       		.byte	0x35
 2668 0c43 E5000000 		.4byte	0xe5
 2669 0c47 02       		.uleb128 0x2
 2670 0c48 91       		.byte	0x91
 2671 0c49 74       		.sleb128 -12
 2672 0c4a 00       		.byte	0
 2673 0c4b 31       		.uleb128 0x31
 2674 0c4c 1F070000 		.4byte	.LASF167
 2675 0c50 05       		.byte	0x5
 2676 0c51 44       		.byte	0x44
 2677 0c52 00000000 		.4byte	.LFB241
 2678 0c56 90000000 		.4byte	.LFE241-.LFB241
 2679 0c5a 01       		.uleb128 0x1
 2680 0c5b 9C       		.byte	0x9c
 2681 0c5c 7C0C0000 		.4byte	0xc7c
 2682 0c60 32       		.uleb128 0x32
 2683 0c61 73747300 		.ascii	"sts\000"
 2684 0c65 05       		.byte	0x5
 2685 0c66 45       		.byte	0x45
 2686 0c67 E5000000 		.4byte	0xe5
 2687 0c6b 02       		.uleb128 0x2
 2688 0c6c 91       		.byte	0x91
 2689 0c6d 74       		.sleb128 -12
 2690 0c6e 32       		.uleb128 0x32
 2691 0c6f 767400   		.ascii	"vt\000"
 2692 0c72 05       		.byte	0x5
 2693 0c73 46       		.byte	0x46
 2694 0c74 4E030000 		.4byte	0x34e
ARM GAS  /tmp/cce17jkg.s 			page 49


 2695 0c78 02       		.uleb128 0x2
 2696 0c79 91       		.byte	0x91
 2697 0c7a 60       		.sleb128 -32
 2698 0c7b 00       		.byte	0
 2699 0c7c 33       		.uleb128 0x33
 2700 0c7d 16080000 		.4byte	.LASF168
 2701 0c81 05       		.byte	0x5
 2702 0c82 72       		.byte	0x72
 2703 0c83 00000000 		.4byte	.LFB242
 2704 0c87 14000000 		.4byte	.LFE242-.LFB242
 2705 0c8b 01       		.uleb128 0x1
 2706 0c8c 9C       		.byte	0x9c
 2707 0c8d 31       		.uleb128 0x31
 2708 0c8e 27010000 		.4byte	.LASF169
 2709 0c92 05       		.byte	0x5
 2710 0c93 89       		.byte	0x89
 2711 0c94 00000000 		.4byte	.LFB243
 2712 0c98 02010000 		.4byte	.LFE243-.LFB243
 2713 0c9c 01       		.uleb128 0x1
 2714 0c9d 9C       		.byte	0x9c
 2715 0c9e B10C0000 		.4byte	0xcb1
 2716 0ca2 34       		.uleb128 0x34
 2717 0ca3 0F080000 		.4byte	.LASF152
 2718 0ca7 05       		.byte	0x5
 2719 0ca8 8A       		.byte	0x8a
 2720 0ca9 C5080000 		.4byte	0x8c5
 2721 0cad 02       		.uleb128 0x2
 2722 0cae 91       		.byte	0x91
 2723 0caf 77       		.sleb128 -9
 2724 0cb0 00       		.byte	0
 2725 0cb1 35       		.uleb128 0x35
 2726 0cb2 0A010000 		.4byte	.LASF170
 2727 0cb6 13       		.byte	0x13
 2728 0cb7 FA06     		.2byte	0x6fa
 2729 0cb9 CA000000 		.4byte	0xca
 2730 0cbd 36       		.uleb128 0x36
 2731 0cbe 636800   		.ascii	"ch\000"
 2732 0cc1 0B       		.byte	0xb
 2733 0cc2 0902     		.2byte	0x209
 2734 0cc4 43040000 		.4byte	0x443
 2735 0cc8 37       		.uleb128 0x37
 2736 0cc9 5C040000 		.4byte	.LASF171
 2737 0ccd 05       		.byte	0x5
 2738 0cce 64       		.byte	0x64
 2739 0ccf D90C0000 		.4byte	0xcd9
 2740 0cd3 05       		.uleb128 0x5
 2741 0cd4 03       		.byte	0x3
 2742 0cd5 00000000 		.4byte	testsys1
 2743 0cd9 19       		.uleb128 0x19
 2744 0cda C0070000 		.4byte	0x7c0
 2745 0cde 37       		.uleb128 0x37
 2746 0cdf 65040000 		.4byte	.LASF172
 2747 0ce3 05       		.byte	0x5
 2748 0ce4 7A       		.byte	0x7a
 2749 0ce5 D90C0000 		.4byte	0xcd9
 2750 0ce9 05       		.uleb128 0x5
 2751 0cea 03       		.byte	0x3
ARM GAS  /tmp/cce17jkg.s 			page 50


 2752 0ceb 00000000 		.4byte	testsys2
 2753 0cef 37       		.uleb128 0x37
 2754 0cf0 6E040000 		.4byte	.LASF173
 2755 0cf4 05       		.byte	0x5
 2756 0cf5 A1       		.byte	0xa1
 2757 0cf6 D90C0000 		.4byte	0xcd9
 2758 0cfa 05       		.uleb128 0x5
 2759 0cfb 03       		.byte	0x3
 2760 0cfc 00000000 		.4byte	testsys3
 2761 0d00 15       		.uleb128 0x15
 2762 0d01 100D0000 		.4byte	0xd10
 2763 0d05 100D0000 		.4byte	0xd10
 2764 0d09 16       		.uleb128 0x16
 2765 0d0a BB040000 		.4byte	0x4bb
 2766 0d0e 03       		.byte	0x3
 2767 0d0f 00       		.byte	0
 2768 0d10 0A       		.uleb128 0xa
 2769 0d11 04       		.byte	0x4
 2770 0d12 D90C0000 		.4byte	0xcd9
 2771 0d16 37       		.uleb128 0x37
 2772 0d17 D0010000 		.4byte	.LASF174
 2773 0d1b 05       		.byte	0x5
 2774 0d1c AB       		.byte	0xab
 2775 0d1d 270D0000 		.4byte	0xd27
 2776 0d21 05       		.uleb128 0x5
 2777 0d22 03       		.byte	0x3
 2778 0d23 00000000 		.4byte	patternsys
 2779 0d27 19       		.uleb128 0x19
 2780 0d28 000D0000 		.4byte	0xd00
 2781 0d2c 00       		.byte	0
 2782              		.section	.debug_abbrev,"",%progbits
 2783              	.Ldebug_abbrev0:
 2784 0000 01       		.uleb128 0x1
 2785 0001 11       		.uleb128 0x11
 2786 0002 01       		.byte	0x1
 2787 0003 25       		.uleb128 0x25
 2788 0004 0E       		.uleb128 0xe
 2789 0005 13       		.uleb128 0x13
 2790 0006 0B       		.uleb128 0xb
 2791 0007 03       		.uleb128 0x3
 2792 0008 0E       		.uleb128 0xe
 2793 0009 55       		.uleb128 0x55
 2794 000a 17       		.uleb128 0x17
 2795 000b 11       		.uleb128 0x11
 2796 000c 01       		.uleb128 0x1
 2797 000d 10       		.uleb128 0x10
 2798 000e 17       		.uleb128 0x17
 2799 000f 00       		.byte	0
 2800 0010 00       		.byte	0
 2801 0011 02       		.uleb128 0x2
 2802 0012 24       		.uleb128 0x24
 2803 0013 00       		.byte	0
 2804 0014 0B       		.uleb128 0xb
 2805 0015 0B       		.uleb128 0xb
 2806 0016 3E       		.uleb128 0x3e
 2807 0017 0B       		.uleb128 0xb
 2808 0018 03       		.uleb128 0x3
ARM GAS  /tmp/cce17jkg.s 			page 51


 2809 0019 08       		.uleb128 0x8
 2810 001a 00       		.byte	0
 2811 001b 00       		.byte	0
 2812 001c 03       		.uleb128 0x3
 2813 001d 16       		.uleb128 0x16
 2814 001e 00       		.byte	0
 2815 001f 03       		.uleb128 0x3
 2816 0020 0E       		.uleb128 0xe
 2817 0021 3A       		.uleb128 0x3a
 2818 0022 0B       		.uleb128 0xb
 2819 0023 3B       		.uleb128 0x3b
 2820 0024 0B       		.uleb128 0xb
 2821 0025 49       		.uleb128 0x49
 2822 0026 13       		.uleb128 0x13
 2823 0027 00       		.byte	0
 2824 0028 00       		.byte	0
 2825 0029 04       		.uleb128 0x4
 2826 002a 24       		.uleb128 0x24
 2827 002b 00       		.byte	0
 2828 002c 0B       		.uleb128 0xb
 2829 002d 0B       		.uleb128 0xb
 2830 002e 3E       		.uleb128 0x3e
 2831 002f 0B       		.uleb128 0xb
 2832 0030 03       		.uleb128 0x3
 2833 0031 0E       		.uleb128 0xe
 2834 0032 00       		.byte	0
 2835 0033 00       		.byte	0
 2836 0034 05       		.uleb128 0x5
 2837 0035 35       		.uleb128 0x35
 2838 0036 00       		.byte	0
 2839 0037 49       		.uleb128 0x49
 2840 0038 13       		.uleb128 0x13
 2841 0039 00       		.byte	0
 2842 003a 00       		.byte	0
 2843 003b 06       		.uleb128 0x6
 2844 003c 13       		.uleb128 0x13
 2845 003d 01       		.byte	0x1
 2846 003e 03       		.uleb128 0x3
 2847 003f 0E       		.uleb128 0xe
 2848 0040 0B       		.uleb128 0xb
 2849 0041 0B       		.uleb128 0xb
 2850 0042 3A       		.uleb128 0x3a
 2851 0043 0B       		.uleb128 0xb
 2852 0044 3B       		.uleb128 0x3b
 2853 0045 0B       		.uleb128 0xb
 2854 0046 01       		.uleb128 0x1
 2855 0047 13       		.uleb128 0x13
 2856 0048 00       		.byte	0
 2857 0049 00       		.byte	0
 2858 004a 07       		.uleb128 0x7
 2859 004b 0D       		.uleb128 0xd
 2860 004c 00       		.byte	0
 2861 004d 03       		.uleb128 0x3
 2862 004e 0E       		.uleb128 0xe
 2863 004f 3A       		.uleb128 0x3a
 2864 0050 0B       		.uleb128 0xb
 2865 0051 3B       		.uleb128 0x3b
ARM GAS  /tmp/cce17jkg.s 			page 52


 2866 0052 0B       		.uleb128 0xb
 2867 0053 49       		.uleb128 0x49
 2868 0054 13       		.uleb128 0x13
 2869 0055 38       		.uleb128 0x38
 2870 0056 0B       		.uleb128 0xb
 2871 0057 00       		.byte	0
 2872 0058 00       		.byte	0
 2873 0059 08       		.uleb128 0x8
 2874 005a 0D       		.uleb128 0xd
 2875 005b 00       		.byte	0
 2876 005c 03       		.uleb128 0x3
 2877 005d 08       		.uleb128 0x8
 2878 005e 3A       		.uleb128 0x3a
 2879 005f 0B       		.uleb128 0xb
 2880 0060 3B       		.uleb128 0x3b
 2881 0061 05       		.uleb128 0x5
 2882 0062 49       		.uleb128 0x49
 2883 0063 13       		.uleb128 0x13
 2884 0064 38       		.uleb128 0x38
 2885 0065 0B       		.uleb128 0xb
 2886 0066 00       		.byte	0
 2887 0067 00       		.byte	0
 2888 0068 09       		.uleb128 0x9
 2889 0069 0D       		.uleb128 0xd
 2890 006a 00       		.byte	0
 2891 006b 03       		.uleb128 0x3
 2892 006c 0E       		.uleb128 0xe
 2893 006d 3A       		.uleb128 0x3a
 2894 006e 0B       		.uleb128 0xb
 2895 006f 3B       		.uleb128 0x3b
 2896 0070 05       		.uleb128 0x5
 2897 0071 49       		.uleb128 0x49
 2898 0072 13       		.uleb128 0x13
 2899 0073 38       		.uleb128 0x38
 2900 0074 0B       		.uleb128 0xb
 2901 0075 00       		.byte	0
 2902 0076 00       		.byte	0
 2903 0077 0A       		.uleb128 0xa
 2904 0078 0F       		.uleb128 0xf
 2905 0079 00       		.byte	0
 2906 007a 0B       		.uleb128 0xb
 2907 007b 0B       		.uleb128 0xb
 2908 007c 49       		.uleb128 0x49
 2909 007d 13       		.uleb128 0x13
 2910 007e 00       		.byte	0
 2911 007f 00       		.byte	0
 2912 0080 0B       		.uleb128 0xb
 2913 0081 13       		.uleb128 0x13
 2914 0082 01       		.byte	0x1
 2915 0083 03       		.uleb128 0x3
 2916 0084 0E       		.uleb128 0xe
 2917 0085 0B       		.uleb128 0xb
 2918 0086 0B       		.uleb128 0xb
 2919 0087 3A       		.uleb128 0x3a
 2920 0088 0B       		.uleb128 0xb
 2921 0089 3B       		.uleb128 0x3b
 2922 008a 05       		.uleb128 0x5
ARM GAS  /tmp/cce17jkg.s 			page 53


 2923 008b 01       		.uleb128 0x1
 2924 008c 13       		.uleb128 0x13
 2925 008d 00       		.byte	0
 2926 008e 00       		.byte	0
 2927 008f 0C       		.uleb128 0xc
 2928 0090 15       		.uleb128 0x15
 2929 0091 01       		.byte	0x1
 2930 0092 27       		.uleb128 0x27
 2931 0093 19       		.uleb128 0x19
 2932 0094 01       		.uleb128 0x1
 2933 0095 13       		.uleb128 0x13
 2934 0096 00       		.byte	0
 2935 0097 00       		.byte	0
 2936 0098 0D       		.uleb128 0xd
 2937 0099 05       		.uleb128 0x5
 2938 009a 00       		.byte	0
 2939 009b 49       		.uleb128 0x49
 2940 009c 13       		.uleb128 0x13
 2941 009d 00       		.byte	0
 2942 009e 00       		.byte	0
 2943 009f 0E       		.uleb128 0xe
 2944 00a0 0F       		.uleb128 0xf
 2945 00a1 00       		.byte	0
 2946 00a2 0B       		.uleb128 0xb
 2947 00a3 0B       		.uleb128 0xb
 2948 00a4 00       		.byte	0
 2949 00a5 00       		.byte	0
 2950 00a6 0F       		.uleb128 0xf
 2951 00a7 13       		.uleb128 0x13
 2952 00a8 01       		.byte	0x1
 2953 00a9 03       		.uleb128 0x3
 2954 00aa 0E       		.uleb128 0xe
 2955 00ab 0B       		.uleb128 0xb
 2956 00ac 05       		.uleb128 0x5
 2957 00ad 3A       		.uleb128 0x3a
 2958 00ae 0B       		.uleb128 0xb
 2959 00af 3B       		.uleb128 0x3b
 2960 00b0 05       		.uleb128 0x5
 2961 00b1 01       		.uleb128 0x1
 2962 00b2 13       		.uleb128 0x13
 2963 00b3 00       		.byte	0
 2964 00b4 00       		.byte	0
 2965 00b5 10       		.uleb128 0x10
 2966 00b6 0D       		.uleb128 0xd
 2967 00b7 00       		.byte	0
 2968 00b8 03       		.uleb128 0x3
 2969 00b9 0E       		.uleb128 0xe
 2970 00ba 3A       		.uleb128 0x3a
 2971 00bb 0B       		.uleb128 0xb
 2972 00bc 3B       		.uleb128 0x3b
 2973 00bd 05       		.uleb128 0x5
 2974 00be 49       		.uleb128 0x49
 2975 00bf 13       		.uleb128 0x13
 2976 00c0 38       		.uleb128 0x38
 2977 00c1 05       		.uleb128 0x5
 2978 00c2 00       		.byte	0
 2979 00c3 00       		.byte	0
ARM GAS  /tmp/cce17jkg.s 			page 54


 2980 00c4 11       		.uleb128 0x11
 2981 00c5 0D       		.uleb128 0xd
 2982 00c6 00       		.byte	0
 2983 00c7 03       		.uleb128 0x3
 2984 00c8 08       		.uleb128 0x8
 2985 00c9 3A       		.uleb128 0x3a
 2986 00ca 0B       		.uleb128 0xb
 2987 00cb 3B       		.uleb128 0x3b
 2988 00cc 05       		.uleb128 0x5
 2989 00cd 49       		.uleb128 0x49
 2990 00ce 13       		.uleb128 0x13
 2991 00cf 38       		.uleb128 0x38
 2992 00d0 05       		.uleb128 0x5
 2993 00d1 00       		.byte	0
 2994 00d2 00       		.byte	0
 2995 00d3 12       		.uleb128 0x12
 2996 00d4 0D       		.uleb128 0xd
 2997 00d5 00       		.byte	0
 2998 00d6 03       		.uleb128 0x3
 2999 00d7 08       		.uleb128 0x8
 3000 00d8 3A       		.uleb128 0x3a
 3001 00d9 0B       		.uleb128 0xb
 3002 00da 3B       		.uleb128 0x3b
 3003 00db 0B       		.uleb128 0xb
 3004 00dc 49       		.uleb128 0x49
 3005 00dd 13       		.uleb128 0x13
 3006 00de 38       		.uleb128 0x38
 3007 00df 0B       		.uleb128 0xb
 3008 00e0 00       		.byte	0
 3009 00e1 00       		.byte	0
 3010 00e2 13       		.uleb128 0x13
 3011 00e3 13       		.uleb128 0x13
 3012 00e4 01       		.byte	0x1
 3013 00e5 0B       		.uleb128 0xb
 3014 00e6 0B       		.uleb128 0xb
 3015 00e7 3A       		.uleb128 0x3a
 3016 00e8 0B       		.uleb128 0xb
 3017 00e9 3B       		.uleb128 0x3b
 3018 00ea 0B       		.uleb128 0xb
 3019 00eb 01       		.uleb128 0x1
 3020 00ec 13       		.uleb128 0x13
 3021 00ed 00       		.byte	0
 3022 00ee 00       		.byte	0
 3023 00ef 14       		.uleb128 0x14
 3024 00f0 13       		.uleb128 0x13
 3025 00f1 01       		.byte	0x1
 3026 00f2 0B       		.uleb128 0xb
 3027 00f3 05       		.uleb128 0x5
 3028 00f4 3A       		.uleb128 0x3a
 3029 00f5 0B       		.uleb128 0xb
 3030 00f6 3B       		.uleb128 0x3b
 3031 00f7 0B       		.uleb128 0xb
 3032 00f8 01       		.uleb128 0x1
 3033 00f9 13       		.uleb128 0x13
 3034 00fa 00       		.byte	0
 3035 00fb 00       		.byte	0
 3036 00fc 15       		.uleb128 0x15
ARM GAS  /tmp/cce17jkg.s 			page 55


 3037 00fd 01       		.uleb128 0x1
 3038 00fe 01       		.byte	0x1
 3039 00ff 49       		.uleb128 0x49
 3040 0100 13       		.uleb128 0x13
 3041 0101 01       		.uleb128 0x1
 3042 0102 13       		.uleb128 0x13
 3043 0103 00       		.byte	0
 3044 0104 00       		.byte	0
 3045 0105 16       		.uleb128 0x16
 3046 0106 21       		.uleb128 0x21
 3047 0107 00       		.byte	0
 3048 0108 49       		.uleb128 0x49
 3049 0109 13       		.uleb128 0x13
 3050 010a 2F       		.uleb128 0x2f
 3051 010b 0B       		.uleb128 0xb
 3052 010c 00       		.byte	0
 3053 010d 00       		.byte	0
 3054 010e 17       		.uleb128 0x17
 3055 010f 17       		.uleb128 0x17
 3056 0110 01       		.byte	0x1
 3057 0111 0B       		.uleb128 0xb
 3058 0112 0B       		.uleb128 0xb
 3059 0113 3A       		.uleb128 0x3a
 3060 0114 0B       		.uleb128 0xb
 3061 0115 3B       		.uleb128 0x3b
 3062 0116 0B       		.uleb128 0xb
 3063 0117 01       		.uleb128 0x1
 3064 0118 13       		.uleb128 0x13
 3065 0119 00       		.byte	0
 3066 011a 00       		.byte	0
 3067 011b 18       		.uleb128 0x18
 3068 011c 0D       		.uleb128 0xd
 3069 011d 00       		.byte	0
 3070 011e 03       		.uleb128 0x3
 3071 011f 0E       		.uleb128 0xe
 3072 0120 3A       		.uleb128 0x3a
 3073 0121 0B       		.uleb128 0xb
 3074 0122 3B       		.uleb128 0x3b
 3075 0123 05       		.uleb128 0x5
 3076 0124 49       		.uleb128 0x49
 3077 0125 13       		.uleb128 0x13
 3078 0126 00       		.byte	0
 3079 0127 00       		.byte	0
 3080 0128 19       		.uleb128 0x19
 3081 0129 26       		.uleb128 0x26
 3082 012a 00       		.byte	0
 3083 012b 49       		.uleb128 0x49
 3084 012c 13       		.uleb128 0x13
 3085 012d 00       		.byte	0
 3086 012e 00       		.byte	0
 3087 012f 1A       		.uleb128 0x1a
 3088 0130 15       		.uleb128 0x15
 3089 0131 00       		.byte	0
 3090 0132 27       		.uleb128 0x27
 3091 0133 19       		.uleb128 0x19
 3092 0134 00       		.byte	0
 3093 0135 00       		.byte	0
ARM GAS  /tmp/cce17jkg.s 			page 56


 3094 0136 1B       		.uleb128 0x1b
 3095 0137 2E       		.uleb128 0x2e
 3096 0138 01       		.byte	0x1
 3097 0139 03       		.uleb128 0x3
 3098 013a 0E       		.uleb128 0xe
 3099 013b 3A       		.uleb128 0x3a
 3100 013c 0B       		.uleb128 0xb
 3101 013d 3B       		.uleb128 0x3b
 3102 013e 05       		.uleb128 0x5
 3103 013f 27       		.uleb128 0x27
 3104 0140 19       		.uleb128 0x19
 3105 0141 49       		.uleb128 0x49
 3106 0142 13       		.uleb128 0x13
 3107 0143 20       		.uleb128 0x20
 3108 0144 0B       		.uleb128 0xb
 3109 0145 01       		.uleb128 0x1
 3110 0146 13       		.uleb128 0x13
 3111 0147 00       		.byte	0
 3112 0148 00       		.byte	0
 3113 0149 1C       		.uleb128 0x1c
 3114 014a 34       		.uleb128 0x34
 3115 014b 00       		.byte	0
 3116 014c 03       		.uleb128 0x3
 3117 014d 0E       		.uleb128 0xe
 3118 014e 3A       		.uleb128 0x3a
 3119 014f 0B       		.uleb128 0xb
 3120 0150 3B       		.uleb128 0x3b
 3121 0151 05       		.uleb128 0x5
 3122 0152 49       		.uleb128 0x49
 3123 0153 13       		.uleb128 0x13
 3124 0154 00       		.byte	0
 3125 0155 00       		.byte	0
 3126 0156 1D       		.uleb128 0x1d
 3127 0157 2E       		.uleb128 0x2e
 3128 0158 01       		.byte	0x1
 3129 0159 03       		.uleb128 0x3
 3130 015a 0E       		.uleb128 0xe
 3131 015b 3A       		.uleb128 0x3a
 3132 015c 0B       		.uleb128 0xb
 3133 015d 3B       		.uleb128 0x3b
 3134 015e 05       		.uleb128 0x5
 3135 015f 27       		.uleb128 0x27
 3136 0160 19       		.uleb128 0x19
 3137 0161 20       		.uleb128 0x20
 3138 0162 0B       		.uleb128 0xb
 3139 0163 01       		.uleb128 0x1
 3140 0164 13       		.uleb128 0x13
 3141 0165 00       		.byte	0
 3142 0166 00       		.byte	0
 3143 0167 1E       		.uleb128 0x1e
 3144 0168 05       		.uleb128 0x5
 3145 0169 00       		.byte	0
 3146 016a 03       		.uleb128 0x3
 3147 016b 0E       		.uleb128 0xe
 3148 016c 3A       		.uleb128 0x3a
 3149 016d 0B       		.uleb128 0xb
 3150 016e 3B       		.uleb128 0x3b
ARM GAS  /tmp/cce17jkg.s 			page 57


 3151 016f 05       		.uleb128 0x5
 3152 0170 49       		.uleb128 0x49
 3153 0171 13       		.uleb128 0x13
 3154 0172 00       		.byte	0
 3155 0173 00       		.byte	0
 3156 0174 1F       		.uleb128 0x1f
 3157 0175 2E       		.uleb128 0x2e
 3158 0176 00       		.byte	0
 3159 0177 03       		.uleb128 0x3
 3160 0178 0E       		.uleb128 0xe
 3161 0179 3A       		.uleb128 0x3a
 3162 017a 0B       		.uleb128 0xb
 3163 017b 3B       		.uleb128 0x3b
 3164 017c 05       		.uleb128 0x5
 3165 017d 27       		.uleb128 0x27
 3166 017e 19       		.uleb128 0x19
 3167 017f 20       		.uleb128 0x20
 3168 0180 0B       		.uleb128 0xb
 3169 0181 00       		.byte	0
 3170 0182 00       		.byte	0
 3171 0183 20       		.uleb128 0x20
 3172 0184 2E       		.uleb128 0x2e
 3173 0185 01       		.byte	0x1
 3174 0186 03       		.uleb128 0x3
 3175 0187 0E       		.uleb128 0xe
 3176 0188 3A       		.uleb128 0x3a
 3177 0189 0B       		.uleb128 0xb
 3178 018a 3B       		.uleb128 0x3b
 3179 018b 05       		.uleb128 0x5
 3180 018c 27       		.uleb128 0x27
 3181 018d 19       		.uleb128 0x19
 3182 018e 49       		.uleb128 0x49
 3183 018f 13       		.uleb128 0x13
 3184 0190 11       		.uleb128 0x11
 3185 0191 01       		.uleb128 0x1
 3186 0192 12       		.uleb128 0x12
 3187 0193 06       		.uleb128 0x6
 3188 0194 40       		.uleb128 0x40
 3189 0195 18       		.uleb128 0x18
 3190 0196 9742     		.uleb128 0x2117
 3191 0198 19       		.uleb128 0x19
 3192 0199 01       		.uleb128 0x1
 3193 019a 13       		.uleb128 0x13
 3194 019b 00       		.byte	0
 3195 019c 00       		.byte	0
 3196 019d 21       		.uleb128 0x21
 3197 019e 34       		.uleb128 0x34
 3198 019f 00       		.byte	0
 3199 01a0 03       		.uleb128 0x3
 3200 01a1 08       		.uleb128 0x8
 3201 01a2 3A       		.uleb128 0x3a
 3202 01a3 0B       		.uleb128 0xb
 3203 01a4 3B       		.uleb128 0x3b
 3204 01a5 05       		.uleb128 0x5
 3205 01a6 49       		.uleb128 0x49
 3206 01a7 13       		.uleb128 0x13
 3207 01a8 02       		.uleb128 0x2
ARM GAS  /tmp/cce17jkg.s 			page 58


 3208 01a9 18       		.uleb128 0x18
 3209 01aa 00       		.byte	0
 3210 01ab 00       		.byte	0
 3211 01ac 22       		.uleb128 0x22
 3212 01ad 1D       		.uleb128 0x1d
 3213 01ae 01       		.byte	0x1
 3214 01af 31       		.uleb128 0x31
 3215 01b0 13       		.uleb128 0x13
 3216 01b1 11       		.uleb128 0x11
 3217 01b2 01       		.uleb128 0x1
 3218 01b3 12       		.uleb128 0x12
 3219 01b4 06       		.uleb128 0x6
 3220 01b5 58       		.uleb128 0x58
 3221 01b6 0B       		.uleb128 0xb
 3222 01b7 59       		.uleb128 0x59
 3223 01b8 05       		.uleb128 0x5
 3224 01b9 00       		.byte	0
 3225 01ba 00       		.byte	0
 3226 01bb 23       		.uleb128 0x23
 3227 01bc 0B       		.uleb128 0xb
 3228 01bd 01       		.byte	0x1
 3229 01be 11       		.uleb128 0x11
 3230 01bf 01       		.uleb128 0x1
 3231 01c0 12       		.uleb128 0x12
 3232 01c1 06       		.uleb128 0x6
 3233 01c2 00       		.byte	0
 3234 01c3 00       		.byte	0
 3235 01c4 24       		.uleb128 0x24
 3236 01c5 34       		.uleb128 0x34
 3237 01c6 00       		.byte	0
 3238 01c7 31       		.uleb128 0x31
 3239 01c8 13       		.uleb128 0x13
 3240 01c9 02       		.uleb128 0x2
 3241 01ca 18       		.uleb128 0x18
 3242 01cb 00       		.byte	0
 3243 01cc 00       		.byte	0
 3244 01cd 25       		.uleb128 0x25
 3245 01ce 05       		.uleb128 0x5
 3246 01cf 00       		.byte	0
 3247 01d0 03       		.uleb128 0x3
 3248 01d1 08       		.uleb128 0x8
 3249 01d2 3A       		.uleb128 0x3a
 3250 01d3 0B       		.uleb128 0xb
 3251 01d4 3B       		.uleb128 0x3b
 3252 01d5 05       		.uleb128 0x5
 3253 01d6 49       		.uleb128 0x49
 3254 01d7 13       		.uleb128 0x13
 3255 01d8 02       		.uleb128 0x2
 3256 01d9 18       		.uleb128 0x18
 3257 01da 00       		.byte	0
 3258 01db 00       		.byte	0
 3259 01dc 26       		.uleb128 0x26
 3260 01dd 2E       		.uleb128 0x2e
 3261 01de 01       		.byte	0x1
 3262 01df 03       		.uleb128 0x3
 3263 01e0 0E       		.uleb128 0xe
 3264 01e1 3A       		.uleb128 0x3a
ARM GAS  /tmp/cce17jkg.s 			page 59


 3265 01e2 0B       		.uleb128 0xb
 3266 01e3 3B       		.uleb128 0x3b
 3267 01e4 05       		.uleb128 0x5
 3268 01e5 27       		.uleb128 0x27
 3269 01e6 19       		.uleb128 0x19
 3270 01e7 11       		.uleb128 0x11
 3271 01e8 01       		.uleb128 0x1
 3272 01e9 12       		.uleb128 0x12
 3273 01ea 06       		.uleb128 0x6
 3274 01eb 40       		.uleb128 0x40
 3275 01ec 18       		.uleb128 0x18
 3276 01ed 9742     		.uleb128 0x2117
 3277 01ef 19       		.uleb128 0x19
 3278 01f0 01       		.uleb128 0x1
 3279 01f1 13       		.uleb128 0x13
 3280 01f2 00       		.byte	0
 3281 01f3 00       		.byte	0
 3282 01f4 27       		.uleb128 0x27
 3283 01f5 05       		.uleb128 0x5
 3284 01f6 00       		.byte	0
 3285 01f7 31       		.uleb128 0x31
 3286 01f8 13       		.uleb128 0x13
 3287 01f9 02       		.uleb128 0x2
 3288 01fa 18       		.uleb128 0x18
 3289 01fb 00       		.byte	0
 3290 01fc 00       		.byte	0
 3291 01fd 28       		.uleb128 0x28
 3292 01fe 2E       		.uleb128 0x2e
 3293 01ff 00       		.byte	0
 3294 0200 03       		.uleb128 0x3
 3295 0201 0E       		.uleb128 0xe
 3296 0202 3A       		.uleb128 0x3a
 3297 0203 0B       		.uleb128 0xb
 3298 0204 3B       		.uleb128 0x3b
 3299 0205 05       		.uleb128 0x5
 3300 0206 27       		.uleb128 0x27
 3301 0207 19       		.uleb128 0x19
 3302 0208 11       		.uleb128 0x11
 3303 0209 01       		.uleb128 0x1
 3304 020a 12       		.uleb128 0x12
 3305 020b 06       		.uleb128 0x6
 3306 020c 40       		.uleb128 0x40
 3307 020d 18       		.uleb128 0x18
 3308 020e 9642     		.uleb128 0x2116
 3309 0210 19       		.uleb128 0x19
 3310 0211 00       		.byte	0
 3311 0212 00       		.byte	0
 3312 0213 29       		.uleb128 0x29
 3313 0214 1D       		.uleb128 0x1d
 3314 0215 00       		.byte	0
 3315 0216 31       		.uleb128 0x31
 3316 0217 13       		.uleb128 0x13
 3317 0218 11       		.uleb128 0x11
 3318 0219 01       		.uleb128 0x1
 3319 021a 12       		.uleb128 0x12
 3320 021b 06       		.uleb128 0x6
 3321 021c 58       		.uleb128 0x58
ARM GAS  /tmp/cce17jkg.s 			page 60


 3322 021d 0B       		.uleb128 0xb
 3323 021e 59       		.uleb128 0x59
 3324 021f 05       		.uleb128 0x5
 3325 0220 00       		.byte	0
 3326 0221 00       		.byte	0
 3327 0222 2A       		.uleb128 0x2a
 3328 0223 1D       		.uleb128 0x1d
 3329 0224 01       		.byte	0x1
 3330 0225 31       		.uleb128 0x31
 3331 0226 13       		.uleb128 0x13
 3332 0227 11       		.uleb128 0x11
 3333 0228 01       		.uleb128 0x1
 3334 0229 12       		.uleb128 0x12
 3335 022a 06       		.uleb128 0x6
 3336 022b 58       		.uleb128 0x58
 3337 022c 0B       		.uleb128 0xb
 3338 022d 59       		.uleb128 0x59
 3339 022e 05       		.uleb128 0x5
 3340 022f 01       		.uleb128 0x1
 3341 0230 13       		.uleb128 0x13
 3342 0231 00       		.byte	0
 3343 0232 00       		.byte	0
 3344 0233 2B       		.uleb128 0x2b
 3345 0234 2E       		.uleb128 0x2e
 3346 0235 01       		.byte	0x1
 3347 0236 03       		.uleb128 0x3
 3348 0237 0E       		.uleb128 0xe
 3349 0238 3A       		.uleb128 0x3a
 3350 0239 0B       		.uleb128 0xb
 3351 023a 3B       		.uleb128 0x3b
 3352 023b 05       		.uleb128 0x5
 3353 023c 27       		.uleb128 0x27
 3354 023d 19       		.uleb128 0x19
 3355 023e 11       		.uleb128 0x11
 3356 023f 01       		.uleb128 0x1
 3357 0240 12       		.uleb128 0x12
 3358 0241 06       		.uleb128 0x6
 3359 0242 40       		.uleb128 0x40
 3360 0243 18       		.uleb128 0x18
 3361 0244 9642     		.uleb128 0x2116
 3362 0246 19       		.uleb128 0x19
 3363 0247 01       		.uleb128 0x1
 3364 0248 13       		.uleb128 0x13
 3365 0249 00       		.byte	0
 3366 024a 00       		.byte	0
 3367 024b 2C       		.uleb128 0x2c
 3368 024c 34       		.uleb128 0x34
 3369 024d 00       		.byte	0
 3370 024e 03       		.uleb128 0x3
 3371 024f 0E       		.uleb128 0xe
 3372 0250 49       		.uleb128 0x49
 3373 0251 13       		.uleb128 0x13
 3374 0252 34       		.uleb128 0x34
 3375 0253 19       		.uleb128 0x19
 3376 0254 02       		.uleb128 0x2
 3377 0255 18       		.uleb128 0x18
 3378 0256 00       		.byte	0
ARM GAS  /tmp/cce17jkg.s 			page 61


 3379 0257 00       		.byte	0
 3380 0258 2D       		.uleb128 0x2d
 3381 0259 2E       		.uleb128 0x2e
 3382 025a 01       		.byte	0x1
 3383 025b 03       		.uleb128 0x3
 3384 025c 0E       		.uleb128 0xe
 3385 025d 3A       		.uleb128 0x3a
 3386 025e 0B       		.uleb128 0xb
 3387 025f 3B       		.uleb128 0x3b
 3388 0260 0B       		.uleb128 0xb
 3389 0261 27       		.uleb128 0x27
 3390 0262 19       		.uleb128 0x19
 3391 0263 11       		.uleb128 0x11
 3392 0264 01       		.uleb128 0x1
 3393 0265 12       		.uleb128 0x12
 3394 0266 06       		.uleb128 0x6
 3395 0267 40       		.uleb128 0x40
 3396 0268 18       		.uleb128 0x18
 3397 0269 9742     		.uleb128 0x2117
 3398 026b 19       		.uleb128 0x19
 3399 026c 01       		.uleb128 0x1
 3400 026d 13       		.uleb128 0x13
 3401 026e 00       		.byte	0
 3402 026f 00       		.byte	0
 3403 0270 2E       		.uleb128 0x2e
 3404 0271 05       		.uleb128 0x5
 3405 0272 00       		.byte	0
 3406 0273 03       		.uleb128 0x3
 3407 0274 08       		.uleb128 0x8
 3408 0275 3A       		.uleb128 0x3a
 3409 0276 0B       		.uleb128 0xb
 3410 0277 3B       		.uleb128 0x3b
 3411 0278 0B       		.uleb128 0xb
 3412 0279 49       		.uleb128 0x49
 3413 027a 13       		.uleb128 0x13
 3414 027b 02       		.uleb128 0x2
 3415 027c 18       		.uleb128 0x18
 3416 027d 00       		.byte	0
 3417 027e 00       		.byte	0
 3418 027f 2F       		.uleb128 0x2f
 3419 0280 2E       		.uleb128 0x2e
 3420 0281 01       		.byte	0x1
 3421 0282 03       		.uleb128 0x3
 3422 0283 0E       		.uleb128 0xe
 3423 0284 3A       		.uleb128 0x3a
 3424 0285 0B       		.uleb128 0xb
 3425 0286 3B       		.uleb128 0x3b
 3426 0287 05       		.uleb128 0x5
 3427 0288 27       		.uleb128 0x27
 3428 0289 19       		.uleb128 0x19
 3429 028a 49       		.uleb128 0x49
 3430 028b 13       		.uleb128 0x13
 3431 028c 11       		.uleb128 0x11
 3432 028d 01       		.uleb128 0x1
 3433 028e 12       		.uleb128 0x12
 3434 028f 06       		.uleb128 0x6
 3435 0290 40       		.uleb128 0x40
ARM GAS  /tmp/cce17jkg.s 			page 62


 3436 0291 18       		.uleb128 0x18
 3437 0292 9642     		.uleb128 0x2116
 3438 0294 19       		.uleb128 0x19
 3439 0295 01       		.uleb128 0x1
 3440 0296 13       		.uleb128 0x13
 3441 0297 00       		.byte	0
 3442 0298 00       		.byte	0
 3443 0299 30       		.uleb128 0x30
 3444 029a 05       		.uleb128 0x5
 3445 029b 00       		.byte	0
 3446 029c 03       		.uleb128 0x3
 3447 029d 0E       		.uleb128 0xe
 3448 029e 3A       		.uleb128 0x3a
 3449 029f 0B       		.uleb128 0xb
 3450 02a0 3B       		.uleb128 0x3b
 3451 02a1 05       		.uleb128 0x5
 3452 02a2 49       		.uleb128 0x49
 3453 02a3 13       		.uleb128 0x13
 3454 02a4 02       		.uleb128 0x2
 3455 02a5 18       		.uleb128 0x18
 3456 02a6 00       		.byte	0
 3457 02a7 00       		.byte	0
 3458 02a8 31       		.uleb128 0x31
 3459 02a9 2E       		.uleb128 0x2e
 3460 02aa 01       		.byte	0x1
 3461 02ab 03       		.uleb128 0x3
 3462 02ac 0E       		.uleb128 0xe
 3463 02ad 3A       		.uleb128 0x3a
 3464 02ae 0B       		.uleb128 0xb
 3465 02af 3B       		.uleb128 0x3b
 3466 02b0 0B       		.uleb128 0xb
 3467 02b1 27       		.uleb128 0x27
 3468 02b2 19       		.uleb128 0x19
 3469 02b3 11       		.uleb128 0x11
 3470 02b4 01       		.uleb128 0x1
 3471 02b5 12       		.uleb128 0x12
 3472 02b6 06       		.uleb128 0x6
 3473 02b7 40       		.uleb128 0x40
 3474 02b8 18       		.uleb128 0x18
 3475 02b9 9642     		.uleb128 0x2116
 3476 02bb 19       		.uleb128 0x19
 3477 02bc 01       		.uleb128 0x1
 3478 02bd 13       		.uleb128 0x13
 3479 02be 00       		.byte	0
 3480 02bf 00       		.byte	0
 3481 02c0 32       		.uleb128 0x32
 3482 02c1 34       		.uleb128 0x34
 3483 02c2 00       		.byte	0
 3484 02c3 03       		.uleb128 0x3
 3485 02c4 08       		.uleb128 0x8
 3486 02c5 3A       		.uleb128 0x3a
 3487 02c6 0B       		.uleb128 0xb
 3488 02c7 3B       		.uleb128 0x3b
 3489 02c8 0B       		.uleb128 0xb
 3490 02c9 49       		.uleb128 0x49
 3491 02ca 13       		.uleb128 0x13
 3492 02cb 02       		.uleb128 0x2
ARM GAS  /tmp/cce17jkg.s 			page 63


 3493 02cc 18       		.uleb128 0x18
 3494 02cd 00       		.byte	0
 3495 02ce 00       		.byte	0
 3496 02cf 33       		.uleb128 0x33
 3497 02d0 2E       		.uleb128 0x2e
 3498 02d1 00       		.byte	0
 3499 02d2 03       		.uleb128 0x3
 3500 02d3 0E       		.uleb128 0xe
 3501 02d4 3A       		.uleb128 0x3a
 3502 02d5 0B       		.uleb128 0xb
 3503 02d6 3B       		.uleb128 0x3b
 3504 02d7 0B       		.uleb128 0xb
 3505 02d8 27       		.uleb128 0x27
 3506 02d9 19       		.uleb128 0x19
 3507 02da 11       		.uleb128 0x11
 3508 02db 01       		.uleb128 0x1
 3509 02dc 12       		.uleb128 0x12
 3510 02dd 06       		.uleb128 0x6
 3511 02de 40       		.uleb128 0x40
 3512 02df 18       		.uleb128 0x18
 3513 02e0 9642     		.uleb128 0x2116
 3514 02e2 19       		.uleb128 0x19
 3515 02e3 00       		.byte	0
 3516 02e4 00       		.byte	0
 3517 02e5 34       		.uleb128 0x34
 3518 02e6 34       		.uleb128 0x34
 3519 02e7 00       		.byte	0
 3520 02e8 03       		.uleb128 0x3
 3521 02e9 0E       		.uleb128 0xe
 3522 02ea 3A       		.uleb128 0x3a
 3523 02eb 0B       		.uleb128 0xb
 3524 02ec 3B       		.uleb128 0x3b
 3525 02ed 0B       		.uleb128 0xb
 3526 02ee 49       		.uleb128 0x49
 3527 02ef 13       		.uleb128 0x13
 3528 02f0 02       		.uleb128 0x2
 3529 02f1 18       		.uleb128 0x18
 3530 02f2 00       		.byte	0
 3531 02f3 00       		.byte	0
 3532 02f4 35       		.uleb128 0x35
 3533 02f5 34       		.uleb128 0x34
 3534 02f6 00       		.byte	0
 3535 02f7 03       		.uleb128 0x3
 3536 02f8 0E       		.uleb128 0xe
 3537 02f9 3A       		.uleb128 0x3a
 3538 02fa 0B       		.uleb128 0xb
 3539 02fb 3B       		.uleb128 0x3b
 3540 02fc 05       		.uleb128 0x5
 3541 02fd 49       		.uleb128 0x49
 3542 02fe 13       		.uleb128 0x13
 3543 02ff 3F       		.uleb128 0x3f
 3544 0300 19       		.uleb128 0x19
 3545 0301 3C       		.uleb128 0x3c
 3546 0302 19       		.uleb128 0x19
 3547 0303 00       		.byte	0
 3548 0304 00       		.byte	0
 3549 0305 36       		.uleb128 0x36
ARM GAS  /tmp/cce17jkg.s 			page 64


 3550 0306 34       		.uleb128 0x34
 3551 0307 00       		.byte	0
 3552 0308 03       		.uleb128 0x3
 3553 0309 08       		.uleb128 0x8
 3554 030a 3A       		.uleb128 0x3a
 3555 030b 0B       		.uleb128 0xb
 3556 030c 3B       		.uleb128 0x3b
 3557 030d 05       		.uleb128 0x5
 3558 030e 49       		.uleb128 0x49
 3559 030f 13       		.uleb128 0x13
 3560 0310 3F       		.uleb128 0x3f
 3561 0311 19       		.uleb128 0x19
 3562 0312 3C       		.uleb128 0x3c
 3563 0313 19       		.uleb128 0x19
 3564 0314 00       		.byte	0
 3565 0315 00       		.byte	0
 3566 0316 37       		.uleb128 0x37
 3567 0317 34       		.uleb128 0x34
 3568 0318 00       		.byte	0
 3569 0319 03       		.uleb128 0x3
 3570 031a 0E       		.uleb128 0xe
 3571 031b 3A       		.uleb128 0x3a
 3572 031c 0B       		.uleb128 0xb
 3573 031d 3B       		.uleb128 0x3b
 3574 031e 0B       		.uleb128 0xb
 3575 031f 49       		.uleb128 0x49
 3576 0320 13       		.uleb128 0x13
 3577 0321 3F       		.uleb128 0x3f
 3578 0322 19       		.uleb128 0x19
 3579 0323 02       		.uleb128 0x2
 3580 0324 18       		.uleb128 0x18
 3581 0325 00       		.byte	0
 3582 0326 00       		.byte	0
 3583 0327 00       		.byte	0
 3584              		.section	.debug_aranges,"",%progbits
 3585 0000 F4000000 		.4byte	0xf4
 3586 0004 0200     		.2byte	0x2
 3587 0006 00000000 		.4byte	.Ldebug_info0
 3588 000a 04       		.byte	0x4
 3589 000b 00       		.byte	0
 3590 000c 0000     		.2byte	0
 3591 000e 0000     		.2byte	0
 3592 0010 00000000 		.4byte	.LFB124
 3593 0014 14000000 		.4byte	.LFE124-.LFB124
 3594 0018 00000000 		.4byte	.LFB125
 3595 001c 16000000 		.4byte	.LFE125-.LFB125
 3596 0020 00000000 		.4byte	.LFB127
 3597 0024 10000000 		.4byte	.LFE127-.LFB127
 3598 0028 00000000 		.4byte	.LFB128
 3599 002c 10000000 		.4byte	.LFE128-.LFB128
 3600 0030 00000000 		.4byte	.LFB129
 3601 0034 08000000 		.4byte	.LFE129-.LFB129
 3602 0038 00000000 		.4byte	.LFB130
 3603 003c 08000000 		.4byte	.LFE130-.LFB130
 3604 0040 00000000 		.4byte	.LFB131
 3605 0044 04000000 		.4byte	.LFE131-.LFB131
 3606 0048 00000000 		.4byte	.LFB132
ARM GAS  /tmp/cce17jkg.s 			page 65


 3607 004c 12000000 		.4byte	.LFE132-.LFB132
 3608 0050 00000000 		.4byte	.LFB133
 3609 0054 12000000 		.4byte	.LFE133-.LFB133
 3610 0058 00000000 		.4byte	.LFB164
 3611 005c 0C000000 		.4byte	.LFE164-.LFB164
 3612 0060 00000000 		.4byte	.LFB165
 3613 0064 0C000000 		.4byte	.LFE165-.LFB165
 3614 0068 00000000 		.4byte	.LFB166
 3615 006c 0C000000 		.4byte	.LFE166-.LFB166
 3616 0070 00000000 		.4byte	.LFB167
 3617 0074 10000000 		.4byte	.LFE167-.LFB167
 3618 0078 00000000 		.4byte	.LFB168
 3619 007c 38000000 		.4byte	.LFE168-.LFB168
 3620 0080 00000000 		.4byte	.LFB169
 3621 0084 10000000 		.4byte	.LFE169-.LFB169
 3622 0088 00000000 		.4byte	.LFB170
 3623 008c 10000000 		.4byte	.LFE170-.LFB170
 3624 0090 00000000 		.4byte	.LFB171
 3625 0094 1A000000 		.4byte	.LFE171-.LFB171
 3626 0098 00000000 		.4byte	.LFB172
 3627 009c 20000000 		.4byte	.LFE172-.LFB172
 3628 00a0 00000000 		.4byte	.LFB174
 3629 00a4 0E000000 		.4byte	.LFE174-.LFB174
 3630 00a8 00000000 		.4byte	.LFB181
 3631 00ac 20000000 		.4byte	.LFE181-.LFB181
 3632 00b0 00000000 		.4byte	.LFB182
 3633 00b4 26000000 		.4byte	.LFE182-.LFB182
 3634 00b8 00000000 		.4byte	.LFB183
 3635 00bc 1E000000 		.4byte	.LFE183-.LFB183
 3636 00c0 00000000 		.4byte	.LFB185
 3637 00c4 24000000 		.4byte	.LFE185-.LFB185
 3638 00c8 00000000 		.4byte	.LFB186
 3639 00cc 26000000 		.4byte	.LFE186-.LFB186
 3640 00d0 00000000 		.4byte	.LFB240
 3641 00d4 28000000 		.4byte	.LFE240-.LFB240
 3642 00d8 00000000 		.4byte	.LFB241
 3643 00dc 90000000 		.4byte	.LFE241-.LFB241
 3644 00e0 00000000 		.4byte	.LFB242
 3645 00e4 14000000 		.4byte	.LFE242-.LFB242
 3646 00e8 00000000 		.4byte	.LFB243
 3647 00ec 02010000 		.4byte	.LFE243-.LFB243
 3648 00f0 00000000 		.4byte	0
 3649 00f4 00000000 		.4byte	0
 3650              		.section	.debug_ranges,"",%progbits
 3651              	.Ldebug_ranges0:
 3652 0000 00000000 		.4byte	.LFB124
 3653 0004 14000000 		.4byte	.LFE124
 3654 0008 00000000 		.4byte	.LFB125
 3655 000c 16000000 		.4byte	.LFE125
 3656 0010 00000000 		.4byte	.LFB127
 3657 0014 10000000 		.4byte	.LFE127
 3658 0018 00000000 		.4byte	.LFB128
 3659 001c 10000000 		.4byte	.LFE128
 3660 0020 00000000 		.4byte	.LFB129
 3661 0024 08000000 		.4byte	.LFE129
 3662 0028 00000000 		.4byte	.LFB130
 3663 002c 08000000 		.4byte	.LFE130
ARM GAS  /tmp/cce17jkg.s 			page 66


 3664 0030 00000000 		.4byte	.LFB131
 3665 0034 04000000 		.4byte	.LFE131
 3666 0038 00000000 		.4byte	.LFB132
 3667 003c 12000000 		.4byte	.LFE132
 3668 0040 00000000 		.4byte	.LFB133
 3669 0044 12000000 		.4byte	.LFE133
 3670 0048 00000000 		.4byte	.LFB164
 3671 004c 0C000000 		.4byte	.LFE164
 3672 0050 00000000 		.4byte	.LFB165
 3673 0054 0C000000 		.4byte	.LFE165
 3674 0058 00000000 		.4byte	.LFB166
 3675 005c 0C000000 		.4byte	.LFE166
 3676 0060 00000000 		.4byte	.LFB167
 3677 0064 10000000 		.4byte	.LFE167
 3678 0068 00000000 		.4byte	.LFB168
 3679 006c 38000000 		.4byte	.LFE168
 3680 0070 00000000 		.4byte	.LFB169
 3681 0074 10000000 		.4byte	.LFE169
 3682 0078 00000000 		.4byte	.LFB170
 3683 007c 10000000 		.4byte	.LFE170
 3684 0080 00000000 		.4byte	.LFB171
 3685 0084 1A000000 		.4byte	.LFE171
 3686 0088 00000000 		.4byte	.LFB172
 3687 008c 20000000 		.4byte	.LFE172
 3688 0090 00000000 		.4byte	.LFB174
 3689 0094 0E000000 		.4byte	.LFE174
 3690 0098 00000000 		.4byte	.LFB181
 3691 009c 20000000 		.4byte	.LFE181
 3692 00a0 00000000 		.4byte	.LFB182
 3693 00a4 26000000 		.4byte	.LFE182
 3694 00a8 00000000 		.4byte	.LFB183
 3695 00ac 1E000000 		.4byte	.LFE183
 3696 00b0 00000000 		.4byte	.LFB185
 3697 00b4 24000000 		.4byte	.LFE185
 3698 00b8 00000000 		.4byte	.LFB186
 3699 00bc 26000000 		.4byte	.LFE186
 3700 00c0 00000000 		.4byte	.LFB240
 3701 00c4 28000000 		.4byte	.LFE240
 3702 00c8 00000000 		.4byte	.LFB241
 3703 00cc 90000000 		.4byte	.LFE241
 3704 00d0 00000000 		.4byte	.LFB242
 3705 00d4 14000000 		.4byte	.LFE242
 3706 00d8 00000000 		.4byte	.LFB243
 3707 00dc 02010000 		.4byte	.LFE243
 3708 00e0 00000000 		.4byte	0
 3709 00e4 00000000 		.4byte	0
 3710              		.section	.debug_line,"",%progbits
 3711              	.Ldebug_line0:
 3712 0000 E5040000 		.section	.debug_str,"MS",%progbits,1
 3712      02001902 
 3712      00000201 
 3712      FB0E0D00 
 3712      01010101 
 3713              	.LASF23:
 3714 0000 74726566 		.ascii	"trefs_t\000"
 3714      735F7400 
 3715              	.LASF56:
ARM GAS  /tmp/cce17jkg.s 			page 67


 3716 0008 72656164 		.ascii	"ready_list_t\000"
 3716      795F6C69 
 3716      73745F74 
 3716      00
 3717              	.LASF93:
 3718 0015 73655F74 		.ascii	"se_time\000"
 3718      696D6500 
 3719              	.LASF2:
 3720 001d 73697A65 		.ascii	"size_t\000"
 3720      5F7400
 3721              	.LASF166:
 3722 0024 76746362 		.ascii	"vtcb\000"
 3722      00
 3723              	.LASF17:
 3724 0029 75696E74 		.ascii	"uint64_t\000"
 3724      36345F74 
 3724      00
 3725              	.LASF86:
 3726 0032 6B65726E 		.ascii	"kernel_stats\000"
 3726      656C5F73 
 3726      74617473 
 3726      00
 3727              	.LASF3:
 3728 003f 5F5F7569 		.ascii	"__uint8_t\000"
 3728      6E74385F 
 3728      7400
 3729              	.LASF92:
 3730 0049 706F7274 		.ascii	"port_intctx\000"
 3730      5F696E74 
 3730      63747800 
 3731              	.LASF55:
 3732 0055 63685F74 		.ascii	"ch_threads_queue\000"
 3732      68726561 
 3732      64735F71 
 3732      75657565 
 3732      00
 3733              	.LASF75:
 3734 0066 73797374 		.ascii	"system_debug_t\000"
 3734      656D5F64 
 3734      65627567 
 3734      5F7400
 3735              	.LASF136:
 3736 0075 5F5F656E 		.ascii	"__enable_irq\000"
 3736      61626C65 
 3736      5F697271 
 3736      00
 3737              	.LASF8:
 3738 0082 6C6F6E67 		.ascii	"long int\000"
 3738      20696E74 
 3738      00
 3739              	.LASF140:
 3740 008b 706F7274 		.ascii	"port_lock\000"
 3740      5F6C6F63 
 3740      6B00
 3741              	.LASF105:
 3742 0095 776F7273 		.ascii	"worst\000"
 3742      7400
ARM GAS  /tmp/cce17jkg.s 			page 68


 3743              	.LASF108:
 3744 009b 74696D65 		.ascii	"time_measurement_t\000"
 3744      5F6D6561 
 3744      73757265 
 3744      6D656E74 
 3744      5F7400
 3745              	.LASF13:
 3746 00ae 6C6F6E67 		.ascii	"long long unsigned int\000"
 3746      206C6F6E 
 3746      6720756E 
 3746      7369676E 
 3746      65642069 
 3747              	.LASF101:
 3748 00c5 63685F74 		.ascii	"ch_trace_buffer_t\000"
 3748      72616365 
 3748      5F627566 
 3748      6665725F 
 3748      7400
 3749              	.LASF96:
 3750 00d7 73655F73 		.ascii	"se_state\000"
 3750      74617465 
 3750      00
 3751              	.LASF115:
 3752 00e0 65786974 		.ascii	"exitcode\000"
 3752      636F6465 
 3752      00
 3753              	.LASF85:
 3754 00e9 6D61696E 		.ascii	"mainthread\000"
 3754      74687265 
 3754      616400
 3755              	.LASF72:
 3756 00f4 76697274 		.ascii	"virtual_timers_list_t\000"
 3756      75616C5F 
 3756      74696D65 
 3756      72735F6C 
 3756      6973745F 
 3757              	.LASF170:
 3758 010a 49544D5F 		.ascii	"ITM_RxBuffer\000"
 3758      52784275 
 3758      66666572 
 3758      00
 3759              	.LASF19:
 3760 0117 72747469 		.ascii	"rttime_t\000"
 3760      6D655F74 
 3760      00
 3761              	.LASF33:
 3762 0120 705F7072 		.ascii	"p_prio\000"
 3762      696F00
 3763              	.LASF169:
 3764 0127 73797333 		.ascii	"sys3_execute\000"
 3764      5F657865 
 3764      63757465 
 3764      00
 3765              	.LASF11:
 3766 0134 6C6F6E67 		.ascii	"long long int\000"
 3766      206C6F6E 
 3766      6720696E 
ARM GAS  /tmp/cce17jkg.s 			page 69


 3766      7400
 3767              	.LASF1:
 3768 0142 7369676E 		.ascii	"signed char\000"
 3768      65642063 
 3768      68617200 
 3769              	.LASF48:
 3770 014e 705F6D70 		.ascii	"p_mpool\000"
 3770      6F6F6C00 
 3771              	.LASF125:
 3772 0156 6D5F7175 		.ascii	"m_queue\000"
 3772      65756500 
 3773              	.LASF157:
 3774 015e 63685379 		.ascii	"chSysUnconditionalUnlock\000"
 3774      73556E63 
 3774      6F6E6469 
 3774      74696F6E 
 3774      616C556E 
 3775              	.LASF84:
 3776 0177 76746C69 		.ascii	"vtlist\000"
 3776      737400
 3777              	.LASF141:
 3778 017e 706F7274 		.ascii	"port_unlock\000"
 3778      5F756E6C 
 3778      6F636B00 
 3779              	.LASF117:
 3780 018a 77747472 		.ascii	"wttrp\000"
 3780      7000
 3781              	.LASF82:
 3782 0190 63685F73 		.ascii	"ch_system\000"
 3782      79737465 
 3782      6D00
 3783              	.LASF94:
 3784 019a 73655F74 		.ascii	"se_tp\000"
 3784      7000
 3785              	.LASF144:
 3786 01a0 706F7274 		.ascii	"port_disable\000"
 3786      5F646973 
 3786      61626C65 
 3786      00
 3787              	.LASF22:
 3788 01ad 74737461 		.ascii	"tstate_t\000"
 3788      74655F74 
 3788      00
 3789              	.LASF177:
 3790 01b6 5F5F6765 		.ascii	"__get_BASEPRI\000"
 3790      745F4241 
 3790      53455052 
 3790      4900
 3791              	.LASF149:
 3792 01c4 63685379 		.ascii	"chSysEnable\000"
 3792      73456E61 
 3792      626C6500 
 3793              	.LASF174:
 3794 01d0 70617474 		.ascii	"patternsys\000"
 3794      65726E73 
 3794      797300
 3795              	.LASF175:
ARM GAS  /tmp/cce17jkg.s 			page 70


 3796 01db 474E5520 		.ascii	"GNU C 4.8.4 20141219 (release) -mcpu=cortex-m4 -mno"
 3796      4320342E 
 3796      382E3420 
 3796      32303134 
 3796      31323139 
 3797 020e 2D746875 		.ascii	"-thumb-interwork -mthumb -ggdb -O0 -fomit-frame-poi"
 3797      6D622D69 
 3797      6E746572 
 3797      776F726B 
 3797      202D6D74 
 3798 0241 6E746572 		.ascii	"nter -falign-functions=16 -ffunction-sections -fdat"
 3798      202D6661 
 3798      6C69676E 
 3798      2D66756E 
 3798      6374696F 
 3799 0274 612D7365 		.ascii	"a-sections -fno-common\000"
 3799      6374696F 
 3799      6E73202D 
 3799      666E6F2D 
 3799      636F6D6D 
 3800              	.LASF35:
 3801 028b 705F6E65 		.ascii	"p_newer\000"
 3801      77657200 
 3802              	.LASF122:
 3803 0293 735F7175 		.ascii	"s_queue\000"
 3803      65756500 
 3804              	.LASF20:
 3805 029b 73797373 		.ascii	"syssts_t\000"
 3805      74735F74 
 3805      00
 3806              	.LASF98:
 3807 02a4 74625F73 		.ascii	"tb_size\000"
 3807      697A6500 
 3808              	.LASF61:
 3809 02ac 725F6E65 		.ascii	"r_newer\000"
 3809      77657200 
 3810              	.LASF89:
 3811 02b4 72656761 		.ascii	"regarm_t\000"
 3811      726D5F74 
 3811      00
 3812              	.LASF68:
 3813 02bd 76745F70 		.ascii	"vt_prev\000"
 3813      72657600 
 3814              	.LASF76:
 3815 02c5 63685F73 		.ascii	"ch_system_debug\000"
 3815      79737465 
 3815      6D5F6465 
 3815      62756700 
 3816              	.LASF129:
 3817 02d5 6D757465 		.ascii	"mutex_t\000"
 3817      785F7400 
 3818              	.LASF179:
 3819 02dd 76616C75 		.ascii	"value\000"
 3819      6500
 3820              	.LASF79:
 3821 02e3 6C6F636B 		.ascii	"lock_cnt\000"
 3821      5F636E74 
ARM GAS  /tmp/cce17jkg.s 			page 71


 3821      00
 3822              	.LASF87:
 3823 02ec 69646C65 		.ascii	"idle_thread_wa\000"
 3823      5F746872 
 3823      6561645F 
 3823      776100
 3824              	.LASF27:
 3825 02fb 636E745F 		.ascii	"cnt_t\000"
 3825      7400
 3826              	.LASF38:
 3827 0301 705F7374 		.ascii	"p_stklimit\000"
 3827      6B6C696D 
 3827      697400
 3828              	.LASF0:
 3829 030c 756E7369 		.ascii	"unsigned int\000"
 3829      676E6564 
 3829      20696E74 
 3829      00
 3830              	.LASF67:
 3831 0319 76745F6E 		.ascii	"vt_next\000"
 3831      65787400 
 3832              	.LASF118:
 3833 0321 77747365 		.ascii	"wtsemp\000"
 3833      6D7000
 3834              	.LASF43:
 3835 0328 705F6D73 		.ascii	"p_msgqueue\000"
 3835      67717565 
 3835      756500
 3836              	.LASF137:
 3837 0333 706F7274 		.ascii	"port_get_irq_status\000"
 3837      5F676574 
 3837      5F697271 
 3837      5F737461 
 3837      74757300 
 3838              	.LASF133:
 3839 0347 74656172 		.ascii	"teardown\000"
 3839      646F776E 
 3839      00
 3840              	.LASF57:
 3841 0350 63685F72 		.ascii	"ch_ready_list\000"
 3841      65616479 
 3841      5F6C6973 
 3841      7400
 3842              	.LASF109:
 3843 035e 6E5F6972 		.ascii	"n_irq\000"
 3843      7100
 3844              	.LASF147:
 3845 0364 63685379 		.ascii	"chSysDisable\000"
 3845      73446973 
 3845      61626C65 
 3845      00
 3846              	.LASF123:
 3847 0371 735F636E 		.ascii	"s_cnt\000"
 3847      7400
 3848              	.LASF131:
 3849 0377 6E616D65 		.ascii	"name\000"
 3849      00
ARM GAS  /tmp/cce17jkg.s 			page 72


 3850              	.LASF6:
 3851 037c 73686F72 		.ascii	"short unsigned int\000"
 3851      7420756E 
 3851      7369676E 
 3851      65642069 
 3851      6E7400
 3852              	.LASF113:
 3853 038f 6B65726E 		.ascii	"kernel_stats_t\000"
 3853      656C5F73 
 3853      74617473 
 3853      5F7400
 3854              	.LASF52:
 3855 039e 63685F74 		.ascii	"ch_thread\000"
 3855      68726561 
 3855      6400
 3856              	.LASF25:
 3857 03a8 6D73675F 		.ascii	"msg_t\000"
 3857      7400
 3858              	.LASF106:
 3859 03ae 6C617374 		.ascii	"last\000"
 3859      00
 3860              	.LASF28:
 3861 03b3 75636E74 		.ascii	"ucnt_t\000"
 3861      5F7400
 3862              	.LASF145:
 3863 03ba 706F7274 		.ascii	"port_suspend\000"
 3863      5F737573 
 3863      70656E64 
 3863      00
 3864              	.LASF116:
 3865 03c7 77746F62 		.ascii	"wtobjp\000"
 3865      6A7000
 3866              	.LASF112:
 3867 03ce 6D5F6372 		.ascii	"m_crit_isr\000"
 3867      69745F69 
 3867      737200
 3868              	.LASF46:
 3869 03d9 705F6D74 		.ascii	"p_mtxlist\000"
 3869      786C6973 
 3869      7400
 3870              	.LASF26:
 3871 03e3 6576656E 		.ascii	"eventmask_t\000"
 3871      746D6173 
 3871      6B5F7400 
 3872              	.LASF146:
 3873 03ef 706F7274 		.ascii	"port_enable\000"
 3873      5F656E61 
 3873      626C6500 
 3874              	.LASF7:
 3875 03fb 5F5F696E 		.ascii	"__int32_t\000"
 3875      7433325F 
 3875      7400
 3876              	.LASF158:
 3877 0405 63685654 		.ascii	"chVTObjectInit\000"
 3877      4F626A65 
 3877      6374496E 
 3877      697400
ARM GAS  /tmp/cce17jkg.s 			page 73


 3878              	.LASF90:
 3879 0414 73746B61 		.ascii	"stkalign_t\000"
 3879      6C69676E 
 3879      5F7400
 3880              	.LASF42:
 3881 041f 705F7761 		.ascii	"p_waiting\000"
 3881      6974696E 
 3881      6700
 3882              	.LASF88:
 3883 0429 73697A65 		.ascii	"sizetype\000"
 3883      74797065 
 3883      00
 3884              	.LASF50:
 3885 0432 74687265 		.ascii	"thread_reference_t\000"
 3885      61645F72 
 3885      65666572 
 3885      656E6365 
 3885      5F7400
 3886              	.LASF73:
 3887 0445 63685F76 		.ascii	"ch_virtual_timers_list\000"
 3887      69727475 
 3887      616C5F74 
 3887      696D6572 
 3887      735F6C69 
 3888              	.LASF171:
 3889 045c 74657374 		.ascii	"testsys1\000"
 3889      73797331 
 3889      00
 3890              	.LASF172:
 3891 0465 74657374 		.ascii	"testsys2\000"
 3891      73797332 
 3891      00
 3892              	.LASF173:
 3893 046e 74657374 		.ascii	"testsys3\000"
 3893      73797333 
 3893      00
 3894              	.LASF99:
 3895 0477 74625F70 		.ascii	"tb_ptr\000"
 3895      747200
 3896              	.LASF97:
 3897 047e 63685F73 		.ascii	"ch_swc_event_t\000"
 3897      77635F65 
 3897      76656E74 
 3897      5F7400
 3898              	.LASF74:
 3899 048d 76745F6C 		.ascii	"vt_lasttime\000"
 3899      61737474 
 3899      696D6500 
 3900              	.LASF162:
 3901 0499 63685654 		.ascii	"chVTSetI\000"
 3901      53657449 
 3901      00
 3902              	.LASF36:
 3903 04a2 705F6F6C 		.ascii	"p_older\000"
 3903      64657200 
 3904              	.LASF60:
 3905 04aa 725F6374 		.ascii	"r_ctx\000"
ARM GAS  /tmp/cce17jkg.s 			page 74


 3905      7800
 3906              	.LASF138:
 3907 04b0 706F7274 		.ascii	"port_irq_enabled\000"
 3907      5F697271 
 3907      5F656E61 
 3907      626C6564 
 3907      00
 3908              	.LASF165:
 3909 04c1 63685654 		.ascii	"chVTSet\000"
 3909      53657400 
 3910              	.LASF148:
 3911 04c9 63685379 		.ascii	"chSysSuspend\000"
 3911      73537573 
 3911      70656E64 
 3911      00
 3912              	.LASF103:
 3913 04d6 746D5F63 		.ascii	"tm_calibration_t\000"
 3913      616C6962 
 3913      72617469 
 3913      6F6E5F74 
 3913      00
 3914              	.LASF132:
 3915 04e7 73657475 		.ascii	"setup\000"
 3915      7000
 3916              	.LASF63:
 3917 04ed 725F6375 		.ascii	"r_current\000"
 3917      7272656E 
 3917      7400
 3918              	.LASF62:
 3919 04f7 725F6F6C 		.ascii	"r_older\000"
 3919      64657200 
 3920              	.LASF12:
 3921 04ff 5F5F7569 		.ascii	"__uint64_t\000"
 3921      6E743634 
 3921      5F7400
 3922              	.LASF107:
 3923 050a 63756D75 		.ascii	"cumulative\000"
 3923      6C617469 
 3923      766500
 3924              	.LASF135:
 3925 0515 5F5F6469 		.ascii	"__disable_irq\000"
 3925      7361626C 
 3925      655F6972 
 3925      7100
 3926              	.LASF100:
 3927 0523 74625F62 		.ascii	"tb_buffer\000"
 3927      75666665 
 3927      7200
 3928              	.LASF65:
 3929 052d 76697274 		.ascii	"virtual_timer_t\000"
 3929      75616C5F 
 3929      74696D65 
 3929      725F7400 
 3930              	.LASF32:
 3931 053d 705F7072 		.ascii	"p_prev\000"
 3931      657600
 3932              	.LASF134:
ARM GAS  /tmp/cce17jkg.s 			page 75


 3933 0544 65786563 		.ascii	"execute\000"
 3933      75746500 
 3934              	.LASF24:
 3935 054c 74707269 		.ascii	"tprio_t\000"
 3935      6F5F7400 
 3936              	.LASF155:
 3937 0554 63685379 		.ascii	"chSysUnlockFromISR\000"
 3937      73556E6C 
 3937      6F636B46 
 3937      726F6D49 
 3937      535200
 3938              	.LASF110:
 3939 0567 6E5F6374 		.ascii	"n_ctxswc\000"
 3939      78737763 
 3939      00
 3940              	.LASF139:
 3941 0570 5F426F6F 		.ascii	"_Bool\000"
 3941      6C00
 3942              	.LASF15:
 3943 0576 696E7433 		.ascii	"int32_t\000"
 3943      325F7400 
 3944              	.LASF4:
 3945 057e 756E7369 		.ascii	"unsigned char\000"
 3945      676E6564 
 3945      20636861 
 3945      7200
 3946              	.LASF163:
 3947 058c 64656C61 		.ascii	"delay\000"
 3947      7900
 3948              	.LASF39:
 3949 0592 705F7374 		.ascii	"p_state\000"
 3949      61746500 
 3950              	.LASF5:
 3951 059a 73686F72 		.ascii	"short int\000"
 3951      7420696E 
 3951      7400
 3952              	.LASF59:
 3953 05a4 725F7072 		.ascii	"r_prio\000"
 3953      696F00
 3954              	.LASF120:
 3955 05ab 65776D61 		.ascii	"ewmask\000"
 3955      736B00
 3956              	.LASF31:
 3957 05b2 705F6E65 		.ascii	"p_next\000"
 3957      787400
 3958              	.LASF176:
 3959 05b9 2F686F6D 		.ascii	"/home/efe/ChibiOS/test/rt/testsys.c\000"
 3959      652F6566 
 3959      652F4368 
 3959      6962694F 
 3959      532F7465 
 3960              	.LASF40:
 3961 05dd 705F666C 		.ascii	"p_flags\000"
 3961      61677300 
 3962              	.LASF153:
 3963 05e5 5F5F6675 		.ascii	"__func__\000"
 3963      6E635F5F 
ARM GAS  /tmp/cce17jkg.s 			page 76


 3963      00
 3964              	.LASF49:
 3965 05ee 705F7374 		.ascii	"p_stats\000"
 3965      61747300 
 3966              	.LASF150:
 3967 05f6 63685379 		.ascii	"chSysLock\000"
 3967      734C6F63 
 3967      6B00
 3968              	.LASF159:
 3969 0600 63685654 		.ascii	"chVTIsArmedI\000"
 3969      49734172 
 3969      6D656449 
 3969      00
 3970              	.LASF114:
 3971 060d 7264796D 		.ascii	"rdymsg\000"
 3971      736700
 3972              	.LASF66:
 3973 0614 63685F76 		.ascii	"ch_virtual_timer\000"
 3973      69727475 
 3973      616C5F74 
 3973      696D6572 
 3973      00
 3974              	.LASF161:
 3975 0625 63685654 		.ascii	"chVTResetI\000"
 3975      52657365 
 3975      744900
 3976              	.LASF130:
 3977 0630 74657374 		.ascii	"testcase\000"
 3977      63617365 
 3977      00
 3978              	.LASF121:
 3979 0639 63685F73 		.ascii	"ch_semaphore\000"
 3979      656D6170 
 3979      686F7265 
 3979      00
 3980              	.LASF45:
 3981 0646 705F6570 		.ascii	"p_epending\000"
 3981      656E6469 
 3981      6E6700
 3982              	.LASF16:
 3983 0651 75696E74 		.ascii	"uint32_t\000"
 3983      33325F74 
 3983      00
 3984              	.LASF119:
 3985 065a 77746D74 		.ascii	"wtmtxp\000"
 3985      787000
 3986              	.LASF58:
 3987 0661 725F7175 		.ascii	"r_queue\000"
 3987      65756500 
 3988              	.LASF69:
 3989 0669 76745F64 		.ascii	"vt_delta\000"
 3989      656C7461 
 3989      00
 3990              	.LASF53:
 3991 0672 63685F74 		.ascii	"ch_threads_list\000"
 3991      68726561 
 3991      64735F6C 
ARM GAS  /tmp/cce17jkg.s 			page 77


 3991      69737400 
 3992              	.LASF10:
 3993 0682 6C6F6E67 		.ascii	"long unsigned int\000"
 3993      20756E73 
 3993      69676E65 
 3993      6420696E 
 3993      7400
 3994              	.LASF128:
 3995 0694 63686172 		.ascii	"char\000"
 3995      00
 3996              	.LASF143:
 3997 0699 706F7274 		.ascii	"port_unlock_from_isr\000"
 3997      5F756E6C 
 3997      6F636B5F 
 3997      66726F6D 
 3997      5F697372 
 3998              	.LASF30:
 3999 06ae 74687265 		.ascii	"thread_t\000"
 3999      61645F74 
 3999      00
 4000              	.LASF104:
 4001 06b7 62657374 		.ascii	"best\000"
 4001      00
 4002              	.LASF127:
 4003 06bc 6D5F6E65 		.ascii	"m_next\000"
 4003      787400
 4004              	.LASF29:
 4005 06c3 73797374 		.ascii	"systime_t\000"
 4005      696D655F 
 4005      7400
 4006              	.LASF47:
 4007 06cd 705F7265 		.ascii	"p_realprio\000"
 4007      616C7072 
 4007      696F00
 4008              	.LASF64:
 4009 06d8 76746675 		.ascii	"vtfunc_t\000"
 4009      6E635F74 
 4009      00
 4010              	.LASF9:
 4011 06e1 5F5F7569 		.ascii	"__uint32_t\000"
 4011      6E743332 
 4011      5F7400
 4012              	.LASF178:
 4013 06ec 5F5F7365 		.ascii	"__set_BASEPRI\000"
 4013      745F4241 
 4013      53455052 
 4013      4900
 4014              	.LASF77:
 4015 06fa 70616E69 		.ascii	"panic_msg\000"
 4015      635F6D73 
 4015      6700
 4016              	.LASF102:
 4017 0704 6F666673 		.ascii	"offset\000"
 4017      657400
 4018              	.LASF91:
 4019 070b 636F6E74 		.ascii	"context\000"
 4019      65787400 
ARM GAS  /tmp/cce17jkg.s 			page 78


 4020              	.LASF81:
 4021 0713 63685F73 		.ascii	"ch_system_t\000"
 4021      79737465 
 4021      6D5F7400 
 4022              	.LASF167:
 4023 071f 73797331 		.ascii	"sys1_execute\000"
 4023      5F657865 
 4023      63757465 
 4023      00
 4024              	.LASF18:
 4025 072c 7274636E 		.ascii	"rtcnt_t\000"
 4025      745F7400 
 4026              	.LASF142:
 4027 0734 706F7274 		.ascii	"port_lock_from_isr\000"
 4027      5F6C6F63 
 4027      6B5F6672 
 4027      6F6D5F69 
 4027      737200
 4028              	.LASF71:
 4029 0747 76745F70 		.ascii	"vt_par\000"
 4029      617200
 4030              	.LASF164:
 4031 074e 76746675 		.ascii	"vtfunc\000"
 4031      6E6300
 4032              	.LASF54:
 4033 0755 74687265 		.ascii	"threads_queue_t\000"
 4033      6164735F 
 4033      71756575 
 4033      655F7400 
 4034              	.LASF124:
 4035 0765 63685F6D 		.ascii	"ch_mutex\000"
 4035      75746578 
 4035      00
 4036              	.LASF41:
 4037 076e 705F7265 		.ascii	"p_refs\000"
 4037      667300
 4038              	.LASF78:
 4039 0775 6973725F 		.ascii	"isr_cnt\000"
 4039      636E7400 
 4040              	.LASF83:
 4041 077d 726C6973 		.ascii	"rlist\000"
 4041      7400
 4042              	.LASF160:
 4043 0783 63685654 		.ascii	"chVTIsArmed\000"
 4043      49734172 
 4043      6D656400 
 4044              	.LASF14:
 4045 078f 75696E74 		.ascii	"uint8_t\000"
 4045      385F7400 
 4046              	.LASF156:
 4047 0797 63685379 		.ascii	"chSysUnconditionalLock\000"
 4047      73556E63 
 4047      6F6E6469 
 4047      74696F6E 
 4047      616C4C6F 
 4048              	.LASF154:
 4049 07ae 63685379 		.ascii	"chSysLockFromISR\000"
ARM GAS  /tmp/cce17jkg.s 			page 79


 4049      734C6F63 
 4049      6B46726F 
 4049      6D495352 
 4049      00
 4050              	.LASF37:
 4051 07bf 705F6E61 		.ascii	"p_name\000"
 4051      6D6500
 4052              	.LASF51:
 4053 07c6 74687265 		.ascii	"threads_list_t\000"
 4053      6164735F 
 4053      6C697374 
 4053      5F7400
 4054              	.LASF21:
 4055 07d5 746D6F64 		.ascii	"tmode_t\000"
 4055      655F7400 
 4056              	.LASF80:
 4057 07dd 74726163 		.ascii	"trace_buffer\000"
 4057      655F6275 
 4057      66666572 
 4057      00
 4058              	.LASF151:
 4059 07ea 63685379 		.ascii	"chSysUnlock\000"
 4059      73556E6C 
 4059      6F636B00 
 4060              	.LASF44:
 4061 07f6 705F6D73 		.ascii	"p_msg\000"
 4061      6700
 4062              	.LASF111:
 4063 07fc 6D5F6372 		.ascii	"m_crit_thd\000"
 4063      69745F74 
 4063      686400
 4064              	.LASF126:
 4065 0807 6D5F6F77 		.ascii	"m_owner\000"
 4065      6E657200 
 4066              	.LASF152:
 4067 080f 72657375 		.ascii	"result\000"
 4067      6C7400
 4068              	.LASF168:
 4069 0816 73797332 		.ascii	"sys2_execute\000"
 4069      5F657865 
 4069      63757465 
 4069      00
 4070              	.LASF95:
 4071 0823 73655F77 		.ascii	"se_wtobjp\000"
 4071      746F626A 
 4071      7000
 4072              	.LASF34:
 4073 082d 705F6374 		.ascii	"p_ctx\000"
 4073      7800
 4074              	.LASF70:
 4075 0833 76745F66 		.ascii	"vt_func\000"
 4075      756E6300 
 4076              		.ident	"GCC: (4.8.4-1+11-1) 4.8.4 20141219 (release)"
ARM GAS  /tmp/cce17jkg.s 			page 80


DEFINED SYMBOLS
                            *ABS*:0000000000000000 testsys.c
     /tmp/cce17jkg.s:19     .text.port_get_irq_status:0000000000000000 $t
     /tmp/cce17jkg.s:24     .text.port_get_irq_status:0000000000000000 port_get_irq_status
     /tmp/cce17jkg.s:60     .text.port_irq_enabled:0000000000000000 $t
     /tmp/cce17jkg.s:65     .text.port_irq_enabled:0000000000000000 port_irq_enabled
     /tmp/cce17jkg.s:91     .text.port_lock:0000000000000000 $t
     /tmp/cce17jkg.s:96     .text.port_lock:0000000000000000 port_lock
     /tmp/cce17jkg.s:125    .text.port_unlock:0000000000000000 $t
     /tmp/cce17jkg.s:130    .text.port_unlock:0000000000000000 port_unlock
     /tmp/cce17jkg.s:159    .text.port_lock_from_isr:0000000000000000 $t
     /tmp/cce17jkg.s:164    .text.port_lock_from_isr:0000000000000000 port_lock_from_isr
     /tmp/cce17jkg.s:182    .text.port_unlock_from_isr:0000000000000000 $t
     /tmp/cce17jkg.s:187    .text.port_unlock_from_isr:0000000000000000 port_unlock_from_isr
     /tmp/cce17jkg.s:205    .text.port_disable:0000000000000000 $t
     /tmp/cce17jkg.s:210    .text.port_disable:0000000000000000 port_disable
     /tmp/cce17jkg.s:232    .text.port_suspend:0000000000000000 $t
     /tmp/cce17jkg.s:237    .text.port_suspend:0000000000000000 port_suspend
     /tmp/cce17jkg.s:275    .text.port_enable:0000000000000000 $t
     /tmp/cce17jkg.s:280    .text.port_enable:0000000000000000 port_enable
     /tmp/cce17jkg.s:318    .text.chSysDisable:0000000000000000 $t
     /tmp/cce17jkg.s:323    .text.chSysDisable:0000000000000000 chSysDisable
     /tmp/cce17jkg.s:344    .text.chSysSuspend:0000000000000000 $t
     /tmp/cce17jkg.s:349    .text.chSysSuspend:0000000000000000 chSysSuspend
     /tmp/cce17jkg.s:369    .text.chSysEnable:0000000000000000 $t
     /tmp/cce17jkg.s:374    .text.chSysEnable:0000000000000000 chSysEnable
     /tmp/cce17jkg.s:394    .text.chSysLock:0000000000000000 $t
     /tmp/cce17jkg.s:399    .text.chSysLock:0000000000000000 chSysLock
     /tmp/cce17jkg.s:421    .text.chSysUnlock:0000000000000000 $t
     /tmp/cce17jkg.s:426    .text.chSysUnlock:0000000000000000 chSysUnlock
     /tmp/cce17jkg.s:465    .text.chSysUnlock:0000000000000030 $d
     /tmp/cce17jkg.s:1155   .rodata.__func__.5925:0000000000000000 __func__.5925
     /tmp/cce17jkg.s:471    .text.chSysLockFromISR:0000000000000000 $t
     /tmp/cce17jkg.s:476    .text.chSysLockFromISR:0000000000000000 chSysLockFromISR
     /tmp/cce17jkg.s:498    .text.chSysUnlockFromISR:0000000000000000 $t
     /tmp/cce17jkg.s:503    .text.chSysUnlockFromISR:0000000000000000 chSysUnlockFromISR
     /tmp/cce17jkg.s:525    .text.chSysUnconditionalLock:0000000000000000 $t
     /tmp/cce17jkg.s:530    .text.chSysUnconditionalLock:0000000000000000 chSysUnconditionalLock
     /tmp/cce17jkg.s:557    .text.chSysUnconditionalUnlock:0000000000000000 $t
     /tmp/cce17jkg.s:562    .text.chSysUnconditionalUnlock:0000000000000000 chSysUnconditionalUnlock
     /tmp/cce17jkg.s:591    .text.chVTObjectInit:0000000000000000 $t
     /tmp/cce17jkg.s:596    .text.chVTObjectInit:0000000000000000 chVTObjectInit
     /tmp/cce17jkg.s:619    .text.chVTIsArmedI:0000000000000000 $t
     /tmp/cce17jkg.s:624    .text.chVTIsArmedI:0000000000000000 chVTIsArmedI
     /tmp/cce17jkg.s:655    .text.chVTIsArmed:0000000000000000 $t
     /tmp/cce17jkg.s:660    .text.chVTIsArmed:0000000000000000 chVTIsArmed
     /tmp/cce17jkg.s:692    .text.chVTResetI:0000000000000000 $t
     /tmp/cce17jkg.s:697    .text.chVTResetI:0000000000000000 chVTResetI
     /tmp/cce17jkg.s:727    .text.chVTSetI:0000000000000000 $t
     /tmp/cce17jkg.s:732    .text.chVTSetI:0000000000000000 chVTSetI
     /tmp/cce17jkg.s:764    .text.chVTSet:0000000000000000 $t
     /tmp/cce17jkg.s:769    .text.chVTSet:0000000000000000 chVTSet
     /tmp/cce17jkg.s:802    .text.vtcb:0000000000000000 $t
     /tmp/cce17jkg.s:807    .text.vtcb:0000000000000000 vtcb
     /tmp/cce17jkg.s:842    .text.sys1_execute:0000000000000000 $t
     /tmp/cce17jkg.s:847    .text.sys1_execute:0000000000000000 sys1_execute
     /tmp/cce17jkg.s:926    .text.sys1_execute:000000000000008c $d
ARM GAS  /tmp/cce17jkg.s 			page 81


     /tmp/cce17jkg.s:939    .rodata.testsys1:0000000000000000 testsys1
     /tmp/cce17jkg.s:932    .rodata:0000000000000000 $d
     /tmp/cce17jkg.s:936    .rodata.testsys1:0000000000000000 $d
     /tmp/cce17jkg.s:945    .text.sys2_execute:0000000000000000 $t
     /tmp/cce17jkg.s:950    .text.sys2_execute:0000000000000000 sys2_execute
     /tmp/cce17jkg.s:982    .rodata.testsys2:0000000000000000 testsys2
     /tmp/cce17jkg.s:979    .rodata.testsys2:0000000000000000 $d
     /tmp/cce17jkg.s:988    .text.sys3_execute:0000000000000000 $t
     /tmp/cce17jkg.s:993    .text.sys3_execute:0000000000000000 sys3_execute
     /tmp/cce17jkg.s:1136   .rodata.testsys3:0000000000000000 testsys3
     /tmp/cce17jkg.s:1133   .rodata.testsys3:0000000000000000 $d
     /tmp/cce17jkg.s:1146   .rodata.patternsys:0000000000000000 patternsys
     /tmp/cce17jkg.s:1143   .rodata.patternsys:0000000000000000 $d
     /tmp/cce17jkg.s:1152   .rodata.__func__.5925:0000000000000000 $d
                     .debug_frame:0000000000000010 $d
     /tmp/cce17jkg.s:470    .text.chSysUnlock:0000000000000038 $t

UNDEFINED SYMBOLS
_dbg_check_disable
_dbg_check_suspend
_dbg_check_enable
_stats_start_measure_crit_thd
_dbg_check_lock
_dbg_check_unlock
_stats_stop_measure_crit_thd
chSysHalt
ch
_stats_start_measure_crit_isr
_dbg_check_lock_from_isr
_dbg_check_unlock_from_isr
_stats_stop_measure_crit_isr
chDbgCheckClassI
chVTDoResetI
chVTDoSetI
chSysGetStatusAndLockX
chSysRestoreStatusX
chThdSleep
_test_assert
chSysIntegrityCheckI
