ARM GAS  /tmp/ccXThCy4.s 			page 1


   1              		.syntax unified
   2              		.cpu cortex-m4
   3              		.fpu softvfp
   4              		.eabi_attribute 20, 1
   5              		.eabi_attribute 21, 1
   6              		.eabi_attribute 23, 3
   7              		.eabi_attribute 24, 1
   8              		.eabi_attribute 25, 1
   9              		.eabi_attribute 26, 1
  10              		.eabi_attribute 30, 6
  11              		.eabi_attribute 34, 1
  12              		.eabi_attribute 18, 4
  13              		.thumb
  14              		.file	"testevt.c"
  15              		.text
  16              	.Ltext0:
  17              		.cfi_sections	.debug_frame
  18              		.section	.text.port_lock,"ax",%progbits
  19              		.align	2
  20              		.p2align 4,,15
  21              		.thumb
  22              		.thumb_func
  23              		.type	port_lock, %function
  24              	port_lock:
  25              	.LFB127:
  26              		.file 1 "/home/efe/ChibiOS/os/rt/ports/ARMCMx/chcore_v7m.h"
  27              		.loc 1 456 0
  28              		.cfi_startproc
  29              		@ args = 0, pretend = 0, frame = 8
  30              		@ frame_needed = 0, uses_anonymous_args = 0
  31              		@ link register save eliminated.
  32 0000 82B0     		sub	sp, sp, #8
  33              		.cfi_def_cfa_offset 8
  34 0002 2023     		movs	r3, #32
  35 0004 0193     		str	r3, [sp, #4]
  36              	.LBB6:
  37              	.LBB7:
  38              		.file 2 "/home/efe/ChibiOS/os/ext/CMSIS/include/core_cmFunc.h"
  39              		.loc 2 548 0
  40 0006 019B     		ldr	r3, [sp, #4]
  41              	@ 548 "/home/efe/ChibiOS/os/ext/CMSIS/include/core_cmFunc.h" 1
  42 0008 83F31188 		MSR basepri, r3
  43              	@ 0 "" 2
  44              		.thumb
  45              	.LBE7:
  46              	.LBE6:
  47              		.loc 1 463 0
  48 000c 02B0     		add	sp, sp, #8
  49              		@ sp needed
  50 000e 7047     		bx	lr
  51              		.cfi_endproc
  52              	.LFE127:
  53              		.size	port_lock, .-port_lock
  54              		.section	.text.port_unlock,"ax",%progbits
  55              		.align	2
  56              		.p2align 4,,15
  57              		.thumb
ARM GAS  /tmp/ccXThCy4.s 			page 2


  58              		.thumb_func
  59              		.type	port_unlock, %function
  60              	port_unlock:
  61              	.LFB128:
  62              		.loc 1 470 0
  63              		.cfi_startproc
  64              		@ args = 0, pretend = 0, frame = 8
  65              		@ frame_needed = 0, uses_anonymous_args = 0
  66              		@ link register save eliminated.
  67 0000 82B0     		sub	sp, sp, #8
  68              		.cfi_def_cfa_offset 8
  69 0002 0023     		movs	r3, #0
  70 0004 0193     		str	r3, [sp, #4]
  71              	.LBB8:
  72              	.LBB9:
  73              		.loc 2 548 0
  74 0006 019B     		ldr	r3, [sp, #4]
  75              	@ 548 "/home/efe/ChibiOS/os/ext/CMSIS/include/core_cmFunc.h" 1
  76 0008 83F31188 		MSR basepri, r3
  77              	@ 0 "" 2
  78              		.thumb
  79              	.LBE9:
  80              	.LBE8:
  81              		.loc 1 477 0
  82 000c 02B0     		add	sp, sp, #8
  83              		@ sp needed
  84 000e 7047     		bx	lr
  85              		.cfi_endproc
  86              	.LFE128:
  87              		.size	port_unlock, .-port_unlock
  88              		.section	.text.st_lld_get_counter,"ax",%progbits
  89              		.align	2
  90              		.p2align 4,,15
  91              		.thumb
  92              		.thumb_func
  93              		.type	st_lld_get_counter, %function
  94              	st_lld_get_counter:
  95              	.LFB136:
  96              		.file 3 "/home/efe/ChibiOS/os/hal/ports/STM32/LLD/TIMv1/st_lld.h"
  97              		.loc 3 139 0
  98              		.cfi_startproc
  99              		@ args = 0, pretend = 0, frame = 0
 100              		@ frame_needed = 0, uses_anonymous_args = 0
 101              		@ link register save eliminated.
 102              		.loc 3 141 0
 103 0000 4FF08043 		mov	r3, #1073741824
 104 0004 5B6A     		ldr	r3, [r3, #36]
 105              		.loc 3 142 0
 106 0006 1846     		mov	r0, r3
 107 0008 7047     		bx	lr
 108              		.cfi_endproc
 109              	.LFE136:
 110              		.size	st_lld_get_counter, .-st_lld_get_counter
 111 000a 00BFAFF3 		.section	.text.port_timer_get_time,"ax",%progbits
 111      0080
 112              		.align	2
 113              		.p2align 4,,15
ARM GAS  /tmp/ccXThCy4.s 			page 3


 114              		.thumb
 115              		.thumb_func
 116              		.type	port_timer_get_time, %function
 117              	port_timer_get_time:
 118              	.LFB145:
 119              		.file 4 "/home/efe/ChibiOS/os/rt/ports/ARMCMx/chcore_timer.h"
 120              		.loc 4 105 0
 121              		.cfi_startproc
 122              		@ args = 0, pretend = 0, frame = 0
 123              		@ frame_needed = 0, uses_anonymous_args = 0
 124 0000 08B5     		push	{r3, lr}
 125              		.cfi_def_cfa_offset 8
 126              		.cfi_offset 3, -8
 127              		.cfi_offset 14, -4
 128              		.loc 4 107 0
 129 0002 FFF7FEFF 		bl	st_lld_get_counter
 130 0006 0346     		mov	r3, r0
 131              		.loc 4 108 0
 132 0008 1846     		mov	r0, r3
 133 000a 08BD     		pop	{r3, pc}
 134              		.cfi_endproc
 135              	.LFE145:
 136              		.size	port_timer_get_time, .-port_timer_get_time
 137              		.section	.text.chSysLock,"ax",%progbits
 138              		.align	2
 139              		.p2align 4,,15
 140              		.thumb
 141              		.thumb_func
 142              		.type	chSysLock, %function
 143              	chSysLock:
 144              	.LFB167:
 145              		.file 5 "/home/efe/ChibiOS/os/rt/include/chsys.h"
 146              		.loc 5 346 0
 147              		.cfi_startproc
 148              		@ args = 0, pretend = 0, frame = 0
 149              		@ frame_needed = 0, uses_anonymous_args = 0
 150 0000 08B5     		push	{r3, lr}
 151              		.cfi_def_cfa_offset 8
 152              		.cfi_offset 3, -8
 153              		.cfi_offset 14, -4
 154              		.loc 5 348 0
 155 0002 FFF7FEFF 		bl	port_lock
 156              		.loc 5 349 0
 157 0006 FFF7FEFF 		bl	_stats_start_measure_crit_thd
 158              		.loc 5 350 0
 159 000a FFF7FEFF 		bl	_dbg_check_lock
 160              		.loc 5 351 0
 161 000e 08BD     		pop	{r3, pc}
 162              		.cfi_endproc
 163              	.LFE167:
 164              		.size	chSysLock, .-chSysLock
 165              		.section	.text.chSysUnlock,"ax",%progbits
 166              		.align	2
 167              		.p2align 4,,15
 168              		.thumb
 169              		.thumb_func
 170              		.type	chSysUnlock, %function
ARM GAS  /tmp/ccXThCy4.s 			page 4


 171              	chSysUnlock:
 172              	.LFB168:
 173              		.loc 5 358 0
 174              		.cfi_startproc
 175              		@ args = 0, pretend = 0, frame = 0
 176              		@ frame_needed = 0, uses_anonymous_args = 0
 177 0000 08B5     		push	{r3, lr}
 178              		.cfi_def_cfa_offset 8
 179              		.cfi_offset 3, -8
 180              		.cfi_offset 14, -4
 181              		.loc 5 360 0
 182 0002 FFF7FEFF 		bl	_dbg_check_unlock
 183              		.loc 5 361 0
 184 0006 FFF7FEFF 		bl	_stats_stop_measure_crit_thd
 185              		.loc 5 367 0
 186 000a 094B     		ldr	r3, .L10
 187 000c 1A68     		ldr	r2, [r3]
 188 000e 084B     		ldr	r3, .L10
 189 0010 9A42     		cmp	r2, r3
 190 0012 0AD0     		beq	.L9
 191              		.loc 5 367 0 is_stmt 0 discriminator 1
 192 0014 064B     		ldr	r3, .L10
 193 0016 9B69     		ldr	r3, [r3, #24]
 194 0018 9A68     		ldr	r2, [r3, #8]
 195 001a 054B     		ldr	r3, .L10
 196 001c 1B68     		ldr	r3, [r3]
 197 001e 9B68     		ldr	r3, [r3, #8]
 198 0020 9A42     		cmp	r2, r3
 199 0022 02D2     		bcs	.L9
 200 0024 0348     		ldr	r0, .L10+4
 201 0026 FFF7FEFF 		bl	chSysHalt
 202              	.L9:
 203              		.loc 5 371 0 is_stmt 1
 204 002a FFF7FEFF 		bl	port_unlock
 205              		.loc 5 372 0
 206 002e 08BD     		pop	{r3, pc}
 207              	.L11:
 208              		.align	2
 209              	.L10:
 210 0030 00000000 		.word	ch
 211 0034 00000000 		.word	__func__.5925
 212              		.cfi_endproc
 213              	.LFE168:
 214              		.size	chSysUnlock, .-chSysUnlock
 215 0038 AFF30080 		.section	.text.chVTGetSystemTimeX,"ax",%progbits
 215      AFF30080 
 216              		.align	2
 217              		.p2align 4,,15
 218              		.thumb
 219              		.thumb_func
 220              		.type	chVTGetSystemTimeX, %function
 221              	chVTGetSystemTimeX:
 222              	.LFB175:
 223              		.file 6 "/home/efe/ChibiOS/os/rt/include/chvt.h"
 224              		.loc 6 228 0
 225              		.cfi_startproc
 226              		@ args = 0, pretend = 0, frame = 0
ARM GAS  /tmp/ccXThCy4.s 			page 5


 227              		@ frame_needed = 0, uses_anonymous_args = 0
 228 0000 08B5     		push	{r3, lr}
 229              		.cfi_def_cfa_offset 8
 230              		.cfi_offset 3, -8
 231              		.cfi_offset 14, -4
 232              		.loc 6 233 0
 233 0002 FFF7FEFF 		bl	port_timer_get_time
 234 0006 0346     		mov	r3, r0
 235              		.loc 6 235 0
 236 0008 1846     		mov	r0, r3
 237 000a 08BD     		pop	{r3, pc}
 238              		.cfi_endproc
 239              	.LFE175:
 240              		.size	chVTGetSystemTimeX, .-chVTGetSystemTimeX
 241              		.section	.text.chVTGetSystemTime,"ax",%progbits
 242              		.align	2
 243              		.p2align 4,,15
 244              		.thumb
 245              		.thumb_func
 246              		.type	chVTGetSystemTime, %function
 247              	chVTGetSystemTime:
 248              	.LFB176:
 249              		.loc 6 247 0
 250              		.cfi_startproc
 251              		@ args = 0, pretend = 0, frame = 8
 252              		@ frame_needed = 0, uses_anonymous_args = 0
 253 0000 00B5     		push	{lr}
 254              		.cfi_def_cfa_offset 4
 255              		.cfi_offset 14, -4
 256 0002 83B0     		sub	sp, sp, #12
 257              		.cfi_def_cfa_offset 16
 258              		.loc 6 250 0
 259 0004 FFF7FEFF 		bl	chSysLock
 260              		.loc 6 251 0
 261 0008 FFF7FEFF 		bl	chVTGetSystemTimeX
 262 000c 0190     		str	r0, [sp, #4]
 263              		.loc 6 252 0
 264 000e FFF7FEFF 		bl	chSysUnlock
 265              		.loc 6 254 0
 266 0012 019B     		ldr	r3, [sp, #4]
 267              		.loc 6 255 0
 268 0014 1846     		mov	r0, r3
 269 0016 03B0     		add	sp, sp, #12
 270              		@ sp needed
 271 0018 5DF804FB 		ldr	pc, [sp], #4
 272              		.cfi_endproc
 273              	.LFE176:
 274              		.size	chVTGetSystemTime, .-chVTGetSystemTime
 275 001c AFF30080 		.section	.text.chThdGetSelfX,"ax",%progbits
 276              		.align	2
 277              		.p2align 4,,15
 278              		.thumb
 279              		.thumb_func
 280              		.type	chThdGetSelfX, %function
 281              	chThdGetSelfX:
 282              	.LFB188:
 283              		.file 7 "/home/efe/ChibiOS/os/rt/include/chthreads.h"
ARM GAS  /tmp/ccXThCy4.s 			page 6


 284              		.loc 7 174 0
 285              		.cfi_startproc
 286              		@ args = 0, pretend = 0, frame = 0
 287              		@ frame_needed = 0, uses_anonymous_args = 0
 288              		@ link register save eliminated.
 289              		.loc 7 176 0
 290 0000 014B     		ldr	r3, .L18
 291 0002 9B69     		ldr	r3, [r3, #24]
 292              		.loc 7 177 0
 293 0004 1846     		mov	r0, r3
 294 0006 7047     		bx	lr
 295              	.L19:
 296              		.align	2
 297              	.L18:
 298 0008 00000000 		.word	ch
 299              		.cfi_endproc
 300              	.LFE188:
 301              		.size	chThdGetSelfX, .-chThdGetSelfX
 302 000c AFF30080 		.section	.text.chThdGetPriorityX,"ax",%progbits
 303              		.align	2
 304              		.p2align 4,,15
 305              		.thumb
 306              		.thumb_func
 307              		.type	chThdGetPriorityX, %function
 308              	chThdGetPriorityX:
 309              	.LFB189:
 310              		.loc 7 187 0
 311              		.cfi_startproc
 312              		@ args = 0, pretend = 0, frame = 0
 313              		@ frame_needed = 0, uses_anonymous_args = 0
 314 0000 08B5     		push	{r3, lr}
 315              		.cfi_def_cfa_offset 8
 316              		.cfi_offset 3, -8
 317              		.cfi_offset 14, -4
 318              		.loc 7 189 0
 319 0002 FFF7FEFF 		bl	chThdGetSelfX
 320 0006 0346     		mov	r3, r0
 321 0008 9B68     		ldr	r3, [r3, #8]
 322              		.loc 7 190 0
 323 000a 1846     		mov	r0, r3
 324 000c 08BD     		pop	{r3, pc}
 325              		.cfi_endproc
 326              	.LFE189:
 327              		.size	chThdGetPriorityX, .-chThdGetPriorityX
 328 000e 00BF     		.section	.text.chEvtObjectInit,"ax",%progbits
 329              		.align	2
 330              		.p2align 4,,15
 331              		.thumb
 332              		.thumb_func
 333              		.type	chEvtObjectInit, %function
 334              	chEvtObjectInit:
 335              	.LFB215:
 336              		.file 8 "/home/efe/ChibiOS/os/rt/include/chevents.h"
 337              		.loc 8 170 0
 338              		.cfi_startproc
 339              		@ args = 0, pretend = 0, frame = 8
 340              		@ frame_needed = 0, uses_anonymous_args = 0
ARM GAS  /tmp/ccXThCy4.s 			page 7


 341              		@ link register save eliminated.
 342 0000 82B0     		sub	sp, sp, #8
 343              		.cfi_def_cfa_offset 8
 344 0002 0190     		str	r0, [sp, #4]
 345              		.loc 8 172 0
 346 0004 019B     		ldr	r3, [sp, #4]
 347 0006 019A     		ldr	r2, [sp, #4]
 348 0008 1A60     		str	r2, [r3]
 349              		.loc 8 173 0
 350 000a 02B0     		add	sp, sp, #8
 351              		@ sp needed
 352 000c 7047     		bx	lr
 353              		.cfi_endproc
 354              	.LFE215:
 355              		.size	chEvtObjectInit, .-chEvtObjectInit
 356 000e 00BF     		.section	.text.chEvtRegisterMask,"ax",%progbits
 357              		.align	2
 358              		.p2align 4,,15
 359              		.thumb
 360              		.thumb_func
 361              		.type	chEvtRegisterMask, %function
 362              	chEvtRegisterMask:
 363              	.LFB216:
 364              		.loc 8 191 0
 365              		.cfi_startproc
 366              		@ args = 0, pretend = 0, frame = 16
 367              		@ frame_needed = 0, uses_anonymous_args = 0
 368 0000 00B5     		push	{lr}
 369              		.cfi_def_cfa_offset 4
 370              		.cfi_offset 14, -4
 371 0002 85B0     		sub	sp, sp, #20
 372              		.cfi_def_cfa_offset 24
 373 0004 0390     		str	r0, [sp, #12]
 374 0006 0291     		str	r1, [sp, #8]
 375 0008 0192     		str	r2, [sp, #4]
 376              		.loc 8 193 0
 377 000a 0398     		ldr	r0, [sp, #12]
 378 000c 0299     		ldr	r1, [sp, #8]
 379 000e 019A     		ldr	r2, [sp, #4]
 380 0010 4FF0FF33 		mov	r3, #-1
 381 0014 FFF7FEFF 		bl	chEvtRegisterMaskWithFlags
 382              		.loc 8 194 0
 383 0018 05B0     		add	sp, sp, #20
 384              		@ sp needed
 385 001a 5DF804FB 		ldr	pc, [sp], #4
 386              		.cfi_endproc
 387              	.LFE216:
 388              		.size	chEvtRegisterMask, .-chEvtRegisterMask
 389 001e 00BF     		.section	.text.chEvtIsListeningI,"ax",%progbits
 390              		.align	2
 391              		.p2align 4,,15
 392              		.thumb
 393              		.thumb_func
 394              		.type	chEvtIsListeningI, %function
 395              	chEvtIsListeningI:
 396              	.LFB218:
 397              		.loc 8 224 0
ARM GAS  /tmp/ccXThCy4.s 			page 8


 398              		.cfi_startproc
 399              		@ args = 0, pretend = 0, frame = 8
 400              		@ frame_needed = 0, uses_anonymous_args = 0
 401              		@ link register save eliminated.
 402 0000 82B0     		sub	sp, sp, #8
 403              		.cfi_def_cfa_offset 8
 404 0002 0190     		str	r0, [sp, #4]
 405              		.loc 8 226 0
 406 0004 019B     		ldr	r3, [sp, #4]
 407 0006 1A68     		ldr	r2, [r3]
 408 0008 019B     		ldr	r3, [sp, #4]
 409 000a 9A42     		cmp	r2, r3
 410 000c 0CBF     		ite	eq
 411 000e 0023     		moveq	r3, #0
 412 0010 0123     		movne	r3, #1
 413 0012 DBB2     		uxtb	r3, r3
 414              		.loc 8 227 0
 415 0014 1846     		mov	r0, r3
 416 0016 02B0     		add	sp, sp, #8
 417              		@ sp needed
 418 0018 7047     		bx	lr
 419              		.cfi_endproc
 420              	.LFE218:
 421              		.size	chEvtIsListeningI, .-chEvtIsListeningI
 422 001a 00BFAFF3 		.section	.text.chEvtBroadcast,"ax",%progbits
 422      0080
 423              		.align	2
 424              		.p2align 4,,15
 425              		.thumb
 426              		.thumb_func
 427              		.type	chEvtBroadcast, %function
 428              	chEvtBroadcast:
 429              	.LFB219:
 430              		.loc 8 237 0
 431              		.cfi_startproc
 432              		@ args = 0, pretend = 0, frame = 8
 433              		@ frame_needed = 0, uses_anonymous_args = 0
 434 0000 00B5     		push	{lr}
 435              		.cfi_def_cfa_offset 4
 436              		.cfi_offset 14, -4
 437 0002 83B0     		sub	sp, sp, #12
 438              		.cfi_def_cfa_offset 16
 439 0004 0190     		str	r0, [sp, #4]
 440              		.loc 8 239 0
 441 0006 0198     		ldr	r0, [sp, #4]
 442 0008 0021     		movs	r1, #0
 443 000a FFF7FEFF 		bl	chEvtBroadcastFlags
 444              		.loc 8 240 0
 445 000e 03B0     		add	sp, sp, #12
 446              		@ sp needed
 447 0010 5DF804FB 		ldr	pc, [sp], #4
 448              		.cfi_endproc
 449              	.LFE219:
 450              		.size	chEvtBroadcast, .-chEvtBroadcast
 451 0014 AFF30080 		.section	.data.es1,"aw",%progbits
 451      AFF30080 
 451      AFF30080 
ARM GAS  /tmp/ccXThCy4.s 			page 9


 452              		.align	2
 453              		.type	es1, %object
 454              		.size	es1, 4
 455              	es1:
 456 0000 00000000 		.word	es1
 457              		.section	.data.es2,"aw",%progbits
 458              		.align	2
 459              		.type	es2, %object
 460              		.size	es2, 4
 461              	es2:
 462 0000 00000000 		.word	es2
 463              		.section	.text.evt1_setup,"ax",%progbits
 464              		.align	2
 465              		.p2align 4,,15
 466              		.thumb
 467              		.thumb_func
 468              		.type	evt1_setup, %function
 469              	evt1_setup:
 470              	.LFB240:
 471              		.file 9 "/home/efe/ChibiOS/test/rt/testevt.c"
 472              		.loc 9 75 0
 473              		.cfi_startproc
 474              		@ args = 0, pretend = 0, frame = 0
 475              		@ frame_needed = 0, uses_anonymous_args = 0
 476 0000 08B5     		push	{r3, lr}
 477              		.cfi_def_cfa_offset 8
 478              		.cfi_offset 3, -8
 479              		.cfi_offset 14, -4
 480              		.loc 9 77 0
 481 0002 4FF0FF30 		mov	r0, #-1
 482 0006 FFF7FEFF 		bl	chEvtGetAndClearEvents
 483              		.loc 9 78 0
 484 000a 08BD     		pop	{r3, pc}
 485              		.cfi_endproc
 486              	.LFE240:
 487              		.size	evt1_setup, .-evt1_setup
 488 000c AFF30080 		.section	.text.h1,"ax",%progbits
 489              		.align	2
 490              		.p2align 4,,15
 491              		.thumb
 492              		.thumb_func
 493              		.type	h1, %function
 494              	h1:
 495              	.LFB241:
 496              		.loc 9 80 0
 497              		.cfi_startproc
 498              		@ args = 0, pretend = 0, frame = 8
 499              		@ frame_needed = 0, uses_anonymous_args = 0
 500 0000 00B5     		push	{lr}
 501              		.cfi_def_cfa_offset 4
 502              		.cfi_offset 14, -4
 503 0002 83B0     		sub	sp, sp, #12
 504              		.cfi_def_cfa_offset 16
 505 0004 0190     		str	r0, [sp, #4]
 506              		.loc 9 80 0
 507 0006 4120     		movs	r0, #65
 508 0008 FFF7FEFF 		bl	test_emit_token
ARM GAS  /tmp/ccXThCy4.s 			page 10


 509 000c 03B0     		add	sp, sp, #12
 510              		@ sp needed
 511 000e 5DF804FB 		ldr	pc, [sp], #4
 512              		.cfi_endproc
 513              	.LFE241:
 514              		.size	h1, .-h1
 515 0012 00BFAFF3 		.section	.text.h2,"ax",%progbits
 515      0080AFF3 
 515      0080AFF3 
 515      0080
 516              		.align	2
 517              		.p2align 4,,15
 518              		.thumb
 519              		.thumb_func
 520              		.type	h2, %function
 521              	h2:
 522              	.LFB242:
 523              		.loc 9 81 0
 524              		.cfi_startproc
 525              		@ args = 0, pretend = 0, frame = 8
 526              		@ frame_needed = 0, uses_anonymous_args = 0
 527 0000 00B5     		push	{lr}
 528              		.cfi_def_cfa_offset 4
 529              		.cfi_offset 14, -4
 530 0002 83B0     		sub	sp, sp, #12
 531              		.cfi_def_cfa_offset 16
 532 0004 0190     		str	r0, [sp, #4]
 533              		.loc 9 81 0
 534 0006 4220     		movs	r0, #66
 535 0008 FFF7FEFF 		bl	test_emit_token
 536 000c 03B0     		add	sp, sp, #12
 537              		@ sp needed
 538 000e 5DF804FB 		ldr	pc, [sp], #4
 539              		.cfi_endproc
 540              	.LFE242:
 541              		.size	h2, .-h2
 542 0012 00BFAFF3 		.section	.text.h3,"ax",%progbits
 542      0080AFF3 
 542      0080AFF3 
 542      0080
 543              		.align	2
 544              		.p2align 4,,15
 545              		.thumb
 546              		.thumb_func
 547              		.type	h3, %function
 548              	h3:
 549              	.LFB243:
 550              		.loc 9 82 0
 551              		.cfi_startproc
 552              		@ args = 0, pretend = 0, frame = 8
 553              		@ frame_needed = 0, uses_anonymous_args = 0
 554 0000 00B5     		push	{lr}
 555              		.cfi_def_cfa_offset 4
 556              		.cfi_offset 14, -4
 557 0002 83B0     		sub	sp, sp, #12
 558              		.cfi_def_cfa_offset 16
 559 0004 0190     		str	r0, [sp, #4]
ARM GAS  /tmp/ccXThCy4.s 			page 11


 560              		.loc 9 82 0
 561 0006 4320     		movs	r0, #67
 562 0008 FFF7FEFF 		bl	test_emit_token
 563 000c 03B0     		add	sp, sp, #12
 564              		@ sp needed
 565 000e 5DF804FB 		ldr	pc, [sp], #4
 566              		.cfi_endproc
 567              	.LFE243:
 568              		.size	h3, .-h3
 569 0012 00BFAFF3 		.section	.rodata.evhndl,"a",%progbits
 569      0080AFF3 
 569      0080AFF3 
 569      0080
 570              		.align	2
 571              		.type	evhndl, %object
 572              		.size	evhndl, 12
 573              	evhndl:
 574 0000 00000000 		.word	h1
 575 0004 00000000 		.word	h2
 576 0008 00000000 		.word	h3
 577              		.section	.rodata
 578              		.align	2
 579              	.LC0:
 580 0000 41424300 		.ascii	"ABC\000"
 581              		.section	.text.evt1_execute,"ax",%progbits
 582              		.align	2
 583              		.p2align 4,,15
 584              		.thumb
 585              		.thumb_func
 586              		.type	evt1_execute, %function
 587              	evt1_execute:
 588              	.LFB244:
 589              		.loc 9 85 0
 590              		.cfi_startproc
 591              		@ args = 0, pretend = 0, frame = 40
 592              		@ frame_needed = 0, uses_anonymous_args = 0
 593 0000 00B5     		push	{lr}
 594              		.cfi_def_cfa_offset 4
 595              		.cfi_offset 14, -4
 596 0002 8BB0     		sub	sp, sp, #44
 597              		.cfi_def_cfa_offset 48
 598              		.loc 9 91 0
 599 0004 2B48     		ldr	r0, .L38
 600 0006 FFF7FEFF 		bl	chEvtObjectInit
 601              		.loc 9 92 0
 602 000a 05AB     		add	r3, sp, #20
 603 000c 2948     		ldr	r0, .L38
 604 000e 1946     		mov	r1, r3
 605 0010 0122     		movs	r2, #1
 606 0012 FFF7FEFF 		bl	chEvtRegisterMask
 607              		.loc 9 93 0
 608 0016 6B46     		mov	r3, sp
 609 0018 2648     		ldr	r0, .L38
 610 001a 1946     		mov	r1, r3
 611 001c 0222     		movs	r2, #2
 612 001e FFF7FEFF 		bl	chEvtRegisterMask
 613              		.loc 9 94 0
ARM GAS  /tmp/ccXThCy4.s 			page 12


 614 0022 2448     		ldr	r0, .L38
 615 0024 FFF7FEFF 		bl	chEvtIsListeningI
 616 0028 0346     		mov	r3, r0
 617 002a 0120     		movs	r0, #1
 618 002c 1946     		mov	r1, r3
 619 002e FFF7FEFF 		bl	_test_assert
 620 0032 0346     		mov	r3, r0
 621 0034 002B     		cmp	r3, #0
 622 0036 00D0     		beq	.L32
 623              		.loc 9 94 0 is_stmt 0 discriminator 1
 624 0038 38E0     		b	.L31
 625              	.L32:
 626              		.loc 9 95 0 is_stmt 1
 627 003a 05AB     		add	r3, sp, #20
 628 003c 1D48     		ldr	r0, .L38
 629 003e 1946     		mov	r1, r3
 630 0040 FFF7FEFF 		bl	chEvtUnregister
 631              		.loc 9 96 0
 632 0044 1B48     		ldr	r0, .L38
 633 0046 FFF7FEFF 		bl	chEvtIsListeningI
 634 004a 0346     		mov	r3, r0
 635 004c 0220     		movs	r0, #2
 636 004e 1946     		mov	r1, r3
 637 0050 FFF7FEFF 		bl	_test_assert
 638 0054 0346     		mov	r3, r0
 639 0056 002B     		cmp	r3, #0
 640 0058 00D0     		beq	.L34
 641              		.loc 9 96 0 is_stmt 0 discriminator 1
 642 005a 27E0     		b	.L31
 643              	.L34:
 644              		.loc 9 97 0 is_stmt 1
 645 005c 6B46     		mov	r3, sp
 646 005e 1548     		ldr	r0, .L38
 647 0060 1946     		mov	r1, r3
 648 0062 FFF7FEFF 		bl	chEvtUnregister
 649              		.loc 9 98 0
 650 0066 1348     		ldr	r0, .L38
 651 0068 FFF7FEFF 		bl	chEvtIsListeningI
 652 006c 0346     		mov	r3, r0
 653 006e 002B     		cmp	r3, #0
 654 0070 0CBF     		ite	eq
 655 0072 0023     		moveq	r3, #0
 656 0074 0123     		movne	r3, #1
 657 0076 DBB2     		uxtb	r3, r3
 658 0078 83F00103 		eor	r3, r3, #1
 659 007c DBB2     		uxtb	r3, r3
 660 007e 03F00103 		and	r3, r3, #1
 661 0082 DBB2     		uxtb	r3, r3
 662 0084 0320     		movs	r0, #3
 663 0086 1946     		mov	r1, r3
 664 0088 FFF7FEFF 		bl	_test_assert
 665 008c 0346     		mov	r3, r0
 666 008e 002B     		cmp	r3, #0
 667 0090 00D0     		beq	.L35
 668              		.loc 9 98 0 is_stmt 0 discriminator 1
 669 0092 0BE0     		b	.L31
 670              	.L35:
ARM GAS  /tmp/ccXThCy4.s 			page 13


 671              		.loc 9 103 0 is_stmt 1
 672 0094 0848     		ldr	r0, .L38+4
 673 0096 0721     		movs	r1, #7
 674 0098 FFF7FEFF 		bl	chEvtDispatch
 675              		.loc 9 104 0
 676 009c 0420     		movs	r0, #4
 677 009e 0749     		ldr	r1, .L38+8
 678 00a0 FFF7FEFF 		bl	_test_assert_sequence
 679 00a4 0346     		mov	r3, r0
 680 00a6 002B     		cmp	r3, #0
 681 00a8 00D0     		beq	.L31
 682 00aa 00BF     		nop
 683              	.L31:
 684              		.loc 9 105 0
 685 00ac 0BB0     		add	sp, sp, #44
 686              		@ sp needed
 687 00ae 5DF804FB 		ldr	pc, [sp], #4
 688              	.L39:
 689 00b2 00BF     		.align	2
 690              	.L38:
 691 00b4 00000000 		.word	es1
 692 00b8 00000000 		.word	evhndl
 693 00bc 00000000 		.word	.LC0
 694              		.cfi_endproc
 695              	.LFE244:
 696              		.size	evt1_execute, .-evt1_execute
 697              		.global	testevt1
 698              		.section	.rodata
 699              		.align	2
 700              	.LC1:
 701 0004 4576656E 		.ascii	"Events, registration and dispatch\000"
 701      74732C20 
 701      72656769 
 701      73747261 
 701      74696F6E 
 702              		.section	.rodata.testevt1,"a",%progbits
 703              		.align	2
 704              		.type	testevt1, %object
 705              		.size	testevt1, 16
 706              	testevt1:
 707 0000 04000000 		.word	.LC1
 708 0004 00000000 		.word	evt1_setup
 709 0008 00000000 		.word	0
 710 000c 00000000 		.word	evt1_execute
 711              		.section	.text.evt2_setup,"ax",%progbits
 712              		.align	2
 713              		.p2align 4,,15
 714              		.thumb
 715              		.thumb_func
 716              		.type	evt2_setup, %function
 717              	evt2_setup:
 718              	.LFB245:
 719              		.loc 9 128 0
 720              		.cfi_startproc
 721              		@ args = 0, pretend = 0, frame = 0
 722              		@ frame_needed = 0, uses_anonymous_args = 0
 723 0000 08B5     		push	{r3, lr}
ARM GAS  /tmp/ccXThCy4.s 			page 14


 724              		.cfi_def_cfa_offset 8
 725              		.cfi_offset 3, -8
 726              		.cfi_offset 14, -4
 727              		.loc 9 130 0
 728 0002 4FF0FF30 		mov	r0, #-1
 729 0006 FFF7FEFF 		bl	chEvtGetAndClearEvents
 730              		.loc 9 131 0
 731 000a 08BD     		pop	{r3, pc}
 732              		.cfi_endproc
 733              	.LFE245:
 734              		.size	evt2_setup, .-evt2_setup
 735 000c AFF30080 		.section	.text.thread1,"ax",%progbits
 736              		.align	2
 737              		.p2align 4,,15
 738              		.thumb
 739              		.thumb_func
 740              		.type	thread1, %function
 741              	thread1:
 742              	.LFB246:
 743              		.loc 9 133 0
 744              		.cfi_startproc
 745              		@ args = 0, pretend = 0, frame = 8
 746              		@ frame_needed = 0, uses_anonymous_args = 0
 747 0000 00B5     		push	{lr}
 748              		.cfi_def_cfa_offset 4
 749              		.cfi_offset 14, -4
 750 0002 83B0     		sub	sp, sp, #12
 751              		.cfi_def_cfa_offset 16
 752 0004 0190     		str	r0, [sp, #4]
 753              		.loc 9 135 0
 754 0006 4FF4FA70 		mov	r0, #500
 755 000a FFF7FEFF 		bl	chThdSleep
 756              		.loc 9 136 0
 757 000e 0198     		ldr	r0, [sp, #4]
 758 0010 0121     		movs	r1, #1
 759 0012 FFF7FEFF 		bl	chEvtSignal
 760              		.loc 9 137 0
 761 0016 03B0     		add	sp, sp, #12
 762              		@ sp needed
 763 0018 5DF804FB 		ldr	pc, [sp], #4
 764              		.cfi_endproc
 765              	.LFE246:
 766              		.size	thread1, .-thread1
 767 001c AFF30080 		.section	.text.thread2,"ax",%progbits
 768              		.align	2
 769              		.p2align 4,,15
 770              		.thumb
 771              		.thumb_func
 772              		.type	thread2, %function
 773              	thread2:
 774              	.LFB247:
 775              		.loc 9 139 0
 776              		.cfi_startproc
 777              		@ args = 0, pretend = 0, frame = 8
 778              		@ frame_needed = 0, uses_anonymous_args = 0
 779 0000 00B5     		push	{lr}
 780              		.cfi_def_cfa_offset 4
ARM GAS  /tmp/ccXThCy4.s 			page 15


 781              		.cfi_offset 14, -4
 782 0002 83B0     		sub	sp, sp, #12
 783              		.cfi_def_cfa_offset 16
 784 0004 0190     		str	r0, [sp, #4]
 785              		.loc 9 142 0
 786 0006 0648     		ldr	r0, .L43
 787 0008 FFF7FEFF 		bl	chEvtBroadcast
 788              		.loc 9 143 0
 789 000c 4FF4FA70 		mov	r0, #500
 790 0010 FFF7FEFF 		bl	chThdSleep
 791              		.loc 9 144 0
 792 0014 0348     		ldr	r0, .L43+4
 793 0016 FFF7FEFF 		bl	chEvtBroadcast
 794              		.loc 9 145 0
 795 001a 03B0     		add	sp, sp, #12
 796              		@ sp needed
 797 001c 5DF804FB 		ldr	pc, [sp], #4
 798              	.L44:
 799              		.align	2
 800              	.L43:
 801 0020 00000000 		.word	es1
 802 0024 00000000 		.word	es2
 803              		.cfi_endproc
 804              	.LFE247:
 805              		.size	thread2, .-thread2
 806 0028 AFF30080 		.section	.rodata
 806      AFF30080 
 807 0026 0000     		.align	2
 808              	.LC2:
 809 0028 4100     		.ascii	"A\000"
 810              		.section	.text.evt2_execute,"ax",%progbits
 811              		.align	2
 812              		.p2align 4,,15
 813              		.thumb
 814              		.thumb_func
 815              		.type	evt2_execute, %function
 816              	evt2_execute:
 817              	.LFB248:
 818              		.loc 9 147 0
 819              		.cfi_startproc
 820              		@ args = 0, pretend = 0, frame = 48
 821              		@ frame_needed = 0, uses_anonymous_args = 0
 822 0000 30B5     		push	{r4, r5, lr}
 823              		.cfi_def_cfa_offset 12
 824              		.cfi_offset 4, -12
 825              		.cfi_offset 5, -8
 826              		.cfi_offset 14, -4
 827 0002 8FB0     		sub	sp, sp, #60
 828              		.cfi_def_cfa_offset 72
 829              		.loc 9 155 0
 830 0004 0720     		movs	r0, #7
 831 0006 FFF7FEFF 		bl	chEvtAddEvents
 832              		.loc 9 156 0
 833 000a 4FF0FF30 		mov	r0, #-1
 834 000e FFF7FEFF 		bl	chEvtWaitOne
 835 0012 0D90     		str	r0, [sp, #52]
 836              		.loc 9 157 0
ARM GAS  /tmp/ccXThCy4.s 			page 16


 837 0014 0D9B     		ldr	r3, [sp, #52]
 838 0016 012B     		cmp	r3, #1
 839 0018 14BF     		ite	ne
 840 001a 0023     		movne	r3, #0
 841 001c 0123     		moveq	r3, #1
 842 001e DBB2     		uxtb	r3, r3
 843 0020 0120     		movs	r0, #1
 844 0022 1946     		mov	r1, r3
 845 0024 FFF7FEFF 		bl	_test_assert
 846 0028 0346     		mov	r3, r0
 847 002a 002B     		cmp	r3, #0
 848 002c 00D0     		beq	.L46
 849              		.loc 9 157 0 is_stmt 0 discriminator 1
 850 002e 87E1     		b	.L45
 851              	.L46:
 852              		.loc 9 158 0 is_stmt 1
 853 0030 4FF0FF30 		mov	r0, #-1
 854 0034 FFF7FEFF 		bl	chEvtWaitOne
 855 0038 0D90     		str	r0, [sp, #52]
 856              		.loc 9 159 0
 857 003a 0D9B     		ldr	r3, [sp, #52]
 858 003c 022B     		cmp	r3, #2
 859 003e 14BF     		ite	ne
 860 0040 0023     		movne	r3, #0
 861 0042 0123     		moveq	r3, #1
 862 0044 DBB2     		uxtb	r3, r3
 863 0046 0220     		movs	r0, #2
 864 0048 1946     		mov	r1, r3
 865 004a FFF7FEFF 		bl	_test_assert
 866 004e 0346     		mov	r3, r0
 867 0050 002B     		cmp	r3, #0
 868 0052 00D0     		beq	.L48
 869              		.loc 9 159 0 is_stmt 0 discriminator 1
 870 0054 74E1     		b	.L45
 871              	.L48:
 872              		.loc 9 160 0 is_stmt 1
 873 0056 4FF0FF30 		mov	r0, #-1
 874 005a FFF7FEFF 		bl	chEvtWaitOne
 875 005e 0D90     		str	r0, [sp, #52]
 876              		.loc 9 161 0
 877 0060 0D9B     		ldr	r3, [sp, #52]
 878 0062 042B     		cmp	r3, #4
 879 0064 14BF     		ite	ne
 880 0066 0023     		movne	r3, #0
 881 0068 0123     		moveq	r3, #1
 882 006a DBB2     		uxtb	r3, r3
 883 006c 0320     		movs	r0, #3
 884 006e 1946     		mov	r1, r3
 885 0070 FFF7FEFF 		bl	_test_assert
 886 0074 0346     		mov	r3, r0
 887 0076 002B     		cmp	r3, #0
 888 0078 00D0     		beq	.L49
 889              		.loc 9 161 0 is_stmt 0 discriminator 1
 890 007a 61E1     		b	.L45
 891              	.L49:
 892              		.loc 9 162 0 is_stmt 1
 893 007c 4FF0FF30 		mov	r0, #-1
ARM GAS  /tmp/ccXThCy4.s 			page 17


 894 0080 FFF7FEFF 		bl	chEvtGetAndClearEvents
 895 0084 0D90     		str	r0, [sp, #52]
 896              		.loc 9 163 0
 897 0086 0D9B     		ldr	r3, [sp, #52]
 898 0088 002B     		cmp	r3, #0
 899 008a 14BF     		ite	ne
 900 008c 0023     		movne	r3, #0
 901 008e 0123     		moveq	r3, #1
 902 0090 DBB2     		uxtb	r3, r3
 903 0092 0420     		movs	r0, #4
 904 0094 1946     		mov	r1, r3
 905 0096 FFF7FEFF 		bl	_test_assert
 906 009a 0346     		mov	r3, r0
 907 009c 002B     		cmp	r3, #0
 908 009e 00D0     		beq	.L50
 909              		.loc 9 163 0 is_stmt 0 discriminator 1
 910 00a0 4EE1     		b	.L45
 911              	.L50:
 912              		.loc 9 168 0 is_stmt 1
 913 00a2 FFF7FEFF 		bl	test_wait_tick
 914              		.loc 9 169 0
 915 00a6 FFF7FEFF 		bl	chVTGetSystemTime
 916 00aa 0346     		mov	r3, r0
 917 00ac 03F5FA73 		add	r3, r3, #500
 918 00b0 0C93     		str	r3, [sp, #48]
 919              		.loc 9 170 0
 920 00b2 A44B     		ldr	r3, .L64
 921 00b4 1D68     		ldr	r5, [r3]
 922 00b6 FFF7FEFF 		bl	chThdGetPriorityX
 923 00ba 0346     		mov	r3, r0
 924 00bc 5C1E     		subs	r4, r3, #1
 925              		.loc 9 171 0
 926 00be FFF7FEFF 		bl	chThdGetSelfX
 927 00c2 0346     		mov	r3, r0
 928              		.loc 9 170 0
 929 00c4 0093     		str	r3, [sp]
 930 00c6 2846     		mov	r0, r5
 931 00c8 4FF4B471 		mov	r1, #360
 932 00cc 2246     		mov	r2, r4
 933 00ce 9E4B     		ldr	r3, .L64+4
 934 00d0 FFF7FEFF 		bl	chThdCreateStatic
 935 00d4 0246     		mov	r2, r0
 936 00d6 9D4B     		ldr	r3, .L64+8
 937 00d8 1A60     		str	r2, [r3]
 938              		.loc 9 172 0
 939 00da 4FF0FF30 		mov	r0, #-1
 940 00de FFF7FEFF 		bl	chEvtWaitOne
 941 00e2 0D90     		str	r0, [sp, #52]
 942              		.loc 9 173 0
 943 00e4 0C9B     		ldr	r3, [sp, #48]
 944 00e6 3233     		adds	r3, r3, #50
 945 00e8 0520     		movs	r0, #5
 946 00ea 0C99     		ldr	r1, [sp, #48]
 947 00ec 1A46     		mov	r2, r3
 948 00ee FFF7FEFF 		bl	_test_assert_time_window
 949 00f2 0346     		mov	r3, r0
 950 00f4 002B     		cmp	r3, #0
ARM GAS  /tmp/ccXThCy4.s 			page 18


 951 00f6 00D0     		beq	.L51
 952              		.loc 9 173 0 is_stmt 0 discriminator 1
 953 00f8 22E1     		b	.L45
 954              	.L51:
 955              		.loc 9 174 0 is_stmt 1
 956 00fa 0D9B     		ldr	r3, [sp, #52]
 957 00fc 012B     		cmp	r3, #1
 958 00fe 14BF     		ite	ne
 959 0100 0023     		movne	r3, #0
 960 0102 0123     		moveq	r3, #1
 961 0104 DBB2     		uxtb	r3, r3
 962 0106 0620     		movs	r0, #6
 963 0108 1946     		mov	r1, r3
 964 010a FFF7FEFF 		bl	_test_assert
 965 010e 0346     		mov	r3, r0
 966 0110 002B     		cmp	r3, #0
 967 0112 00D0     		beq	.L52
 968              		.loc 9 174 0 is_stmt 0 discriminator 1
 969 0114 14E1     		b	.L45
 970              	.L52:
 971              		.loc 9 175 0 is_stmt 1
 972 0116 4FF0FF30 		mov	r0, #-1
 973 011a FFF7FEFF 		bl	chEvtGetAndClearEvents
 974 011e 0D90     		str	r0, [sp, #52]
 975              		.loc 9 176 0
 976 0120 0D9B     		ldr	r3, [sp, #52]
 977 0122 002B     		cmp	r3, #0
 978 0124 14BF     		ite	ne
 979 0126 0023     		movne	r3, #0
 980 0128 0123     		moveq	r3, #1
 981 012a DBB2     		uxtb	r3, r3
 982 012c 0720     		movs	r0, #7
 983 012e 1946     		mov	r1, r3
 984 0130 FFF7FEFF 		bl	_test_assert
 985 0134 0346     		mov	r3, r0
 986 0136 002B     		cmp	r3, #0
 987 0138 00D0     		beq	.L53
 988              		.loc 9 176 0 is_stmt 0 discriminator 1
 989 013a 01E1     		b	.L45
 990              	.L53:
 991              		.loc 9 177 0 is_stmt 1
 992 013c FFF7FEFF 		bl	test_wait_threads
 993              		.loc 9 182 0
 994 0140 0520     		movs	r0, #5
 995 0142 FFF7FEFF 		bl	chEvtAddEvents
 996              		.loc 9 183 0
 997 0146 4FF0FF30 		mov	r0, #-1
 998 014a FFF7FEFF 		bl	chEvtWaitAny
 999 014e 0D90     		str	r0, [sp, #52]
 1000              		.loc 9 184 0
 1001 0150 0D9B     		ldr	r3, [sp, #52]
 1002 0152 052B     		cmp	r3, #5
 1003 0154 14BF     		ite	ne
 1004 0156 0023     		movne	r3, #0
 1005 0158 0123     		moveq	r3, #1
 1006 015a DBB2     		uxtb	r3, r3
 1007 015c 0820     		movs	r0, #8
ARM GAS  /tmp/ccXThCy4.s 			page 19


 1008 015e 1946     		mov	r1, r3
 1009 0160 FFF7FEFF 		bl	_test_assert
 1010 0164 0346     		mov	r3, r0
 1011 0166 002B     		cmp	r3, #0
 1012 0168 00D0     		beq	.L54
 1013              		.loc 9 184 0 is_stmt 0 discriminator 1
 1014 016a E9E0     		b	.L45
 1015              	.L54:
 1016              		.loc 9 185 0 is_stmt 1
 1017 016c 4FF0FF30 		mov	r0, #-1
 1018 0170 FFF7FEFF 		bl	chEvtGetAndClearEvents
 1019 0174 0D90     		str	r0, [sp, #52]
 1020              		.loc 9 186 0
 1021 0176 0D9B     		ldr	r3, [sp, #52]
 1022 0178 002B     		cmp	r3, #0
 1023 017a 14BF     		ite	ne
 1024 017c 0023     		movne	r3, #0
 1025 017e 0123     		moveq	r3, #1
 1026 0180 DBB2     		uxtb	r3, r3
 1027 0182 0920     		movs	r0, #9
 1028 0184 1946     		mov	r1, r3
 1029 0186 FFF7FEFF 		bl	_test_assert
 1030 018a 0346     		mov	r3, r0
 1031 018c 002B     		cmp	r3, #0
 1032 018e 00D0     		beq	.L55
 1033              		.loc 9 186 0 is_stmt 0 discriminator 1
 1034 0190 D6E0     		b	.L45
 1035              	.L55:
 1036              		.loc 9 191 0 is_stmt 1
 1037 0192 FFF7FEFF 		bl	test_wait_tick
 1038              		.loc 9 192 0
 1039 0196 FFF7FEFF 		bl	chVTGetSystemTime
 1040 019a 0346     		mov	r3, r0
 1041 019c 03F5FA73 		add	r3, r3, #500
 1042 01a0 0C93     		str	r3, [sp, #48]
 1043              		.loc 9 193 0
 1044 01a2 684B     		ldr	r3, .L64
 1045 01a4 1D68     		ldr	r5, [r3]
 1046 01a6 FFF7FEFF 		bl	chThdGetPriorityX
 1047 01aa 0346     		mov	r3, r0
 1048 01ac 5C1E     		subs	r4, r3, #1
 1049              		.loc 9 194 0
 1050 01ae FFF7FEFF 		bl	chThdGetSelfX
 1051 01b2 0346     		mov	r3, r0
 1052              		.loc 9 193 0
 1053 01b4 0093     		str	r3, [sp]
 1054 01b6 2846     		mov	r0, r5
 1055 01b8 4FF4B471 		mov	r1, #360
 1056 01bc 2246     		mov	r2, r4
 1057 01be 624B     		ldr	r3, .L64+4
 1058 01c0 FFF7FEFF 		bl	chThdCreateStatic
 1059 01c4 0246     		mov	r2, r0
 1060 01c6 614B     		ldr	r3, .L64+8
 1061 01c8 1A60     		str	r2, [r3]
 1062              		.loc 9 195 0
 1063 01ca 4FF0FF30 		mov	r0, #-1
 1064 01ce FFF7FEFF 		bl	chEvtWaitAny
ARM GAS  /tmp/ccXThCy4.s 			page 20


 1065 01d2 0D90     		str	r0, [sp, #52]
 1066              		.loc 9 196 0
 1067 01d4 0C9B     		ldr	r3, [sp, #48]
 1068 01d6 3233     		adds	r3, r3, #50
 1069 01d8 0A20     		movs	r0, #10
 1070 01da 0C99     		ldr	r1, [sp, #48]
 1071 01dc 1A46     		mov	r2, r3
 1072 01de FFF7FEFF 		bl	_test_assert_time_window
 1073 01e2 0346     		mov	r3, r0
 1074 01e4 002B     		cmp	r3, #0
 1075 01e6 00D0     		beq	.L56
 1076              		.loc 9 196 0 is_stmt 0 discriminator 1
 1077 01e8 AAE0     		b	.L45
 1078              	.L56:
 1079              		.loc 9 197 0 is_stmt 1
 1080 01ea 0D9B     		ldr	r3, [sp, #52]
 1081 01ec 012B     		cmp	r3, #1
 1082 01ee 14BF     		ite	ne
 1083 01f0 0023     		movne	r3, #0
 1084 01f2 0123     		moveq	r3, #1
 1085 01f4 DBB2     		uxtb	r3, r3
 1086 01f6 0B20     		movs	r0, #11
 1087 01f8 1946     		mov	r1, r3
 1088 01fa FFF7FEFF 		bl	_test_assert
 1089 01fe 0346     		mov	r3, r0
 1090 0200 002B     		cmp	r3, #0
 1091 0202 00D0     		beq	.L57
 1092              		.loc 9 197 0 is_stmt 0 discriminator 1
 1093 0204 9CE0     		b	.L45
 1094              	.L57:
 1095              		.loc 9 198 0 is_stmt 1
 1096 0206 4FF0FF30 		mov	r0, #-1
 1097 020a FFF7FEFF 		bl	chEvtGetAndClearEvents
 1098 020e 0D90     		str	r0, [sp, #52]
 1099              		.loc 9 199 0
 1100 0210 0D9B     		ldr	r3, [sp, #52]
 1101 0212 002B     		cmp	r3, #0
 1102 0214 14BF     		ite	ne
 1103 0216 0023     		movne	r3, #0
 1104 0218 0123     		moveq	r3, #1
 1105 021a DBB2     		uxtb	r3, r3
 1106 021c 0C20     		movs	r0, #12
 1107 021e 1946     		mov	r1, r3
 1108 0220 FFF7FEFF 		bl	_test_assert
 1109 0224 0346     		mov	r3, r0
 1110 0226 002B     		cmp	r3, #0
 1111 0228 00D0     		beq	.L58
 1112              		.loc 9 199 0 is_stmt 0 discriminator 1
 1113 022a 89E0     		b	.L45
 1114              	.L58:
 1115              		.loc 9 200 0 is_stmt 1
 1116 022c FFF7FEFF 		bl	test_wait_threads
 1117              		.loc 9 205 0
 1118 0230 4748     		ldr	r0, .L64+12
 1119 0232 FFF7FEFF 		bl	chEvtObjectInit
 1120              		.loc 9 206 0
 1121 0236 4748     		ldr	r0, .L64+16
ARM GAS  /tmp/ccXThCy4.s 			page 21


 1122 0238 FFF7FEFF 		bl	chEvtObjectInit
 1123              		.loc 9 207 0
 1124 023c 07AB     		add	r3, sp, #28
 1125 023e 4448     		ldr	r0, .L64+12
 1126 0240 1946     		mov	r1, r3
 1127 0242 0122     		movs	r2, #1
 1128 0244 FFF7FEFF 		bl	chEvtRegisterMask
 1129              		.loc 9 208 0
 1130 0248 02AB     		add	r3, sp, #8
 1131 024a 4248     		ldr	r0, .L64+16
 1132 024c 1946     		mov	r1, r3
 1133 024e 0422     		movs	r2, #4
 1134 0250 FFF7FEFF 		bl	chEvtRegisterMask
 1135              		.loc 9 209 0
 1136 0254 FFF7FEFF 		bl	test_wait_tick
 1137              		.loc 9 210 0
 1138 0258 FFF7FEFF 		bl	chVTGetSystemTime
 1139 025c 0346     		mov	r3, r0
 1140 025e 03F5FA73 		add	r3, r3, #500
 1141 0262 0C93     		str	r3, [sp, #48]
 1142              		.loc 9 211 0
 1143 0264 374B     		ldr	r3, .L64
 1144 0266 1C68     		ldr	r4, [r3]
 1145 0268 FFF7FEFF 		bl	chThdGetPriorityX
 1146 026c 0346     		mov	r3, r0
 1147 026e 013B     		subs	r3, r3, #1
 1148 0270 394A     		ldr	r2, .L64+20
 1149 0272 0092     		str	r2, [sp]
 1150 0274 2046     		mov	r0, r4
 1151 0276 4FF4B471 		mov	r1, #360
 1152 027a 1A46     		mov	r2, r3
 1153 027c 374B     		ldr	r3, .L64+24
 1154 027e FFF7FEFF 		bl	chThdCreateStatic
 1155 0282 0246     		mov	r2, r0
 1156 0284 314B     		ldr	r3, .L64+8
 1157 0286 1A60     		str	r2, [r3]
 1158              		.loc 9 213 0
 1159 0288 0520     		movs	r0, #5
 1160 028a FFF7FEFF 		bl	chEvtWaitAll
 1161 028e 0D90     		str	r0, [sp, #52]
 1162              		.loc 9 214 0
 1163 0290 0C9B     		ldr	r3, [sp, #48]
 1164 0292 3233     		adds	r3, r3, #50
 1165 0294 0D20     		movs	r0, #13
 1166 0296 0C99     		ldr	r1, [sp, #48]
 1167 0298 1A46     		mov	r2, r3
 1168 029a FFF7FEFF 		bl	_test_assert_time_window
 1169 029e 0346     		mov	r3, r0
 1170 02a0 002B     		cmp	r3, #0
 1171 02a2 00D0     		beq	.L59
 1172              		.loc 9 214 0 is_stmt 0 discriminator 1
 1173 02a4 4CE0     		b	.L45
 1174              	.L59:
 1175              		.loc 9 215 0 is_stmt 1
 1176 02a6 4FF0FF30 		mov	r0, #-1
 1177 02aa FFF7FEFF 		bl	chEvtGetAndClearEvents
 1178 02ae 0D90     		str	r0, [sp, #52]
ARM GAS  /tmp/ccXThCy4.s 			page 22


 1179              		.loc 9 216 0
 1180 02b0 0D9B     		ldr	r3, [sp, #52]
 1181 02b2 002B     		cmp	r3, #0
 1182 02b4 14BF     		ite	ne
 1183 02b6 0023     		movne	r3, #0
 1184 02b8 0123     		moveq	r3, #1
 1185 02ba DBB2     		uxtb	r3, r3
 1186 02bc 0E20     		movs	r0, #14
 1187 02be 1946     		mov	r1, r3
 1188 02c0 FFF7FEFF 		bl	_test_assert
 1189 02c4 0346     		mov	r3, r0
 1190 02c6 002B     		cmp	r3, #0
 1191 02c8 00D0     		beq	.L60
 1192              		.loc 9 216 0 is_stmt 0 discriminator 1
 1193 02ca 39E0     		b	.L45
 1194              	.L60:
 1195              		.loc 9 217 0 is_stmt 1
 1196 02cc FFF7FEFF 		bl	test_wait_threads
 1197              		.loc 9 218 0
 1198 02d0 07AB     		add	r3, sp, #28
 1199 02d2 1F48     		ldr	r0, .L64+12
 1200 02d4 1946     		mov	r1, r3
 1201 02d6 FFF7FEFF 		bl	chEvtUnregister
 1202              		.loc 9 219 0
 1203 02da 02AB     		add	r3, sp, #8
 1204 02dc 1D48     		ldr	r0, .L64+16
 1205 02de 1946     		mov	r1, r3
 1206 02e0 FFF7FEFF 		bl	chEvtUnregister
 1207              		.loc 9 220 0
 1208 02e4 1A48     		ldr	r0, .L64+12
 1209 02e6 FFF7FEFF 		bl	chEvtIsListeningI
 1210 02ea 0346     		mov	r3, r0
 1211 02ec 002B     		cmp	r3, #0
 1212 02ee 0CBF     		ite	eq
 1213 02f0 0023     		moveq	r3, #0
 1214 02f2 0123     		movne	r3, #1
 1215 02f4 DBB2     		uxtb	r3, r3
 1216 02f6 83F00103 		eor	r3, r3, #1
 1217 02fa DBB2     		uxtb	r3, r3
 1218 02fc 03F00103 		and	r3, r3, #1
 1219 0300 DBB2     		uxtb	r3, r3
 1220 0302 0F20     		movs	r0, #15
 1221 0304 1946     		mov	r1, r3
 1222 0306 FFF7FEFF 		bl	_test_assert
 1223 030a 0346     		mov	r3, r0
 1224 030c 002B     		cmp	r3, #0
 1225 030e 00D0     		beq	.L61
 1226              		.loc 9 220 0 is_stmt 0 discriminator 1
 1227 0310 16E0     		b	.L45
 1228              	.L61:
 1229              		.loc 9 221 0 is_stmt 1
 1230 0312 1048     		ldr	r0, .L64+16
 1231 0314 FFF7FEFF 		bl	chEvtIsListeningI
 1232 0318 0346     		mov	r3, r0
 1233 031a 002B     		cmp	r3, #0
 1234 031c 0CBF     		ite	eq
 1235 031e 0023     		moveq	r3, #0
ARM GAS  /tmp/ccXThCy4.s 			page 23


 1236 0320 0123     		movne	r3, #1
 1237 0322 DBB2     		uxtb	r3, r3
 1238 0324 83F00103 		eor	r3, r3, #1
 1239 0328 DBB2     		uxtb	r3, r3
 1240 032a 03F00103 		and	r3, r3, #1
 1241 032e DBB2     		uxtb	r3, r3
 1242 0330 1020     		movs	r0, #16
 1243 0332 1946     		mov	r1, r3
 1244 0334 FFF7FEFF 		bl	_test_assert
 1245 0338 0346     		mov	r3, r0
 1246 033a 002B     		cmp	r3, #0
 1247 033c 00D0     		beq	.L45
 1248 033e 00BF     		nop
 1249              	.L45:
 1250              		.loc 9 222 0
 1251 0340 0FB0     		add	sp, sp, #60
 1252              		@ sp needed
 1253 0342 30BD     		pop	{r4, r5, pc}
 1254              	.L65:
 1255              		.align	2
 1256              	.L64:
 1257 0344 00000000 		.word	wa
 1258 0348 00000000 		.word	thread1
 1259 034c 00000000 		.word	threads
 1260 0350 00000000 		.word	es1
 1261 0354 00000000 		.word	es2
 1262 0358 28000000 		.word	.LC2
 1263 035c 00000000 		.word	thread2
 1264              		.cfi_endproc
 1265              	.LFE248:
 1266              		.size	evt2_execute, .-evt2_execute
 1267              		.global	testevt2
 1268              		.section	.rodata
 1269 002a 0000     		.align	2
 1270              	.LC3:
 1271 002c 4576656E 		.ascii	"Events, wait and broadcast\000"
 1271      74732C20 
 1271      77616974 
 1271      20616E64 
 1271      2062726F 
 1272              		.section	.rodata.testevt2,"a",%progbits
 1273              		.align	2
 1274              		.type	testevt2, %object
 1275              		.size	testevt2, 16
 1276              	testevt2:
 1277 0000 2C000000 		.word	.LC3
 1278 0004 00000000 		.word	evt2_setup
 1279 0008 00000000 		.word	0
 1280 000c 00000000 		.word	evt2_execute
 1281              		.section	.text.evt3_setup,"ax",%progbits
 1282              		.align	2
 1283              		.p2align 4,,15
 1284              		.thumb
 1285              		.thumb_func
 1286              		.type	evt3_setup, %function
 1287              	evt3_setup:
 1288              	.LFB249:
ARM GAS  /tmp/ccXThCy4.s 			page 24


 1289              		.loc 9 247 0
 1290              		.cfi_startproc
 1291              		@ args = 0, pretend = 0, frame = 0
 1292              		@ frame_needed = 0, uses_anonymous_args = 0
 1293 0000 08B5     		push	{r3, lr}
 1294              		.cfi_def_cfa_offset 8
 1295              		.cfi_offset 3, -8
 1296              		.cfi_offset 14, -4
 1297              		.loc 9 249 0
 1298 0002 4FF0FF30 		mov	r0, #-1
 1299 0006 FFF7FEFF 		bl	chEvtGetAndClearEvents
 1300              		.loc 9 250 0
 1301 000a 08BD     		pop	{r3, pc}
 1302              		.cfi_endproc
 1303              	.LFE249:
 1304              		.size	evt3_setup, .-evt3_setup
 1305 000c AFF30080 		.section	.text.evt3_execute,"ax",%progbits
 1306              		.align	2
 1307              		.p2align 4,,15
 1308              		.thumb
 1309              		.thumb_func
 1310              		.type	evt3_execute, %function
 1311              	evt3_execute:
 1312              	.LFB250:
 1313              		.loc 9 252 0
 1314              		.cfi_startproc
 1315              		@ args = 0, pretend = 0, frame = 8
 1316              		@ frame_needed = 0, uses_anonymous_args = 0
 1317 0000 00B5     		push	{lr}
 1318              		.cfi_def_cfa_offset 4
 1319              		.cfi_offset 14, -4
 1320 0002 83B0     		sub	sp, sp, #12
 1321              		.cfi_def_cfa_offset 16
 1322              		.loc 9 258 0
 1323 0004 4FF0FF30 		mov	r0, #-1
 1324 0008 0021     		movs	r1, #0
 1325 000a FFF7FEFF 		bl	chEvtWaitOneTimeout
 1326 000e 0190     		str	r0, [sp, #4]
 1327              		.loc 9 259 0
 1328 0010 019B     		ldr	r3, [sp, #4]
 1329 0012 002B     		cmp	r3, #0
 1330 0014 14BF     		ite	ne
 1331 0016 0023     		movne	r3, #0
 1332 0018 0123     		moveq	r3, #1
 1333 001a DBB2     		uxtb	r3, r3
 1334 001c 0120     		movs	r0, #1
 1335 001e 1946     		mov	r1, r3
 1336 0020 FFF7FEFF 		bl	_test_assert
 1337 0024 0346     		mov	r3, r0
 1338 0026 002B     		cmp	r3, #0
 1339 0028 00D0     		beq	.L68
 1340              		.loc 9 259 0 is_stmt 0 discriminator 1
 1341 002a 63E0     		b	.L67
 1342              	.L68:
 1343              		.loc 9 260 0 is_stmt 1
 1344 002c 4FF0FF30 		mov	r0, #-1
 1345 0030 0021     		movs	r1, #0
ARM GAS  /tmp/ccXThCy4.s 			page 25


 1346 0032 FFF7FEFF 		bl	chEvtWaitAnyTimeout
 1347 0036 0190     		str	r0, [sp, #4]
 1348              		.loc 9 261 0
 1349 0038 019B     		ldr	r3, [sp, #4]
 1350 003a 002B     		cmp	r3, #0
 1351 003c 14BF     		ite	ne
 1352 003e 0023     		movne	r3, #0
 1353 0040 0123     		moveq	r3, #1
 1354 0042 DBB2     		uxtb	r3, r3
 1355 0044 0220     		movs	r0, #2
 1356 0046 1946     		mov	r1, r3
 1357 0048 FFF7FEFF 		bl	_test_assert
 1358 004c 0346     		mov	r3, r0
 1359 004e 002B     		cmp	r3, #0
 1360 0050 00D0     		beq	.L70
 1361              		.loc 9 261 0 is_stmt 0 discriminator 1
 1362 0052 4FE0     		b	.L67
 1363              	.L70:
 1364              		.loc 9 262 0 is_stmt 1
 1365 0054 4FF0FF30 		mov	r0, #-1
 1366 0058 0021     		movs	r1, #0
 1367 005a FFF7FEFF 		bl	chEvtWaitAllTimeout
 1368 005e 0190     		str	r0, [sp, #4]
 1369              		.loc 9 263 0
 1370 0060 019B     		ldr	r3, [sp, #4]
 1371 0062 002B     		cmp	r3, #0
 1372 0064 14BF     		ite	ne
 1373 0066 0023     		movne	r3, #0
 1374 0068 0123     		moveq	r3, #1
 1375 006a DBB2     		uxtb	r3, r3
 1376 006c 0320     		movs	r0, #3
 1377 006e 1946     		mov	r1, r3
 1378 0070 FFF7FEFF 		bl	_test_assert
 1379 0074 0346     		mov	r3, r0
 1380 0076 002B     		cmp	r3, #0
 1381 0078 00D0     		beq	.L71
 1382              		.loc 9 263 0 is_stmt 0 discriminator 1
 1383 007a 3BE0     		b	.L67
 1384              	.L71:
 1385              		.loc 9 264 0 is_stmt 1
 1386 007c 4FF0FF30 		mov	r0, #-1
 1387 0080 0A21     		movs	r1, #10
 1388 0082 FFF7FEFF 		bl	chEvtWaitOneTimeout
 1389 0086 0190     		str	r0, [sp, #4]
 1390              		.loc 9 265 0
 1391 0088 019B     		ldr	r3, [sp, #4]
 1392 008a 002B     		cmp	r3, #0
 1393 008c 14BF     		ite	ne
 1394 008e 0023     		movne	r3, #0
 1395 0090 0123     		moveq	r3, #1
 1396 0092 DBB2     		uxtb	r3, r3
 1397 0094 0420     		movs	r0, #4
 1398 0096 1946     		mov	r1, r3
 1399 0098 FFF7FEFF 		bl	_test_assert
 1400 009c 0346     		mov	r3, r0
 1401 009e 002B     		cmp	r3, #0
 1402 00a0 00D0     		beq	.L72
ARM GAS  /tmp/ccXThCy4.s 			page 26


 1403              		.loc 9 265 0 is_stmt 0 discriminator 1
 1404 00a2 27E0     		b	.L67
 1405              	.L72:
 1406              		.loc 9 266 0 is_stmt 1
 1407 00a4 4FF0FF30 		mov	r0, #-1
 1408 00a8 0A21     		movs	r1, #10
 1409 00aa FFF7FEFF 		bl	chEvtWaitAnyTimeout
 1410 00ae 0190     		str	r0, [sp, #4]
 1411              		.loc 9 267 0
 1412 00b0 019B     		ldr	r3, [sp, #4]
 1413 00b2 002B     		cmp	r3, #0
 1414 00b4 14BF     		ite	ne
 1415 00b6 0023     		movne	r3, #0
 1416 00b8 0123     		moveq	r3, #1
 1417 00ba DBB2     		uxtb	r3, r3
 1418 00bc 0520     		movs	r0, #5
 1419 00be 1946     		mov	r1, r3
 1420 00c0 FFF7FEFF 		bl	_test_assert
 1421 00c4 0346     		mov	r3, r0
 1422 00c6 002B     		cmp	r3, #0
 1423 00c8 00D0     		beq	.L73
 1424              		.loc 9 267 0 is_stmt 0 discriminator 1
 1425 00ca 13E0     		b	.L67
 1426              	.L73:
 1427              		.loc 9 268 0 is_stmt 1
 1428 00cc 4FF0FF30 		mov	r0, #-1
 1429 00d0 0A21     		movs	r1, #10
 1430 00d2 FFF7FEFF 		bl	chEvtWaitAllTimeout
 1431 00d6 0190     		str	r0, [sp, #4]
 1432              		.loc 9 269 0
 1433 00d8 019B     		ldr	r3, [sp, #4]
 1434 00da 002B     		cmp	r3, #0
 1435 00dc 14BF     		ite	ne
 1436 00de 0023     		movne	r3, #0
 1437 00e0 0123     		moveq	r3, #1
 1438 00e2 DBB2     		uxtb	r3, r3
 1439 00e4 0620     		movs	r0, #6
 1440 00e6 1946     		mov	r1, r3
 1441 00e8 FFF7FEFF 		bl	_test_assert
 1442 00ec 0346     		mov	r3, r0
 1443 00ee 002B     		cmp	r3, #0
 1444 00f0 00D0     		beq	.L67
 1445              		.loc 9 269 0 is_stmt 0 discriminator 1
 1446 00f2 00BF     		nop
 1447              	.L67:
 1448              		.loc 9 270 0 is_stmt 1
 1449 00f4 03B0     		add	sp, sp, #12
 1450              		@ sp needed
 1451 00f6 5DF804FB 		ldr	pc, [sp], #4
 1452              		.cfi_endproc
 1453              	.LFE250:
 1454              		.size	evt3_execute, .-evt3_execute
 1455              		.global	testevt3
 1456 00fa 00BFAFF3 		.section	.rodata
 1456      0080
 1457 0047 00       		.align	2
 1458              	.LC4:
ARM GAS  /tmp/ccXThCy4.s 			page 27


 1459 0048 4576656E 		.ascii	"Events, timeouts\000"
 1459      74732C20 
 1459      74696D65 
 1459      6F757473 
 1459      00
 1460 0059 000000   		.section	.rodata.testevt3,"a",%progbits
 1461              		.align	2
 1462              		.type	testevt3, %object
 1463              		.size	testevt3, 16
 1464              	testevt3:
 1465 0000 48000000 		.word	.LC4
 1466 0004 00000000 		.word	evt3_setup
 1467 0008 00000000 		.word	0
 1468 000c 00000000 		.word	evt3_execute
 1469              		.global	patternevt
 1470              		.section	.rodata.patternevt,"a",%progbits
 1471              		.align	2
 1472              		.type	patternevt, %object
 1473              		.size	patternevt, 16
 1474              	patternevt:
 1475 0000 00000000 		.word	testevt1
 1476 0004 00000000 		.word	testevt2
 1477 0008 00000000 		.word	testevt3
 1478 000c 00000000 		.word	0
 1479              		.section	.rodata.__func__.5925,"a",%progbits
 1480              		.align	2
 1481              		.type	__func__.5925, %object
 1482              		.size	__func__.5925, 12
 1483              	__func__.5925:
 1484 0000 63685379 		.ascii	"chSysUnlock\000"
 1484      73556E6C 
 1484      6F636B00 
 1485              		.text
 1486              	.Letext0:
 1487              		.file 10 "/usr/lib/gcc/arm-none-eabi/4.8/include/stddef.h"
 1488              		.file 11 "/usr/include/newlib/machine/_default_types.h"
 1489              		.file 12 "/usr/include/newlib/stdint.h"
 1490              		.file 13 "/home/efe/ChibiOS/os/rt/ports/ARMCMx/compilers/GCC/chtypes.h"
 1491              		.file 14 "/home/efe/ChibiOS/os/rt/include/chsystypes.h"
 1492              		.file 15 "/home/efe/ChibiOS/os/rt/include/chschd.h"
 1493              		.file 16 "/home/efe/ChibiOS/os/rt/ports/ARMCMx/chcore.h"
 1494              		.file 17 "/home/efe/ChibiOS/os/hal/ports/STM32/LLD/TIMv1/stm32_tim.h"
 1495              		.file 18 "/home/efe/ChibiOS/os/rt/include/chdebug.h"
 1496              		.file 19 "/home/efe/ChibiOS/os/rt/include/chtm.h"
 1497              		.file 20 "/home/efe/ChibiOS/os/rt/include/chstats.h"
 1498              		.file 21 "/home/efe/ChibiOS/os/rt/include/chsem.h"
 1499              		.file 22 "/home/efe/ChibiOS/os/rt/include/chmtx.h"
 1500              		.file 23 "/home/efe/ChibiOS/test/rt/test.h"
 1501              		.file 24 "/home/efe/ChibiOS/os/ext/CMSIS/include/core_cm4.h"