ARM GAS  /tmp/ccGuY2WI.s 			page 1


   1              		.syntax unified
   2              		.cpu cortex-m4
   3              		.fpu softvfp
   4              		.eabi_attribute 20, 1
   5              		.eabi_attribute 21, 1
   6              		.eabi_attribute 23, 3
   7              		.eabi_attribute 24, 1
   8              		.eabi_attribute 25, 1
   9              		.eabi_attribute 26, 1
  10              		.eabi_attribute 30, 6
  11              		.eabi_attribute 34, 1
  12              		.eabi_attribute 18, 4
  13              		.thumb
  14              		.file	"testsem.c"
  15              		.text
  16              	.Ltext0:
  17              		.cfi_sections	.debug_frame
  18              		.section	.text.port_lock,"ax",%progbits
  19              		.align	2
  20              		.p2align 4,,15
  21              		.thumb
  22              		.thumb_func
  23              		.type	port_lock, %function
  24              	port_lock:
  25              	.LFB127:
  26              		.file 1 "/home/efe/ChibiOS/os/rt/ports/ARMCMx/chcore_v7m.h"
  27              		.loc 1 456 0
  28              		.cfi_startproc
  29              		@ args = 0, pretend = 0, frame = 8
  30              		@ frame_needed = 0, uses_anonymous_args = 0
  31              		@ link register save eliminated.
  32 0000 82B0     		sub	sp, sp, #8
  33              		.cfi_def_cfa_offset 8
  34 0002 2023     		movs	r3, #32
  35 0004 0193     		str	r3, [sp, #4]
  36              	.LBB6:
  37              	.LBB7:
  38              		.file 2 "/home/efe/ChibiOS/os/ext/CMSIS/include/core_cmFunc.h"
  39              		.loc 2 548 0
  40 0006 019B     		ldr	r3, [sp, #4]
  41              	@ 548 "/home/efe/ChibiOS/os/ext/CMSIS/include/core_cmFunc.h" 1
  42 0008 83F31188 		MSR basepri, r3
  43              	@ 0 "" 2
  44              		.thumb
  45              	.LBE7:
  46              	.LBE6:
  47              		.loc 1 463 0
  48 000c 02B0     		add	sp, sp, #8
  49              		@ sp needed
  50 000e 7047     		bx	lr
  51              		.cfi_endproc
  52              	.LFE127:
  53              		.size	port_lock, .-port_lock
  54              		.section	.text.port_unlock,"ax",%progbits
  55              		.align	2
  56              		.p2align 4,,15
  57              		.thumb
ARM GAS  /tmp/ccGuY2WI.s 			page 2


  58              		.thumb_func
  59              		.type	port_unlock, %function
  60              	port_unlock:
  61              	.LFB128:
  62              		.loc 1 470 0
  63              		.cfi_startproc
  64              		@ args = 0, pretend = 0, frame = 8
  65              		@ frame_needed = 0, uses_anonymous_args = 0
  66              		@ link register save eliminated.
  67 0000 82B0     		sub	sp, sp, #8
  68              		.cfi_def_cfa_offset 8
  69 0002 0023     		movs	r3, #0
  70 0004 0193     		str	r3, [sp, #4]
  71              	.LBB8:
  72              	.LBB9:
  73              		.loc 2 548 0
  74 0006 019B     		ldr	r3, [sp, #4]
  75              	@ 548 "/home/efe/ChibiOS/os/ext/CMSIS/include/core_cmFunc.h" 1
  76 0008 83F31188 		MSR basepri, r3
  77              	@ 0 "" 2
  78              		.thumb
  79              	.LBE9:
  80              	.LBE8:
  81              		.loc 1 477 0
  82 000c 02B0     		add	sp, sp, #8
  83              		@ sp needed
  84 000e 7047     		bx	lr
  85              		.cfi_endproc
  86              	.LFE128:
  87              		.size	port_unlock, .-port_unlock
  88              		.section	.text.st_lld_get_counter,"ax",%progbits
  89              		.align	2
  90              		.p2align 4,,15
  91              		.thumb
  92              		.thumb_func
  93              		.type	st_lld_get_counter, %function
  94              	st_lld_get_counter:
  95              	.LFB136:
  96              		.file 3 "/home/efe/ChibiOS/os/hal/ports/STM32/LLD/TIMv1/st_lld.h"
  97              		.loc 3 139 0
  98              		.cfi_startproc
  99              		@ args = 0, pretend = 0, frame = 0
 100              		@ frame_needed = 0, uses_anonymous_args = 0
 101              		@ link register save eliminated.
 102              		.loc 3 141 0
 103 0000 4FF08043 		mov	r3, #1073741824
 104 0004 5B6A     		ldr	r3, [r3, #36]
 105              		.loc 3 142 0
 106 0006 1846     		mov	r0, r3
 107 0008 7047     		bx	lr
 108              		.cfi_endproc
 109              	.LFE136:
 110              		.size	st_lld_get_counter, .-st_lld_get_counter
 111 000a 00BFAFF3 		.section	.text.port_timer_get_time,"ax",%progbits
 111      0080
 112              		.align	2
 113              		.p2align 4,,15
ARM GAS  /tmp/ccGuY2WI.s 			page 3


 114              		.thumb
 115              		.thumb_func
 116              		.type	port_timer_get_time, %function
 117              	port_timer_get_time:
 118              	.LFB145:
 119              		.file 4 "/home/efe/ChibiOS/os/rt/ports/ARMCMx/chcore_timer.h"
 120              		.loc 4 105 0
 121              		.cfi_startproc
 122              		@ args = 0, pretend = 0, frame = 0
 123              		@ frame_needed = 0, uses_anonymous_args = 0
 124 0000 08B5     		push	{r3, lr}
 125              		.cfi_def_cfa_offset 8
 126              		.cfi_offset 3, -8
 127              		.cfi_offset 14, -4
 128              		.loc 4 107 0
 129 0002 FFF7FEFF 		bl	st_lld_get_counter
 130 0006 0346     		mov	r3, r0
 131              		.loc 4 108 0
 132 0008 1846     		mov	r0, r3
 133 000a 08BD     		pop	{r3, pc}
 134              		.cfi_endproc
 135              	.LFE145:
 136              		.size	port_timer_get_time, .-port_timer_get_time
 137              		.section	.text.queue_isempty,"ax",%progbits
 138              		.align	2
 139              		.p2align 4,,15
 140              		.thumb
 141              		.thumb_func
 142              		.type	queue_isempty, %function
 143              	queue_isempty:
 144              	.LFB151:
 145              		.file 5 "/home/efe/ChibiOS/os/rt/include/chschd.h"
 146              		.loc 5 616 0
 147              		.cfi_startproc
 148              		@ args = 0, pretend = 0, frame = 8
 149              		@ frame_needed = 0, uses_anonymous_args = 0
 150              		@ link register save eliminated.
 151 0000 82B0     		sub	sp, sp, #8
 152              		.cfi_def_cfa_offset 8
 153 0002 0190     		str	r0, [sp, #4]
 154              		.loc 5 618 0
 155 0004 019B     		ldr	r3, [sp, #4]
 156 0006 1A68     		ldr	r2, [r3]
 157 0008 019B     		ldr	r3, [sp, #4]
 158 000a 9A42     		cmp	r2, r3
 159 000c 14BF     		ite	ne
 160 000e 0023     		movne	r3, #0
 161 0010 0123     		moveq	r3, #1
 162 0012 DBB2     		uxtb	r3, r3
 163              		.loc 5 619 0
 164 0014 1846     		mov	r0, r3
 165 0016 02B0     		add	sp, sp, #8
 166              		@ sp needed
 167 0018 7047     		bx	lr
 168              		.cfi_endproc
 169              	.LFE151:
 170              		.size	queue_isempty, .-queue_isempty
ARM GAS  /tmp/ccGuY2WI.s 			page 4


 171 001a 00BFAFF3 		.section	.text.chSysLock,"ax",%progbits
 171      0080
 172              		.align	2
 173              		.p2align 4,,15
 174              		.thumb
 175              		.thumb_func
 176              		.type	chSysLock, %function
 177              	chSysLock:
 178              	.LFB167:
 179              		.file 6 "/home/efe/ChibiOS/os/rt/include/chsys.h"
 180              		.loc 6 346 0
 181              		.cfi_startproc
 182              		@ args = 0, pretend = 0, frame = 0
 183              		@ frame_needed = 0, uses_anonymous_args = 0
 184 0000 08B5     		push	{r3, lr}
 185              		.cfi_def_cfa_offset 8
 186              		.cfi_offset 3, -8
 187              		.cfi_offset 14, -4
 188              		.loc 6 348 0
 189 0002 FFF7FEFF 		bl	port_lock
 190              		.loc 6 349 0
 191 0006 FFF7FEFF 		bl	_stats_start_measure_crit_thd
 192              		.loc 6 350 0
 193 000a FFF7FEFF 		bl	_dbg_check_lock
 194              		.loc 6 351 0
 195 000e 08BD     		pop	{r3, pc}
 196              		.cfi_endproc
 197              	.LFE167:
 198              		.size	chSysLock, .-chSysLock
 199              		.section	.text.chSysUnlock,"ax",%progbits
 200              		.align	2
 201              		.p2align 4,,15
 202              		.thumb
 203              		.thumb_func
 204              		.type	chSysUnlock, %function
 205              	chSysUnlock:
 206              	.LFB168:
 207              		.loc 6 358 0
 208              		.cfi_startproc
 209              		@ args = 0, pretend = 0, frame = 0
 210              		@ frame_needed = 0, uses_anonymous_args = 0
 211 0000 08B5     		push	{r3, lr}
 212              		.cfi_def_cfa_offset 8
 213              		.cfi_offset 3, -8
 214              		.cfi_offset 14, -4
 215              		.loc 6 360 0
 216 0002 FFF7FEFF 		bl	_dbg_check_unlock
 217              		.loc 6 361 0
 218 0006 FFF7FEFF 		bl	_stats_stop_measure_crit_thd
 219              		.loc 6 367 0
 220 000a 094B     		ldr	r3, .L12
 221 000c 1A68     		ldr	r2, [r3]
 222 000e 084B     		ldr	r3, .L12
 223 0010 9A42     		cmp	r2, r3
 224 0012 0AD0     		beq	.L11
 225              		.loc 6 367 0 is_stmt 0 discriminator 1
 226 0014 064B     		ldr	r3, .L12
ARM GAS  /tmp/ccGuY2WI.s 			page 5


 227 0016 9B69     		ldr	r3, [r3, #24]
 228 0018 9A68     		ldr	r2, [r3, #8]
 229 001a 054B     		ldr	r3, .L12
 230 001c 1B68     		ldr	r3, [r3]
 231 001e 9B68     		ldr	r3, [r3, #8]
 232 0020 9A42     		cmp	r2, r3
 233 0022 02D2     		bcs	.L11
 234 0024 0348     		ldr	r0, .L12+4
 235 0026 FFF7FEFF 		bl	chSysHalt
 236              	.L11:
 237              		.loc 6 371 0 is_stmt 1
 238 002a FFF7FEFF 		bl	port_unlock
 239              		.loc 6 372 0
 240 002e 08BD     		pop	{r3, pc}
 241              	.L13:
 242              		.align	2
 243              	.L12:
 244 0030 00000000 		.word	ch
 245 0034 00000000 		.word	__func__.5925
 246              		.cfi_endproc
 247              	.LFE168:
 248              		.size	chSysUnlock, .-chSysUnlock
 249 0038 AFF30080 		.section	.text.chVTGetSystemTimeX,"ax",%progbits
 249      AFF30080 
 250              		.align	2
 251              		.p2align 4,,15
 252              		.thumb
 253              		.thumb_func
 254              		.type	chVTGetSystemTimeX, %function
 255              	chVTGetSystemTimeX:
 256              	.LFB175:
 257              		.file 7 "/home/efe/ChibiOS/os/rt/include/chvt.h"
 258              		.loc 7 228 0
 259              		.cfi_startproc
 260              		@ args = 0, pretend = 0, frame = 0
 261              		@ frame_needed = 0, uses_anonymous_args = 0
 262 0000 08B5     		push	{r3, lr}
 263              		.cfi_def_cfa_offset 8
 264              		.cfi_offset 3, -8
 265              		.cfi_offset 14, -4
 266              		.loc 7 233 0
 267 0002 FFF7FEFF 		bl	port_timer_get_time
 268 0006 0346     		mov	r3, r0
 269              		.loc 7 235 0
 270 0008 1846     		mov	r0, r3
 271 000a 08BD     		pop	{r3, pc}
 272              		.cfi_endproc
 273              	.LFE175:
 274              		.size	chVTGetSystemTimeX, .-chVTGetSystemTimeX
 275              		.section	.text.chVTGetSystemTime,"ax",%progbits
 276              		.align	2
 277              		.p2align 4,,15
 278              		.thumb
 279              		.thumb_func
 280              		.type	chVTGetSystemTime, %function
 281              	chVTGetSystemTime:
 282              	.LFB176:
ARM GAS  /tmp/ccGuY2WI.s 			page 6


 283              		.loc 7 247 0
 284              		.cfi_startproc
 285              		@ args = 0, pretend = 0, frame = 8
 286              		@ frame_needed = 0, uses_anonymous_args = 0
 287 0000 00B5     		push	{lr}
 288              		.cfi_def_cfa_offset 4
 289              		.cfi_offset 14, -4
 290 0002 83B0     		sub	sp, sp, #12
 291              		.cfi_def_cfa_offset 16
 292              		.loc 7 250 0
 293 0004 FFF7FEFF 		bl	chSysLock
 294              		.loc 7 251 0
 295 0008 FFF7FEFF 		bl	chVTGetSystemTimeX
 296 000c 0190     		str	r0, [sp, #4]
 297              		.loc 7 252 0
 298 000e FFF7FEFF 		bl	chSysUnlock
 299              		.loc 7 254 0
 300 0012 019B     		ldr	r3, [sp, #4]
 301              		.loc 7 255 0
 302 0014 1846     		mov	r0, r3
 303 0016 03B0     		add	sp, sp, #12
 304              		@ sp needed
 305 0018 5DF804FB 		ldr	pc, [sp], #4
 306              		.cfi_endproc
 307              	.LFE176:
 308              		.size	chVTGetSystemTime, .-chVTGetSystemTime
 309 001c AFF30080 		.section	.text.chThdGetSelfX,"ax",%progbits
 310              		.align	2
 311              		.p2align 4,,15
 312              		.thumb
 313              		.thumb_func
 314              		.type	chThdGetSelfX, %function
 315              	chThdGetSelfX:
 316              	.LFB188:
 317              		.file 8 "/home/efe/ChibiOS/os/rt/include/chthreads.h"
 318              		.loc 8 174 0
 319              		.cfi_startproc
 320              		@ args = 0, pretend = 0, frame = 0
 321              		@ frame_needed = 0, uses_anonymous_args = 0
 322              		@ link register save eliminated.
 323              		.loc 8 176 0
 324 0000 014B     		ldr	r3, .L20
 325 0002 9B69     		ldr	r3, [r3, #24]
 326              		.loc 8 177 0
 327 0004 1846     		mov	r0, r3
 328 0006 7047     		bx	lr
 329              	.L21:
 330              		.align	2
 331              	.L20:
 332 0008 00000000 		.word	ch
 333              		.cfi_endproc
 334              	.LFE188:
 335              		.size	chThdGetSelfX, .-chThdGetSelfX
 336 000c AFF30080 		.section	.text.chThdGetPriorityX,"ax",%progbits
 337              		.align	2
 338              		.p2align 4,,15
 339              		.thumb
ARM GAS  /tmp/ccGuY2WI.s 			page 7


 340              		.thumb_func
 341              		.type	chThdGetPriorityX, %function
 342              	chThdGetPriorityX:
 343              	.LFB189:
 344              		.loc 8 187 0
 345              		.cfi_startproc
 346              		@ args = 0, pretend = 0, frame = 0
 347              		@ frame_needed = 0, uses_anonymous_args = 0
 348 0000 08B5     		push	{r3, lr}
 349              		.cfi_def_cfa_offset 8
 350              		.cfi_offset 3, -8
 351              		.cfi_offset 14, -4
 352              		.loc 8 189 0
 353 0002 FFF7FEFF 		bl	chThdGetSelfX
 354 0006 0346     		mov	r3, r0
 355 0008 9B68     		ldr	r3, [r3, #8]
 356              		.loc 8 190 0
 357 000a 1846     		mov	r0, r3
 358 000c 08BD     		pop	{r3, pc}
 359              		.cfi_endproc
 360              	.LFE189:
 361              		.size	chThdGetPriorityX, .-chThdGetPriorityX
 362 000e 00BF     		.section	.text.chSemGetCounterI,"ax",%progbits
 363              		.align	2
 364              		.p2align 4,,15
 365              		.thumb
 366              		.thumb_func
 367              		.type	chSemGetCounterI, %function
 368              	chSemGetCounterI:
 369              	.LFB202:
 370              		.file 9 "/home/efe/ChibiOS/os/rt/include/chsem.h"
 371              		.loc 9 149 0
 372              		.cfi_startproc
 373              		@ args = 0, pretend = 0, frame = 8
 374              		@ frame_needed = 0, uses_anonymous_args = 0
 375 0000 00B5     		push	{lr}
 376              		.cfi_def_cfa_offset 4
 377              		.cfi_offset 14, -4
 378 0002 83B0     		sub	sp, sp, #12
 379              		.cfi_def_cfa_offset 16
 380 0004 0190     		str	r0, [sp, #4]
 381              		.loc 9 151 0
 382 0006 FFF7FEFF 		bl	chDbgCheckClassI
 383              		.loc 9 153 0
 384 000a 019B     		ldr	r3, [sp, #4]
 385 000c 9B68     		ldr	r3, [r3, #8]
 386              		.loc 9 154 0
 387 000e 1846     		mov	r0, r3
 388 0010 03B0     		add	sp, sp, #12
 389              		@ sp needed
 390 0012 5DF804FB 		ldr	pc, [sp], #4
 391              		.cfi_endproc
 392              	.LFE202:
 393              		.size	chSemGetCounterI, .-chSemGetCounterI
 394 0016 00BFAFF3 		.section	.text.chBSemObjectInit,"ax",%progbits
 394      0080AFF3 
 394      0080
ARM GAS  /tmp/ccGuY2WI.s 			page 8


 395              		.align	2
 396              		.p2align 4,,15
 397              		.thumb
 398              		.thumb_func
 399              		.type	chBSemObjectInit, %function
 400              	chBSemObjectInit:
 401              	.LFB203:
 402              		.file 10 "/home/efe/ChibiOS/os/rt/include/chbsem.h"
 403              		.loc 10 124 0
 404              		.cfi_startproc
 405              		@ args = 0, pretend = 0, frame = 8
 406              		@ frame_needed = 0, uses_anonymous_args = 0
 407 0000 00B5     		push	{lr}
 408              		.cfi_def_cfa_offset 4
 409              		.cfi_offset 14, -4
 410 0002 83B0     		sub	sp, sp, #12
 411              		.cfi_def_cfa_offset 16
 412 0004 0190     		str	r0, [sp, #4]
 413 0006 0B46     		mov	r3, r1
 414 0008 8DF80330 		strb	r3, [sp, #3]
 415              		.loc 10 126 0
 416 000c 019A     		ldr	r2, [sp, #4]
 417 000e 9DF80330 		ldrb	r3, [sp, #3]	@ zero_extendqisi2
 418 0012 002B     		cmp	r3, #0
 419 0014 01D0     		beq	.L27
 420              		.loc 10 126 0 is_stmt 0 discriminator 1
 421 0016 0023     		movs	r3, #0
 422 0018 00E0     		b	.L28
 423              	.L27:
 424              		.loc 10 126 0 discriminator 2
 425 001a 0123     		movs	r3, #1
 426              	.L28:
 427              		.loc 10 126 0 discriminator 3
 428 001c 1046     		mov	r0, r2
 429 001e 1946     		mov	r1, r3
 430 0020 FFF7FEFF 		bl	chSemObjectInit
 431              		.loc 10 127 0 is_stmt 1 discriminator 3
 432 0024 03B0     		add	sp, sp, #12
 433              		@ sp needed
 434 0026 5DF804FB 		ldr	pc, [sp], #4
 435              		.cfi_endproc
 436              	.LFE203:
 437              		.size	chBSemObjectInit, .-chBSemObjectInit
 438 002a 00BFAFF3 		.section	.text.chBSemWait,"ax",%progbits
 438      0080
 439              		.align	2
 440              		.p2align 4,,15
 441              		.thumb
 442              		.thumb_func
 443              		.type	chBSemWait, %function
 444              	chBSemWait:
 445              	.LFB204:
 446              		.loc 10 141 0
 447              		.cfi_startproc
 448              		@ args = 0, pretend = 0, frame = 8
 449              		@ frame_needed = 0, uses_anonymous_args = 0
 450 0000 00B5     		push	{lr}
ARM GAS  /tmp/ccGuY2WI.s 			page 9


 451              		.cfi_def_cfa_offset 4
 452              		.cfi_offset 14, -4
 453 0002 83B0     		sub	sp, sp, #12
 454              		.cfi_def_cfa_offset 16
 455 0004 0190     		str	r0, [sp, #4]
 456              		.loc 10 143 0
 457 0006 019B     		ldr	r3, [sp, #4]
 458 0008 1846     		mov	r0, r3
 459 000a FFF7FEFF 		bl	chSemWait
 460 000e 0346     		mov	r3, r0
 461              		.loc 10 144 0
 462 0010 1846     		mov	r0, r3
 463 0012 03B0     		add	sp, sp, #12
 464              		@ sp needed
 465 0014 5DF804FB 		ldr	pc, [sp], #4
 466              		.cfi_endproc
 467              	.LFE204:
 468              		.size	chBSemWait, .-chBSemWait
 469 0018 AFF30080 		.section	.text.chBSemReset,"ax",%progbits
 469      AFF30080 
 470              		.align	2
 471              		.p2align 4,,15
 472              		.thumb
 473              		.thumb_func
 474              		.type	chBSemReset, %function
 475              	chBSemReset:
 476              	.LFB209:
 477              		.loc 10 253 0
 478              		.cfi_startproc
 479              		@ args = 0, pretend = 0, frame = 8
 480              		@ frame_needed = 0, uses_anonymous_args = 0
 481 0000 00B5     		push	{lr}
 482              		.cfi_def_cfa_offset 4
 483              		.cfi_offset 14, -4
 484 0002 83B0     		sub	sp, sp, #12
 485              		.cfi_def_cfa_offset 16
 486 0004 0190     		str	r0, [sp, #4]
 487 0006 0B46     		mov	r3, r1
 488 0008 8DF80330 		strb	r3, [sp, #3]
 489              		.loc 10 255 0
 490 000c 019A     		ldr	r2, [sp, #4]
 491 000e 9DF80330 		ldrb	r3, [sp, #3]	@ zero_extendqisi2
 492 0012 002B     		cmp	r3, #0
 493 0014 01D0     		beq	.L32
 494              		.loc 10 255 0 is_stmt 0 discriminator 1
 495 0016 0023     		movs	r3, #0
 496 0018 00E0     		b	.L33
 497              	.L32:
 498              		.loc 10 255 0 discriminator 2
 499 001a 0123     		movs	r3, #1
 500              	.L33:
 501              		.loc 10 255 0 discriminator 3
 502 001c 1046     		mov	r0, r2
 503 001e 1946     		mov	r1, r3
 504 0020 FFF7FEFF 		bl	chSemReset
 505              		.loc 10 256 0 is_stmt 1 discriminator 3
 506 0024 03B0     		add	sp, sp, #12
ARM GAS  /tmp/ccGuY2WI.s 			page 10


 507              		@ sp needed
 508 0026 5DF804FB 		ldr	pc, [sp], #4
 509              		.cfi_endproc
 510              	.LFE209:
 511              		.size	chBSemReset, .-chBSemReset
 512 002a 00BFAFF3 		.section	.text.chBSemSignalI,"ax",%progbits
 512      0080
 513              		.align	2
 514              		.p2align 4,,15
 515              		.thumb
 516              		.thumb_func
 517              		.type	chBSemSignalI, %function
 518              	chBSemSignalI:
 519              	.LFB210:
 520              		.loc 10 266 0
 521              		.cfi_startproc
 522              		@ args = 0, pretend = 0, frame = 8
 523              		@ frame_needed = 0, uses_anonymous_args = 0
 524 0000 00B5     		push	{lr}
 525              		.cfi_def_cfa_offset 4
 526              		.cfi_offset 14, -4
 527 0002 83B0     		sub	sp, sp, #12
 528              		.cfi_def_cfa_offset 16
 529 0004 0190     		str	r0, [sp, #4]
 530              		.loc 10 268 0
 531 0006 FFF7FEFF 		bl	chDbgCheckClassI
 532              		.loc 10 270 0
 533 000a 019B     		ldr	r3, [sp, #4]
 534 000c 9B68     		ldr	r3, [r3, #8]
 535 000e 002B     		cmp	r3, #0
 536 0010 03DC     		bgt	.L34
 537              		.loc 10 271 0
 538 0012 019B     		ldr	r3, [sp, #4]
 539 0014 1846     		mov	r0, r3
 540 0016 FFF7FEFF 		bl	chSemSignalI
 541              	.L34:
 542              		.loc 10 273 0
 543 001a 03B0     		add	sp, sp, #12
 544              		@ sp needed
 545 001c 5DF804FB 		ldr	pc, [sp], #4
 546              		.cfi_endproc
 547              	.LFE210:
 548              		.size	chBSemSignalI, .-chBSemSignalI
 549              		.section	.text.chBSemSignal,"ax",%progbits
 550              		.align	2
 551              		.p2align 4,,15
 552              		.thumb
 553              		.thumb_func
 554              		.type	chBSemSignal, %function
 555              	chBSemSignal:
 556              	.LFB211:
 557              		.loc 10 282 0
 558              		.cfi_startproc
 559              		@ args = 0, pretend = 0, frame = 8
 560              		@ frame_needed = 0, uses_anonymous_args = 0
 561 0000 00B5     		push	{lr}
 562              		.cfi_def_cfa_offset 4
ARM GAS  /tmp/ccGuY2WI.s 			page 11


 563              		.cfi_offset 14, -4
 564 0002 83B0     		sub	sp, sp, #12
 565              		.cfi_def_cfa_offset 16
 566 0004 0190     		str	r0, [sp, #4]
 567              		.loc 10 284 0
 568 0006 FFF7FEFF 		bl	chSysLock
 569              		.loc 10 285 0
 570 000a 0198     		ldr	r0, [sp, #4]
 571 000c FFF7FEFF 		bl	chBSemSignalI
 572              		.loc 10 286 0
 573 0010 FFF7FEFF 		bl	chSchRescheduleS
 574              		.loc 10 287 0
 575 0014 FFF7FEFF 		bl	chSysUnlock
 576              		.loc 10 288 0
 577 0018 03B0     		add	sp, sp, #12
 578              		@ sp needed
 579 001a 5DF804FB 		ldr	pc, [sp], #4
 580              		.cfi_endproc
 581              	.LFE211:
 582              		.size	chBSemSignal, .-chBSemSignal
 583 001e 00BF     		.section	.text.chBSemGetStateI,"ax",%progbits
 584              		.align	2
 585              		.p2align 4,,15
 586              		.thumb
 587              		.thumb_func
 588              		.type	chBSemGetStateI, %function
 589              	chBSemGetStateI:
 590              	.LFB212:
 591              		.loc 10 300 0
 592              		.cfi_startproc
 593              		@ args = 0, pretend = 0, frame = 8
 594              		@ frame_needed = 0, uses_anonymous_args = 0
 595 0000 00B5     		push	{lr}
 596              		.cfi_def_cfa_offset 4
 597              		.cfi_offset 14, -4
 598 0002 83B0     		sub	sp, sp, #12
 599              		.cfi_def_cfa_offset 16
 600 0004 0190     		str	r0, [sp, #4]
 601              		.loc 10 302 0
 602 0006 FFF7FEFF 		bl	chDbgCheckClassI
 603              		.loc 10 304 0
 604 000a 019B     		ldr	r3, [sp, #4]
 605 000c 9B68     		ldr	r3, [r3, #8]
 606 000e 002B     		cmp	r3, #0
 607 0010 CCBF     		ite	gt
 608 0012 0023     		movgt	r3, #0
 609 0014 0123     		movle	r3, #1
 610 0016 DBB2     		uxtb	r3, r3
 611              		.loc 10 305 0
 612 0018 1846     		mov	r0, r3
 613 001a 03B0     		add	sp, sp, #12
 614              		@ sp needed
 615 001c 5DF804FB 		ldr	pc, [sp], #4
 616              		.cfi_endproc
 617              	.LFE212:
 618              		.size	chBSemGetStateI, .-chBSemGetStateI
 619              		.section	.data.sem1,"aw",%progbits
ARM GAS  /tmp/ccGuY2WI.s 			page 12


 620              		.align	2
 621              		.type	sem1, %object
 622              		.size	sem1, 12
 623              	sem1:
 624 0000 00000000 		.word	sem1
 625 0004 00000000 		.word	sem1
 626 0008 00000000 		.word	0
 627              		.section	.text.sem1_setup,"ax",%progbits
 628              		.align	2
 629              		.p2align 4,,15
 630              		.thumb
 631              		.thumb_func
 632              		.type	sem1_setup, %function
 633              	sem1_setup:
 634              	.LFB240:
 635              		.file 11 "/home/efe/ChibiOS/test/rt/testsem.c"
 636              		.loc 11 72 0
 637              		.cfi_startproc
 638              		@ args = 0, pretend = 0, frame = 0
 639              		@ frame_needed = 0, uses_anonymous_args = 0
 640 0000 08B5     		push	{r3, lr}
 641              		.cfi_def_cfa_offset 8
 642              		.cfi_offset 3, -8
 643              		.cfi_offset 14, -4
 644              		.loc 11 74 0
 645 0002 0248     		ldr	r0, .L40
 646 0004 0021     		movs	r1, #0
 647 0006 FFF7FEFF 		bl	chSemObjectInit
 648              		.loc 11 75 0
 649 000a 08BD     		pop	{r3, pc}
 650              	.L41:
 651              		.align	2
 652              	.L40:
 653 000c 00000000 		.word	sem1
 654              		.cfi_endproc
 655              	.LFE240:
 656              		.size	sem1_setup, .-sem1_setup
 657              		.section	.text.thread1,"ax",%progbits
 658              		.align	2
 659              		.p2align 4,,15
 660              		.thumb
 661              		.thumb_func
 662              		.type	thread1, %function
 663              	thread1:
 664              	.LFB241:
 665              		.loc 11 77 0
 666              		.cfi_startproc
 667              		@ args = 0, pretend = 0, frame = 8
 668              		@ frame_needed = 0, uses_anonymous_args = 0
 669 0000 00B5     		push	{lr}
 670              		.cfi_def_cfa_offset 4
 671              		.cfi_offset 14, -4
 672 0002 83B0     		sub	sp, sp, #12
 673              		.cfi_def_cfa_offset 16
 674 0004 0190     		str	r0, [sp, #4]
 675              		.loc 11 79 0
 676 0006 0548     		ldr	r0, .L43
ARM GAS  /tmp/ccGuY2WI.s 			page 13


 677 0008 FFF7FEFF 		bl	chSemWait
 678              		.loc 11 80 0
 679 000c 019B     		ldr	r3, [sp, #4]
 680 000e 1B78     		ldrb	r3, [r3]	@ zero_extendqisi2
 681 0010 1846     		mov	r0, r3
 682 0012 FFF7FEFF 		bl	test_emit_token
 683              		.loc 11 81 0
 684 0016 03B0     		add	sp, sp, #12
 685              		@ sp needed
 686 0018 5DF804FB 		ldr	pc, [sp], #4
 687              	.L44:
 688              		.align	2
 689              	.L43:
 690 001c 00000000 		.word	sem1
 691              		.cfi_endproc
 692              	.LFE241:
 693              		.size	thread1, .-thread1
 694              		.section	.rodata
 695              		.align	2
 696              	.LC0:
 697 0000 4100     		.ascii	"A\000"
 698 0002 0000     		.align	2
 699              	.LC1:
 700 0004 4200     		.ascii	"B\000"
 701 0006 0000     		.align	2
 702              	.LC2:
 703 0008 4300     		.ascii	"C\000"
 704 000a 0000     		.align	2
 705              	.LC3:
 706 000c 4400     		.ascii	"D\000"
 707 000e 0000     		.align	2
 708              	.LC4:
 709 0010 4500     		.ascii	"E\000"
 710 0012 0000     		.align	2
 711              	.LC5:
 712 0014 41424344 		.ascii	"ABCDE\000"
 712      4500
 713              		.section	.text.sem1_execute,"ax",%progbits
 714              		.align	2
 715              		.p2align 4,,15
 716              		.thumb
 717              		.thumb_func
 718              		.type	sem1_execute, %function
 719              	sem1_execute:
 720              	.LFB242:
 721              		.loc 11 83 0
 722              		.cfi_startproc
 723              		@ args = 0, pretend = 0, frame = 0
 724              		@ frame_needed = 0, uses_anonymous_args = 0
 725 0000 10B5     		push	{r4, lr}
 726              		.cfi_def_cfa_offset 8
 727              		.cfi_offset 4, -8
 728              		.cfi_offset 14, -4
 729 0002 82B0     		sub	sp, sp, #8
 730              		.cfi_def_cfa_offset 16
 731              		.loc 11 85 0
 732 0004 544B     		ldr	r3, .L49
ARM GAS  /tmp/ccGuY2WI.s 			page 14


 733 0006 1C68     		ldr	r4, [r3]
 734 0008 FFF7FEFF 		bl	chThdGetPriorityX
 735 000c 0346     		mov	r3, r0
 736 000e 0533     		adds	r3, r3, #5
 737 0010 524A     		ldr	r2, .L49+4
 738 0012 0092     		str	r2, [sp]
 739 0014 2046     		mov	r0, r4
 740 0016 4FF4B471 		mov	r1, #360
 741 001a 1A46     		mov	r2, r3
 742 001c 504B     		ldr	r3, .L49+8
 743 001e FFF7FEFF 		bl	chThdCreateStatic
 744 0022 0246     		mov	r2, r0
 745 0024 4F4B     		ldr	r3, .L49+12
 746 0026 1A60     		str	r2, [r3]
 747              		.loc 11 86 0
 748 0028 4B4B     		ldr	r3, .L49
 749 002a 5C68     		ldr	r4, [r3, #4]
 750 002c FFF7FEFF 		bl	chThdGetPriorityX
 751 0030 0346     		mov	r3, r0
 752 0032 0133     		adds	r3, r3, #1
 753 0034 4C4A     		ldr	r2, .L49+16
 754 0036 0092     		str	r2, [sp]
 755 0038 2046     		mov	r0, r4
 756 003a 4FF4B471 		mov	r1, #360
 757 003e 1A46     		mov	r2, r3
 758 0040 474B     		ldr	r3, .L49+8
 759 0042 FFF7FEFF 		bl	chThdCreateStatic
 760 0046 0246     		mov	r2, r0
 761 0048 464B     		ldr	r3, .L49+12
 762 004a 5A60     		str	r2, [r3, #4]
 763              		.loc 11 87 0
 764 004c 424B     		ldr	r3, .L49
 765 004e 9C68     		ldr	r4, [r3, #8]
 766 0050 FFF7FEFF 		bl	chThdGetPriorityX
 767 0054 0346     		mov	r3, r0
 768 0056 0333     		adds	r3, r3, #3
 769 0058 444A     		ldr	r2, .L49+20
 770 005a 0092     		str	r2, [sp]
 771 005c 2046     		mov	r0, r4
 772 005e 4FF4B471 		mov	r1, #360
 773 0062 1A46     		mov	r2, r3
 774 0064 3E4B     		ldr	r3, .L49+8
 775 0066 FFF7FEFF 		bl	chThdCreateStatic
 776 006a 0246     		mov	r2, r0
 777 006c 3D4B     		ldr	r3, .L49+12
 778 006e 9A60     		str	r2, [r3, #8]
 779              		.loc 11 88 0
 780 0070 394B     		ldr	r3, .L49
 781 0072 DC68     		ldr	r4, [r3, #12]
 782 0074 FFF7FEFF 		bl	chThdGetPriorityX
 783 0078 0346     		mov	r3, r0
 784 007a 0433     		adds	r3, r3, #4
 785 007c 3C4A     		ldr	r2, .L49+24
 786 007e 0092     		str	r2, [sp]
 787 0080 2046     		mov	r0, r4
 788 0082 4FF4B471 		mov	r1, #360
 789 0086 1A46     		mov	r2, r3
ARM GAS  /tmp/ccGuY2WI.s 			page 15


 790 0088 354B     		ldr	r3, .L49+8
 791 008a FFF7FEFF 		bl	chThdCreateStatic
 792 008e 0246     		mov	r2, r0
 793 0090 344B     		ldr	r3, .L49+12
 794 0092 DA60     		str	r2, [r3, #12]
 795              		.loc 11 89 0
 796 0094 304B     		ldr	r3, .L49
 797 0096 1C69     		ldr	r4, [r3, #16]
 798 0098 FFF7FEFF 		bl	chThdGetPriorityX
 799 009c 0346     		mov	r3, r0
 800 009e 0233     		adds	r3, r3, #2
 801 00a0 344A     		ldr	r2, .L49+28
 802 00a2 0092     		str	r2, [sp]
 803 00a4 2046     		mov	r0, r4
 804 00a6 4FF4B471 		mov	r1, #360
 805 00aa 1A46     		mov	r2, r3
 806 00ac 2C4B     		ldr	r3, .L49+8
 807 00ae FFF7FEFF 		bl	chThdCreateStatic
 808 00b2 0246     		mov	r2, r0
 809 00b4 2B4B     		ldr	r3, .L49+12
 810 00b6 1A61     		str	r2, [r3, #16]
 811              		.loc 11 90 0
 812 00b8 2F48     		ldr	r0, .L49+32
 813 00ba FFF7FEFF 		bl	chSemSignal
 814              		.loc 11 91 0
 815 00be 2E48     		ldr	r0, .L49+32
 816 00c0 FFF7FEFF 		bl	chSemSignal
 817              		.loc 11 92 0
 818 00c4 2C48     		ldr	r0, .L49+32
 819 00c6 FFF7FEFF 		bl	chSemSignal
 820              		.loc 11 93 0
 821 00ca 2B48     		ldr	r0, .L49+32
 822 00cc FFF7FEFF 		bl	chSemSignal
 823              		.loc 11 94 0
 824 00d0 2948     		ldr	r0, .L49+32
 825 00d2 FFF7FEFF 		bl	chSemSignal
 826              		.loc 11 95 0
 827 00d6 FFF7FEFF 		bl	test_wait_threads
 828              		.loc 11 99 0
 829 00da 0120     		movs	r0, #1
 830 00dc 2749     		ldr	r1, .L49+36
 831 00de FFF7FEFF 		bl	_test_assert_sequence
 832 00e2 0346     		mov	r3, r0
 833 00e4 002B     		cmp	r3, #0
 834 00e6 00D0     		beq	.L46
 835              		.loc 11 99 0 is_stmt 0 discriminator 1
 836 00e8 34E0     		b	.L45
 837              	.L46:
 838              		.loc 11 101 0 is_stmt 1
 839 00ea 1B4B     		ldr	r3, .L49
 840 00ec 1C68     		ldr	r4, [r3]
 841 00ee FFF7FEFF 		bl	chThdGetPriorityX
 842 00f2 0346     		mov	r3, r0
 843 00f4 0533     		adds	r3, r3, #5
 844 00f6 194A     		ldr	r2, .L49+4
 845 00f8 0092     		str	r2, [sp]
 846 00fa 2046     		mov	r0, r4
ARM GAS  /tmp/ccGuY2WI.s 			page 16


 847 00fc 4FF4B471 		mov	r1, #360
 848 0100 1A46     		mov	r2, r3
 849 0102 174B     		ldr	r3, .L49+8
 850 0104 FFF7FEFF 		bl	chThdCreateStatic
 851 0108 0246     		mov	r2, r0
 852 010a 164B     		ldr	r3, .L49+12
 853 010c 1A60     		str	r2, [r3]
 854              		.loc 11 102 0
 855 010e FFF7FEFF 		bl	chSysLock
 856              		.loc 11 103 0
 857 0112 1948     		ldr	r0, .L49+32
 858 0114 0221     		movs	r1, #2
 859 0116 FFF7FEFF 		bl	chSemAddCounterI
 860              		.loc 11 104 0
 861 011a FFF7FEFF 		bl	chSchRescheduleS
 862              		.loc 11 105 0
 863 011e FFF7FEFF 		bl	chSysUnlock
 864              		.loc 11 106 0
 865 0122 FFF7FEFF 		bl	test_wait_threads
 866              		.loc 11 107 0
 867 0126 FFF7FEFF 		bl	chSysLock
 868 012a 1348     		ldr	r0, .L49+32
 869 012c FFF7FEFF 		bl	chSemGetCounterI
 870 0130 0346     		mov	r3, r0
 871 0132 012B     		cmp	r3, #1
 872 0134 14BF     		ite	ne
 873 0136 0023     		movne	r3, #0
 874 0138 0123     		moveq	r3, #1
 875 013a DBB2     		uxtb	r3, r3
 876 013c 0220     		movs	r0, #2
 877 013e 1946     		mov	r1, r3
 878 0140 FFF7FEFF 		bl	_test_assert
 879 0144 0346     		mov	r3, r0
 880 0146 002B     		cmp	r3, #0
 881 0148 02D0     		beq	.L48
 882              		.loc 11 107 0 is_stmt 0 discriminator 1
 883 014a FFF7FEFF 		bl	chSysUnlock
 884 014e 01E0     		b	.L45
 885              	.L48:
 886              		.loc 11 107 0 discriminator 2
 887 0150 FFF7FEFF 		bl	chSysUnlock
 888              	.L45:
 889              		.loc 11 108 0 is_stmt 1
 890 0154 02B0     		add	sp, sp, #8
 891              		@ sp needed
 892 0156 10BD     		pop	{r4, pc}
 893              	.L50:
 894              		.align	2
 895              	.L49:
 896 0158 00000000 		.word	wa
 897 015c 00000000 		.word	.LC0
 898 0160 00000000 		.word	thread1
 899 0164 00000000 		.word	threads
 900 0168 04000000 		.word	.LC1
 901 016c 08000000 		.word	.LC2
 902 0170 0C000000 		.word	.LC3
 903 0174 10000000 		.word	.LC4
ARM GAS  /tmp/ccGuY2WI.s 			page 17


 904 0178 00000000 		.word	sem1
 905 017c 14000000 		.word	.LC5
 906              		.cfi_endproc
 907              	.LFE242:
 908              		.size	sem1_execute, .-sem1_execute
 909              		.global	testsem1
 910              		.section	.rodata
 911 001a 0000     		.align	2
 912              	.LC6:
 913 001c 53656D61 		.ascii	"Semaphores, enqueuing\000"
 913      70686F72 
 913      65732C20 
 913      656E7175 
 913      6575696E 
 914              		.section	.rodata.testsem1,"a",%progbits
 915              		.align	2
 916              		.type	testsem1, %object
 917              		.size	testsem1, 16
 918              	testsem1:
 919 0000 1C000000 		.word	.LC6
 920 0004 00000000 		.word	sem1_setup
 921 0008 00000000 		.word	0
 922 000c 00000000 		.word	sem1_execute
 923              		.section	.text.sem2_setup,"ax",%progbits
 924              		.align	2
 925              		.p2align 4,,15
 926              		.thumb
 927              		.thumb_func
 928              		.type	sem2_setup, %function
 929              	sem2_setup:
 930              	.LFB243:
 931              		.loc 11 128 0
 932              		.cfi_startproc
 933              		@ args = 0, pretend = 0, frame = 0
 934              		@ frame_needed = 0, uses_anonymous_args = 0
 935 0000 08B5     		push	{r3, lr}
 936              		.cfi_def_cfa_offset 8
 937              		.cfi_offset 3, -8
 938              		.cfi_offset 14, -4
 939              		.loc 11 130 0
 940 0002 0248     		ldr	r0, .L52
 941 0004 0021     		movs	r1, #0
 942 0006 FFF7FEFF 		bl	chSemObjectInit
 943              		.loc 11 131 0
 944 000a 08BD     		pop	{r3, pc}
 945              	.L53:
 946              		.align	2
 947              	.L52:
 948 000c 00000000 		.word	sem1
 949              		.cfi_endproc
 950              	.LFE243:
 951              		.size	sem2_setup, .-sem2_setup
 952              		.section	.text.thread2,"ax",%progbits
 953              		.align	2
 954              		.p2align 4,,15
 955              		.thumb
 956              		.thumb_func
ARM GAS  /tmp/ccGuY2WI.s 			page 18


 957              		.type	thread2, %function
 958              	thread2:
 959              	.LFB244:
 960              		.loc 11 133 0
 961              		.cfi_startproc
 962              		@ args = 0, pretend = 0, frame = 8
 963              		@ frame_needed = 0, uses_anonymous_args = 0
 964 0000 00B5     		push	{lr}
 965              		.cfi_def_cfa_offset 4
 966              		.cfi_offset 14, -4
 967 0002 83B0     		sub	sp, sp, #12
 968              		.cfi_def_cfa_offset 16
 969 0004 0190     		str	r0, [sp, #4]
 970              		.loc 11 136 0
 971 0006 4FF4FA70 		mov	r0, #500
 972 000a FFF7FEFF 		bl	chThdSleep
 973              		.loc 11 137 0
 974 000e FFF7FEFF 		bl	chSysLock
 975              		.loc 11 138 0
 976 0012 0548     		ldr	r0, .L55
 977 0014 FFF7FEFF 		bl	chSemSignalI
 978              		.loc 11 139 0
 979 0018 FFF7FEFF 		bl	chSchRescheduleS
 980              		.loc 11 140 0
 981 001c FFF7FEFF 		bl	chSysUnlock
 982              		.loc 11 141 0
 983 0020 03B0     		add	sp, sp, #12
 984              		@ sp needed
 985 0022 5DF804FB 		ldr	pc, [sp], #4
 986              	.L56:
 987 0026 00BF     		.align	2
 988              	.L55:
 989 0028 00000000 		.word	sem1
 990              		.cfi_endproc
 991              	.LFE244:
 992              		.size	thread2, .-thread2
 993 002c AFF30080 		.section	.text.sem2_execute,"ax",%progbits
 994              		.align	2
 995              		.p2align 4,,15
 996              		.thumb
 997              		.thumb_func
 998              		.type	sem2_execute, %function
 999              	sem2_execute:
 1000              	.LFB245:
 1001              		.loc 11 143 0
 1002              		.cfi_startproc
 1003              		@ args = 0, pretend = 0, frame = 16
 1004              		@ frame_needed = 0, uses_anonymous_args = 0
 1005 0000 10B5     		push	{r4, lr}
 1006              		.cfi_def_cfa_offset 8
 1007              		.cfi_offset 4, -8
 1008              		.cfi_offset 14, -4
 1009 0002 86B0     		sub	sp, sp, #24
 1010              		.cfi_def_cfa_offset 32
 1011              		.loc 11 151 0
 1012 0004 6748     		ldr	r0, .L71
 1013 0006 0021     		movs	r1, #0
ARM GAS  /tmp/ccGuY2WI.s 			page 19


 1014 0008 FFF7FEFF 		bl	chSemWaitTimeout
 1015 000c 0490     		str	r0, [sp, #16]
 1016              		.loc 11 152 0
 1017 000e 049B     		ldr	r3, [sp, #16]
 1018 0010 B3F1FF3F 		cmp	r3, #-1
 1019 0014 14BF     		ite	ne
 1020 0016 0023     		movne	r3, #0
 1021 0018 0123     		moveq	r3, #1
 1022 001a DBB2     		uxtb	r3, r3
 1023 001c 0120     		movs	r0, #1
 1024 001e 1946     		mov	r1, r3
 1025 0020 FFF7FEFF 		bl	_test_assert
 1026 0024 0346     		mov	r3, r0
 1027 0026 002B     		cmp	r3, #0
 1028 0028 00D0     		beq	.L58
 1029              		.loc 11 152 0 is_stmt 0 discriminator 1
 1030 002a B8E0     		b	.L57
 1031              	.L58:
 1032              		.loc 11 153 0 is_stmt 1
 1033 002c 5D48     		ldr	r0, .L71
 1034 002e FFF7FEFF 		bl	queue_isempty
 1035 0032 0346     		mov	r3, r0
 1036 0034 0220     		movs	r0, #2
 1037 0036 1946     		mov	r1, r3
 1038 0038 FFF7FEFF 		bl	_test_assert
 1039 003c 0346     		mov	r3, r0
 1040 003e 002B     		cmp	r3, #0
 1041 0040 00D0     		beq	.L60
 1042              		.loc 11 153 0 is_stmt 0 discriminator 1
 1043 0042 ACE0     		b	.L57
 1044              	.L60:
 1045              		.loc 11 154 0 is_stmt 1
 1046 0044 574B     		ldr	r3, .L71
 1047 0046 9B68     		ldr	r3, [r3, #8]
 1048 0048 002B     		cmp	r3, #0
 1049 004a 14BF     		ite	ne
 1050 004c 0023     		movne	r3, #0
 1051 004e 0123     		moveq	r3, #1
 1052 0050 DBB2     		uxtb	r3, r3
 1053 0052 0320     		movs	r0, #3
 1054 0054 1946     		mov	r1, r3
 1055 0056 FFF7FEFF 		bl	_test_assert
 1056 005a 0346     		mov	r3, r0
 1057 005c 002B     		cmp	r3, #0
 1058 005e 00D0     		beq	.L61
 1059              		.loc 11 154 0 is_stmt 0 discriminator 1
 1060 0060 9DE0     		b	.L57
 1061              	.L61:
 1062              		.loc 11 159 0 is_stmt 1
 1063 0062 514B     		ldr	r3, .L71+4
 1064 0064 1C68     		ldr	r4, [r3]
 1065 0066 FFF7FEFF 		bl	chThdGetPriorityX
 1066 006a 0346     		mov	r3, r0
 1067 006c 013B     		subs	r3, r3, #1
 1068 006e 0022     		movs	r2, #0
 1069 0070 0092     		str	r2, [sp]
 1070 0072 2046     		mov	r0, r4
ARM GAS  /tmp/ccGuY2WI.s 			page 20


 1071 0074 4FF4B471 		mov	r1, #360
 1072 0078 1A46     		mov	r2, r3
 1073 007a 4C4B     		ldr	r3, .L71+8
 1074 007c FFF7FEFF 		bl	chThdCreateStatic
 1075 0080 0246     		mov	r2, r0
 1076 0082 4B4B     		ldr	r3, .L71+12
 1077 0084 1A60     		str	r2, [r3]
 1078              		.loc 11 161 0
 1079 0086 4748     		ldr	r0, .L71
 1080 0088 41F28831 		movw	r1, #5000
 1081 008c FFF7FEFF 		bl	chSemWaitTimeout
 1082 0090 0490     		str	r0, [sp, #16]
 1083              		.loc 11 162 0
 1084 0092 FFF7FEFF 		bl	test_wait_threads
 1085              		.loc 11 163 0
 1086 0096 049B     		ldr	r3, [sp, #16]
 1087 0098 002B     		cmp	r3, #0
 1088 009a 14BF     		ite	ne
 1089 009c 0023     		movne	r3, #0
 1090 009e 0123     		moveq	r3, #1
 1091 00a0 DBB2     		uxtb	r3, r3
 1092 00a2 0420     		movs	r0, #4
 1093 00a4 1946     		mov	r1, r3
 1094 00a6 FFF7FEFF 		bl	_test_assert
 1095 00aa 0346     		mov	r3, r0
 1096 00ac 002B     		cmp	r3, #0
 1097 00ae 00D0     		beq	.L62
 1098              		.loc 11 163 0 is_stmt 0 discriminator 1
 1099 00b0 75E0     		b	.L57
 1100              	.L62:
 1101              		.loc 11 164 0 is_stmt 1
 1102 00b2 3C48     		ldr	r0, .L71
 1103 00b4 FFF7FEFF 		bl	queue_isempty
 1104 00b8 0346     		mov	r3, r0
 1105 00ba 0520     		movs	r0, #5
 1106 00bc 1946     		mov	r1, r3
 1107 00be FFF7FEFF 		bl	_test_assert
 1108 00c2 0346     		mov	r3, r0
 1109 00c4 002B     		cmp	r3, #0
 1110 00c6 00D0     		beq	.L63
 1111              		.loc 11 164 0 is_stmt 0 discriminator 1
 1112 00c8 69E0     		b	.L57
 1113              	.L63:
 1114              		.loc 11 165 0 is_stmt 1
 1115 00ca 364B     		ldr	r3, .L71
 1116 00cc 9B68     		ldr	r3, [r3, #8]
 1117 00ce 002B     		cmp	r3, #0
 1118 00d0 14BF     		ite	ne
 1119 00d2 0023     		movne	r3, #0
 1120 00d4 0123     		moveq	r3, #1
 1121 00d6 DBB2     		uxtb	r3, r3
 1122 00d8 0620     		movs	r0, #6
 1123 00da 1946     		mov	r1, r3
 1124 00dc FFF7FEFF 		bl	_test_assert
 1125 00e0 0346     		mov	r3, r0
 1126 00e2 002B     		cmp	r3, #0
 1127 00e4 00D0     		beq	.L64
ARM GAS  /tmp/ccGuY2WI.s 			page 21


 1128              		.loc 11 165 0 is_stmt 0 discriminator 1
 1129 00e6 5AE0     		b	.L57
 1130              	.L64:
 1131              		.loc 11 170 0 is_stmt 1
 1132 00e8 FFF7FEFF 		bl	test_wait_tick
 1133              		.loc 11 171 0
 1134 00ec FFF7FEFF 		bl	chVTGetSystemTime
 1135 00f0 0346     		mov	r3, r0
 1136 00f2 03F6C413 		addw	r3, r3, #2500
 1137 00f6 0393     		str	r3, [sp, #12]
 1138              		.loc 11 172 0
 1139 00f8 0023     		movs	r3, #0
 1140 00fa 0593     		str	r3, [sp, #20]
 1141 00fc 39E0     		b	.L65
 1142              	.L69:
 1143              		.loc 11 173 0
 1144 00fe 059B     		ldr	r3, [sp, #20]
 1145 0100 DBB2     		uxtb	r3, r3
 1146 0102 4133     		adds	r3, r3, #65
 1147 0104 DBB2     		uxtb	r3, r3
 1148 0106 1846     		mov	r0, r3
 1149 0108 FFF7FEFF 		bl	test_emit_token
 1150              		.loc 11 174 0
 1151 010c 2548     		ldr	r0, .L71
 1152 010e 4FF4FA71 		mov	r1, #500
 1153 0112 FFF7FEFF 		bl	chSemWaitTimeout
 1154 0116 0490     		str	r0, [sp, #16]
 1155              		.loc 11 175 0
 1156 0118 049B     		ldr	r3, [sp, #16]
 1157 011a B3F1FF3F 		cmp	r3, #-1
 1158 011e 14BF     		ite	ne
 1159 0120 0023     		movne	r3, #0
 1160 0122 0123     		moveq	r3, #1
 1161 0124 DBB2     		uxtb	r3, r3
 1162 0126 0720     		movs	r0, #7
 1163 0128 1946     		mov	r1, r3
 1164 012a FFF7FEFF 		bl	_test_assert
 1165 012e 0346     		mov	r3, r0
 1166 0130 002B     		cmp	r3, #0
 1167 0132 00D0     		beq	.L66
 1168              		.loc 11 175 0 is_stmt 0 discriminator 1
 1169 0134 33E0     		b	.L57
 1170              	.L66:
 1171              		.loc 11 176 0 is_stmt 1
 1172 0136 1B48     		ldr	r0, .L71
 1173 0138 FFF7FEFF 		bl	queue_isempty
 1174 013c 0346     		mov	r3, r0
 1175 013e 0820     		movs	r0, #8
 1176 0140 1946     		mov	r1, r3
 1177 0142 FFF7FEFF 		bl	_test_assert
 1178 0146 0346     		mov	r3, r0
 1179 0148 002B     		cmp	r3, #0
 1180 014a 00D0     		beq	.L67
 1181              		.loc 11 176 0 is_stmt 0 discriminator 1
 1182 014c 27E0     		b	.L57
 1183              	.L67:
 1184              		.loc 11 177 0 is_stmt 1
ARM GAS  /tmp/ccGuY2WI.s 			page 22


 1185 014e 154B     		ldr	r3, .L71
 1186 0150 9B68     		ldr	r3, [r3, #8]
 1187 0152 002B     		cmp	r3, #0
 1188 0154 14BF     		ite	ne
 1189 0156 0023     		movne	r3, #0
 1190 0158 0123     		moveq	r3, #1
 1191 015a DBB2     		uxtb	r3, r3
 1192 015c 0920     		movs	r0, #9
 1193 015e 1946     		mov	r1, r3
 1194 0160 FFF7FEFF 		bl	_test_assert
 1195 0164 0346     		mov	r3, r0
 1196 0166 002B     		cmp	r3, #0
 1197 0168 00D0     		beq	.L68
 1198              		.loc 11 177 0 is_stmt 0 discriminator 1
 1199 016a 18E0     		b	.L57
 1200              	.L68:
 1201              		.loc 11 172 0 is_stmt 1
 1202 016c 059B     		ldr	r3, [sp, #20]
 1203 016e 0133     		adds	r3, r3, #1
 1204 0170 0593     		str	r3, [sp, #20]
 1205              	.L65:
 1206              		.loc 11 172 0 is_stmt 0 discriminator 1
 1207 0172 059B     		ldr	r3, [sp, #20]
 1208 0174 042B     		cmp	r3, #4
 1209 0176 C2DD     		ble	.L69
 1210              		.loc 11 179 0 is_stmt 1
 1211 0178 0A20     		movs	r0, #10
 1212 017a 0E49     		ldr	r1, .L71+16
 1213 017c FFF7FEFF 		bl	_test_assert_sequence
 1214 0180 0346     		mov	r3, r0
 1215 0182 002B     		cmp	r3, #0
 1216 0184 00D0     		beq	.L70
 1217              		.loc 11 179 0 is_stmt 0 discriminator 1
 1218 0186 0AE0     		b	.L57
 1219              	.L70:
 1220              		.loc 11 180 0 is_stmt 1
 1221 0188 039B     		ldr	r3, [sp, #12]
 1222 018a 1433     		adds	r3, r3, #20
 1223 018c 0B20     		movs	r0, #11
 1224 018e 0399     		ldr	r1, [sp, #12]
 1225 0190 1A46     		mov	r2, r3
 1226 0192 FFF7FEFF 		bl	_test_assert_time_window
 1227 0196 0346     		mov	r3, r0
 1228 0198 002B     		cmp	r3, #0
 1229 019a 00D0     		beq	.L57
 1230              		.loc 11 180 0 is_stmt 0 discriminator 1
 1231 019c 00BF     		nop
 1232              	.L57:
 1233              		.loc 11 181 0 is_stmt 1
 1234 019e 06B0     		add	sp, sp, #24
 1235              		@ sp needed
 1236 01a0 10BD     		pop	{r4, pc}
 1237              	.L72:
 1238 01a2 00BF     		.align	2
 1239              	.L71:
 1240 01a4 00000000 		.word	sem1
 1241 01a8 00000000 		.word	wa
ARM GAS  /tmp/ccGuY2WI.s 			page 23


 1242 01ac 00000000 		.word	thread2
 1243 01b0 00000000 		.word	threads
 1244 01b4 14000000 		.word	.LC5
 1245              		.cfi_endproc
 1246              	.LFE245:
 1247              		.size	sem2_execute, .-sem2_execute
 1248              		.global	testsem2
 1249 01b8 AFF30080 		.section	.rodata
 1249      AFF30080 
 1250 0032 0000     		.align	2
 1251              	.LC7:
 1252 0034 53656D61 		.ascii	"Semaphores, timeout\000"
 1252      70686F72 
 1252      65732C20 
 1252      74696D65 
 1252      6F757400 
 1253              		.section	.rodata.testsem2,"a",%progbits
 1254              		.align	2
 1255              		.type	testsem2, %object
 1256              		.size	testsem2, 16
 1257              	testsem2:
 1258 0000 34000000 		.word	.LC7
 1259 0004 00000000 		.word	sem2_setup
 1260 0008 00000000 		.word	0
 1261 000c 00000000 		.word	sem2_execute
 1262              		.section	.text.sem3_setup,"ax",%progbits
 1263              		.align	2
 1264              		.p2align 4,,15
 1265              		.thumb
 1266              		.thumb_func
 1267              		.type	sem3_setup, %function
 1268              	sem3_setup:
 1269              	.LFB246:
 1270              		.loc 11 202 0
 1271              		.cfi_startproc
 1272              		@ args = 0, pretend = 0, frame = 0
 1273              		@ frame_needed = 0, uses_anonymous_args = 0
 1274 0000 08B5     		push	{r3, lr}
 1275              		.cfi_def_cfa_offset 8
 1276              		.cfi_offset 3, -8
 1277              		.cfi_offset 14, -4
 1278              		.loc 11 204 0
 1279 0002 0248     		ldr	r0, .L74
 1280 0004 0021     		movs	r1, #0
 1281 0006 FFF7FEFF 		bl	chSemObjectInit
 1282              		.loc 11 205 0
 1283 000a 08BD     		pop	{r3, pc}
 1284              	.L75:
 1285              		.align	2
 1286              	.L74:
 1287 000c 00000000 		.word	sem1
 1288              		.cfi_endproc
 1289              	.LFE246:
 1290              		.size	sem3_setup, .-sem3_setup
 1291              		.section	.text.thread3,"ax",%progbits
 1292              		.align	2
 1293              		.p2align 4,,15
ARM GAS  /tmp/ccGuY2WI.s 			page 24


 1294              		.thumb
 1295              		.thumb_func
 1296              		.type	thread3, %function
 1297              	thread3:
 1298              	.LFB247:
 1299              		.loc 11 207 0
 1300              		.cfi_startproc
 1301              		@ args = 0, pretend = 0, frame = 8
 1302              		@ frame_needed = 0, uses_anonymous_args = 0
 1303 0000 00B5     		push	{lr}
 1304              		.cfi_def_cfa_offset 4
 1305              		.cfi_offset 14, -4
 1306 0002 83B0     		sub	sp, sp, #12
 1307              		.cfi_def_cfa_offset 16
 1308 0004 0190     		str	r0, [sp, #4]
 1309              		.loc 11 210 0
 1310 0006 0448     		ldr	r0, .L77
 1311 0008 FFF7FEFF 		bl	chSemWait
 1312              		.loc 11 211 0
 1313 000c 0248     		ldr	r0, .L77
 1314 000e FFF7FEFF 		bl	chSemSignal
 1315              		.loc 11 212 0
 1316 0012 03B0     		add	sp, sp, #12
 1317              		@ sp needed
 1318 0014 5DF804FB 		ldr	pc, [sp], #4
 1319              	.L78:
 1320              		.align	2
 1321              	.L77:
 1322 0018 00000000 		.word	sem1
 1323              		.cfi_endproc
 1324              	.LFE247:
 1325              		.size	thread3, .-thread3
 1326 001c AFF30080 		.section	.text.sem3_execute,"ax",%progbits
 1327              		.align	2
 1328              		.p2align 4,,15
 1329              		.thumb
 1330              		.thumb_func
 1331              		.type	sem3_execute, %function
 1332              	sem3_execute:
 1333              	.LFB248:
 1334              		.loc 11 214 0
 1335              		.cfi_startproc
 1336              		@ args = 0, pretend = 0, frame = 0
 1337              		@ frame_needed = 0, uses_anonymous_args = 0
 1338 0000 10B5     		push	{r4, lr}
 1339              		.cfi_def_cfa_offset 8
 1340              		.cfi_offset 4, -8
 1341              		.cfi_offset 14, -4
 1342 0002 82B0     		sub	sp, sp, #8
 1343              		.cfi_def_cfa_offset 16
 1344              		.loc 11 216 0
 1345 0004 284B     		ldr	r3, .L84
 1346 0006 1C68     		ldr	r4, [r3]
 1347 0008 FFF7FEFF 		bl	chThdGetPriorityX
 1348 000c 0346     		mov	r3, r0
 1349 000e 0133     		adds	r3, r3, #1
 1350 0010 0022     		movs	r2, #0
ARM GAS  /tmp/ccGuY2WI.s 			page 25


 1351 0012 0092     		str	r2, [sp]
 1352 0014 2046     		mov	r0, r4
 1353 0016 4FF4B471 		mov	r1, #360
 1354 001a 1A46     		mov	r2, r3
 1355 001c 234B     		ldr	r3, .L84+4
 1356 001e FFF7FEFF 		bl	chThdCreateStatic
 1357 0022 0246     		mov	r2, r0
 1358 0024 224B     		ldr	r3, .L84+8
 1359 0026 1A60     		str	r2, [r3]
 1360              		.loc 11 217 0
 1361 0028 2248     		ldr	r0, .L84+12
 1362 002a 2249     		ldr	r1, .L84+12
 1363 002c FFF7FEFF 		bl	chSemSignalWait
 1364              		.loc 11 218 0
 1365 0030 2048     		ldr	r0, .L84+12
 1366 0032 FFF7FEFF 		bl	queue_isempty
 1367 0036 0346     		mov	r3, r0
 1368 0038 0120     		movs	r0, #1
 1369 003a 1946     		mov	r1, r3
 1370 003c FFF7FEFF 		bl	_test_assert
 1371 0040 0346     		mov	r3, r0
 1372 0042 002B     		cmp	r3, #0
 1373 0044 00D0     		beq	.L80
 1374              		.loc 11 218 0 is_stmt 0 discriminator 1
 1375 0046 2DE0     		b	.L79
 1376              	.L80:
 1377              		.loc 11 219 0 is_stmt 1
 1378 0048 1A4B     		ldr	r3, .L84+12
 1379 004a 9B68     		ldr	r3, [r3, #8]
 1380 004c 002B     		cmp	r3, #0
 1381 004e 14BF     		ite	ne
 1382 0050 0023     		movne	r3, #0
 1383 0052 0123     		moveq	r3, #1
 1384 0054 DBB2     		uxtb	r3, r3
 1385 0056 0220     		movs	r0, #2
 1386 0058 1946     		mov	r1, r3
 1387 005a FFF7FEFF 		bl	_test_assert
 1388 005e 0346     		mov	r3, r0
 1389 0060 002B     		cmp	r3, #0
 1390 0062 00D0     		beq	.L82
 1391              		.loc 11 219 0 is_stmt 0 discriminator 1
 1392 0064 1EE0     		b	.L79
 1393              	.L82:
 1394              		.loc 11 221 0 is_stmt 1
 1395 0066 1348     		ldr	r0, .L84+12
 1396 0068 1249     		ldr	r1, .L84+12
 1397 006a FFF7FEFF 		bl	chSemSignalWait
 1398              		.loc 11 222 0
 1399 006e 1148     		ldr	r0, .L84+12
 1400 0070 FFF7FEFF 		bl	queue_isempty
 1401 0074 0346     		mov	r3, r0
 1402 0076 0320     		movs	r0, #3
 1403 0078 1946     		mov	r1, r3
 1404 007a FFF7FEFF 		bl	_test_assert
 1405 007e 0346     		mov	r3, r0
 1406 0080 002B     		cmp	r3, #0
 1407 0082 00D0     		beq	.L83
ARM GAS  /tmp/ccGuY2WI.s 			page 26


 1408              		.loc 11 222 0 is_stmt 0 discriminator 1
 1409 0084 0EE0     		b	.L79
 1410              	.L83:
 1411              		.loc 11 223 0 is_stmt 1
 1412 0086 0B4B     		ldr	r3, .L84+12
 1413 0088 9B68     		ldr	r3, [r3, #8]
 1414 008a 002B     		cmp	r3, #0
 1415 008c 14BF     		ite	ne
 1416 008e 0023     		movne	r3, #0
 1417 0090 0123     		moveq	r3, #1
 1418 0092 DBB2     		uxtb	r3, r3
 1419 0094 0420     		movs	r0, #4
 1420 0096 1946     		mov	r1, r3
 1421 0098 FFF7FEFF 		bl	_test_assert
 1422 009c 0346     		mov	r3, r0
 1423 009e 002B     		cmp	r3, #0
 1424 00a0 00D0     		beq	.L79
 1425              		.loc 11 223 0 is_stmt 0 discriminator 1
 1426 00a2 00BF     		nop
 1427              	.L79:
 1428              		.loc 11 224 0 is_stmt 1
 1429 00a4 02B0     		add	sp, sp, #8
 1430              		@ sp needed
 1431 00a6 10BD     		pop	{r4, pc}
 1432              	.L85:
 1433              		.align	2
 1434              	.L84:
 1435 00a8 00000000 		.word	wa
 1436 00ac 00000000 		.word	thread3
 1437 00b0 00000000 		.word	threads
 1438 00b4 00000000 		.word	sem1
 1439              		.cfi_endproc
 1440              	.LFE248:
 1441              		.size	sem3_execute, .-sem3_execute
 1442              		.global	testsem3
 1443 00b8 AFF30080 		.section	.rodata
 1443      AFF30080 
 1444              		.align	2
 1445              	.LC8:
 1446 0048 53656D61 		.ascii	"Semaphores, atomic signal-wait\000"
 1446      70686F72 
 1446      65732C20 
 1446      61746F6D 
 1446      69632073 
 1447              		.section	.rodata.testsem3,"a",%progbits
 1448              		.align	2
 1449              		.type	testsem3, %object
 1450              		.size	testsem3, 16
 1451              	testsem3:
 1452 0000 48000000 		.word	.LC8
 1453 0004 00000000 		.word	sem3_setup
 1454 0008 00000000 		.word	0
 1455 000c 00000000 		.word	sem3_execute
 1456              		.section	.text.thread4,"ax",%progbits
 1457              		.align	2
 1458              		.p2align 4,,15
 1459              		.thumb
ARM GAS  /tmp/ccGuY2WI.s 			page 27


 1460              		.thumb_func
 1461              		.type	thread4, %function
 1462              	thread4:
 1463              	.LFB249:
 1464              		.loc 11 241 0
 1465              		.cfi_startproc
 1466              		@ args = 0, pretend = 0, frame = 8
 1467              		@ frame_needed = 0, uses_anonymous_args = 0
 1468 0000 00B5     		push	{lr}
 1469              		.cfi_def_cfa_offset 4
 1470              		.cfi_offset 14, -4
 1471 0002 83B0     		sub	sp, sp, #12
 1472              		.cfi_def_cfa_offset 16
 1473 0004 0190     		str	r0, [sp, #4]
 1474              		.loc 11 243 0
 1475 0006 0198     		ldr	r0, [sp, #4]
 1476 0008 FFF7FEFF 		bl	chBSemSignal
 1477              		.loc 11 244 0
 1478 000c 03B0     		add	sp, sp, #12
 1479              		@ sp needed
 1480 000e 5DF804FB 		ldr	pc, [sp], #4
 1481              		.cfi_endproc
 1482              	.LFE249:
 1483              		.size	thread4, .-thread4
 1484 0012 00BFAFF3 		.section	.text.sem4_execute,"ax",%progbits
 1484      0080AFF3 
 1484      0080AFF3 
 1484      0080
 1485              		.align	2
 1486              		.p2align 4,,15
 1487              		.thumb
 1488              		.thumb_func
 1489              		.type	sem4_execute, %function
 1490              	sem4_execute:
 1491              	.LFB250:
 1492              		.loc 11 246 0
 1493              		.cfi_startproc
 1494              		@ args = 0, pretend = 0, frame = 16
 1495              		@ frame_needed = 0, uses_anonymous_args = 0
 1496 0000 10B5     		push	{r4, lr}
 1497              		.cfi_def_cfa_offset 8
 1498              		.cfi_offset 4, -8
 1499              		.cfi_offset 14, -4
 1500 0002 86B0     		sub	sp, sp, #24
 1501              		.cfi_def_cfa_offset 32
 1502              		.loc 11 250 0
 1503 0004 03AB     		add	r3, sp, #12
 1504 0006 1846     		mov	r0, r3
 1505 0008 0121     		movs	r1, #1
 1506 000a FFF7FEFF 		bl	chBSemObjectInit
 1507              		.loc 11 251 0
 1508 000e 03AB     		add	r3, sp, #12
 1509 0010 1846     		mov	r0, r3
 1510 0012 0121     		movs	r1, #1
 1511 0014 FFF7FEFF 		bl	chBSemReset
 1512              		.loc 11 252 0
 1513 0018 FFF7FEFF 		bl	chSysLock
ARM GAS  /tmp/ccGuY2WI.s 			page 28


 1514 001c 03AB     		add	r3, sp, #12
 1515 001e 1846     		mov	r0, r3
 1516 0020 FFF7FEFF 		bl	chBSemGetStateI
 1517 0024 0346     		mov	r3, r0
 1518 0026 002B     		cmp	r3, #0
 1519 0028 0CBF     		ite	eq
 1520 002a 0023     		moveq	r3, #0
 1521 002c 0123     		movne	r3, #1
 1522 002e DBB2     		uxtb	r3, r3
 1523 0030 0120     		movs	r0, #1
 1524 0032 1946     		mov	r1, r3
 1525 0034 FFF7FEFF 		bl	_test_assert
 1526 0038 0346     		mov	r3, r0
 1527 003a 002B     		cmp	r3, #0
 1528 003c 02D0     		beq	.L88
 1529              		.loc 11 252 0 is_stmt 0 discriminator 1
 1530 003e FFF7FEFF 		bl	chSysUnlock
 1531 0042 A3E0     		b	.L87
 1532              	.L88:
 1533              		.loc 11 252 0 discriminator 2
 1534 0044 FFF7FEFF 		bl	chSysUnlock
 1535              		.loc 11 255 0 is_stmt 1 discriminator 2
 1536 0048 514B     		ldr	r3, .L96
 1537 004a 1C68     		ldr	r4, [r3]
 1538              		.loc 11 256 0 discriminator 2
 1539 004c FFF7FEFF 		bl	chThdGetPriorityX
 1540 0050 0346     		mov	r3, r0
 1541              		.loc 11 255 0 discriminator 2
 1542 0052 013B     		subs	r3, r3, #1
 1543 0054 03AA     		add	r2, sp, #12
 1544 0056 0092     		str	r2, [sp]
 1545 0058 2046     		mov	r0, r4
 1546 005a 4FF4B471 		mov	r1, #360
 1547 005e 1A46     		mov	r2, r3
 1548 0060 4C4B     		ldr	r3, .L96+4
 1549 0062 FFF7FEFF 		bl	chThdCreateStatic
 1550 0066 0246     		mov	r2, r0
 1551 0068 4B4B     		ldr	r3, .L96+8
 1552 006a 1A60     		str	r2, [r3]
 1553              		.loc 11 259 0 discriminator 2
 1554 006c 03AB     		add	r3, sp, #12
 1555 006e 1846     		mov	r0, r3
 1556 0070 FFF7FEFF 		bl	chBSemWait
 1557              		.loc 11 262 0 discriminator 2
 1558 0074 FFF7FEFF 		bl	chSysLock
 1559 0078 03AB     		add	r3, sp, #12
 1560 007a 1846     		mov	r0, r3
 1561 007c FFF7FEFF 		bl	chBSemGetStateI
 1562 0080 0346     		mov	r3, r0
 1563 0082 002B     		cmp	r3, #0
 1564 0084 0CBF     		ite	eq
 1565 0086 0023     		moveq	r3, #0
 1566 0088 0123     		movne	r3, #1
 1567 008a DBB2     		uxtb	r3, r3
 1568 008c 0220     		movs	r0, #2
 1569 008e 1946     		mov	r1, r3
 1570 0090 FFF7FEFF 		bl	_test_assert
ARM GAS  /tmp/ccGuY2WI.s 			page 29


 1571 0094 0346     		mov	r3, r0
 1572 0096 002B     		cmp	r3, #0
 1573 0098 02D0     		beq	.L90
 1574              		.loc 11 262 0 is_stmt 0 discriminator 1
 1575 009a FFF7FEFF 		bl	chSysUnlock
 1576 009e 75E0     		b	.L87
 1577              	.L90:
 1578              		.loc 11 262 0 discriminator 2
 1579 00a0 FFF7FEFF 		bl	chSysUnlock
 1580              		.loc 11 266 0 is_stmt 1 discriminator 2
 1581 00a4 03AB     		add	r3, sp, #12
 1582 00a6 1846     		mov	r0, r3
 1583 00a8 FFF7FEFF 		bl	chBSemSignal
 1584              		.loc 11 267 0 discriminator 2
 1585 00ac FFF7FEFF 		bl	chSysLock
 1586 00b0 03AB     		add	r3, sp, #12
 1587 00b2 1846     		mov	r0, r3
 1588 00b4 FFF7FEFF 		bl	chBSemGetStateI
 1589 00b8 0346     		mov	r3, r0
 1590 00ba 002B     		cmp	r3, #0
 1591 00bc 0CBF     		ite	eq
 1592 00be 0023     		moveq	r3, #0
 1593 00c0 0123     		movne	r3, #1
 1594 00c2 DBB2     		uxtb	r3, r3
 1595 00c4 83F00103 		eor	r3, r3, #1
 1596 00c8 DBB2     		uxtb	r3, r3
 1597 00ca 03F00103 		and	r3, r3, #1
 1598 00ce DBB2     		uxtb	r3, r3
 1599 00d0 0320     		movs	r0, #3
 1600 00d2 1946     		mov	r1, r3
 1601 00d4 FFF7FEFF 		bl	_test_assert
 1602 00d8 0346     		mov	r3, r0
 1603 00da 002B     		cmp	r3, #0
 1604 00dc 02D0     		beq	.L91
 1605              		.loc 11 267 0 is_stmt 0 discriminator 1
 1606 00de FFF7FEFF 		bl	chSysUnlock
 1607 00e2 53E0     		b	.L87
 1608              	.L91:
 1609              		.loc 11 267 0 discriminator 2
 1610 00e4 FFF7FEFF 		bl	chSysUnlock
 1611              		.loc 11 268 0 is_stmt 1 discriminator 2
 1612 00e8 FFF7FEFF 		bl	chSysLock
 1613 00ec 03AB     		add	r3, sp, #12
 1614 00ee 1846     		mov	r0, r3
 1615 00f0 FFF7FEFF 		bl	chSemGetCounterI
 1616 00f4 0346     		mov	r3, r0
 1617 00f6 012B     		cmp	r3, #1
 1618 00f8 14BF     		ite	ne
 1619 00fa 0023     		movne	r3, #0
 1620 00fc 0123     		moveq	r3, #1
 1621 00fe DBB2     		uxtb	r3, r3
 1622 0100 0420     		movs	r0, #4
 1623 0102 1946     		mov	r1, r3
 1624 0104 FFF7FEFF 		bl	_test_assert
 1625 0108 0346     		mov	r3, r0
 1626 010a 002B     		cmp	r3, #0
 1627 010c 02D0     		beq	.L92
ARM GAS  /tmp/ccGuY2WI.s 			page 30


 1628              		.loc 11 268 0 is_stmt 0 discriminator 1
 1629 010e FFF7FEFF 		bl	chSysUnlock
 1630 0112 3BE0     		b	.L87
 1631              	.L92:
 1632              		.loc 11 268 0 discriminator 2
 1633 0114 FFF7FEFF 		bl	chSysUnlock
 1634              		.loc 11 271 0 is_stmt 1 discriminator 2
 1635 0118 03AB     		add	r3, sp, #12
 1636 011a 1846     		mov	r0, r3
 1637 011c FFF7FEFF 		bl	chBSemSignal
 1638              		.loc 11 272 0 discriminator 2
 1639 0120 FFF7FEFF 		bl	chSysLock
 1640 0124 03AB     		add	r3, sp, #12
 1641 0126 1846     		mov	r0, r3
 1642 0128 FFF7FEFF 		bl	chBSemGetStateI
 1643 012c 0346     		mov	r3, r0
 1644 012e 002B     		cmp	r3, #0
 1645 0130 0CBF     		ite	eq
 1646 0132 0023     		moveq	r3, #0
 1647 0134 0123     		movne	r3, #1
 1648 0136 DBB2     		uxtb	r3, r3
 1649 0138 83F00103 		eor	r3, r3, #1
 1650 013c DBB2     		uxtb	r3, r3
 1651 013e 03F00103 		and	r3, r3, #1
 1652 0142 DBB2     		uxtb	r3, r3
 1653 0144 0320     		movs	r0, #3
 1654 0146 1946     		mov	r1, r3
 1655 0148 FFF7FEFF 		bl	_test_assert
 1656 014c 0346     		mov	r3, r0
 1657 014e 002B     		cmp	r3, #0
 1658 0150 02D0     		beq	.L93
 1659              		.loc 11 272 0 is_stmt 0 discriminator 1
 1660 0152 FFF7FEFF 		bl	chSysUnlock
 1661 0156 19E0     		b	.L87
 1662              	.L93:
 1663              		.loc 11 272 0 discriminator 2
 1664 0158 FFF7FEFF 		bl	chSysUnlock
 1665              		.loc 11 273 0 is_stmt 1 discriminator 2
 1666 015c FFF7FEFF 		bl	chSysLock
 1667 0160 03AB     		add	r3, sp, #12
 1668 0162 1846     		mov	r0, r3
 1669 0164 FFF7FEFF 		bl	chSemGetCounterI
 1670 0168 0346     		mov	r3, r0
 1671 016a 012B     		cmp	r3, #1
 1672 016c 14BF     		ite	ne
 1673 016e 0023     		movne	r3, #0
 1674 0170 0123     		moveq	r3, #1
 1675 0172 DBB2     		uxtb	r3, r3
 1676 0174 0520     		movs	r0, #5
 1677 0176 1946     		mov	r1, r3
 1678 0178 FFF7FEFF 		bl	_test_assert
 1679 017c 0346     		mov	r3, r0
 1680 017e 002B     		cmp	r3, #0
 1681 0180 02D0     		beq	.L94
 1682              		.loc 11 273 0 is_stmt 0 discriminator 1
 1683 0182 FFF7FEFF 		bl	chSysUnlock
 1684 0186 01E0     		b	.L87
ARM GAS  /tmp/ccGuY2WI.s 			page 31


 1685              	.L94:
 1686              		.loc 11 273 0 discriminator 2
 1687 0188 FFF7FEFF 		bl	chSysUnlock
 1688              	.L87:
 1689              		.loc 11 274 0 is_stmt 1
 1690 018c 06B0     		add	sp, sp, #24
 1691              		@ sp needed
 1692 018e 10BD     		pop	{r4, pc}
 1693              	.L97:
 1694              		.align	2
 1695              	.L96:
 1696 0190 00000000 		.word	wa
 1697 0194 00000000 		.word	thread4
 1698 0198 00000000 		.word	threads
 1699              		.cfi_endproc
 1700              	.LFE250:
 1701              		.size	sem4_execute, .-sem4_execute
 1702              		.global	testsem4
 1703 019c AFF30080 		.section	.rodata
 1704 0067 00       		.align	2
 1705              	.LC9:
 1706 0068 42696E61 		.ascii	"Binary Semaphores, functionality\000"
 1706      72792053 
 1706      656D6170 
 1706      686F7265 
 1706      732C2066 
 1707 0089 000000   		.section	.rodata.testsem4,"a",%progbits
 1708              		.align	2
 1709              		.type	testsem4, %object
 1710              		.size	testsem4, 16
 1711              	testsem4:
 1712 0000 68000000 		.word	.LC9
 1713 0004 00000000 		.word	0
 1714 0008 00000000 		.word	0
 1715 000c 00000000 		.word	sem4_execute
 1716              		.global	patternsem
 1717              		.section	.rodata.patternsem,"a",%progbits
 1718              		.align	2
 1719              		.type	patternsem, %object
 1720              		.size	patternsem, 20
 1721              	patternsem:
 1722 0000 00000000 		.word	testsem1
 1723 0004 00000000 		.word	testsem2
 1724 0008 00000000 		.word	testsem3
 1725 000c 00000000 		.word	testsem4
 1726 0010 00000000 		.word	0
 1727              		.section	.rodata.__func__.5925,"a",%progbits
 1728              		.align	2
 1729              		.type	__func__.5925, %object
 1730              		.size	__func__.5925, 12
 1731              	__func__.5925:
 1732 0000 63685379 		.ascii	"chSysUnlock\000"
 1732      73556E6C 
 1732      6F636B00 
 1733              		.text
 1734              	.Letext0:
 1735              		.file 12 "/usr/lib/gcc/arm-none-eabi/4.8/include/stddef.h"
ARM GAS  /tmp/ccGuY2WI.s 			page 32


 1736              		.file 13 "/usr/include/newlib/machine/_default_types.h"
 1737              		.file 14 "/usr/include/newlib/stdint.h"
 1738              		.file 15 "/home/efe/ChibiOS/os/rt/ports/ARMCMx/compilers/GCC/chtypes.h"
 1739              		.file 16 "/home/efe/ChibiOS/os/rt/include/chsystypes.h"
 1740              		.file 17 "/home/efe/ChibiOS/os/rt/ports/ARMCMx/chcore.h"
 1741              		.file 18 "/home/efe/ChibiOS/os/hal/ports/STM32/LLD/TIMv1/stm32_tim.h"
 1742              		.file 19 "/home/efe/ChibiOS/os/rt/include/chdebug.h"
 1743              		.file 20 "/home/efe/ChibiOS/os/rt/include/chtm.h"
 1744              		.file 21 "/home/efe/ChibiOS/os/rt/include/chstats.h"
 1745              		.file 22 "/home/efe/ChibiOS/os/rt/include/chmtx.h"
 1746              		.file 23 "/home/efe/ChibiOS/test/rt/test.h"
 1747              		.file 24 "/home/efe/ChibiOS/os/ext/CMSIS/include/core_cm4.h"